$ fq -d tzif dv Madeira
     |00 01 02 03 04 05 06 07 08 09 0a 0b 0c 0d 0e 0f|0123456789abcdef|.{}: Madeira (tzif) 0x0-0xe2a (3626)
     |                                               |                |  v1header{}: 0x0-0x2c (44)
0x000|54 5a 69 66                                    |TZif            |    magic: 0x545a6966 (valid) 0x0-0x4 (4)
0x000|            32                                 |    2           |    ver: "2" (0x32) (valid) 0x4-0x5 (1)
0x000|               00 00 00 00 00 00 00 00 00 00 00|     ...........|    reserved: raw bits 0x5-0x14 (15)
0x010|00 00 00 00                                    |....            |
0x010|            00 00 00 0d                        |    ....        |    isutcnt: 13 0x14-0x18 (4)
0x010|                        00 00 00 0d            |        ....    |    isstdcnt: 13 0x18-0x1c (4)
0x010|                                    00 00 00 1b|            ....|    leapcnt: 27 0x1c-0x20 (4)
0x020|00 00 00 c3                                    |....            |    timecnt: 195 0x20-0x24 (4)
0x020|            00 00 00 0d                        |    ....        |    typecnt: 13 0x24-0x28 (4)
0x020|                        00 00 00 1d            |        ....    |    charcnt: 29 0x28-0x2c (4)
     |                                               |                |  v1datablock{}: 0x2c-0x558 (1324)
     |                                               |                |    transition_times[0:195]: 0x2c-0x338 (780)
0x020|                                    80 00 00 00|            ....|      [0]: "1901-12-13T20:45:52Z" (-2147483648) transition_time 0x2c-0x30 (4)
0x030|92 e6 9c 90                                    |....            |      [1]: "1912-01-01T01:00:00Z" (-1830380400) transition_time 0x30-0x34 (4)
0x030|            9b 4b 7b 80                        |    .K{.        |      [2]: "1916-06-18T00:00:00Z" (-1689552000) transition_time 0x34-0x38 (4)
0x030|                        9b fe d5 90            |        ....    |      [3]: "1916-11-01T01:00:00Z" (-1677798000) transition_time 0x38-0x3c (4)
0x030|                                    9c 9c fb 80|            ....|      [4]: "1917-03-01T00:00:00Z" (-1667433600) transition_time 0x3c-0x40 (4)
0x040|9d c9 91 80                                    |....            |      [5]: "1917-10-15T00:00:00Z" (-1647734400) transition_time 0x40-0x44 (4)
0x040|            9e 7f 80 80                        |    ....        |      [6]: "1918-03-02T00:00:00Z" (-1635811200) transition_time 0x44-0x48 (4)
0x040|                        9f aa c5 00            |        ....    |      [7]: "1918-10-15T00:00:00Z" (-1616198400) transition_time 0x48-0x4c (4)
0x040|                                    a0 5f 62 80|            ._b.|      [8]: "1919-03-01T00:00:00Z" (-1604361600) transition_time 0x4c-0x50 (4)
0x050|a1 8b f8 80                                    |....            |      [9]: "1919-10-15T00:00:00Z" (-1584662400) transition_time 0x50-0x54 (4)
0x050|            a2 41 e7 80                        |    .A..        |      [10]: "1920-03-01T00:00:00Z" (-1572739200) transition_time 0x54-0x58 (4)
0x050|                        a3 6e 7d 80            |        .n}.    |      [11]: "1920-10-15T00:00:00Z" (-1553040000) transition_time 0x58-0x5c (4)
0x050|                                    a4 23 1b 00|            .#..|      [12]: "1921-03-01T00:00:00Z" (-1541203200) transition_time 0x5c-0x60 (4)
0x060|a5 4f b1 00                                    |.O..            |      [13]: "1921-10-15T00:00:00Z" (-1521504000) transition_time 0x60-0x64 (4)
0x060|            aa 05 fd 80                        |    ....        |      [14]: "1924-04-17T00:00:00Z" (-1442448000) transition_time 0x64-0x68 (4)
0x060|                        aa f4 9d 00            |        ....    |      [15]: "1924-10-15T00:00:00Z" (-1426809600) transition_time 0x68-0x6c (4)
0x060|                                    ad c9 b6 00|            ....|      [16]: "1926-04-18T00:00:00Z" (-1379289600) transition_time 0x6c-0x70 (4)
0x070|ae a7 32 00                                    |..2.            |      [17]: "1926-10-03T00:00:00Z" (-1364774400) transition_time 0x70-0x74 (4)
0x070|            af a0 5d 80                        |    ..].        |      [18]: "1927-04-10T00:00:00Z" (-1348444800) transition_time 0x74-0x78 (4)
0x070|                        b0 87 14 00            |        ....    |      [19]: "1927-10-02T00:00:00Z" (-1333324800) transition_time 0x78-0x7c (4)
0x070|                                    b1 89 7a 00|            ..z.|      [20]: "1928-04-15T00:00:00Z" (-1316390400) transition_time 0x7c-0x80 (4)
0x080|b2 70 30 80                                    |.p0.            |      [21]: "1928-10-07T00:00:00Z" (-1301270400) transition_time 0x80-0x84 (4)
0x080|            b3 72 96 80                        |    .r..        |      [22]: "1929-04-21T00:00:00Z" (-1284336000) transition_time 0x84-0x88 (4)
0x080|                        b4 50 12 80            |        .P..    |      [23]: "1929-10-06T00:00:00Z" (-1269820800) transition_time 0x88-0x8c (4)
0x080|                                    b7 32 5a 80|            .2Z.|      [24]: "1931-04-19T00:00:00Z" (-1221436800) transition_time 0x8c-0x90 (4)
0x090|b8 0f d6 80                                    |....            |      [25]: "1931-10-04T00:00:00Z" (-1206921600) transition_time 0x90-0x94 (4)
0x090|            b8 ff c7 80                        |    ....        |      [26]: "1932-04-03T00:00:00Z" (-1191196800) transition_time 0x94-0x98 (4)
0x090|                        b9 ef b8 80            |        ....    |      [27]: "1932-10-02T00:00:00Z" (-1175472000) transition_time 0x98-0x9c (4)
0x090|                                    bc c8 c6 00|            ....|      [28]: "1934-04-08T00:00:00Z" (-1127692800) transition_time 0x9c-0xa0 (4)
0x0a0|bd b8 b7 00                                    |....            |      [29]: "1934-10-07T00:00:00Z" (-1111968000) transition_time 0xa0-0xa4 (4)
0x0a0|            be 9f 6d 80                        |    ..m.        |      [30]: "1935-03-31T00:00:00Z" (-1096848000) transition_time 0xa4-0xa8 (4)
0x0a0|                        bf 98 99 00            |        ....    |      [31]: "1935-10-06T00:00:00Z" (-1080518400) transition_time 0xa8-0xac (4)
0x0a0|                                    c0 9a ff 00|            ....|      [32]: "1936-04-19T00:00:00Z" (-1063584000) transition_time 0xac-0xb0 (4)
0x0b0|c1 78 7b 00                                    |.x{.            |      [33]: "1936-10-04T00:00:00Z" (-1049068800) transition_time 0xb0-0xb4 (4)
0x0b0|            c2 68 6c 00                        |    .hl.        |      [34]: "1937-04-04T00:00:00Z" (-1033344000) transition_time 0xb4-0xb8 (4)
0x0b0|                        c3 58 5d 00            |        .X].    |      [35]: "1937-10-03T00:00:00Z" (-1017619200) transition_time 0xb8-0xbc (4)
0x0b0|                                    c4 3f 13 80|            .?..|      [36]: "1938-03-27T00:00:00Z" (-1002499200) transition_time 0xbc-0xc0 (4)
0x0c0|c5 38 3f 00                                    |.8?.            |      [37]: "1938-10-02T00:00:00Z" (-986169600) transition_time 0xc0-0xc4 (4)
0x0c0|            c6 3a a5 00                        |    .:..        |      [38]: "1939-04-16T00:00:00Z" (-969235200) transition_time 0xc4-0xc8 (4)
0x0c0|                        c7 58 ba 80            |        .X..    |      [39]: "1939-11-19T00:00:00Z" (-950486400) transition_time 0xc8-0xcc (4)
0x0c0|                                    c7 d9 ed 80|            ....|      [40]: "1940-02-25T00:00:00Z" (-942019200) transition_time 0xcc-0xd0 (4)
0x0d0|c9 01 3d 80                                    |..=.            |      [41]: "1940-10-06T00:00:00Z" (-922665600) transition_time 0xd0-0xd4 (4)
0x0d0|            c9 f1 2e 80                        |    ....        |      [42]: "1941-04-06T00:00:00Z" (-906940800) transition_time 0xd4-0xd8 (4)
0x0d0|                        ca e2 71 00            |        ..q.    |      [43]: "1941-10-06T00:00:00Z" (-891129600) transition_time 0xd8-0xdc (4)
0x0d0|                                    cb b5 61 00|            ..a.|      [44]: "1942-03-15T00:00:00Z" (-877305600) transition_time 0xdc-0xe0 (4)
0x0e0|cb ec b1 f0                                    |....            |      [45]: "1942-04-25T23:00:00Z" (-873680400) transition_time 0xe0-0xe4 (4)
0x0e0|            cc 80 59 f0                        |    ..Y.        |      [46]: "1942-08-15T23:00:00Z" (-864003600) transition_time 0xe4-0xe8 (4)
0x0e0|                        cc dc b1 00            |        ....    |      [47]: "1942-10-25T00:00:00Z" (-857952000) transition_time 0xe8-0xec (4)
0x0e0|                                    cd 95 43 00|            ..C.|      [48]: "1943-03-14T00:00:00Z" (-845856000) transition_time 0xec-0xf0 (4)
0x0f0|cd c3 59 70                                    |..Yp            |      [49]: "1943-04-17T23:00:00Z" (-842835600) transition_time 0xf0-0xf4 (4)
0x0f0|            ce 72 b0 f0                        |    .r..        |      [50]: "1943-08-28T23:00:00Z" (-831344400) transition_time 0xf4-0xf8 (4)
0x0f0|                        ce c5 cd 80            |        ....    |      [51]: "1943-10-31T00:00:00Z" (-825897600) transition_time 0xf8-0xfc (4)
0x0f0|                                    cf 75 25 00|            .u%.|      [52]: "1944-03-12T00:00:00Z" (-814406400) transition_time 0xfc-0x100 (4)
0x100|cf ac 75 f0                                    |..u.            |      [53]: "1944-04-22T23:00:00Z" (-810781200) transition_time 0x100-0x104 (4)
0x100|            d0 52 92 f0                        |    .R..        |      [54]: "1944-08-26T23:00:00Z" (-799894800) transition_time 0x104-0x108 (4)
0x100|                        d0 a5 af 80            |        ....    |      [55]: "1944-10-29T00:00:00Z" (-794448000) transition_time 0x108-0x10c (4)
0x100|                                    d1 55 07 00|            .U..|      [56]: "1945-03-11T00:00:00Z" (-782956800) transition_time 0x10c-0x110 (4)
0x110|d1 8c 57 f0                                    |..W.            |      [57]: "1945-04-21T23:00:00Z" (-779331600) transition_time 0x110-0x114 (4)
0x110|            d2 32 74 f0                        |    .2t.        |      [58]: "1945-08-25T23:00:00Z" (-768445200) transition_time 0x114-0x118 (4)
0x110|                        d2 85 91 80            |        ....    |      [59]: "1945-10-28T00:00:00Z" (-762998400) transition_time 0x118-0x11c (4)
0x110|                                    d3 59 d3 00|            .Y..|      [60]: "1946-04-07T00:00:00Z" (-749088000) transition_time 0x11c-0x120 (4)
0x120|d4 49 c4 00                                    |.I..            |      [61]: "1946-10-06T00:00:00Z" (-733363200) transition_time 0x120-0x124 (4)
0x120|            d5 39 df 30                        |    .9.0        |      [62]: "1947-04-06T03:00:00Z" (-717627600) transition_time 0x124-0x128 (4)
0x120|                        d6 29 d0 30            |        .).0    |      [63]: "1947-10-05T03:00:00Z" (-701902800) transition_time 0x128-0x12c (4)
0x120|                                    d7 19 c1 30|            ...0|      [64]: "1948-04-04T03:00:00Z" (-686178000) transition_time 0x12c-0x130 (4)
0x130|d8 09 b2 30                                    |...0            |      [65]: "1948-10-03T03:00:00Z" (-670453200) transition_time 0x130-0x134 (4)
0x130|            d8 f9 a3 30                        |    ...0        |      [66]: "1949-04-03T03:00:00Z" (-654728400) transition_time 0x134-0x138 (4)
0x130|                        d9 e9 94 30            |        ...0    |      [67]: "1949-10-02T03:00:00Z" (-639003600) transition_time 0x138-0x13c (4)
0x130|                                    da d9 85 30|            ...0|      [68]: "1950-04-02T03:00:00Z" (-623278800) transition_time 0x13c-0x140 (4)
0x140|db c9 76 30                                    |..v0            |      [69]: "1950-10-01T03:00:00Z" (-607554000) transition_time 0x140-0x144 (4)
0x140|            dc b9 67 30                        |    ..g0        |      [70]: "1951-04-01T03:00:00Z" (-591829200) transition_time 0x144-0x148 (4)
0x140|                        dd b2 92 b0            |        ....    |      [71]: "1951-10-07T03:00:00Z" (-575499600) transition_time 0x148-0x14c (4)
0x140|                                    de a2 83 b0|            ....|      [72]: "1952-04-06T03:00:00Z" (-559774800) transition_time 0x14c-0x150 (4)
0x150|df 92 74 b0                                    |..t.            |      [73]: "1952-10-05T03:00:00Z" (-544050000) transition_time 0x150-0x154 (4)
0x150|            e0 82 65 b0                        |    ..e.        |      [74]: "1953-04-05T03:00:00Z" (-528325200) transition_time 0x154-0x158 (4)
0x150|                        e1 72 56 b0            |        .rV.    |      [75]: "1953-10-04T03:00:00Z" (-512600400) transition_time 0x158-0x15c (4)
0x150|                                    e2 62 47 b0|            .bG.|      [76]: "1954-04-04T03:00:00Z" (-496875600) transition_time 0x15c-0x160 (4)
0x160|e3 52 38 b0                                    |.R8.            |      [77]: "1954-10-03T03:00:00Z" (-481150800) transition_time 0x160-0x164 (4)
0x160|            e4 42 29 b0                        |    .B).        |      [78]: "1955-04-03T03:00:00Z" (-465426000) transition_time 0x164-0x168 (4)
0x160|                        e5 32 1a b0            |        .2..    |      [79]: "1955-10-02T03:00:00Z" (-449701200) transition_time 0x168-0x16c (4)
0x160|                                    e6 22 0b b0|            ."..|      [80]: "1956-04-01T03:00:00Z" (-433976400) transition_time 0x16c-0x170 (4)
0x170|e7 1b 37 30                                    |..70            |      [81]: "1956-10-07T03:00:00Z" (-417646800) transition_time 0x170-0x174 (4)
0x170|            e8 0b 28 30                        |    ..(0        |      [82]: "1957-04-07T03:00:00Z" (-401922000) transition_time 0x174-0x178 (4)
0x170|                        e8 fb 19 30            |        ...0    |      [83]: "1957-10-06T03:00:00Z" (-386197200) transition_time 0x178-0x17c (4)
0x170|                                    e9 eb 0a 30|            ...0|      [84]: "1958-04-06T03:00:00Z" (-370472400) transition_time 0x17c-0x180 (4)
0x180|ea da fb 30                                    |...0            |      [85]: "1958-10-05T03:00:00Z" (-354747600) transition_time 0x180-0x184 (4)
0x180|            eb ca ec 30                        |    ...0        |      [86]: "1959-04-05T03:00:00Z" (-339022800) transition_time 0x184-0x188 (4)
0x180|                        ec ba dd 30            |        ...0    |      [87]: "1959-10-04T03:00:00Z" (-323298000) transition_time 0x188-0x18c (4)
0x180|                                    ed aa ce 30|            ...0|      [88]: "1960-04-03T03:00:00Z" (-307573200) transition_time 0x18c-0x190 (4)
0x190|ee 9a bf 30                                    |...0            |      [89]: "1960-10-02T03:00:00Z" (-291848400) transition_time 0x190-0x194 (4)
0x190|            ef 8a b0 30                        |    ...0        |      [90]: "1961-04-02T03:00:00Z" (-276123600) transition_time 0x194-0x198 (4)
0x190|                        f0 7a a1 30            |        .z.0    |      [91]: "1961-10-01T03:00:00Z" (-260398800) transition_time 0x198-0x19c (4)
0x190|                                    f1 6a 92 30|            .j.0|      [92]: "1962-04-01T03:00:00Z" (-244674000) transition_time 0x19c-0x1a0 (4)
0x1a0|f2 63 bd b0                                    |.c..            |      [93]: "1962-10-07T03:00:00Z" (-228344400) transition_time 0x1a0-0x1a4 (4)
0x1a0|            f3 53 ae b0                        |    .S..        |      [94]: "1963-04-07T03:00:00Z" (-212619600) transition_time 0x1a4-0x1a8 (4)
0x1a0|                        f4 43 9f b0            |        .C..    |      [95]: "1963-10-06T03:00:00Z" (-196894800) transition_time 0x1a8-0x1ac (4)
0x1a0|                                    f5 33 90 b0|            .3..|      [96]: "1964-04-05T03:00:00Z" (-181170000) transition_time 0x1ac-0x1b0 (4)
0x1b0|f6 23 81 b0                                    |.#..            |      [97]: "1964-10-04T03:00:00Z" (-165445200) transition_time 0x1b0-0x1b4 (4)
0x1b0|            f7 13 72 b0                        |    ..r.        |      [98]: "1965-04-04T03:00:00Z" (-149720400) transition_time 0x1b4-0x1b8 (4)
0x1b0|                        f8 03 63 b0            |        ..c.    |      [99]: "1965-10-03T03:00:00Z" (-133995600) transition_time 0x1b8-0x1bc (4)
0x1b0|                                    f8 f3 54 b0|            ..T.|      [100]: "1966-04-03T03:00:00Z" (-118270800) transition_time 0x1bc-0x1c0 (4)
0x1c0|0d 9b 1b 06                                    |....            |      [101]: "1977-03-27T00:00:06Z" (228268806) transition_time 0x1c0-0x1c4 (4)
0x1c0|            0e 8b 0c 06                        |    ....        |      [102]: "1977-09-25T00:00:06Z" (243993606) transition_time 0x1c4-0x1c8 (4)
0x1c0|                        0f 84 37 87            |        ..7.    |      [103]: "1978-04-02T00:00:07Z" (260323207) transition_time 0x1c8-0x1cc (4)
0x1c0|                                    10 74 28 87|            .t(.|      [104]: "1978-10-01T00:00:07Z" (276048007) transition_time 0x1cc-0x1d0 (4)
0x1d0|11 64 19 88                                    |.d..            |      [105]: "1979-04-01T00:00:08Z" (291772808) transition_time 0x1d0-0x1d4 (4)
0x1d0|            12 54 18 98                        |    .T..        |      [106]: "1979-09-30T01:00:08Z" (307501208) transition_time 0x1d4-0x1d8 (4)
0x1d0|                        13 43 fb 89            |        .C..    |      [107]: "1980-03-30T00:00:09Z" (323222409) transition_time 0x1d8-0x1dc (4)
0x1d0|                                    14 33 fa 99|            .3..|      [108]: "1980-09-28T01:00:09Z" (338950809) transition_time 0x1dc-0x1e0 (4)
0x1e0|15 23 eb 99                                    |.#..            |      [109]: "1981-03-29T01:00:09Z" (354675609) transition_time 0x1e0-0x1e4 (4)
0x1e0|            16 13 dc 9a                        |    ....        |      [110]: "1981-09-27T01:00:10Z" (370400410) transition_time 0x1e4-0x1e8 (4)
0x1e0|                        17 03 cd 9a            |        ....    |      [111]: "1982-03-28T01:00:10Z" (386125210) transition_time 0x1e8-0x1ec (4)
0x1e0|                                    17 f3 be 9b|            ....|      [112]: "1982-09-26T01:00:11Z" (401850011) transition_time 0x1ec-0x1f0 (4)
0x1f0|18 e3 bd ab                                    |....            |      [113]: "1983-03-27T02:00:11Z" (417578411) transition_time 0x1f0-0x1f4 (4)
0x1f0|            19 d3 a0 9c                        |    ....        |      [114]: "1983-09-25T01:00:12Z" (433299612) transition_time 0x1f4-0x1f8 (4)
0x1f0|                        1a c3 91 9c            |        ....    |      [115]: "1984-03-25T01:00:12Z" (449024412) transition_time 0x1f8-0x1fc (4)
0x1f0|                                    1b bc bd 1c|            ....|      [116]: "1984-09-30T01:00:12Z" (465354012) transition_time 0x1fc-0x200 (4)
0x200|1c ac ae 1c                                    |....            |      [117]: "1985-03-31T01:00:12Z" (481078812) transition_time 0x200-0x204 (4)
0x200|            1d 9c 9f 1d                        |    ....        |      [118]: "1985-09-29T01:00:13Z" (496803613) transition_time 0x204-0x208 (4)
0x200|                        1e 8c 90 1d            |        ....    |      [119]: "1986-03-30T01:00:13Z" (512528413) transition_time 0x208-0x20c (4)
0x200|                                    1f 7c 81 1d|            .|..|      [120]: "1986-09-28T01:00:13Z" (528253213) transition_time 0x20c-0x210 (4)
0x210|20 6c 72 1d                                    | lr.            |      [121]: "1987-03-29T01:00:13Z" (543978013) transition_time 0x210-0x214 (4)
0x210|            21 5c 63 1d                        |    !\c.        |      [122]: "1987-09-27T01:00:13Z" (559702813) transition_time 0x214-0x218 (4)
0x210|                        22 4c 54 1e            |        "LT.    |      [123]: "1988-03-27T01:00:14Z" (575427614) transition_time 0x218-0x21c (4)
0x210|                                    23 3c 45 1e|            #<E.|      [124]: "1988-09-25T01:00:14Z" (591152414) transition_time 0x21c-0x220 (4)
0x220|24 2c 36 1e                                    |$,6.            |      [125]: "1989-03-26T01:00:14Z" (606877214) transition_time 0x220-0x224 (4)
0x220|            25 1c 27 1e                        |    %.'.        |      [126]: "1989-09-24T01:00:14Z" (622602014) transition_time 0x224-0x228 (4)
0x220|                        26 0c 18 1f            |        &...    |      [127]: "1990-03-25T01:00:15Z" (638326815) transition_time 0x228-0x22c (4)
0x220|                                    27 05 43 9f|            '.C.|      [128]: "1990-09-30T01:00:15Z" (654656415) transition_time 0x22c-0x230 (4)
0x230|27 f5 34 a0                                    |'.4.            |      [129]: "1991-03-31T01:00:16Z" (670381216) transition_time 0x230-0x234 (4)
0x230|            28 e5 25 a0                        |    (.%.        |      [130]: "1991-09-29T01:00:16Z" (686106016) transition_time 0x234-0x238 (4)
0x230|                        29 d5 16 a0            |        )...    |      [131]: "1992-03-29T01:00:16Z" (701830816) transition_time 0x238-0x23c (4)
0x230|                                    2a c5 07 a1|            *...|      [132]: "1992-09-27T01:00:17Z" (717555617) transition_time 0x23c-0x240 (4)
0x240|2b b4 f8 a1                                    |+...            |      [133]: "1993-03-28T01:00:17Z" (733280417) transition_time 0x240-0x244 (4)
0x240|            2c a4 e9 a2                        |    ,...        |      [134]: "1993-09-26T01:00:18Z" (749005218) transition_time 0x244-0x248 (4)
0x240|                        2d 94 da a2            |        -...    |      [135]: "1994-03-27T01:00:18Z" (764730018) transition_time 0x248-0x24c (4)
0x240|                                    2e 84 cb a3|            ....|      [136]: "1994-09-25T01:00:19Z" (780454819) transition_time 0x24c-0x250 (4)
0x250|2f 74 bc a3                                    |/t..            |      [137]: "1995-03-26T01:00:19Z" (796179619) transition_time 0x250-0x254 (4)
0x250|            30 64 ad a3                        |    0d..        |      [138]: "1995-09-24T01:00:19Z" (811904419) transition_time 0x254-0x258 (4)
0x250|                        31 5d d9 24            |        1].$    |      [139]: "1996-03-31T01:00:20Z" (828234020) transition_time 0x258-0x25c (4)
0x250|                                    32 72 b4 24|            2r.$|      [140]: "1996-10-27T01:00:20Z" (846378020) transition_time 0x25c-0x260 (4)
0x260|33 3d bb 24                                    |3=.$            |      [141]: "1997-03-30T01:00:20Z" (859683620) transition_time 0x260-0x264 (4)
0x260|            34 52 96 25                        |    4R.%        |      [142]: "1997-10-26T01:00:21Z" (877827621) transition_time 0x264-0x268 (4)
0x260|                        35 1d 9d 25            |        5..%    |      [143]: "1998-03-29T01:00:21Z" (891133221) transition_time 0x268-0x26c (4)
0x260|                                    36 32 78 25|            62x%|      [144]: "1998-10-25T01:00:21Z" (909277221) transition_time 0x26c-0x270 (4)
0x270|36 fd 7f 26                                    |6..&            |      [145]: "1999-03-28T01:00:22Z" (922582822) transition_time 0x270-0x274 (4)
0x270|            38 1b 94 a6                        |    8...        |      [146]: "1999-10-31T01:00:22Z" (941331622) transition_time 0x274-0x278 (4)
0x270|                        38 dd 61 26            |        8.a&    |      [147]: "2000-03-26T01:00:22Z" (954032422) transition_time 0x278-0x27c (4)
0x270|                                    39 fb 76 a6|            9.v.|      [148]: "2000-10-29T01:00:22Z" (972781222) transition_time 0x27c-0x280 (4)
0x280|3a bd 43 26                                    |:.C&            |      [149]: "2001-03-25T01:00:22Z" (985482022) transition_time 0x280-0x284 (4)
0x280|            3b db 58 a6                        |    ;.X.        |      [150]: "2001-10-28T01:00:22Z" (1004230822) transition_time 0x284-0x288 (4)
0x280|                        3c a6 5f a6            |        <._.    |      [151]: "2002-03-31T01:00:22Z" (1017536422) transition_time 0x288-0x28c (4)
0x280|                                    3d bb 3a a6|            =.:.|      [152]: "2002-10-27T01:00:22Z" (1035680422) transition_time 0x28c-0x290 (4)
0x290|3e 86 41 a6                                    |>.A.            |      [153]: "2003-03-30T01:00:22Z" (1048986022) transition_time 0x290-0x294 (4)
0x290|            3f 9b 1c a6                        |    ?...        |      [154]: "2003-10-26T01:00:22Z" (1067130022) transition_time 0x294-0x298 (4)
0x290|                        40 66 23 a6            |        @f#.    |      [155]: "2004-03-28T01:00:22Z" (1080435622) transition_time 0x298-0x29c (4)
0x290|                                    41 84 39 26|            A.9&|      [156]: "2004-10-31T01:00:22Z" (1099184422) transition_time 0x29c-0x2a0 (4)
0x2a0|42 46 05 a6                                    |BF..            |      [157]: "2005-03-27T01:00:22Z" (1111885222) transition_time 0x2a0-0x2a4 (4)
0x2a0|            43 64 1b 26                        |    Cd.&        |      [158]: "2005-10-30T01:00:22Z" (1130634022) transition_time 0x2a4-0x2a8 (4)
0x2a0|                        44 25 e7 a7            |        D%..    |      [159]: "2006-03-26T01:00:23Z" (1143334823) transition_time 0x2a8-0x2ac (4)
0x2a0|                                    45 43 fd 27|            EC.'|      [160]: "2006-10-29T01:00:23Z" (1162083623) transition_time 0x2ac-0x2b0 (4)
0x2b0|46 05 c9 a7                                    |F...            |      [161]: "2007-03-25T01:00:23Z" (1174784423) transition_time 0x2b0-0x2b4 (4)
0x2b0|            47 23 df 27                        |    G#.'        |      [162]: "2007-10-28T01:00:23Z" (1193533223) transition_time 0x2b4-0x2b8 (4)
0x2b0|                        47 ee e6 27            |        G..'    |      [163]: "2008-03-30T01:00:23Z" (1206838823) transition_time 0x2b8-0x2bc (4)
0x2b0|                                    49 03 c1 27|            I..'|      [164]: "2008-10-26T01:00:23Z" (1224982823) transition_time 0x2bc-0x2c0 (4)
0x2c0|49 ce c8 28                                    |I..(            |      [165]: "2009-03-29T01:00:24Z" (1238288424) transition_time 0x2c0-0x2c4 (4)
0x2c0|            4a e3 a3 28                        |    J..(        |      [166]: "2009-10-25T01:00:24Z" (1256432424) transition_time 0x2c4-0x2c8 (4)
0x2c0|                        4b ae aa 28            |        K..(    |      [167]: "2010-03-28T01:00:24Z" (1269738024) transition_time 0x2c8-0x2cc (4)
0x2c0|                                    4c cc bf a8|            L...|      [168]: "2010-10-31T01:00:24Z" (1288486824) transition_time 0x2cc-0x2d0 (4)
0x2d0|4d 8e 8c 28                                    |M..(            |      [169]: "2011-03-27T01:00:24Z" (1301187624) transition_time 0x2d0-0x2d4 (4)
0x2d0|            4e ac a1 a8                        |    N...        |      [170]: "2011-10-30T01:00:24Z" (1319936424) transition_time 0x2d4-0x2d8 (4)
0x2d0|                        4f 6e 6e 28            |        Onn(    |      [171]: "2012-03-25T01:00:24Z" (1332637224) transition_time 0x2d8-0x2dc (4)
0x2d0|                                    50 8c 83 a9|            P...|      [172]: "2012-10-28T01:00:25Z" (1351386025) transition_time 0x2dc-0x2e0 (4)
0x2e0|51 57 8a a9                                    |QW..            |      [173]: "2013-03-31T01:00:25Z" (1364691625) transition_time 0x2e0-0x2e4 (4)
0x2e0|            52 6c 65 a9                        |    Rle.        |      [174]: "2013-10-27T01:00:25Z" (1382835625) transition_time 0x2e4-0x2e8 (4)
0x2e0|                        53 37 6c a9            |        S7l.    |      [175]: "2014-03-30T01:00:25Z" (1396141225) transition_time 0x2e8-0x2ec (4)
0x2e0|                                    54 4c 47 a9|            TLG.|      [176]: "2014-10-26T01:00:25Z" (1414285225) transition_time 0x2ec-0x2f0 (4)
0x2f0|55 17 4e a9                                    |U.N.            |      [177]: "2015-03-29T01:00:25Z" (1427590825) transition_time 0x2f0-0x2f4 (4)
0x2f0|            56 2c 29 aa                        |    V,).        |      [178]: "2015-10-25T01:00:26Z" (1445734826) transition_time 0x2f4-0x2f8 (4)
0x2f0|                        56 f7 30 aa            |        V.0.    |      [179]: "2016-03-27T01:00:26Z" (1459040426) transition_time 0x2f8-0x2fc (4)
0x2f0|                                    58 15 46 2a|            X.F*|      [180]: "2016-10-30T01:00:26Z" (1477789226) transition_time 0x2fc-0x300 (4)
0x300|58 d7 12 ab                                    |X...            |      [181]: "2017-03-26T01:00:27Z" (1490490027) transition_time 0x300-0x304 (4)
0x300|            59 f5 28 2b                        |    Y.(+        |      [182]: "2017-10-29T01:00:27Z" (1509238827) transition_time 0x304-0x308 (4)
0x300|                        5a b6 f4 ab            |        Z...    |      [183]: "2018-03-25T01:00:27Z" (1521939627) transition_time 0x308-0x30c (4)
0x300|                                    5b d5 0a 2b|            [..+|      [184]: "2018-10-28T01:00:27Z" (1540688427) transition_time 0x30c-0x310 (4)
0x310|5c a0 11 2b                                    |\..+            |      [185]: "2019-03-31T01:00:27Z" (1553994027) transition_time 0x310-0x314 (4)
0x310|            5d b4 ec 2b                        |    ]..+        |      [186]: "2019-10-27T01:00:27Z" (1572138027) transition_time 0x314-0x318 (4)
0x310|                        5e 7f f3 2b            |        ^..+    |      [187]: "2020-03-29T01:00:27Z" (1585443627) transition_time 0x318-0x31c (4)
0x310|                                    5f 94 ce 2b|            _..+|      [188]: "2020-10-25T01:00:27Z" (1603587627) transition_time 0x31c-0x320 (4)
0x320|60 5f d5 2b                                    |`_.+            |      [189]: "2021-03-28T01:00:27Z" (1616893227) transition_time 0x320-0x324 (4)
0x320|            61 7d ea ab                        |    a}..        |      [190]: "2021-10-31T01:00:27Z" (1635642027) transition_time 0x324-0x328 (4)
0x320|                        62 3f b7 2b            |        b?.+    |      [191]: "2022-03-27T01:00:27Z" (1648342827) transition_time 0x328-0x32c (4)
0x320|                                    63 5d cc ab|            c]..|      [192]: "2022-10-30T01:00:27Z" (1667091627) transition_time 0x32c-0x330 (4)
0x330|64 1f 99 2b                                    |d..+            |      [193]: "2023-03-26T01:00:27Z" (1679792427) transition_time 0x330-0x334 (4)
0x330|            64 9b 78 1b                        |    d.x.        |      [194]: "2023-06-28T00:00:27Z" (1687910427) transition_time 0x334-0x338 (4)
     |                                               |                |    transition_types[0:195]: 0x338-0x3fb (195)
0x330|                        01                     |        .       |      [0]: 1 transition_type 0x338-0x339 (1)
0x330|                           06                  |         .      |      [1]: 6 transition_type 0x339-0x33a (1)
0x330|                              02               |          .     |      [2]: 2 transition_type 0x33a-0x33b (1)
0x330|                                 03            |           .    |      [3]: 3 transition_type 0x33b-0x33c (1)
0x330|                                    04         |            .   |      [4]: 4 transition_type 0x33c-0x33d (1)
0x330|                                       05      |             .  |      [5]: 5 transition_type 0x33d-0x33e (1)
0x330|                                          04   |              . |      [6]: 4 transition_type 0x33e-0x33f (1)
0x330|                                             05|               .|      [7]: 5 transition_type 0x33f-0x340 (1)
0x340|04                                             |.               |      [8]: 4 transition_type 0x340-0x341 (1)
0x340|   05                                          | .              |      [9]: 5 transition_type 0x341-0x342 (1)
0x340|      04                                       |  .             |      [10]: 4 transition_type 0x342-0x343 (1)
0x340|         05                                    |   .            |      [11]: 5 transition_type 0x343-0x344 (1)
0x340|            04                                 |    .           |      [12]: 4 transition_type 0x344-0x345 (1)
0x340|               05                              |     .          |      [13]: 5 transition_type 0x345-0x346 (1)
0x340|                  04                           |      .         |      [14]: 4 transition_type 0x346-0x347 (1)
0x340|                     05                        |       .        |      [15]: 5 transition_type 0x347-0x348 (1)
0x340|                        04                     |        .       |      [16]: 4 transition_type 0x348-0x349 (1)
0x340|                           05                  |         .      |      [17]: 5 transition_type 0x349-0x34a (1)
0x340|                              04               |          .     |      [18]: 4 transition_type 0x34a-0x34b (1)
0x340|                                 05            |           .    |      [19]: 5 transition_type 0x34b-0x34c (1)
0x340|                                    04         |            .   |      [20]: 4 transition_type 0x34c-0x34d (1)
0x340|                                       05      |             .  |      [21]: 5 transition_type 0x34d-0x34e (1)
0x340|                                          04   |              . |      [22]: 4 transition_type 0x34e-0x34f (1)
0x340|                                             05|               .|      [23]: 5 transition_type 0x34f-0x350 (1)
0x350|04                                             |.               |      [24]: 4 transition_type 0x350-0x351 (1)
0x350|   05                                          | .              |      [25]: 5 transition_type 0x351-0x352 (1)
0x350|      04                                       |  .             |      [26]: 4 transition_type 0x352-0x353 (1)
0x350|         05                                    |   .            |      [27]: 5 transition_type 0x353-0x354 (1)
0x350|            04                                 |    .           |      [28]: 4 transition_type 0x354-0x355 (1)
0x350|               05                              |     .          |      [29]: 5 transition_type 0x355-0x356 (1)
0x350|                  04                           |      .         |      [30]: 4 transition_type 0x356-0x357 (1)
0x350|                     05                        |       .        |      [31]: 5 transition_type 0x357-0x358 (1)
0x350|                        04                     |        .       |      [32]: 4 transition_type 0x358-0x359 (1)
0x350|                           05                  |         .      |      [33]: 5 transition_type 0x359-0x35a (1)
0x350|                              04               |          .     |      [34]: 4 transition_type 0x35a-0x35b (1)
0x350|                                 05            |           .    |      [35]: 5 transition_type 0x35b-0x35c (1)
0x350|                                    04         |            .   |      [36]: 4 transition_type 0x35c-0x35d (1)
0x350|                                       05      |             .  |      [37]: 5 transition_type 0x35d-0x35e (1)
0x350|                                          04   |              . |      [38]: 4 transition_type 0x35e-0x35f (1)
0x350|                                             05|               .|      [39]: 5 transition_type 0x35f-0x360 (1)
0x360|04                                             |.               |      [40]: 4 transition_type 0x360-0x361 (1)
0x360|   05                                          | .              |      [41]: 5 transition_type 0x361-0x362 (1)
0x360|      04                                       |  .             |      [42]: 4 transition_type 0x362-0x363 (1)
0x360|         05                                    |   .            |      [43]: 5 transition_type 0x363-0x364 (1)
0x360|            04                                 |    .           |      [44]: 4 transition_type 0x364-0x365 (1)
0x360|               07                              |     .          |      [45]: 7 transition_type 0x365-0x366 (1)
0x360|                  04                           |      .         |      [46]: 4 transition_type 0x366-0x367 (1)
0x360|                     05                        |       .        |      [47]: 5 transition_type 0x367-0x368 (1)
0x360|                        04                     |        .       |      [48]: 4 transition_type 0x368-0x369 (1)
0x360|                           07                  |         .      |      [49]: 7 transition_type 0x369-0x36a (1)
0x360|                              04               |          .     |      [50]: 4 transition_type 0x36a-0x36b (1)
0x360|                                 05            |           .    |      [51]: 5 transition_type 0x36b-0x36c (1)
0x360|                                    04         |            .   |      [52]: 4 transition_type 0x36c-0x36d (1)
0x360|                                       07      |             .  |      [53]: 7 transition_type 0x36d-0x36e (1)
0x360|                                          04   |              . |      [54]: 4 transition_type 0x36e-0x36f (1)
0x360|                                             05|               .|      [55]: 5 transition_type 0x36f-0x370 (1)
0x370|04                                             |.               |      [56]: 4 transition_type 0x370-0x371 (1)
0x370|   07                                          | .              |      [57]: 7 transition_type 0x371-0x372 (1)
0x370|      04                                       |  .             |      [58]: 4 transition_type 0x372-0x373 (1)
0x370|         05                                    |   .            |      [59]: 5 transition_type 0x373-0x374 (1)
0x370|            04                                 |    .           |      [60]: 4 transition_type 0x374-0x375 (1)
0x370|               05                              |     .          |      [61]: 5 transition_type 0x375-0x376 (1)
0x370|                  04                           |      .         |      [62]: 4 transition_type 0x376-0x377 (1)
0x370|                     05                        |       .        |      [63]: 5 transition_type 0x377-0x378 (1)
0x370|                        04                     |        .       |      [64]: 4 transition_type 0x378-0x379 (1)
0x370|                           05                  |         .      |      [65]: 5 transition_type 0x379-0x37a (1)
0x370|                              04               |          .     |      [66]: 4 transition_type 0x37a-0x37b (1)
0x370|                                 05            |           .    |      [67]: 5 transition_type 0x37b-0x37c (1)
0x370|                                    04         |            .   |      [68]: 4 transition_type 0x37c-0x37d (1)
0x370|                                       05      |             .  |      [69]: 5 transition_type 0x37d-0x37e (1)
0x370|                                          04   |              . |      [70]: 4 transition_type 0x37e-0x37f (1)
0x370|                                             05|               .|      [71]: 5 transition_type 0x37f-0x380 (1)
0x380|04                                             |.               |      [72]: 4 transition_type 0x380-0x381 (1)
0x380|   05                                          | .              |      [73]: 5 transition_type 0x381-0x382 (1)
0x380|      04                                       |  .             |      [74]: 4 transition_type 0x382-0x383 (1)
0x380|         05                                    |   .            |      [75]: 5 transition_type 0x383-0x384 (1)
0x380|            04                                 |    .           |      [76]: 4 transition_type 0x384-0x385 (1)
0x380|               05                              |     .          |      [77]: 5 transition_type 0x385-0x386 (1)
0x380|                  04                           |      .         |      [78]: 4 transition_type 0x386-0x387 (1)
0x380|                     05                        |       .        |      [79]: 5 transition_type 0x387-0x388 (1)
0x380|                        04                     |        .       |      [80]: 4 transition_type 0x388-0x389 (1)
0x380|                           05                  |         .      |      [81]: 5 transition_type 0x389-0x38a (1)
0x380|                              04               |          .     |      [82]: 4 transition_type 0x38a-0x38b (1)
0x380|                                 05            |           .    |      [83]: 5 transition_type 0x38b-0x38c (1)
0x380|                                    04         |            .   |      [84]: 4 transition_type 0x38c-0x38d (1)
0x380|                                       05      |             .  |      [85]: 5 transition_type 0x38d-0x38e (1)
0x380|                                          04   |              . |      [86]: 4 transition_type 0x38e-0x38f (1)
0x380|                                             05|               .|      [87]: 5 transition_type 0x38f-0x390 (1)
0x390|04                                             |.               |      [88]: 4 transition_type 0x390-0x391 (1)
0x390|   05                                          | .              |      [89]: 5 transition_type 0x391-0x392 (1)
0x390|      04                                       |  .             |      [90]: 4 transition_type 0x392-0x393 (1)
0x390|         05                                    |   .            |      [91]: 5 transition_type 0x393-0x394 (1)
0x390|            04                                 |    .           |      [92]: 4 transition_type 0x394-0x395 (1)
0x390|               05                              |     .          |      [93]: 5 transition_type 0x395-0x396 (1)
0x390|                  04                           |      .         |      [94]: 4 transition_type 0x396-0x397 (1)
0x390|                     05                        |       .        |      [95]: 5 transition_type 0x397-0x398 (1)
0x390|                        04                     |        .       |      [96]: 4 transition_type 0x398-0x399 (1)
0x390|                           05                  |         .      |      [97]: 5 transition_type 0x399-0x39a (1)
0x390|                              04               |          .     |      [98]: 4 transition_type 0x39a-0x39b (1)
0x390|                                 05            |           .    |      [99]: 5 transition_type 0x39b-0x39c (1)
0x390|                                    0a         |            .   |      [100]: 10 transition_type 0x39c-0x39d (1)
0x390|                                       08      |             .  |      [101]: 8 transition_type 0x39d-0x39e (1)
0x390|                                          09   |              . |      [102]: 9 transition_type 0x39e-0x39f (1)
0x390|                                             08|               .|      [103]: 8 transition_type 0x39f-0x3a0 (1)
0x3a0|09                                             |.               |      [104]: 9 transition_type 0x3a0-0x3a1 (1)
0x3a0|   08                                          | .              |      [105]: 8 transition_type 0x3a1-0x3a2 (1)
0x3a0|      09                                       |  .             |      [106]: 9 transition_type 0x3a2-0x3a3 (1)
0x3a0|         08                                    |   .            |      [107]: 8 transition_type 0x3a3-0x3a4 (1)
0x3a0|            09                                 |    .           |      [108]: 9 transition_type 0x3a4-0x3a5 (1)
0x3a0|               08                              |     .          |      [109]: 8 transition_type 0x3a5-0x3a6 (1)
0x3a0|                  09                           |      .         |      [110]: 9 transition_type 0x3a6-0x3a7 (1)
0x3a0|                     08                        |       .        |      [111]: 8 transition_type 0x3a7-0x3a8 (1)
0x3a0|                        09                     |        .       |      [112]: 9 transition_type 0x3a8-0x3a9 (1)
0x3a0|                           08                  |         .      |      [113]: 8 transition_type 0x3a9-0x3aa (1)
0x3a0|                              0b               |          .     |      [114]: 11 transition_type 0x3aa-0x3ab (1)
0x3a0|                                 0c            |           .    |      [115]: 12 transition_type 0x3ab-0x3ac (1)
0x3a0|                                    0b         |            .   |      [116]: 11 transition_type 0x3ac-0x3ad (1)
0x3a0|                                       0c      |             .  |      [117]: 12 transition_type 0x3ad-0x3ae (1)
0x3a0|                                          0b   |              . |      [118]: 11 transition_type 0x3ae-0x3af (1)
0x3a0|                                             0c|               .|      [119]: 12 transition_type 0x3af-0x3b0 (1)
0x3b0|0b                                             |.               |      [120]: 11 transition_type 0x3b0-0x3b1 (1)
0x3b0|   0c                                          | .              |      [121]: 12 transition_type 0x3b1-0x3b2 (1)
0x3b0|      0b                                       |  .             |      [122]: 11 transition_type 0x3b2-0x3b3 (1)
0x3b0|         0c                                    |   .            |      [123]: 12 transition_type 0x3b3-0x3b4 (1)
0x3b0|            0b                                 |    .           |      [124]: 11 transition_type 0x3b4-0x3b5 (1)
0x3b0|               0c                              |     .          |      [125]: 12 transition_type 0x3b5-0x3b6 (1)
0x3b0|                  0b                           |      .         |      [126]: 11 transition_type 0x3b6-0x3b7 (1)
0x3b0|                     0c                        |       .        |      [127]: 12 transition_type 0x3b7-0x3b8 (1)
0x3b0|                        0b                     |        .       |      [128]: 11 transition_type 0x3b8-0x3b9 (1)
0x3b0|                           0c                  |         .      |      [129]: 12 transition_type 0x3b9-0x3ba (1)
0x3b0|                              0b               |          .     |      [130]: 11 transition_type 0x3ba-0x3bb (1)
0x3b0|                                 0c            |           .    |      [131]: 12 transition_type 0x3bb-0x3bc (1)
0x3b0|                                    0b         |            .   |      [132]: 11 transition_type 0x3bc-0x3bd (1)
0x3b0|                                       0c      |             .  |      [133]: 12 transition_type 0x3bd-0x3be (1)
0x3b0|                                          0b   |              . |      [134]: 11 transition_type 0x3be-0x3bf (1)
0x3b0|                                             0c|               .|      [135]: 12 transition_type 0x3bf-0x3c0 (1)
0x3c0|0b                                             |.               |      [136]: 11 transition_type 0x3c0-0x3c1 (1)
0x3c0|   0c                                          | .              |      [137]: 12 transition_type 0x3c1-0x3c2 (1)
0x3c0|      0b                                       |  .             |      [138]: 11 transition_type 0x3c2-0x3c3 (1)
0x3c0|         0c                                    |   .            |      [139]: 12 transition_type 0x3c3-0x3c4 (1)
0x3c0|            0b                                 |    .           |      [140]: 11 transition_type 0x3c4-0x3c5 (1)
0x3c0|               0c                              |     .          |      [141]: 12 transition_type 0x3c5-0x3c6 (1)
0x3c0|                  0b                           |      .         |      [142]: 11 transition_type 0x3c6-0x3c7 (1)
0x3c0|                     0c                        |       .        |      [143]: 12 transition_type 0x3c7-0x3c8 (1)
0x3c0|                        0b                     |        .       |      [144]: 11 transition_type 0x3c8-0x3c9 (1)
0x3c0|                           0c                  |         .      |      [145]: 12 transition_type 0x3c9-0x3ca (1)
0x3c0|                              0b               |          .     |      [146]: 11 transition_type 0x3ca-0x3cb (1)
0x3c0|                                 0c            |           .    |      [147]: 12 transition_type 0x3cb-0x3cc (1)
0x3c0|                                    0b         |            .   |      [148]: 11 transition_type 0x3cc-0x3cd (1)
0x3c0|                                       0c      |             .  |      [149]: 12 transition_type 0x3cd-0x3ce (1)
0x3c0|                                          0b   |              . |      [150]: 11 transition_type 0x3ce-0x3cf (1)
0x3c0|                                             0c|               .|      [151]: 12 transition_type 0x3cf-0x3d0 (1)
0x3d0|0b                                             |.               |      [152]: 11 transition_type 0x3d0-0x3d1 (1)
0x3d0|   0c                                          | .              |      [153]: 12 transition_type 0x3d1-0x3d2 (1)
0x3d0|      0b                                       |  .             |      [154]: 11 transition_type 0x3d2-0x3d3 (1)
0x3d0|         0c                                    |   .            |      [155]: 12 transition_type 0x3d3-0x3d4 (1)
0x3d0|            0b                                 |    .           |      [156]: 11 transition_type 0x3d4-0x3d5 (1)
0x3d0|               0c                              |     .          |      [157]: 12 transition_type 0x3d5-0x3d6 (1)
0x3d0|                  0b                           |      .         |      [158]: 11 transition_type 0x3d6-0x3d7 (1)
0x3d0|                     0c                        |       .        |      [159]: 12 transition_type 0x3d7-0x3d8 (1)
0x3d0|                        0b                     |        .       |      [160]: 11 transition_type 0x3d8-0x3d9 (1)
0x3d0|                           0c                  |         .      |      [161]: 12 transition_type 0x3d9-0x3da (1)
0x3d0|                              0b               |          .     |      [162]: 11 transition_type 0x3da-0x3db (1)
0x3d0|                                 0c            |           .    |      [163]: 12 transition_type 0x3db-0x3dc (1)
0x3d0|                                    0b         |            .   |      [164]: 11 transition_type 0x3dc-0x3dd (1)
0x3d0|                                       0c      |             .  |      [165]: 12 transition_type 0x3dd-0x3de (1)
0x3d0|                                          0b   |              . |      [166]: 11 transition_type 0x3de-0x3df (1)
0x3d0|                                             0c|               .|      [167]: 12 transition_type 0x3df-0x3e0 (1)
0x3e0|0b                                             |.               |      [168]: 11 transition_type 0x3e0-0x3e1 (1)
0x3e0|   0c                                          | .              |      [169]: 12 transition_type 0x3e1-0x3e2 (1)
0x3e0|      0b                                       |  .             |      [170]: 11 transition_type 0x3e2-0x3e3 (1)
0x3e0|         0c                                    |   .            |      [171]: 12 transition_type 0x3e3-0x3e4 (1)
0x3e0|            0b                                 |    .           |      [172]: 11 transition_type 0x3e4-0x3e5 (1)
0x3e0|               0c                              |     .          |      [173]: 12 transition_type 0x3e5-0x3e6 (1)
0x3e0|                  0b                           |      .         |      [174]: 11 transition_type 0x3e6-0x3e7 (1)
0x3e0|                     0c                        |       .        |      [175]: 12 transition_type 0x3e7-0x3e8 (1)
0x3e0|                        0b                     |        .       |      [176]: 11 transition_type 0x3e8-0x3e9 (1)
0x3e0|                           0c                  |         .      |      [177]: 12 transition_type 0x3e9-0x3ea (1)
0x3e0|                              0b               |          .     |      [178]: 11 transition_type 0x3ea-0x3eb (1)
0x3e0|                                 0c            |           .    |      [179]: 12 transition_type 0x3eb-0x3ec (1)
0x3e0|                                    0b         |            .   |      [180]: 11 transition_type 0x3ec-0x3ed (1)
0x3e0|                                       0c      |             .  |      [181]: 12 transition_type 0x3ed-0x3ee (1)
0x3e0|                                          0b   |              . |      [182]: 11 transition_type 0x3ee-0x3ef (1)
0x3e0|                                             0c|               .|      [183]: 12 transition_type 0x3ef-0x3f0 (1)
0x3f0|0b                                             |.               |      [184]: 11 transition_type 0x3f0-0x3f1 (1)
0x3f0|   0c                                          | .              |      [185]: 12 transition_type 0x3f1-0x3f2 (1)
0x3f0|      0b                                       |  .             |      [186]: 11 transition_type 0x3f2-0x3f3 (1)
0x3f0|         0c                                    |   .            |      [187]: 12 transition_type 0x3f3-0x3f4 (1)
0x3f0|            0b                                 |    .           |      [188]: 11 transition_type 0x3f4-0x3f5 (1)
0x3f0|               0c                              |     .          |      [189]: 12 transition_type 0x3f5-0x3f6 (1)
0x3f0|                  0b                           |      .         |      [190]: 11 transition_type 0x3f6-0x3f7 (1)
0x3f0|                     0c                        |       .        |      [191]: 12 transition_type 0x3f7-0x3f8 (1)
0x3f0|                        0b                     |        .       |      [192]: 11 transition_type 0x3f8-0x3f9 (1)
0x3f0|                           0c                  |         .      |      [193]: 12 transition_type 0x3f9-0x3fa (1)
0x3f0|                              0c               |          .     |      [194]: 12 transition_type 0x3fa-0x3fb (1)
     |                                               |                |    local_time_type_records[0:13]: 0x3fb-0x449 (78)
     |                                               |                |      [0]{}: local_time_type 0x3fb-0x401 (6)
0x3f0|                                 ff ff f0 28   |           ...( |        utoff: -4056 (valid) 0x3fb-0x3ff (4)
0x3f0|                                             00|               .|        dst: 0 (valid) 0x3ff-0x400 (1)
0x400|00                                             |.               |        idx: 0 (valid) 0x400-0x401 (1)
     |                                               |                |      [1]{}: local_time_type 0x401-0x407 (6)
0x400|   ff ff f0 28                                 | ...(           |        utoff: -4056 (valid) 0x401-0x405 (4)
0x400|               00                              |     .          |        dst: 0 (valid) 0x405-0x406 (1)
0x400|                  04                           |      .         |        idx: 4 (valid) 0x406-0x407 (1)
     |                                               |                |      [2]{}: local_time_type 0x407-0x40d (6)
0x400|                     00 00 00 00               |       ....     |        utoff: 0 (valid) 0x407-0x40b (4)
0x400|                                 01            |           .    |        dst: 1 (valid) 0x40b-0x40c (1)
0x400|                                    08         |            .   |        idx: 8 (valid) 0x40c-0x40d (1)
     |                                               |                |      [3]{}: local_time_type 0x40d-0x413 (6)
0x400|                                       ff ff f1|             ...|        utoff: -3600 (valid) 0x40d-0x411 (4)
0x410|f0                                             |.               |
0x410|   00                                          | .              |        dst: 0 (valid) 0x411-0x412 (1)
0x410|      0c                                       |  .             |        idx: 12 (valid) 0x412-0x413 (1)
     |                                               |                |      [4]{}: local_time_type 0x413-0x419 (6)
0x410|         00 00 00 00                           |   ....         |        utoff: 0 (valid) 0x413-0x417 (4)
0x410|                     01                        |       .        |        dst: 1 (valid) 0x417-0x418 (1)
0x410|                        08                     |        .       |        idx: 8 (valid) 0x418-0x419 (1)
     |                                               |                |      [5]{}: local_time_type 0x419-0x41f (6)
0x410|                           ff ff f1 f0         |         ....   |        utoff: -3600 (valid) 0x419-0x41d (4)
0x410|                                       00      |             .  |        dst: 0 (valid) 0x41d-0x41e (1)
0x410|                                          0c   |              . |        idx: 12 (valid) 0x41e-0x41f (1)
     |                                               |                |      [6]{}: local_time_type 0x41f-0x425 (6)
0x410|                                             ff|               .|        utoff: -3600 (valid) 0x41f-0x423 (4)
0x420|ff f1 f0                                       |...             |
0x420|         00                                    |   .            |        dst: 0 (valid) 0x423-0x424 (1)
0x420|            0c                                 |    .           |        idx: 12 (valid) 0x424-0x425 (1)
     |                                               |                |      [7]{}: local_time_type 0x425-0x42b (6)
0x420|               00 00 0e 10                     |     ....       |        utoff: 3600 (valid) 0x425-0x429 (4)
0x420|                           01                  |         .      |        dst: 1 (valid) 0x429-0x42a (1)
0x420|                              10               |          .     |        idx: 16 (valid) 0x42a-0x42b (1)
     |                                               |                |      [8]{}: local_time_type 0x42b-0x431 (6)
0x420|                                 00 00 0e 10   |           .... |        utoff: 3600 (valid) 0x42b-0x42f (4)
0x420|                                             01|               .|        dst: 1 (valid) 0x42f-0x430 (1)
0x430|14                                             |.               |        idx: 20 (valid) 0x430-0x431 (1)
     |                                               |                |      [9]{}: local_time_type 0x431-0x437 (6)
0x430|   00 00 00 00                                 | ....           |        utoff: 0 (valid) 0x431-0x435 (4)
0x430|               00                              |     .          |        dst: 0 (valid) 0x435-0x436 (1)
0x430|                  19                           |      .         |        idx: 25 (valid) 0x436-0x437 (1)
     |                                               |                |      [10]{}: local_time_type 0x437-0x43d (6)
0x430|                     00 00 00 00               |       ....     |        utoff: 0 (valid) 0x437-0x43b (4)
0x430|                                 00            |           .    |        dst: 0 (valid) 0x43b-0x43c (1)
0x430|                                    19         |            .   |        idx: 25 (valid) 0x43c-0x43d (1)
     |                                               |                |      [11]{}: local_time_type 0x43d-0x443 (6)
0x430|                                       00 00 00|             ...|        utoff: 0 (valid) 0x43d-0x441 (4)
0x440|00                                             |.               |
0x440|   00                                          | .              |        dst: 0 (valid) 0x441-0x442 (1)
0x440|      19                                       |  .             |        idx: 25 (valid) 0x442-0x443 (1)
     |                                               |                |      [12]{}: local_time_type 0x443-0x449 (6)
0x440|         00 00 0e 10                           |   ....         |        utoff: 3600 (valid) 0x443-0x447 (4)
0x440|                     01                        |       .        |        dst: 1 (valid) 0x447-0x448 (1)
0x440|                        14                     |        .       |        idx: 20 (valid) 0x448-0x449 (1)
     |                                               |                |    time_zone_designations[0:7]: 0x449-0x466 (29)
0x440|                           4c 4d 54 00         |         LMT.   |      [0]: "LMT" time_zone_designation 0x449-0x44d (4)
0x440|                                       46 4d 54|             FMT|      [1]: "FMT" time_zone_designation 0x44d-0x451 (4)
0x450|00                                             |.               |
0x450|   2b 30 30 00                                 | +00.           |      [2]: "+00" time_zone_designation 0x451-0x455 (4)
0x450|               2d 30 31 00                     |     -01.       |      [3]: "-01" time_zone_designation 0x455-0x459 (4)
0x450|                           2b 30 31 00         |         +01.   |      [4]: "+01" time_zone_designation 0x459-0x45d (4)
0x450|                                       57 45 53|             WES|      [5]: "WEST" time_zone_designation 0x45d-0x462 (5)
0x460|54 00                                          |T.              |
0x460|      57 45 54 00                              |  WET.          |      [6]: "WET" time_zone_designation 0x462-0x466 (4)
     |                                               |                |    leap_second_records[0:27]: 0x466-0x53e (216)
     |                                               |                |      [0]{}: leap_second_record 0x466-0x46e (8)
0x460|                  04 b2 58 00                  |      ..X.      |        occur: "1972-07-01T00:00:00Z" (78796800) 0x466-0x46a (4)
0x460|                              00 00 00 01      |          ....  |        corr: 1 0x46a-0x46e (4)
     |                                               |                |      [1]{}: leap_second_record 0x46e-0x476 (8)
0x460|                                          05 a4|              ..|        occur: "1973-01-01T00:00:01Z" (94694401) 0x46e-0x472 (4)
0x470|ec 01                                          |..              |
0x470|      00 00 00 02                              |  ....          |        corr: 2 0x472-0x476 (4)
     |                                               |                |      [2]{}: leap_second_record 0x476-0x47e (8)
0x470|                  07 86 1f 82                  |      ....      |        occur: "1974-01-01T00:00:02Z" (126230402) 0x476-0x47a (4)
0x470|                              00 00 00 03      |          ....  |        corr: 3 0x47a-0x47e (4)
     |                                               |                |      [3]{}: leap_second_record 0x47e-0x486 (8)
0x470|                                          09 67|              .g|        occur: "1975-01-01T00:00:03Z" (157766403) 0x47e-0x482 (4)
0x480|53 03                                          |S.              |
0x480|      00 00 00 04                              |  ....          |        corr: 4 0x482-0x486 (4)
     |                                               |                |      [4]{}: leap_second_record 0x486-0x48e (8)
0x480|                  0b 48 86 84                  |      .H..      |        occur: "1976-01-01T00:00:04Z" (189302404) 0x486-0x48a (4)
0x480|                              00 00 00 05      |          ....  |        corr: 5 0x48a-0x48e (4)
     |                                               |                |      [5]{}: leap_second_record 0x48e-0x496 (8)
0x480|                                          0d 2b|              .+|        occur: "1977-01-01T00:00:05Z" (220924805) 0x48e-0x492 (4)
0x490|0b 85                                          |..              |
0x490|      00 00 00 06                              |  ....          |        corr: 6 0x492-0x496 (4)
     |                                               |                |      [6]{}: leap_second_record 0x496-0x49e (8)
0x490|                  0f 0c 3f 06                  |      ..?.      |        occur: "1978-01-01T00:00:06Z" (252460806) 0x496-0x49a (4)
0x490|                              00 00 00 07      |          ....  |        corr: 7 0x49a-0x49e (4)
     |                                               |                |      [7]{}: leap_second_record 0x49e-0x4a6 (8)
0x490|                                          10 ed|              ..|        occur: "1979-01-01T00:00:07Z" (283996807) 0x49e-0x4a2 (4)
0x4a0|72 87                                          |r.              |
0x4a0|      00 00 00 08                              |  ....          |        corr: 8 0x4a2-0x4a6 (4)
     |                                               |                |      [8]{}: leap_second_record 0x4a6-0x4ae (8)
0x4a0|                  12 ce a6 08                  |      ....      |        occur: "1980-01-01T00:00:08Z" (315532808) 0x4a6-0x4aa (4)
0x4a0|                              00 00 00 09      |          ....  |        corr: 9 0x4aa-0x4ae (4)
     |                                               |                |      [9]{}: leap_second_record 0x4ae-0x4b6 (8)
0x4a0|                                          15 9f|              ..|        occur: "1981-07-01T00:00:09Z" (362793609) 0x4ae-0x4b2 (4)
0x4b0|ca 89                                          |..              |
0x4b0|      00 00 00 0a                              |  ....          |        corr: 10 0x4b2-0x4b6 (4)
     |                                               |                |      [10]{}: leap_second_record 0x4b6-0x4be (8)
0x4b0|                  17 80 fe 0a                  |      ....      |        occur: "1982-07-01T00:00:10Z" (394329610) 0x4b6-0x4ba (4)
0x4b0|                              00 00 00 0b      |          ....  |        corr: 11 0x4ba-0x4be (4)
     |                                               |                |      [11]{}: leap_second_record 0x4be-0x4c6 (8)
0x4b0|                                          19 62|              .b|        occur: "1983-07-01T00:00:11Z" (425865611) 0x4be-0x4c2 (4)
0x4c0|31 8b                                          |1.              |
0x4c0|      00 00 00 0c                              |  ....          |        corr: 12 0x4c2-0x4c6 (4)
     |                                               |                |      [12]{}: leap_second_record 0x4c6-0x4ce (8)
0x4c0|                  1d 25 ea 0c                  |      .%..      |        occur: "1985-07-01T00:00:12Z" (489024012) 0x4c6-0x4ca (4)
0x4c0|                              00 00 00 0d      |          ....  |        corr: 13 0x4ca-0x4ce (4)
     |                                               |                |      [13]{}: leap_second_record 0x4ce-0x4d6 (8)
0x4c0|                                          21 da|              !.|        occur: "1988-01-01T00:00:13Z" (567993613) 0x4ce-0x4d2 (4)
0x4d0|e5 0d                                          |..              |
0x4d0|      00 00 00 0e                              |  ....          |        corr: 14 0x4d2-0x4d6 (4)
     |                                               |                |      [14]{}: leap_second_record 0x4d6-0x4de (8)
0x4d0|                  25 9e 9d 8e                  |      %...      |        occur: "1990-01-01T00:00:14Z" (631152014) 0x4d6-0x4da (4)
0x4d0|                              00 00 00 0f      |          ....  |        corr: 15 0x4da-0x4de (4)
     |                                               |                |      [15]{}: leap_second_record 0x4de-0x4e6 (8)
0x4d0|                                          27 7f|              '.|        occur: "1991-01-01T00:00:15Z" (662688015) 0x4de-0x4e2 (4)
0x4e0|d1 0f                                          |..              |
0x4e0|      00 00 00 10                              |  ....          |        corr: 16 0x4e2-0x4e6 (4)
     |                                               |                |      [16]{}: leap_second_record 0x4e6-0x4ee (8)
0x4e0|                  2a 50 f5 90                  |      *P..      |        occur: "1992-07-01T00:00:16Z" (709948816) 0x4e6-0x4ea (4)
0x4e0|                              00 00 00 11      |          ....  |        corr: 17 0x4ea-0x4ee (4)
     |                                               |                |      [17]{}: leap_second_record 0x4ee-0x4f6 (8)
0x4e0|                                          2c 32|              ,2|        occur: "1993-07-01T00:00:17Z" (741484817) 0x4ee-0x4f2 (4)
0x4f0|29 11                                          |).              |
0x4f0|      00 00 00 12                              |  ....          |        corr: 18 0x4f2-0x4f6 (4)
     |                                               |                |      [18]{}: leap_second_record 0x4f6-0x4fe (8)
0x4f0|                  2e 13 5c 92                  |      ..\.      |        occur: "1994-07-01T00:00:18Z" (773020818) 0x4f6-0x4fa (4)
0x4f0|                              00 00 00 13      |          ....  |        corr: 19 0x4fa-0x4fe (4)
     |                                               |                |      [19]{}: leap_second_record 0x4fe-0x506 (8)
0x4f0|                                          30 e7|              0.|        occur: "1996-01-01T00:00:19Z" (820454419) 0x4fe-0x502 (4)
0x500|24 13                                          |$.              |
0x500|      00 00 00 14                              |  ....          |        corr: 20 0x502-0x506 (4)
     |                                               |                |      [20]{}: leap_second_record 0x506-0x50e (8)
0x500|                  33 b8 48 94                  |      3.H.      |        occur: "1997-07-01T00:00:20Z" (867715220) 0x506-0x50a (4)
0x500|                              00 00 00 15      |          ....  |        corr: 21 0x50a-0x50e (4)
     |                                               |                |      [21]{}: leap_second_record 0x50e-0x516 (8)
0x500|                                          36 8c|              6.|        occur: "1999-01-01T00:00:21Z" (915148821) 0x50e-0x512 (4)
0x510|10 15                                          |..              |
0x510|      00 00 00 16                              |  ....          |        corr: 22 0x512-0x516 (4)
     |                                               |                |      [22]{}: leap_second_record 0x516-0x51e (8)
0x510|                  43 b7 1b 96                  |      C...      |        occur: "2006-01-01T00:00:22Z" (1136073622) 0x516-0x51a (4)
0x510|                              00 00 00 17      |          ....  |        corr: 23 0x51a-0x51e (4)
     |                                               |                |      [23]{}: leap_second_record 0x51e-0x526 (8)
0x510|                                          49 5c|              I\|        occur: "2009-01-01T00:00:23Z" (1230768023) 0x51e-0x522 (4)
0x520|07 97                                          |..              |
0x520|      00 00 00 18                              |  ....          |        corr: 24 0x522-0x526 (4)
     |                                               |                |      [24]{}: leap_second_record 0x526-0x52e (8)
0x520|                  4f ef 93 18                  |      O...      |        occur: "2012-07-01T00:00:24Z" (1341100824) 0x526-0x52a (4)
0x520|                              00 00 00 19      |          ....  |        corr: 25 0x52a-0x52e (4)
     |                                               |                |      [25]{}: leap_second_record 0x52e-0x536 (8)
0x520|                                          55 93|              U.|        occur: "2015-07-01T00:00:25Z" (1435708825) 0x52e-0x532 (4)
0x530|2d 99                                          |-.              |
0x530|      00 00 00 1a                              |  ....          |        corr: 26 0x532-0x536 (4)
     |                                               |                |      [26]{}: leap_second_record 0x536-0x53e (8)
0x530|                  58 68 46 9a                  |      XhF.      |        occur: "2017-01-01T00:00:26Z" (1483228826) 0x536-0x53a (4)
0x530|                              00 00 00 1b      |          ....  |        corr: 27 0x53a-0x53e (4)
     |                                               |                |    standard_wall_indicators[0:13]: 0x53e-0x54b (13)
0x530|                                          00   |              . |      [0]: 0 standard_wall_indicator (valid) 0x53e-0x53f (1)
0x530|                                             00|               .|      [1]: 0 standard_wall_indicator (valid) 0x53f-0x540 (1)
0x540|00                                             |.               |      [2]: 0 standard_wall_indicator (valid) 0x540-0x541 (1)
0x540|   00                                          | .              |      [3]: 0 standard_wall_indicator (valid) 0x541-0x542 (1)
0x540|      01                                       |  .             |      [4]: 1 standard_wall_indicator (valid) 0x542-0x543 (1)
0x540|         01                                    |   .            |      [5]: 1 standard_wall_indicator (valid) 0x543-0x544 (1)
0x540|            01                                 |    .           |      [6]: 1 standard_wall_indicator (valid) 0x544-0x545 (1)
0x540|               01                              |     .          |      [7]: 1 standard_wall_indicator (valid) 0x545-0x546 (1)
0x540|                  01                           |      .         |      [8]: 1 standard_wall_indicator (valid) 0x546-0x547 (1)
0x540|                     01                        |       .        |      [9]: 1 standard_wall_indicator (valid) 0x547-0x548 (1)
0x540|                        00                     |        .       |      [10]: 0 standard_wall_indicator (valid) 0x548-0x549 (1)
0x540|                           01                  |         .      |      [11]: 1 standard_wall_indicator (valid) 0x549-0x54a (1)
0x540|                              01               |          .     |      [12]: 1 standard_wall_indicator (valid) 0x54a-0x54b (1)
     |                                               |                |    ut_local_indicators[0:13]: 0x54b-0x558 (13)
0x540|                                 00            |           .    |      [0]: 0 ut_local_indicator (valid) 0x54b-0x54c (1)
0x540|                                    00         |            .   |      [1]: 0 ut_local_indicator (valid) 0x54c-0x54d (1)
0x540|                                       00      |             .  |      [2]: 0 ut_local_indicator (valid) 0x54d-0x54e (1)
0x540|                                          00   |              . |      [3]: 0 ut_local_indicator (valid) 0x54e-0x54f (1)
0x540|                                             00|               .|      [4]: 0 ut_local_indicator (valid) 0x54f-0x550 (1)
0x550|00                                             |.               |      [5]: 0 ut_local_indicator (valid) 0x550-0x551 (1)
0x550|   01                                          | .              |      [6]: 1 ut_local_indicator (valid) 0x551-0x552 (1)
0x550|      00                                       |  .             |      [7]: 0 ut_local_indicator (valid) 0x552-0x553 (1)
0x550|         00                                    |   .            |      [8]: 0 ut_local_indicator (valid) 0x553-0x554 (1)
0x550|            00                                 |    .           |      [9]: 0 ut_local_indicator (valid) 0x554-0x555 (1)
0x550|               00                              |     .          |      [10]: 0 ut_local_indicator (valid) 0x555-0x556 (1)
0x550|                  01                           |      .         |      [11]: 1 ut_local_indicator (valid) 0x556-0x557 (1)
0x550|                     01                        |       .        |      [12]: 1 ut_local_indicator (valid) 0x557-0x558 (1)
     |                                               |                |  v2plusheader{}: 0x558-0x584 (44)
0x550|                        54 5a 69 66            |        TZif    |    magic: 0x545a6966 (valid) 0x558-0x55c (4)
0x550|                                    32         |            2   |    ver: "2" (0x32) (valid) 0x55c-0x55d (1)
0x550|                                       00 00 00|             ...|    reserved: raw bits 0x55d-0x56c (15)
0x560|00 00 00 00 00 00 00 00 00 00 00 00            |............    |
0x560|                                    00 00 00 0d|            ....|    isutcnt: 13 0x56c-0x570 (4)
0x570|00 00 00 0d                                    |....            |    isstdcnt: 13 0x570-0x574 (4)
0x570|            00 00 00 1b                        |    ....        |    leapcnt: 27 0x574-0x578 (4)
0x570|                        00 00 00 c3            |        ....    |    timecnt: 195 0x578-0x57c (4)
0x570|                                    00 00 00 0d|            ....|    typecnt: 13 0x57c-0x580 (4)
0x580|00 00 00 1d                                    |....            |    charcnt: 29 0x580-0x584 (4)
     |                                               |                |  v2plusdatablock{}: 0x584-0xe28 (2212)
     |                                               |                |    transition_times[0:195]: 0x584-0xb9c (1560)
0x580|            ff ff ff ff 5e 3d 13 58            |    ....^=.X    |      [0]: "1884-01-01T01:07:36Z" (-2713906344) transition_time 0x584-0x58c (8)
0x580|                                    ff ff ff ff|            ....|      [1]: "1912-01-01T01:00:00Z" (-1830380400) transition_time 0x58c-0x594 (8)
0x590|92 e6 9c 90                                    |....            |
0x590|            ff ff ff ff 9b 4b 7b 80            |    .....K{.    |      [2]: "1916-06-18T00:00:00Z" (-1689552000) transition_time 0x594-0x59c (8)
0x590|                                    ff ff ff ff|            ....|      [3]: "1916-11-01T01:00:00Z" (-1677798000) transition_time 0x59c-0x5a4 (8)
0x5a0|9b fe d5 90                                    |....            |
0x5a0|            ff ff ff ff 9c 9c fb 80            |    ........    |      [4]: "1917-03-01T00:00:00Z" (-1667433600) transition_time 0x5a4-0x5ac (8)
0x5a0|                                    ff ff ff ff|            ....|      [5]: "1917-10-15T00:00:00Z" (-1647734400) transition_time 0x5ac-0x5b4 (8)
0x5b0|9d c9 91 80                                    |....            |
0x5b0|            ff ff ff ff 9e 7f 80 80            |    ........    |      [6]: "1918-03-02T00:00:00Z" (-1635811200) transition_time 0x5b4-0x5bc (8)
0x5b0|                                    ff ff ff ff|            ....|      [7]: "1918-10-15T00:00:00Z" (-1616198400) transition_time 0x5bc-0x5c4 (8)
0x5c0|9f aa c5 00                                    |....            |
0x5c0|            ff ff ff ff a0 5f 62 80            |    ....._b.    |      [8]: "1919-03-01T00:00:00Z" (-1604361600) transition_time 0x5c4-0x5cc (8)
0x5c0|                                    ff ff ff ff|            ....|      [9]: "1919-10-15T00:00:00Z" (-1584662400) transition_time 0x5cc-0x5d4 (8)
0x5d0|a1 8b f8 80                                    |....            |
0x5d0|            ff ff ff ff a2 41 e7 80            |    .....A..    |      [10]: "1920-03-01T00:00:00Z" (-1572739200) transition_time 0x5d4-0x5dc (8)
0x5d0|                                    ff ff ff ff|            ....|      [11]: "1920-10-15T00:00:00Z" (-1553040000) transition_time 0x5dc-0x5e4 (8)
0x5e0|a3 6e 7d 80                                    |.n}.            |
0x5e0|            ff ff ff ff a4 23 1b 00            |    .....#..    |      [12]: "1921-03-01T00:00:00Z" (-1541203200) transition_time 0x5e4-0x5ec (8)
0x5e0|                                    ff ff ff ff|            ....|      [13]: "1921-10-15T00:00:00Z" (-1521504000) transition_time 0x5ec-0x5f4 (8)
0x5f0|a5 4f b1 00                                    |.O..            |
0x5f0|            ff ff ff ff aa 05 fd 80            |    ........    |      [14]: "1924-04-17T00:00:00Z" (-1442448000) transition_time 0x5f4-0x5fc (8)
0x5f0|                                    ff ff ff ff|            ....|      [15]: "1924-10-15T00:00:00Z" (-1426809600) transition_time 0x5fc-0x604 (8)
0x600|aa f4 9d 00                                    |....            |
0x600|            ff ff ff ff ad c9 b6 00            |    ........    |      [16]: "1926-04-18T00:00:00Z" (-1379289600) transition_time 0x604-0x60c (8)
0x600|                                    ff ff ff ff|            ....|      [17]: "1926-10-03T00:00:00Z" (-1364774400) transition_time 0x60c-0x614 (8)
0x610|ae a7 32 00                                    |..2.            |
0x610|            ff ff ff ff af a0 5d 80            |    ......].    |      [18]: "1927-04-10T00:00:00Z" (-1348444800) transition_time 0x614-0x61c (8)
0x610|                                    ff ff ff ff|            ....|      [19]: "1927-10-02T00:00:00Z" (-1333324800) transition_time 0x61c-0x624 (8)
0x620|b0 87 14 00                                    |....            |
0x620|            ff ff ff ff b1 89 7a 00            |    ......z.    |      [20]: "1928-04-15T00:00:00Z" (-1316390400) transition_time 0x624-0x62c (8)
0x620|                                    ff ff ff ff|            ....|      [21]: "1928-10-07T00:00:00Z" (-1301270400) transition_time 0x62c-0x634 (8)
0x630|b2 70 30 80                                    |.p0.            |
0x630|            ff ff ff ff b3 72 96 80            |    .....r..    |      [22]: "1929-04-21T00:00:00Z" (-1284336000) transition_time 0x634-0x63c (8)
0x630|                                    ff ff ff ff|            ....|      [23]: "1929-10-06T00:00:00Z" (-1269820800) transition_time 0x63c-0x644 (8)
0x640|b4 50 12 80                                    |.P..            |
0x640|            ff ff ff ff b7 32 5a 80            |    .....2Z.    |      [24]: "1931-04-19T00:00:00Z" (-1221436800) transition_time 0x644-0x64c (8)
0x640|                                    ff ff ff ff|            ....|      [25]: "1931-10-04T00:00:00Z" (-1206921600) transition_time 0x64c-0x654 (8)
0x650|b8 0f d6 80                                    |....            |
0x650|            ff ff ff ff b8 ff c7 80            |    ........    |      [26]: "1932-04-03T00:00:00Z" (-1191196800) transition_time 0x654-0x65c (8)
0x650|                                    ff ff ff ff|            ....|      [27]: "1932-10-02T00:00:00Z" (-1175472000) transition_time 0x65c-0x664 (8)
0x660|b9 ef b8 80                                    |....            |
0x660|            ff ff ff ff bc c8 c6 00            |    ........    |      [28]: "1934-04-08T00:00:00Z" (-1127692800) transition_time 0x664-0x66c (8)
0x660|                                    ff ff ff ff|            ....|      [29]: "1934-10-07T00:00:00Z" (-1111968000) transition_time 0x66c-0x674 (8)
0x670|bd b8 b7 00                                    |....            |
0x670|            ff ff ff ff be 9f 6d 80            |    ......m.    |      [30]: "1935-03-31T00:00:00Z" (-1096848000) transition_time 0x674-0x67c (8)
0x670|                                    ff ff ff ff|            ....|      [31]: "1935-10-06T00:00:00Z" (-1080518400) transition_time 0x67c-0x684 (8)
0x680|bf 98 99 00                                    |....            |
0x680|            ff ff ff ff c0 9a ff 00            |    ........    |      [32]: "1936-04-19T00:00:00Z" (-1063584000) transition_time 0x684-0x68c (8)
0x680|                                    ff ff ff ff|            ....|      [33]: "1936-10-04T00:00:00Z" (-1049068800) transition_time 0x68c-0x694 (8)
0x690|c1 78 7b 00                                    |.x{.            |
0x690|            ff ff ff ff c2 68 6c 00            |    .....hl.    |      [34]: "1937-04-04T00:00:00Z" (-1033344000) transition_time 0x694-0x69c (8)
0x690|                                    ff ff ff ff|            ....|      [35]: "1937-10-03T00:00:00Z" (-1017619200) transition_time 0x69c-0x6a4 (8)
0x6a0|c3 58 5d 00                                    |.X].            |
0x6a0|            ff ff ff ff c4 3f 13 80            |    .....?..    |      [36]: "1938-03-27T00:00:00Z" (-1002499200) transition_time 0x6a4-0x6ac (8)
0x6a0|                                    ff ff ff ff|            ....|      [37]: "1938-10-02T00:00:00Z" (-986169600) transition_time 0x6ac-0x6b4 (8)
0x6b0|c5 38 3f 00                                    |.8?.            |
0x6b0|            ff ff ff ff c6 3a a5 00            |    .....:..    |      [38]: "1939-04-16T00:00:00Z" (-969235200) transition_time 0x6b4-0x6bc (8)
0x6b0|                                    ff ff ff ff|            ....|      [39]: "1939-11-19T00:00:00Z" (-950486400) transition_time 0x6bc-0x6c4 (8)
0x6c0|c7 58 ba 80                                    |.X..            |
0x6c0|            ff ff ff ff c7 d9 ed 80            |    ........    |      [40]: "1940-02-25T00:00:00Z" (-942019200) transition_time 0x6c4-0x6cc (8)
0x6c0|                                    ff ff ff ff|            ....|      [41]: "1940-10-06T00:00:00Z" (-922665600) transition_time 0x6cc-0x6d4 (8)
0x6d0|c9 01 3d 80                                    |..=.            |
0x6d0|            ff ff ff ff c9 f1 2e 80            |    ........    |      [42]: "1941-04-06T00:00:00Z" (-906940800) transition_time 0x6d4-0x6dc (8)
0x6d0|                                    ff ff ff ff|            ....|      [43]: "1941-10-06T00:00:00Z" (-891129600) transition_time 0x6dc-0x6e4 (8)
0x6e0|ca e2 71 00                                    |..q.            |
0x6e0|            ff ff ff ff cb b5 61 00            |    ......a.    |      [44]: "1942-03-15T00:00:00Z" (-877305600) transition_time 0x6e4-0x6ec (8)
0x6e0|                                    ff ff ff ff|            ....|      [45]: "1942-04-25T23:00:00Z" (-873680400) transition_time 0x6ec-0x6f4 (8)
0x6f0|cb ec b1 f0                                    |....            |
0x6f0|            ff ff ff ff cc 80 59 f0            |    ......Y.    |      [46]: "1942-08-15T23:00:00Z" (-864003600) transition_time 0x6f4-0x6fc (8)
0x6f0|                                    ff ff ff ff|            ....|      [47]: "1942-10-25T00:00:00Z" (-857952000) transition_time 0x6fc-0x704 (8)
0x700|cc dc b1 00                                    |....            |
0x700|            ff ff ff ff cd 95 43 00            |    ......C.    |      [48]: "1943-03-14T00:00:00Z" (-845856000) transition_time 0x704-0x70c (8)
0x700|                                    ff ff ff ff|            ....|      [49]: "1943-04-17T23:00:00Z" (-842835600) transition_time 0x70c-0x714 (8)
0x710|cd c3 59 70                                    |..Yp            |
0x710|            ff ff ff ff ce 72 b0 f0            |    .....r..    |      [50]: "1943-08-28T23:00:00Z" (-831344400) transition_time 0x714-0x71c (8)
0x710|                                    ff ff ff ff|            ....|      [51]: "1943-10-31T00:00:00Z" (-825897600) transition_time 0x71c-0x724 (8)
0x720|ce c5 cd 80                                    |....            |
0x720|            ff ff ff ff cf 75 25 00            |    .....u%.    |      [52]: "1944-03-12T00:00:00Z" (-814406400) transition_time 0x724-0x72c (8)
0x720|                                    ff ff ff ff|            ....|      [53]: "1944-04-22T23:00:00Z" (-810781200) transition_time 0x72c-0x734 (8)
0x730|cf ac 75 f0                                    |..u.            |
0x730|            ff ff ff ff d0 52 92 f0            |    .....R..    |      [54]: "1944-08-26T23:00:00Z" (-799894800) transition_time 0x734-0x73c (8)
0x730|                                    ff ff ff ff|            ....|      [55]: "1944-10-29T00:00:00Z" (-794448000) transition_time 0x73c-0x744 (8)
0x740|d0 a5 af 80                                    |....            |
0x740|            ff ff ff ff d1 55 07 00            |    .....U..    |      [56]: "1945-03-11T00:00:00Z" (-782956800) transition_time 0x744-0x74c (8)
0x740|                                    ff ff ff ff|            ....|      [57]: "1945-04-21T23:00:00Z" (-779331600) transition_time 0x74c-0x754 (8)
0x750|d1 8c 57 f0                                    |..W.            |
0x750|            ff ff ff ff d2 32 74 f0            |    .....2t.    |      [58]: "1945-08-25T23:00:00Z" (-768445200) transition_time 0x754-0x75c (8)
0x750|                                    ff ff ff ff|            ....|      [59]: "1945-10-28T00:00:00Z" (-762998400) transition_time 0x75c-0x764 (8)
0x760|d2 85 91 80                                    |....            |
0x760|            ff ff ff ff d3 59 d3 00            |    .....Y..    |      [60]: "1946-04-07T00:00:00Z" (-749088000) transition_time 0x764-0x76c (8)
0x760|                                    ff ff ff ff|            ....|      [61]: "1946-10-06T00:00:00Z" (-733363200) transition_time 0x76c-0x774 (8)
0x770|d4 49 c4 00                                    |.I..            |
0x770|            ff ff ff ff d5 39 df 30            |    .....9.0    |      [62]: "1947-04-06T03:00:00Z" (-717627600) transition_time 0x774-0x77c (8)
0x770|                                    ff ff ff ff|            ....|      [63]: "1947-10-05T03:00:00Z" (-701902800) transition_time 0x77c-0x784 (8)
0x780|d6 29 d0 30                                    |.).0            |
0x780|            ff ff ff ff d7 19 c1 30            |    .......0    |      [64]: "1948-04-04T03:00:00Z" (-686178000) transition_time 0x784-0x78c (8)
0x780|                                    ff ff ff ff|            ....|      [65]: "1948-10-03T03:00:00Z" (-670453200) transition_time 0x78c-0x794 (8)
0x790|d8 09 b2 30                                    |...0            |
0x790|            ff ff ff ff d8 f9 a3 30            |    .......0    |      [66]: "1949-04-03T03:00:00Z" (-654728400) transition_time 0x794-0x79c (8)
0x790|                                    ff ff ff ff|            ....|      [67]: "1949-10-02T03:00:00Z" (-639003600) transition_time 0x79c-0x7a4 (8)
0x7a0|d9 e9 94 30                                    |...0            |
0x7a0|            ff ff ff ff da d9 85 30            |    .......0    |      [68]: "1950-04-02T03:00:00Z" (-623278800) transition_time 0x7a4-0x7ac (8)
0x7a0|                                    ff ff ff ff|            ....|      [69]: "1950-10-01T03:00:00Z" (-607554000) transition_time 0x7ac-0x7b4 (8)
0x7b0|db c9 76 30                                    |..v0            |
0x7b0|            ff ff ff ff dc b9 67 30            |    ......g0    |      [70]: "1951-04-01T03:00:00Z" (-591829200) transition_time 0x7b4-0x7bc (8)
0x7b0|                                    ff ff ff ff|            ....|      [71]: "1951-10-07T03:00:00Z" (-575499600) transition_time 0x7bc-0x7c4 (8)
0x7c0|dd b2 92 b0                                    |....            |
0x7c0|            ff ff ff ff de a2 83 b0            |    ........    |      [72]: "1952-04-06T03:00:00Z" (-559774800) transition_time 0x7c4-0x7cc (8)
0x7c0|                                    ff ff ff ff|            ....|      [73]: "1952-10-05T03:00:00Z" (-544050000) transition_time 0x7cc-0x7d4 (8)
0x7d0|df 92 74 b0                                    |..t.            |
0x7d0|            ff ff ff ff e0 82 65 b0            |    ......e.    |      [74]: "1953-04-05T03:00:00Z" (-528325200) transition_time 0x7d4-0x7dc (8)
0x7d0|                                    ff ff ff ff|            ....|      [75]: "1953-10-04T03:00:00Z" (-512600400) transition_time 0x7dc-0x7e4 (8)
0x7e0|e1 72 56 b0                                    |.rV.            |
0x7e0|            ff ff ff ff e2 62 47 b0            |    .....bG.    |      [76]: "1954-04-04T03:00:00Z" (-496875600) transition_time 0x7e4-0x7ec (8)
0x7e0|                                    ff ff ff ff|            ....|      [77]: "1954-10-03T03:00:00Z" (-481150800) transition_time 0x7ec-0x7f4 (8)
0x7f0|e3 52 38 b0                                    |.R8.            |
0x7f0|            ff ff ff ff e4 42 29 b0            |    .....B).    |      [78]: "1955-04-03T03:00:00Z" (-465426000) transition_time 0x7f4-0x7fc (8)
0x7f0|                                    ff ff ff ff|            ....|      [79]: "1955-10-02T03:00:00Z" (-449701200) transition_time 0x7fc-0x804 (8)
0x800|e5 32 1a b0                                    |.2..            |
0x800|            ff ff ff ff e6 22 0b b0            |    ....."..    |      [80]: "1956-04-01T03:00:00Z" (-433976400) transition_time 0x804-0x80c (8)
0x800|                                    ff ff ff ff|            ....|      [81]: "1956-10-07T03:00:00Z" (-417646800) transition_time 0x80c-0x814 (8)
0x810|e7 1b 37 30                                    |..70            |
0x810|            ff ff ff ff e8 0b 28 30            |    ......(0    |      [82]: "1957-04-07T03:00:00Z" (-401922000) transition_time 0x814-0x81c (8)
0x810|                                    ff ff ff ff|            ....|      [83]: "1957-10-06T03:00:00Z" (-386197200) transition_time 0x81c-0x824 (8)
0x820|e8 fb 19 30                                    |...0            |
0x820|            ff ff ff ff e9 eb 0a 30            |    .......0    |      [84]: "1958-04-06T03:00:00Z" (-370472400) transition_time 0x824-0x82c (8)
0x820|                                    ff ff ff ff|            ....|      [85]: "1958-10-05T03:00:00Z" (-354747600) transition_time 0x82c-0x834 (8)
0x830|ea da fb 30                                    |...0            |
0x830|            ff ff ff ff eb ca ec 30            |    .......0    |      [86]: "1959-04-05T03:00:00Z" (-339022800) transition_time 0x834-0x83c (8)
0x830|                                    ff ff ff ff|            ....|      [87]: "1959-10-04T03:00:00Z" (-323298000) transition_time 0x83c-0x844 (8)
0x840|ec ba dd 30                                    |...0            |
0x840|            ff ff ff ff ed aa ce 30            |    .......0    |      [88]: "1960-04-03T03:00:00Z" (-307573200) transition_time 0x844-0x84c (8)
0x840|                                    ff ff ff ff|            ....|      [89]: "1960-10-02T03:00:00Z" (-291848400) transition_time 0x84c-0x854 (8)
0x850|ee 9a bf 30                                    |...0            |
0x850|            ff ff ff ff ef 8a b0 30            |    .......0    |      [90]: "1961-04-02T03:00:00Z" (-276123600) transition_time 0x854-0x85c (8)
0x850|                                    ff ff ff ff|            ....|      [91]: "1961-10-01T03:00:00Z" (-260398800) transition_time 0x85c-0x864 (8)
0x860|f0 7a a1 30                                    |.z.0            |
0x860|            ff ff ff ff f1 6a 92 30            |    .....j.0    |      [92]: "1962-04-01T03:00:00Z" (-244674000) transition_time 0x864-0x86c (8)
0x860|                                    ff ff ff ff|            ....|      [93]: "1962-10-07T03:00:00Z" (-228344400) transition_time 0x86c-0x874 (8)
0x870|f2 63 bd b0                                    |.c..            |
0x870|            ff ff ff ff f3 53 ae b0            |    .....S..    |      [94]: "1963-04-07T03:00:00Z" (-212619600) transition_time 0x874-0x87c (8)
0x870|                                    ff ff ff ff|            ....|      [95]: "1963-10-06T03:00:00Z" (-196894800) transition_time 0x87c-0x884 (8)
0x880|f4 43 9f b0                                    |.C..            |
0x880|            ff ff ff ff f5 33 90 b0            |    .....3..    |      [96]: "1964-04-05T03:00:00Z" (-181170000) transition_time 0x884-0x88c (8)
0x880|                                    ff ff ff ff|            ....|      [97]: "1964-10-04T03:00:00Z" (-165445200) transition_time 0x88c-0x894 (8)
0x890|f6 23 81 b0                                    |.#..            |
0x890|            ff ff ff ff f7 13 72 b0            |    ......r.    |      [98]: "1965-04-04T03:00:00Z" (-149720400) transition_time 0x894-0x89c (8)
0x890|                                    ff ff ff ff|            ....|      [99]: "1965-10-03T03:00:00Z" (-133995600) transition_time 0x89c-0x8a4 (8)
0x8a0|f8 03 63 b0                                    |..c.            |
0x8a0|            ff ff ff ff f8 f3 54 b0            |    ......T.    |      [100]: "1966-04-03T03:00:00Z" (-118270800) transition_time 0x8a4-0x8ac (8)
0x8a0|                                    00 00 00 00|            ....|      [101]: "1977-03-27T00:00:06Z" (228268806) transition_time 0x8ac-0x8b4 (8)
0x8b0|0d 9b 1b 06                                    |....            |
0x8b0|            00 00 00 00 0e 8b 0c 06            |    ........    |      [102]: "1977-09-25T00:00:06Z" (243993606) transition_time 0x8b4-0x8bc (8)
0x8b0|                                    00 00 00 00|            ....|      [103]: "1978-04-02T00:00:07Z" (260323207) transition_time 0x8bc-0x8c4 (8)
0x8c0|0f 84 37 87                                    |..7.            |
0x8c0|            00 00 00 00 10 74 28 87            |    .....t(.    |      [104]: "1978-10-01T00:00:07Z" (276048007) transition_time 0x8c4-0x8cc (8)
0x8c0|                                    00 00 00 00|            ....|      [105]: "1979-04-01T00:00:08Z" (291772808) transition_time 0x8cc-0x8d4 (8)
0x8d0|11 64 19 88                                    |.d..            |
0x8d0|            00 00 00 00 12 54 18 98            |    .....T..    |      [106]: "1979-09-30T01:00:08Z" (307501208) transition_time 0x8d4-0x8dc (8)
0x8d0|                                    00 00 00 00|            ....|      [107]: "1980-03-30T00:00:09Z" (323222409) transition_time 0x8dc-0x8e4 (8)
0x8e0|13 43 fb 89                                    |.C..            |
0x8e0|            00 00 00 00 14 33 fa 99            |    .....3..    |      [108]: "1980-09-28T01:00:09Z" (338950809) transition_time 0x8e4-0x8ec (8)
0x8e0|                                    00 00 00 00|            ....|      [109]: "1981-03-29T01:00:09Z" (354675609) transition_time 0x8ec-0x8f4 (8)
0x8f0|15 23 eb 99                                    |.#..            |
0x8f0|            00 00 00 00 16 13 dc 9a            |    ........    |      [110]: "1981-09-27T01:00:10Z" (370400410) transition_time 0x8f4-0x8fc (8)
0x8f0|                                    00 00 00 00|            ....|      [111]: "1982-03-28T01:00:10Z" (386125210) transition_time 0x8fc-0x904 (8)
0x900|17 03 cd 9a                                    |....            |
0x900|            00 00 00 00 17 f3 be 9b            |    ........    |      [112]: "1982-09-26T01:00:11Z" (401850011) transition_time 0x904-0x90c (8)
0x900|                                    00 00 00 00|            ....|      [113]: "1983-03-27T02:00:11Z" (417578411) transition_time 0x90c-0x914 (8)
0x910|18 e3 bd ab                                    |....            |
0x910|            00 00 00 00 19 d3 a0 9c            |    ........    |      [114]: "1983-09-25T01:00:12Z" (433299612) transition_time 0x914-0x91c (8)
0x910|                                    00 00 00 00|            ....|      [115]: "1984-03-25T01:00:12Z" (449024412) transition_time 0x91c-0x924 (8)
0x920|1a c3 91 9c                                    |....            |
0x920|            00 00 00 00 1b bc bd 1c            |    ........    |      [116]: "1984-09-30T01:00:12Z" (465354012) transition_time 0x924-0x92c (8)
0x920|                                    00 00 00 00|            ....|      [117]: "1985-03-31T01:00:12Z" (481078812) transition_time 0x92c-0x934 (8)
0x930|1c ac ae 1c                                    |....            |
0x930|            00 00 00 00 1d 9c 9f 1d            |    ........    |      [118]: "1985-09-29T01:00:13Z" (496803613) transition_time 0x934-0x93c (8)
0x930|                                    00 00 00 00|            ....|      [119]: "1986-03-30T01:00:13Z" (512528413) transition_time 0x93c-0x944 (8)
0x940|1e 8c 90 1d                                    |....            |
0x940|            00 00 00 00 1f 7c 81 1d            |    .....|..    |      [120]: "1986-09-28T01:00:13Z" (528253213) transition_time 0x944-0x94c (8)
0x940|                                    00 00 00 00|            ....|      [121]: "1987-03-29T01:00:13Z" (543978013) transition_time 0x94c-0x954 (8)
0x950|20 6c 72 1d                                    | lr.            |
0x950|            00 00 00 00 21 5c 63 1d            |    ....!\c.    |      [122]: "1987-09-27T01:00:13Z" (559702813) transition_time 0x954-0x95c (8)
0x950|                                    00 00 00 00|            ....|      [123]: "1988-03-27T01:00:14Z" (575427614) transition_time 0x95c-0x964 (8)
0x960|22 4c 54 1e                                    |"LT.            |
0x960|            00 00 00 00 23 3c 45 1e            |    ....#<E.    |      [124]: "1988-09-25T01:00:14Z" (591152414) transition_time 0x964-0x96c (8)
0x960|                                    00 00 00 00|            ....|      [125]: "1989-03-26T01:00:14Z" (606877214) transition_time 0x96c-0x974 (8)
0x970|24 2c 36 1e                                    |$,6.            |
0x970|            00 00 00 00 25 1c 27 1e            |    ....%.'.    |      [126]: "1989-09-24T01:00:14Z" (622602014) transition_time 0x974-0x97c (8)
0x970|                                    00 00 00 00|            ....|      [127]: "1990-03-25T01:00:15Z" (638326815) transition_time 0x97c-0x984 (8)
0x980|26 0c 18 1f                                    |&...            |
0x980|            00 00 00 00 27 05 43 9f            |    ....'.C.    |      [128]: "1990-09-30T01:00:15Z" (654656415) transition_time 0x984-0x98c (8)
0x980|                                    00 00 00 00|            ....|      [129]: "1991-03-31T01:00:16Z" (670381216) transition_time 0x98c-0x994 (8)
0x990|27 f5 34 a0                                    |'.4.            |
0x990|            00 00 00 00 28 e5 25 a0            |    ....(.%.    |      [130]: "1991-09-29T01:00:16Z" (686106016) transition_time 0x994-0x99c (8)
0x990|                                    00 00 00 00|            ....|      [131]: "1992-03-29T01:00:16Z" (701830816) transition_time 0x99c-0x9a4 (8)
0x9a0|29 d5 16 a0                                    |)...            |
0x9a0|            00 00 00 00 2a c5 07 a1            |    ....*...    |      [132]: "1992-09-27T01:00:17Z" (717555617) transition_time 0x9a4-0x9ac (8)
0x9a0|                                    00 00 00 00|            ....|      [133]: "1993-03-28T01:00:17Z" (733280417) transition_time 0x9ac-0x9b4 (8)
0x9b0|2b b4 f8 a1                                    |+...            |
0x9b0|            00 00 00 00 2c a4 e9 a2            |    ....,...    |      [134]: "1993-09-26T01:00:18Z" (749005218) transition_time 0x9b4-0x9bc (8)
0x9b0|                                    00 00 00 00|            ....|      [135]: "1994-03-27T01:00:18Z" (764730018) transition_time 0x9bc-0x9c4 (8)
0x9c0|2d 94 da a2                                    |-...            |
0x9c0|            00 00 00 00 2e 84 cb a3            |    ........    |      [136]: "1994-09-25T01:00:19Z" (780454819) transition_time 0x9c4-0x9cc (8)
0x9c0|                                    00 00 00 00|            ....|      [137]: "1995-03-26T01:00:19Z" (796179619) transition_time 0x9cc-0x9d4 (8)
0x9d0|2f 74 bc a3                                    |/t..            |
0x9d0|            00 00 00 00 30 64 ad a3            |    ....0d..    |      [138]: "1995-09-24T01:00:19Z" (811904419) transition_time 0x9d4-0x9dc (8)
0x9d0|                                    00 00 00 00|            ....|      [139]: "1996-03-31T01:00:20Z" (828234020) transition_time 0x9dc-0x9e4 (8)
0x9e0|31 5d d9 24                                    |1].$            |
0x9e0|            00 00 00 00 32 72 b4 24            |    ....2r.$    |      [140]: "1996-10-27T01:00:20Z" (846378020) transition_time 0x9e4-0x9ec (8)
0x9e0|                                    00 00 00 00|            ....|      [141]: "1997-03-30T01:00:20Z" (859683620) transition_time 0x9ec-0x9f4 (8)
0x9f0|33 3d bb 24                                    |3=.$            |
0x9f0|            00 00 00 00 34 52 96 25            |    ....4R.%    |      [142]: "1997-10-26T01:00:21Z" (877827621) transition_time 0x9f4-0x9fc (8)
0x9f0|                                    00 00 00 00|            ....|      [143]: "1998-03-29T01:00:21Z" (891133221) transition_time 0x9fc-0xa04 (8)
0xa00|35 1d 9d 25                                    |5..%            |
0xa00|            00 00 00 00 36 32 78 25            |    ....62x%    |      [144]: "1998-10-25T01:00:21Z" (909277221) transition_time 0xa04-0xa0c (8)
0xa00|                                    00 00 00 00|            ....|      [145]: "1999-03-28T01:00:22Z" (922582822) transition_time 0xa0c-0xa14 (8)
0xa10|36 fd 7f 26                                    |6..&            |
0xa10|            00 00 00 00 38 1b 94 a6            |    ....8...    |      [146]: "1999-10-31T01:00:22Z" (941331622) transition_time 0xa14-0xa1c (8)
0xa10|                                    00 00 00 00|            ....|      [147]: "2000-03-26T01:00:22Z" (954032422) transition_time 0xa1c-0xa24 (8)
0xa20|38 dd 61 26                                    |8.a&            |
0xa20|            00 00 00 00 39 fb 76 a6            |    ....9.v.    |      [148]: "2000-10-29T01:00:22Z" (972781222) transition_time 0xa24-0xa2c (8)
0xa20|                                    00 00 00 00|            ....|      [149]: "2001-03-25T01:00:22Z" (985482022) transition_time 0xa2c-0xa34 (8)
0xa30|3a bd 43 26                                    |:.C&            |
0xa30|            00 00 00 00 3b db 58 a6            |    ....;.X.    |      [150]: "2001-10-28T01:00:22Z" (1004230822) transition_time 0xa34-0xa3c (8)
0xa30|                                    00 00 00 00|            ....|      [151]: "2002-03-31T01:00:22Z" (1017536422) transition_time 0xa3c-0xa44 (8)
0xa40|3c a6 5f a6                                    |<._.            |
0xa40|            00 00 00 00 3d bb 3a a6            |    ....=.:.    |      [152]: "2002-10-27T01:00:22Z" (1035680422) transition_time 0xa44-0xa4c (8)
0xa40|                                    00 00 00 00|            ....|      [153]: "2003-03-30T01:00:22Z" (1048986022) transition_time 0xa4c-0xa54 (8)
0xa50|3e 86 41 a6                                    |>.A.            |
0xa50|            00 00 00 00 3f 9b 1c a6            |    ....?...    |      [154]: "2003-10-26T01:00:22Z" (1067130022) transition_time 0xa54-0xa5c (8)
0xa50|                                    00 00 00 00|            ....|      [155]: "2004-03-28T01:00:22Z" (1080435622) transition_time 0xa5c-0xa64 (8)
0xa60|40 66 23 a6                                    |@f#.            |
0xa60|            00 00 00 00 41 84 39 26            |    ....A.9&    |      [156]: "2004-10-31T01:00:22Z" (1099184422) transition_time 0xa64-0xa6c (8)
0xa60|                                    00 00 00 00|            ....|      [157]: "2005-03-27T01:00:22Z" (1111885222) transition_time 0xa6c-0xa74 (8)
0xa70|42 46 05 a6                                    |BF..            |
0xa70|            00 00 00 00 43 64 1b 26            |    ....Cd.&    |      [158]: "2005-10-30T01:00:22Z" (1130634022) transition_time 0xa74-0xa7c (8)
0xa70|                                    00 00 00 00|            ....|      [159]: "2006-03-26T01:00:23Z" (1143334823) transition_time 0xa7c-0xa84 (8)
0xa80|44 25 e7 a7                                    |D%..            |
0xa80|            00 00 00 00 45 43 fd 27            |    ....EC.'    |      [160]: "2006-10-29T01:00:23Z" (1162083623) transition_time 0xa84-0xa8c (8)
0xa80|                                    00 00 00 00|            ....|      [161]: "2007-03-25T01:00:23Z" (1174784423) transition_time 0xa8c-0xa94 (8)
0xa90|46 05 c9 a7                                    |F...            |
0xa90|            00 00 00 00 47 23 df 27            |    ....G#.'    |      [162]: "2007-10-28T01:00:23Z" (1193533223) transition_time 0xa94-0xa9c (8)
0xa90|                                    00 00 00 00|            ....|      [163]: "2008-03-30T01:00:23Z" (1206838823) transition_time 0xa9c-0xaa4 (8)
0xaa0|47 ee e6 27                                    |G..'            |
0xaa0|            00 00 00 00 49 03 c1 27            |    ....I..'    |      [164]: "2008-10-26T01:00:23Z" (1224982823) transition_time 0xaa4-0xaac (8)
0xaa0|                                    00 00 00 00|            ....|      [165]: "2009-03-29T01:00:24Z" (1238288424) transition_time 0xaac-0xab4 (8)
0xab0|49 ce c8 28                                    |I..(            |
0xab0|            00 00 00 00 4a e3 a3 28            |    ....J..(    |      [166]: "2009-10-25T01:00:24Z" (1256432424) transition_time 0xab4-0xabc (8)
0xab0|                                    00 00 00 00|            ....|      [167]: "2010-03-28T01:00:24Z" (1269738024) transition_time 0xabc-0xac4 (8)
0xac0|4b ae aa 28                                    |K..(            |
0xac0|            00 00 00 00 4c cc bf a8            |    ....L...    |      [168]: "2010-10-31T01:00:24Z" (1288486824) transition_time 0xac4-0xacc (8)
0xac0|                                    00 00 00 00|            ....|      [169]: "2011-03-27T01:00:24Z" (1301187624) transition_time 0xacc-0xad4 (8)
0xad0|4d 8e 8c 28                                    |M..(            |
0xad0|            00 00 00 00 4e ac a1 a8            |    ....N...    |      [170]: "2011-10-30T01:00:24Z" (1319936424) transition_time 0xad4-0xadc (8)
0xad0|                                    00 00 00 00|            ....|      [171]: "2012-03-25T01:00:24Z" (1332637224) transition_time 0xadc-0xae4 (8)
0xae0|4f 6e 6e 28                                    |Onn(            |
0xae0|            00 00 00 00 50 8c 83 a9            |    ....P...    |      [172]: "2012-10-28T01:00:25Z" (1351386025) transition_time 0xae4-0xaec (8)
0xae0|                                    00 00 00 00|            ....|      [173]: "2013-03-31T01:00:25Z" (1364691625) transition_time 0xaec-0xaf4 (8)
0xaf0|51 57 8a a9                                    |QW..            |
0xaf0|            00 00 00 00 52 6c 65 a9            |    ....Rle.    |      [174]: "2013-10-27T01:00:25Z" (1382835625) transition_time 0xaf4-0xafc (8)
0xaf0|                                    00 00 00 00|            ....|      [175]: "2014-03-30T01:00:25Z" (1396141225) transition_time 0xafc-0xb04 (8)
0xb00|53 37 6c a9                                    |S7l.            |
0xb00|            00 00 00 00 54 4c 47 a9            |    ....TLG.    |      [176]: "2014-10-26T01:00:25Z" (1414285225) transition_time 0xb04-0xb0c (8)
0xb00|                                    00 00 00 00|            ....|      [177]: "2015-03-29T01:00:25Z" (1427590825) transition_time 0xb0c-0xb14 (8)
0xb10|55 17 4e a9                                    |U.N.            |
0xb10|            00 00 00 00 56 2c 29 aa            |    ....V,).    |      [178]: "2015-10-25T01:00:26Z" (1445734826) transition_time 0xb14-0xb1c (8)
0xb10|                                    00 00 00 00|            ....|      [179]: "2016-03-27T01:00:26Z" (1459040426) transition_time 0xb1c-0xb24 (8)
0xb20|56 f7 30 aa                                    |V.0.            |
0xb20|            00 00 00 00 58 15 46 2a            |    ....X.F*    |      [180]: "2016-10-30T01:00:26Z" (1477789226) transition_time 0xb24-0xb2c (8)
0xb20|                                    00 00 00 00|            ....|      [181]: "2017-03-26T01:00:27Z" (1490490027) transition_time 0xb2c-0xb34 (8)
0xb30|58 d7 12 ab                                    |X...            |
0xb30|            00 00 00 00 59 f5 28 2b            |    ....Y.(+    |      [182]: "2017-10-29T01:00:27Z" (1509238827) transition_time 0xb34-0xb3c (8)
0xb30|                                    00 00 00 00|            ....|      [183]: "2018-03-25T01:00:27Z" (1521939627) transition_time 0xb3c-0xb44 (8)
0xb40|5a b6 f4 ab                                    |Z...            |
0xb40|            00 00 00 00 5b d5 0a 2b            |    ....[..+    |      [184]: "2018-10-28T01:00:27Z" (1540688427) transition_time 0xb44-0xb4c (8)
0xb40|                                    00 00 00 00|            ....|      [185]: "2019-03-31T01:00:27Z" (1553994027) transition_time 0xb4c-0xb54 (8)
0xb50|5c a0 11 2b                                    |\..+            |
0xb50|            00 00 00 00 5d b4 ec 2b            |    ....]..+    |      [186]: "2019-10-27T01:00:27Z" (1572138027) transition_time 0xb54-0xb5c (8)
0xb50|                                    00 00 00 00|            ....|      [187]: "2020-03-29T01:00:27Z" (1585443627) transition_time 0xb5c-0xb64 (8)
0xb60|5e 7f f3 2b                                    |^..+            |
0xb60|            00 00 00 00 5f 94 ce 2b            |    ...._..+    |      [188]: "2020-10-25T01:00:27Z" (1603587627) transition_time 0xb64-0xb6c (8)
0xb60|                                    00 00 00 00|            ....|      [189]: "2021-03-28T01:00:27Z" (1616893227) transition_time 0xb6c-0xb74 (8)
0xb70|60 5f d5 2b                                    |`_.+            |
0xb70|            00 00 00 00 61 7d ea ab            |    ....a}..    |      [190]: "2021-10-31T01:00:27Z" (1635642027) transition_time 0xb74-0xb7c (8)
0xb70|                                    00 00 00 00|            ....|      [191]: "2022-03-27T01:00:27Z" (1648342827) transition_time 0xb7c-0xb84 (8)
0xb80|62 3f b7 2b                                    |b?.+            |
0xb80|            00 00 00 00 63 5d cc ab            |    ....c]..    |      [192]: "2022-10-30T01:00:27Z" (1667091627) transition_time 0xb84-0xb8c (8)
0xb80|                                    00 00 00 00|            ....|      [193]: "2023-03-26T01:00:27Z" (1679792427) transition_time 0xb8c-0xb94 (8)
0xb90|64 1f 99 2b                                    |d..+            |
0xb90|            00 00 00 00 64 9b 78 1b            |    ....d.x.    |      [194]: "2023-06-28T00:00:27Z" (1687910427) transition_time 0xb94-0xb9c (8)
     |                                               |                |    transition_types[0:195]: 0xb9c-0xc5f (195)
0xb90|                                    01         |            .   |      [0]: 1 transition_type 0xb9c-0xb9d (1)
0xb90|                                       06      |             .  |      [1]: 6 transition_type 0xb9d-0xb9e (1)
0xb90|                                          02   |              . |      [2]: 2 transition_type 0xb9e-0xb9f (1)
0xb90|                                             03|               .|      [3]: 3 transition_type 0xb9f-0xba0 (1)
0xba0|04                                             |.               |      [4]: 4 transition_type 0xba0-0xba1 (1)
0xba0|   05                                          | .              |      [5]: 5 transition_type 0xba1-0xba2 (1)
0xba0|      04                                       |  .             |      [6]: 4 transition_type 0xba2-0xba3 (1)
0xba0|         05                                    |   .            |      [7]: 5 transition_type 0xba3-0xba4 (1)
0xba0|            04                                 |    .           |      [8]: 4 transition_type 0xba4-0xba5 (1)
0xba0|               05                              |     .          |      [9]: 5 transition_type 0xba5-0xba6 (1)
0xba0|                  04                           |      .         |      [10]: 4 transition_type 0xba6-0xba7 (1)
0xba0|                     05                        |       .        |      [11]: 5 transition_type 0xba7-0xba8 (1)
0xba0|                        04                     |        .       |      [12]: 4 transition_type 0xba8-0xba9 (1)
0xba0|                           05                  |         .      |      [13]: 5 transition_type 0xba9-0xbaa (1)
0xba0|                              04               |          .     |      [14]: 4 transition_type 0xbaa-0xbab (1)
0xba0|                                 05            |           .    |      [15]: 5 transition_type 0xbab-0xbac (1)
0xba0|                                    04         |            .   |      [16]: 4 transition_type 0xbac-0xbad (1)
0xba0|                                       05      |             .  |      [17]: 5 transition_type 0xbad-0xbae (1)
0xba0|                                          04   |              . |      [18]: 4 transition_type 0xbae-0xbaf (1)
0xba0|                                             05|               .|      [19]: 5 transition_type 0xbaf-0xbb0 (1)
0xbb0|04                                             |.               |      [20]: 4 transition_type 0xbb0-0xbb1 (1)
0xbb0|   05                                          | .              |      [21]: 5 transition_type 0xbb1-0xbb2 (1)
0xbb0|      04                                       |  .             |      [22]: 4 transition_type 0xbb2-0xbb3 (1)
0xbb0|         05                                    |   .            |      [23]: 5 transition_type 0xbb3-0xbb4 (1)
0xbb0|            04                                 |    .           |      [24]: 4 transition_type 0xbb4-0xbb5 (1)
0xbb0|               05                              |     .          |      [25]: 5 transition_type 0xbb5-0xbb6 (1)
0xbb0|                  04                           |      .         |      [26]: 4 transition_type 0xbb6-0xbb7 (1)
0xbb0|                     05                        |       .        |      [27]: 5 transition_type 0xbb7-0xbb8 (1)
0xbb0|                        04                     |        .       |      [28]: 4 transition_type 0xbb8-0xbb9 (1)
0xbb0|                           05                  |         .      |      [29]: 5 transition_type 0xbb9-0xbba (1)
0xbb0|                              04               |          .     |      [30]: 4 transition_type 0xbba-0xbbb (1)
0xbb0|                                 05            |           .    |      [31]: 5 transition_type 0xbbb-0xbbc (1)
0xbb0|                                    04         |            .   |      [32]: 4 transition_type 0xbbc-0xbbd (1)
0xbb0|                                       05      |             .  |      [33]: 5 transition_type 0xbbd-0xbbe (1)
0xbb0|                                          04   |              . |      [34]: 4 transition_type 0xbbe-0xbbf (1)
0xbb0|                                             05|               .|      [35]: 5 transition_type 0xbbf-0xbc0 (1)
0xbc0|04                                             |.               |      [36]: 4 transition_type 0xbc0-0xbc1 (1)
0xbc0|   05                                          | .              |      [37]: 5 transition_type 0xbc1-0xbc2 (1)
0xbc0|      04                                       |  .             |      [38]: 4 transition_type 0xbc2-0xbc3 (1)
0xbc0|         05                                    |   .            |      [39]: 5 transition_type 0xbc3-0xbc4 (1)
0xbc0|            04                                 |    .           |      [40]: 4 transition_type 0xbc4-0xbc5 (1)
0xbc0|               05                              |     .          |      [41]: 5 transition_type 0xbc5-0xbc6 (1)
0xbc0|                  04                           |      .         |      [42]: 4 transition_type 0xbc6-0xbc7 (1)
0xbc0|                     05                        |       .        |      [43]: 5 transition_type 0xbc7-0xbc8 (1)
0xbc0|                        04                     |        .       |      [44]: 4 transition_type 0xbc8-0xbc9 (1)
0xbc0|                           07                  |         .      |      [45]: 7 transition_type 0xbc9-0xbca (1)
0xbc0|                              04               |          .     |      [46]: 4 transition_type 0xbca-0xbcb (1)
0xbc0|                                 05            |           .    |      [47]: 5 transition_type 0xbcb-0xbcc (1)
0xbc0|                                    04         |            .   |      [48]: 4 transition_type 0xbcc-0xbcd (1)
0xbc0|                                       07      |             .  |      [49]: 7 transition_type 0xbcd-0xbce (1)
0xbc0|                                          04   |              . |      [50]: 4 transition_type 0xbce-0xbcf (1)
0xbc0|                                             05|               .|      [51]: 5 transition_type 0xbcf-0xbd0 (1)
0xbd0|04                                             |.               |      [52]: 4 transition_type 0xbd0-0xbd1 (1)
0xbd0|   07                                          | .              |      [53]: 7 transition_type 0xbd1-0xbd2 (1)
0xbd0|      04                                       |  .             |      [54]: 4 transition_type 0xbd2-0xbd3 (1)
0xbd0|         05                                    |   .            |      [55]: 5 transition_type 0xbd3-0xbd4 (1)
0xbd0|            04                                 |    .           |      [56]: 4 transition_type 0xbd4-0xbd5 (1)
0xbd0|               07                              |     .          |      [57]: 7 transition_type 0xbd5-0xbd6 (1)
0xbd0|                  04                           |      .         |      [58]: 4 transition_type 0xbd6-0xbd7 (1)
0xbd0|                     05                        |       .        |      [59]: 5 transition_type 0xbd7-0xbd8 (1)
0xbd0|                        04                     |        .       |      [60]: 4 transition_type 0xbd8-0xbd9 (1)
0xbd0|                           05                  |         .      |      [61]: 5 transition_type 0xbd9-0xbda (1)
0xbd0|                              04               |          .     |      [62]: 4 transition_type 0xbda-0xbdb (1)
0xbd0|                                 05            |           .    |      [63]: 5 transition_type 0xbdb-0xbdc (1)
0xbd0|                                    04         |            .   |      [64]: 4 transition_type 0xbdc-0xbdd (1)
0xbd0|                                       05      |             .  |      [65]: 5 transition_type 0xbdd-0xbde (1)
0xbd0|                                          04   |              . |      [66]: 4 transition_type 0xbde-0xbdf (1)
0xbd0|                                             05|               .|      [67]: 5 transition_type 0xbdf-0xbe0 (1)
0xbe0|04                                             |.               |      [68]: 4 transition_type 0xbe0-0xbe1 (1)
0xbe0|   05                                          | .              |      [69]: 5 transition_type 0xbe1-0xbe2 (1)
0xbe0|      04                                       |  .             |      [70]: 4 transition_type 0xbe2-0xbe3 (1)
0xbe0|         05                                    |   .            |      [71]: 5 transition_type 0xbe3-0xbe4 (1)
0xbe0|            04                                 |    .           |      [72]: 4 transition_type 0xbe4-0xbe5 (1)
0xbe0|               05                              |     .          |      [73]: 5 transition_type 0xbe5-0xbe6 (1)
0xbe0|                  04                           |      .         |      [74]: 4 transition_type 0xbe6-0xbe7 (1)
0xbe0|                     05                        |       .        |      [75]: 5 transition_type 0xbe7-0xbe8 (1)
0xbe0|                        04                     |        .       |      [76]: 4 transition_type 0xbe8-0xbe9 (1)
0xbe0|                           05                  |         .      |      [77]: 5 transition_type 0xbe9-0xbea (1)
0xbe0|                              04               |          .     |      [78]: 4 transition_type 0xbea-0xbeb (1)
0xbe0|                                 05            |           .    |      [79]: 5 transition_type 0xbeb-0xbec (1)
0xbe0|                                    04         |            .   |      [80]: 4 transition_type 0xbec-0xbed (1)
0xbe0|                                       05      |             .  |      [81]: 5 transition_type 0xbed-0xbee (1)
0xbe0|                                          04   |              . |      [82]: 4 transition_type 0xbee-0xbef (1)
0xbe0|                                             05|               .|      [83]: 5 transition_type 0xbef-0xbf0 (1)
0xbf0|04                                             |.               |      [84]: 4 transition_type 0xbf0-0xbf1 (1)
0xbf0|   05                                          | .              |      [85]: 5 transition_type 0xbf1-0xbf2 (1)
0xbf0|      04                                       |  .             |      [86]: 4 transition_type 0xbf2-0xbf3 (1)
0xbf0|         05                                    |   .            |      [87]: 5 transition_type 0xbf3-0xbf4 (1)
0xbf0|            04                                 |    .           |      [88]: 4 transition_type 0xbf4-0xbf5 (1)
0xbf0|               05                              |     .          |      [89]: 5 transition_type 0xbf5-0xbf6 (1)
0xbf0|                  04                           |      .         |      [90]: 4 transition_type 0xbf6-0xbf7 (1)
0xbf0|                     05                        |       .        |      [91]: 5 transition_type 0xbf7-0xbf8 (1)
0xbf0|                        04                     |        .       |      [92]: 4 transition_type 0xbf8-0xbf9 (1)
0xbf0|                           05                  |         .      |      [93]: 5 transition_type 0xbf9-0xbfa (1)
0xbf0|                              04               |          .     |      [94]: 4 transition_type 0xbfa-0xbfb (1)
0xbf0|                                 05            |           .    |      [95]: 5 transition_type 0xbfb-0xbfc (1)
0xbf0|                                    04         |            .   |      [96]: 4 transition_type 0xbfc-0xbfd (1)
0xbf0|                                       05      |             .  |      [97]: 5 transition_type 0xbfd-0xbfe (1)
0xbf0|                                          04   |              . |      [98]: 4 transition_type 0xbfe-0xbff (1)
0xbf0|                                             05|               .|      [99]: 5 transition_type 0xbff-0xc00 (1)
0xc00|0a                                             |.               |      [100]: 10 transition_type 0xc00-0xc01 (1)
0xc00|   08                                          | .              |      [101]: 8 transition_type 0xc01-0xc02 (1)
0xc00|      09                                       |  .             |      [102]: 9 transition_type 0xc02-0xc03 (1)
0xc00|         08                                    |   .            |      [103]: 8 transition_type 0xc03-0xc04 (1)
0xc00|            09                                 |    .           |      [104]: 9 transition_type 0xc04-0xc05 (1)
0xc00|               08                              |     .          |      [105]: 8 transition_type 0xc05-0xc06 (1)
0xc00|                  09                           |      .         |      [106]: 9 transition_type 0xc06-0xc07 (1)
0xc00|                     08                        |       .        |      [107]: 8 transition_type 0xc07-0xc08 (1)
0xc00|                        09                     |        .       |      [108]: 9 transition_type 0xc08-0xc09 (1)
0xc00|                           08                  |         .      |      [109]: 8 transition_type 0xc09-0xc0a (1)
0xc00|                              09               |          .     |      [110]: 9 transition_type 0xc0a-0xc0b (1)
0xc00|                                 08            |           .    |      [111]: 8 transition_type 0xc0b-0xc0c (1)
0xc00|                                    09         |            .   |      [112]: 9 transition_type 0xc0c-0xc0d (1)
0xc00|                                       08      |             .  |      [113]: 8 transition_type 0xc0d-0xc0e (1)
0xc00|                                          0b   |              . |      [114]: 11 transition_type 0xc0e-0xc0f (1)
0xc00|                                             0c|               .|      [115]: 12 transition_type 0xc0f-0xc10 (1)
0xc10|0b                                             |.               |      [116]: 11 transition_type 0xc10-0xc11 (1)
0xc10|   0c                                          | .              |      [117]: 12 transition_type 0xc11-0xc12 (1)
0xc10|      0b                                       |  .             |      [118]: 11 transition_type 0xc12-0xc13 (1)
0xc10|         0c                                    |   .            |      [119]: 12 transition_type 0xc13-0xc14 (1)
0xc10|            0b                                 |    .           |      [120]: 11 transition_type 0xc14-0xc15 (1)
0xc10|               0c                              |     .          |      [121]: 12 transition_type 0xc15-0xc16 (1)
0xc10|                  0b                           |      .         |      [122]: 11 transition_type 0xc16-0xc17 (1)
0xc10|                     0c                        |       .        |      [123]: 12 transition_type 0xc17-0xc18 (1)
0xc10|                        0b                     |        .       |      [124]: 11 transition_type 0xc18-0xc19 (1)
0xc10|                           0c                  |         .      |      [125]: 12 transition_type 0xc19-0xc1a (1)
0xc10|                              0b               |          .     |      [126]: 11 transition_type 0xc1a-0xc1b (1)
0xc10|                                 0c            |           .    |      [127]: 12 transition_type 0xc1b-0xc1c (1)
0xc10|                                    0b         |            .   |      [128]: 11 transition_type 0xc1c-0xc1d (1)
0xc10|                                       0c      |             .  |      [129]: 12 transition_type 0xc1d-0xc1e (1)
0xc10|                                          0b   |              . |      [130]: 11 transition_type 0xc1e-0xc1f (1)
0xc10|                                             0c|               .|      [131]: 12 transition_type 0xc1f-0xc20 (1)
0xc20|0b                                             |.               |      [132]: 11 transition_type 0xc20-0xc21 (1)
0xc20|   0c                                          | .              |      [133]: 12 transition_type 0xc21-0xc22 (1)
0xc20|      0b                                       |  .             |      [134]: 11 transition_type 0xc22-0xc23 (1)
0xc20|         0c                                    |   .            |      [135]: 12 transition_type 0xc23-0xc24 (1)
0xc20|            0b                                 |    .           |      [136]: 11 transition_type 0xc24-0xc25 (1)
0xc20|               0c                              |     .          |      [137]: 12 transition_type 0xc25-0xc26 (1)
0xc20|                  0b                           |      .         |      [138]: 11 transition_type 0xc26-0xc27 (1)
0xc20|                     0c                        |       .        |      [139]: 12 transition_type 0xc27-0xc28 (1)
0xc20|                        0b                     |        .       |      [140]: 11 transition_type 0xc28-0xc29 (1)
0xc20|                           0c                  |         .      |      [141]: 12 transition_type 0xc29-0xc2a (1)
0xc20|                              0b               |          .     |      [142]: 11 transition_type 0xc2a-0xc2b (1)
0xc20|                                 0c            |           .    |      [143]: 12 transition_type 0xc2b-0xc2c (1)
0xc20|                                    0b         |            .   |      [144]: 11 transition_type 0xc2c-0xc2d (1)
0xc20|                                       0c      |             .  |      [145]: 12 transition_type 0xc2d-0xc2e (1)
0xc20|                                          0b   |              . |      [146]: 11 transition_type 0xc2e-0xc2f (1)
0xc20|                                             0c|               .|      [147]: 12 transition_type 0xc2f-0xc30 (1)
0xc30|0b                                             |.               |      [148]: 11 transition_type 0xc30-0xc31 (1)
0xc30|   0c                                          | .              |      [149]: 12 transition_type 0xc31-0xc32 (1)
0xc30|      0b                                       |  .             |      [150]: 11 transition_type 0xc32-0xc33 (1)
0xc30|         0c                                    |   .            |      [151]: 12 transition_type 0xc33-0xc34 (1)
0xc30|            0b                                 |    .           |      [152]: 11 transition_type 0xc34-0xc35 (1)
0xc30|               0c                              |     .          |      [153]: 12 transition_type 0xc35-0xc36 (1)
0xc30|                  0b                           |      .         |      [154]: 11 transition_type 0xc36-0xc37 (1)
0xc30|                     0c                        |       .        |      [155]: 12 transition_type 0xc37-0xc38 (1)
0xc30|                        0b                     |        .       |      [156]: 11 transition_type 0xc38-0xc39 (1)
0xc30|                           0c                  |         .      |      [157]: 12 transition_type 0xc39-0xc3a (1)
0xc30|                              0b               |          .     |      [158]: 11 transition_type 0xc3a-0xc3b (1)
0xc30|                                 0c            |           .    |      [159]: 12 transition_type 0xc3b-0xc3c (1)
0xc30|                                    0b         |            .   |      [160]: 11 transition_type 0xc3c-0xc3d (1)
0xc30|                                       0c      |             .  |      [161]: 12 transition_type 0xc3d-0xc3e (1)
0xc30|                                          0b   |              . |      [162]: 11 transition_type 0xc3e-0xc3f (1)
0xc30|                                             0c|               .|      [163]: 12 transition_type 0xc3f-0xc40 (1)
0xc40|0b                                             |.               |      [164]: 11 transition_type 0xc40-0xc41 (1)
0xc40|   0c                                          | .              |      [165]: 12 transition_type 0xc41-0xc42 (1)
0xc40|      0b                                       |  .             |      [166]: 11 transition_type 0xc42-0xc43 (1)
0xc40|         0c                                    |   .            |      [167]: 12 transition_type 0xc43-0xc44 (1)
0xc40|            0b                                 |    .           |      [168]: 11 transition_type 0xc44-0xc45 (1)
0xc40|               0c                              |     .          |      [169]: 12 transition_type 0xc45-0xc46 (1)
0xc40|                  0b                           |      .         |      [170]: 11 transition_type 0xc46-0xc47 (1)
0xc40|                     0c                        |       .        |      [171]: 12 transition_type 0xc47-0xc48 (1)
0xc40|                        0b                     |        .       |      [172]: 11 transition_type 0xc48-0xc49 (1)
0xc40|                           0c                  |         .      |      [173]: 12 transition_type 0xc49-0xc4a (1)
0xc40|                              0b               |          .     |      [174]: 11 transition_type 0xc4a-0xc4b (1)
0xc40|                                 0c            |           .    |      [175]: 12 transition_type 0xc4b-0xc4c (1)
0xc40|                                    0b         |            .   |      [176]: 11 transition_type 0xc4c-0xc4d (1)
0xc40|                                       0c      |             .  |      [177]: 12 transition_type 0xc4d-0xc4e (1)
0xc40|                                          0b   |              . |      [178]: 11 transition_type 0xc4e-0xc4f (1)
0xc40|                                             0c|               .|      [179]: 12 transition_type 0xc4f-0xc50 (1)
0xc50|0b                                             |.               |      [180]: 11 transition_type 0xc50-0xc51 (1)
0xc50|   0c                                          | .              |      [181]: 12 transition_type 0xc51-0xc52 (1)
0xc50|      0b                                       |  .             |      [182]: 11 transition_type 0xc52-0xc53 (1)
0xc50|         0c                                    |   .            |      [183]: 12 transition_type 0xc53-0xc54 (1)
0xc50|            0b                                 |    .           |      [184]: 11 transition_type 0xc54-0xc55 (1)
0xc50|               0c                              |     .          |      [185]: 12 transition_type 0xc55-0xc56 (1)
0xc50|                  0b                           |      .         |      [186]: 11 transition_type 0xc56-0xc57 (1)
0xc50|                     0c                        |       .        |      [187]: 12 transition_type 0xc57-0xc58 (1)
0xc50|                        0b                     |        .       |      [188]: 11 transition_type 0xc58-0xc59 (1)
0xc50|                           0c                  |         .      |      [189]: 12 transition_type 0xc59-0xc5a (1)
0xc50|                              0b               |          .     |      [190]: 11 transition_type 0xc5a-0xc5b (1)
0xc50|                                 0c            |           .    |      [191]: 12 transition_type 0xc5b-0xc5c (1)
0xc50|                                    0b         |            .   |      [192]: 11 transition_type 0xc5c-0xc5d (1)
0xc50|                                       0c      |             .  |      [193]: 12 transition_type 0xc5d-0xc5e (1)
0xc50|                                          0c   |              . |      [194]: 12 transition_type 0xc5e-0xc5f (1)
     |                                               |                |    local_time_type_records[0:13]: 0xc5f-0xcad (78)
     |                                               |                |      [0]{}: local_time_type 0xc5f-0xc65 (6)
0xc50|                                             ff|               .|        utoff: -4056 (valid) 0xc5f-0xc63 (4)
0xc60|ff f0 28                                       |..(             |
0xc60|         00                                    |   .            |        dst: 0 (valid) 0xc63-0xc64 (1)
0xc60|            00                                 |    .           |        idx: 0 (valid) 0xc64-0xc65 (1)
     |                                               |                |      [1]{}: local_time_type 0xc65-0xc6b (6)
0xc60|               ff ff f0 28                     |     ...(       |        utoff: -4056 (valid) 0xc65-0xc69 (4)
0xc60|                           00                  |         .      |        dst: 0 (valid) 0xc69-0xc6a (1)
0xc60|                              04               |          .     |        idx: 4 (valid) 0xc6a-0xc6b (1)
     |                                               |                |      [2]{}: local_time_type 0xc6b-0xc71 (6)
0xc60|                                 00 00 00 00   |           .... |        utoff: 0 (valid) 0xc6b-0xc6f (4)
0xc60|                                             01|               .|        dst: 1 (valid) 0xc6f-0xc70 (1)
0xc70|08                                             |.               |        idx: 8 (valid) 0xc70-0xc71 (1)
     |                                               |                |      [3]{}: local_time_type 0xc71-0xc77 (6)
0xc70|   ff ff f1 f0                                 | ....           |        utoff: -3600 (valid) 0xc71-0xc75 (4)
0xc70|               00                              |     .          |        dst: 0 (valid) 0xc75-0xc76 (1)
0xc70|                  0c                           |      .         |        idx: 12 (valid) 0xc76-0xc77 (1)
     |                                               |                |      [4]{}: local_time_type 0xc77-0xc7d (6)
0xc70|                     00 00 00 00               |       ....     |        utoff: 0 (valid) 0xc77-0xc7b (4)
0xc70|                                 01            |           .    |        dst: 1 (valid) 0xc7b-0xc7c (1)
0xc70|                                    08         |            .   |        idx: 8 (valid) 0xc7c-0xc7d (1)
     |                                               |                |      [5]{}: local_time_type 0xc7d-0xc83 (6)
0xc70|                                       ff ff f1|             ...|        utoff: -3600 (valid) 0xc7d-0xc81 (4)
0xc80|f0                                             |.               |
0xc80|   00                                          | .              |        dst: 0 (valid) 0xc81-0xc82 (1)
0xc80|      0c                                       |  .             |        idx: 12 (valid) 0xc82-0xc83 (1)
     |                                               |                |      [6]{}: local_time_type 0xc83-0xc89 (6)
0xc80|         ff ff f1 f0                           |   ....         |        utoff: -3600 (valid) 0xc83-0xc87 (4)
0xc80|                     00                        |       .        |        dst: 0 (valid) 0xc87-0xc88 (1)
0xc80|                        0c                     |        .       |        idx: 12 (valid) 0xc88-0xc89 (1)
     |                                               |                |      [7]{}: local_time_type 0xc89-0xc8f (6)
0xc80|                           00 00 0e 10         |         ....   |        utoff: 3600 (valid) 0xc89-0xc8d (4)
0xc80|                                       01      |             .  |        dst: 1 (valid) 0xc8d-0xc8e (1)
0xc80|                                          10   |              . |        idx: 16 (valid) 0xc8e-0xc8f (1)
     |                                               |                |      [8]{}: local_time_type 0xc8f-0xc95 (6)
0xc80|                                             00|               .|        utoff: 3600 (valid) 0xc8f-0xc93 (4)
0xc90|00 0e 10                                       |...             |
0xc90|         01                                    |   .            |        dst: 1 (valid) 0xc93-0xc94 (1)
0xc90|            14                                 |    .           |        idx: 20 (valid) 0xc94-0xc95 (1)
     |                                               |                |      [9]{}: local_time_type 0xc95-0xc9b (6)
0xc90|               00 00 00 00                     |     ....       |        utoff: 0 (valid) 0xc95-0xc99 (4)
0xc90|                           00                  |         .      |        dst: 0 (valid) 0xc99-0xc9a (1)
0xc90|                              19               |          .     |        idx: 25 (valid) 0xc9a-0xc9b (1)
     |                                               |                |      [10]{}: local_time_type 0xc9b-0xca1 (6)
0xc90|                                 00 00 00 00   |           .... |        utoff: 0 (valid) 0xc9b-0xc9f (4)
0xc90|                                             00|               .|        dst: 0 (valid) 0xc9f-0xca0 (1)
0xca0|19                                             |.               |        idx: 25 (valid) 0xca0-0xca1 (1)
     |                                               |                |      [11]{}: local_time_type 0xca1-0xca7 (6)
0xca0|   00 00 00 00                                 | ....           |        utoff: 0 (valid) 0xca1-0xca5 (4)
0xca0|               00                              |     .          |        dst: 0 (valid) 0xca5-0xca6 (1)
0xca0|                  19                           |      .         |        idx: 25 (valid) 0xca6-0xca7 (1)
     |                                               |                |      [12]{}: local_time_type 0xca7-0xcad (6)
0xca0|                     00 00 0e 10               |       ....     |        utoff: 3600 (valid) 0xca7-0xcab (4)
0xca0|                                 01            |           .    |        dst: 1 (valid) 0xcab-0xcac (1)
0xca0|                                    14         |            .   |        idx: 20 (valid) 0xcac-0xcad (1)
     |                                               |                |    time_zone_designations[0:7]: 0xcad-0xcca (29)
0xca0|                                       4c 4d 54|             LMT|      [0]: "LMT" time_zone_designation 0xcad-0xcb1 (4)
0xcb0|00                                             |.               |
0xcb0|   46 4d 54 00                                 | FMT.           |      [1]: "FMT" time_zone_designation 0xcb1-0xcb5 (4)
0xcb0|               2b 30 30 00                     |     +00.       |      [2]: "+00" time_zone_designation 0xcb5-0xcb9 (4)
0xcb0|                           2d 30 31 00         |         -01.   |      [3]: "-01" time_zone_designation 0xcb9-0xcbd (4)
0xcb0|                                       2b 30 31|             +01|      [4]: "+01" time_zone_designation 0xcbd-0xcc1 (4)
0xcc0|00                                             |.               |
0xcc0|   57 45 53 54 00                              | WEST.          |      [5]: "WEST" time_zone_designation 0xcc1-0xcc6 (5)
0xcc0|                  57 45 54 00                  |      WET.      |      [6]: "WET" time_zone_designation 0xcc6-0xcca (4)
     |                                               |                |    leap_second_records[0:27]: 0xcca-0xe0e (324)
     |                                               |                |      [0]{}: leap_second_record 0xcca-0xcd6 (12)
0xcc0|                              00 00 00 00 04 b2|          ......|        occur: "1972-07-01T00:00:00Z" (78796800) 0xcca-0xcd2 (8)
0xcd0|58 00                                          |X.              |
0xcd0|      00 00 00 01                              |  ....          |        corr: 1 0xcd2-0xcd6 (4)
     |                                               |                |      [1]{}: leap_second_record 0xcd6-0xce2 (12)
0xcd0|                  00 00 00 00 05 a4 ec 01      |      ........  |        occur: "1973-01-01T00:00:01Z" (94694401) 0xcd6-0xcde (8)
0xcd0|                                          00 00|              ..|        corr: 2 0xcde-0xce2 (4)
0xce0|00 02                                          |..              |
     |                                               |                |      [2]{}: leap_second_record 0xce2-0xcee (12)
0xce0|      00 00 00 00 07 86 1f 82                  |  ........      |        occur: "1974-01-01T00:00:02Z" (126230402) 0xce2-0xcea (8)
0xce0|                              00 00 00 03      |          ....  |        corr: 3 0xcea-0xcee (4)
     |                                               |                |      [3]{}: leap_second_record 0xcee-0xcfa (12)
0xce0|                                          00 00|              ..|        occur: "1975-01-01T00:00:03Z" (157766403) 0xcee-0xcf6 (8)
0xcf0|00 00 09 67 53 03                              |...gS.          |
0xcf0|                  00 00 00 04                  |      ....      |        corr: 4 0xcf6-0xcfa (4)
     |                                               |                |      [4]{}: leap_second_record 0xcfa-0xd06 (12)
0xcf0|                              00 00 00 00 0b 48|          .....H|        occur: "1976-01-01T00:00:04Z" (189302404) 0xcfa-0xd02 (8)
0xd00|86 84                                          |..              |
0xd00|      00 00 00 05                              |  ....          |        corr: 5 0xd02-0xd06 (4)
     |                                               |                |      [5]{}: leap_second_record 0xd06-0xd12 (12)
0xd00|                  00 00 00 00 0d 2b 0b 85      |      .....+..  |        occur: "1977-01-01T00:00:05Z" (220924805) 0xd06-0xd0e (8)
0xd00|                                          00 00|              ..|        corr: 6 0xd0e-0xd12 (4)
0xd10|00 06                                          |..              |
     |                                               |                |      [6]{}: leap_second_record 0xd12-0xd1e (12)
0xd10|      00 00 00 00 0f 0c 3f 06                  |  ......?.      |        occur: "1978-01-01T00:00:06Z" (252460806) 0xd12-0xd1a (8)
0xd10|                              00 00 00 07      |          ....  |        corr: 7 0xd1a-0xd1e (4)
     |                                               |                |      [7]{}: leap_second_record 0xd1e-0xd2a (12)
0xd10|                                          00 00|              ..|        occur: "1979-01-01T00:00:07Z" (283996807) 0xd1e-0xd26 (8)
0xd20|00 00 10 ed 72 87                              |....r.          |
0xd20|                  00 00 00 08                  |      ....      |        corr: 8 0xd26-0xd2a (4)
     |                                               |                |      [8]{}: leap_second_record 0xd2a-0xd36 (12)
0xd20|                              00 00 00 00 12 ce|          ......|        occur: "1980-01-01T00:00:08Z" (315532808) 0xd2a-0xd32 (8)
0xd30|a6 08                                          |..              |
0xd30|      00 00 00 09                              |  ....          |        corr: 9 0xd32-0xd36 (4)
     |                                               |                |      [9]{}: leap_second_record 0xd36-0xd42 (12)
0xd30|                  00 00 00 00 15 9f ca 89      |      ........  |        occur: "1981-07-01T00:00:09Z" (362793609) 0xd36-0xd3e (8)
0xd30|                                          00 00|              ..|        corr: 10 0xd3e-0xd42 (4)
0xd40|00 0a                                          |..              |
     |                                               |                |      [10]{}: leap_second_record 0xd42-0xd4e (12)
0xd40|      00 00 00 00 17 80 fe 0a                  |  ........      |        occur: "1982-07-01T00:00:10Z" (394329610) 0xd42-0xd4a (8)
0xd40|                              00 00 00 0b      |          ....  |        corr: 11 0xd4a-0xd4e (4)
     |                                               |                |      [11]{}: leap_second_record 0xd4e-0xd5a (12)
0xd40|                                          00 00|              ..|        occur: "1983-07-01T00:00:11Z" (425865611) 0xd4e-0xd56 (8)
0xd50|00 00 19 62 31 8b                              |...b1.          |
0xd50|                  00 00 00 0c                  |      ....      |        corr: 12 0xd56-0xd5a (4)
     |                                               |                |      [12]{}: leap_second_record 0xd5a-0xd66 (12)
0xd50|                              00 00 00 00 1d 25|          .....%|        occur: "1985-07-01T00:00:12Z" (489024012) 0xd5a-0xd62 (8)
0xd60|ea 0c                                          |..              |
0xd60|      00 00 00 0d                              |  ....          |        corr: 13 0xd62-0xd66 (4)
     |                                               |                |      [13]{}: leap_second_record 0xd66-0xd72 (12)
0xd60|                  00 00 00 00 21 da e5 0d      |      ....!...  |        occur: "1988-01-01T00:00:13Z" (567993613) 0xd66-0xd6e (8)
0xd60|                                          00 00|              ..|        corr: 14 0xd6e-0xd72 (4)
0xd70|00 0e                                          |..              |
     |                                               |                |      [14]{}: leap_second_record 0xd72-0xd7e (12)
0xd70|      00 00 00 00 25 9e 9d 8e                  |  ....%...      |        occur: "1990-01-01T00:00:14Z" (631152014) 0xd72-0xd7a (8)
0xd70|                              00 00 00 0f      |          ....  |        corr: 15 0xd7a-0xd7e (4)
     |                                               |                |      [15]{}: leap_second_record 0xd7e-0xd8a (12)
0xd70|                                          00 00|              ..|        occur: "1991-01-01T00:00:15Z" (662688015) 0xd7e-0xd86 (8)
0xd80|00 00 27 7f d1 0f                              |..'...          |
0xd80|                  00 00 00 10                  |      ....      |        corr: 16 0xd86-0xd8a (4)
     |                                               |                |      [16]{}: leap_second_record 0xd8a-0xd96 (12)
0xd80|                              00 00 00 00 2a 50|          ....*P|        occur: "1992-07-01T00:00:16Z" (709948816) 0xd8a-0xd92 (8)
0xd90|f5 90                                          |..              |
0xd90|      00 00 00 11                              |  ....          |        corr: 17 0xd92-0xd96 (4)
     |                                               |                |      [17]{}: leap_second_record 0xd96-0xda2 (12)
0xd90|                  00 00 00 00 2c 32 29 11      |      ....,2).  |        occur: "1993-07-01T00:00:17Z" (741484817) 0xd96-0xd9e (8)
0xd90|                                          00 00|              ..|        corr: 18 0xd9e-0xda2 (4)
0xda0|00 12                                          |..              |
     |                                               |                |      [18]{}: leap_second_record 0xda2-0xdae (12)
0xda0|      00 00 00 00 2e 13 5c 92                  |  ......\.      |        occur: "1994-07-01T00:00:18Z" (773020818) 0xda2-0xdaa (8)
0xda0|                              00 00 00 13      |          ....  |        corr: 19 0xdaa-0xdae (4)
     |                                               |                |      [19]{}: leap_second_record 0xdae-0xdba (12)
0xda0|                                          00 00|              ..|        occur: "1996-01-01T00:00:19Z" (820454419) 0xdae-0xdb6 (8)
0xdb0|00 00 30 e7 24 13                              |..0.$.          |
0xdb0|                  00 00 00 14                  |      ....      |        corr: 20 0xdb6-0xdba (4)
     |                                               |                |      [20]{}: leap_second_record 0xdba-0xdc6 (12)
0xdb0|                              00 00 00 00 33 b8|          ....3.|        occur: "1997-07-01T00:00:20Z" (867715220) 0xdba-0xdc2 (8)
0xdc0|48 94                                          |H.              |
0xdc0|      00 00 00 15                              |  ....          |        corr: 21 0xdc2-0xdc6 (4)
     |                                               |                |      [21]{}: leap_second_record 0xdc6-0xdd2 (12)
0xdc0|                  00 00 00 00 36 8c 10 15      |      ....6...  |        occur: "1999-01-01T00:00:21Z" (915148821) 0xdc6-0xdce (8)
0xdc0|                                          00 00|              ..|        corr: 22 0xdce-0xdd2 (4)
0xdd0|00 16                                          |..              |
     |                                               |                |      [22]{}: leap_second_record 0xdd2-0xdde (12)
0xdd0|      00 00 00 00 43 b7 1b 96                  |  ....C...      |        occur: "2006-01-01T00:00:22Z" (1136073622) 0xdd2-0xdda (8)
0xdd0|                              00 00 00 17      |          ....  |        corr: 23 0xdda-0xdde (4)
     |                                               |                |      [23]{}: leap_second_record 0xdde-0xdea (12)
0xdd0|                                          00 00|              ..|        occur: "2009-01-01T00:00:23Z" (1230768023) 0xdde-0xde6 (8)
0xde0|00 00 49 5c 07 97                              |..I\..          |
0xde0|                  00 00 00 18                  |      ....      |        corr: 24 0xde6-0xdea (4)
     |                                               |                |      [24]{}: leap_second_record 0xdea-0xdf6 (12)
0xde0|                              00 00 00 00 4f ef|          ....O.|        occur: "2012-07-01T00:00:24Z" (1341100824) 0xdea-0xdf2 (8)
0xdf0|93 18                                          |..              |
0xdf0|      00 00 00 19                              |  ....          |        corr: 25 0xdf2-0xdf6 (4)
     |                                               |                |      [25]{}: leap_second_record 0xdf6-0xe02 (12)
0xdf0|                  00 00 00 00 55 93 2d 99      |      ....U.-.  |        occur: "2015-07-01T00:00:25Z" (1435708825) 0xdf6-0xdfe (8)
0xdf0|                                          00 00|              ..|        corr: 26 0xdfe-0xe02 (4)
0xe00|00 1a                                          |..              |
     |                                               |                |      [26]{}: leap_second_record 0xe02-0xe0e (12)
0xe00|      00 00 00 00 58 68 46 9a                  |  ....XhF.      |        occur: "2017-01-01T00:00:26Z" (1483228826) 0xe02-0xe0a (8)
0xe00|                              00 00 00 1b      |          ....  |        corr: 27 0xe0a-0xe0e (4)
     |                                               |                |    standard_wall_indicators[0:13]: 0xe0e-0xe1b (13)
0xe00|                                          00   |              . |      [0]: 0 standard_wall_indicator (valid) 0xe0e-0xe0f (1)
0xe00|                                             00|               .|      [1]: 0 standard_wall_indicator (valid) 0xe0f-0xe10 (1)
0xe10|00                                             |.               |      [2]: 0 standard_wall_indicator (valid) 0xe10-0xe11 (1)
0xe10|   00                                          | .              |      [3]: 0 standard_wall_indicator (valid) 0xe11-0xe12 (1)
0xe10|      01                                       |  .             |      [4]: 1 standard_wall_indicator (valid) 0xe12-0xe13 (1)
0xe10|         01                                    |   .            |      [5]: 1 standard_wall_indicator (valid) 0xe13-0xe14 (1)
0xe10|            01                                 |    .           |      [6]: 1 standard_wall_indicator (valid) 0xe14-0xe15 (1)
0xe10|               01                              |     .          |      [7]: 1 standard_wall_indicator (valid) 0xe15-0xe16 (1)
0xe10|                  01                           |      .         |      [8]: 1 standard_wall_indicator (valid) 0xe16-0xe17 (1)
0xe10|                     01                        |       .        |      [9]: 1 standard_wall_indicator (valid) 0xe17-0xe18 (1)
0xe10|                        00                     |        .       |      [10]: 0 standard_wall_indicator (valid) 0xe18-0xe19 (1)
0xe10|                           01                  |         .      |      [11]: 1 standard_wall_indicator (valid) 0xe19-0xe1a (1)
0xe10|                              01               |          .     |      [12]: 1 standard_wall_indicator (valid) 0xe1a-0xe1b (1)
     |                                               |                |    ut_local_indicators[0:13]: 0xe1b-0xe28 (13)
0xe10|                                 00            |           .    |      [0]: 0 ut_local_indicator (valid) 0xe1b-0xe1c (1)
0xe10|                                    00         |            .   |      [1]: 0 ut_local_indicator (valid) 0xe1c-0xe1d (1)
0xe10|                                       00      |             .  |      [2]: 0 ut_local_indicator (valid) 0xe1d-0xe1e (1)
0xe10|                                          00   |              . |      [3]: 0 ut_local_indicator (valid) 0xe1e-0xe1f (1)
0xe10|                                             00|               .|      [4]: 0 ut_local_indicator (valid) 0xe1f-0xe20 (1)
0xe20|00                                             |.               |      [5]: 0 ut_local_indicator (valid) 0xe20-0xe21 (1)
0xe20|   01                                          | .              |      [6]: 1 ut_local_indicator (valid) 0xe21-0xe22 (1)
0xe20|      00                                       |  .             |      [7]: 0 ut_local_indicator (valid) 0xe22-0xe23 (1)
0xe20|         00                                    |   .            |      [8]: 0 ut_local_indicator (valid) 0xe23-0xe24 (1)
0xe20|            00                                 |    .           |      [9]: 0 ut_local_indicator (valid) 0xe24-0xe25 (1)
0xe20|               00                              |     .          |      [10]: 0 ut_local_indicator (valid) 0xe25-0xe26 (1)
0xe20|                  01                           |      .         |      [11]: 1 ut_local_indicator (valid) 0xe26-0xe27 (1)
0xe20|                     01                        |       .        |      [12]: 1 ut_local_indicator (valid) 0xe27-0xe28 (1)
     |                                               |                |  footer{}: 0xe28-0xe2a (2)
0xe20|                        0a                     |        .       |    nl1: 10 (valid) 0xe28-0xe29 (1)
     |                                               |                |    tz_string: "" 0xe29-0xe29 (0)
0xe20|                           0a|                 |         .|     |    nl2: 10 (valid) 0xe29-0xe2a (1)
