$ fq -d tzif dv Madrid
     |00 01 02 03 04 05 06 07 08 09 0a 0b 0c 0d 0e 0f|0123456789abcdef|.{}: Madrid (tzif) 0x0-0xa35.7 (2614)
     |                                               |                |  v1header{}: 0x0-0x2b.7 (44)
0x000|54 5a 69 66                                    |TZif            |    magic: 0x545a6966 (valid) 0x0-0x3.7 (4)
0x000|            32                                 |    2           |    ver: "2" (0x32) (valid) 0x4-0x4.7 (1)
0x000|               00 00 00 00 00 00 00 00 00 00 00|     ...........|    reserved: raw bits 0x5-0x13.7 (15)
0x010|00 00 00 00                                    |....            |
0x010|            00 00 00 0b                        |    ....        |    isutcnt: 11 0x14-0x17.7 (4)
0x010|                        00 00 00 0b            |        ....    |    isstdcnt: 11 0x18-0x1b.7 (4)
0x010|                                    00 00 00 00|            ....|    leapcnt: 0 0x1c-0x1f.7 (4)
0x020|00 00 00 a2                                    |....            |    timecnt: 162 0x20-0x23.7 (4)
0x020|            00 00 00 0b                        |    ....        |    typecnt: 11 0x24-0x27.7 (4)
0x020|                        00 00 00 1b            |        ....    |    charcnt: 27 0x28-0x2b.7 (4)
     |                                               |                |  v1datablock{}: 0x2c-0x3c8.7 (925)
     |                                               |                |    transition_times[0:162]: 0x2c-0x2b3.7 (648)
0x020|                                    80 00 00 00|            ....|      [0]: "1901-12-13T20:45:52Z" (-2147483648) transition_time 0x2c-0x2f.7 (4)
0x030|9e ba c5 f0                                    |....            |      [1]: "1918-04-15T23:00:00Z" (-1631926800) transition_time 0x30-0x33.7 (4)
0x030|            9f a0 39 00                        |    ..9.        |      [2]: "1918-10-07T00:00:00Z" (-1616889600) transition_time 0x34-0x37.7 (4)
0x030|                        a0 90 1b f0            |        ....    |      [3]: "1919-04-06T23:00:00Z" (-1601168400) transition_time 0x38-0x3b.7 (4)
0x030|                                    a1 81 6c 80|            ..l.|      [4]: "1919-10-07T00:00:00Z" (-1585353600) transition_time 0x3c-0x3f.7 (4)
0x040|aa 05 ef 70                                    |...p            |      [5]: "1924-04-16T23:00:00Z" (-1442451600) transition_time 0x40-0x43.7 (4)
0x040|            aa e7 6e 00                        |    ..n.        |      [6]: "1924-10-05T00:00:00Z" (-1427673600) transition_time 0x44-0x47.7 (4)
0x040|                        ad c9 a7 f0            |        ....    |      [7]: "1926-04-17T23:00:00Z" (-1379293200) transition_time 0x48-0x4b.7 (4)
0x040|                                    ae a7 32 00|            ..2.|      [8]: "1926-10-03T00:00:00Z" (-1364774400) transition_time 0x4c-0x4f.7 (4)
0x050|af a0 4f 70                                    |..Op            |      [9]: "1927-04-09T23:00:00Z" (-1348448400) transition_time 0x50-0x53.7 (4)
0x050|            b0 87 14 00                        |    ....        |      [10]: "1927-10-02T00:00:00Z" (-1333324800) transition_time 0x54-0x57.7 (4)
0x050|                        b1 89 7a 00            |        ..z.    |      [11]: "1928-04-15T00:00:00Z" (-1316390400) transition_time 0x58-0x5b.7 (4)
0x050|                                    b2 70 30 80|            .p0.|      [12]: "1928-10-07T00:00:00Z" (-1301270400) transition_time 0x5c-0x5f.7 (4)
0x060|b3 72 88 70                                    |.r.p            |      [13]: "1929-04-20T23:00:00Z" (-1284339600) transition_time 0x60-0x63.7 (4)
0x060|            b4 50 12 80                        |    .P..        |      [14]: "1929-10-06T00:00:00Z" (-1269820800) transition_time 0x64-0x67.7 (4)
0x060|                        c2 c9 ec f0            |        ....    |      [15]: "1937-06-16T23:00:00Z" (-1026954000) transition_time 0x68-0x6b.7 (4)
0x060|                                    c3 58 5d 00|            .X].|      [16]: "1937-10-03T00:00:00Z" (-1017619200) transition_time 0x6c-0x6f.7 (4)
0x070|c4 48 3f f0                                    |.H?.            |      [17]: "1938-04-02T23:00:00Z" (-1001898000) transition_time 0x70-0x73.7 (4)
0x070|            c4 6d 1b e0                        |    .m..        |      [18]: "1938-04-30T22:00:00Z" (-999482400) transition_time 0x74-0x77.7 (4)
0x070|                        c5 39 74 60            |        .9t`    |      [19]: "1938-10-02T22:00:00Z" (-986090400) transition_time 0x78-0x7b.7 (4)
0x070|                                    c7 21 5b 80|            .![.|      [20]: "1939-10-08T00:00:00Z" (-954115200) transition_time 0x7c-0x7f.7 (4)
0x080|c7 f5 8e f0                                    |....            |      [21]: "1940-03-16T23:00:00Z" (-940208400) transition_time 0x80-0x83.7 (4)
0x080|            cb f5 de 60                        |    ...`        |      [22]: "1942-05-02T22:00:00Z" (-873079200) transition_time 0x84-0x87.7 (4)
0x080|                        cc 95 71 f0            |        ..q.    |      [23]: "1942-08-31T23:00:00Z" (-862621200) transition_time 0x88-0x8b.7 (4)
0x080|                                    cd c3 4b 60|            ..K`|      [24]: "1943-04-17T22:00:00Z" (-842839200) transition_time 0x8c-0x8f.7 (4)
0x090|ce a0 d5 70                                    |...p            |      [25]: "1943-10-02T23:00:00Z" (-828320400) transition_time 0x90-0x93.7 (4)
0x090|            cf a3 2d 60                        |    ..-`        |      [26]: "1944-04-15T22:00:00Z" (-811389600) transition_time 0x94-0x97.7 (4)
0x090|                        d0 80 b7 70            |        ...p    |      [27]: "1944-09-30T23:00:00Z" (-796870800) transition_time 0x98-0x9b.7 (4)
0x090|                                    d1 83 0f 60|            ...`|      [28]: "1945-04-14T22:00:00Z" (-779940000) transition_time 0x9c-0x9f.7 (4)
0x0a0|d2 60 99 70                                    |.`.p            |      [29]: "1945-09-29T23:00:00Z" (-765421200) transition_time 0xa0-0xa3.7 (4)
0x0a0|            d3 62 f1 60                        |    .b.`        |      [30]: "1946-04-13T22:00:00Z" (-748490400) transition_time 0xa4-0xa7.7 (4)
0x0a0|                        d4 40 7b 70            |        .@{p    |      [31]: "1946-09-28T23:00:00Z" (-733971600) transition_time 0xa8-0xab.7 (4)
0x0a0|                                    d9 1e 46 e0|            ..F.|      [32]: "1949-04-30T22:00:00Z" (-652327200) transition_time 0xac-0xaf.7 (4)
0x0b0|d9 e9 5b f0                                    |..[.            |      [33]: "1949-10-01T23:00:00Z" (-639018000) transition_time 0xb0-0xb3.7 (4)
0x0b0|            08 0d cd e0                        |    ....        |      [34]: "1974-04-13T22:00:00Z" (135122400) transition_time 0xb4-0xb7.7 (4)
0x0b0|                        08 f4 92 70            |        ...p    |      [35]: "1974-10-05T23:00:00Z" (150246000) transition_time 0xb8-0xbb.7 (4)
0x0b0|                                    09 ed af e0|            ....|      [36]: "1975-04-12T22:00:00Z" (166572000) transition_time 0xbc-0xbf.7 (4)
0x0c0|0a d4 74 70                                    |..tp            |      [37]: "1975-10-04T23:00:00Z" (181695600) transition_time 0xc0-0xc3.7 (4)
0x0c0|            0b bb 1c e0                        |    ....        |      [38]: "1976-03-27T22:00:00Z" (196812000) transition_time 0xc4-0xc7.7 (4)
0x0c0|                        0c ab 1b f0            |        ....    |      [39]: "1976-09-25T23:00:00Z" (212540400) transition_time 0xc8-0xcb.7 (4)
0x0c0|                                    0d a4 39 60|            ..9`|      [40]: "1977-04-02T22:00:00Z" (228866400) transition_time 0xcc-0xcf.7 (4)
0x0d0|0e 8a fd f0                                    |....            |      [41]: "1977-09-24T23:00:00Z" (243990000) transition_time 0xd0-0xd3.7 (4)
0x0d0|            0f 84 45 90                        |    ..E.        |      [42]: "1978-04-02T01:00:00Z" (260326800) transition_time 0xd4-0xd7.7 (4)
0x0d0|                        10 74 36 90            |        .t6.    |      [43]: "1978-10-01T01:00:00Z" (276051600) transition_time 0xd8-0xdb.7 (4)
0x0d0|                                    11 64 27 90|            .d'.|      [44]: "1979-04-01T01:00:00Z" (291776400) transition_time 0xdc-0xdf.7 (4)
0x0e0|12 54 18 90                                    |.T..            |      [45]: "1979-09-30T01:00:00Z" (307501200) transition_time 0xe0-0xe3.7 (4)
0x0e0|            13 4d 44 10                        |    .MD.        |      [46]: "1980-04-06T01:00:00Z" (323830800) transition_time 0xe4-0xe7.7 (4)
0x0e0|                        14 33 fa 90            |        .3..    |      [47]: "1980-09-28T01:00:00Z" (338950800) transition_time 0xe8-0xeb.7 (4)
0x0e0|                                    15 23 eb 90|            .#..|      [48]: "1981-03-29T01:00:00Z" (354675600) transition_time 0xec-0xef.7 (4)
0x0f0|16 13 dc 90                                    |....            |      [49]: "1981-09-27T01:00:00Z" (370400400) transition_time 0xf0-0xf3.7 (4)
0x0f0|            17 03 cd 90                        |    ....        |      [50]: "1982-03-28T01:00:00Z" (386125200) transition_time 0xf4-0xf7.7 (4)
0x0f0|                        17 f3 be 90            |        ....    |      [51]: "1982-09-26T01:00:00Z" (401850000) transition_time 0xf8-0xfb.7 (4)
0x0f0|                                    18 e3 af 90|            ....|      [52]: "1983-03-27T01:00:00Z" (417574800) transition_time 0xfc-0xff.7 (4)
0x100|19 d3 a0 90                                    |....            |      [53]: "1983-09-25T01:00:00Z" (433299600) transition_time 0x100-0x103.7 (4)
0x100|            1a c3 91 90                        |    ....        |      [54]: "1984-03-25T01:00:00Z" (449024400) transition_time 0x104-0x107.7 (4)
0x100|                        1b bc bd 10            |        ....    |      [55]: "1984-09-30T01:00:00Z" (465354000) transition_time 0x108-0x10b.7 (4)
0x100|                                    1c ac ae 10|            ....|      [56]: "1985-03-31T01:00:00Z" (481078800) transition_time 0x10c-0x10f.7 (4)
0x110|1d 9c 9f 10                                    |....            |      [57]: "1985-09-29T01:00:00Z" (496803600) transition_time 0x110-0x113.7 (4)
0x110|            1e 8c 90 10                        |    ....        |      [58]: "1986-03-30T01:00:00Z" (512528400) transition_time 0x114-0x117.7 (4)
0x110|                        1f 7c 81 10            |        .|..    |      [59]: "1986-09-28T01:00:00Z" (528253200) transition_time 0x118-0x11b.7 (4)
0x110|                                    20 6c 72 10|             lr.|      [60]: "1987-03-29T01:00:00Z" (543978000) transition_time 0x11c-0x11f.7 (4)
0x120|21 5c 63 10                                    |!\c.            |      [61]: "1987-09-27T01:00:00Z" (559702800) transition_time 0x120-0x123.7 (4)
0x120|            22 4c 54 10                        |    "LT.        |      [62]: "1988-03-27T01:00:00Z" (575427600) transition_time 0x124-0x127.7 (4)
0x120|                        23 3c 45 10            |        #<E.    |      [63]: "1988-09-25T01:00:00Z" (591152400) transition_time 0x128-0x12b.7 (4)
0x120|                                    24 2c 36 10|            $,6.|      [64]: "1989-03-26T01:00:00Z" (606877200) transition_time 0x12c-0x12f.7 (4)
0x130|25 1c 27 10                                    |%.'.            |      [65]: "1989-09-24T01:00:00Z" (622602000) transition_time 0x130-0x133.7 (4)
0x130|            26 0c 18 10                        |    &...        |      [66]: "1990-03-25T01:00:00Z" (638326800) transition_time 0x134-0x137.7 (4)
0x130|                        27 05 43 90            |        '.C.    |      [67]: "1990-09-30T01:00:00Z" (654656400) transition_time 0x138-0x13b.7 (4)
0x130|                                    27 f5 34 90|            '.4.|      [68]: "1991-03-31T01:00:00Z" (670381200) transition_time 0x13c-0x13f.7 (4)
0x140|28 e5 25 90                                    |(.%.            |      [69]: "1991-09-29T01:00:00Z" (686106000) transition_time 0x140-0x143.7 (4)
0x140|            29 d5 16 90                        |    )...        |      [70]: "1992-03-29T01:00:00Z" (701830800) transition_time 0x144-0x147.7 (4)
0x140|                        2a c5 07 90            |        *...    |      [71]: "1992-09-27T01:00:00Z" (717555600) transition_time 0x148-0x14b.7 (4)
0x140|                                    2b b4 f8 90|            +...|      [72]: "1993-03-28T01:00:00Z" (733280400) transition_time 0x14c-0x14f.7 (4)
0x150|2c a4 e9 90                                    |,...            |      [73]: "1993-09-26T01:00:00Z" (749005200) transition_time 0x150-0x153.7 (4)
0x150|            2d 94 da 90                        |    -...        |      [74]: "1994-03-27T01:00:00Z" (764730000) transition_time 0x154-0x157.7 (4)
0x150|                        2e 84 cb 90            |        ....    |      [75]: "1994-09-25T01:00:00Z" (780454800) transition_time 0x158-0x15b.7 (4)
0x150|                                    2f 74 bc 90|            /t..|      [76]: "1995-03-26T01:00:00Z" (796179600) transition_time 0x15c-0x15f.7 (4)
0x160|30 64 ad 90                                    |0d..            |      [77]: "1995-09-24T01:00:00Z" (811904400) transition_time 0x160-0x163.7 (4)
0x160|            31 5d d9 10                        |    1]..        |      [78]: "1996-03-31T01:00:00Z" (828234000) transition_time 0x164-0x167.7 (4)
0x160|                        32 72 b4 10            |        2r..    |      [79]: "1996-10-27T01:00:00Z" (846378000) transition_time 0x168-0x16b.7 (4)
0x160|                                    33 3d bb 10|            3=..|      [80]: "1997-03-30T01:00:00Z" (859683600) transition_time 0x16c-0x16f.7 (4)
0x170|34 52 96 10                                    |4R..            |      [81]: "1997-10-26T01:00:00Z" (877827600) transition_time 0x170-0x173.7 (4)
0x170|            35 1d 9d 10                        |    5...        |      [82]: "1998-03-29T01:00:00Z" (891133200) transition_time 0x174-0x177.7 (4)
0x170|                        36 32 78 10            |        62x.    |      [83]: "1998-10-25T01:00:00Z" (909277200) transition_time 0x178-0x17b.7 (4)
0x170|                                    36 fd 7f 10|            6...|      [84]: "1999-03-28T01:00:00Z" (922582800) transition_time 0x17c-0x17f.7 (4)
0x180|38 1b 94 90                                    |8...            |      [85]: "1999-10-31T01:00:00Z" (941331600) transition_time 0x180-0x183.7 (4)
0x180|            38 dd 61 10                        |    8.a.        |      [86]: "2000-03-26T01:00:00Z" (954032400) transition_time 0x184-0x187.7 (4)
0x180|                        39 fb 76 90            |        9.v.    |      [87]: "2000-10-29T01:00:00Z" (972781200) transition_time 0x188-0x18b.7 (4)
0x180|                                    3a bd 43 10|            :.C.|      [88]: "2001-03-25T01:00:00Z" (985482000) transition_time 0x18c-0x18f.7 (4)
0x190|3b db 58 90                                    |;.X.            |      [89]: "2001-10-28T01:00:00Z" (1004230800) transition_time 0x190-0x193.7 (4)
0x190|            3c a6 5f 90                        |    <._.        |      [90]: "2002-03-31T01:00:00Z" (1017536400) transition_time 0x194-0x197.7 (4)
0x190|                        3d bb 3a 90            |        =.:.    |      [91]: "2002-10-27T01:00:00Z" (1035680400) transition_time 0x198-0x19b.7 (4)
0x190|                                    3e 86 41 90|            >.A.|      [92]: "2003-03-30T01:00:00Z" (1048986000) transition_time 0x19c-0x19f.7 (4)
0x1a0|3f 9b 1c 90                                    |?...            |      [93]: "2003-10-26T01:00:00Z" (1067130000) transition_time 0x1a0-0x1a3.7 (4)
0x1a0|            40 66 23 90                        |    @f#.        |      [94]: "2004-03-28T01:00:00Z" (1080435600) transition_time 0x1a4-0x1a7.7 (4)
0x1a0|                        41 84 39 10            |        A.9.    |      [95]: "2004-10-31T01:00:00Z" (1099184400) transition_time 0x1a8-0x1ab.7 (4)
0x1a0|                                    42 46 05 90|            BF..|      [96]: "2005-03-27T01:00:00Z" (1111885200) transition_time 0x1ac-0x1af.7 (4)
0x1b0|43 64 1b 10                                    |Cd..            |      [97]: "2005-10-30T01:00:00Z" (1130634000) transition_time 0x1b0-0x1b3.7 (4)
0x1b0|            44 25 e7 90                        |    D%..        |      [98]: "2006-03-26T01:00:00Z" (1143334800) transition_time 0x1b4-0x1b7.7 (4)
0x1b0|                        45 43 fd 10            |        EC..    |      [99]: "2006-10-29T01:00:00Z" (1162083600) transition_time 0x1b8-0x1bb.7 (4)
0x1b0|                                    46 05 c9 90|            F...|      [100]: "2007-03-25T01:00:00Z" (1174784400) transition_time 0x1bc-0x1bf.7 (4)
0x1c0|47 23 df 10                                    |G#..            |      [101]: "2007-10-28T01:00:00Z" (1193533200) transition_time 0x1c0-0x1c3.7 (4)
0x1c0|            47 ee e6 10                        |    G...        |      [102]: "2008-03-30T01:00:00Z" (1206838800) transition_time 0x1c4-0x1c7.7 (4)
0x1c0|                        49 03 c1 10            |        I...    |      [103]: "2008-10-26T01:00:00Z" (1224982800) transition_time 0x1c8-0x1cb.7 (4)
0x1c0|                                    49 ce c8 10|            I...|      [104]: "2009-03-29T01:00:00Z" (1238288400) transition_time 0x1cc-0x1cf.7 (4)
0x1d0|4a e3 a3 10                                    |J...            |      [105]: "2009-10-25T01:00:00Z" (1256432400) transition_time 0x1d0-0x1d3.7 (4)
0x1d0|            4b ae aa 10                        |    K...        |      [106]: "2010-03-28T01:00:00Z" (1269738000) transition_time 0x1d4-0x1d7.7 (4)
0x1d0|                        4c cc bf 90            |        L...    |      [107]: "2010-10-31T01:00:00Z" (1288486800) transition_time 0x1d8-0x1db.7 (4)
0x1d0|                                    4d 8e 8c 10|            M...|      [108]: "2011-03-27T01:00:00Z" (1301187600) transition_time 0x1dc-0x1df.7 (4)
0x1e0|4e ac a1 90                                    |N...            |      [109]: "2011-10-30T01:00:00Z" (1319936400) transition_time 0x1e0-0x1e3.7 (4)
0x1e0|            4f 6e 6e 10                        |    Onn.        |      [110]: "2012-03-25T01:00:00Z" (1332637200) transition_time 0x1e4-0x1e7.7 (4)
0x1e0|                        50 8c 83 90            |        P...    |      [111]: "2012-10-28T01:00:00Z" (1351386000) transition_time 0x1e8-0x1eb.7 (4)
0x1e0|                                    51 57 8a 90|            QW..|      [112]: "2013-03-31T01:00:00Z" (1364691600) transition_time 0x1ec-0x1ef.7 (4)
0x1f0|52 6c 65 90                                    |Rle.            |      [113]: "2013-10-27T01:00:00Z" (1382835600) transition_time 0x1f0-0x1f3.7 (4)
0x1f0|            53 37 6c 90                        |    S7l.        |      [114]: "2014-03-30T01:00:00Z" (1396141200) transition_time 0x1f4-0x1f7.7 (4)
0x1f0|                        54 4c 47 90            |        TLG.    |      [115]: "2014-10-26T01:00:00Z" (1414285200) transition_time 0x1f8-0x1fb.7 (4)
0x1f0|                                    55 17 4e 90|            U.N.|      [116]: "2015-03-29T01:00:00Z" (1427590800) transition_time 0x1fc-0x1ff.7 (4)
0x200|56 2c 29 90                                    |V,).            |      [117]: "2015-10-25T01:00:00Z" (1445734800) transition_time 0x200-0x203.7 (4)
0x200|            56 f7 30 90                        |    V.0.        |      [118]: "2016-03-27T01:00:00Z" (1459040400) transition_time 0x204-0x207.7 (4)
0x200|                        58 15 46 10            |        X.F.    |      [119]: "2016-10-30T01:00:00Z" (1477789200) transition_time 0x208-0x20b.7 (4)
0x200|                                    58 d7 12 90|            X...|      [120]: "2017-03-26T01:00:00Z" (1490490000) transition_time 0x20c-0x20f.7 (4)
0x210|59 f5 28 10                                    |Y.(.            |      [121]: "2017-10-29T01:00:00Z" (1509238800) transition_time 0x210-0x213.7 (4)
0x210|            5a b6 f4 90                        |    Z...        |      [122]: "2018-03-25T01:00:00Z" (1521939600) transition_time 0x214-0x217.7 (4)
0x210|                        5b d5 0a 10            |        [...    |      [123]: "2018-10-28T01:00:00Z" (1540688400) transition_time 0x218-0x21b.7 (4)
0x210|                                    5c a0 11 10|            \...|      [124]: "2019-03-31T01:00:00Z" (1553994000) transition_time 0x21c-0x21f.7 (4)
0x220|5d b4 ec 10                                    |]...            |      [125]: "2019-10-27T01:00:00Z" (1572138000) transition_time 0x220-0x223.7 (4)
0x220|            5e 7f f3 10                        |    ^...        |      [126]: "2020-03-29T01:00:00Z" (1585443600) transition_time 0x224-0x227.7 (4)
0x220|                        5f 94 ce 10            |        _...    |      [127]: "2020-10-25T01:00:00Z" (1603587600) transition_time 0x228-0x22b.7 (4)
0x220|                                    60 5f d5 10|            `_..|      [128]: "2021-03-28T01:00:00Z" (1616893200) transition_time 0x22c-0x22f.7 (4)
0x230|61 7d ea 90                                    |a}..            |      [129]: "2021-10-31T01:00:00Z" (1635642000) transition_time 0x230-0x233.7 (4)
0x230|            62 3f b7 10                        |    b?..        |      [130]: "2022-03-27T01:00:00Z" (1648342800) transition_time 0x234-0x237.7 (4)
0x230|                        63 5d cc 90            |        c]..    |      [131]: "2022-10-30T01:00:00Z" (1667091600) transition_time 0x238-0x23b.7 (4)
0x230|                                    64 1f 99 10|            d...|      [132]: "2023-03-26T01:00:00Z" (1679792400) transition_time 0x23c-0x23f.7 (4)
0x240|65 3d ae 90                                    |e=..            |      [133]: "2023-10-29T01:00:00Z" (1698541200) transition_time 0x240-0x243.7 (4)
0x240|            66 08 b5 90                        |    f...        |      [134]: "2024-03-31T01:00:00Z" (1711846800) transition_time 0x244-0x247.7 (4)
0x240|                        67 1d 90 90            |        g...    |      [135]: "2024-10-27T01:00:00Z" (1729990800) transition_time 0x248-0x24b.7 (4)
0x240|                                    67 e8 97 90|            g...|      [136]: "2025-03-30T01:00:00Z" (1743296400) transition_time 0x24c-0x24f.7 (4)
0x250|68 fd 72 90                                    |h.r.            |      [137]: "2025-10-26T01:00:00Z" (1761440400) transition_time 0x250-0x253.7 (4)
0x250|            69 c8 79 90                        |    i.y.        |      [138]: "2026-03-29T01:00:00Z" (1774746000) transition_time 0x254-0x257.7 (4)
0x250|                        6a dd 54 90            |        j.T.    |      [139]: "2026-10-25T01:00:00Z" (1792890000) transition_time 0x258-0x25b.7 (4)
0x250|                                    6b a8 5b 90|            k.[.|      [140]: "2027-03-28T01:00:00Z" (1806195600) transition_time 0x25c-0x25f.7 (4)
0x260|6c c6 71 10                                    |l.q.            |      [141]: "2027-10-31T01:00:00Z" (1824944400) transition_time 0x260-0x263.7 (4)
0x260|            6d 88 3d 90                        |    m.=.        |      [142]: "2028-03-26T01:00:00Z" (1837645200) transition_time 0x264-0x267.7 (4)
0x260|                        6e a6 53 10            |        n.S.    |      [143]: "2028-10-29T01:00:00Z" (1856394000) transition_time 0x268-0x26b.7 (4)
0x260|                                    6f 68 1f 90|            oh..|      [144]: "2029-03-25T01:00:00Z" (1869094800) transition_time 0x26c-0x26f.7 (4)
0x270|70 86 35 10                                    |p.5.            |      [145]: "2029-10-28T01:00:00Z" (1887843600) transition_time 0x270-0x273.7 (4)
0x270|            71 51 3c 10                        |    qQ<.        |      [146]: "2030-03-31T01:00:00Z" (1901149200) transition_time 0x274-0x277.7 (4)
0x270|                        72 66 17 10            |        rf..    |      [147]: "2030-10-27T01:00:00Z" (1919293200) transition_time 0x278-0x27b.7 (4)
0x270|                                    73 31 1e 10|            s1..|      [148]: "2031-03-30T01:00:00Z" (1932598800) transition_time 0x27c-0x27f.7 (4)
0x280|74 45 f9 10                                    |tE..            |      [149]: "2031-10-26T01:00:00Z" (1950742800) transition_time 0x280-0x283.7 (4)
0x280|            75 11 00 10                        |    u...        |      [150]: "2032-03-28T01:00:00Z" (1964048400) transition_time 0x284-0x287.7 (4)
0x280|                        76 2f 15 90            |        v/..    |      [151]: "2032-10-31T01:00:00Z" (1982797200) transition_time 0x288-0x28b.7 (4)
0x280|                                    76 f0 e2 10|            v...|      [152]: "2033-03-27T01:00:00Z" (1995498000) transition_time 0x28c-0x28f.7 (4)
0x290|78 0e f7 90                                    |x...            |      [153]: "2033-10-30T01:00:00Z" (2014246800) transition_time 0x290-0x293.7 (4)
0x290|            78 d0 c4 10                        |    x...        |      [154]: "2034-03-26T01:00:00Z" (2026947600) transition_time 0x294-0x297.7 (4)
0x290|                        79 ee d9 90            |        y...    |      [155]: "2034-10-29T01:00:00Z" (2045696400) transition_time 0x298-0x29b.7 (4)
0x290|                                    7a b0 a6 10|            z...|      [156]: "2035-03-25T01:00:00Z" (2058397200) transition_time 0x29c-0x29f.7 (4)
0x2a0|7b ce bb 90                                    |{...            |      [157]: "2035-10-28T01:00:00Z" (2077146000) transition_time 0x2a0-0x2a3.7 (4)
0x2a0|            7c 99 c2 90                        |    |...        |      [158]: "2036-03-30T01:00:00Z" (2090451600) transition_time 0x2a4-0x2a7.7 (4)
0x2a0|                        7d ae 9d 90            |        }...    |      [159]: "2036-10-26T01:00:00Z" (2108595600) transition_time 0x2a8-0x2ab.7 (4)
0x2a0|                                    7e 79 a4 90|            ~y..|      [160]: "2037-03-29T01:00:00Z" (2121901200) transition_time 0x2ac-0x2af.7 (4)
0x2b0|7f 8e 7f 90                                    |....            |      [161]: "2037-10-25T01:00:00Z" (2140045200) transition_time 0x2b0-0x2b3.7 (4)
     |                                               |                |    transition_types[0:162]: 0x2b4-0x355.7 (162)
0x2b0|            04                                 |    .           |      [0]: 4 transition_type 0x2b4-0x2b4.7 (1)
0x2b0|               01                              |     .          |      [1]: 1 transition_type 0x2b5-0x2b5.7 (1)
0x2b0|                  02                           |      .         |      [2]: 2 transition_type 0x2b6-0x2b6.7 (1)
0x2b0|                     01                        |       .        |      [3]: 1 transition_type 0x2b7-0x2b7.7 (1)
0x2b0|                        02                     |        .       |      [4]: 2 transition_type 0x2b8-0x2b8.7 (1)
0x2b0|                           01                  |         .      |      [5]: 1 transition_type 0x2b9-0x2b9.7 (1)
0x2b0|                              02               |          .     |      [6]: 2 transition_type 0x2ba-0x2ba.7 (1)
0x2b0|                                 01            |           .    |      [7]: 1 transition_type 0x2bb-0x2bb.7 (1)
0x2b0|                                    02         |            .   |      [8]: 2 transition_type 0x2bc-0x2bc.7 (1)
0x2b0|                                       01      |             .  |      [9]: 1 transition_type 0x2bd-0x2bd.7 (1)
0x2b0|                                          02   |              . |      [10]: 2 transition_type 0x2be-0x2be.7 (1)
0x2b0|                                             01|               .|      [11]: 1 transition_type 0x2bf-0x2bf.7 (1)
0x2c0|02                                             |.               |      [12]: 2 transition_type 0x2c0-0x2c0.7 (1)
0x2c0|   01                                          | .              |      [13]: 1 transition_type 0x2c1-0x2c1.7 (1)
0x2c0|      02                                       |  .             |      [14]: 2 transition_type 0x2c2-0x2c2.7 (1)
0x2c0|         01                                    |   .            |      [15]: 1 transition_type 0x2c3-0x2c3.7 (1)
0x2c0|            02                                 |    .           |      [16]: 2 transition_type 0x2c4-0x2c4.7 (1)
0x2c0|               01                              |     .          |      [17]: 1 transition_type 0x2c5-0x2c5.7 (1)
0x2c0|                  03                           |      .         |      [18]: 3 transition_type 0x2c6-0x2c6.7 (1)
0x2c0|                     01                        |       .        |      [19]: 1 transition_type 0x2c7-0x2c7.7 (1)
0x2c0|                        02                     |        .       |      [20]: 2 transition_type 0x2c8-0x2c8.7 (1)
0x2c0|                           06                  |         .      |      [21]: 6 transition_type 0x2c9-0x2c9.7 (1)
0x2c0|                              05               |          .     |      [22]: 5 transition_type 0x2ca-0x2ca.7 (1)
0x2c0|                                 06            |           .    |      [23]: 6 transition_type 0x2cb-0x2cb.7 (1)
0x2c0|                                    05         |            .   |      [24]: 5 transition_type 0x2cc-0x2cc.7 (1)
0x2c0|                                       06      |             .  |      [25]: 6 transition_type 0x2cd-0x2cd.7 (1)
0x2c0|                                          05   |              . |      [26]: 5 transition_type 0x2ce-0x2ce.7 (1)
0x2c0|                                             06|               .|      [27]: 6 transition_type 0x2cf-0x2cf.7 (1)
0x2d0|05                                             |.               |      [28]: 5 transition_type 0x2d0-0x2d0.7 (1)
0x2d0|   06                                          | .              |      [29]: 6 transition_type 0x2d1-0x2d1.7 (1)
0x2d0|      05                                       |  .             |      [30]: 5 transition_type 0x2d2-0x2d2.7 (1)
0x2d0|         06                                    |   .            |      [31]: 6 transition_type 0x2d3-0x2d3.7 (1)
0x2d0|            05                                 |    .           |      [32]: 5 transition_type 0x2d4-0x2d4.7 (1)
0x2d0|               06                              |     .          |      [33]: 6 transition_type 0x2d5-0x2d5.7 (1)
0x2d0|                  05                           |      .         |      [34]: 5 transition_type 0x2d6-0x2d6.7 (1)
0x2d0|                     06                        |       .        |      [35]: 6 transition_type 0x2d7-0x2d7.7 (1)
0x2d0|                        05                     |        .       |      [36]: 5 transition_type 0x2d8-0x2d8.7 (1)
0x2d0|                           06                  |         .      |      [37]: 6 transition_type 0x2d9-0x2d9.7 (1)
0x2d0|                              05               |          .     |      [38]: 5 transition_type 0x2da-0x2da.7 (1)
0x2d0|                                 06            |           .    |      [39]: 6 transition_type 0x2db-0x2db.7 (1)
0x2d0|                                    05         |            .   |      [40]: 5 transition_type 0x2dc-0x2dc.7 (1)
0x2d0|                                       06      |             .  |      [41]: 6 transition_type 0x2dd-0x2dd.7 (1)
0x2d0|                                          07   |              . |      [42]: 7 transition_type 0x2de-0x2de.7 (1)
0x2d0|                                             08|               .|      [43]: 8 transition_type 0x2df-0x2df.7 (1)
0x2e0|09                                             |.               |      [44]: 9 transition_type 0x2e0-0x2e0.7 (1)
0x2e0|   0a                                          | .              |      [45]: 10 transition_type 0x2e1-0x2e1.7 (1)
0x2e0|      09                                       |  .             |      [46]: 9 transition_type 0x2e2-0x2e2.7 (1)
0x2e0|         0a                                    |   .            |      [47]: 10 transition_type 0x2e3-0x2e3.7 (1)
0x2e0|            09                                 |    .           |      [48]: 9 transition_type 0x2e4-0x2e4.7 (1)
0x2e0|               0a                              |     .          |      [49]: 10 transition_type 0x2e5-0x2e5.7 (1)
0x2e0|                  09                           |      .         |      [50]: 9 transition_type 0x2e6-0x2e6.7 (1)
0x2e0|                     0a                        |       .        |      [51]: 10 transition_type 0x2e7-0x2e7.7 (1)
0x2e0|                        09                     |        .       |      [52]: 9 transition_type 0x2e8-0x2e8.7 (1)
0x2e0|                           0a                  |         .      |      [53]: 10 transition_type 0x2e9-0x2e9.7 (1)
0x2e0|                              09               |          .     |      [54]: 9 transition_type 0x2ea-0x2ea.7 (1)
0x2e0|                                 0a            |           .    |      [55]: 10 transition_type 0x2eb-0x2eb.7 (1)
0x2e0|                                    09         |            .   |      [56]: 9 transition_type 0x2ec-0x2ec.7 (1)
0x2e0|                                       0a      |             .  |      [57]: 10 transition_type 0x2ed-0x2ed.7 (1)
0x2e0|                                          09   |              . |      [58]: 9 transition_type 0x2ee-0x2ee.7 (1)
0x2e0|                                             0a|               .|      [59]: 10 transition_type 0x2ef-0x2ef.7 (1)
0x2f0|09                                             |.               |      [60]: 9 transition_type 0x2f0-0x2f0.7 (1)
0x2f0|   0a                                          | .              |      [61]: 10 transition_type 0x2f1-0x2f1.7 (1)
0x2f0|      09                                       |  .             |      [62]: 9 transition_type 0x2f2-0x2f2.7 (1)
0x2f0|         0a                                    |   .            |      [63]: 10 transition_type 0x2f3-0x2f3.7 (1)
0x2f0|            09                                 |    .           |      [64]: 9 transition_type 0x2f4-0x2f4.7 (1)
0x2f0|               0a                              |     .          |      [65]: 10 transition_type 0x2f5-0x2f5.7 (1)
0x2f0|                  09                           |      .         |      [66]: 9 transition_type 0x2f6-0x2f6.7 (1)
0x2f0|                     0a                        |       .        |      [67]: 10 transition_type 0x2f7-0x2f7.7 (1)
0x2f0|                        09                     |        .       |      [68]: 9 transition_type 0x2f8-0x2f8.7 (1)
0x2f0|                           0a                  |         .      |      [69]: 10 transition_type 0x2f9-0x2f9.7 (1)
0x2f0|                              09               |          .     |      [70]: 9 transition_type 0x2fa-0x2fa.7 (1)
0x2f0|                                 0a            |           .    |      [71]: 10 transition_type 0x2fb-0x2fb.7 (1)
0x2f0|                                    09         |            .   |      [72]: 9 transition_type 0x2fc-0x2fc.7 (1)
0x2f0|                                       0a      |             .  |      [73]: 10 transition_type 0x2fd-0x2fd.7 (1)
0x2f0|                                          09   |              . |      [74]: 9 transition_type 0x2fe-0x2fe.7 (1)
0x2f0|                                             0a|               .|      [75]: 10 transition_type 0x2ff-0x2ff.7 (1)
0x300|09                                             |.               |      [76]: 9 transition_type 0x300-0x300.7 (1)
0x300|   0a                                          | .              |      [77]: 10 transition_type 0x301-0x301.7 (1)
0x300|      09                                       |  .             |      [78]: 9 transition_type 0x302-0x302.7 (1)
0x300|         0a                                    |   .            |      [79]: 10 transition_type 0x303-0x303.7 (1)
0x300|            09                                 |    .           |      [80]: 9 transition_type 0x304-0x304.7 (1)
0x300|               0a                              |     .          |      [81]: 10 transition_type 0x305-0x305.7 (1)
0x300|                  09                           |      .         |      [82]: 9 transition_type 0x306-0x306.7 (1)
0x300|                     0a                        |       .        |      [83]: 10 transition_type 0x307-0x307.7 (1)
0x300|                        09                     |        .       |      [84]: 9 transition_type 0x308-0x308.7 (1)
0x300|                           0a                  |         .      |      [85]: 10 transition_type 0x309-0x309.7 (1)
0x300|                              09               |          .     |      [86]: 9 transition_type 0x30a-0x30a.7 (1)
0x300|                                 0a            |           .    |      [87]: 10 transition_type 0x30b-0x30b.7 (1)
0x300|                                    09         |            .   |      [88]: 9 transition_type 0x30c-0x30c.7 (1)
0x300|                                       0a      |             .  |      [89]: 10 transition_type 0x30d-0x30d.7 (1)
0x300|                                          09   |              . |      [90]: 9 transition_type 0x30e-0x30e.7 (1)
0x300|                                             0a|               .|      [91]: 10 transition_type 0x30f-0x30f.7 (1)
0x310|09                                             |.               |      [92]: 9 transition_type 0x310-0x310.7 (1)
0x310|   0a                                          | .              |      [93]: 10 transition_type 0x311-0x311.7 (1)
0x310|      09                                       |  .             |      [94]: 9 transition_type 0x312-0x312.7 (1)
0x310|         0a                                    |   .            |      [95]: 10 transition_type 0x313-0x313.7 (1)
0x310|            09                                 |    .           |      [96]: 9 transition_type 0x314-0x314.7 (1)
0x310|               0a                              |     .          |      [97]: 10 transition_type 0x315-0x315.7 (1)
0x310|                  09                           |      .         |      [98]: 9 transition_type 0x316-0x316.7 (1)
0x310|                     0a                        |       .        |      [99]: 10 transition_type 0x317-0x317.7 (1)
0x310|                        09                     |        .       |      [100]: 9 transition_type 0x318-0x318.7 (1)
0x310|                           0a                  |         .      |      [101]: 10 transition_type 0x319-0x319.7 (1)
0x310|                              09               |          .     |      [102]: 9 transition_type 0x31a-0x31a.7 (1)
0x310|                                 0a            |           .    |      [103]: 10 transition_type 0x31b-0x31b.7 (1)
0x310|                                    09         |            .   |      [104]: 9 transition_type 0x31c-0x31c.7 (1)
0x310|                                       0a      |             .  |      [105]: 10 transition_type 0x31d-0x31d.7 (1)
0x310|                                          09   |              . |      [106]: 9 transition_type 0x31e-0x31e.7 (1)
0x310|                                             0a|               .|      [107]: 10 transition_type 0x31f-0x31f.7 (1)
0x320|09                                             |.               |      [108]: 9 transition_type 0x320-0x320.7 (1)
0x320|   0a                                          | .              |      [109]: 10 transition_type 0x321-0x321.7 (1)
0x320|      09                                       |  .             |      [110]: 9 transition_type 0x322-0x322.7 (1)
0x320|         0a                                    |   .            |      [111]: 10 transition_type 0x323-0x323.7 (1)
0x320|            09                                 |    .           |      [112]: 9 transition_type 0x324-0x324.7 (1)
0x320|               0a                              |     .          |      [113]: 10 transition_type 0x325-0x325.7 (1)
0x320|                  09                           |      .         |      [114]: 9 transition_type 0x326-0x326.7 (1)
0x320|                     0a                        |       .        |      [115]: 10 transition_type 0x327-0x327.7 (1)
0x320|                        09                     |        .       |      [116]: 9 transition_type 0x328-0x328.7 (1)
0x320|                           0a                  |         .      |      [117]: 10 transition_type 0x329-0x329.7 (1)
0x320|                              09               |          .     |      [118]: 9 transition_type 0x32a-0x32a.7 (1)
0x320|                                 0a            |           .    |      [119]: 10 transition_type 0x32b-0x32b.7 (1)
0x320|                                    09         |            .   |      [120]: 9 transition_type 0x32c-0x32c.7 (1)
0x320|                                       0a      |             .  |      [121]: 10 transition_type 0x32d-0x32d.7 (1)
0x320|                                          09   |              . |      [122]: 9 transition_type 0x32e-0x32e.7 (1)
0x320|                                             0a|               .|      [123]: 10 transition_type 0x32f-0x32f.7 (1)
0x330|09                                             |.               |      [124]: 9 transition_type 0x330-0x330.7 (1)
0x330|   0a                                          | .              |      [125]: 10 transition_type 0x331-0x331.7 (1)
0x330|      09                                       |  .             |      [126]: 9 transition_type 0x332-0x332.7 (1)
0x330|         0a                                    |   .            |      [127]: 10 transition_type 0x333-0x333.7 (1)
0x330|            09                                 |    .           |      [128]: 9 transition_type 0x334-0x334.7 (1)
0x330|               0a                              |     .          |      [129]: 10 transition_type 0x335-0x335.7 (1)
0x330|                  09                           |      .         |      [130]: 9 transition_type 0x336-0x336.7 (1)
0x330|                     0a                        |       .        |      [131]: 10 transition_type 0x337-0x337.7 (1)
0x330|                        09                     |        .       |      [132]: 9 transition_type 0x338-0x338.7 (1)
0x330|                           0a                  |         .      |      [133]: 10 transition_type 0x339-0x339.7 (1)
0x330|                              09               |          .     |      [134]: 9 transition_type 0x33a-0x33a.7 (1)
0x330|                                 0a            |           .    |      [135]: 10 transition_type 0x33b-0x33b.7 (1)
0x330|                                    09         |            .   |      [136]: 9 transition_type 0x33c-0x33c.7 (1)
0x330|                                       0a      |             .  |      [137]: 10 transition_type 0x33d-0x33d.7 (1)
0x330|                                          09   |              . |      [138]: 9 transition_type 0x33e-0x33e.7 (1)
0x330|                                             0a|               .|      [139]: 10 transition_type 0x33f-0x33f.7 (1)
0x340|09                                             |.               |      [140]: 9 transition_type 0x340-0x340.7 (1)
0x340|   0a                                          | .              |      [141]: 10 transition_type 0x341-0x341.7 (1)
0x340|      09                                       |  .             |      [142]: 9 transition_type 0x342-0x342.7 (1)
0x340|         0a                                    |   .            |      [143]: 10 transition_type 0x343-0x343.7 (1)
0x340|            09                                 |    .           |      [144]: 9 transition_type 0x344-0x344.7 (1)
0x340|               0a                              |     .          |      [145]: 10 transition_type 0x345-0x345.7 (1)
0x340|                  09                           |      .         |      [146]: 9 transition_type 0x346-0x346.7 (1)
0x340|                     0a                        |       .        |      [147]: 10 transition_type 0x347-0x347.7 (1)
0x340|                        09                     |        .       |      [148]: 9 transition_type 0x348-0x348.7 (1)
0x340|                           0a                  |         .      |      [149]: 10 transition_type 0x349-0x349.7 (1)
0x340|                              09               |          .     |      [150]: 9 transition_type 0x34a-0x34a.7 (1)
0x340|                                 0a            |           .    |      [151]: 10 transition_type 0x34b-0x34b.7 (1)
0x340|                                    09         |            .   |      [152]: 9 transition_type 0x34c-0x34c.7 (1)
0x340|                                       0a      |             .  |      [153]: 10 transition_type 0x34d-0x34d.7 (1)
0x340|                                          09   |              . |      [154]: 9 transition_type 0x34e-0x34e.7 (1)
0x340|                                             0a|               .|      [155]: 10 transition_type 0x34f-0x34f.7 (1)
0x350|09                                             |.               |      [156]: 9 transition_type 0x350-0x350.7 (1)
0x350|   0a                                          | .              |      [157]: 10 transition_type 0x351-0x351.7 (1)
0x350|      09                                       |  .             |      [158]: 9 transition_type 0x352-0x352.7 (1)
0x350|         0a                                    |   .            |      [159]: 10 transition_type 0x353-0x353.7 (1)
0x350|            09                                 |    .           |      [160]: 9 transition_type 0x354-0x354.7 (1)
0x350|               0a                              |     .          |      [161]: 10 transition_type 0x355-0x355.7 (1)
     |                                               |                |    local_time_type_records[0:11]: 0x356-0x397.7 (66)
     |                                               |                |      [0]{}: local_time_type 0x356-0x35b.7 (6)
0x350|                  ff ff fc 8c                  |      ....      |        utoff: -884 (valid) 0x356-0x359.7 (4)
0x350|                              00               |          .     |        dst: 0 (valid) 0x35a-0x35a.7 (1)
0x350|                                 00            |           .    |        idx: 0 (valid) 0x35b-0x35b.7 (1)
     |                                               |                |      [1]{}: local_time_type 0x35c-0x361.7 (6)
0x350|                                    00 00 0e 10|            ....|        utoff: 3600 (valid) 0x35c-0x35f.7 (4)
0x360|01                                             |.               |        dst: 1 (valid) 0x360-0x360.7 (1)
0x360|   04                                          | .              |        idx: 4 (valid) 0x361-0x361.7 (1)
     |                                               |                |      [2]{}: local_time_type 0x362-0x367.7 (6)
0x360|      00 00 00 00                              |  ....          |        utoff: 0 (valid) 0x362-0x365.7 (4)
0x360|                  00                           |      .         |        dst: 0 (valid) 0x366-0x366.7 (1)
0x360|                     09                        |       .        |        idx: 9 (valid) 0x367-0x367.7 (1)
     |                                               |                |      [3]{}: local_time_type 0x368-0x36d.7 (6)
0x360|                        00 00 1c 20            |        ...     |        utoff: 7200 (valid) 0x368-0x36b.7 (4)
0x360|                                    01         |            .   |        dst: 1 (valid) 0x36c-0x36c.7 (1)
0x360|                                       0d      |             .  |        idx: 13 (valid) 0x36d-0x36d.7 (1)
     |                                               |                |      [4]{}: local_time_type 0x36e-0x373.7 (6)
0x360|                                          00 00|              ..|        utoff: 0 (valid) 0x36e-0x371.7 (4)
0x370|00 00                                          |..              |
0x370|      00                                       |  .             |        dst: 0 (valid) 0x372-0x372.7 (1)
0x370|         09                                    |   .            |        idx: 9 (valid) 0x373-0x373.7 (1)
     |                                               |                |      [5]{}: local_time_type 0x374-0x379.7 (6)
0x370|            00 00 1c 20                        |    ...         |        utoff: 7200 (valid) 0x374-0x377.7 (4)
0x370|                        01                     |        .       |        dst: 1 (valid) 0x378-0x378.7 (1)
0x370|                           12                  |         .      |        idx: 18 (valid) 0x379-0x379.7 (1)
     |                                               |                |      [6]{}: local_time_type 0x37a-0x37f.7 (6)
0x370|                              00 00 0e 10      |          ....  |        utoff: 3600 (valid) 0x37a-0x37d.7 (4)
0x370|                                          00   |              . |        dst: 0 (valid) 0x37e-0x37e.7 (1)
0x370|                                             17|               .|        idx: 23 (valid) 0x37f-0x37f.7 (1)
     |                                               |                |      [7]{}: local_time_type 0x380-0x385.7 (6)
0x380|00 00 1c 20                                    |...             |        utoff: 7200 (valid) 0x380-0x383.7 (4)
0x380|            01                                 |    .           |        dst: 1 (valid) 0x384-0x384.7 (1)
0x380|               12                              |     .          |        idx: 18 (valid) 0x385-0x385.7 (1)
     |                                               |                |      [8]{}: local_time_type 0x386-0x38b.7 (6)
0x380|                  00 00 0e 10                  |      ....      |        utoff: 3600 (valid) 0x386-0x389.7 (4)
0x380|                              00               |          .     |        dst: 0 (valid) 0x38a-0x38a.7 (1)
0x380|                                 17            |           .    |        idx: 23 (valid) 0x38b-0x38b.7 (1)
     |                                               |                |      [9]{}: local_time_type 0x38c-0x391.7 (6)
0x380|                                    00 00 1c 20|            ... |        utoff: 7200 (valid) 0x38c-0x38f.7 (4)
0x390|01                                             |.               |        dst: 1 (valid) 0x390-0x390.7 (1)
0x390|   12                                          | .              |        idx: 18 (valid) 0x391-0x391.7 (1)
     |                                               |                |      [10]{}: local_time_type 0x392-0x397.7 (6)
0x390|      00 00 0e 10                              |  ....          |        utoff: 3600 (valid) 0x392-0x395.7 (4)
0x390|                  00                           |      .         |        dst: 0 (valid) 0x396-0x396.7 (1)
0x390|                     17                        |       .        |        idx: 23 (valid) 0x397-0x397.7 (1)
     |                                               |                |    time_zone_designations[0:6]: 0x398-0x3b2.7 (27)
0x390|                        4c 4d 54 00            |        LMT.    |      [0]: "LMT" time_zone_designation 0x398-0x39b.7 (4)
0x390|                                    57 45 53 54|            WEST|      [1]: "WEST" time_zone_designation 0x39c-0x3a0.7 (5)
0x3a0|00                                             |.               |
0x3a0|   57 45 54 00                                 | WET.           |      [2]: "WET" time_zone_designation 0x3a1-0x3a4.7 (4)
0x3a0|               57 45 4d 54 00                  |     WEMT.      |      [3]: "WEMT" time_zone_designation 0x3a5-0x3a9.7 (5)
0x3a0|                              43 45 53 54 00   |          CEST. |      [4]: "CEST" time_zone_designation 0x3aa-0x3ae.7 (5)
0x3a0|                                             43|               C|      [5]: "CET" time_zone_designation 0x3af-0x3b2.7 (4)
0x3b0|45 54 00                                       |ET.             |
     |                                               |                |    leap_second_records[0:0]: 0x3b3-NA (0)
     |                                               |                |    standard_wall_indicators[0:11]: 0x3b3-0x3bd.7 (11)
0x3b0|         00                                    |   .            |      [0]: 0 standard_wall_indicator (valid) 0x3b3-0x3b3.7 (1)
0x3b0|            00                                 |    .           |      [1]: 0 standard_wall_indicator (valid) 0x3b4-0x3b4.7 (1)
0x3b0|               01                              |     .          |      [2]: 1 standard_wall_indicator (valid) 0x3b5-0x3b5.7 (1)
0x3b0|                  00                           |      .         |      [3]: 0 standard_wall_indicator (valid) 0x3b6-0x3b6.7 (1)
0x3b0|                     01                        |       .        |      [4]: 1 standard_wall_indicator (valid) 0x3b7-0x3b7.7 (1)
0x3b0|                        00                     |        .       |      [5]: 0 standard_wall_indicator (valid) 0x3b8-0x3b8.7 (1)
0x3b0|                           00                  |         .      |      [6]: 0 standard_wall_indicator (valid) 0x3b9-0x3b9.7 (1)
0x3b0|                              01               |          .     |      [7]: 1 standard_wall_indicator (valid) 0x3ba-0x3ba.7 (1)
0x3b0|                                 01            |           .    |      [8]: 1 standard_wall_indicator (valid) 0x3bb-0x3bb.7 (1)
0x3b0|                                    01         |            .   |      [9]: 1 standard_wall_indicator (valid) 0x3bc-0x3bc.7 (1)
0x3b0|                                       01      |             .  |      [10]: 1 standard_wall_indicator (valid) 0x3bd-0x3bd.7 (1)
     |                                               |                |    ut_local_indicators[0:11]: 0x3be-0x3c8.7 (11)
0x3b0|                                          00   |              . |      [0]: 0 ut_local_indicator (valid) 0x3be-0x3be.7 (1)
0x3b0|                                             00|               .|      [1]: 0 ut_local_indicator (valid) 0x3bf-0x3bf.7 (1)
0x3c0|00                                             |.               |      [2]: 0 ut_local_indicator (valid) 0x3c0-0x3c0.7 (1)
0x3c0|   00                                          | .              |      [3]: 0 ut_local_indicator (valid) 0x3c1-0x3c1.7 (1)
0x3c0|      01                                       |  .             |      [4]: 1 ut_local_indicator (valid) 0x3c2-0x3c2.7 (1)
0x3c0|         00                                    |   .            |      [5]: 0 ut_local_indicator (valid) 0x3c3-0x3c3.7 (1)
0x3c0|            00                                 |    .           |      [6]: 0 ut_local_indicator (valid) 0x3c4-0x3c4.7 (1)
0x3c0|               00                              |     .          |      [7]: 0 ut_local_indicator (valid) 0x3c5-0x3c5.7 (1)
0x3c0|                  00                           |      .         |      [8]: 0 ut_local_indicator (valid) 0x3c6-0x3c6.7 (1)
0x3c0|                     01                        |       .        |      [9]: 1 ut_local_indicator (valid) 0x3c7-0x3c7.7 (1)
0x3c0|                        01                     |        .       |      [10]: 1 ut_local_indicator (valid) 0x3c8-0x3c8.7 (1)
     |                                               |                |  v2plusheader{}: 0x3c9-0x3f4.7 (44)
0x3c0|                           54 5a 69 66         |         TZif   |    magic: 0x545a6966 (valid) 0x3c9-0x3cc.7 (4)
0x3c0|                                       32      |             2  |    ver: "2" (0x32) (valid) 0x3cd-0x3cd.7 (1)
0x3c0|                                          00 00|              ..|    reserved: raw bits 0x3ce-0x3dc.7 (15)
0x3d0|00 00 00 00 00 00 00 00 00 00 00 00 00         |.............   |
0x3d0|                                       00 00 00|             ...|    isutcnt: 11 0x3dd-0x3e0.7 (4)
0x3e0|0b                                             |.               |
0x3e0|   00 00 00 0b                                 | ....           |    isstdcnt: 11 0x3e1-0x3e4.7 (4)
0x3e0|               00 00 00 00                     |     ....       |    leapcnt: 0 0x3e5-0x3e8.7 (4)
0x3e0|                           00 00 00 a2         |         ....   |    timecnt: 162 0x3e9-0x3ec.7 (4)
0x3e0|                                       00 00 00|             ...|    typecnt: 11 0x3ed-0x3f0.7 (4)
0x3f0|0b                                             |.               |
0x3f0|   00 00 00 1b                                 | ....           |    charcnt: 27 0x3f1-0x3f4.7 (4)
     |                                               |                |  v2plusdatablock{}: 0x3f5-0xa19.7 (1573)
     |                                               |                |    transition_times[0:162]: 0x3f5-0x904.7 (1296)
0x3f0|               ff ff ff ff 7e 36 b5 00         |     ....~6..   |      [0]: "1901-01-01T00:00:00Z" (-2177452800) transition_time 0x3f5-0x3fc.7 (8)
0x3f0|                                       ff ff ff|             ...|      [1]: "1918-04-15T23:00:00Z" (-1631926800) transition_time 0x3fd-0x404.7 (8)
0x400|ff 9e ba c5 f0                                 |.....           |
0x400|               ff ff ff ff 9f a0 39 00         |     ......9.   |      [2]: "1918-10-07T00:00:00Z" (-1616889600) transition_time 0x405-0x40c.7 (8)
0x400|                                       ff ff ff|             ...|      [3]: "1919-04-06T23:00:00Z" (-1601168400) transition_time 0x40d-0x414.7 (8)
0x410|ff a0 90 1b f0                                 |.....           |
0x410|               ff ff ff ff a1 81 6c 80         |     ......l.   |      [4]: "1919-10-07T00:00:00Z" (-1585353600) transition_time 0x415-0x41c.7 (8)
0x410|                                       ff ff ff|             ...|      [5]: "1924-04-16T23:00:00Z" (-1442451600) transition_time 0x41d-0x424.7 (8)
0x420|ff aa 05 ef 70                                 |....p           |
0x420|               ff ff ff ff aa e7 6e 00         |     ......n.   |      [6]: "1924-10-05T00:00:00Z" (-1427673600) transition_time 0x425-0x42c.7 (8)
0x420|                                       ff ff ff|             ...|      [7]: "1926-04-17T23:00:00Z" (-1379293200) transition_time 0x42d-0x434.7 (8)
0x430|ff ad c9 a7 f0                                 |.....           |
0x430|               ff ff ff ff ae a7 32 00         |     ......2.   |      [8]: "1926-10-03T00:00:00Z" (-1364774400) transition_time 0x435-0x43c.7 (8)
0x430|                                       ff ff ff|             ...|      [9]: "1927-04-09T23:00:00Z" (-1348448400) transition_time 0x43d-0x444.7 (8)
0x440|ff af a0 4f 70                                 |...Op           |
0x440|               ff ff ff ff b0 87 14 00         |     ........   |      [10]: "1927-10-02T00:00:00Z" (-1333324800) transition_time 0x445-0x44c.7 (8)
0x440|                                       ff ff ff|             ...|      [11]: "1928-04-15T00:00:00Z" (-1316390400) transition_time 0x44d-0x454.7 (8)
0x450|ff b1 89 7a 00                                 |...z.           |
0x450|               ff ff ff ff b2 70 30 80         |     .....p0.   |      [12]: "1928-10-07T00:00:00Z" (-1301270400) transition_time 0x455-0x45c.7 (8)
0x450|                                       ff ff ff|             ...|      [13]: "1929-04-20T23:00:00Z" (-1284339600) transition_time 0x45d-0x464.7 (8)
0x460|ff b3 72 88 70                                 |..r.p           |
0x460|               ff ff ff ff b4 50 12 80         |     .....P..   |      [14]: "1929-10-06T00:00:00Z" (-1269820800) transition_time 0x465-0x46c.7 (8)
0x460|                                       ff ff ff|             ...|      [15]: "1937-06-16T23:00:00Z" (-1026954000) transition_time 0x46d-0x474.7 (8)
0x470|ff c2 c9 ec f0                                 |.....           |
0x470|               ff ff ff ff c3 58 5d 00         |     .....X].   |      [16]: "1937-10-03T00:00:00Z" (-1017619200) transition_time 0x475-0x47c.7 (8)
0x470|                                       ff ff ff|             ...|      [17]: "1938-04-02T23:00:00Z" (-1001898000) transition_time 0x47d-0x484.7 (8)
0x480|ff c4 48 3f f0                                 |..H?.           |
0x480|               ff ff ff ff c4 6d 1b e0         |     .....m..   |      [18]: "1938-04-30T22:00:00Z" (-999482400) transition_time 0x485-0x48c.7 (8)
0x480|                                       ff ff ff|             ...|      [19]: "1938-10-02T22:00:00Z" (-986090400) transition_time 0x48d-0x494.7 (8)
0x490|ff c5 39 74 60                                 |..9t`           |
0x490|               ff ff ff ff c7 21 5b 80         |     .....![.   |      [20]: "1939-10-08T00:00:00Z" (-954115200) transition_time 0x495-0x49c.7 (8)
0x490|                                       ff ff ff|             ...|      [21]: "1940-03-16T23:00:00Z" (-940208400) transition_time 0x49d-0x4a4.7 (8)
0x4a0|ff c7 f5 8e f0                                 |.....           |
0x4a0|               ff ff ff ff cb f5 de 60         |     .......`   |      [22]: "1942-05-02T22:00:00Z" (-873079200) transition_time 0x4a5-0x4ac.7 (8)
0x4a0|                                       ff ff ff|             ...|      [23]: "1942-08-31T23:00:00Z" (-862621200) transition_time 0x4ad-0x4b4.7 (8)
0x4b0|ff cc 95 71 f0                                 |...q.           |
0x4b0|               ff ff ff ff cd c3 4b 60         |     ......K`   |      [24]: "1943-04-17T22:00:00Z" (-842839200) transition_time 0x4b5-0x4bc.7 (8)
0x4b0|                                       ff ff ff|             ...|      [25]: "1943-10-02T23:00:00Z" (-828320400) transition_time 0x4bd-0x4c4.7 (8)
0x4c0|ff ce a0 d5 70                                 |....p           |
0x4c0|               ff ff ff ff cf a3 2d 60         |     ......-`   |      [26]: "1944-04-15T22:00:00Z" (-811389600) transition_time 0x4c5-0x4cc.7 (8)
0x4c0|                                       ff ff ff|             ...|      [27]: "1944-09-30T23:00:00Z" (-796870800) transition_time 0x4cd-0x4d4.7 (8)
0x4d0|ff d0 80 b7 70                                 |....p           |
0x4d0|               ff ff ff ff d1 83 0f 60         |     .......`   |      [28]: "1945-04-14T22:00:00Z" (-779940000) transition_time 0x4d5-0x4dc.7 (8)
0x4d0|                                       ff ff ff|             ...|      [29]: "1945-09-29T23:00:00Z" (-765421200) transition_time 0x4dd-0x4e4.7 (8)
0x4e0|ff d2 60 99 70                                 |..`.p           |
0x4e0|               ff ff ff ff d3 62 f1 60         |     .....b.`   |      [30]: "1946-04-13T22:00:00Z" (-748490400) transition_time 0x4e5-0x4ec.7 (8)
0x4e0|                                       ff ff ff|             ...|      [31]: "1946-09-28T23:00:00Z" (-733971600) transition_time 0x4ed-0x4f4.7 (8)
0x4f0|ff d4 40 7b 70                                 |..@{p           |
0x4f0|               ff ff ff ff d9 1e 46 e0         |     ......F.   |      [32]: "1949-04-30T22:00:00Z" (-652327200) transition_time 0x4f5-0x4fc.7 (8)
0x4f0|                                       ff ff ff|             ...|      [33]: "1949-10-01T23:00:00Z" (-639018000) transition_time 0x4fd-0x504.7 (8)
0x500|ff d9 e9 5b f0                                 |...[.           |
0x500|               00 00 00 00 08 0d cd e0         |     ........   |      [34]: "1974-04-13T22:00:00Z" (135122400) transition_time 0x505-0x50c.7 (8)
0x500|                                       00 00 00|             ...|      [35]: "1974-10-05T23:00:00Z" (150246000) transition_time 0x50d-0x514.7 (8)
0x510|00 08 f4 92 70                                 |....p           |
0x510|               00 00 00 00 09 ed af e0         |     ........   |      [36]: "1975-04-12T22:00:00Z" (166572000) transition_time 0x515-0x51c.7 (8)
0x510|                                       00 00 00|             ...|      [37]: "1975-10-04T23:00:00Z" (181695600) transition_time 0x51d-0x524.7 (8)
0x520|00 0a d4 74 70                                 |...tp           |
0x520|               00 00 00 00 0b bb 1c e0         |     ........   |      [38]: "1976-03-27T22:00:00Z" (196812000) transition_time 0x525-0x52c.7 (8)
0x520|                                       00 00 00|             ...|      [39]: "1976-09-25T23:00:00Z" (212540400) transition_time 0x52d-0x534.7 (8)
0x530|00 0c ab 1b f0                                 |.....           |
0x530|               00 00 00 00 0d a4 39 60         |     ......9`   |      [40]: "1977-04-02T22:00:00Z" (228866400) transition_time 0x535-0x53c.7 (8)
0x530|                                       00 00 00|             ...|      [41]: "1977-09-24T23:00:00Z" (243990000) transition_time 0x53d-0x544.7 (8)
0x540|00 0e 8a fd f0                                 |.....           |
0x540|               00 00 00 00 0f 84 45 90         |     ......E.   |      [42]: "1978-04-02T01:00:00Z" (260326800) transition_time 0x545-0x54c.7 (8)
0x540|                                       00 00 00|             ...|      [43]: "1978-10-01T01:00:00Z" (276051600) transition_time 0x54d-0x554.7 (8)
0x550|00 10 74 36 90                                 |..t6.           |
0x550|               00 00 00 00 11 64 27 90         |     .....d'.   |      [44]: "1979-04-01T01:00:00Z" (291776400) transition_time 0x555-0x55c.7 (8)
0x550|                                       00 00 00|             ...|      [45]: "1979-09-30T01:00:00Z" (307501200) transition_time 0x55d-0x564.7 (8)
0x560|00 12 54 18 90                                 |..T..           |
0x560|               00 00 00 00 13 4d 44 10         |     .....MD.   |      [46]: "1980-04-06T01:00:00Z" (323830800) transition_time 0x565-0x56c.7 (8)
0x560|                                       00 00 00|             ...|      [47]: "1980-09-28T01:00:00Z" (338950800) transition_time 0x56d-0x574.7 (8)
0x570|00 14 33 fa 90                                 |..3..           |
0x570|               00 00 00 00 15 23 eb 90         |     .....#..   |      [48]: "1981-03-29T01:00:00Z" (354675600) transition_time 0x575-0x57c.7 (8)
0x570|                                       00 00 00|             ...|      [49]: "1981-09-27T01:00:00Z" (370400400) transition_time 0x57d-0x584.7 (8)
0x580|00 16 13 dc 90                                 |.....           |
0x580|               00 00 00 00 17 03 cd 90         |     ........   |      [50]: "1982-03-28T01:00:00Z" (386125200) transition_time 0x585-0x58c.7 (8)
0x580|                                       00 00 00|             ...|      [51]: "1982-09-26T01:00:00Z" (401850000) transition_time 0x58d-0x594.7 (8)
0x590|00 17 f3 be 90                                 |.....           |
0x590|               00 00 00 00 18 e3 af 90         |     ........   |      [52]: "1983-03-27T01:00:00Z" (417574800) transition_time 0x595-0x59c.7 (8)
0x590|                                       00 00 00|             ...|      [53]: "1983-09-25T01:00:00Z" (433299600) transition_time 0x59d-0x5a4.7 (8)
0x5a0|00 19 d3 a0 90                                 |.....           |
0x5a0|               00 00 00 00 1a c3 91 90         |     ........   |      [54]: "1984-03-25T01:00:00Z" (449024400) transition_time 0x5a5-0x5ac.7 (8)
0x5a0|                                       00 00 00|             ...|      [55]: "1984-09-30T01:00:00Z" (465354000) transition_time 0x5ad-0x5b4.7 (8)
0x5b0|00 1b bc bd 10                                 |.....           |
0x5b0|               00 00 00 00 1c ac ae 10         |     ........   |      [56]: "1985-03-31T01:00:00Z" (481078800) transition_time 0x5b5-0x5bc.7 (8)
0x5b0|                                       00 00 00|             ...|      [57]: "1985-09-29T01:00:00Z" (496803600) transition_time 0x5bd-0x5c4.7 (8)
0x5c0|00 1d 9c 9f 10                                 |.....           |
0x5c0|               00 00 00 00 1e 8c 90 10         |     ........   |      [58]: "1986-03-30T01:00:00Z" (512528400) transition_time 0x5c5-0x5cc.7 (8)
0x5c0|                                       00 00 00|             ...|      [59]: "1986-09-28T01:00:00Z" (528253200) transition_time 0x5cd-0x5d4.7 (8)
0x5d0|00 1f 7c 81 10                                 |..|..           |
0x5d0|               00 00 00 00 20 6c 72 10         |     .... lr.   |      [60]: "1987-03-29T01:00:00Z" (543978000) transition_time 0x5d5-0x5dc.7 (8)
0x5d0|                                       00 00 00|             ...|      [61]: "1987-09-27T01:00:00Z" (559702800) transition_time 0x5dd-0x5e4.7 (8)
0x5e0|00 21 5c 63 10                                 |.!\c.           |
0x5e0|               00 00 00 00 22 4c 54 10         |     ...."LT.   |      [62]: "1988-03-27T01:00:00Z" (575427600) transition_time 0x5e5-0x5ec.7 (8)
0x5e0|                                       00 00 00|             ...|      [63]: "1988-09-25T01:00:00Z" (591152400) transition_time 0x5ed-0x5f4.7 (8)
0x5f0|00 23 3c 45 10                                 |.#<E.           |
0x5f0|               00 00 00 00 24 2c 36 10         |     ....$,6.   |      [64]: "1989-03-26T01:00:00Z" (606877200) transition_time 0x5f5-0x5fc.7 (8)
0x5f0|                                       00 00 00|             ...|      [65]: "1989-09-24T01:00:00Z" (622602000) transition_time 0x5fd-0x604.7 (8)
0x600|00 25 1c 27 10                                 |.%.'.           |
0x600|               00 00 00 00 26 0c 18 10         |     ....&...   |      [66]: "1990-03-25T01:00:00Z" (638326800) transition_time 0x605-0x60c.7 (8)
0x600|                                       00 00 00|             ...|      [67]: "1990-09-30T01:00:00Z" (654656400) transition_time 0x60d-0x614.7 (8)
0x610|00 27 05 43 90                                 |.'.C.           |
0x610|               00 00 00 00 27 f5 34 90         |     ....'.4.   |      [68]: "1991-03-31T01:00:00Z" (670381200) transition_time 0x615-0x61c.7 (8)
0x610|                                       00 00 00|             ...|      [69]: "1991-09-29T01:00:00Z" (686106000) transition_time 0x61d-0x624.7 (8)
0x620|00 28 e5 25 90                                 |.(.%.           |
0x620|               00 00 00 00 29 d5 16 90         |     ....)...   |      [70]: "1992-03-29T01:00:00Z" (701830800) transition_time 0x625-0x62c.7 (8)
0x620|                                       00 00 00|             ...|      [71]: "1992-09-27T01:00:00Z" (717555600) transition_time 0x62d-0x634.7 (8)
0x630|00 2a c5 07 90                                 |.*...           |
0x630|               00 00 00 00 2b b4 f8 90         |     ....+...   |      [72]: "1993-03-28T01:00:00Z" (733280400) transition_time 0x635-0x63c.7 (8)
0x630|                                       00 00 00|             ...|      [73]: "1993-09-26T01:00:00Z" (749005200) transition_time 0x63d-0x644.7 (8)
0x640|00 2c a4 e9 90                                 |.,...           |
0x640|               00 00 00 00 2d 94 da 90         |     ....-...   |      [74]: "1994-03-27T01:00:00Z" (764730000) transition_time 0x645-0x64c.7 (8)
0x640|                                       00 00 00|             ...|      [75]: "1994-09-25T01:00:00Z" (780454800) transition_time 0x64d-0x654.7 (8)
0x650|00 2e 84 cb 90                                 |.....           |
0x650|               00 00 00 00 2f 74 bc 90         |     ..../t..   |      [76]: "1995-03-26T01:00:00Z" (796179600) transition_time 0x655-0x65c.7 (8)
0x650|                                       00 00 00|             ...|      [77]: "1995-09-24T01:00:00Z" (811904400) transition_time 0x65d-0x664.7 (8)
0x660|00 30 64 ad 90                                 |.0d..           |
0x660|               00 00 00 00 31 5d d9 10         |     ....1]..   |      [78]: "1996-03-31T01:00:00Z" (828234000) transition_time 0x665-0x66c.7 (8)
0x660|                                       00 00 00|             ...|      [79]: "1996-10-27T01:00:00Z" (846378000) transition_time 0x66d-0x674.7 (8)
0x670|00 32 72 b4 10                                 |.2r..           |
0x670|               00 00 00 00 33 3d bb 10         |     ....3=..   |      [80]: "1997-03-30T01:00:00Z" (859683600) transition_time 0x675-0x67c.7 (8)
0x670|                                       00 00 00|             ...|      [81]: "1997-10-26T01:00:00Z" (877827600) transition_time 0x67d-0x684.7 (8)
0x680|00 34 52 96 10                                 |.4R..           |
0x680|               00 00 00 00 35 1d 9d 10         |     ....5...   |      [82]: "1998-03-29T01:00:00Z" (891133200) transition_time 0x685-0x68c.7 (8)
0x680|                                       00 00 00|             ...|      [83]: "1998-10-25T01:00:00Z" (909277200) transition_time 0x68d-0x694.7 (8)
0x690|00 36 32 78 10                                 |.62x.           |
0x690|               00 00 00 00 36 fd 7f 10         |     ....6...   |      [84]: "1999-03-28T01:00:00Z" (922582800) transition_time 0x695-0x69c.7 (8)
0x690|                                       00 00 00|             ...|      [85]: "1999-10-31T01:00:00Z" (941331600) transition_time 0x69d-0x6a4.7 (8)
0x6a0|00 38 1b 94 90                                 |.8...           |
0x6a0|               00 00 00 00 38 dd 61 10         |     ....8.a.   |      [86]: "2000-03-26T01:00:00Z" (954032400) transition_time 0x6a5-0x6ac.7 (8)
0x6a0|                                       00 00 00|             ...|      [87]: "2000-10-29T01:00:00Z" (972781200) transition_time 0x6ad-0x6b4.7 (8)
0x6b0|00 39 fb 76 90                                 |.9.v.           |
0x6b0|               00 00 00 00 3a bd 43 10         |     ....:.C.   |      [88]: "2001-03-25T01:00:00Z" (985482000) transition_time 0x6b5-0x6bc.7 (8)
0x6b0|                                       00 00 00|             ...|      [89]: "2001-10-28T01:00:00Z" (1004230800) transition_time 0x6bd-0x6c4.7 (8)
0x6c0|00 3b db 58 90                                 |.;.X.           |
0x6c0|               00 00 00 00 3c a6 5f 90         |     ....<._.   |      [90]: "2002-03-31T01:00:00Z" (1017536400) transition_time 0x6c5-0x6cc.7 (8)
0x6c0|                                       00 00 00|             ...|      [91]: "2002-10-27T01:00:00Z" (1035680400) transition_time 0x6cd-0x6d4.7 (8)
0x6d0|00 3d bb 3a 90                                 |.=.:.           |
0x6d0|               00 00 00 00 3e 86 41 90         |     ....>.A.   |      [92]: "2003-03-30T01:00:00Z" (1048986000) transition_time 0x6d5-0x6dc.7 (8)
0x6d0|                                       00 00 00|             ...|      [93]: "2003-10-26T01:00:00Z" (1067130000) transition_time 0x6dd-0x6e4.7 (8)
0x6e0|00 3f 9b 1c 90                                 |.?...           |
0x6e0|               00 00 00 00 40 66 23 90         |     ....@f#.   |      [94]: "2004-03-28T01:00:00Z" (1080435600) transition_time 0x6e5-0x6ec.7 (8)
0x6e0|                                       00 00 00|             ...|      [95]: "2004-10-31T01:00:00Z" (1099184400) transition_time 0x6ed-0x6f4.7 (8)
0x6f0|00 41 84 39 10                                 |.A.9.           |
0x6f0|               00 00 00 00 42 46 05 90         |     ....BF..   |      [96]: "2005-03-27T01:00:00Z" (1111885200) transition_time 0x6f5-0x6fc.7 (8)
0x6f0|                                       00 00 00|             ...|      [97]: "2005-10-30T01:00:00Z" (1130634000) transition_time 0x6fd-0x704.7 (8)
0x700|00 43 64 1b 10                                 |.Cd..           |
0x700|               00 00 00 00 44 25 e7 90         |     ....D%..   |      [98]: "2006-03-26T01:00:00Z" (1143334800) transition_time 0x705-0x70c.7 (8)
0x700|                                       00 00 00|             ...|      [99]: "2006-10-29T01:00:00Z" (1162083600) transition_time 0x70d-0x714.7 (8)
0x710|00 45 43 fd 10                                 |.EC..           |
0x710|               00 00 00 00 46 05 c9 90         |     ....F...   |      [100]: "2007-03-25T01:00:00Z" (1174784400) transition_time 0x715-0x71c.7 (8)
0x710|                                       00 00 00|             ...|      [101]: "2007-10-28T01:00:00Z" (1193533200) transition_time 0x71d-0x724.7 (8)
0x720|00 47 23 df 10                                 |.G#..           |
0x720|               00 00 00 00 47 ee e6 10         |     ....G...   |      [102]: "2008-03-30T01:00:00Z" (1206838800) transition_time 0x725-0x72c.7 (8)
0x720|                                       00 00 00|             ...|      [103]: "2008-10-26T01:00:00Z" (1224982800) transition_time 0x72d-0x734.7 (8)
0x730|00 49 03 c1 10                                 |.I...           |
0x730|               00 00 00 00 49 ce c8 10         |     ....I...   |      [104]: "2009-03-29T01:00:00Z" (1238288400) transition_time 0x735-0x73c.7 (8)
0x730|                                       00 00 00|             ...|      [105]: "2009-10-25T01:00:00Z" (1256432400) transition_time 0x73d-0x744.7 (8)
0x740|00 4a e3 a3 10                                 |.J...           |
0x740|               00 00 00 00 4b ae aa 10         |     ....K...   |      [106]: "2010-03-28T01:00:00Z" (1269738000) transition_time 0x745-0x74c.7 (8)
0x740|                                       00 00 00|             ...|      [107]: "2010-10-31T01:00:00Z" (1288486800) transition_time 0x74d-0x754.7 (8)
0x750|00 4c cc bf 90                                 |.L...           |
0x750|               00 00 00 00 4d 8e 8c 10         |     ....M...   |      [108]: "2011-03-27T01:00:00Z" (1301187600) transition_time 0x755-0x75c.7 (8)
0x750|                                       00 00 00|             ...|      [109]: "2011-10-30T01:00:00Z" (1319936400) transition_time 0x75d-0x764.7 (8)
0x760|00 4e ac a1 90                                 |.N...           |
0x760|               00 00 00 00 4f 6e 6e 10         |     ....Onn.   |      [110]: "2012-03-25T01:00:00Z" (1332637200) transition_time 0x765-0x76c.7 (8)
0x760|                                       00 00 00|             ...|      [111]: "2012-10-28T01:00:00Z" (1351386000) transition_time 0x76d-0x774.7 (8)
0x770|00 50 8c 83 90                                 |.P...           |
0x770|               00 00 00 00 51 57 8a 90         |     ....QW..   |      [112]: "2013-03-31T01:00:00Z" (1364691600) transition_time 0x775-0x77c.7 (8)
0x770|                                       00 00 00|             ...|      [113]: "2013-10-27T01:00:00Z" (1382835600) transition_time 0x77d-0x784.7 (8)
0x780|00 52 6c 65 90                                 |.Rle.           |
0x780|               00 00 00 00 53 37 6c 90         |     ....S7l.   |      [114]: "2014-03-30T01:00:00Z" (1396141200) transition_time 0x785-0x78c.7 (8)
0x780|                                       00 00 00|             ...|      [115]: "2014-10-26T01:00:00Z" (1414285200) transition_time 0x78d-0x794.7 (8)
0x790|00 54 4c 47 90                                 |.TLG.           |
0x790|               00 00 00 00 55 17 4e 90         |     ....U.N.   |      [116]: "2015-03-29T01:00:00Z" (1427590800) transition_time 0x795-0x79c.7 (8)
0x790|                                       00 00 00|             ...|      [117]: "2015-10-25T01:00:00Z" (1445734800) transition_time 0x79d-0x7a4.7 (8)
0x7a0|00 56 2c 29 90                                 |.V,).           |
0x7a0|               00 00 00 00 56 f7 30 90         |     ....V.0.   |      [118]: "2016-03-27T01:00:00Z" (1459040400) transition_time 0x7a5-0x7ac.7 (8)
0x7a0|                                       00 00 00|             ...|      [119]: "2016-10-30T01:00:00Z" (1477789200) transition_time 0x7ad-0x7b4.7 (8)
0x7b0|00 58 15 46 10                                 |.X.F.           |
0x7b0|               00 00 00 00 58 d7 12 90         |     ....X...   |      [120]: "2017-03-26T01:00:00Z" (1490490000) transition_time 0x7b5-0x7bc.7 (8)
0x7b0|                                       00 00 00|             ...|      [121]: "2017-10-29T01:00:00Z" (1509238800) transition_time 0x7bd-0x7c4.7 (8)
0x7c0|00 59 f5 28 10                                 |.Y.(.           |
0x7c0|               00 00 00 00 5a b6 f4 90         |     ....Z...   |      [122]: "2018-03-25T01:00:00Z" (1521939600) transition_time 0x7c5-0x7cc.7 (8)
0x7c0|                                       00 00 00|             ...|      [123]: "2018-10-28T01:00:00Z" (1540688400) transition_time 0x7cd-0x7d4.7 (8)
0x7d0|00 5b d5 0a 10                                 |.[...           |
0x7d0|               00 00 00 00 5c a0 11 10         |     ....\...   |      [124]: "2019-03-31T01:00:00Z" (1553994000) transition_time 0x7d5-0x7dc.7 (8)
0x7d0|                                       00 00 00|             ...|      [125]: "2019-10-27T01:00:00Z" (1572138000) transition_time 0x7dd-0x7e4.7 (8)
0x7e0|00 5d b4 ec 10                                 |.]...           |
0x7e0|               00 00 00 00 5e 7f f3 10         |     ....^...   |      [126]: "2020-03-29T01:00:00Z" (1585443600) transition_time 0x7e5-0x7ec.7 (8)
0x7e0|                                       00 00 00|             ...|      [127]: "2020-10-25T01:00:00Z" (1603587600) transition_time 0x7ed-0x7f4.7 (8)
0x7f0|00 5f 94 ce 10                                 |._...           |
0x7f0|               00 00 00 00 60 5f d5 10         |     ....`_..   |      [128]: "2021-03-28T01:00:00Z" (1616893200) transition_time 0x7f5-0x7fc.7 (8)
0x7f0|                                       00 00 00|             ...|      [129]: "2021-10-31T01:00:00Z" (1635642000) transition_time 0x7fd-0x804.7 (8)
0x800|00 61 7d ea 90                                 |.a}..           |
0x800|               00 00 00 00 62 3f b7 10         |     ....b?..   |      [130]: "2022-03-27T01:00:00Z" (1648342800) transition_time 0x805-0x80c.7 (8)
0x800|                                       00 00 00|             ...|      [131]: "2022-10-30T01:00:00Z" (1667091600) transition_time 0x80d-0x814.7 (8)
0x810|00 63 5d cc 90                                 |.c]..           |
0x810|               00 00 00 00 64 1f 99 10         |     ....d...   |      [132]: "2023-03-26T01:00:00Z" (1679792400) transition_time 0x815-0x81c.7 (8)
0x810|                                       00 00 00|             ...|      [133]: "2023-10-29T01:00:00Z" (1698541200) transition_time 0x81d-0x824.7 (8)
0x820|00 65 3d ae 90                                 |.e=..           |
0x820|               00 00 00 00 66 08 b5 90         |     ....f...   |      [134]: "2024-03-31T01:00:00Z" (1711846800) transition_time 0x825-0x82c.7 (8)
0x820|                                       00 00 00|             ...|      [135]: "2024-10-27T01:00:00Z" (1729990800) transition_time 0x82d-0x834.7 (8)
0x830|00 67 1d 90 90                                 |.g...           |
0x830|               00 00 00 00 67 e8 97 90         |     ....g...   |      [136]: "2025-03-30T01:00:00Z" (1743296400) transition_time 0x835-0x83c.7 (8)
0x830|                                       00 00 00|             ...|      [137]: "2025-10-26T01:00:00Z" (1761440400) transition_time 0x83d-0x844.7 (8)
0x840|00 68 fd 72 90                                 |.h.r.           |
0x840|               00 00 00 00 69 c8 79 90         |     ....i.y.   |      [138]: "2026-03-29T01:00:00Z" (1774746000) transition_time 0x845-0x84c.7 (8)
0x840|                                       00 00 00|             ...|      [139]: "2026-10-25T01:00:00Z" (1792890000) transition_time 0x84d-0x854.7 (8)
0x850|00 6a dd 54 90                                 |.j.T.           |
0x850|               00 00 00 00 6b a8 5b 90         |     ....k.[.   |      [140]: "2027-03-28T01:00:00Z" (1806195600) transition_time 0x855-0x85c.7 (8)
0x850|                                       00 00 00|             ...|      [141]: "2027-10-31T01:00:00Z" (1824944400) transition_time 0x85d-0x864.7 (8)
0x860|00 6c c6 71 10                                 |.l.q.           |
0x860|               00 00 00 00 6d 88 3d 90         |     ....m.=.   |      [142]: "2028-03-26T01:00:00Z" (1837645200) transition_time 0x865-0x86c.7 (8)
0x860|                                       00 00 00|             ...|      [143]: "2028-10-29T01:00:00Z" (1856394000) transition_time 0x86d-0x874.7 (8)
0x870|00 6e a6 53 10                                 |.n.S.           |
0x870|               00 00 00 00 6f 68 1f 90         |     ....oh..   |      [144]: "2029-03-25T01:00:00Z" (1869094800) transition_time 0x875-0x87c.7 (8)
0x870|                                       00 00 00|             ...|      [145]: "2029-10-28T01:00:00Z" (1887843600) transition_time 0x87d-0x884.7 (8)
0x880|00 70 86 35 10                                 |.p.5.           |
0x880|               00 00 00 00 71 51 3c 10         |     ....qQ<.   |      [146]: "2030-03-31T01:00:00Z" (1901149200) transition_time 0x885-0x88c.7 (8)
0x880|                                       00 00 00|             ...|      [147]: "2030-10-27T01:00:00Z" (1919293200) transition_time 0x88d-0x894.7 (8)
0x890|00 72 66 17 10                                 |.rf..           |
0x890|               00 00 00 00 73 31 1e 10         |     ....s1..   |      [148]: "2031-03-30T01:00:00Z" (1932598800) transition_time 0x895-0x89c.7 (8)
0x890|                                       00 00 00|             ...|      [149]: "2031-10-26T01:00:00Z" (1950742800) transition_time 0x89d-0x8a4.7 (8)
0x8a0|00 74 45 f9 10                                 |.tE..           |
0x8a0|               00 00 00 00 75 11 00 10         |     ....u...   |      [150]: "2032-03-28T01:00:00Z" (1964048400) transition_time 0x8a5-0x8ac.7 (8)
0x8a0|                                       00 00 00|             ...|      [151]: "2032-10-31T01:00:00Z" (1982797200) transition_time 0x8ad-0x8b4.7 (8)
0x8b0|00 76 2f 15 90                                 |.v/..           |
0x8b0|               00 00 00 00 76 f0 e2 10         |     ....v...   |      [152]: "2033-03-27T01:00:00Z" (1995498000) transition_time 0x8b5-0x8bc.7 (8)
0x8b0|                                       00 00 00|             ...|      [153]: "2033-10-30T01:00:00Z" (2014246800) transition_time 0x8bd-0x8c4.7 (8)
0x8c0|00 78 0e f7 90                                 |.x...           |
0x8c0|               00 00 00 00 78 d0 c4 10         |     ....x...   |      [154]: "2034-03-26T01:00:00Z" (2026947600) transition_time 0x8c5-0x8cc.7 (8)
0x8c0|                                       00 00 00|             ...|      [155]: "2034-10-29T01:00:00Z" (2045696400) transition_time 0x8cd-0x8d4.7 (8)
0x8d0|00 79 ee d9 90                                 |.y...           |
0x8d0|               00 00 00 00 7a b0 a6 10         |     ....z...   |      [156]: "2035-03-25T01:00:00Z" (2058397200) transition_time 0x8d5-0x8dc.7 (8)
0x8d0|                                       00 00 00|             ...|      [157]: "2035-10-28T01:00:00Z" (2077146000) transition_time 0x8dd-0x8e4.7 (8)
0x8e0|00 7b ce bb 90                                 |.{...           |
0x8e0|               00 00 00 00 7c 99 c2 90         |     ....|...   |      [158]: "2036-03-30T01:00:00Z" (2090451600) transition_time 0x8e5-0x8ec.7 (8)
0x8e0|                                       00 00 00|             ...|      [159]: "2036-10-26T01:00:00Z" (2108595600) transition_time 0x8ed-0x8f4.7 (8)
0x8f0|00 7d ae 9d 90                                 |.}...           |
0x8f0|               00 00 00 00 7e 79 a4 90         |     ....~y..   |      [160]: "2037-03-29T01:00:00Z" (2121901200) transition_time 0x8f5-0x8fc.7 (8)
0x8f0|                                       00 00 00|             ...|      [161]: "2037-10-25T01:00:00Z" (2140045200) transition_time 0x8fd-0x904.7 (8)
0x900|00 7f 8e 7f 90                                 |.....           |
     |                                               |                |    transition_types[0:162]: 0x905-0x9a6.7 (162)
0x900|               04                              |     .          |      [0]: 4 transition_type 0x905-0x905.7 (1)
0x900|                  01                           |      .         |      [1]: 1 transition_type 0x906-0x906.7 (1)
0x900|                     02                        |       .        |      [2]: 2 transition_type 0x907-0x907.7 (1)
0x900|                        01                     |        .       |      [3]: 1 transition_type 0x908-0x908.7 (1)
0x900|                           02                  |         .      |      [4]: 2 transition_type 0x909-0x909.7 (1)
0x900|                              01               |          .     |      [5]: 1 transition_type 0x90a-0x90a.7 (1)
0x900|                                 02            |           .    |      [6]: 2 transition_type 0x90b-0x90b.7 (1)
0x900|                                    01         |            .   |      [7]: 1 transition_type 0x90c-0x90c.7 (1)
0x900|                                       02      |             .  |      [8]: 2 transition_type 0x90d-0x90d.7 (1)
0x900|                                          01   |              . |      [9]: 1 transition_type 0x90e-0x90e.7 (1)
0x900|                                             02|               .|      [10]: 2 transition_type 0x90f-0x90f.7 (1)
0x910|01                                             |.               |      [11]: 1 transition_type 0x910-0x910.7 (1)
0x910|   02                                          | .              |      [12]: 2 transition_type 0x911-0x911.7 (1)
0x910|      01                                       |  .             |      [13]: 1 transition_type 0x912-0x912.7 (1)
0x910|         02                                    |   .            |      [14]: 2 transition_type 0x913-0x913.7 (1)
0x910|            01                                 |    .           |      [15]: 1 transition_type 0x914-0x914.7 (1)
0x910|               02                              |     .          |      [16]: 2 transition_type 0x915-0x915.7 (1)
0x910|                  01                           |      .         |      [17]: 1 transition_type 0x916-0x916.7 (1)
0x910|                     03                        |       .        |      [18]: 3 transition_type 0x917-0x917.7 (1)
0x910|                        01                     |        .       |      [19]: 1 transition_type 0x918-0x918.7 (1)
0x910|                           02                  |         .      |      [20]: 2 transition_type 0x919-0x919.7 (1)
0x910|                              06               |          .     |      [21]: 6 transition_type 0x91a-0x91a.7 (1)
0x910|                                 05            |           .    |      [22]: 5 transition_type 0x91b-0x91b.7 (1)
0x910|                                    06         |            .   |      [23]: 6 transition_type 0x91c-0x91c.7 (1)
0x910|                                       05      |             .  |      [24]: 5 transition_type 0x91d-0x91d.7 (1)
0x910|                                          06   |              . |      [25]: 6 transition_type 0x91e-0x91e.7 (1)
0x910|                                             05|               .|      [26]: 5 transition_type 0x91f-0x91f.7 (1)
0x920|06                                             |.               |      [27]: 6 transition_type 0x920-0x920.7 (1)
0x920|   05                                          | .              |      [28]: 5 transition_type 0x921-0x921.7 (1)
0x920|      06                                       |  .             |      [29]: 6 transition_type 0x922-0x922.7 (1)
0x920|         05                                    |   .            |      [30]: 5 transition_type 0x923-0x923.7 (1)
0x920|            06                                 |    .           |      [31]: 6 transition_type 0x924-0x924.7 (1)
0x920|               05                              |     .          |      [32]: 5 transition_type 0x925-0x925.7 (1)
0x920|                  06                           |      .         |      [33]: 6 transition_type 0x926-0x926.7 (1)
0x920|                     05                        |       .        |      [34]: 5 transition_type 0x927-0x927.7 (1)
0x920|                        06                     |        .       |      [35]: 6 transition_type 0x928-0x928.7 (1)
0x920|                           05                  |         .      |      [36]: 5 transition_type 0x929-0x929.7 (1)
0x920|                              06               |          .     |      [37]: 6 transition_type 0x92a-0x92a.7 (1)
0x920|                                 05            |           .    |      [38]: 5 transition_type 0x92b-0x92b.7 (1)
0x920|                                    06         |            .   |      [39]: 6 transition_type 0x92c-0x92c.7 (1)
0x920|                                       05      |             .  |      [40]: 5 transition_type 0x92d-0x92d.7 (1)
0x920|                                          06   |              . |      [41]: 6 transition_type 0x92e-0x92e.7 (1)
0x920|                                             07|               .|      [42]: 7 transition_type 0x92f-0x92f.7 (1)
0x930|08                                             |.               |      [43]: 8 transition_type 0x930-0x930.7 (1)
0x930|   09                                          | .              |      [44]: 9 transition_type 0x931-0x931.7 (1)
0x930|      0a                                       |  .             |      [45]: 10 transition_type 0x932-0x932.7 (1)
0x930|         09                                    |   .            |      [46]: 9 transition_type 0x933-0x933.7 (1)
0x930|            0a                                 |    .           |      [47]: 10 transition_type 0x934-0x934.7 (1)
0x930|               09                              |     .          |      [48]: 9 transition_type 0x935-0x935.7 (1)
0x930|                  0a                           |      .         |      [49]: 10 transition_type 0x936-0x936.7 (1)
0x930|                     09                        |       .        |      [50]: 9 transition_type 0x937-0x937.7 (1)
0x930|                        0a                     |        .       |      [51]: 10 transition_type 0x938-0x938.7 (1)
0x930|                           09                  |         .      |      [52]: 9 transition_type 0x939-0x939.7 (1)
0x930|                              0a               |          .     |      [53]: 10 transition_type 0x93a-0x93a.7 (1)
0x930|                                 09            |           .    |      [54]: 9 transition_type 0x93b-0x93b.7 (1)
0x930|                                    0a         |            .   |      [55]: 10 transition_type 0x93c-0x93c.7 (1)
0x930|                                       09      |             .  |      [56]: 9 transition_type 0x93d-0x93d.7 (1)
0x930|                                          0a   |              . |      [57]: 10 transition_type 0x93e-0x93e.7 (1)
0x930|                                             09|               .|      [58]: 9 transition_type 0x93f-0x93f.7 (1)
0x940|0a                                             |.               |      [59]: 10 transition_type 0x940-0x940.7 (1)
0x940|   09                                          | .              |      [60]: 9 transition_type 0x941-0x941.7 (1)
0x940|      0a                                       |  .             |      [61]: 10 transition_type 0x942-0x942.7 (1)
0x940|         09                                    |   .            |      [62]: 9 transition_type 0x943-0x943.7 (1)
0x940|            0a                                 |    .           |      [63]: 10 transition_type 0x944-0x944.7 (1)
0x940|               09                              |     .          |      [64]: 9 transition_type 0x945-0x945.7 (1)
0x940|                  0a                           |      .         |      [65]: 10 transition_type 0x946-0x946.7 (1)
0x940|                     09                        |       .        |      [66]: 9 transition_type 0x947-0x947.7 (1)
0x940|                        0a                     |        .       |      [67]: 10 transition_type 0x948-0x948.7 (1)
0x940|                           09                  |         .      |      [68]: 9 transition_type 0x949-0x949.7 (1)
0x940|                              0a               |          .     |      [69]: 10 transition_type 0x94a-0x94a.7 (1)
0x940|                                 09            |           .    |      [70]: 9 transition_type 0x94b-0x94b.7 (1)
0x940|                                    0a         |            .   |      [71]: 10 transition_type 0x94c-0x94c.7 (1)
0x940|                                       09      |             .  |      [72]: 9 transition_type 0x94d-0x94d.7 (1)
0x940|                                          0a   |              . |      [73]: 10 transition_type 0x94e-0x94e.7 (1)
0x940|                                             09|               .|      [74]: 9 transition_type 0x94f-0x94f.7 (1)
0x950|0a                                             |.               |      [75]: 10 transition_type 0x950-0x950.7 (1)
0x950|   09                                          | .              |      [76]: 9 transition_type 0x951-0x951.7 (1)
0x950|      0a                                       |  .             |      [77]: 10 transition_type 0x952-0x952.7 (1)
0x950|         09                                    |   .            |      [78]: 9 transition_type 0x953-0x953.7 (1)
0x950|            0a                                 |    .           |      [79]: 10 transition_type 0x954-0x954.7 (1)
0x950|               09                              |     .          |      [80]: 9 transition_type 0x955-0x955.7 (1)
0x950|                  0a                           |      .         |      [81]: 10 transition_type 0x956-0x956.7 (1)
0x950|                     09                        |       .        |      [82]: 9 transition_type 0x957-0x957.7 (1)
0x950|                        0a                     |        .       |      [83]: 10 transition_type 0x958-0x958.7 (1)
0x950|                           09                  |         .      |      [84]: 9 transition_type 0x959-0x959.7 (1)
0x950|                              0a               |          .     |      [85]: 10 transition_type 0x95a-0x95a.7 (1)
0x950|                                 09            |           .    |      [86]: 9 transition_type 0x95b-0x95b.7 (1)
0x950|                                    0a         |            .   |      [87]: 10 transition_type 0x95c-0x95c.7 (1)
0x950|                                       09      |             .  |      [88]: 9 transition_type 0x95d-0x95d.7 (1)
0x950|                                          0a   |              . |      [89]: 10 transition_type 0x95e-0x95e.7 (1)
0x950|                                             09|               .|      [90]: 9 transition_type 0x95f-0x95f.7 (1)
0x960|0a                                             |.               |      [91]: 10 transition_type 0x960-0x960.7 (1)
0x960|   09                                          | .              |      [92]: 9 transition_type 0x961-0x961.7 (1)
0x960|      0a                                       |  .             |      [93]: 10 transition_type 0x962-0x962.7 (1)
0x960|         09                                    |   .            |      [94]: 9 transition_type 0x963-0x963.7 (1)
0x960|            0a                                 |    .           |      [95]: 10 transition_type 0x964-0x964.7 (1)
0x960|               09                              |     .          |      [96]: 9 transition_type 0x965-0x965.7 (1)
0x960|                  0a                           |      .         |      [97]: 10 transition_type 0x966-0x966.7 (1)
0x960|                     09                        |       .        |      [98]: 9 transition_type 0x967-0x967.7 (1)
0x960|                        0a                     |        .       |      [99]: 10 transition_type 0x968-0x968.7 (1)
0x960|                           09                  |         .      |      [100]: 9 transition_type 0x969-0x969.7 (1)
0x960|                              0a               |          .     |      [101]: 10 transition_type 0x96a-0x96a.7 (1)
0x960|                                 09            |           .    |      [102]: 9 transition_type 0x96b-0x96b.7 (1)
0x960|                                    0a         |            .   |      [103]: 10 transition_type 0x96c-0x96c.7 (1)
0x960|                                       09      |             .  |      [104]: 9 transition_type 0x96d-0x96d.7 (1)
0x960|                                          0a   |              . |      [105]: 10 transition_type 0x96e-0x96e.7 (1)
0x960|                                             09|               .|      [106]: 9 transition_type 0x96f-0x96f.7 (1)
0x970|0a                                             |.               |      [107]: 10 transition_type 0x970-0x970.7 (1)
0x970|   09                                          | .              |      [108]: 9 transition_type 0x971-0x971.7 (1)
0x970|      0a                                       |  .             |      [109]: 10 transition_type 0x972-0x972.7 (1)
0x970|         09                                    |   .            |      [110]: 9 transition_type 0x973-0x973.7 (1)
0x970|            0a                                 |    .           |      [111]: 10 transition_type 0x974-0x974.7 (1)
0x970|               09                              |     .          |      [112]: 9 transition_type 0x975-0x975.7 (1)
0x970|                  0a                           |      .         |      [113]: 10 transition_type 0x976-0x976.7 (1)
0x970|                     09                        |       .        |      [114]: 9 transition_type 0x977-0x977.7 (1)
0x970|                        0a                     |        .       |      [115]: 10 transition_type 0x978-0x978.7 (1)
0x970|                           09                  |         .      |      [116]: 9 transition_type 0x979-0x979.7 (1)
0x970|                              0a               |          .     |      [117]: 10 transition_type 0x97a-0x97a.7 (1)
0x970|                                 09            |           .    |      [118]: 9 transition_type 0x97b-0x97b.7 (1)
0x970|                                    0a         |            .   |      [119]: 10 transition_type 0x97c-0x97c.7 (1)
0x970|                                       09      |             .  |      [120]: 9 transition_type 0x97d-0x97d.7 (1)
0x970|                                          0a   |              . |      [121]: 10 transition_type 0x97e-0x97e.7 (1)
0x970|                                             09|               .|      [122]: 9 transition_type 0x97f-0x97f.7 (1)
0x980|0a                                             |.               |      [123]: 10 transition_type 0x980-0x980.7 (1)
0x980|   09                                          | .              |      [124]: 9 transition_type 0x981-0x981.7 (1)
0x980|      0a                                       |  .             |      [125]: 10 transition_type 0x982-0x982.7 (1)
0x980|         09                                    |   .            |      [126]: 9 transition_type 0x983-0x983.7 (1)
0x980|            0a                                 |    .           |      [127]: 10 transition_type 0x984-0x984.7 (1)
0x980|               09                              |     .          |      [128]: 9 transition_type 0x985-0x985.7 (1)
0x980|                  0a                           |      .         |      [129]: 10 transition_type 0x986-0x986.7 (1)
0x980|                     09                        |       .        |      [130]: 9 transition_type 0x987-0x987.7 (1)
0x980|                        0a                     |        .       |      [131]: 10 transition_type 0x988-0x988.7 (1)
0x980|                           09                  |         .      |      [132]: 9 transition_type 0x989-0x989.7 (1)
0x980|                              0a               |          .     |      [133]: 10 transition_type 0x98a-0x98a.7 (1)
0x980|                                 09            |           .    |      [134]: 9 transition_type 0x98b-0x98b.7 (1)
0x980|                                    0a         |            .   |      [135]: 10 transition_type 0x98c-0x98c.7 (1)
0x980|                                       09      |             .  |      [136]: 9 transition_type 0x98d-0x98d.7 (1)
0x980|                                          0a   |              . |      [137]: 10 transition_type 0x98e-0x98e.7 (1)
0x980|                                             09|               .|      [138]: 9 transition_type 0x98f-0x98f.7 (1)
0x990|0a                                             |.               |      [139]: 10 transition_type 0x990-0x990.7 (1)
0x990|   09                                          | .              |      [140]: 9 transition_type 0x991-0x991.7 (1)
0x990|      0a                                       |  .             |      [141]: 10 transition_type 0x992-0x992.7 (1)
0x990|         09                                    |   .            |      [142]: 9 transition_type 0x993-0x993.7 (1)
0x990|            0a                                 |    .           |      [143]: 10 transition_type 0x994-0x994.7 (1)
0x990|               09                              |     .          |      [144]: 9 transition_type 0x995-0x995.7 (1)
0x990|                  0a                           |      .         |      [145]: 10 transition_type 0x996-0x996.7 (1)
0x990|                     09                        |       .        |      [146]: 9 transition_type 0x997-0x997.7 (1)
0x990|                        0a                     |        .       |      [147]: 10 transition_type 0x998-0x998.7 (1)
0x990|                           09                  |         .      |      [148]: 9 transition_type 0x999-0x999.7 (1)
0x990|                              0a               |          .     |      [149]: 10 transition_type 0x99a-0x99a.7 (1)
0x990|                                 09            |           .    |      [150]: 9 transition_type 0x99b-0x99b.7 (1)
0x990|                                    0a         |            .   |      [151]: 10 transition_type 0x99c-0x99c.7 (1)
0x990|                                       09      |             .  |      [152]: 9 transition_type 0x99d-0x99d.7 (1)
0x990|                                          0a   |              . |      [153]: 10 transition_type 0x99e-0x99e.7 (1)
0x990|                                             09|               .|      [154]: 9 transition_type 0x99f-0x99f.7 (1)
0x9a0|0a                                             |.               |      [155]: 10 transition_type 0x9a0-0x9a0.7 (1)
0x9a0|   09                                          | .              |      [156]: 9 transition_type 0x9a1-0x9a1.7 (1)
0x9a0|      0a                                       |  .             |      [157]: 10 transition_type 0x9a2-0x9a2.7 (1)
0x9a0|         09                                    |   .            |      [158]: 9 transition_type 0x9a3-0x9a3.7 (1)
0x9a0|            0a                                 |    .           |      [159]: 10 transition_type 0x9a4-0x9a4.7 (1)
0x9a0|               09                              |     .          |      [160]: 9 transition_type 0x9a5-0x9a5.7 (1)
0x9a0|                  0a                           |      .         |      [161]: 10 transition_type 0x9a6-0x9a6.7 (1)
     |                                               |                |    local_time_type_records[0:11]: 0x9a7-0x9e8.7 (66)
     |                                               |                |      [0]{}: local_time_type 0x9a7-0x9ac.7 (6)
0x9a0|                     ff ff fc 8c               |       ....     |        utoff: -884 (valid) 0x9a7-0x9aa.7 (4)
0x9a0|                                 00            |           .    |        dst: 0 (valid) 0x9ab-0x9ab.7 (1)
0x9a0|                                    00         |            .   |        idx: 0 (valid) 0x9ac-0x9ac.7 (1)
     |                                               |                |      [1]{}: local_time_type 0x9ad-0x9b2.7 (6)
0x9a0|                                       00 00 0e|             ...|        utoff: 3600 (valid) 0x9ad-0x9b0.7 (4)
0x9b0|10                                             |.               |
0x9b0|   01                                          | .              |        dst: 1 (valid) 0x9b1-0x9b1.7 (1)
0x9b0|      04                                       |  .             |        idx: 4 (valid) 0x9b2-0x9b2.7 (1)
     |                                               |                |      [2]{}: local_time_type 0x9b3-0x9b8.7 (6)
0x9b0|         00 00 00 00                           |   ....         |        utoff: 0 (valid) 0x9b3-0x9b6.7 (4)
0x9b0|                     00                        |       .        |        dst: 0 (valid) 0x9b7-0x9b7.7 (1)
0x9b0|                        09                     |        .       |        idx: 9 (valid) 0x9b8-0x9b8.7 (1)
     |                                               |                |      [3]{}: local_time_type 0x9b9-0x9be.7 (6)
0x9b0|                           00 00 1c 20         |         ...    |        utoff: 7200 (valid) 0x9b9-0x9bc.7 (4)
0x9b0|                                       01      |             .  |        dst: 1 (valid) 0x9bd-0x9bd.7 (1)
0x9b0|                                          0d   |              . |        idx: 13 (valid) 0x9be-0x9be.7 (1)
     |                                               |                |      [4]{}: local_time_type 0x9bf-0x9c4.7 (6)
0x9b0|                                             00|               .|        utoff: 0 (valid) 0x9bf-0x9c2.7 (4)
0x9c0|00 00 00                                       |...             |
0x9c0|         00                                    |   .            |        dst: 0 (valid) 0x9c3-0x9c3.7 (1)
0x9c0|            09                                 |    .           |        idx: 9 (valid) 0x9c4-0x9c4.7 (1)
     |                                               |                |      [5]{}: local_time_type 0x9c5-0x9ca.7 (6)
0x9c0|               00 00 1c 20                     |     ...        |        utoff: 7200 (valid) 0x9c5-0x9c8.7 (4)
0x9c0|                           01                  |         .      |        dst: 1 (valid) 0x9c9-0x9c9.7 (1)
0x9c0|                              12               |          .     |        idx: 18 (valid) 0x9ca-0x9ca.7 (1)
     |                                               |                |      [6]{}: local_time_type 0x9cb-0x9d0.7 (6)
0x9c0|                                 00 00 0e 10   |           .... |        utoff: 3600 (valid) 0x9cb-0x9ce.7 (4)
0x9c0|                                             00|               .|        dst: 0 (valid) 0x9cf-0x9cf.7 (1)
0x9d0|17                                             |.               |        idx: 23 (valid) 0x9d0-0x9d0.7 (1)
     |                                               |                |      [7]{}: local_time_type 0x9d1-0x9d6.7 (6)
0x9d0|   00 00 1c 20                                 | ...            |        utoff: 7200 (valid) 0x9d1-0x9d4.7 (4)
0x9d0|               01                              |     .          |        dst: 1 (valid) 0x9d5-0x9d5.7 (1)
0x9d0|                  12                           |      .         |        idx: 18 (valid) 0x9d6-0x9d6.7 (1)
     |                                               |                |      [8]{}: local_time_type 0x9d7-0x9dc.7 (6)
0x9d0|                     00 00 0e 10               |       ....     |        utoff: 3600 (valid) 0x9d7-0x9da.7 (4)
0x9d0|                                 00            |           .    |        dst: 0 (valid) 0x9db-0x9db.7 (1)
0x9d0|                                    17         |            .   |        idx: 23 (valid) 0x9dc-0x9dc.7 (1)
     |                                               |                |      [9]{}: local_time_type 0x9dd-0x9e2.7 (6)
0x9d0|                                       00 00 1c|             ...|        utoff: 7200 (valid) 0x9dd-0x9e0.7 (4)
0x9e0|20                                             |                |
0x9e0|   01                                          | .              |        dst: 1 (valid) 0x9e1-0x9e1.7 (1)
0x9e0|      12                                       |  .             |        idx: 18 (valid) 0x9e2-0x9e2.7 (1)
     |                                               |                |      [10]{}: local_time_type 0x9e3-0x9e8.7 (6)
0x9e0|         00 00 0e 10                           |   ....         |        utoff: 3600 (valid) 0x9e3-0x9e6.7 (4)
0x9e0|                     00                        |       .        |        dst: 0 (valid) 0x9e7-0x9e7.7 (1)
0x9e0|                        17                     |        .       |        idx: 23 (valid) 0x9e8-0x9e8.7 (1)
     |                                               |                |    time_zone_designations[0:6]: 0x9e9-0xa03.7 (27)
0x9e0|                           4c 4d 54 00         |         LMT.   |      [0]: "LMT" time_zone_designation 0x9e9-0x9ec.7 (4)
0x9e0|                                       57 45 53|             WES|      [1]: "WEST" time_zone_designation 0x9ed-0x9f1.7 (5)
0x9f0|54 00                                          |T.              |
0x9f0|      57 45 54 00                              |  WET.          |      [2]: "WET" time_zone_designation 0x9f2-0x9f5.7 (4)
0x9f0|                  57 45 4d 54 00               |      WEMT.     |      [3]: "WEMT" time_zone_designation 0x9f6-0x9fa.7 (5)
0x9f0|                                 43 45 53 54 00|           CEST.|      [4]: "CEST" time_zone_designation 0x9fb-0x9ff.7 (5)
0xa00|43 45 54 00                                    |CET.            |      [5]: "CET" time_zone_designation 0xa00-0xa03.7 (4)
     |                                               |                |    leap_second_records[0:0]: 0xa04-NA (0)
     |                                               |                |    standard_wall_indicators[0:11]: 0xa04-0xa0e.7 (11)
0xa00|            00                                 |    .           |      [0]: 0 standard_wall_indicator (valid) 0xa04-0xa04.7 (1)
0xa00|               00                              |     .          |      [1]: 0 standard_wall_indicator (valid) 0xa05-0xa05.7 (1)
0xa00|                  01                           |      .         |      [2]: 1 standard_wall_indicator (valid) 0xa06-0xa06.7 (1)
0xa00|                     00                        |       .        |      [3]: 0 standard_wall_indicator (valid) 0xa07-0xa07.7 (1)
0xa00|                        01                     |        .       |      [4]: 1 standard_wall_indicator (valid) 0xa08-0xa08.7 (1)
0xa00|                           00                  |         .      |      [5]: 0 standard_wall_indicator (valid) 0xa09-0xa09.7 (1)
0xa00|                              00               |          .     |      [6]: 0 standard_wall_indicator (valid) 0xa0a-0xa0a.7 (1)
0xa00|                                 01            |           .    |      [7]: 1 standard_wall_indicator (valid) 0xa0b-0xa0b.7 (1)
0xa00|                                    01         |            .   |      [8]: 1 standard_wall_indicator (valid) 0xa0c-0xa0c.7 (1)
0xa00|                                       01      |             .  |      [9]: 1 standard_wall_indicator (valid) 0xa0d-0xa0d.7 (1)
0xa00|                                          01   |              . |      [10]: 1 standard_wall_indicator (valid) 0xa0e-0xa0e.7 (1)
     |                                               |                |    ut_local_indicators[0:11]: 0xa0f-0xa19.7 (11)
0xa00|                                             00|               .|      [0]: 0 ut_local_indicator (valid) 0xa0f-0xa0f.7 (1)
0xa10|00                                             |.               |      [1]: 0 ut_local_indicator (valid) 0xa10-0xa10.7 (1)
0xa10|   00                                          | .              |      [2]: 0 ut_local_indicator (valid) 0xa11-0xa11.7 (1)
0xa10|      00                                       |  .             |      [3]: 0 ut_local_indicator (valid) 0xa12-0xa12.7 (1)
0xa10|         01                                    |   .            |      [4]: 1 ut_local_indicator (valid) 0xa13-0xa13.7 (1)
0xa10|            00                                 |    .           |      [5]: 0 ut_local_indicator (valid) 0xa14-0xa14.7 (1)
0xa10|               00                              |     .          |      [6]: 0 ut_local_indicator (valid) 0xa15-0xa15.7 (1)
0xa10|                  00                           |      .         |      [7]: 0 ut_local_indicator (valid) 0xa16-0xa16.7 (1)
0xa10|                     00                        |       .        |      [8]: 0 ut_local_indicator (valid) 0xa17-0xa17.7 (1)
0xa10|                        01                     |        .       |      [9]: 1 ut_local_indicator (valid) 0xa18-0xa18.7 (1)
0xa10|                           01                  |         .      |      [10]: 1 ut_local_indicator (valid) 0xa19-0xa19.7 (1)
     |                                               |                |  footer{}: 0xa1a-0xa35.7 (28)
0xa10|                              0a               |          .     |    nl1: 10 (valid) 0xa1a-0xa1a.7 (1)
0xa10|                                 43 45 54 2d 31|           CET-1|    tz_string: "CET-1CEST,M3.5.0,M10.5.0/3" 0xa1b-0xa34.7 (26)
0xa20|43 45 53 54 2c 4d 33 2e 35 2e 30 2c 4d 31 30 2e|CEST,M3.5.0,M10.|
0xa30|35 2e 30 2f 33                                 |5.0/3           |
0xa30|               0a|                             |     .|         |    nl2: 10 (valid) 0xa35-0xa35.7 (1)
