$ fq -d tzif dv Magadan
     |00 01 02 03 04 05 06 07 08 09 0a 0b 0c 0d 0e 0f|0123456789abcdef|.{}: Magadan (tzif) 0x0-0x6d9.7 (1754)
     |                                               |                |  v1header{}: 0x0-0x2b.7 (44)
0x000|54 5a 69 66                                    |TZif            |    magic: 0x545a6966 (valid) 0x0-0x3.7 (4)
0x000|            32                                 |    2           |    ver: "2" (0x32) (valid) 0x4-0x4.7 (1)
0x000|               00 00 00 00 00 00 00 00 00 00 00|     ...........|    reserved: raw bits 0x5-0x13.7 (15)
0x010|00 00 00 00                                    |....            |
0x010|            00 00 00 00                        |    ....        |    isutcnt: 0 0x14-0x17.7 (4)
0x010|                        00 00 00 0b            |        ....    |    isstdcnt: 11 0x18-0x1b.7 (4)
0x010|                                    00 00 00 1b|            ....|    leapcnt: 27 0x1c-0x1f.7 (4)
0x020|00 00 00 43                                    |...C            |    timecnt: 67 0x20-0x23.7 (4)
0x020|            00 00 00 0b                        |    ....        |    typecnt: 11 0x24-0x27.7 (4)
0x020|                        00 00 00 10            |        ....    |    charcnt: 16 0x28-0x2b.7 (4)
     |                                               |                |  v1datablock{}: 0x2c-0x2af.7 (644)
     |                                               |                |    transition_times[0:67]: 0x2c-0x137.7 (268)
0x020|                                    aa 19 36 a0|            ..6.|      [0]: "1924-05-01T13:56:48Z" (-1441188192) transition_time 0x2c-0x2f.7 (4)
0x030|b5 a3 a8 e0                                    |....            |      [1]: "1930-06-20T14:00:00Z" (-1247565600) transition_time 0x30-0x33.7 (4)
0x030|            15 27 37 59                        |    .'7Y        |      [2]: "1981-03-31T13:00:09Z" (354891609) transition_time 0x34-0x37.7 (4)
0x030|                        16 18 6b ca            |        ..k.    |      [3]: "1981-09-30T12:00:10Z" (370699210) transition_time 0x38-0x3b.7 (4)
0x030|                                    17 08 6a da|            ..j.|      [4]: "1982-03-31T13:00:10Z" (386427610) transition_time 0x3c-0x3f.7 (4)
0x040|17 f9 9f 4b                                    |...K            |      [5]: "1982-09-30T12:00:11Z" (402235211) transition_time 0x40-0x43.7 (4)
0x040|            18 e9 9e 5b                        |    ...[        |      [6]: "1983-03-31T13:00:11Z" (417963611) transition_time 0x44-0x47.7 (4)
0x040|                        19 da d2 cc            |        ....    |      [7]: "1983-09-30T12:00:12Z" (433771212) transition_time 0x48-0x4b.7 (4)
0x040|                                    1a cc 23 5c|            ..#\|      [8]: "1984-03-31T13:00:12Z" (449586012) transition_time 0x4c-0x4f.7 (4)
0x050|1b bc 30 7c                                    |..0|            |      [9]: "1984-09-29T15:00:12Z" (465318012) transition_time 0x50-0x53.7 (4)
0x050|            1c ac 21 7c                        |    ..!|        |      [10]: "1985-03-30T15:00:12Z" (481042812) transition_time 0x54-0x57.7 (4)
0x050|                        1d 9c 12 7d            |        ...}    |      [11]: "1985-09-28T15:00:13Z" (496767613) transition_time 0x58-0x5b.7 (4)
0x050|                                    1e 8c 03 7d|            ...}|      [12]: "1986-03-29T15:00:13Z" (512492413) transition_time 0x5c-0x5f.7 (4)
0x060|1f 7b f4 7d                                    |.{.}            |      [13]: "1986-09-27T15:00:13Z" (528217213) transition_time 0x60-0x63.7 (4)
0x060|            20 6b e5 7d                        |     k.}        |      [14]: "1987-03-28T15:00:13Z" (543942013) transition_time 0x64-0x67.7 (4)
0x060|                        21 5b d6 7d            |        ![.}    |      [15]: "1987-09-26T15:00:13Z" (559666813) transition_time 0x68-0x6b.7 (4)
0x060|                                    22 4b c7 7e|            "K.~|      [16]: "1988-03-26T15:00:14Z" (575391614) transition_time 0x6c-0x6f.7 (4)
0x070|23 3b b8 7e                                    |#;.~            |      [17]: "1988-09-24T15:00:14Z" (591116414) transition_time 0x70-0x73.7 (4)
0x070|            24 2b a9 7e                        |    $+.~        |      [18]: "1989-03-25T15:00:14Z" (606841214) transition_time 0x74-0x77.7 (4)
0x070|                        25 1b 9a 7e            |        %..~    |      [19]: "1989-09-23T15:00:14Z" (622566014) transition_time 0x78-0x7b.7 (4)
0x070|                                    26 0b 8b 7f|            &...|      [20]: "1990-03-24T15:00:15Z" (638290815) transition_time 0x7c-0x7f.7 (4)
0x080|27 04 b6 ff                                    |'...            |      [21]: "1990-09-29T15:00:15Z" (654620415) transition_time 0x80-0x83.7 (4)
0x080|            27 f4 a8 00                        |    '...        |      [22]: "1991-03-30T15:00:16Z" (670345216) transition_time 0x84-0x87.7 (4)
0x080|                        28 e4 a7 10            |        (...    |      [23]: "1991-09-28T16:00:16Z" (686073616) transition_time 0x88-0x8b.7 (4)
0x080|                                    29 78 4f 10|            )xO.|      [24]: "1992-01-18T16:00:16Z" (695750416) transition_time 0x8c-0x8f.7 (4)
0x090|29 d4 8a 00                                    |)...            |      [25]: "1992-03-28T15:00:16Z" (701794816) transition_time 0x90-0x93.7 (4)
0x090|            2a c4 7b 01                        |    *.{.        |      [26]: "1992-09-26T15:00:17Z" (717519617) transition_time 0x94-0x97.7 (4)
0x090|                        2b b4 6c 01            |        +.l.    |      [27]: "1993-03-27T15:00:17Z" (733244417) transition_time 0x98-0x9b.7 (4)
0x090|                                    2c a4 5d 02|            ,.].|      [28]: "1993-09-25T15:00:18Z" (748969218) transition_time 0x9c-0x9f.7 (4)
0x0a0|2d 94 4e 02                                    |-.N.            |      [29]: "1994-03-26T15:00:18Z" (764694018) transition_time 0xa0-0xa3.7 (4)
0x0a0|            2e 84 3f 03                        |    ..?.        |      [30]: "1994-09-24T15:00:19Z" (780418819) transition_time 0xa4-0xa7.7 (4)
0x0a0|                        2f 74 30 03            |        /t0.    |      [31]: "1995-03-25T15:00:19Z" (796143619) transition_time 0xa8-0xab.7 (4)
0x0a0|                                    30 64 21 03|            0d!.|      [32]: "1995-09-23T15:00:19Z" (811868419) transition_time 0xac-0xaf.7 (4)
0x0b0|31 5d 4c 84                                    |1]L.            |      [33]: "1996-03-30T15:00:20Z" (828198020) transition_time 0xb0-0xb3.7 (4)
0x0b0|            32 72 27 84                        |    2r'.        |      [34]: "1996-10-26T15:00:20Z" (846342020) transition_time 0xb4-0xb7.7 (4)
0x0b0|                        33 3d 2e 84            |        3=..    |      [35]: "1997-03-29T15:00:20Z" (859647620) transition_time 0xb8-0xbb.7 (4)
0x0b0|                                    34 52 09 85|            4R..|      [36]: "1997-10-25T15:00:21Z" (877791621) transition_time 0xbc-0xbf.7 (4)
0x0c0|35 1d 10 85                                    |5...            |      [37]: "1998-03-28T15:00:21Z" (891097221) transition_time 0xc0-0xc3.7 (4)
0x0c0|            36 31 eb 85                        |    61..        |      [38]: "1998-10-24T15:00:21Z" (909241221) transition_time 0xc4-0xc7.7 (4)
0x0c0|                        36 fc f2 86            |        6...    |      [39]: "1999-03-27T15:00:22Z" (922546822) transition_time 0xc8-0xcb.7 (4)
0x0c0|                                    38 1b 08 06|            8...|      [40]: "1999-10-30T15:00:22Z" (941295622) transition_time 0xcc-0xcf.7 (4)
0x0d0|38 dc d4 86                                    |8...            |      [41]: "2000-03-25T15:00:22Z" (953996422) transition_time 0xd0-0xd3.7 (4)
0x0d0|            39 fa ea 06                        |    9...        |      [42]: "2000-10-28T15:00:22Z" (972745222) transition_time 0xd4-0xd7.7 (4)
0x0d0|                        3a bc b6 86            |        :...    |      [43]: "2001-03-24T15:00:22Z" (985446022) transition_time 0xd8-0xdb.7 (4)
0x0d0|                                    3b da cc 06|            ;...|      [44]: "2001-10-27T15:00:22Z" (1004194822) transition_time 0xdc-0xdf.7 (4)
0x0e0|3c a5 d3 06                                    |<...            |      [45]: "2002-03-30T15:00:22Z" (1017500422) transition_time 0xe0-0xe3.7 (4)
0x0e0|            3d ba ae 06                        |    =...        |      [46]: "2002-10-26T15:00:22Z" (1035644422) transition_time 0xe4-0xe7.7 (4)
0x0e0|                        3e 85 b5 06            |        >...    |      [47]: "2003-03-29T15:00:22Z" (1048950022) transition_time 0xe8-0xeb.7 (4)
0x0e0|                                    3f 9a 90 06|            ?...|      [48]: "2003-10-25T15:00:22Z" (1067094022) transition_time 0xec-0xef.7 (4)
0x0f0|40 65 97 06                                    |@e..            |      [49]: "2004-03-27T15:00:22Z" (1080399622) transition_time 0xf0-0xf3.7 (4)
0x0f0|            41 83 ac 86                        |    A...        |      [50]: "2004-10-30T15:00:22Z" (1099148422) transition_time 0xf4-0xf7.7 (4)
0x0f0|                        42 45 79 06            |        BEy.    |      [51]: "2005-03-26T15:00:22Z" (1111849222) transition_time 0xf8-0xfb.7 (4)
0x0f0|                                    43 63 8e 86|            Cc..|      [52]: "2005-10-29T15:00:22Z" (1130598022) transition_time 0xfc-0xff.7 (4)
0x100|44 25 5b 07                                    |D%[.            |      [53]: "2006-03-25T15:00:23Z" (1143298823) transition_time 0x100-0x103.7 (4)
0x100|            45 43 70 87                        |    ECp.        |      [54]: "2006-10-28T15:00:23Z" (1162047623) transition_time 0x104-0x107.7 (4)
0x100|                        46 05 3d 07            |        F.=.    |      [55]: "2007-03-24T15:00:23Z" (1174748423) transition_time 0x108-0x10b.7 (4)
0x100|                                    47 23 52 87|            G#R.|      [56]: "2007-10-27T15:00:23Z" (1193497223) transition_time 0x10c-0x10f.7 (4)
0x110|47 ee 59 87                                    |G.Y.            |      [57]: "2008-03-29T15:00:23Z" (1206802823) transition_time 0x110-0x113.7 (4)
0x110|            49 03 34 87                        |    I.4.        |      [58]: "2008-10-25T15:00:23Z" (1224946823) transition_time 0x114-0x117.7 (4)
0x110|                        49 ce 3b 88            |        I.;.    |      [59]: "2009-03-28T15:00:24Z" (1238252424) transition_time 0x118-0x11b.7 (4)
0x110|                                    4a e3 16 88|            J...|      [60]: "2009-10-24T15:00:24Z" (1256396424) transition_time 0x11c-0x11f.7 (4)
0x120|4b ae 1d 88                                    |K...            |      [61]: "2010-03-27T15:00:24Z" (1269702024) transition_time 0x120-0x123.7 (4)
0x120|            4c cc 33 08                        |    L.3.        |      [62]: "2010-10-30T15:00:24Z" (1288450824) transition_time 0x124-0x127.7 (4)
0x120|                        4d 8d ff 88            |        M...    |      [63]: "2011-03-26T15:00:24Z" (1301151624) transition_time 0x128-0x12b.7 (4)
0x120|                                    54 4b ac f9|            TK..|      [64]: "2014-10-25T14:00:25Z" (1414245625) transition_time 0x12c-0x12f.7 (4)
0x130|57 1b 9c 1a                                    |W...            |      [65]: "2016-04-23T16:00:26Z" (1461427226) transition_time 0x130-0x133.7 (4)
0x130|            64 9b 78 1b                        |    d.x.        |      [66]: "2023-06-28T00:00:27Z" (1687910427) transition_time 0x134-0x137.7 (4)
     |                                               |                |    transition_types[0:67]: 0x138-0x17a.7 (67)
0x130|                        01                     |        .       |      [0]: 1 transition_type 0x138-0x138.7 (1)
0x130|                           03                  |         .      |      [1]: 3 transition_type 0x139-0x139.7 (1)
0x130|                              02               |          .     |      [2]: 2 transition_type 0x13a-0x13a.7 (1)
0x130|                                 03            |           .    |      [3]: 3 transition_type 0x13b-0x13b.7 (1)
0x130|                                    02         |            .   |      [4]: 2 transition_type 0x13c-0x13c.7 (1)
0x130|                                       03      |             .  |      [5]: 3 transition_type 0x13d-0x13d.7 (1)
0x130|                                          02   |              . |      [6]: 2 transition_type 0x13e-0x13e.7 (1)
0x130|                                             03|               .|      [7]: 3 transition_type 0x13f-0x13f.7 (1)
0x140|02                                             |.               |      [8]: 2 transition_type 0x140-0x140.7 (1)
0x140|   04                                          | .              |      [9]: 4 transition_type 0x141-0x141.7 (1)
0x140|      05                                       |  .             |      [10]: 5 transition_type 0x142-0x142.7 (1)
0x140|         04                                    |   .            |      [11]: 4 transition_type 0x143-0x143.7 (1)
0x140|            05                                 |    .           |      [12]: 5 transition_type 0x144-0x144.7 (1)
0x140|               04                              |     .          |      [13]: 4 transition_type 0x145-0x145.7 (1)
0x140|                  05                           |      .         |      [14]: 5 transition_type 0x146-0x146.7 (1)
0x140|                     04                        |       .        |      [15]: 4 transition_type 0x147-0x147.7 (1)
0x140|                        05                     |        .       |      [16]: 5 transition_type 0x148-0x148.7 (1)
0x140|                           04                  |         .      |      [17]: 4 transition_type 0x149-0x149.7 (1)
0x140|                              05               |          .     |      [18]: 5 transition_type 0x14a-0x14a.7 (1)
0x140|                                 04            |           .    |      [19]: 4 transition_type 0x14b-0x14b.7 (1)
0x140|                                    05         |            .   |      [20]: 5 transition_type 0x14c-0x14c.7 (1)
0x140|                                       04      |             .  |      [21]: 4 transition_type 0x14d-0x14d.7 (1)
0x140|                                          06   |              . |      [22]: 6 transition_type 0x14e-0x14e.7 (1)
0x140|                                             07|               .|      [23]: 7 transition_type 0x14f-0x14f.7 (1)
0x150|04                                             |.               |      [24]: 4 transition_type 0x150-0x150.7 (1)
0x150|   05                                          | .              |      [25]: 5 transition_type 0x151-0x151.7 (1)
0x150|      04                                       |  .             |      [26]: 4 transition_type 0x152-0x152.7 (1)
0x150|         05                                    |   .            |      [27]: 5 transition_type 0x153-0x153.7 (1)
0x150|            04                                 |    .           |      [28]: 4 transition_type 0x154-0x154.7 (1)
0x150|               05                              |     .          |      [29]: 5 transition_type 0x155-0x155.7 (1)
0x150|                  04                           |      .         |      [30]: 4 transition_type 0x156-0x156.7 (1)
0x150|                     05                        |       .        |      [31]: 5 transition_type 0x157-0x157.7 (1)
0x150|                        04                     |        .       |      [32]: 4 transition_type 0x158-0x158.7 (1)
0x150|                           05                  |         .      |      [33]: 5 transition_type 0x159-0x159.7 (1)
0x150|                              04               |          .     |      [34]: 4 transition_type 0x15a-0x15a.7 (1)
0x150|                                 05            |           .    |      [35]: 5 transition_type 0x15b-0x15b.7 (1)
0x150|                                    04         |            .   |      [36]: 4 transition_type 0x15c-0x15c.7 (1)
0x150|                                       05      |             .  |      [37]: 5 transition_type 0x15d-0x15d.7 (1)
0x150|                                          04   |              . |      [38]: 4 transition_type 0x15e-0x15e.7 (1)
0x150|                                             05|               .|      [39]: 5 transition_type 0x15f-0x15f.7 (1)
0x160|04                                             |.               |      [40]: 4 transition_type 0x160-0x160.7 (1)
0x160|   05                                          | .              |      [41]: 5 transition_type 0x161-0x161.7 (1)
0x160|      04                                       |  .             |      [42]: 4 transition_type 0x162-0x162.7 (1)
0x160|         05                                    |   .            |      [43]: 5 transition_type 0x163-0x163.7 (1)
0x160|            04                                 |    .           |      [44]: 4 transition_type 0x164-0x164.7 (1)
0x160|               05                              |     .          |      [45]: 5 transition_type 0x165-0x165.7 (1)
0x160|                  04                           |      .         |      [46]: 4 transition_type 0x166-0x166.7 (1)
0x160|                     05                        |       .        |      [47]: 5 transition_type 0x167-0x167.7 (1)
0x160|                        04                     |        .       |      [48]: 4 transition_type 0x168-0x168.7 (1)
0x160|                           05                  |         .      |      [49]: 5 transition_type 0x169-0x169.7 (1)
0x160|                              04               |          .     |      [50]: 4 transition_type 0x16a-0x16a.7 (1)
0x160|                                 05            |           .    |      [51]: 5 transition_type 0x16b-0x16b.7 (1)
0x160|                                    04         |            .   |      [52]: 4 transition_type 0x16c-0x16c.7 (1)
0x160|                                       05      |             .  |      [53]: 5 transition_type 0x16d-0x16d.7 (1)
0x160|                                          04   |              . |      [54]: 4 transition_type 0x16e-0x16e.7 (1)
0x160|                                             05|               .|      [55]: 5 transition_type 0x16f-0x16f.7 (1)
0x170|04                                             |.               |      [56]: 4 transition_type 0x170-0x170.7 (1)
0x170|   05                                          | .              |      [57]: 5 transition_type 0x171-0x171.7 (1)
0x170|      04                                       |  .             |      [58]: 4 transition_type 0x172-0x172.7 (1)
0x170|         05                                    |   .            |      [59]: 5 transition_type 0x173-0x173.7 (1)
0x170|            04                                 |    .           |      [60]: 4 transition_type 0x174-0x174.7 (1)
0x170|               05                              |     .          |      [61]: 5 transition_type 0x175-0x175.7 (1)
0x170|                  04                           |      .         |      [62]: 4 transition_type 0x176-0x176.7 (1)
0x170|                     08                        |       .        |      [63]: 8 transition_type 0x177-0x177.7 (1)
0x170|                        07                     |        .       |      [64]: 7 transition_type 0x178-0x178.7 (1)
0x170|                           04                  |         .      |      [65]: 4 transition_type 0x179-0x179.7 (1)
0x170|                              04               |          .     |      [66]: 4 transition_type 0x17a-0x17a.7 (1)
     |                                               |                |    local_time_type_records[0:11]: 0x17b-0x1bc.7 (66)
     |                                               |                |      [0]{}: local_time_type 0x17b-0x180.7 (6)
0x170|                                 00 00 8d 60   |           ...` |        utoff: 36192 (valid) 0x17b-0x17e.7 (4)
0x170|                                             00|               .|        dst: 0 (valid) 0x17f-0x17f.7 (1)
0x180|00                                             |.               |        idx: 0 (valid) 0x180-0x180.7 (1)
     |                                               |                |      [1]{}: local_time_type 0x181-0x186.7 (6)
0x180|   00 00 8c a0                                 | ....           |        utoff: 36000 (valid) 0x181-0x184.7 (4)
0x180|               00                              |     .          |        dst: 0 (valid) 0x185-0x185.7 (1)
0x180|                  04                           |      .         |        idx: 4 (valid) 0x186-0x186.7 (1)
     |                                               |                |      [2]{}: local_time_type 0x187-0x18c.7 (6)
0x180|                     00 00 a8 c0               |       ....     |        utoff: 43200 (valid) 0x187-0x18a.7 (4)
0x180|                                 01            |           .    |        dst: 1 (valid) 0x18b-0x18b.7 (1)
0x180|                                    08         |            .   |        idx: 8 (valid) 0x18c-0x18c.7 (1)
     |                                               |                |      [3]{}: local_time_type 0x18d-0x192.7 (6)
0x180|                                       00 00 9a|             ...|        utoff: 39600 (valid) 0x18d-0x190.7 (4)
0x190|b0                                             |.               |
0x190|   00                                          | .              |        dst: 0 (valid) 0x191-0x191.7 (1)
0x190|      0c                                       |  .             |        idx: 12 (valid) 0x192-0x192.7 (1)
     |                                               |                |      [4]{}: local_time_type 0x193-0x198.7 (6)
0x190|         00 00 9a b0                           |   ....         |        utoff: 39600 (valid) 0x193-0x196.7 (4)
0x190|                     00                        |       .        |        dst: 0 (valid) 0x197-0x197.7 (1)
0x190|                        0c                     |        .       |        idx: 12 (valid) 0x198-0x198.7 (1)
     |                                               |                |      [5]{}: local_time_type 0x199-0x19e.7 (6)
0x190|                           00 00 a8 c0         |         ....   |        utoff: 43200 (valid) 0x199-0x19c.7 (4)
0x190|                                       01      |             .  |        dst: 1 (valid) 0x19d-0x19d.7 (1)
0x190|                                          08   |              . |        idx: 8 (valid) 0x19e-0x19e.7 (1)
     |                                               |                |      [6]{}: local_time_type 0x19f-0x1a4.7 (6)
0x190|                                             00|               .|        utoff: 39600 (valid) 0x19f-0x1a2.7 (4)
0x1a0|00 9a b0                                       |...             |
0x1a0|         01                                    |   .            |        dst: 1 (valid) 0x1a3-0x1a3.7 (1)
0x1a0|            0c                                 |    .           |        idx: 12 (valid) 0x1a4-0x1a4.7 (1)
     |                                               |                |      [7]{}: local_time_type 0x1a5-0x1aa.7 (6)
0x1a0|               00 00 8c a0                     |     ....       |        utoff: 36000 (valid) 0x1a5-0x1a8.7 (4)
0x1a0|                           00                  |         .      |        dst: 0 (valid) 0x1a9-0x1a9.7 (1)
0x1a0|                              04               |          .     |        idx: 4 (valid) 0x1aa-0x1aa.7 (1)
     |                                               |                |      [8]{}: local_time_type 0x1ab-0x1b0.7 (6)
0x1a0|                                 00 00 a8 c0   |           .... |        utoff: 43200 (valid) 0x1ab-0x1ae.7 (4)
0x1a0|                                             00|               .|        dst: 0 (valid) 0x1af-0x1af.7 (1)
0x1b0|08                                             |.               |        idx: 8 (valid) 0x1b0-0x1b0.7 (1)
     |                                               |                |      [9]{}: local_time_type 0x1b1-0x1b6.7 (6)
0x1b0|   00 00 a8 c0                                 | ....           |        utoff: 43200 (valid) 0x1b1-0x1b4.7 (4)
0x1b0|               01                              |     .          |        dst: 1 (valid) 0x1b5-0x1b5.7 (1)
0x1b0|                  08                           |      .         |        idx: 8 (valid) 0x1b6-0x1b6.7 (1)
     |                                               |                |      [10]{}: local_time_type 0x1b7-0x1bc.7 (6)
0x1b0|                     00 00 9a b0               |       ....     |        utoff: 39600 (valid) 0x1b7-0x1ba.7 (4)
0x1b0|                                 00            |           .    |        dst: 0 (valid) 0x1bb-0x1bb.7 (1)
0x1b0|                                    0c         |            .   |        idx: 12 (valid) 0x1bc-0x1bc.7 (1)
     |                                               |                |    time_zone_designations[0:4]: 0x1bd-0x1cc.7 (16)
0x1b0|                                       4c 4d 54|             LMT|      [0]: "LMT" time_zone_designation 0x1bd-0x1c0.7 (4)
0x1c0|00                                             |.               |
0x1c0|   2b 31 30 00                                 | +10.           |      [1]: "+10" time_zone_designation 0x1c1-0x1c4.7 (4)
0x1c0|               2b 31 32 00                     |     +12.       |      [2]: "+12" time_zone_designation 0x1c5-0x1c8.7 (4)
0x1c0|                           2b 31 31 00         |         +11.   |      [3]: "+11" time_zone_designation 0x1c9-0x1cc.7 (4)
     |                                               |                |    leap_second_records[0:27]: 0x1cd-0x2a4.7 (216)
     |                                               |                |      [0]{}: leap_second_record 0x1cd-0x1d4.7 (8)
0x1c0|                                       04 b2 58|             ..X|        occur: "1972-07-01T00:00:00Z" (78796800) 0x1cd-0x1d0.7 (4)
0x1d0|00                                             |.               |
0x1d0|   00 00 00 01                                 | ....           |        corr: 1 0x1d1-0x1d4.7 (4)
     |                                               |                |      [1]{}: leap_second_record 0x1d5-0x1dc.7 (8)
0x1d0|               05 a4 ec 01                     |     ....       |        occur: "1973-01-01T00:00:01Z" (94694401) 0x1d5-0x1d8.7 (4)
0x1d0|                           00 00 00 02         |         ....   |        corr: 2 0x1d9-0x1dc.7 (4)
     |                                               |                |      [2]{}: leap_second_record 0x1dd-0x1e4.7 (8)
0x1d0|                                       07 86 1f|             ...|        occur: "1974-01-01T00:00:02Z" (126230402) 0x1dd-0x1e0.7 (4)
0x1e0|82                                             |.               |
0x1e0|   00 00 00 03                                 | ....           |        corr: 3 0x1e1-0x1e4.7 (4)
     |                                               |                |      [3]{}: leap_second_record 0x1e5-0x1ec.7 (8)
0x1e0|               09 67 53 03                     |     .gS.       |        occur: "1975-01-01T00:00:03Z" (157766403) 0x1e5-0x1e8.7 (4)
0x1e0|                           00 00 00 04         |         ....   |        corr: 4 0x1e9-0x1ec.7 (4)
     |                                               |                |      [4]{}: leap_second_record 0x1ed-0x1f4.7 (8)
0x1e0|                                       0b 48 86|             .H.|        occur: "1976-01-01T00:00:04Z" (189302404) 0x1ed-0x1f0.7 (4)
0x1f0|84                                             |.               |
0x1f0|   00 00 00 05                                 | ....           |        corr: 5 0x1f1-0x1f4.7 (4)
     |                                               |                |      [5]{}: leap_second_record 0x1f5-0x1fc.7 (8)
0x1f0|               0d 2b 0b 85                     |     .+..       |        occur: "1977-01-01T00:00:05Z" (220924805) 0x1f5-0x1f8.7 (4)
0x1f0|                           00 00 00 06         |         ....   |        corr: 6 0x1f9-0x1fc.7 (4)
     |                                               |                |      [6]{}: leap_second_record 0x1fd-0x204.7 (8)
0x1f0|                                       0f 0c 3f|             ..?|        occur: "1978-01-01T00:00:06Z" (252460806) 0x1fd-0x200.7 (4)
0x200|06                                             |.               |
0x200|   00 00 00 07                                 | ....           |        corr: 7 0x201-0x204.7 (4)
     |                                               |                |      [7]{}: leap_second_record 0x205-0x20c.7 (8)
0x200|               10 ed 72 87                     |     ..r.       |        occur: "1979-01-01T00:00:07Z" (283996807) 0x205-0x208.7 (4)
0x200|                           00 00 00 08         |         ....   |        corr: 8 0x209-0x20c.7 (4)
     |                                               |                |      [8]{}: leap_second_record 0x20d-0x214.7 (8)
0x200|                                       12 ce a6|             ...|        occur: "1980-01-01T00:00:08Z" (315532808) 0x20d-0x210.7 (4)
0x210|08                                             |.               |
0x210|   00 00 00 09                                 | ....           |        corr: 9 0x211-0x214.7 (4)
     |                                               |                |      [9]{}: leap_second_record 0x215-0x21c.7 (8)
0x210|               15 9f ca 89                     |     ....       |        occur: "1981-07-01T00:00:09Z" (362793609) 0x215-0x218.7 (4)
0x210|                           00 00 00 0a         |         ....   |        corr: 10 0x219-0x21c.7 (4)
     |                                               |                |      [10]{}: leap_second_record 0x21d-0x224.7 (8)
0x210|                                       17 80 fe|             ...|        occur: "1982-07-01T00:00:10Z" (394329610) 0x21d-0x220.7 (4)
0x220|0a                                             |.               |
0x220|   00 00 00 0b                                 | ....           |        corr: 11 0x221-0x224.7 (4)
     |                                               |                |      [11]{}: leap_second_record 0x225-0x22c.7 (8)
0x220|               19 62 31 8b                     |     .b1.       |        occur: "1983-07-01T00:00:11Z" (425865611) 0x225-0x228.7 (4)
0x220|                           00 00 00 0c         |         ....   |        corr: 12 0x229-0x22c.7 (4)
     |                                               |                |      [12]{}: leap_second_record 0x22d-0x234.7 (8)
0x220|                                       1d 25 ea|             .%.|        occur: "1985-07-01T00:00:12Z" (489024012) 0x22d-0x230.7 (4)
0x230|0c                                             |.               |
0x230|   00 00 00 0d                                 | ....           |        corr: 13 0x231-0x234.7 (4)
     |                                               |                |      [13]{}: leap_second_record 0x235-0x23c.7 (8)
0x230|               21 da e5 0d                     |     !...       |        occur: "1988-01-01T00:00:13Z" (567993613) 0x235-0x238.7 (4)
0x230|                           00 00 00 0e         |         ....   |        corr: 14 0x239-0x23c.7 (4)
     |                                               |                |      [14]{}: leap_second_record 0x23d-0x244.7 (8)
0x230|                                       25 9e 9d|             %..|        occur: "1990-01-01T00:00:14Z" (631152014) 0x23d-0x240.7 (4)
0x240|8e                                             |.               |
0x240|   00 00 00 0f                                 | ....           |        corr: 15 0x241-0x244.7 (4)
     |                                               |                |      [15]{}: leap_second_record 0x245-0x24c.7 (8)
0x240|               27 7f d1 0f                     |     '...       |        occur: "1991-01-01T00:00:15Z" (662688015) 0x245-0x248.7 (4)
0x240|                           00 00 00 10         |         ....   |        corr: 16 0x249-0x24c.7 (4)
     |                                               |                |      [16]{}: leap_second_record 0x24d-0x254.7 (8)
0x240|                                       2a 50 f5|             *P.|        occur: "1992-07-01T00:00:16Z" (709948816) 0x24d-0x250.7 (4)
0x250|90                                             |.               |
0x250|   00 00 00 11                                 | ....           |        corr: 17 0x251-0x254.7 (4)
     |                                               |                |      [17]{}: leap_second_record 0x255-0x25c.7 (8)
0x250|               2c 32 29 11                     |     ,2).       |        occur: "1993-07-01T00:00:17Z" (741484817) 0x255-0x258.7 (4)
0x250|                           00 00 00 12         |         ....   |        corr: 18 0x259-0x25c.7 (4)
     |                                               |                |      [18]{}: leap_second_record 0x25d-0x264.7 (8)
0x250|                                       2e 13 5c|             ..\|        occur: "1994-07-01T00:00:18Z" (773020818) 0x25d-0x260.7 (4)
0x260|92                                             |.               |
0x260|   00 00 00 13                                 | ....           |        corr: 19 0x261-0x264.7 (4)
     |                                               |                |      [19]{}: leap_second_record 0x265-0x26c.7 (8)
0x260|               30 e7 24 13                     |     0.$.       |        occur: "1996-01-01T00:00:19Z" (820454419) 0x265-0x268.7 (4)
0x260|                           00 00 00 14         |         ....   |        corr: 20 0x269-0x26c.7 (4)
     |                                               |                |      [20]{}: leap_second_record 0x26d-0x274.7 (8)
0x260|                                       33 b8 48|             3.H|        occur: "1997-07-01T00:00:20Z" (867715220) 0x26d-0x270.7 (4)
0x270|94                                             |.               |
0x270|   00 00 00 15                                 | ....           |        corr: 21 0x271-0x274.7 (4)
     |                                               |                |      [21]{}: leap_second_record 0x275-0x27c.7 (8)
0x270|               36 8c 10 15                     |     6...       |        occur: "1999-01-01T00:00:21Z" (915148821) 0x275-0x278.7 (4)
0x270|                           00 00 00 16         |         ....   |        corr: 22 0x279-0x27c.7 (4)
     |                                               |                |      [22]{}: leap_second_record 0x27d-0x284.7 (8)
0x270|                                       43 b7 1b|             C..|        occur: "2006-01-01T00:00:22Z" (1136073622) 0x27d-0x280.7 (4)
0x280|96                                             |.               |
0x280|   00 00 00 17                                 | ....           |        corr: 23 0x281-0x284.7 (4)
     |                                               |                |      [23]{}: leap_second_record 0x285-0x28c.7 (8)
0x280|               49 5c 07 97                     |     I\..       |        occur: "2009-01-01T00:00:23Z" (1230768023) 0x285-0x288.7 (4)
0x280|                           00 00 00 18         |         ....   |        corr: 24 0x289-0x28c.7 (4)
     |                                               |                |      [24]{}: leap_second_record 0x28d-0x294.7 (8)
0x280|                                       4f ef 93|             O..|        occur: "2012-07-01T00:00:24Z" (1341100824) 0x28d-0x290.7 (4)
0x290|18                                             |.               |
0x290|   00 00 00 19                                 | ....           |        corr: 25 0x291-0x294.7 (4)
     |                                               |                |      [25]{}: leap_second_record 0x295-0x29c.7 (8)
0x290|               55 93 2d 99                     |     U.-.       |        occur: "2015-07-01T00:00:25Z" (1435708825) 0x295-0x298.7 (4)
0x290|                           00 00 00 1a         |         ....   |        corr: 26 0x299-0x29c.7 (4)
     |                                               |                |      [26]{}: leap_second_record 0x29d-0x2a4.7 (8)
0x290|                                       58 68 46|             XhF|        occur: "2017-01-01T00:00:26Z" (1483228826) 0x29d-0x2a0.7 (4)
0x2a0|9a                                             |.               |
0x2a0|   00 00 00 1b                                 | ....           |        corr: 27 0x2a1-0x2a4.7 (4)
     |                                               |                |    standard_wall_indicators[0:11]: 0x2a5-0x2af.7 (11)
0x2a0|               00                              |     .          |      [0]: 0 standard_wall_indicator (valid) 0x2a5-0x2a5.7 (1)
0x2a0|                  00                           |      .         |      [1]: 0 standard_wall_indicator (valid) 0x2a6-0x2a6.7 (1)
0x2a0|                     00                        |       .        |      [2]: 0 standard_wall_indicator (valid) 0x2a7-0x2a7.7 (1)
0x2a0|                        00                     |        .       |      [3]: 0 standard_wall_indicator (valid) 0x2a8-0x2a8.7 (1)
0x2a0|                           01                  |         .      |      [4]: 1 standard_wall_indicator (valid) 0x2a9-0x2a9.7 (1)
0x2a0|                              01               |          .     |      [5]: 1 standard_wall_indicator (valid) 0x2aa-0x2aa.7 (1)
0x2a0|                                 01            |           .    |      [6]: 1 standard_wall_indicator (valid) 0x2ab-0x2ab.7 (1)
0x2a0|                                    01         |            .   |      [7]: 1 standard_wall_indicator (valid) 0x2ac-0x2ac.7 (1)
0x2a0|                                       01      |             .  |      [8]: 1 standard_wall_indicator (valid) 0x2ad-0x2ad.7 (1)
0x2a0|                                          01   |              . |      [9]: 1 standard_wall_indicator (valid) 0x2ae-0x2ae.7 (1)
0x2a0|                                             01|               .|      [10]: 1 standard_wall_indicator (valid) 0x2af-0x2af.7 (1)
     |                                               |                |    ut_local_indicators[0:0]: 0x2b0-NA (0)
     |                                               |                |  v2plusheader{}: 0x2b0-0x2db.7 (44)
0x2b0|54 5a 69 66                                    |TZif            |    magic: 0x545a6966 (valid) 0x2b0-0x2b3.7 (4)
0x2b0|            32                                 |    2           |    ver: "2" (0x32) (valid) 0x2b4-0x2b4.7 (1)
0x2b0|               00 00 00 00 00 00 00 00 00 00 00|     ...........|    reserved: raw bits 0x2b5-0x2c3.7 (15)
0x2c0|00 00 00 00                                    |....            |
0x2c0|            00 00 00 00                        |    ....        |    isutcnt: 0 0x2c4-0x2c7.7 (4)
0x2c0|                        00 00 00 0b            |        ....    |    isstdcnt: 11 0x2c8-0x2cb.7 (4)
0x2c0|                                    00 00 00 1b|            ....|    leapcnt: 27 0x2cc-0x2cf.7 (4)
0x2d0|00 00 00 43                                    |...C            |    timecnt: 67 0x2d0-0x2d3.7 (4)
0x2d0|            00 00 00 0b                        |    ....        |    typecnt: 11 0x2d4-0x2d7.7 (4)
0x2d0|                        00 00 00 10            |        ....    |    charcnt: 16 0x2d8-0x2db.7 (4)
     |                                               |                |  v2plusdatablock{}: 0x2dc-0x6d7.7 (1020)
     |                                               |                |    transition_times[0:67]: 0x2dc-0x4f3.7 (536)
0x2d0|                                    ff ff ff ff|            ....|      [0]: "1924-05-01T13:56:48Z" (-1441188192) transition_time 0x2dc-0x2e3.7 (8)
0x2e0|aa 19 36 a0                                    |..6.            |
0x2e0|            ff ff ff ff b5 a3 a8 e0            |    ........    |      [1]: "1930-06-20T14:00:00Z" (-1247565600) transition_time 0x2e4-0x2eb.7 (8)
0x2e0|                                    00 00 00 00|            ....|      [2]: "1981-03-31T13:00:09Z" (354891609) transition_time 0x2ec-0x2f3.7 (8)
0x2f0|15 27 37 59                                    |.'7Y            |
0x2f0|            00 00 00 00 16 18 6b ca            |    ......k.    |      [3]: "1981-09-30T12:00:10Z" (370699210) transition_time 0x2f4-0x2fb.7 (8)
0x2f0|                                    00 00 00 00|            ....|      [4]: "1982-03-31T13:00:10Z" (386427610) transition_time 0x2fc-0x303.7 (8)
0x300|17 08 6a da                                    |..j.            |
0x300|            00 00 00 00 17 f9 9f 4b            |    .......K    |      [5]: "1982-09-30T12:00:11Z" (402235211) transition_time 0x304-0x30b.7 (8)
0x300|                                    00 00 00 00|            ....|      [6]: "1983-03-31T13:00:11Z" (417963611) transition_time 0x30c-0x313.7 (8)
0x310|18 e9 9e 5b                                    |...[            |
0x310|            00 00 00 00 19 da d2 cc            |    ........    |      [7]: "1983-09-30T12:00:12Z" (433771212) transition_time 0x314-0x31b.7 (8)
0x310|                                    00 00 00 00|            ....|      [8]: "1984-03-31T13:00:12Z" (449586012) transition_time 0x31c-0x323.7 (8)
0x320|1a cc 23 5c                                    |..#\            |
0x320|            00 00 00 00 1b bc 30 7c            |    ......0|    |      [9]: "1984-09-29T15:00:12Z" (465318012) transition_time 0x324-0x32b.7 (8)
0x320|                                    00 00 00 00|            ....|      [10]: "1985-03-30T15:00:12Z" (481042812) transition_time 0x32c-0x333.7 (8)
0x330|1c ac 21 7c                                    |..!|            |
0x330|            00 00 00 00 1d 9c 12 7d            |    .......}    |      [11]: "1985-09-28T15:00:13Z" (496767613) transition_time 0x334-0x33b.7 (8)
0x330|                                    00 00 00 00|            ....|      [12]: "1986-03-29T15:00:13Z" (512492413) transition_time 0x33c-0x343.7 (8)
0x340|1e 8c 03 7d                                    |...}            |
0x340|            00 00 00 00 1f 7b f4 7d            |    .....{.}    |      [13]: "1986-09-27T15:00:13Z" (528217213) transition_time 0x344-0x34b.7 (8)
0x340|                                    00 00 00 00|            ....|      [14]: "1987-03-28T15:00:13Z" (543942013) transition_time 0x34c-0x353.7 (8)
0x350|20 6b e5 7d                                    | k.}            |
0x350|            00 00 00 00 21 5b d6 7d            |    ....![.}    |      [15]: "1987-09-26T15:00:13Z" (559666813) transition_time 0x354-0x35b.7 (8)
0x350|                                    00 00 00 00|            ....|      [16]: "1988-03-26T15:00:14Z" (575391614) transition_time 0x35c-0x363.7 (8)
0x360|22 4b c7 7e                                    |"K.~            |
0x360|            00 00 00 00 23 3b b8 7e            |    ....#;.~    |      [17]: "1988-09-24T15:00:14Z" (591116414) transition_time 0x364-0x36b.7 (8)
0x360|                                    00 00 00 00|            ....|      [18]: "1989-03-25T15:00:14Z" (606841214) transition_time 0x36c-0x373.7 (8)
0x370|24 2b a9 7e                                    |$+.~            |
0x370|            00 00 00 00 25 1b 9a 7e            |    ....%..~    |      [19]: "1989-09-23T15:00:14Z" (622566014) transition_time 0x374-0x37b.7 (8)
0x370|                                    00 00 00 00|            ....|      [20]: "1990-03-24T15:00:15Z" (638290815) transition_time 0x37c-0x383.7 (8)
0x380|26 0b 8b 7f                                    |&...            |
0x380|            00 00 00 00 27 04 b6 ff            |    ....'...    |      [21]: "1990-09-29T15:00:15Z" (654620415) transition_time 0x384-0x38b.7 (8)
0x380|                                    00 00 00 00|            ....|      [22]: "1991-03-30T15:00:16Z" (670345216) transition_time 0x38c-0x393.7 (8)
0x390|27 f4 a8 00                                    |'...            |
0x390|            00 00 00 00 28 e4 a7 10            |    ....(...    |      [23]: "1991-09-28T16:00:16Z" (686073616) transition_time 0x394-0x39b.7 (8)
0x390|                                    00 00 00 00|            ....|      [24]: "1992-01-18T16:00:16Z" (695750416) transition_time 0x39c-0x3a3.7 (8)
0x3a0|29 78 4f 10                                    |)xO.            |
0x3a0|            00 00 00 00 29 d4 8a 00            |    ....)...    |      [25]: "1992-03-28T15:00:16Z" (701794816) transition_time 0x3a4-0x3ab.7 (8)
0x3a0|                                    00 00 00 00|            ....|      [26]: "1992-09-26T15:00:17Z" (717519617) transition_time 0x3ac-0x3b3.7 (8)
0x3b0|2a c4 7b 01                                    |*.{.            |
0x3b0|            00 00 00 00 2b b4 6c 01            |    ....+.l.    |      [27]: "1993-03-27T15:00:17Z" (733244417) transition_time 0x3b4-0x3bb.7 (8)
0x3b0|                                    00 00 00 00|            ....|      [28]: "1993-09-25T15:00:18Z" (748969218) transition_time 0x3bc-0x3c3.7 (8)
0x3c0|2c a4 5d 02                                    |,.].            |
0x3c0|            00 00 00 00 2d 94 4e 02            |    ....-.N.    |      [29]: "1994-03-26T15:00:18Z" (764694018) transition_time 0x3c4-0x3cb.7 (8)
0x3c0|                                    00 00 00 00|            ....|      [30]: "1994-09-24T15:00:19Z" (780418819) transition_time 0x3cc-0x3d3.7 (8)
0x3d0|2e 84 3f 03                                    |..?.            |
0x3d0|            00 00 00 00 2f 74 30 03            |    ..../t0.    |      [31]: "1995-03-25T15:00:19Z" (796143619) transition_time 0x3d4-0x3db.7 (8)
0x3d0|                                    00 00 00 00|            ....|      [32]: "1995-09-23T15:00:19Z" (811868419) transition_time 0x3dc-0x3e3.7 (8)
0x3e0|30 64 21 03                                    |0d!.            |
0x3e0|            00 00 00 00 31 5d 4c 84            |    ....1]L.    |      [33]: "1996-03-30T15:00:20Z" (828198020) transition_time 0x3e4-0x3eb.7 (8)
0x3e0|                                    00 00 00 00|            ....|      [34]: "1996-10-26T15:00:20Z" (846342020) transition_time 0x3ec-0x3f3.7 (8)
0x3f0|32 72 27 84                                    |2r'.            |
0x3f0|            00 00 00 00 33 3d 2e 84            |    ....3=..    |      [35]: "1997-03-29T15:00:20Z" (859647620) transition_time 0x3f4-0x3fb.7 (8)
0x3f0|                                    00 00 00 00|            ....|      [36]: "1997-10-25T15:00:21Z" (877791621) transition_time 0x3fc-0x403.7 (8)
0x400|34 52 09 85                                    |4R..            |
0x400|            00 00 00 00 35 1d 10 85            |    ....5...    |      [37]: "1998-03-28T15:00:21Z" (891097221) transition_time 0x404-0x40b.7 (8)
0x400|                                    00 00 00 00|            ....|      [38]: "1998-10-24T15:00:21Z" (909241221) transition_time 0x40c-0x413.7 (8)
0x410|36 31 eb 85                                    |61..            |
0x410|            00 00 00 00 36 fc f2 86            |    ....6...    |      [39]: "1999-03-27T15:00:22Z" (922546822) transition_time 0x414-0x41b.7 (8)
0x410|                                    00 00 00 00|            ....|      [40]: "1999-10-30T15:00:22Z" (941295622) transition_time 0x41c-0x423.7 (8)
0x420|38 1b 08 06                                    |8...            |
0x420|            00 00 00 00 38 dc d4 86            |    ....8...    |      [41]: "2000-03-25T15:00:22Z" (953996422) transition_time 0x424-0x42b.7 (8)
0x420|                                    00 00 00 00|            ....|      [42]: "2000-10-28T15:00:22Z" (972745222) transition_time 0x42c-0x433.7 (8)
0x430|39 fa ea 06                                    |9...            |
0x430|            00 00 00 00 3a bc b6 86            |    ....:...    |      [43]: "2001-03-24T15:00:22Z" (985446022) transition_time 0x434-0x43b.7 (8)
0x430|                                    00 00 00 00|            ....|      [44]: "2001-10-27T15:00:22Z" (1004194822) transition_time 0x43c-0x443.7 (8)
0x440|3b da cc 06                                    |;...            |
0x440|            00 00 00 00 3c a5 d3 06            |    ....<...    |      [45]: "2002-03-30T15:00:22Z" (1017500422) transition_time 0x444-0x44b.7 (8)
0x440|                                    00 00 00 00|            ....|      [46]: "2002-10-26T15:00:22Z" (1035644422) transition_time 0x44c-0x453.7 (8)
0x450|3d ba ae 06                                    |=...            |
0x450|            00 00 00 00 3e 85 b5 06            |    ....>...    |      [47]: "2003-03-29T15:00:22Z" (1048950022) transition_time 0x454-0x45b.7 (8)
0x450|                                    00 00 00 00|            ....|      [48]: "2003-10-25T15:00:22Z" (1067094022) transition_time 0x45c-0x463.7 (8)
0x460|3f 9a 90 06                                    |?...            |
0x460|            00 00 00 00 40 65 97 06            |    ....@e..    |      [49]: "2004-03-27T15:00:22Z" (1080399622) transition_time 0x464-0x46b.7 (8)
0x460|                                    00 00 00 00|            ....|      [50]: "2004-10-30T15:00:22Z" (1099148422) transition_time 0x46c-0x473.7 (8)
0x470|41 83 ac 86                                    |A...            |
0x470|            00 00 00 00 42 45 79 06            |    ....BEy.    |      [51]: "2005-03-26T15:00:22Z" (1111849222) transition_time 0x474-0x47b.7 (8)
0x470|                                    00 00 00 00|            ....|      [52]: "2005-10-29T15:00:22Z" (1130598022) transition_time 0x47c-0x483.7 (8)
0x480|43 63 8e 86                                    |Cc..            |
0x480|            00 00 00 00 44 25 5b 07            |    ....D%[.    |      [53]: "2006-03-25T15:00:23Z" (1143298823) transition_time 0x484-0x48b.7 (8)
0x480|                                    00 00 00 00|            ....|      [54]: "2006-10-28T15:00:23Z" (1162047623) transition_time 0x48c-0x493.7 (8)
0x490|45 43 70 87                                    |ECp.            |
0x490|            00 00 00 00 46 05 3d 07            |    ....F.=.    |      [55]: "2007-03-24T15:00:23Z" (1174748423) transition_time 0x494-0x49b.7 (8)
0x490|                                    00 00 00 00|            ....|      [56]: "2007-10-27T15:00:23Z" (1193497223) transition_time 0x49c-0x4a3.7 (8)
0x4a0|47 23 52 87                                    |G#R.            |
0x4a0|            00 00 00 00 47 ee 59 87            |    ....G.Y.    |      [57]: "2008-03-29T15:00:23Z" (1206802823) transition_time 0x4a4-0x4ab.7 (8)
0x4a0|                                    00 00 00 00|            ....|      [58]: "2008-10-25T15:00:23Z" (1224946823) transition_time 0x4ac-0x4b3.7 (8)
0x4b0|49 03 34 87                                    |I.4.            |
0x4b0|            00 00 00 00 49 ce 3b 88            |    ....I.;.    |      [59]: "2009-03-28T15:00:24Z" (1238252424) transition_time 0x4b4-0x4bb.7 (8)
0x4b0|                                    00 00 00 00|            ....|      [60]: "2009-10-24T15:00:24Z" (1256396424) transition_time 0x4bc-0x4c3.7 (8)
0x4c0|4a e3 16 88                                    |J...            |
0x4c0|            00 00 00 00 4b ae 1d 88            |    ....K...    |      [61]: "2010-03-27T15:00:24Z" (1269702024) transition_time 0x4c4-0x4cb.7 (8)
0x4c0|                                    00 00 00 00|            ....|      [62]: "2010-10-30T15:00:24Z" (1288450824) transition_time 0x4cc-0x4d3.7 (8)
0x4d0|4c cc 33 08                                    |L.3.            |
0x4d0|            00 00 00 00 4d 8d ff 88            |    ....M...    |      [63]: "2011-03-26T15:00:24Z" (1301151624) transition_time 0x4d4-0x4db.7 (8)
0x4d0|                                    00 00 00 00|            ....|      [64]: "2014-10-25T14:00:25Z" (1414245625) transition_time 0x4dc-0x4e3.7 (8)
0x4e0|54 4b ac f9                                    |TK..            |
0x4e0|            00 00 00 00 57 1b 9c 1a            |    ....W...    |      [65]: "2016-04-23T16:00:26Z" (1461427226) transition_time 0x4e4-0x4eb.7 (8)
0x4e0|                                    00 00 00 00|            ....|      [66]: "2023-06-28T00:00:27Z" (1687910427) transition_time 0x4ec-0x4f3.7 (8)
0x4f0|64 9b 78 1b                                    |d.x.            |
     |                                               |                |    transition_types[0:67]: 0x4f4-0x536.7 (67)
0x4f0|            01                                 |    .           |      [0]: 1 transition_type 0x4f4-0x4f4.7 (1)
0x4f0|               03                              |     .          |      [1]: 3 transition_type 0x4f5-0x4f5.7 (1)
0x4f0|                  02                           |      .         |      [2]: 2 transition_type 0x4f6-0x4f6.7 (1)
0x4f0|                     03                        |       .        |      [3]: 3 transition_type 0x4f7-0x4f7.7 (1)
0x4f0|                        02                     |        .       |      [4]: 2 transition_type 0x4f8-0x4f8.7 (1)
0x4f0|                           03                  |         .      |      [5]: 3 transition_type 0x4f9-0x4f9.7 (1)
0x4f0|                              02               |          .     |      [6]: 2 transition_type 0x4fa-0x4fa.7 (1)
0x4f0|                                 03            |           .    |      [7]: 3 transition_type 0x4fb-0x4fb.7 (1)
0x4f0|                                    02         |            .   |      [8]: 2 transition_type 0x4fc-0x4fc.7 (1)
0x4f0|                                       04      |             .  |      [9]: 4 transition_type 0x4fd-0x4fd.7 (1)
0x4f0|                                          05   |              . |      [10]: 5 transition_type 0x4fe-0x4fe.7 (1)
0x4f0|                                             04|               .|      [11]: 4 transition_type 0x4ff-0x4ff.7 (1)
0x500|05                                             |.               |      [12]: 5 transition_type 0x500-0x500.7 (1)
0x500|   04                                          | .              |      [13]: 4 transition_type 0x501-0x501.7 (1)
0x500|      05                                       |  .             |      [14]: 5 transition_type 0x502-0x502.7 (1)
0x500|         04                                    |   .            |      [15]: 4 transition_type 0x503-0x503.7 (1)
0x500|            05                                 |    .           |      [16]: 5 transition_type 0x504-0x504.7 (1)
0x500|               04                              |     .          |      [17]: 4 transition_type 0x505-0x505.7 (1)
0x500|                  05                           |      .         |      [18]: 5 transition_type 0x506-0x506.7 (1)
0x500|                     04                        |       .        |      [19]: 4 transition_type 0x507-0x507.7 (1)
0x500|                        05                     |        .       |      [20]: 5 transition_type 0x508-0x508.7 (1)
0x500|                           04                  |         .      |      [21]: 4 transition_type 0x509-0x509.7 (1)
0x500|                              06               |          .     |      [22]: 6 transition_type 0x50a-0x50a.7 (1)
0x500|                                 07            |           .    |      [23]: 7 transition_type 0x50b-0x50b.7 (1)
0x500|                                    04         |            .   |      [24]: 4 transition_type 0x50c-0x50c.7 (1)
0x500|                                       05      |             .  |      [25]: 5 transition_type 0x50d-0x50d.7 (1)
0x500|                                          04   |              . |      [26]: 4 transition_type 0x50e-0x50e.7 (1)
0x500|                                             05|               .|      [27]: 5 transition_type 0x50f-0x50f.7 (1)
0x510|04                                             |.               |      [28]: 4 transition_type 0x510-0x510.7 (1)
0x510|   05                                          | .              |      [29]: 5 transition_type 0x511-0x511.7 (1)
0x510|      04                                       |  .             |      [30]: 4 transition_type 0x512-0x512.7 (1)
0x510|         05                                    |   .            |      [31]: 5 transition_type 0x513-0x513.7 (1)
0x510|            04                                 |    .           |      [32]: 4 transition_type 0x514-0x514.7 (1)
0x510|               05                              |     .          |      [33]: 5 transition_type 0x515-0x515.7 (1)
0x510|                  04                           |      .         |      [34]: 4 transition_type 0x516-0x516.7 (1)
0x510|                     05                        |       .        |      [35]: 5 transition_type 0x517-0x517.7 (1)
0x510|                        04                     |        .       |      [36]: 4 transition_type 0x518-0x518.7 (1)
0x510|                           05                  |         .      |      [37]: 5 transition_type 0x519-0x519.7 (1)
0x510|                              04               |          .     |      [38]: 4 transition_type 0x51a-0x51a.7 (1)
0x510|                                 05            |           .    |      [39]: 5 transition_type 0x51b-0x51b.7 (1)
0x510|                                    04         |            .   |      [40]: 4 transition_type 0x51c-0x51c.7 (1)
0x510|                                       05      |             .  |      [41]: 5 transition_type 0x51d-0x51d.7 (1)
0x510|                                          04   |              . |      [42]: 4 transition_type 0x51e-0x51e.7 (1)
0x510|                                             05|               .|      [43]: 5 transition_type 0x51f-0x51f.7 (1)
0x520|04                                             |.               |      [44]: 4 transition_type 0x520-0x520.7 (1)
0x520|   05                                          | .              |      [45]: 5 transition_type 0x521-0x521.7 (1)
0x520|      04                                       |  .             |      [46]: 4 transition_type 0x522-0x522.7 (1)
0x520|         05                                    |   .            |      [47]: 5 transition_type 0x523-0x523.7 (1)
0x520|            04                                 |    .           |      [48]: 4 transition_type 0x524-0x524.7 (1)
0x520|               05                              |     .          |      [49]: 5 transition_type 0x525-0x525.7 (1)
0x520|                  04                           |      .         |      [50]: 4 transition_type 0x526-0x526.7 (1)
0x520|                     05                        |       .        |      [51]: 5 transition_type 0x527-0x527.7 (1)
0x520|                        04                     |        .       |      [52]: 4 transition_type 0x528-0x528.7 (1)
0x520|                           05                  |         .      |      [53]: 5 transition_type 0x529-0x529.7 (1)
0x520|                              04               |          .     |      [54]: 4 transition_type 0x52a-0x52a.7 (1)
0x520|                                 05            |           .    |      [55]: 5 transition_type 0x52b-0x52b.7 (1)
0x520|                                    04         |            .   |      [56]: 4 transition_type 0x52c-0x52c.7 (1)
0x520|                                       05      |             .  |      [57]: 5 transition_type 0x52d-0x52d.7 (1)
0x520|                                          04   |              . |      [58]: 4 transition_type 0x52e-0x52e.7 (1)
0x520|                                             05|               .|      [59]: 5 transition_type 0x52f-0x52f.7 (1)
0x530|04                                             |.               |      [60]: 4 transition_type 0x530-0x530.7 (1)
0x530|   05                                          | .              |      [61]: 5 transition_type 0x531-0x531.7 (1)
0x530|      04                                       |  .             |      [62]: 4 transition_type 0x532-0x532.7 (1)
0x530|         08                                    |   .            |      [63]: 8 transition_type 0x533-0x533.7 (1)
0x530|            07                                 |    .           |      [64]: 7 transition_type 0x534-0x534.7 (1)
0x530|               04                              |     .          |      [65]: 4 transition_type 0x535-0x535.7 (1)
0x530|                  04                           |      .         |      [66]: 4 transition_type 0x536-0x536.7 (1)
     |                                               |                |    local_time_type_records[0:11]: 0x537-0x578.7 (66)
     |                                               |                |      [0]{}: local_time_type 0x537-0x53c.7 (6)
0x530|                     00 00 8d 60               |       ...`     |        utoff: 36192 (valid) 0x537-0x53a.7 (4)
0x530|                                 00            |           .    |        dst: 0 (valid) 0x53b-0x53b.7 (1)
0x530|                                    00         |            .   |        idx: 0 (valid) 0x53c-0x53c.7 (1)
     |                                               |                |      [1]{}: local_time_type 0x53d-0x542.7 (6)
0x530|                                       00 00 8c|             ...|        utoff: 36000 (valid) 0x53d-0x540.7 (4)
0x540|a0                                             |.               |
0x540|   00                                          | .              |        dst: 0 (valid) 0x541-0x541.7 (1)
0x540|      04                                       |  .             |        idx: 4 (valid) 0x542-0x542.7 (1)
     |                                               |                |      [2]{}: local_time_type 0x543-0x548.7 (6)
0x540|         00 00 a8 c0                           |   ....         |        utoff: 43200 (valid) 0x543-0x546.7 (4)
0x540|                     01                        |       .        |        dst: 1 (valid) 0x547-0x547.7 (1)
0x540|                        08                     |        .       |        idx: 8 (valid) 0x548-0x548.7 (1)
     |                                               |                |      [3]{}: local_time_type 0x549-0x54e.7 (6)
0x540|                           00 00 9a b0         |         ....   |        utoff: 39600 (valid) 0x549-0x54c.7 (4)
0x540|                                       00      |             .  |        dst: 0 (valid) 0x54d-0x54d.7 (1)
0x540|                                          0c   |              . |        idx: 12 (valid) 0x54e-0x54e.7 (1)
     |                                               |                |      [4]{}: local_time_type 0x54f-0x554.7 (6)
0x540|                                             00|               .|        utoff: 39600 (valid) 0x54f-0x552.7 (4)
0x550|00 9a b0                                       |...             |
0x550|         00                                    |   .            |        dst: 0 (valid) 0x553-0x553.7 (1)
0x550|            0c                                 |    .           |        idx: 12 (valid) 0x554-0x554.7 (1)
     |                                               |                |      [5]{}: local_time_type 0x555-0x55a.7 (6)
0x550|               00 00 a8 c0                     |     ....       |        utoff: 43200 (valid) 0x555-0x558.7 (4)
0x550|                           01                  |         .      |        dst: 1 (valid) 0x559-0x559.7 (1)
0x550|                              08               |          .     |        idx: 8 (valid) 0x55a-0x55a.7 (1)
     |                                               |                |      [6]{}: local_time_type 0x55b-0x560.7 (6)
0x550|                                 00 00 9a b0   |           .... |        utoff: 39600 (valid) 0x55b-0x55e.7 (4)
0x550|                                             01|               .|        dst: 1 (valid) 0x55f-0x55f.7 (1)
0x560|0c                                             |.               |        idx: 12 (valid) 0x560-0x560.7 (1)
     |                                               |                |      [7]{}: local_time_type 0x561-0x566.7 (6)
0x560|   00 00 8c a0                                 | ....           |        utoff: 36000 (valid) 0x561-0x564.7 (4)
0x560|               00                              |     .          |        dst: 0 (valid) 0x565-0x565.7 (1)
0x560|                  04                           |      .         |        idx: 4 (valid) 0x566-0x566.7 (1)
     |                                               |                |      [8]{}: local_time_type 0x567-0x56c.7 (6)
0x560|                     00 00 a8 c0               |       ....     |        utoff: 43200 (valid) 0x567-0x56a.7 (4)
0x560|                                 00            |           .    |        dst: 0 (valid) 0x56b-0x56b.7 (1)
0x560|                                    08         |            .   |        idx: 8 (valid) 0x56c-0x56c.7 (1)
     |                                               |                |      [9]{}: local_time_type 0x56d-0x572.7 (6)
0x560|                                       00 00 a8|             ...|        utoff: 43200 (valid) 0x56d-0x570.7 (4)
0x570|c0                                             |.               |
0x570|   01                                          | .              |        dst: 1 (valid) 0x571-0x571.7 (1)
0x570|      08                                       |  .             |        idx: 8 (valid) 0x572-0x572.7 (1)
     |                                               |                |      [10]{}: local_time_type 0x573-0x578.7 (6)
0x570|         00 00 9a b0                           |   ....         |        utoff: 39600 (valid) 0x573-0x576.7 (4)
0x570|                     00                        |       .        |        dst: 0 (valid) 0x577-0x577.7 (1)
0x570|                        0c                     |        .       |        idx: 12 (valid) 0x578-0x578.7 (1)
     |                                               |                |    time_zone_designations[0:4]: 0x579-0x588.7 (16)
0x570|                           4c 4d 54 00         |         LMT.   |      [0]: "LMT" time_zone_designation 0x579-0x57c.7 (4)
0x570|                                       2b 31 30|             +10|      [1]: "+10" time_zone_designation 0x57d-0x580.7 (4)
0x580|00                                             |.               |
0x580|   2b 31 32 00                                 | +12.           |      [2]: "+12" time_zone_designation 0x581-0x584.7 (4)
0x580|               2b 31 31 00                     |     +11.       |      [3]: "+11" time_zone_designation 0x585-0x588.7 (4)
     |                                               |                |    leap_second_records[0:27]: 0x589-0x6cc.7 (324)
     |                                               |                |      [0]{}: leap_second_record 0x589-0x594.7 (12)
0x580|                           00 00 00 00 04 b2 58|         ......X|        occur: "1972-07-01T00:00:00Z" (78796800) 0x589-0x590.7 (8)
0x590|00                                             |.               |
0x590|   00 00 00 01                                 | ....           |        corr: 1 0x591-0x594.7 (4)
     |                                               |                |      [1]{}: leap_second_record 0x595-0x5a0.7 (12)
0x590|               00 00 00 00 05 a4 ec 01         |     ........   |        occur: "1973-01-01T00:00:01Z" (94694401) 0x595-0x59c.7 (8)
0x590|                                       00 00 00|             ...|        corr: 2 0x59d-0x5a0.7 (4)
0x5a0|02                                             |.               |
     |                                               |                |      [2]{}: leap_second_record 0x5a1-0x5ac.7 (12)
0x5a0|   00 00 00 00 07 86 1f 82                     | ........       |        occur: "1974-01-01T00:00:02Z" (126230402) 0x5a1-0x5a8.7 (8)
0x5a0|                           00 00 00 03         |         ....   |        corr: 3 0x5a9-0x5ac.7 (4)
     |                                               |                |      [3]{}: leap_second_record 0x5ad-0x5b8.7 (12)
0x5a0|                                       00 00 00|             ...|        occur: "1975-01-01T00:00:03Z" (157766403) 0x5ad-0x5b4.7 (8)
0x5b0|00 09 67 53 03                                 |..gS.           |
0x5b0|               00 00 00 04                     |     ....       |        corr: 4 0x5b5-0x5b8.7 (4)
     |                                               |                |      [4]{}: leap_second_record 0x5b9-0x5c4.7 (12)
0x5b0|                           00 00 00 00 0b 48 86|         .....H.|        occur: "1976-01-01T00:00:04Z" (189302404) 0x5b9-0x5c0.7 (8)
0x5c0|84                                             |.               |
0x5c0|   00 00 00 05                                 | ....           |        corr: 5 0x5c1-0x5c4.7 (4)
     |                                               |                |      [5]{}: leap_second_record 0x5c5-0x5d0.7 (12)
0x5c0|               00 00 00 00 0d 2b 0b 85         |     .....+..   |        occur: "1977-01-01T00:00:05Z" (220924805) 0x5c5-0x5cc.7 (8)
0x5c0|                                       00 00 00|             ...|        corr: 6 0x5cd-0x5d0.7 (4)
0x5d0|06                                             |.               |
     |                                               |                |      [6]{}: leap_second_record 0x5d1-0x5dc.7 (12)
0x5d0|   00 00 00 00 0f 0c 3f 06                     | ......?.       |        occur: "1978-01-01T00:00:06Z" (252460806) 0x5d1-0x5d8.7 (8)
0x5d0|                           00 00 00 07         |         ....   |        corr: 7 0x5d9-0x5dc.7 (4)
     |                                               |                |      [7]{}: leap_second_record 0x5dd-0x5e8.7 (12)
0x5d0|                                       00 00 00|             ...|        occur: "1979-01-01T00:00:07Z" (283996807) 0x5dd-0x5e4.7 (8)
0x5e0|00 10 ed 72 87                                 |...r.           |
0x5e0|               00 00 00 08                     |     ....       |        corr: 8 0x5e5-0x5e8.7 (4)
     |                                               |                |      [8]{}: leap_second_record 0x5e9-0x5f4.7 (12)
0x5e0|                           00 00 00 00 12 ce a6|         .......|        occur: "1980-01-01T00:00:08Z" (315532808) 0x5e9-0x5f0.7 (8)
0x5f0|08                                             |.               |
0x5f0|   00 00 00 09                                 | ....           |        corr: 9 0x5f1-0x5f4.7 (4)
     |                                               |                |      [9]{}: leap_second_record 0x5f5-0x600.7 (12)
0x5f0|               00 00 00 00 15 9f ca 89         |     ........   |        occur: "1981-07-01T00:00:09Z" (362793609) 0x5f5-0x5fc.7 (8)
0x5f0|                                       00 00 00|             ...|        corr: 10 0x5fd-0x600.7 (4)
0x600|0a                                             |.               |
     |                                               |                |      [10]{}: leap_second_record 0x601-0x60c.7 (12)
0x600|   00 00 00 00 17 80 fe 0a                     | ........       |        occur: "1982-07-01T00:00:10Z" (394329610) 0x601-0x608.7 (8)
0x600|                           00 00 00 0b         |         ....   |        corr: 11 0x609-0x60c.7 (4)
     |                                               |                |      [11]{}: leap_second_record 0x60d-0x618.7 (12)
0x600|                                       00 00 00|             ...|        occur: "1983-07-01T00:00:11Z" (425865611) 0x60d-0x614.7 (8)
0x610|00 19 62 31 8b                                 |..b1.           |
0x610|               00 00 00 0c                     |     ....       |        corr: 12 0x615-0x618.7 (4)
     |                                               |                |      [12]{}: leap_second_record 0x619-0x624.7 (12)
0x610|                           00 00 00 00 1d 25 ea|         .....%.|        occur: "1985-07-01T00:00:12Z" (489024012) 0x619-0x620.7 (8)
0x620|0c                                             |.               |
0x620|   00 00 00 0d                                 | ....           |        corr: 13 0x621-0x624.7 (4)
     |                                               |                |      [13]{}: leap_second_record 0x625-0x630.7 (12)
0x620|               00 00 00 00 21 da e5 0d         |     ....!...   |        occur: "1988-01-01T00:00:13Z" (567993613) 0x625-0x62c.7 (8)
0x620|                                       00 00 00|             ...|        corr: 14 0x62d-0x630.7 (4)
0x630|0e                                             |.               |
     |                                               |                |      [14]{}: leap_second_record 0x631-0x63c.7 (12)
0x630|   00 00 00 00 25 9e 9d 8e                     | ....%...       |        occur: "1990-01-01T00:00:14Z" (631152014) 0x631-0x638.7 (8)
0x630|                           00 00 00 0f         |         ....   |        corr: 15 0x639-0x63c.7 (4)
     |                                               |                |      [15]{}: leap_second_record 0x63d-0x648.7 (12)
0x630|                                       00 00 00|             ...|        occur: "1991-01-01T00:00:15Z" (662688015) 0x63d-0x644.7 (8)
0x640|00 27 7f d1 0f                                 |.'...           |
0x640|               00 00 00 10                     |     ....       |        corr: 16 0x645-0x648.7 (4)
     |                                               |                |      [16]{}: leap_second_record 0x649-0x654.7 (12)
0x640|                           00 00 00 00 2a 50 f5|         ....*P.|        occur: "1992-07-01T00:00:16Z" (709948816) 0x649-0x650.7 (8)
0x650|90                                             |.               |
0x650|   00 00 00 11                                 | ....           |        corr: 17 0x651-0x654.7 (4)
     |                                               |                |      [17]{}: leap_second_record 0x655-0x660.7 (12)
0x650|               00 00 00 00 2c 32 29 11         |     ....,2).   |        occur: "1993-07-01T00:00:17Z" (741484817) 0x655-0x65c.7 (8)
0x650|                                       00 00 00|             ...|        corr: 18 0x65d-0x660.7 (4)
0x660|12                                             |.               |
     |                                               |                |      [18]{}: leap_second_record 0x661-0x66c.7 (12)
0x660|   00 00 00 00 2e 13 5c 92                     | ......\.       |        occur: "1994-07-01T00:00:18Z" (773020818) 0x661-0x668.7 (8)
0x660|                           00 00 00 13         |         ....   |        corr: 19 0x669-0x66c.7 (4)
     |                                               |                |      [19]{}: leap_second_record 0x66d-0x678.7 (12)
0x660|                                       00 00 00|             ...|        occur: "1996-01-01T00:00:19Z" (820454419) 0x66d-0x674.7 (8)
0x670|00 30 e7 24 13                                 |.0.$.           |
0x670|               00 00 00 14                     |     ....       |        corr: 20 0x675-0x678.7 (4)
     |                                               |                |      [20]{}: leap_second_record 0x679-0x684.7 (12)
0x670|                           00 00 00 00 33 b8 48|         ....3.H|        occur: "1997-07-01T00:00:20Z" (867715220) 0x679-0x680.7 (8)
0x680|94                                             |.               |
0x680|   00 00 00 15                                 | ....           |        corr: 21 0x681-0x684.7 (4)
     |                                               |                |      [21]{}: leap_second_record 0x685-0x690.7 (12)
0x680|               00 00 00 00 36 8c 10 15         |     ....6...   |        occur: "1999-01-01T00:00:21Z" (915148821) 0x685-0x68c.7 (8)
0x680|                                       00 00 00|             ...|        corr: 22 0x68d-0x690.7 (4)
0x690|16                                             |.               |
     |                                               |                |      [22]{}: leap_second_record 0x691-0x69c.7 (12)
0x690|   00 00 00 00 43 b7 1b 96                     | ....C...       |        occur: "2006-01-01T00:00:22Z" (1136073622) 0x691-0x698.7 (8)
0x690|                           00 00 00 17         |         ....   |        corr: 23 0x699-0x69c.7 (4)
     |                                               |                |      [23]{}: leap_second_record 0x69d-0x6a8.7 (12)
0x690|                                       00 00 00|             ...|        occur: "2009-01-01T00:00:23Z" (1230768023) 0x69d-0x6a4.7 (8)
0x6a0|00 49 5c 07 97                                 |.I\..           |
0x6a0|               00 00 00 18                     |     ....       |        corr: 24 0x6a5-0x6a8.7 (4)
     |                                               |                |      [24]{}: leap_second_record 0x6a9-0x6b4.7 (12)
0x6a0|                           00 00 00 00 4f ef 93|         ....O..|        occur: "2012-07-01T00:00:24Z" (1341100824) 0x6a9-0x6b0.7 (8)
0x6b0|18                                             |.               |
0x6b0|   00 00 00 19                                 | ....           |        corr: 25 0x6b1-0x6b4.7 (4)
     |                                               |                |      [25]{}: leap_second_record 0x6b5-0x6c0.7 (12)
0x6b0|               00 00 00 00 55 93 2d 99         |     ....U.-.   |        occur: "2015-07-01T00:00:25Z" (1435708825) 0x6b5-0x6bc.7 (8)
0x6b0|                                       00 00 00|             ...|        corr: 26 0x6bd-0x6c0.7 (4)
0x6c0|1a                                             |.               |
     |                                               |                |      [26]{}: leap_second_record 0x6c1-0x6cc.7 (12)
0x6c0|   00 00 00 00 58 68 46 9a                     | ....XhF.       |        occur: "2017-01-01T00:00:26Z" (1483228826) 0x6c1-0x6c8.7 (8)
0x6c0|                           00 00 00 1b         |         ....   |        corr: 27 0x6c9-0x6cc.7 (4)
     |                                               |                |    standard_wall_indicators[0:11]: 0x6cd-0x6d7.7 (11)
0x6c0|                                       00      |             .  |      [0]: 0 standard_wall_indicator (valid) 0x6cd-0x6cd.7 (1)
0x6c0|                                          00   |              . |      [1]: 0 standard_wall_indicator (valid) 0x6ce-0x6ce.7 (1)
0x6c0|                                             00|               .|      [2]: 0 standard_wall_indicator (valid) 0x6cf-0x6cf.7 (1)
0x6d0|00                                             |.               |      [3]: 0 standard_wall_indicator (valid) 0x6d0-0x6d0.7 (1)
0x6d0|   01                                          | .              |      [4]: 1 standard_wall_indicator (valid) 0x6d1-0x6d1.7 (1)
0x6d0|      01                                       |  .             |      [5]: 1 standard_wall_indicator (valid) 0x6d2-0x6d2.7 (1)
0x6d0|         01                                    |   .            |      [6]: 1 standard_wall_indicator (valid) 0x6d3-0x6d3.7 (1)
0x6d0|            01                                 |    .           |      [7]: 1 standard_wall_indicator (valid) 0x6d4-0x6d4.7 (1)
0x6d0|               01                              |     .          |      [8]: 1 standard_wall_indicator (valid) 0x6d5-0x6d5.7 (1)
0x6d0|                  01                           |      .         |      [9]: 1 standard_wall_indicator (valid) 0x6d6-0x6d6.7 (1)
0x6d0|                     01                        |       .        |      [10]: 1 standard_wall_indicator (valid) 0x6d7-0x6d7.7 (1)
     |                                               |                |    ut_local_indicators[0:0]: 0x6d8-NA (0)
     |                                               |                |  footer{}: 0x6d8-0x6d9.7 (2)
0x6d0|                        0a                     |        .       |    nl1: 10 (valid) 0x6d8-0x6d8.7 (1)
     |                                               |                |    tz_string: "" 0x6d9-NA (0)
0x6d0|                           0a|                 |         .|     |    nl2: 10 (valid) 0x6d9-0x6d9.7 (1)
