$ fq -d tzif dv Makassar
     |00 01 02 03 04 05 06 07 08 09 0a 0b 0c 0d 0e 0f|0123456789abcdef|.{}: Makassar (tzif) 0x0-0x322 (802)
     |                                               |                |  v1header{}: 0x0-0x2c (44)
0x000|54 5a 69 66                                    |TZif            |    magic: 0x545a6966 (valid) 0x0-0x4 (4)
0x000|            32                                 |    2           |    ver: "2" (0x32) (valid) 0x4-0x5 (1)
0x000|               00 00 00 00 00 00 00 00 00 00 00|     ...........|    reserved: raw bits 0x5-0x14 (15)
0x010|00 00 00 00                                    |....            |
0x010|            00 00 00 00                        |    ....        |    isutcnt: 0 0x14-0x18 (4)
0x010|                        00 00 00 00            |        ....    |    isstdcnt: 0 0x18-0x1c (4)
0x010|                                    00 00 00 1b|            ....|    leapcnt: 27 0x1c-0x20 (4)
0x020|00 00 00 05                                    |....            |    timecnt: 5 0x20-0x24 (4)
0x020|            00 00 00 05                        |    ....        |    typecnt: 5 0x24-0x28 (4)
0x020|                        00 00 00 15            |        ....    |    charcnt: 21 0x28-0x2c (4)
     |                                               |                |  v1datablock{}: 0x2c-0x150 (292)
     |                                               |                |    transition_times[0:5]: 0x2c-0x40 (20)
0x020|                                    a1 f2 5d 90|            ..].|      [0]: "1919-12-31T16:02:24Z" (-1577951856) transition_time 0x2c-0x30 (4)
0x030|ba 16 d5 90                                    |....            |      [1]: "1932-10-31T16:02:24Z" (-1172908656) transition_time 0x30-0x34 (4)
0x030|            cb 88 1d 80                        |    ....        |      [2]: "1942-02-08T16:00:00Z" (-880272000) transition_time 0x34-0x38 (4)
0x030|                        d2 56 ee 70            |        .V.p    |      [3]: "1945-09-22T15:00:00Z" (-766054800) transition_time 0x38-0x3c (4)
0x030|                                    64 9b 78 1b|            d.x.|      [4]: "2023-06-28T00:00:27Z" (1687910427) transition_time 0x3c-0x40 (4)
     |                                               |                |    transition_types[0:5]: 0x40-0x45 (5)
0x040|01                                             |.               |      [0]: 1 transition_type 0x40-0x41 (1)
0x040|   02                                          | .              |      [1]: 2 transition_type 0x41-0x42 (1)
0x040|      03                                       |  .             |      [2]: 3 transition_type 0x42-0x43 (1)
0x040|         04                                    |   .            |      [3]: 4 transition_type 0x43-0x44 (1)
0x040|            04                                 |    .           |      [4]: 4 transition_type 0x44-0x45 (1)
     |                                               |                |    local_time_type_records[0:5]: 0x45-0x63 (30)
     |                                               |                |      [0]{}: local_time_type 0x45-0x4b (6)
0x040|               00 00 6f f0                     |     ..o.       |        utoff: 28656 (valid) 0x45-0x49 (4)
0x040|                           00                  |         .      |        dst: 0 (valid) 0x49-0x4a (1)
0x040|                              00               |          .     |        idx: 0 (valid) 0x4a-0x4b (1)
     |                                               |                |      [1]{}: local_time_type 0x4b-0x51 (6)
0x040|                                 00 00 6f f0   |           ..o. |        utoff: 28656 (valid) 0x4b-0x4f (4)
0x040|                                             00|               .|        dst: 0 (valid) 0x4f-0x50 (1)
0x050|04                                             |.               |        idx: 4 (valid) 0x50-0x51 (1)
     |                                               |                |      [2]{}: local_time_type 0x51-0x57 (6)
0x050|   00 00 70 80                                 | ..p.           |        utoff: 28800 (valid) 0x51-0x55 (4)
0x050|               00                              |     .          |        dst: 0 (valid) 0x55-0x56 (1)
0x050|                  08                           |      .         |        idx: 8 (valid) 0x56-0x57 (1)
     |                                               |                |      [3]{}: local_time_type 0x57-0x5d (6)
0x050|                     00 00 7e 90               |       ..~.     |        utoff: 32400 (valid) 0x57-0x5b (4)
0x050|                                 00            |           .    |        dst: 0 (valid) 0x5b-0x5c (1)
0x050|                                    0c         |            .   |        idx: 12 (valid) 0x5c-0x5d (1)
     |                                               |                |      [4]{}: local_time_type 0x5d-0x63 (6)
0x050|                                       00 00 70|             ..p|        utoff: 28800 (valid) 0x5d-0x61 (4)
0x060|80                                             |.               |
0x060|   00                                          | .              |        dst: 0 (valid) 0x61-0x62 (1)
0x060|      10                                       |  .             |        idx: 16 (valid) 0x62-0x63 (1)
     |                                               |                |    time_zone_designations[0:5]: 0x63-0x78 (21)
0x060|         4c 4d 54 00                           |   LMT.         |      [0]: "LMT" time_zone_designation 0x63-0x67 (4)
0x060|                     4d 4d 54 00               |       MMT.     |      [1]: "MMT" time_zone_designation 0x67-0x6b (4)
0x060|                                 2b 30 38 00   |           +08. |      [2]: "+08" time_zone_designation 0x6b-0x6f (4)
0x060|                                             2b|               +|      [3]: "+09" time_zone_designation 0x6f-0x73 (4)
0x070|30 39 00                                       |09.             |
0x070|         57 49 54 41 00                        |   WITA.        |      [4]: "WITA" time_zone_designation 0x73-0x78 (5)
     |                                               |                |    leap_second_records[0:27]: 0x78-0x150 (216)
     |                                               |                |      [0]{}: leap_second_record 0x78-0x80 (8)
0x070|                        04 b2 58 00            |        ..X.    |        occur: "1972-07-01T00:00:00Z" (78796800) 0x78-0x7c (4)
0x070|                                    00 00 00 01|            ....|        corr: 1 0x7c-0x80 (4)
     |                                               |                |      [1]{}: leap_second_record 0x80-0x88 (8)
0x080|05 a4 ec 01                                    |....            |        occur: "1973-01-01T00:00:01Z" (94694401) 0x80-0x84 (4)
0x080|            00 00 00 02                        |    ....        |        corr: 2 0x84-0x88 (4)
     |                                               |                |      [2]{}: leap_second_record 0x88-0x90 (8)
0x080|                        07 86 1f 82            |        ....    |        occur: "1974-01-01T00:00:02Z" (126230402) 0x88-0x8c (4)
0x080|                                    00 00 00 03|            ....|        corr: 3 0x8c-0x90 (4)
     |                                               |                |      [3]{}: leap_second_record 0x90-0x98 (8)
0x090|09 67 53 03                                    |.gS.            |        occur: "1975-01-01T00:00:03Z" (157766403) 0x90-0x94 (4)
0x090|            00 00 00 04                        |    ....        |        corr: 4 0x94-0x98 (4)
     |                                               |                |      [4]{}: leap_second_record 0x98-0xa0 (8)
0x090|                        0b 48 86 84            |        .H..    |        occur: "1976-01-01T00:00:04Z" (189302404) 0x98-0x9c (4)
0x090|                                    00 00 00 05|            ....|        corr: 5 0x9c-0xa0 (4)
     |                                               |                |      [5]{}: leap_second_record 0xa0-0xa8 (8)
0x0a0|0d 2b 0b 85                                    |.+..            |        occur: "1977-01-01T00:00:05Z" (220924805) 0xa0-0xa4 (4)
0x0a0|            00 00 00 06                        |    ....        |        corr: 6 0xa4-0xa8 (4)
     |                                               |                |      [6]{}: leap_second_record 0xa8-0xb0 (8)
0x0a0|                        0f 0c 3f 06            |        ..?.    |        occur: "1978-01-01T00:00:06Z" (252460806) 0xa8-0xac (4)
0x0a0|                                    00 00 00 07|            ....|        corr: 7 0xac-0xb0 (4)
     |                                               |                |      [7]{}: leap_second_record 0xb0-0xb8 (8)
0x0b0|10 ed 72 87                                    |..r.            |        occur: "1979-01-01T00:00:07Z" (283996807) 0xb0-0xb4 (4)
0x0b0|            00 00 00 08                        |    ....        |        corr: 8 0xb4-0xb8 (4)
     |                                               |                |      [8]{}: leap_second_record 0xb8-0xc0 (8)
0x0b0|                        12 ce a6 08            |        ....    |        occur: "1980-01-01T00:00:08Z" (315532808) 0xb8-0xbc (4)
0x0b0|                                    00 00 00 09|            ....|        corr: 9 0xbc-0xc0 (4)
     |                                               |                |      [9]{}: leap_second_record 0xc0-0xc8 (8)
0x0c0|15 9f ca 89                                    |....            |        occur: "1981-07-01T00:00:09Z" (362793609) 0xc0-0xc4 (4)
0x0c0|            00 00 00 0a                        |    ....        |        corr: 10 0xc4-0xc8 (4)
     |                                               |                |      [10]{}: leap_second_record 0xc8-0xd0 (8)
0x0c0|                        17 80 fe 0a            |        ....    |        occur: "1982-07-01T00:00:10Z" (394329610) 0xc8-0xcc (4)
0x0c0|                                    00 00 00 0b|            ....|        corr: 11 0xcc-0xd0 (4)
     |                                               |                |      [11]{}: leap_second_record 0xd0-0xd8 (8)
0x0d0|19 62 31 8b                                    |.b1.            |        occur: "1983-07-01T00:00:11Z" (425865611) 0xd0-0xd4 (4)
0x0d0|            00 00 00 0c                        |    ....        |        corr: 12 0xd4-0xd8 (4)
     |                                               |                |      [12]{}: leap_second_record 0xd8-0xe0 (8)
0x0d0|                        1d 25 ea 0c            |        .%..    |        occur: "1985-07-01T00:00:12Z" (489024012) 0xd8-0xdc (4)
0x0d0|                                    00 00 00 0d|            ....|        corr: 13 0xdc-0xe0 (4)
     |                                               |                |      [13]{}: leap_second_record 0xe0-0xe8 (8)
0x0e0|21 da e5 0d                                    |!...            |        occur: "1988-01-01T00:00:13Z" (567993613) 0xe0-0xe4 (4)
0x0e0|            00 00 00 0e                        |    ....        |        corr: 14 0xe4-0xe8 (4)
     |                                               |                |      [14]{}: leap_second_record 0xe8-0xf0 (8)
0x0e0|                        25 9e 9d 8e            |        %...    |        occur: "1990-01-01T00:00:14Z" (631152014) 0xe8-0xec (4)
0x0e0|                                    00 00 00 0f|            ....|        corr: 15 0xec-0xf0 (4)
     |                                               |                |      [15]{}: leap_second_record 0xf0-0xf8 (8)
0x0f0|27 7f d1 0f                                    |'...            |        occur: "1991-01-01T00:00:15Z" (662688015) 0xf0-0xf4 (4)
0x0f0|            00 00 00 10                        |    ....        |        corr: 16 0xf4-0xf8 (4)
     |                                               |                |      [16]{}: leap_second_record 0xf8-0x100 (8)
0x0f0|                        2a 50 f5 90            |        *P..    |        occur: "1992-07-01T00:00:16Z" (709948816) 0xf8-0xfc (4)
0x0f0|                                    00 00 00 11|            ....|        corr: 17 0xfc-0x100 (4)
     |                                               |                |      [17]{}: leap_second_record 0x100-0x108 (8)
0x100|2c 32 29 11                                    |,2).            |        occur: "1993-07-01T00:00:17Z" (741484817) 0x100-0x104 (4)
0x100|            00 00 00 12                        |    ....        |        corr: 18 0x104-0x108 (4)
     |                                               |                |      [18]{}: leap_second_record 0x108-0x110 (8)
0x100|                        2e 13 5c 92            |        ..\.    |        occur: "1994-07-01T00:00:18Z" (773020818) 0x108-0x10c (4)
0x100|                                    00 00 00 13|            ....|        corr: 19 0x10c-0x110 (4)
     |                                               |                |      [19]{}: leap_second_record 0x110-0x118 (8)
0x110|30 e7 24 13                                    |0.$.            |        occur: "1996-01-01T00:00:19Z" (820454419) 0x110-0x114 (4)
0x110|            00 00 00 14                        |    ....        |        corr: 20 0x114-0x118 (4)
     |                                               |                |      [20]{}: leap_second_record 0x118-0x120 (8)
0x110|                        33 b8 48 94            |        3.H.    |        occur: "1997-07-01T00:00:20Z" (867715220) 0x118-0x11c (4)
0x110|                                    00 00 00 15|            ....|        corr: 21 0x11c-0x120 (4)
     |                                               |                |      [21]{}: leap_second_record 0x120-0x128 (8)
0x120|36 8c 10 15                                    |6...            |        occur: "1999-01-01T00:00:21Z" (915148821) 0x120-0x124 (4)
0x120|            00 00 00 16                        |    ....        |        corr: 22 0x124-0x128 (4)
     |                                               |                |      [22]{}: leap_second_record 0x128-0x130 (8)
0x120|                        43 b7 1b 96            |        C...    |        occur: "2006-01-01T00:00:22Z" (1136073622) 0x128-0x12c (4)
0x120|                                    00 00 00 17|            ....|        corr: 23 0x12c-0x130 (4)
     |                                               |                |      [23]{}: leap_second_record 0x130-0x138 (8)
0x130|49 5c 07 97                                    |I\..            |        occur: "2009-01-01T00:00:23Z" (1230768023) 0x130-0x134 (4)
0x130|            00 00 00 18                        |    ....        |        corr: 24 0x134-0x138 (4)
     |                                               |                |      [24]{}: leap_second_record 0x138-0x140 (8)
0x130|                        4f ef 93 18            |        O...    |        occur: "2012-07-01T00:00:24Z" (1341100824) 0x138-0x13c (4)
0x130|                                    00 00 00 19|            ....|        corr: 25 0x13c-0x140 (4)
     |                                               |                |      [25]{}: leap_second_record 0x140-0x148 (8)
0x140|55 93 2d 99                                    |U.-.            |        occur: "2015-07-01T00:00:25Z" (1435708825) 0x140-0x144 (4)
0x140|            00 00 00 1a                        |    ....        |        corr: 26 0x144-0x148 (4)
     |                                               |                |      [26]{}: leap_second_record 0x148-0x150 (8)
0x140|                        58 68 46 9a            |        XhF.    |        occur: "2017-01-01T00:00:26Z" (1483228826) 0x148-0x14c (4)
0x140|                                    00 00 00 1b|            ....|        corr: 27 0x14c-0x150 (4)
     |                                               |                |    standard_wall_indicators[0:0]: 0x150-0x150 (0)
     |                                               |                |    ut_local_indicators[0:0]: 0x150-0x150 (0)
     |                                               |                |  v2plusheader{}: 0x150-0x17c (44)
0x150|54 5a 69 66                                    |TZif            |    magic: 0x545a6966 (valid) 0x150-0x154 (4)
0x150|            32                                 |    2           |    ver: "2" (0x32) (valid) 0x154-0x155 (1)
0x150|               00 00 00 00 00 00 00 00 00 00 00|     ...........|    reserved: raw bits 0x155-0x164 (15)
0x160|00 00 00 00                                    |....            |
0x160|            00 00 00 00                        |    ....        |    isutcnt: 0 0x164-0x168 (4)
0x160|                        00 00 00 00            |        ....    |    isstdcnt: 0 0x168-0x16c (4)
0x160|                                    00 00 00 1b|            ....|    leapcnt: 27 0x16c-0x170 (4)
0x170|00 00 00 05                                    |....            |    timecnt: 5 0x170-0x174 (4)
0x170|            00 00 00 05                        |    ....        |    typecnt: 5 0x174-0x178 (4)
0x170|                        00 00 00 15            |        ....    |    charcnt: 21 0x178-0x17c (4)
     |                                               |                |  v2plusdatablock{}: 0x17c-0x320 (420)
     |                                               |                |    transition_times[0:5]: 0x17c-0x1a4 (40)
0x170|                                    ff ff ff ff|            ....|      [0]: "1919-12-31T16:02:24Z" (-1577951856) transition_time 0x17c-0x184 (8)
0x180|a1 f2 5d 90                                    |..].            |
0x180|            ff ff ff ff ba 16 d5 90            |    ........    |      [1]: "1932-10-31T16:02:24Z" (-1172908656) transition_time 0x184-0x18c (8)
0x180|                                    ff ff ff ff|            ....|      [2]: "1942-02-08T16:00:00Z" (-880272000) transition_time 0x18c-0x194 (8)
0x190|cb 88 1d 80                                    |....            |
0x190|            ff ff ff ff d2 56 ee 70            |    .....V.p    |      [3]: "1945-09-22T15:00:00Z" (-766054800) transition_time 0x194-0x19c (8)
0x190|                                    00 00 00 00|            ....|      [4]: "2023-06-28T00:00:27Z" (1687910427) transition_time 0x19c-0x1a4 (8)
0x1a0|64 9b 78 1b                                    |d.x.            |
     |                                               |                |    transition_types[0:5]: 0x1a4-0x1a9 (5)
0x1a0|            01                                 |    .           |      [0]: 1 transition_type 0x1a4-0x1a5 (1)
0x1a0|               02                              |     .          |      [1]: 2 transition_type 0x1a5-0x1a6 (1)
0x1a0|                  03                           |      .         |      [2]: 3 transition_type 0x1a6-0x1a7 (1)
0x1a0|                     04                        |       .        |      [3]: 4 transition_type 0x1a7-0x1a8 (1)
0x1a0|                        04                     |        .       |      [4]: 4 transition_type 0x1a8-0x1a9 (1)
     |                                               |                |    local_time_type_records[0:5]: 0x1a9-0x1c7 (30)
     |                                               |                |      [0]{}: local_time_type 0x1a9-0x1af (6)
0x1a0|                           00 00 6f f0         |         ..o.   |        utoff: 28656 (valid) 0x1a9-0x1ad (4)
0x1a0|                                       00      |             .  |        dst: 0 (valid) 0x1ad-0x1ae (1)
0x1a0|                                          00   |              . |        idx: 0 (valid) 0x1ae-0x1af (1)
     |                                               |                |      [1]{}: local_time_type 0x1af-0x1b5 (6)
0x1a0|                                             00|               .|        utoff: 28656 (valid) 0x1af-0x1b3 (4)
0x1b0|00 6f f0                                       |.o.             |
0x1b0|         00                                    |   .            |        dst: 0 (valid) 0x1b3-0x1b4 (1)
0x1b0|            04                                 |    .           |        idx: 4 (valid) 0x1b4-0x1b5 (1)
     |                                               |                |      [2]{}: local_time_type 0x1b5-0x1bb (6)
0x1b0|               00 00 70 80                     |     ..p.       |        utoff: 28800 (valid) 0x1b5-0x1b9 (4)
0x1b0|                           00                  |         .      |        dst: 0 (valid) 0x1b9-0x1ba (1)
0x1b0|                              08               |          .     |        idx: 8 (valid) 0x1ba-0x1bb (1)
     |                                               |                |      [3]{}: local_time_type 0x1bb-0x1c1 (6)
0x1b0|                                 00 00 7e 90   |           ..~. |        utoff: 32400 (valid) 0x1bb-0x1bf (4)
0x1b0|                                             00|               .|        dst: 0 (valid) 0x1bf-0x1c0 (1)
0x1c0|0c                                             |.               |        idx: 12 (valid) 0x1c0-0x1c1 (1)
     |                                               |                |      [4]{}: local_time_type 0x1c1-0x1c7 (6)
0x1c0|   00 00 70 80                                 | ..p.           |        utoff: 28800 (valid) 0x1c1-0x1c5 (4)
0x1c0|               00                              |     .          |        dst: 0 (valid) 0x1c5-0x1c6 (1)
0x1c0|                  10                           |      .         |        idx: 16 (valid) 0x1c6-0x1c7 (1)
     |                                               |                |    time_zone_designations[0:5]: 0x1c7-0x1dc (21)
0x1c0|                     4c 4d 54 00               |       LMT.     |      [0]: "LMT" time_zone_designation 0x1c7-0x1cb (4)
0x1c0|                                 4d 4d 54 00   |           MMT. |      [1]: "MMT" time_zone_designation 0x1cb-0x1cf (4)
0x1c0|                                             2b|               +|      [2]: "+08" time_zone_designation 0x1cf-0x1d3 (4)
0x1d0|30 38 00                                       |08.             |
0x1d0|         2b 30 39 00                           |   +09.         |      [3]: "+09" time_zone_designation 0x1d3-0x1d7 (4)
0x1d0|                     57 49 54 41 00            |       WITA.    |      [4]: "WITA" time_zone_designation 0x1d7-0x1dc (5)
     |                                               |                |    leap_second_records[0:27]: 0x1dc-0x320 (324)
     |                                               |                |      [0]{}: leap_second_record 0x1dc-0x1e8 (12)
0x1d0|                                    00 00 00 00|            ....|        occur: "1972-07-01T00:00:00Z" (78796800) 0x1dc-0x1e4 (8)
0x1e0|04 b2 58 00                                    |..X.            |
0x1e0|            00 00 00 01                        |    ....        |        corr: 1 0x1e4-0x1e8 (4)
     |                                               |                |      [1]{}: leap_second_record 0x1e8-0x1f4 (12)
0x1e0|                        00 00 00 00 05 a4 ec 01|        ........|        occur: "1973-01-01T00:00:01Z" (94694401) 0x1e8-0x1f0 (8)
0x1f0|00 00 00 02                                    |....            |        corr: 2 0x1f0-0x1f4 (4)
     |                                               |                |      [2]{}: leap_second_record 0x1f4-0x200 (12)
0x1f0|            00 00 00 00 07 86 1f 82            |    ........    |        occur: "1974-01-01T00:00:02Z" (126230402) 0x1f4-0x1fc (8)
0x1f0|                                    00 00 00 03|            ....|        corr: 3 0x1fc-0x200 (4)
     |                                               |                |      [3]{}: leap_second_record 0x200-0x20c (12)
0x200|00 00 00 00 09 67 53 03                        |.....gS.        |        occur: "1975-01-01T00:00:03Z" (157766403) 0x200-0x208 (8)
0x200|                        00 00 00 04            |        ....    |        corr: 4 0x208-0x20c (4)
     |                                               |                |      [4]{}: leap_second_record 0x20c-0x218 (12)
0x200|                                    00 00 00 00|            ....|        occur: "1976-01-01T00:00:04Z" (189302404) 0x20c-0x214 (8)
0x210|0b 48 86 84                                    |.H..            |
0x210|            00 00 00 05                        |    ....        |        corr: 5 0x214-0x218 (4)
     |                                               |                |      [5]{}: leap_second_record 0x218-0x224 (12)
0x210|                        00 00 00 00 0d 2b 0b 85|        .....+..|        occur: "1977-01-01T00:00:05Z" (220924805) 0x218-0x220 (8)
0x220|00 00 00 06                                    |....            |        corr: 6 0x220-0x224 (4)
     |                                               |                |      [6]{}: leap_second_record 0x224-0x230 (12)
0x220|            00 00 00 00 0f 0c 3f 06            |    ......?.    |        occur: "1978-01-01T00:00:06Z" (252460806) 0x224-0x22c (8)
0x220|                                    00 00 00 07|            ....|        corr: 7 0x22c-0x230 (4)
     |                                               |                |      [7]{}: leap_second_record 0x230-0x23c (12)
0x230|00 00 00 00 10 ed 72 87                        |......r.        |        occur: "1979-01-01T00:00:07Z" (283996807) 0x230-0x238 (8)
0x230|                        00 00 00 08            |        ....    |        corr: 8 0x238-0x23c (4)
     |                                               |                |      [8]{}: leap_second_record 0x23c-0x248 (12)
0x230|                                    00 00 00 00|            ....|        occur: "1980-01-01T00:00:08Z" (315532808) 0x23c-0x244 (8)
0x240|12 ce a6 08                                    |....            |
0x240|            00 00 00 09                        |    ....        |        corr: 9 0x244-0x248 (4)
     |                                               |                |      [9]{}: leap_second_record 0x248-0x254 (12)
0x240|                        00 00 00 00 15 9f ca 89|        ........|        occur: "1981-07-01T00:00:09Z" (362793609) 0x248-0x250 (8)
0x250|00 00 00 0a                                    |....            |        corr: 10 0x250-0x254 (4)
     |                                               |                |      [10]{}: leap_second_record 0x254-0x260 (12)
0x250|            00 00 00 00 17 80 fe 0a            |    ........    |        occur: "1982-07-01T00:00:10Z" (394329610) 0x254-0x25c (8)
0x250|                                    00 00 00 0b|            ....|        corr: 11 0x25c-0x260 (4)
     |                                               |                |      [11]{}: leap_second_record 0x260-0x26c (12)
0x260|00 00 00 00 19 62 31 8b                        |.....b1.        |        occur: "1983-07-01T00:00:11Z" (425865611) 0x260-0x268 (8)
0x260|                        00 00 00 0c            |        ....    |        corr: 12 0x268-0x26c (4)
     |                                               |                |      [12]{}: leap_second_record 0x26c-0x278 (12)
0x260|                                    00 00 00 00|            ....|        occur: "1985-07-01T00:00:12Z" (489024012) 0x26c-0x274 (8)
0x270|1d 25 ea 0c                                    |.%..            |
0x270|            00 00 00 0d                        |    ....        |        corr: 13 0x274-0x278 (4)
     |                                               |                |      [13]{}: leap_second_record 0x278-0x284 (12)
0x270|                        00 00 00 00 21 da e5 0d|        ....!...|        occur: "1988-01-01T00:00:13Z" (567993613) 0x278-0x280 (8)
0x280|00 00 00 0e                                    |....            |        corr: 14 0x280-0x284 (4)
     |                                               |                |      [14]{}: leap_second_record 0x284-0x290 (12)
0x280|            00 00 00 00 25 9e 9d 8e            |    ....%...    |        occur: "1990-01-01T00:00:14Z" (631152014) 0x284-0x28c (8)
0x280|                                    00 00 00 0f|            ....|        corr: 15 0x28c-0x290 (4)
     |                                               |                |      [15]{}: leap_second_record 0x290-0x29c (12)
0x290|00 00 00 00 27 7f d1 0f                        |....'...        |        occur: "1991-01-01T00:00:15Z" (662688015) 0x290-0x298 (8)
0x290|                        00 00 00 10            |        ....    |        corr: 16 0x298-0x29c (4)
     |                                               |                |      [16]{}: leap_second_record 0x29c-0x2a8 (12)
0x290|                                    00 00 00 00|            ....|        occur: "1992-07-01T00:00:16Z" (709948816) 0x29c-0x2a4 (8)
0x2a0|2a 50 f5 90                                    |*P..            |
0x2a0|            00 00 00 11                        |    ....        |        corr: 17 0x2a4-0x2a8 (4)
     |                                               |                |      [17]{}: leap_second_record 0x2a8-0x2b4 (12)
0x2a0|                        00 00 00 00 2c 32 29 11|        ....,2).|        occur: "1993-07-01T00:00:17Z" (741484817) 0x2a8-0x2b0 (8)
0x2b0|00 00 00 12                                    |....            |        corr: 18 0x2b0-0x2b4 (4)
     |                                               |                |      [18]{}: leap_second_record 0x2b4-0x2c0 (12)
0x2b0|            00 00 00 00 2e 13 5c 92            |    ......\.    |        occur: "1994-07-01T00:00:18Z" (773020818) 0x2b4-0x2bc (8)
0x2b0|                                    00 00 00 13|            ....|        corr: 19 0x2bc-0x2c0 (4)
     |                                               |                |      [19]{}: leap_second_record 0x2c0-0x2cc (12)
0x2c0|00 00 00 00 30 e7 24 13                        |....0.$.        |        occur: "1996-01-01T00:00:19Z" (820454419) 0x2c0-0x2c8 (8)
0x2c0|                        00 00 00 14            |        ....    |        corr: 20 0x2c8-0x2cc (4)
     |                                               |                |      [20]{}: leap_second_record 0x2cc-0x2d8 (12)
0x2c0|                                    00 00 00 00|            ....|        occur: "1997-07-01T00:00:20Z" (867715220) 0x2cc-0x2d4 (8)
0x2d0|33 b8 48 94                                    |3.H.            |
0x2d0|            00 00 00 15                        |    ....        |        corr: 21 0x2d4-0x2d8 (4)
     |                                               |                |      [21]{}: leap_second_record 0x2d8-0x2e4 (12)
0x2d0|                        00 00 00 00 36 8c 10 15|        ....6...|        occur: "1999-01-01T00:00:21Z" (915148821) 0x2d8-0x2e0 (8)
0x2e0|00 00 00 16                                    |....            |        corr: 22 0x2e0-0x2e4 (4)
     |                                               |                |      [22]{}: leap_second_record 0x2e4-0x2f0 (12)
0x2e0|            00 00 00 00 43 b7 1b 96            |    ....C...    |        occur: "2006-01-01T00:00:22Z" (1136073622) 0x2e4-0x2ec (8)
0x2e0|                                    00 00 00 17|            ....|        corr: 23 0x2ec-0x2f0 (4)
     |                                               |                |      [23]{}: leap_second_record 0x2f0-0x2fc (12)
0x2f0|00 00 00 00 49 5c 07 97                        |....I\..        |        occur: "2009-01-01T00:00:23Z" (1230768023) 0x2f0-0x2f8 (8)
0x2f0|                        00 00 00 18            |        ....    |        corr: 24 0x2f8-0x2fc (4)
     |                                               |                |      [24]{}: leap_second_record 0x2fc-0x308 (12)
0x2f0|                                    00 00 00 00|            ....|        occur: "2012-07-01T00:00:24Z" (1341100824) 0x2fc-0x304 (8)
0x300|4f ef 93 18                                    |O...            |
0x300|            00 00 00 19                        |    ....        |        corr: 25 0x304-0x308 (4)
     |                                               |                |      [25]{}: leap_second_record 0x308-0x314 (12)
0x300|                        00 00 00 00 55 93 2d 99|        ....U.-.|        occur: "2015-07-01T00:00:25Z" (1435708825) 0x308-0x310 (8)
0x310|00 00 00 1a                                    |....            |        corr: 26 0x310-0x314 (4)
     |                                               |                |      [26]{}: leap_second_record 0x314-0x320 (12)
0x310|            00 00 00 00 58 68 46 9a            |    ....XhF.    |        occur: "2017-01-01T00:00:26Z" (1483228826) 0x314-0x31c (8)
0x310|                                    00 00 00 1b|            ....|        corr: 27 0x31c-0x320 (4)
     |                                               |                |    standard_wall_indicators[0:0]: 0x320-0x320 (0)
     |                                               |                |    ut_local_indicators[0:0]: 0x320-0x320 (0)
     |                                               |                |  footer{}: 0x320-0x322 (2)
0x320|0a                                             |.               |    nl1: 10 (valid) 0x320-0x321 (1)
     |                                               |                |    tz_string: "" 0x321-0x321 (0)
0x320|   0a|                                         | .|             |    nl2: 10 (valid) 0x321-0x322 (1)
