$ fq -d tzif dv Malta
     |00 01 02 03 04 05 06 07 08 09 0a 0b 0c 0d 0e 0f|0123456789abcdef|.{}: Malta (tzif) 0x0-0xa3b.7 (2620)
     |                                               |                |  v1header{}: 0x0-0x2b.7 (44)
0x000|54 5a 69 66                                    |TZif            |    magic: 0x545a6966 (valid) 0x0-0x3.7 (4)
0x000|            32                                 |    2           |    ver: "2" (0x32) (valid) 0x4-0x4.7 (1)
0x000|               00 00 00 00 00 00 00 00 00 00 00|     ...........|    reserved: raw bits 0x5-0x13.7 (15)
0x010|00 00 00 00                                    |....            |
0x010|            00 00 00 07                        |    ....        |    isutcnt: 7 0x14-0x17.7 (4)
0x010|                        00 00 00 07            |        ....    |    isstdcnt: 7 0x18-0x1b.7 (4)
0x010|                                    00 00 00 00|            ....|    leapcnt: 0 0x1c-0x1f.7 (4)
0x020|00 00 00 a9                                    |....            |    timecnt: 169 0x20-0x23.7 (4)
0x020|            00 00 00 07                        |    ....        |    typecnt: 7 0x24-0x27.7 (4)
0x020|                        00 00 00 0d            |        ....    |    charcnt: 13 0x28-0x2b.7 (4)
     |                                               |                |  v1datablock{}: 0x2c-0x3bd.7 (914)
     |                                               |                |    transition_times[0:169]: 0x2c-0x2cf.7 (676)
0x020|                                    80 00 00 00|            ....|      [0]: "1901-12-13T20:45:52Z" (-2147483648) transition_time 0x2c-0x2f.7 (4)
0x030|9b 38 f8 70                                    |.8.p            |      [1]: "1916-06-03T23:00:00Z" (-1690765200) transition_time 0x30-0x33.7 (4)
0x030|            9b d5 cc e0                        |    ....        |      [2]: "1916-09-30T22:00:00Z" (-1680487200) transition_time 0x34-0x37.7 (4)
0x030|                        9c c5 cb f0            |        ....    |      [3]: "1917-03-31T23:00:00Z" (-1664758800) transition_time 0x38-0x3b.7 (4)
0x030|                                    9d b7 00 60|            ...`|      [4]: "1917-09-30T22:00:00Z" (-1648951200) transition_time 0x3c-0x3f.7 (4)
0x040|9e 89 fe 70                                    |...p            |      [5]: "1918-03-09T23:00:00Z" (-1635123600) transition_time 0x40-0x43.7 (4)
0x040|            9f a0 1c e0                        |    ....        |      [6]: "1918-10-06T22:00:00Z" (-1616896800) transition_time 0x44-0x47.7 (4)
0x040|                        a0 60 a5 f0            |        .`..    |      [7]: "1919-03-01T23:00:00Z" (-1604278800) transition_time 0x48-0x4b.7 (4)
0x040|                                    a1 7e ad 60|            .~.`|      [8]: "1919-10-04T22:00:00Z" (-1585533600) transition_time 0x4c-0x4f.7 (4)
0x050|a2 5c 37 70                                    |.\7p            |      [9]: "1920-03-20T23:00:00Z" (-1571014800) transition_time 0x50-0x53.7 (4)
0x050|            a3 4c 1a 60                        |    .L.`        |      [10]: "1920-09-18T22:00:00Z" (-1555293600) transition_time 0x54-0x57.7 (4)
0x050|                        c8 6c 35 f0            |        .l5.    |      [11]: "1940-06-14T23:00:00Z" (-932432400) transition_time 0x58-0x5b.7 (4)
0x050|                                    cc e7 4b 10|            ..K.|      [12]: "1942-11-02T01:00:00Z" (-857257200) transition_time 0x5c-0x5f.7 (4)
0x060|cd a9 17 90                                    |....            |      [13]: "1943-03-29T01:00:00Z" (-844556400) transition_time 0x60-0x63.7 (4)
0x060|            ce a2 43 10                        |    ..C.        |      [14]: "1943-10-04T01:00:00Z" (-828226800) transition_time 0x64-0x67.7 (4)
0x060|                        cf 90 e2 90            |        ....    |      [15]: "1944-04-02T01:00:00Z" (-812588400) transition_time 0x68-0x6b.7 (4)
0x060|                                    d0 6e 5e 90|            .n^.|      [16]: "1944-09-17T01:00:00Z" (-798073200) transition_time 0x6c-0x6f.7 (4)
0x070|d1 72 16 10                                    |.r..            |      [17]: "1945-04-02T01:00:00Z" (-781052400) transition_time 0x70-0x73.7 (4)
0x070|            d2 4c d2 f0                        |    .L..        |      [18]: "1945-09-14T23:00:00Z" (-766717200) transition_time 0x74-0x77.7 (4)
0x070|                        d3 3e 31 90            |        .>1.    |      [19]: "1946-03-17T01:00:00Z" (-750898800) transition_time 0x78-0x7b.7 (4)
0x070|                                    d4 49 d2 10|            .I..|      [20]: "1946-10-06T01:00:00Z" (-733359600) transition_time 0x7c-0x7f.7 (4)
0x080|d5 1d f7 70                                    |...p            |      [21]: "1947-03-15T23:00:00Z" (-719456400) transition_time 0x80-0x83.7 (4)
0x080|            d6 29 97 f0                        |    .)..        |      [22]: "1947-10-04T23:00:00Z" (-701917200) transition_time 0x84-0x87.7 (4)
0x080|                        d6 eb 80 90            |        ....    |      [23]: "1948-02-29T01:00:00Z" (-689209200) transition_time 0x88-0x8b.7 (4)
0x080|                                    d8 09 96 10|            ....|      [24]: "1948-10-03T01:00:00Z" (-670460400) transition_time 0x8c-0x8f.7 (4)
0x090|f9 33 b5 f0                                    |.3..            |      [25]: "1966-05-21T23:00:00Z" (-114051600) transition_time 0x90-0x93.7 (4)
0x090|            f9 d9 c4 e0                        |    ....        |      [26]: "1966-09-24T22:00:00Z" (-103168800) transition_time 0x94-0x97.7 (4)
0x090|                        fb 1c d2 70            |        ...p    |      [27]: "1967-05-27T23:00:00Z" (-81997200) transition_time 0x98-0x9b.7 (4)
0x090|                                    fb b9 b4 f0|            ....|      [28]: "1967-09-23T23:00:00Z" (-71715600) transition_time 0x9c-0x9f.7 (4)
0x0a0|fc fc b4 70                                    |...p            |      [29]: "1968-05-25T23:00:00Z" (-50547600) transition_time 0xa0-0xa3.7 (4)
0x0a0|            fd 99 96 f0                        |    ....        |      [30]: "1968-09-21T23:00:00Z" (-40266000) transition_time 0xa4-0xa7.7 (4)
0x0a0|                        fe e5 d0 f0            |        ....    |      [31]: "1969-05-31T23:00:00Z" (-18493200) transition_time 0xa8-0xab.7 (4)
0x0a0|                                    ff 82 b3 70|            ...p|      [32]: "1969-09-27T23:00:00Z" (-8211600) transition_time 0xac-0xaf.7 (4)
0x0b0|00 c5 b2 f0                                    |....            |      [33]: "1970-05-30T23:00:00Z" (12956400) transition_time 0xb0-0xb3.7 (4)
0x0b0|            01 62 95 70                        |    .b.p        |      [34]: "1970-09-26T23:00:00Z" (23238000) transition_time 0xb4-0xb7.7 (4)
0x0b0|                        02 9c 5a 70            |        ..Zp    |      [35]: "1971-05-22T23:00:00Z" (43801200) transition_time 0xb8-0xbb.7 (4)
0x0b0|                                    03 42 77 70|            .Bwp|      [36]: "1971-09-25T23:00:00Z" (54687600) transition_time 0xbc-0xbf.7 (4)
0x0c0|04 85 76 f0                                    |..v.            |      [37]: "1972-05-27T23:00:00Z" (75855600) transition_time 0xc0-0xc3.7 (4)
0x0c0|            05 2b 93 f0                        |    .+..        |      [38]: "1972-09-30T23:00:00Z" (86742000) transition_time 0xc4-0xc7.7 (4)
0x0c0|                        06 1a 33 70            |        ..3p    |      [39]: "1973-03-30T23:00:00Z" (102380400) transition_time 0xc8-0xcb.7 (4)
0x0c0|                                    07 0a 24 70|            ..$p|      [40]: "1973-09-28T23:00:00Z" (118105200) transition_time 0xcc-0xcf.7 (4)
0x0d0|08 17 16 70                                    |...p            |      [41]: "1974-04-20T23:00:00Z" (135730800) transition_time 0xd0-0xd3.7 (4)
0x0d0|            08 da 34 70                        |    ..4p        |      [42]: "1974-09-15T23:00:00Z" (148518000) transition_time 0xd4-0xd7.7 (4)
0x0d0|                        09 f7 14 90            |        ....    |      [43]: "1975-04-20T01:00:00Z" (167187600) transition_time 0xd8-0xdb.7 (4)
0x0d0|                                    0a c2 0d 80|            ....|      [44]: "1975-09-21T00:00:00Z" (180489600) transition_time 0xdc-0xdf.7 (4)
0x0e0|0b d6 f6 90                                    |....            |      [45]: "1976-04-18T01:00:00Z" (198637200) transition_time 0xe0-0xe3.7 (4)
0x0e0|            0c a1 ef 80                        |    ....        |      [46]: "1976-09-19T00:00:00Z" (211939200) transition_time 0xe4-0xe7.7 (4)
0x0e0|                        0d b6 d8 90            |        ....    |      [47]: "1977-04-17T01:00:00Z" (230086800) transition_time 0xe8-0xeb.7 (4)
0x0e0|                                    0e 81 d1 80|            ....|      [48]: "1977-09-18T00:00:00Z" (243388800) transition_time 0xec-0xef.7 (4)
0x0f0|0f 96 ba 90                                    |....            |      [49]: "1978-04-16T01:00:00Z" (261536400) transition_time 0xf0-0xf3.7 (4)
0x0f0|            10 61 b3 80                        |    .a..        |      [50]: "1978-09-17T00:00:00Z" (274838400) transition_time 0xf4-0xf7.7 (4)
0x0f0|                        11 76 9c 90            |        .v..    |      [51]: "1979-04-15T01:00:00Z" (292986000) transition_time 0xf8-0xfb.7 (4)
0x0f0|                                    12 41 95 80|            .A..|      [52]: "1979-09-16T00:00:00Z" (306288000) transition_time 0xfc-0xff.7 (4)
0x100|13 45 5b 10                                    |.E[.            |      [53]: "1980-03-31T01:00:00Z" (323312400) transition_time 0x100-0x103.7 (4)
0x100|            14 2a b2 00                        |    .*..        |      [54]: "1980-09-21T00:00:00Z" (338342400) transition_time 0x104-0x107.7 (4)
0x100|                        15 23 eb 90            |        .#..    |      [55]: "1981-03-29T01:00:00Z" (354675600) transition_time 0x108-0x10b.7 (4)
0x100|                                    16 13 dc 90|            ....|      [56]: "1981-09-27T01:00:00Z" (370400400) transition_time 0x10c-0x10f.7 (4)
0x110|17 03 cd 90                                    |....            |      [57]: "1982-03-28T01:00:00Z" (386125200) transition_time 0x110-0x113.7 (4)
0x110|            17 f3 be 90                        |    ....        |      [58]: "1982-09-26T01:00:00Z" (401850000) transition_time 0x114-0x117.7 (4)
0x110|                        18 e3 af 90            |        ....    |      [59]: "1983-03-27T01:00:00Z" (417574800) transition_time 0x118-0x11b.7 (4)
0x110|                                    19 d3 a0 90|            ....|      [60]: "1983-09-25T01:00:00Z" (433299600) transition_time 0x11c-0x11f.7 (4)
0x120|1a c3 91 90                                    |....            |      [61]: "1984-03-25T01:00:00Z" (449024400) transition_time 0x120-0x123.7 (4)
0x120|            1b bc bd 10                        |    ....        |      [62]: "1984-09-30T01:00:00Z" (465354000) transition_time 0x124-0x127.7 (4)
0x120|                        1c ac ae 10            |        ....    |      [63]: "1985-03-31T01:00:00Z" (481078800) transition_time 0x128-0x12b.7 (4)
0x120|                                    1d 9c 9f 10|            ....|      [64]: "1985-09-29T01:00:00Z" (496803600) transition_time 0x12c-0x12f.7 (4)
0x130|1e 8c 90 10                                    |....            |      [65]: "1986-03-30T01:00:00Z" (512528400) transition_time 0x130-0x133.7 (4)
0x130|            1f 7c 81 10                        |    .|..        |      [66]: "1986-09-28T01:00:00Z" (528253200) transition_time 0x134-0x137.7 (4)
0x130|                        20 6c 72 10            |         lr.    |      [67]: "1987-03-29T01:00:00Z" (543978000) transition_time 0x138-0x13b.7 (4)
0x130|                                    21 5c 63 10|            !\c.|      [68]: "1987-09-27T01:00:00Z" (559702800) transition_time 0x13c-0x13f.7 (4)
0x140|22 4c 54 10                                    |"LT.            |      [69]: "1988-03-27T01:00:00Z" (575427600) transition_time 0x140-0x143.7 (4)
0x140|            23 3c 45 10                        |    #<E.        |      [70]: "1988-09-25T01:00:00Z" (591152400) transition_time 0x144-0x147.7 (4)
0x140|                        24 2c 36 10            |        $,6.    |      [71]: "1989-03-26T01:00:00Z" (606877200) transition_time 0x148-0x14b.7 (4)
0x140|                                    25 1c 27 10|            %.'.|      [72]: "1989-09-24T01:00:00Z" (622602000) transition_time 0x14c-0x14f.7 (4)
0x150|26 0c 18 10                                    |&...            |      [73]: "1990-03-25T01:00:00Z" (638326800) transition_time 0x150-0x153.7 (4)
0x150|            27 05 43 90                        |    '.C.        |      [74]: "1990-09-30T01:00:00Z" (654656400) transition_time 0x154-0x157.7 (4)
0x150|                        27 f5 34 90            |        '.4.    |      [75]: "1991-03-31T01:00:00Z" (670381200) transition_time 0x158-0x15b.7 (4)
0x150|                                    28 e5 25 90|            (.%.|      [76]: "1991-09-29T01:00:00Z" (686106000) transition_time 0x15c-0x15f.7 (4)
0x160|29 d5 16 90                                    |)...            |      [77]: "1992-03-29T01:00:00Z" (701830800) transition_time 0x160-0x163.7 (4)
0x160|            2a c5 07 90                        |    *...        |      [78]: "1992-09-27T01:00:00Z" (717555600) transition_time 0x164-0x167.7 (4)
0x160|                        2b b4 f8 90            |        +...    |      [79]: "1993-03-28T01:00:00Z" (733280400) transition_time 0x168-0x16b.7 (4)
0x160|                                    2c a4 e9 90|            ,...|      [80]: "1993-09-26T01:00:00Z" (749005200) transition_time 0x16c-0x16f.7 (4)
0x170|2d 94 da 90                                    |-...            |      [81]: "1994-03-27T01:00:00Z" (764730000) transition_time 0x170-0x173.7 (4)
0x170|            2e 84 cb 90                        |    ....        |      [82]: "1994-09-25T01:00:00Z" (780454800) transition_time 0x174-0x177.7 (4)
0x170|                        2f 74 bc 90            |        /t..    |      [83]: "1995-03-26T01:00:00Z" (796179600) transition_time 0x178-0x17b.7 (4)
0x170|                                    30 64 ad 90|            0d..|      [84]: "1995-09-24T01:00:00Z" (811904400) transition_time 0x17c-0x17f.7 (4)
0x180|31 5d d9 10                                    |1]..            |      [85]: "1996-03-31T01:00:00Z" (828234000) transition_time 0x180-0x183.7 (4)
0x180|            32 72 b4 10                        |    2r..        |      [86]: "1996-10-27T01:00:00Z" (846378000) transition_time 0x184-0x187.7 (4)
0x180|                        33 3d bb 10            |        3=..    |      [87]: "1997-03-30T01:00:00Z" (859683600) transition_time 0x188-0x18b.7 (4)
0x180|                                    34 52 96 10|            4R..|      [88]: "1997-10-26T01:00:00Z" (877827600) transition_time 0x18c-0x18f.7 (4)
0x190|35 1d 9d 10                                    |5...            |      [89]: "1998-03-29T01:00:00Z" (891133200) transition_time 0x190-0x193.7 (4)
0x190|            36 32 78 10                        |    62x.        |      [90]: "1998-10-25T01:00:00Z" (909277200) transition_time 0x194-0x197.7 (4)
0x190|                        36 fd 7f 10            |        6...    |      [91]: "1999-03-28T01:00:00Z" (922582800) transition_time 0x198-0x19b.7 (4)
0x190|                                    38 1b 94 90|            8...|      [92]: "1999-10-31T01:00:00Z" (941331600) transition_time 0x19c-0x19f.7 (4)
0x1a0|38 dd 61 10                                    |8.a.            |      [93]: "2000-03-26T01:00:00Z" (954032400) transition_time 0x1a0-0x1a3.7 (4)
0x1a0|            39 fb 76 90                        |    9.v.        |      [94]: "2000-10-29T01:00:00Z" (972781200) transition_time 0x1a4-0x1a7.7 (4)
0x1a0|                        3a bd 43 10            |        :.C.    |      [95]: "2001-03-25T01:00:00Z" (985482000) transition_time 0x1a8-0x1ab.7 (4)
0x1a0|                                    3b db 58 90|            ;.X.|      [96]: "2001-10-28T01:00:00Z" (1004230800) transition_time 0x1ac-0x1af.7 (4)
0x1b0|3c a6 5f 90                                    |<._.            |      [97]: "2002-03-31T01:00:00Z" (1017536400) transition_time 0x1b0-0x1b3.7 (4)
0x1b0|            3d bb 3a 90                        |    =.:.        |      [98]: "2002-10-27T01:00:00Z" (1035680400) transition_time 0x1b4-0x1b7.7 (4)
0x1b0|                        3e 86 41 90            |        >.A.    |      [99]: "2003-03-30T01:00:00Z" (1048986000) transition_time 0x1b8-0x1bb.7 (4)
0x1b0|                                    3f 9b 1c 90|            ?...|      [100]: "2003-10-26T01:00:00Z" (1067130000) transition_time 0x1bc-0x1bf.7 (4)
0x1c0|40 66 23 90                                    |@f#.            |      [101]: "2004-03-28T01:00:00Z" (1080435600) transition_time 0x1c0-0x1c3.7 (4)
0x1c0|            41 84 39 10                        |    A.9.        |      [102]: "2004-10-31T01:00:00Z" (1099184400) transition_time 0x1c4-0x1c7.7 (4)
0x1c0|                        42 46 05 90            |        BF..    |      [103]: "2005-03-27T01:00:00Z" (1111885200) transition_time 0x1c8-0x1cb.7 (4)
0x1c0|                                    43 64 1b 10|            Cd..|      [104]: "2005-10-30T01:00:00Z" (1130634000) transition_time 0x1cc-0x1cf.7 (4)
0x1d0|44 25 e7 90                                    |D%..            |      [105]: "2006-03-26T01:00:00Z" (1143334800) transition_time 0x1d0-0x1d3.7 (4)
0x1d0|            45 43 fd 10                        |    EC..        |      [106]: "2006-10-29T01:00:00Z" (1162083600) transition_time 0x1d4-0x1d7.7 (4)
0x1d0|                        46 05 c9 90            |        F...    |      [107]: "2007-03-25T01:00:00Z" (1174784400) transition_time 0x1d8-0x1db.7 (4)
0x1d0|                                    47 23 df 10|            G#..|      [108]: "2007-10-28T01:00:00Z" (1193533200) transition_time 0x1dc-0x1df.7 (4)
0x1e0|47 ee e6 10                                    |G...            |      [109]: "2008-03-30T01:00:00Z" (1206838800) transition_time 0x1e0-0x1e3.7 (4)
0x1e0|            49 03 c1 10                        |    I...        |      [110]: "2008-10-26T01:00:00Z" (1224982800) transition_time 0x1e4-0x1e7.7 (4)
0x1e0|                        49 ce c8 10            |        I...    |      [111]: "2009-03-29T01:00:00Z" (1238288400) transition_time 0x1e8-0x1eb.7 (4)
0x1e0|                                    4a e3 a3 10|            J...|      [112]: "2009-10-25T01:00:00Z" (1256432400) transition_time 0x1ec-0x1ef.7 (4)
0x1f0|4b ae aa 10                                    |K...            |      [113]: "2010-03-28T01:00:00Z" (1269738000) transition_time 0x1f0-0x1f3.7 (4)
0x1f0|            4c cc bf 90                        |    L...        |      [114]: "2010-10-31T01:00:00Z" (1288486800) transition_time 0x1f4-0x1f7.7 (4)
0x1f0|                        4d 8e 8c 10            |        M...    |      [115]: "2011-03-27T01:00:00Z" (1301187600) transition_time 0x1f8-0x1fb.7 (4)
0x1f0|                                    4e ac a1 90|            N...|      [116]: "2011-10-30T01:00:00Z" (1319936400) transition_time 0x1fc-0x1ff.7 (4)
0x200|4f 6e 6e 10                                    |Onn.            |      [117]: "2012-03-25T01:00:00Z" (1332637200) transition_time 0x200-0x203.7 (4)
0x200|            50 8c 83 90                        |    P...        |      [118]: "2012-10-28T01:00:00Z" (1351386000) transition_time 0x204-0x207.7 (4)
0x200|                        51 57 8a 90            |        QW..    |      [119]: "2013-03-31T01:00:00Z" (1364691600) transition_time 0x208-0x20b.7 (4)
0x200|                                    52 6c 65 90|            Rle.|      [120]: "2013-10-27T01:00:00Z" (1382835600) transition_time 0x20c-0x20f.7 (4)
0x210|53 37 6c 90                                    |S7l.            |      [121]: "2014-03-30T01:00:00Z" (1396141200) transition_time 0x210-0x213.7 (4)
0x210|            54 4c 47 90                        |    TLG.        |      [122]: "2014-10-26T01:00:00Z" (1414285200) transition_time 0x214-0x217.7 (4)
0x210|                        55 17 4e 90            |        U.N.    |      [123]: "2015-03-29T01:00:00Z" (1427590800) transition_time 0x218-0x21b.7 (4)
0x210|                                    56 2c 29 90|            V,).|      [124]: "2015-10-25T01:00:00Z" (1445734800) transition_time 0x21c-0x21f.7 (4)
0x220|56 f7 30 90                                    |V.0.            |      [125]: "2016-03-27T01:00:00Z" (1459040400) transition_time 0x220-0x223.7 (4)
0x220|            58 15 46 10                        |    X.F.        |      [126]: "2016-10-30T01:00:00Z" (1477789200) transition_time 0x224-0x227.7 (4)
0x220|                        58 d7 12 90            |        X...    |      [127]: "2017-03-26T01:00:00Z" (1490490000) transition_time 0x228-0x22b.7 (4)
0x220|                                    59 f5 28 10|            Y.(.|      [128]: "2017-10-29T01:00:00Z" (1509238800) transition_time 0x22c-0x22f.7 (4)
0x230|5a b6 f4 90                                    |Z...            |      [129]: "2018-03-25T01:00:00Z" (1521939600) transition_time 0x230-0x233.7 (4)
0x230|            5b d5 0a 10                        |    [...        |      [130]: "2018-10-28T01:00:00Z" (1540688400) transition_time 0x234-0x237.7 (4)
0x230|                        5c a0 11 10            |        \...    |      [131]: "2019-03-31T01:00:00Z" (1553994000) transition_time 0x238-0x23b.7 (4)
0x230|                                    5d b4 ec 10|            ]...|      [132]: "2019-10-27T01:00:00Z" (1572138000) transition_time 0x23c-0x23f.7 (4)
0x240|5e 7f f3 10                                    |^...            |      [133]: "2020-03-29T01:00:00Z" (1585443600) transition_time 0x240-0x243.7 (4)
0x240|            5f 94 ce 10                        |    _...        |      [134]: "2020-10-25T01:00:00Z" (1603587600) transition_time 0x244-0x247.7 (4)
0x240|                        60 5f d5 10            |        `_..    |      [135]: "2021-03-28T01:00:00Z" (1616893200) transition_time 0x248-0x24b.7 (4)
0x240|                                    61 7d ea 90|            a}..|      [136]: "2021-10-31T01:00:00Z" (1635642000) transition_time 0x24c-0x24f.7 (4)
0x250|62 3f b7 10                                    |b?..            |      [137]: "2022-03-27T01:00:00Z" (1648342800) transition_time 0x250-0x253.7 (4)
0x250|            63 5d cc 90                        |    c]..        |      [138]: "2022-10-30T01:00:00Z" (1667091600) transition_time 0x254-0x257.7 (4)
0x250|                        64 1f 99 10            |        d...    |      [139]: "2023-03-26T01:00:00Z" (1679792400) transition_time 0x258-0x25b.7 (4)
0x250|                                    65 3d ae 90|            e=..|      [140]: "2023-10-29T01:00:00Z" (1698541200) transition_time 0x25c-0x25f.7 (4)
0x260|66 08 b5 90                                    |f...            |      [141]: "2024-03-31T01:00:00Z" (1711846800) transition_time 0x260-0x263.7 (4)
0x260|            67 1d 90 90                        |    g...        |      [142]: "2024-10-27T01:00:00Z" (1729990800) transition_time 0x264-0x267.7 (4)
0x260|                        67 e8 97 90            |        g...    |      [143]: "2025-03-30T01:00:00Z" (1743296400) transition_time 0x268-0x26b.7 (4)
0x260|                                    68 fd 72 90|            h.r.|      [144]: "2025-10-26T01:00:00Z" (1761440400) transition_time 0x26c-0x26f.7 (4)
0x270|69 c8 79 90                                    |i.y.            |      [145]: "2026-03-29T01:00:00Z" (1774746000) transition_time 0x270-0x273.7 (4)
0x270|            6a dd 54 90                        |    j.T.        |      [146]: "2026-10-25T01:00:00Z" (1792890000) transition_time 0x274-0x277.7 (4)
0x270|                        6b a8 5b 90            |        k.[.    |      [147]: "2027-03-28T01:00:00Z" (1806195600) transition_time 0x278-0x27b.7 (4)
0x270|                                    6c c6 71 10|            l.q.|      [148]: "2027-10-31T01:00:00Z" (1824944400) transition_time 0x27c-0x27f.7 (4)
0x280|6d 88 3d 90                                    |m.=.            |      [149]: "2028-03-26T01:00:00Z" (1837645200) transition_time 0x280-0x283.7 (4)
0x280|            6e a6 53 10                        |    n.S.        |      [150]: "2028-10-29T01:00:00Z" (1856394000) transition_time 0x284-0x287.7 (4)
0x280|                        6f 68 1f 90            |        oh..    |      [151]: "2029-03-25T01:00:00Z" (1869094800) transition_time 0x288-0x28b.7 (4)
0x280|                                    70 86 35 10|            p.5.|      [152]: "2029-10-28T01:00:00Z" (1887843600) transition_time 0x28c-0x28f.7 (4)
0x290|71 51 3c 10                                    |qQ<.            |      [153]: "2030-03-31T01:00:00Z" (1901149200) transition_time 0x290-0x293.7 (4)
0x290|            72 66 17 10                        |    rf..        |      [154]: "2030-10-27T01:00:00Z" (1919293200) transition_time 0x294-0x297.7 (4)
0x290|                        73 31 1e 10            |        s1..    |      [155]: "2031-03-30T01:00:00Z" (1932598800) transition_time 0x298-0x29b.7 (4)
0x290|                                    74 45 f9 10|            tE..|      [156]: "2031-10-26T01:00:00Z" (1950742800) transition_time 0x29c-0x29f.7 (4)
0x2a0|75 11 00 10                                    |u...            |      [157]: "2032-03-28T01:00:00Z" (1964048400) transition_time 0x2a0-0x2a3.7 (4)
0x2a0|            76 2f 15 90                        |    v/..        |      [158]: "2032-10-31T01:00:00Z" (1982797200) transition_time 0x2a4-0x2a7.7 (4)
0x2a0|                        76 f0 e2 10            |        v...    |      [159]: "2033-03-27T01:00:00Z" (1995498000) transition_time 0x2a8-0x2ab.7 (4)
0x2a0|                                    78 0e f7 90|            x...|      [160]: "2033-10-30T01:00:00Z" (2014246800) transition_time 0x2ac-0x2af.7 (4)
0x2b0|78 d0 c4 10                                    |x...            |      [161]: "2034-03-26T01:00:00Z" (2026947600) transition_time 0x2b0-0x2b3.7 (4)
0x2b0|            79 ee d9 90                        |    y...        |      [162]: "2034-10-29T01:00:00Z" (2045696400) transition_time 0x2b4-0x2b7.7 (4)
0x2b0|                        7a b0 a6 10            |        z...    |      [163]: "2035-03-25T01:00:00Z" (2058397200) transition_time 0x2b8-0x2bb.7 (4)
0x2b0|                                    7b ce bb 90|            {...|      [164]: "2035-10-28T01:00:00Z" (2077146000) transition_time 0x2bc-0x2bf.7 (4)
0x2c0|7c 99 c2 90                                    ||...            |      [165]: "2036-03-30T01:00:00Z" (2090451600) transition_time 0x2c0-0x2c3.7 (4)
0x2c0|            7d ae 9d 90                        |    }...        |      [166]: "2036-10-26T01:00:00Z" (2108595600) transition_time 0x2c4-0x2c7.7 (4)
0x2c0|                        7e 79 a4 90            |        ~y..    |      [167]: "2037-03-29T01:00:00Z" (2121901200) transition_time 0x2c8-0x2cb.7 (4)
0x2c0|                                    7f 8e 7f 90|            ....|      [168]: "2037-10-25T01:00:00Z" (2140045200) transition_time 0x2cc-0x2cf.7 (4)
     |                                               |                |    transition_types[0:169]: 0x2d0-0x378.7 (169)
0x2d0|02                                             |.               |      [0]: 2 transition_type 0x2d0-0x2d0.7 (1)
0x2d0|   01                                          | .              |      [1]: 1 transition_type 0x2d1-0x2d1.7 (1)
0x2d0|      02                                       |  .             |      [2]: 2 transition_type 0x2d2-0x2d2.7 (1)
0x2d0|         01                                    |   .            |      [3]: 1 transition_type 0x2d3-0x2d3.7 (1)
0x2d0|            02                                 |    .           |      [4]: 2 transition_type 0x2d4-0x2d4.7 (1)
0x2d0|               01                              |     .          |      [5]: 1 transition_type 0x2d5-0x2d5.7 (1)
0x2d0|                  02                           |      .         |      [6]: 2 transition_type 0x2d6-0x2d6.7 (1)
0x2d0|                     01                        |       .        |      [7]: 1 transition_type 0x2d7-0x2d7.7 (1)
0x2d0|                        02                     |        .       |      [8]: 2 transition_type 0x2d8-0x2d8.7 (1)
0x2d0|                           01                  |         .      |      [9]: 1 transition_type 0x2d9-0x2d9.7 (1)
0x2d0|                              02               |          .     |      [10]: 2 transition_type 0x2da-0x2da.7 (1)
0x2d0|                                 01            |           .    |      [11]: 1 transition_type 0x2db-0x2db.7 (1)
0x2d0|                                    03         |            .   |      [12]: 3 transition_type 0x2dc-0x2dc.7 (1)
0x2d0|                                       04      |             .  |      [13]: 4 transition_type 0x2dd-0x2dd.7 (1)
0x2d0|                                          03   |              . |      [14]: 3 transition_type 0x2de-0x2de.7 (1)
0x2d0|                                             04|               .|      [15]: 4 transition_type 0x2df-0x2df.7 (1)
0x2e0|03                                             |.               |      [16]: 3 transition_type 0x2e0-0x2e0.7 (1)
0x2e0|   01                                          | .              |      [17]: 1 transition_type 0x2e1-0x2e1.7 (1)
0x2e0|      02                                       |  .             |      [18]: 2 transition_type 0x2e2-0x2e2.7 (1)
0x2e0|         04                                    |   .            |      [19]: 4 transition_type 0x2e3-0x2e3.7 (1)
0x2e0|            03                                 |    .           |      [20]: 3 transition_type 0x2e4-0x2e4.7 (1)
0x2e0|               04                              |     .          |      [21]: 4 transition_type 0x2e5-0x2e5.7 (1)
0x2e0|                  03                           |      .         |      [22]: 3 transition_type 0x2e6-0x2e6.7 (1)
0x2e0|                     04                        |       .        |      [23]: 4 transition_type 0x2e7-0x2e7.7 (1)
0x2e0|                        03                     |        .       |      [24]: 3 transition_type 0x2e8-0x2e8.7 (1)
0x2e0|                           04                  |         .      |      [25]: 4 transition_type 0x2e9-0x2e9.7 (1)
0x2e0|                              02               |          .     |      [26]: 2 transition_type 0x2ea-0x2ea.7 (1)
0x2e0|                                 04            |           .    |      [27]: 4 transition_type 0x2eb-0x2eb.7 (1)
0x2e0|                                    03         |            .   |      [28]: 3 transition_type 0x2ec-0x2ec.7 (1)
0x2e0|                                       04      |             .  |      [29]: 4 transition_type 0x2ed-0x2ed.7 (1)
0x2e0|                                          03   |              . |      [30]: 3 transition_type 0x2ee-0x2ee.7 (1)
0x2e0|                                             04|               .|      [31]: 4 transition_type 0x2ef-0x2ef.7 (1)
0x2f0|03                                             |.               |      [32]: 3 transition_type 0x2f0-0x2f0.7 (1)
0x2f0|   04                                          | .              |      [33]: 4 transition_type 0x2f1-0x2f1.7 (1)
0x2f0|      03                                       |  .             |      [34]: 3 transition_type 0x2f2-0x2f2.7 (1)
0x2f0|         04                                    |   .            |      [35]: 4 transition_type 0x2f3-0x2f3.7 (1)
0x2f0|            03                                 |    .           |      [36]: 3 transition_type 0x2f4-0x2f4.7 (1)
0x2f0|               04                              |     .          |      [37]: 4 transition_type 0x2f5-0x2f5.7 (1)
0x2f0|                  03                           |      .         |      [38]: 3 transition_type 0x2f6-0x2f6.7 (1)
0x2f0|                     04                        |       .        |      [39]: 4 transition_type 0x2f7-0x2f7.7 (1)
0x2f0|                        03                     |        .       |      [40]: 3 transition_type 0x2f8-0x2f8.7 (1)
0x2f0|                           04                  |         .      |      [41]: 4 transition_type 0x2f9-0x2f9.7 (1)
0x2f0|                              03               |          .     |      [42]: 3 transition_type 0x2fa-0x2fa.7 (1)
0x2f0|                                 01            |           .    |      [43]: 1 transition_type 0x2fb-0x2fb.7 (1)
0x2f0|                                    02         |            .   |      [44]: 2 transition_type 0x2fc-0x2fc.7 (1)
0x2f0|                                       01      |             .  |      [45]: 1 transition_type 0x2fd-0x2fd.7 (1)
0x2f0|                                          02   |              . |      [46]: 2 transition_type 0x2fe-0x2fe.7 (1)
0x2f0|                                             01|               .|      [47]: 1 transition_type 0x2ff-0x2ff.7 (1)
0x300|02                                             |.               |      [48]: 2 transition_type 0x300-0x300.7 (1)
0x300|   01                                          | .              |      [49]: 1 transition_type 0x301-0x301.7 (1)
0x300|      02                                       |  .             |      [50]: 2 transition_type 0x302-0x302.7 (1)
0x300|         01                                    |   .            |      [51]: 1 transition_type 0x303-0x303.7 (1)
0x300|            02                                 |    .           |      [52]: 2 transition_type 0x304-0x304.7 (1)
0x300|               01                              |     .          |      [53]: 1 transition_type 0x305-0x305.7 (1)
0x300|                  02                           |      .         |      [54]: 2 transition_type 0x306-0x306.7 (1)
0x300|                     05                        |       .        |      [55]: 5 transition_type 0x307-0x307.7 (1)
0x300|                        06                     |        .       |      [56]: 6 transition_type 0x308-0x308.7 (1)
0x300|                           05                  |         .      |      [57]: 5 transition_type 0x309-0x309.7 (1)
0x300|                              06               |          .     |      [58]: 6 transition_type 0x30a-0x30a.7 (1)
0x300|                                 05            |           .    |      [59]: 5 transition_type 0x30b-0x30b.7 (1)
0x300|                                    06         |            .   |      [60]: 6 transition_type 0x30c-0x30c.7 (1)
0x300|                                       05      |             .  |      [61]: 5 transition_type 0x30d-0x30d.7 (1)
0x300|                                          06   |              . |      [62]: 6 transition_type 0x30e-0x30e.7 (1)
0x300|                                             05|               .|      [63]: 5 transition_type 0x30f-0x30f.7 (1)
0x310|06                                             |.               |      [64]: 6 transition_type 0x310-0x310.7 (1)
0x310|   05                                          | .              |      [65]: 5 transition_type 0x311-0x311.7 (1)
0x310|      06                                       |  .             |      [66]: 6 transition_type 0x312-0x312.7 (1)
0x310|         05                                    |   .            |      [67]: 5 transition_type 0x313-0x313.7 (1)
0x310|            06                                 |    .           |      [68]: 6 transition_type 0x314-0x314.7 (1)
0x310|               05                              |     .          |      [69]: 5 transition_type 0x315-0x315.7 (1)
0x310|                  06                           |      .         |      [70]: 6 transition_type 0x316-0x316.7 (1)
0x310|                     05                        |       .        |      [71]: 5 transition_type 0x317-0x317.7 (1)
0x310|                        06                     |        .       |      [72]: 6 transition_type 0x318-0x318.7 (1)
0x310|                           05                  |         .      |      [73]: 5 transition_type 0x319-0x319.7 (1)
0x310|                              06               |          .     |      [74]: 6 transition_type 0x31a-0x31a.7 (1)
0x310|                                 05            |           .    |      [75]: 5 transition_type 0x31b-0x31b.7 (1)
0x310|                                    06         |            .   |      [76]: 6 transition_type 0x31c-0x31c.7 (1)
0x310|                                       05      |             .  |      [77]: 5 transition_type 0x31d-0x31d.7 (1)
0x310|                                          06   |              . |      [78]: 6 transition_type 0x31e-0x31e.7 (1)
0x310|                                             05|               .|      [79]: 5 transition_type 0x31f-0x31f.7 (1)
0x320|06                                             |.               |      [80]: 6 transition_type 0x320-0x320.7 (1)
0x320|   05                                          | .              |      [81]: 5 transition_type 0x321-0x321.7 (1)
0x320|      06                                       |  .             |      [82]: 6 transition_type 0x322-0x322.7 (1)
0x320|         05                                    |   .            |      [83]: 5 transition_type 0x323-0x323.7 (1)
0x320|            06                                 |    .           |      [84]: 6 transition_type 0x324-0x324.7 (1)
0x320|               05                              |     .          |      [85]: 5 transition_type 0x325-0x325.7 (1)
0x320|                  06                           |      .         |      [86]: 6 transition_type 0x326-0x326.7 (1)
0x320|                     05                        |       .        |      [87]: 5 transition_type 0x327-0x327.7 (1)
0x320|                        06                     |        .       |      [88]: 6 transition_type 0x328-0x328.7 (1)
0x320|                           05                  |         .      |      [89]: 5 transition_type 0x329-0x329.7 (1)
0x320|                              06               |          .     |      [90]: 6 transition_type 0x32a-0x32a.7 (1)
0x320|                                 05            |           .    |      [91]: 5 transition_type 0x32b-0x32b.7 (1)
0x320|                                    06         |            .   |      [92]: 6 transition_type 0x32c-0x32c.7 (1)
0x320|                                       05      |             .  |      [93]: 5 transition_type 0x32d-0x32d.7 (1)
0x320|                                          06   |              . |      [94]: 6 transition_type 0x32e-0x32e.7 (1)
0x320|                                             05|               .|      [95]: 5 transition_type 0x32f-0x32f.7 (1)
0x330|06                                             |.               |      [96]: 6 transition_type 0x330-0x330.7 (1)
0x330|   05                                          | .              |      [97]: 5 transition_type 0x331-0x331.7 (1)
0x330|      06                                       |  .             |      [98]: 6 transition_type 0x332-0x332.7 (1)
0x330|         05                                    |   .            |      [99]: 5 transition_type 0x333-0x333.7 (1)
0x330|            06                                 |    .           |      [100]: 6 transition_type 0x334-0x334.7 (1)
0x330|               05                              |     .          |      [101]: 5 transition_type 0x335-0x335.7 (1)
0x330|                  06                           |      .         |      [102]: 6 transition_type 0x336-0x336.7 (1)
0x330|                     05                        |       .        |      [103]: 5 transition_type 0x337-0x337.7 (1)
0x330|                        06                     |        .       |      [104]: 6 transition_type 0x338-0x338.7 (1)
0x330|                           05                  |         .      |      [105]: 5 transition_type 0x339-0x339.7 (1)
0x330|                              06               |          .     |      [106]: 6 transition_type 0x33a-0x33a.7 (1)
0x330|                                 05            |           .    |      [107]: 5 transition_type 0x33b-0x33b.7 (1)
0x330|                                    06         |            .   |      [108]: 6 transition_type 0x33c-0x33c.7 (1)
0x330|                                       05      |             .  |      [109]: 5 transition_type 0x33d-0x33d.7 (1)
0x330|                                          06   |              . |      [110]: 6 transition_type 0x33e-0x33e.7 (1)
0x330|                                             05|               .|      [111]: 5 transition_type 0x33f-0x33f.7 (1)
0x340|06                                             |.               |      [112]: 6 transition_type 0x340-0x340.7 (1)
0x340|   05                                          | .              |      [113]: 5 transition_type 0x341-0x341.7 (1)
0x340|      06                                       |  .             |      [114]: 6 transition_type 0x342-0x342.7 (1)
0x340|         05                                    |   .            |      [115]: 5 transition_type 0x343-0x343.7 (1)
0x340|            06                                 |    .           |      [116]: 6 transition_type 0x344-0x344.7 (1)
0x340|               05                              |     .          |      [117]: 5 transition_type 0x345-0x345.7 (1)
0x340|                  06                           |      .         |      [118]: 6 transition_type 0x346-0x346.7 (1)
0x340|                     05                        |       .        |      [119]: 5 transition_type 0x347-0x347.7 (1)
0x340|                        06                     |        .       |      [120]: 6 transition_type 0x348-0x348.7 (1)
0x340|                           05                  |         .      |      [121]: 5 transition_type 0x349-0x349.7 (1)
0x340|                              06               |          .     |      [122]: 6 transition_type 0x34a-0x34a.7 (1)
0x340|                                 05            |           .    |      [123]: 5 transition_type 0x34b-0x34b.7 (1)
0x340|                                    06         |            .   |      [124]: 6 transition_type 0x34c-0x34c.7 (1)
0x340|                                       05      |             .  |      [125]: 5 transition_type 0x34d-0x34d.7 (1)
0x340|                                          06   |              . |      [126]: 6 transition_type 0x34e-0x34e.7 (1)
0x340|                                             05|               .|      [127]: 5 transition_type 0x34f-0x34f.7 (1)
0x350|06                                             |.               |      [128]: 6 transition_type 0x350-0x350.7 (1)
0x350|   05                                          | .              |      [129]: 5 transition_type 0x351-0x351.7 (1)
0x350|      06                                       |  .             |      [130]: 6 transition_type 0x352-0x352.7 (1)
0x350|         05                                    |   .            |      [131]: 5 transition_type 0x353-0x353.7 (1)
0x350|            06                                 |    .           |      [132]: 6 transition_type 0x354-0x354.7 (1)
0x350|               05                              |     .          |      [133]: 5 transition_type 0x355-0x355.7 (1)
0x350|                  06                           |      .         |      [134]: 6 transition_type 0x356-0x356.7 (1)
0x350|                     05                        |       .        |      [135]: 5 transition_type 0x357-0x357.7 (1)
0x350|                        06                     |        .       |      [136]: 6 transition_type 0x358-0x358.7 (1)
0x350|                           05                  |         .      |      [137]: 5 transition_type 0x359-0x359.7 (1)
0x350|                              06               |          .     |      [138]: 6 transition_type 0x35a-0x35a.7 (1)
0x350|                                 05            |           .    |      [139]: 5 transition_type 0x35b-0x35b.7 (1)
0x350|                                    06         |            .   |      [140]: 6 transition_type 0x35c-0x35c.7 (1)
0x350|                                       05      |             .  |      [141]: 5 transition_type 0x35d-0x35d.7 (1)
0x350|                                          06   |              . |      [142]: 6 transition_type 0x35e-0x35e.7 (1)
0x350|                                             05|               .|      [143]: 5 transition_type 0x35f-0x35f.7 (1)
0x360|06                                             |.               |      [144]: 6 transition_type 0x360-0x360.7 (1)
0x360|   05                                          | .              |      [145]: 5 transition_type 0x361-0x361.7 (1)
0x360|      06                                       |  .             |      [146]: 6 transition_type 0x362-0x362.7 (1)
0x360|         05                                    |   .            |      [147]: 5 transition_type 0x363-0x363.7 (1)
0x360|            06                                 |    .           |      [148]: 6 transition_type 0x364-0x364.7 (1)
0x360|               05                              |     .          |      [149]: 5 transition_type 0x365-0x365.7 (1)
0x360|                  06                           |      .         |      [150]: 6 transition_type 0x366-0x366.7 (1)
0x360|                     05                        |       .        |      [151]: 5 transition_type 0x367-0x367.7 (1)
0x360|                        06                     |        .       |      [152]: 6 transition_type 0x368-0x368.7 (1)
0x360|                           05                  |         .      |      [153]: 5 transition_type 0x369-0x369.7 (1)
0x360|                              06               |          .     |      [154]: 6 transition_type 0x36a-0x36a.7 (1)
0x360|                                 05            |           .    |      [155]: 5 transition_type 0x36b-0x36b.7 (1)
0x360|                                    06         |            .   |      [156]: 6 transition_type 0x36c-0x36c.7 (1)
0x360|                                       05      |             .  |      [157]: 5 transition_type 0x36d-0x36d.7 (1)
0x360|                                          06   |              . |      [158]: 6 transition_type 0x36e-0x36e.7 (1)
0x360|                                             05|               .|      [159]: 5 transition_type 0x36f-0x36f.7 (1)
0x370|06                                             |.               |      [160]: 6 transition_type 0x370-0x370.7 (1)
0x370|   05                                          | .              |      [161]: 5 transition_type 0x371-0x371.7 (1)
0x370|      06                                       |  .             |      [162]: 6 transition_type 0x372-0x372.7 (1)
0x370|         05                                    |   .            |      [163]: 5 transition_type 0x373-0x373.7 (1)
0x370|            06                                 |    .           |      [164]: 6 transition_type 0x374-0x374.7 (1)
0x370|               05                              |     .          |      [165]: 5 transition_type 0x375-0x375.7 (1)
0x370|                  06                           |      .         |      [166]: 6 transition_type 0x376-0x376.7 (1)
0x370|                     05                        |       .        |      [167]: 5 transition_type 0x377-0x377.7 (1)
0x370|                        06                     |        .       |      [168]: 6 transition_type 0x378-0x378.7 (1)
     |                                               |                |    local_time_type_records[0:7]: 0x379-0x3a2.7 (42)
     |                                               |                |      [0]{}: local_time_type 0x379-0x37e.7 (6)
0x370|                           00 00 0d 9c         |         ....   |        utoff: 3484 (valid) 0x379-0x37c.7 (4)
0x370|                                       00      |             .  |        dst: 0 (valid) 0x37d-0x37d.7 (1)
0x370|                                          00   |              . |        idx: 0 (valid) 0x37e-0x37e.7 (1)
     |                                               |                |      [1]{}: local_time_type 0x37f-0x384.7 (6)
0x370|                                             00|               .|        utoff: 7200 (valid) 0x37f-0x382.7 (4)
0x380|00 1c 20                                       |..              |
0x380|         01                                    |   .            |        dst: 1 (valid) 0x383-0x383.7 (1)
0x380|            04                                 |    .           |        idx: 4 (valid) 0x384-0x384.7 (1)
     |                                               |                |      [2]{}: local_time_type 0x385-0x38a.7 (6)
0x380|               00 00 0e 10                     |     ....       |        utoff: 3600 (valid) 0x385-0x388.7 (4)
0x380|                           00                  |         .      |        dst: 0 (valid) 0x389-0x389.7 (1)
0x380|                              09               |          .     |        idx: 9 (valid) 0x38a-0x38a.7 (1)
     |                                               |                |      [3]{}: local_time_type 0x38b-0x390.7 (6)
0x380|                                 00 00 0e 10   |           .... |        utoff: 3600 (valid) 0x38b-0x38e.7 (4)
0x380|                                             00|               .|        dst: 0 (valid) 0x38f-0x38f.7 (1)
0x390|09                                             |.               |        idx: 9 (valid) 0x390-0x390.7 (1)
     |                                               |                |      [4]{}: local_time_type 0x391-0x396.7 (6)
0x390|   00 00 1c 20                                 | ...            |        utoff: 7200 (valid) 0x391-0x394.7 (4)
0x390|               01                              |     .          |        dst: 1 (valid) 0x395-0x395.7 (1)
0x390|                  04                           |      .         |        idx: 4 (valid) 0x396-0x396.7 (1)
     |                                               |                |      [5]{}: local_time_type 0x397-0x39c.7 (6)
0x390|                     00 00 1c 20               |       ...      |        utoff: 7200 (valid) 0x397-0x39a.7 (4)
0x390|                                 01            |           .    |        dst: 1 (valid) 0x39b-0x39b.7 (1)
0x390|                                    04         |            .   |        idx: 4 (valid) 0x39c-0x39c.7 (1)
     |                                               |                |      [6]{}: local_time_type 0x39d-0x3a2.7 (6)
0x390|                                       00 00 0e|             ...|        utoff: 3600 (valid) 0x39d-0x3a0.7 (4)
0x3a0|10                                             |.               |
0x3a0|   00                                          | .              |        dst: 0 (valid) 0x3a1-0x3a1.7 (1)
0x3a0|      09                                       |  .             |        idx: 9 (valid) 0x3a2-0x3a2.7 (1)
     |                                               |                |    time_zone_designations[0:3]: 0x3a3-0x3af.7 (13)
0x3a0|         4c 4d 54 00                           |   LMT.         |      [0]: "LMT" time_zone_designation 0x3a3-0x3a6.7 (4)
0x3a0|                     43 45 53 54 00            |       CEST.    |      [1]: "CEST" time_zone_designation 0x3a7-0x3ab.7 (5)
0x3a0|                                    43 45 54 00|            CET.|      [2]: "CET" time_zone_designation 0x3ac-0x3af.7 (4)
     |                                               |                |    leap_second_records[0:0]: 0x3b0-NA (0)
     |                                               |                |    standard_wall_indicators[0:7]: 0x3b0-0x3b6.7 (7)
0x3b0|00                                             |.               |      [0]: 0 standard_wall_indicator (valid) 0x3b0-0x3b0.7 (1)
0x3b0|   00                                          | .              |      [1]: 0 standard_wall_indicator (valid) 0x3b1-0x3b1.7 (1)
0x3b0|      00                                       |  .             |      [2]: 0 standard_wall_indicator (valid) 0x3b2-0x3b2.7 (1)
0x3b0|         01                                    |   .            |      [3]: 1 standard_wall_indicator (valid) 0x3b3-0x3b3.7 (1)
0x3b0|            01                                 |    .           |      [4]: 1 standard_wall_indicator (valid) 0x3b4-0x3b4.7 (1)
0x3b0|               01                              |     .          |      [5]: 1 standard_wall_indicator (valid) 0x3b5-0x3b5.7 (1)
0x3b0|                  01                           |      .         |      [6]: 1 standard_wall_indicator (valid) 0x3b6-0x3b6.7 (1)
     |                                               |                |    ut_local_indicators[0:7]: 0x3b7-0x3bd.7 (7)
0x3b0|                     00                        |       .        |      [0]: 0 ut_local_indicator (valid) 0x3b7-0x3b7.7 (1)
0x3b0|                        00                     |        .       |      [1]: 0 ut_local_indicator (valid) 0x3b8-0x3b8.7 (1)
0x3b0|                           00                  |         .      |      [2]: 0 ut_local_indicator (valid) 0x3b9-0x3b9.7 (1)
0x3b0|                              00               |          .     |      [3]: 0 ut_local_indicator (valid) 0x3ba-0x3ba.7 (1)
0x3b0|                                 00            |           .    |      [4]: 0 ut_local_indicator (valid) 0x3bb-0x3bb.7 (1)
0x3b0|                                    01         |            .   |      [5]: 1 ut_local_indicator (valid) 0x3bc-0x3bc.7 (1)
0x3b0|                                       01      |             .  |      [6]: 1 ut_local_indicator (valid) 0x3bd-0x3bd.7 (1)
     |                                               |                |  v2plusheader{}: 0x3be-0x3e9.7 (44)
0x3b0|                                          54 5a|              TZ|    magic: 0x545a6966 (valid) 0x3be-0x3c1.7 (4)
0x3c0|69 66                                          |if              |
0x3c0|      32                                       |  2             |    ver: "2" (0x32) (valid) 0x3c2-0x3c2.7 (1)
0x3c0|         00 00 00 00 00 00 00 00 00 00 00 00 00|   .............|    reserved: raw bits 0x3c3-0x3d1.7 (15)
0x3d0|00 00                                          |..              |
0x3d0|      00 00 00 07                              |  ....          |    isutcnt: 7 0x3d2-0x3d5.7 (4)
0x3d0|                  00 00 00 07                  |      ....      |    isstdcnt: 7 0x3d6-0x3d9.7 (4)
0x3d0|                              00 00 00 00      |          ....  |    leapcnt: 0 0x3da-0x3dd.7 (4)
0x3d0|                                          00 00|              ..|    timecnt: 169 0x3de-0x3e1.7 (4)
0x3e0|00 a9                                          |..              |
0x3e0|      00 00 00 07                              |  ....          |    typecnt: 7 0x3e2-0x3e5.7 (4)
0x3e0|                  00 00 00 0d                  |      ....      |    charcnt: 13 0x3e6-0x3e9.7 (4)
     |                                               |                |  v2plusdatablock{}: 0x3ea-0xa1f.7 (1590)
     |                                               |                |    transition_times[0:169]: 0x3ea-0x931.7 (1352)
0x3e0|                              ff ff ff ff 70 bd|          ....p.|      [0]: "1893-11-01T23:01:56Z" (-2403478684) transition_time 0x3ea-0x3f1.7 (8)
0x3f0|d3 64                                          |.d              |
0x3f0|      ff ff ff ff 9b 38 f8 70                  |  .....8.p      |      [1]: "1916-06-03T23:00:00Z" (-1690765200) transition_time 0x3f2-0x3f9.7 (8)
0x3f0|                              ff ff ff ff 9b d5|          ......|      [2]: "1916-09-30T22:00:00Z" (-1680487200) transition_time 0x3fa-0x401.7 (8)
0x400|cc e0                                          |..              |
0x400|      ff ff ff ff 9c c5 cb f0                  |  ........      |      [3]: "1917-03-31T23:00:00Z" (-1664758800) transition_time 0x402-0x409.7 (8)
0x400|                              ff ff ff ff 9d b7|          ......|      [4]: "1917-09-30T22:00:00Z" (-1648951200) transition_time 0x40a-0x411.7 (8)
0x410|00 60                                          |.`              |
0x410|      ff ff ff ff 9e 89 fe 70                  |  .......p      |      [5]: "1918-03-09T23:00:00Z" (-1635123600) transition_time 0x412-0x419.7 (8)
0x410|                              ff ff ff ff 9f a0|          ......|      [6]: "1918-10-06T22:00:00Z" (-1616896800) transition_time 0x41a-0x421.7 (8)
0x420|1c e0                                          |..              |
0x420|      ff ff ff ff a0 60 a5 f0                  |  .....`..      |      [7]: "1919-03-01T23:00:00Z" (-1604278800) transition_time 0x422-0x429.7 (8)
0x420|                              ff ff ff ff a1 7e|          .....~|      [8]: "1919-10-04T22:00:00Z" (-1585533600) transition_time 0x42a-0x431.7 (8)
0x430|ad 60                                          |.`              |
0x430|      ff ff ff ff a2 5c 37 70                  |  .....\7p      |      [9]: "1920-03-20T23:00:00Z" (-1571014800) transition_time 0x432-0x439.7 (8)
0x430|                              ff ff ff ff a3 4c|          .....L|      [10]: "1920-09-18T22:00:00Z" (-1555293600) transition_time 0x43a-0x441.7 (8)
0x440|1a 60                                          |.`              |
0x440|      ff ff ff ff c8 6c 35 f0                  |  .....l5.      |      [11]: "1940-06-14T23:00:00Z" (-932432400) transition_time 0x442-0x449.7 (8)
0x440|                              ff ff ff ff cc e7|          ......|      [12]: "1942-11-02T01:00:00Z" (-857257200) transition_time 0x44a-0x451.7 (8)
0x450|4b 10                                          |K.              |
0x450|      ff ff ff ff cd a9 17 90                  |  ........      |      [13]: "1943-03-29T01:00:00Z" (-844556400) transition_time 0x452-0x459.7 (8)
0x450|                              ff ff ff ff ce a2|          ......|      [14]: "1943-10-04T01:00:00Z" (-828226800) transition_time 0x45a-0x461.7 (8)
0x460|43 10                                          |C.              |
0x460|      ff ff ff ff cf 90 e2 90                  |  ........      |      [15]: "1944-04-02T01:00:00Z" (-812588400) transition_time 0x462-0x469.7 (8)
0x460|                              ff ff ff ff d0 6e|          .....n|      [16]: "1944-09-17T01:00:00Z" (-798073200) transition_time 0x46a-0x471.7 (8)
0x470|5e 90                                          |^.              |
0x470|      ff ff ff ff d1 72 16 10                  |  .....r..      |      [17]: "1945-04-02T01:00:00Z" (-781052400) transition_time 0x472-0x479.7 (8)
0x470|                              ff ff ff ff d2 4c|          .....L|      [18]: "1945-09-14T23:00:00Z" (-766717200) transition_time 0x47a-0x481.7 (8)
0x480|d2 f0                                          |..              |
0x480|      ff ff ff ff d3 3e 31 90                  |  .....>1.      |      [19]: "1946-03-17T01:00:00Z" (-750898800) transition_time 0x482-0x489.7 (8)
0x480|                              ff ff ff ff d4 49|          .....I|      [20]: "1946-10-06T01:00:00Z" (-733359600) transition_time 0x48a-0x491.7 (8)
0x490|d2 10                                          |..              |
0x490|      ff ff ff ff d5 1d f7 70                  |  .......p      |      [21]: "1947-03-15T23:00:00Z" (-719456400) transition_time 0x492-0x499.7 (8)
0x490|                              ff ff ff ff d6 29|          .....)|      [22]: "1947-10-04T23:00:00Z" (-701917200) transition_time 0x49a-0x4a1.7 (8)
0x4a0|97 f0                                          |..              |
0x4a0|      ff ff ff ff d6 eb 80 90                  |  ........      |      [23]: "1948-02-29T01:00:00Z" (-689209200) transition_time 0x4a2-0x4a9.7 (8)
0x4a0|                              ff ff ff ff d8 09|          ......|      [24]: "1948-10-03T01:00:00Z" (-670460400) transition_time 0x4aa-0x4b1.7 (8)
0x4b0|96 10                                          |..              |
0x4b0|      ff ff ff ff f9 33 b5 f0                  |  .....3..      |      [25]: "1966-05-21T23:00:00Z" (-114051600) transition_time 0x4b2-0x4b9.7 (8)
0x4b0|                              ff ff ff ff f9 d9|          ......|      [26]: "1966-09-24T22:00:00Z" (-103168800) transition_time 0x4ba-0x4c1.7 (8)
0x4c0|c4 e0                                          |..              |
0x4c0|      ff ff ff ff fb 1c d2 70                  |  .......p      |      [27]: "1967-05-27T23:00:00Z" (-81997200) transition_time 0x4c2-0x4c9.7 (8)
0x4c0|                              ff ff ff ff fb b9|          ......|      [28]: "1967-09-23T23:00:00Z" (-71715600) transition_time 0x4ca-0x4d1.7 (8)
0x4d0|b4 f0                                          |..              |
0x4d0|      ff ff ff ff fc fc b4 70                  |  .......p      |      [29]: "1968-05-25T23:00:00Z" (-50547600) transition_time 0x4d2-0x4d9.7 (8)
0x4d0|                              ff ff ff ff fd 99|          ......|      [30]: "1968-09-21T23:00:00Z" (-40266000) transition_time 0x4da-0x4e1.7 (8)
0x4e0|96 f0                                          |..              |
0x4e0|      ff ff ff ff fe e5 d0 f0                  |  ........      |      [31]: "1969-05-31T23:00:00Z" (-18493200) transition_time 0x4e2-0x4e9.7 (8)
0x4e0|                              ff ff ff ff ff 82|          ......|      [32]: "1969-09-27T23:00:00Z" (-8211600) transition_time 0x4ea-0x4f1.7 (8)
0x4f0|b3 70                                          |.p              |
0x4f0|      00 00 00 00 00 c5 b2 f0                  |  ........      |      [33]: "1970-05-30T23:00:00Z" (12956400) transition_time 0x4f2-0x4f9.7 (8)
0x4f0|                              00 00 00 00 01 62|          .....b|      [34]: "1970-09-26T23:00:00Z" (23238000) transition_time 0x4fa-0x501.7 (8)
0x500|95 70                                          |.p              |
0x500|      00 00 00 00 02 9c 5a 70                  |  ......Zp      |      [35]: "1971-05-22T23:00:00Z" (43801200) transition_time 0x502-0x509.7 (8)
0x500|                              00 00 00 00 03 42|          .....B|      [36]: "1971-09-25T23:00:00Z" (54687600) transition_time 0x50a-0x511.7 (8)
0x510|77 70                                          |wp              |
0x510|      00 00 00 00 04 85 76 f0                  |  ......v.      |      [37]: "1972-05-27T23:00:00Z" (75855600) transition_time 0x512-0x519.7 (8)
0x510|                              00 00 00 00 05 2b|          .....+|      [38]: "1972-09-30T23:00:00Z" (86742000) transition_time 0x51a-0x521.7 (8)
0x520|93 f0                                          |..              |
0x520|      00 00 00 00 06 1a 33 70                  |  ......3p      |      [39]: "1973-03-30T23:00:00Z" (102380400) transition_time 0x522-0x529.7 (8)
0x520|                              00 00 00 00 07 0a|          ......|      [40]: "1973-09-28T23:00:00Z" (118105200) transition_time 0x52a-0x531.7 (8)
0x530|24 70                                          |$p              |
0x530|      00 00 00 00 08 17 16 70                  |  .......p      |      [41]: "1974-04-20T23:00:00Z" (135730800) transition_time 0x532-0x539.7 (8)
0x530|                              00 00 00 00 08 da|          ......|      [42]: "1974-09-15T23:00:00Z" (148518000) transition_time 0x53a-0x541.7 (8)
0x540|34 70                                          |4p              |
0x540|      00 00 00 00 09 f7 14 90                  |  ........      |      [43]: "1975-04-20T01:00:00Z" (167187600) transition_time 0x542-0x549.7 (8)
0x540|                              00 00 00 00 0a c2|          ......|      [44]: "1975-09-21T00:00:00Z" (180489600) transition_time 0x54a-0x551.7 (8)
0x550|0d 80                                          |..              |
0x550|      00 00 00 00 0b d6 f6 90                  |  ........      |      [45]: "1976-04-18T01:00:00Z" (198637200) transition_time 0x552-0x559.7 (8)
0x550|                              00 00 00 00 0c a1|          ......|      [46]: "1976-09-19T00:00:00Z" (211939200) transition_time 0x55a-0x561.7 (8)
0x560|ef 80                                          |..              |
0x560|      00 00 00 00 0d b6 d8 90                  |  ........      |      [47]: "1977-04-17T01:00:00Z" (230086800) transition_time 0x562-0x569.7 (8)
0x560|                              00 00 00 00 0e 81|          ......|      [48]: "1977-09-18T00:00:00Z" (243388800) transition_time 0x56a-0x571.7 (8)
0x570|d1 80                                          |..              |
0x570|      00 00 00 00 0f 96 ba 90                  |  ........      |      [49]: "1978-04-16T01:00:00Z" (261536400) transition_time 0x572-0x579.7 (8)
0x570|                              00 00 00 00 10 61|          .....a|      [50]: "1978-09-17T00:00:00Z" (274838400) transition_time 0x57a-0x581.7 (8)
0x580|b3 80                                          |..              |
0x580|      00 00 00 00 11 76 9c 90                  |  .....v..      |      [51]: "1979-04-15T01:00:00Z" (292986000) transition_time 0x582-0x589.7 (8)
0x580|                              00 00 00 00 12 41|          .....A|      [52]: "1979-09-16T00:00:00Z" (306288000) transition_time 0x58a-0x591.7 (8)
0x590|95 80                                          |..              |
0x590|      00 00 00 00 13 45 5b 10                  |  .....E[.      |      [53]: "1980-03-31T01:00:00Z" (323312400) transition_time 0x592-0x599.7 (8)
0x590|                              00 00 00 00 14 2a|          .....*|      [54]: "1980-09-21T00:00:00Z" (338342400) transition_time 0x59a-0x5a1.7 (8)
0x5a0|b2 00                                          |..              |
0x5a0|      00 00 00 00 15 23 eb 90                  |  .....#..      |      [55]: "1981-03-29T01:00:00Z" (354675600) transition_time 0x5a2-0x5a9.7 (8)
0x5a0|                              00 00 00 00 16 13|          ......|      [56]: "1981-09-27T01:00:00Z" (370400400) transition_time 0x5aa-0x5b1.7 (8)
0x5b0|dc 90                                          |..              |
0x5b0|      00 00 00 00 17 03 cd 90                  |  ........      |      [57]: "1982-03-28T01:00:00Z" (386125200) transition_time 0x5b2-0x5b9.7 (8)
0x5b0|                              00 00 00 00 17 f3|          ......|      [58]: "1982-09-26T01:00:00Z" (401850000) transition_time 0x5ba-0x5c1.7 (8)
0x5c0|be 90                                          |..              |
0x5c0|      00 00 00 00 18 e3 af 90                  |  ........      |      [59]: "1983-03-27T01:00:00Z" (417574800) transition_time 0x5c2-0x5c9.7 (8)
0x5c0|                              00 00 00 00 19 d3|          ......|      [60]: "1983-09-25T01:00:00Z" (433299600) transition_time 0x5ca-0x5d1.7 (8)
0x5d0|a0 90                                          |..              |
0x5d0|      00 00 00 00 1a c3 91 90                  |  ........      |      [61]: "1984-03-25T01:00:00Z" (449024400) transition_time 0x5d2-0x5d9.7 (8)
0x5d0|                              00 00 00 00 1b bc|          ......|      [62]: "1984-09-30T01:00:00Z" (465354000) transition_time 0x5da-0x5e1.7 (8)
0x5e0|bd 10                                          |..              |
0x5e0|      00 00 00 00 1c ac ae 10                  |  ........      |      [63]: "1985-03-31T01:00:00Z" (481078800) transition_time 0x5e2-0x5e9.7 (8)
0x5e0|                              00 00 00 00 1d 9c|          ......|      [64]: "1985-09-29T01:00:00Z" (496803600) transition_time 0x5ea-0x5f1.7 (8)
0x5f0|9f 10                                          |..              |
0x5f0|      00 00 00 00 1e 8c 90 10                  |  ........      |      [65]: "1986-03-30T01:00:00Z" (512528400) transition_time 0x5f2-0x5f9.7 (8)
0x5f0|                              00 00 00 00 1f 7c|          .....||      [66]: "1986-09-28T01:00:00Z" (528253200) transition_time 0x5fa-0x601.7 (8)
0x600|81 10                                          |..              |
0x600|      00 00 00 00 20 6c 72 10                  |  .... lr.      |      [67]: "1987-03-29T01:00:00Z" (543978000) transition_time 0x602-0x609.7 (8)
0x600|                              00 00 00 00 21 5c|          ....!\|      [68]: "1987-09-27T01:00:00Z" (559702800) transition_time 0x60a-0x611.7 (8)
0x610|63 10                                          |c.              |
0x610|      00 00 00 00 22 4c 54 10                  |  ...."LT.      |      [69]: "1988-03-27T01:00:00Z" (575427600) transition_time 0x612-0x619.7 (8)
0x610|                              00 00 00 00 23 3c|          ....#<|      [70]: "1988-09-25T01:00:00Z" (591152400) transition_time 0x61a-0x621.7 (8)
0x620|45 10                                          |E.              |
0x620|      00 00 00 00 24 2c 36 10                  |  ....$,6.      |      [71]: "1989-03-26T01:00:00Z" (606877200) transition_time 0x622-0x629.7 (8)
0x620|                              00 00 00 00 25 1c|          ....%.|      [72]: "1989-09-24T01:00:00Z" (622602000) transition_time 0x62a-0x631.7 (8)
0x630|27 10                                          |'.              |
0x630|      00 00 00 00 26 0c 18 10                  |  ....&...      |      [73]: "1990-03-25T01:00:00Z" (638326800) transition_time 0x632-0x639.7 (8)
0x630|                              00 00 00 00 27 05|          ....'.|      [74]: "1990-09-30T01:00:00Z" (654656400) transition_time 0x63a-0x641.7 (8)
0x640|43 90                                          |C.              |
0x640|      00 00 00 00 27 f5 34 90                  |  ....'.4.      |      [75]: "1991-03-31T01:00:00Z" (670381200) transition_time 0x642-0x649.7 (8)
0x640|                              00 00 00 00 28 e5|          ....(.|      [76]: "1991-09-29T01:00:00Z" (686106000) transition_time 0x64a-0x651.7 (8)
0x650|25 90                                          |%.              |
0x650|      00 00 00 00 29 d5 16 90                  |  ....)...      |      [77]: "1992-03-29T01:00:00Z" (701830800) transition_time 0x652-0x659.7 (8)
0x650|                              00 00 00 00 2a c5|          ....*.|      [78]: "1992-09-27T01:00:00Z" (717555600) transition_time 0x65a-0x661.7 (8)
0x660|07 90                                          |..              |
0x660|      00 00 00 00 2b b4 f8 90                  |  ....+...      |      [79]: "1993-03-28T01:00:00Z" (733280400) transition_time 0x662-0x669.7 (8)
0x660|                              00 00 00 00 2c a4|          ....,.|      [80]: "1993-09-26T01:00:00Z" (749005200) transition_time 0x66a-0x671.7 (8)
0x670|e9 90                                          |..              |
0x670|      00 00 00 00 2d 94 da 90                  |  ....-...      |      [81]: "1994-03-27T01:00:00Z" (764730000) transition_time 0x672-0x679.7 (8)
0x670|                              00 00 00 00 2e 84|          ......|      [82]: "1994-09-25T01:00:00Z" (780454800) transition_time 0x67a-0x681.7 (8)
0x680|cb 90                                          |..              |
0x680|      00 00 00 00 2f 74 bc 90                  |  ..../t..      |      [83]: "1995-03-26T01:00:00Z" (796179600) transition_time 0x682-0x689.7 (8)
0x680|                              00 00 00 00 30 64|          ....0d|      [84]: "1995-09-24T01:00:00Z" (811904400) transition_time 0x68a-0x691.7 (8)
0x690|ad 90                                          |..              |
0x690|      00 00 00 00 31 5d d9 10                  |  ....1]..      |      [85]: "1996-03-31T01:00:00Z" (828234000) transition_time 0x692-0x699.7 (8)
0x690|                              00 00 00 00 32 72|          ....2r|      [86]: "1996-10-27T01:00:00Z" (846378000) transition_time 0x69a-0x6a1.7 (8)
0x6a0|b4 10                                          |..              |
0x6a0|      00 00 00 00 33 3d bb 10                  |  ....3=..      |      [87]: "1997-03-30T01:00:00Z" (859683600) transition_time 0x6a2-0x6a9.7 (8)
0x6a0|                              00 00 00 00 34 52|          ....4R|      [88]: "1997-10-26T01:00:00Z" (877827600) transition_time 0x6aa-0x6b1.7 (8)
0x6b0|96 10                                          |..              |
0x6b0|      00 00 00 00 35 1d 9d 10                  |  ....5...      |      [89]: "1998-03-29T01:00:00Z" (891133200) transition_time 0x6b2-0x6b9.7 (8)
0x6b0|                              00 00 00 00 36 32|          ....62|      [90]: "1998-10-25T01:00:00Z" (909277200) transition_time 0x6ba-0x6c1.7 (8)
0x6c0|78 10                                          |x.              |
0x6c0|      00 00 00 00 36 fd 7f 10                  |  ....6...      |      [91]: "1999-03-28T01:00:00Z" (922582800) transition_time 0x6c2-0x6c9.7 (8)
0x6c0|                              00 00 00 00 38 1b|          ....8.|      [92]: "1999-10-31T01:00:00Z" (941331600) transition_time 0x6ca-0x6d1.7 (8)
0x6d0|94 90                                          |..              |
0x6d0|      00 00 00 00 38 dd 61 10                  |  ....8.a.      |      [93]: "2000-03-26T01:00:00Z" (954032400) transition_time 0x6d2-0x6d9.7 (8)
0x6d0|                              00 00 00 00 39 fb|          ....9.|      [94]: "2000-10-29T01:00:00Z" (972781200) transition_time 0x6da-0x6e1.7 (8)
0x6e0|76 90                                          |v.              |
0x6e0|      00 00 00 00 3a bd 43 10                  |  ....:.C.      |      [95]: "2001-03-25T01:00:00Z" (985482000) transition_time 0x6e2-0x6e9.7 (8)
0x6e0|                              00 00 00 00 3b db|          ....;.|      [96]: "2001-10-28T01:00:00Z" (1004230800) transition_time 0x6ea-0x6f1.7 (8)
0x6f0|58 90                                          |X.              |
0x6f0|      00 00 00 00 3c a6 5f 90                  |  ....<._.      |      [97]: "2002-03-31T01:00:00Z" (1017536400) transition_time 0x6f2-0x6f9.7 (8)
0x6f0|                              00 00 00 00 3d bb|          ....=.|      [98]: "2002-10-27T01:00:00Z" (1035680400) transition_time 0x6fa-0x701.7 (8)
0x700|3a 90                                          |:.              |
0x700|      00 00 00 00 3e 86 41 90                  |  ....>.A.      |      [99]: "2003-03-30T01:00:00Z" (1048986000) transition_time 0x702-0x709.7 (8)
0x700|                              00 00 00 00 3f 9b|          ....?.|      [100]: "2003-10-26T01:00:00Z" (1067130000) transition_time 0x70a-0x711.7 (8)
0x710|1c 90                                          |..              |
0x710|      00 00 00 00 40 66 23 90                  |  ....@f#.      |      [101]: "2004-03-28T01:00:00Z" (1080435600) transition_time 0x712-0x719.7 (8)
0x710|                              00 00 00 00 41 84|          ....A.|      [102]: "2004-10-31T01:00:00Z" (1099184400) transition_time 0x71a-0x721.7 (8)
0x720|39 10                                          |9.              |
0x720|      00 00 00 00 42 46 05 90                  |  ....BF..      |      [103]: "2005-03-27T01:00:00Z" (1111885200) transition_time 0x722-0x729.7 (8)
0x720|                              00 00 00 00 43 64|          ....Cd|      [104]: "2005-10-30T01:00:00Z" (1130634000) transition_time 0x72a-0x731.7 (8)
0x730|1b 10                                          |..              |
0x730|      00 00 00 00 44 25 e7 90                  |  ....D%..      |      [105]: "2006-03-26T01:00:00Z" (1143334800) transition_time 0x732-0x739.7 (8)
0x730|                              00 00 00 00 45 43|          ....EC|      [106]: "2006-10-29T01:00:00Z" (1162083600) transition_time 0x73a-0x741.7 (8)
0x740|fd 10                                          |..              |
0x740|      00 00 00 00 46 05 c9 90                  |  ....F...      |      [107]: "2007-03-25T01:00:00Z" (1174784400) transition_time 0x742-0x749.7 (8)
0x740|                              00 00 00 00 47 23|          ....G#|      [108]: "2007-10-28T01:00:00Z" (1193533200) transition_time 0x74a-0x751.7 (8)
0x750|df 10                                          |..              |
0x750|      00 00 00 00 47 ee e6 10                  |  ....G...      |      [109]: "2008-03-30T01:00:00Z" (1206838800) transition_time 0x752-0x759.7 (8)
0x750|                              00 00 00 00 49 03|          ....I.|      [110]: "2008-10-26T01:00:00Z" (1224982800) transition_time 0x75a-0x761.7 (8)
0x760|c1 10                                          |..              |
0x760|      00 00 00 00 49 ce c8 10                  |  ....I...      |      [111]: "2009-03-29T01:00:00Z" (1238288400) transition_time 0x762-0x769.7 (8)
0x760|                              00 00 00 00 4a e3|          ....J.|      [112]: "2009-10-25T01:00:00Z" (1256432400) transition_time 0x76a-0x771.7 (8)
0x770|a3 10                                          |..              |
0x770|      00 00 00 00 4b ae aa 10                  |  ....K...      |      [113]: "2010-03-28T01:00:00Z" (1269738000) transition_time 0x772-0x779.7 (8)
0x770|                              00 00 00 00 4c cc|          ....L.|      [114]: "2010-10-31T01:00:00Z" (1288486800) transition_time 0x77a-0x781.7 (8)
0x780|bf 90                                          |..              |
0x780|      00 00 00 00 4d 8e 8c 10                  |  ....M...      |      [115]: "2011-03-27T01:00:00Z" (1301187600) transition_time 0x782-0x789.7 (8)
0x780|                              00 00 00 00 4e ac|          ....N.|      [116]: "2011-10-30T01:00:00Z" (1319936400) transition_time 0x78a-0x791.7 (8)
0x790|a1 90                                          |..              |
0x790|      00 00 00 00 4f 6e 6e 10                  |  ....Onn.      |      [117]: "2012-03-25T01:00:00Z" (1332637200) transition_time 0x792-0x799.7 (8)
0x790|                              00 00 00 00 50 8c|          ....P.|      [118]: "2012-10-28T01:00:00Z" (1351386000) transition_time 0x79a-0x7a1.7 (8)
0x7a0|83 90                                          |..              |
0x7a0|      00 00 00 00 51 57 8a 90                  |  ....QW..      |      [119]: "2013-03-31T01:00:00Z" (1364691600) transition_time 0x7a2-0x7a9.7 (8)
0x7a0|                              00 00 00 00 52 6c|          ....Rl|      [120]: "2013-10-27T01:00:00Z" (1382835600) transition_time 0x7aa-0x7b1.7 (8)
0x7b0|65 90                                          |e.              |
0x7b0|      00 00 00 00 53 37 6c 90                  |  ....S7l.      |      [121]: "2014-03-30T01:00:00Z" (1396141200) transition_time 0x7b2-0x7b9.7 (8)
0x7b0|                              00 00 00 00 54 4c|          ....TL|      [122]: "2014-10-26T01:00:00Z" (1414285200) transition_time 0x7ba-0x7c1.7 (8)
0x7c0|47 90                                          |G.              |
0x7c0|      00 00 00 00 55 17 4e 90                  |  ....U.N.      |      [123]: "2015-03-29T01:00:00Z" (1427590800) transition_time 0x7c2-0x7c9.7 (8)
0x7c0|                              00 00 00 00 56 2c|          ....V,|      [124]: "2015-10-25T01:00:00Z" (1445734800) transition_time 0x7ca-0x7d1.7 (8)
0x7d0|29 90                                          |).              |
0x7d0|      00 00 00 00 56 f7 30 90                  |  ....V.0.      |      [125]: "2016-03-27T01:00:00Z" (1459040400) transition_time 0x7d2-0x7d9.7 (8)
0x7d0|                              00 00 00 00 58 15|          ....X.|      [126]: "2016-10-30T01:00:00Z" (1477789200) transition_time 0x7da-0x7e1.7 (8)
0x7e0|46 10                                          |F.              |
0x7e0|      00 00 00 00 58 d7 12 90                  |  ....X...      |      [127]: "2017-03-26T01:00:00Z" (1490490000) transition_time 0x7e2-0x7e9.7 (8)
0x7e0|                              00 00 00 00 59 f5|          ....Y.|      [128]: "2017-10-29T01:00:00Z" (1509238800) transition_time 0x7ea-0x7f1.7 (8)
0x7f0|28 10                                          |(.              |
0x7f0|      00 00 00 00 5a b6 f4 90                  |  ....Z...      |      [129]: "2018-03-25T01:00:00Z" (1521939600) transition_time 0x7f2-0x7f9.7 (8)
0x7f0|                              00 00 00 00 5b d5|          ....[.|      [130]: "2018-10-28T01:00:00Z" (1540688400) transition_time 0x7fa-0x801.7 (8)
0x800|0a 10                                          |..              |
0x800|      00 00 00 00 5c a0 11 10                  |  ....\...      |      [131]: "2019-03-31T01:00:00Z" (1553994000) transition_time 0x802-0x809.7 (8)
0x800|                              00 00 00 00 5d b4|          ....].|      [132]: "2019-10-27T01:00:00Z" (1572138000) transition_time 0x80a-0x811.7 (8)
0x810|ec 10                                          |..              |
0x810|      00 00 00 00 5e 7f f3 10                  |  ....^...      |      [133]: "2020-03-29T01:00:00Z" (1585443600) transition_time 0x812-0x819.7 (8)
0x810|                              00 00 00 00 5f 94|          ...._.|      [134]: "2020-10-25T01:00:00Z" (1603587600) transition_time 0x81a-0x821.7 (8)
0x820|ce 10                                          |..              |
0x820|      00 00 00 00 60 5f d5 10                  |  ....`_..      |      [135]: "2021-03-28T01:00:00Z" (1616893200) transition_time 0x822-0x829.7 (8)
0x820|                              00 00 00 00 61 7d|          ....a}|      [136]: "2021-10-31T01:00:00Z" (1635642000) transition_time 0x82a-0x831.7 (8)
0x830|ea 90                                          |..              |
0x830|      00 00 00 00 62 3f b7 10                  |  ....b?..      |      [137]: "2022-03-27T01:00:00Z" (1648342800) transition_time 0x832-0x839.7 (8)
0x830|                              00 00 00 00 63 5d|          ....c]|      [138]: "2022-10-30T01:00:00Z" (1667091600) transition_time 0x83a-0x841.7 (8)
0x840|cc 90                                          |..              |
0x840|      00 00 00 00 64 1f 99 10                  |  ....d...      |      [139]: "2023-03-26T01:00:00Z" (1679792400) transition_time 0x842-0x849.7 (8)
0x840|                              00 00 00 00 65 3d|          ....e=|      [140]: "2023-10-29T01:00:00Z" (1698541200) transition_time 0x84a-0x851.7 (8)
0x850|ae 90                                          |..              |
0x850|      00 00 00 00 66 08 b5 90                  |  ....f...      |      [141]: "2024-03-31T01:00:00Z" (1711846800) transition_time 0x852-0x859.7 (8)
0x850|                              00 00 00 00 67 1d|          ....g.|      [142]: "2024-10-27T01:00:00Z" (1729990800) transition_time 0x85a-0x861.7 (8)
0x860|90 90                                          |..              |
0x860|      00 00 00 00 67 e8 97 90                  |  ....g...      |      [143]: "2025-03-30T01:00:00Z" (1743296400) transition_time 0x862-0x869.7 (8)
0x860|                              00 00 00 00 68 fd|          ....h.|      [144]: "2025-10-26T01:00:00Z" (1761440400) transition_time 0x86a-0x871.7 (8)
0x870|72 90                                          |r.              |
0x870|      00 00 00 00 69 c8 79 90                  |  ....i.y.      |      [145]: "2026-03-29T01:00:00Z" (1774746000) transition_time 0x872-0x879.7 (8)
0x870|                              00 00 00 00 6a dd|          ....j.|      [146]: "2026-10-25T01:00:00Z" (1792890000) transition_time 0x87a-0x881.7 (8)
0x880|54 90                                          |T.              |
0x880|      00 00 00 00 6b a8 5b 90                  |  ....k.[.      |      [147]: "2027-03-28T01:00:00Z" (1806195600) transition_time 0x882-0x889.7 (8)
0x880|                              00 00 00 00 6c c6|          ....l.|      [148]: "2027-10-31T01:00:00Z" (1824944400) transition_time 0x88a-0x891.7 (8)
0x890|71 10                                          |q.              |
0x890|      00 00 00 00 6d 88 3d 90                  |  ....m.=.      |      [149]: "2028-03-26T01:00:00Z" (1837645200) transition_time 0x892-0x899.7 (8)
0x890|                              00 00 00 00 6e a6|          ....n.|      [150]: "2028-10-29T01:00:00Z" (1856394000) transition_time 0x89a-0x8a1.7 (8)
0x8a0|53 10                                          |S.              |
0x8a0|      00 00 00 00 6f 68 1f 90                  |  ....oh..      |      [151]: "2029-03-25T01:00:00Z" (1869094800) transition_time 0x8a2-0x8a9.7 (8)
0x8a0|                              00 00 00 00 70 86|          ....p.|      [152]: "2029-10-28T01:00:00Z" (1887843600) transition_time 0x8aa-0x8b1.7 (8)
0x8b0|35 10                                          |5.              |
0x8b0|      00 00 00 00 71 51 3c 10                  |  ....qQ<.      |      [153]: "2030-03-31T01:00:00Z" (1901149200) transition_time 0x8b2-0x8b9.7 (8)
0x8b0|                              00 00 00 00 72 66|          ....rf|      [154]: "2030-10-27T01:00:00Z" (1919293200) transition_time 0x8ba-0x8c1.7 (8)
0x8c0|17 10                                          |..              |
0x8c0|      00 00 00 00 73 31 1e 10                  |  ....s1..      |      [155]: "2031-03-30T01:00:00Z" (1932598800) transition_time 0x8c2-0x8c9.7 (8)
0x8c0|                              00 00 00 00 74 45|          ....tE|      [156]: "2031-10-26T01:00:00Z" (1950742800) transition_time 0x8ca-0x8d1.7 (8)
0x8d0|f9 10                                          |..              |
0x8d0|      00 00 00 00 75 11 00 10                  |  ....u...      |      [157]: "2032-03-28T01:00:00Z" (1964048400) transition_time 0x8d2-0x8d9.7 (8)
0x8d0|                              00 00 00 00 76 2f|          ....v/|      [158]: "2032-10-31T01:00:00Z" (1982797200) transition_time 0x8da-0x8e1.7 (8)
0x8e0|15 90                                          |..              |
0x8e0|      00 00 00 00 76 f0 e2 10                  |  ....v...      |      [159]: "2033-03-27T01:00:00Z" (1995498000) transition_time 0x8e2-0x8e9.7 (8)
0x8e0|                              00 00 00 00 78 0e|          ....x.|      [160]: "2033-10-30T01:00:00Z" (2014246800) transition_time 0x8ea-0x8f1.7 (8)
0x8f0|f7 90                                          |..              |
0x8f0|      00 00 00 00 78 d0 c4 10                  |  ....x...      |      [161]: "2034-03-26T01:00:00Z" (2026947600) transition_time 0x8f2-0x8f9.7 (8)
0x8f0|                              00 00 00 00 79 ee|          ....y.|      [162]: "2034-10-29T01:00:00Z" (2045696400) transition_time 0x8fa-0x901.7 (8)
0x900|d9 90                                          |..              |
0x900|      00 00 00 00 7a b0 a6 10                  |  ....z...      |      [163]: "2035-03-25T01:00:00Z" (2058397200) transition_time 0x902-0x909.7 (8)
0x900|                              00 00 00 00 7b ce|          ....{.|      [164]: "2035-10-28T01:00:00Z" (2077146000) transition_time 0x90a-0x911.7 (8)
0x910|bb 90                                          |..              |
0x910|      00 00 00 00 7c 99 c2 90                  |  ....|...      |      [165]: "2036-03-30T01:00:00Z" (2090451600) transition_time 0x912-0x919.7 (8)
0x910|                              00 00 00 00 7d ae|          ....}.|      [166]: "2036-10-26T01:00:00Z" (2108595600) transition_time 0x91a-0x921.7 (8)
0x920|9d 90                                          |..              |
0x920|      00 00 00 00 7e 79 a4 90                  |  ....~y..      |      [167]: "2037-03-29T01:00:00Z" (2121901200) transition_time 0x922-0x929.7 (8)
0x920|                              00 00 00 00 7f 8e|          ......|      [168]: "2037-10-25T01:00:00Z" (2140045200) transition_time 0x92a-0x931.7 (8)
0x930|7f 90                                          |..              |
     |                                               |                |    transition_types[0:169]: 0x932-0x9da.7 (169)
0x930|      02                                       |  .             |      [0]: 2 transition_type 0x932-0x932.7 (1)
0x930|         01                                    |   .            |      [1]: 1 transition_type 0x933-0x933.7 (1)
0x930|            02                                 |    .           |      [2]: 2 transition_type 0x934-0x934.7 (1)
0x930|               01                              |     .          |      [3]: 1 transition_type 0x935-0x935.7 (1)
0x930|                  02                           |      .         |      [4]: 2 transition_type 0x936-0x936.7 (1)
0x930|                     01                        |       .        |      [5]: 1 transition_type 0x937-0x937.7 (1)
0x930|                        02                     |        .       |      [6]: 2 transition_type 0x938-0x938.7 (1)
0x930|                           01                  |         .      |      [7]: 1 transition_type 0x939-0x939.7 (1)
0x930|                              02               |          .     |      [8]: 2 transition_type 0x93a-0x93a.7 (1)
0x930|                                 01            |           .    |      [9]: 1 transition_type 0x93b-0x93b.7 (1)
0x930|                                    02         |            .   |      [10]: 2 transition_type 0x93c-0x93c.7 (1)
0x930|                                       01      |             .  |      [11]: 1 transition_type 0x93d-0x93d.7 (1)
0x930|                                          03   |              . |      [12]: 3 transition_type 0x93e-0x93e.7 (1)
0x930|                                             04|               .|      [13]: 4 transition_type 0x93f-0x93f.7 (1)
0x940|03                                             |.               |      [14]: 3 transition_type 0x940-0x940.7 (1)
0x940|   04                                          | .              |      [15]: 4 transition_type 0x941-0x941.7 (1)
0x940|      03                                       |  .             |      [16]: 3 transition_type 0x942-0x942.7 (1)
0x940|         01                                    |   .            |      [17]: 1 transition_type 0x943-0x943.7 (1)
0x940|            02                                 |    .           |      [18]: 2 transition_type 0x944-0x944.7 (1)
0x940|               04                              |     .          |      [19]: 4 transition_type 0x945-0x945.7 (1)
0x940|                  03                           |      .         |      [20]: 3 transition_type 0x946-0x946.7 (1)
0x940|                     04                        |       .        |      [21]: 4 transition_type 0x947-0x947.7 (1)
0x940|                        03                     |        .       |      [22]: 3 transition_type 0x948-0x948.7 (1)
0x940|                           04                  |         .      |      [23]: 4 transition_type 0x949-0x949.7 (1)
0x940|                              03               |          .     |      [24]: 3 transition_type 0x94a-0x94a.7 (1)
0x940|                                 04            |           .    |      [25]: 4 transition_type 0x94b-0x94b.7 (1)
0x940|                                    02         |            .   |      [26]: 2 transition_type 0x94c-0x94c.7 (1)
0x940|                                       04      |             .  |      [27]: 4 transition_type 0x94d-0x94d.7 (1)
0x940|                                          03   |              . |      [28]: 3 transition_type 0x94e-0x94e.7 (1)
0x940|                                             04|               .|      [29]: 4 transition_type 0x94f-0x94f.7 (1)
0x950|03                                             |.               |      [30]: 3 transition_type 0x950-0x950.7 (1)
0x950|   04                                          | .              |      [31]: 4 transition_type 0x951-0x951.7 (1)
0x950|      03                                       |  .             |      [32]: 3 transition_type 0x952-0x952.7 (1)
0x950|         04                                    |   .            |      [33]: 4 transition_type 0x953-0x953.7 (1)
0x950|            03                                 |    .           |      [34]: 3 transition_type 0x954-0x954.7 (1)
0x950|               04                              |     .          |      [35]: 4 transition_type 0x955-0x955.7 (1)
0x950|                  03                           |      .         |      [36]: 3 transition_type 0x956-0x956.7 (1)
0x950|                     04                        |       .        |      [37]: 4 transition_type 0x957-0x957.7 (1)
0x950|                        03                     |        .       |      [38]: 3 transition_type 0x958-0x958.7 (1)
0x950|                           04                  |         .      |      [39]: 4 transition_type 0x959-0x959.7 (1)
0x950|                              03               |          .     |      [40]: 3 transition_type 0x95a-0x95a.7 (1)
0x950|                                 04            |           .    |      [41]: 4 transition_type 0x95b-0x95b.7 (1)
0x950|                                    03         |            .   |      [42]: 3 transition_type 0x95c-0x95c.7 (1)
0x950|                                       01      |             .  |      [43]: 1 transition_type 0x95d-0x95d.7 (1)
0x950|                                          02   |              . |      [44]: 2 transition_type 0x95e-0x95e.7 (1)
0x950|                                             01|               .|      [45]: 1 transition_type 0x95f-0x95f.7 (1)
0x960|02                                             |.               |      [46]: 2 transition_type 0x960-0x960.7 (1)
0x960|   01                                          | .              |      [47]: 1 transition_type 0x961-0x961.7 (1)
0x960|      02                                       |  .             |      [48]: 2 transition_type 0x962-0x962.7 (1)
0x960|         01                                    |   .            |      [49]: 1 transition_type 0x963-0x963.7 (1)
0x960|            02                                 |    .           |      [50]: 2 transition_type 0x964-0x964.7 (1)
0x960|               01                              |     .          |      [51]: 1 transition_type 0x965-0x965.7 (1)
0x960|                  02                           |      .         |      [52]: 2 transition_type 0x966-0x966.7 (1)
0x960|                     01                        |       .        |      [53]: 1 transition_type 0x967-0x967.7 (1)
0x960|                        02                     |        .       |      [54]: 2 transition_type 0x968-0x968.7 (1)
0x960|                           05                  |         .      |      [55]: 5 transition_type 0x969-0x969.7 (1)
0x960|                              06               |          .     |      [56]: 6 transition_type 0x96a-0x96a.7 (1)
0x960|                                 05            |           .    |      [57]: 5 transition_type 0x96b-0x96b.7 (1)
0x960|                                    06         |            .   |      [58]: 6 transition_type 0x96c-0x96c.7 (1)
0x960|                                       05      |             .  |      [59]: 5 transition_type 0x96d-0x96d.7 (1)
0x960|                                          06   |              . |      [60]: 6 transition_type 0x96e-0x96e.7 (1)
0x960|                                             05|               .|      [61]: 5 transition_type 0x96f-0x96f.7 (1)
0x970|06                                             |.               |      [62]: 6 transition_type 0x970-0x970.7 (1)
0x970|   05                                          | .              |      [63]: 5 transition_type 0x971-0x971.7 (1)
0x970|      06                                       |  .             |      [64]: 6 transition_type 0x972-0x972.7 (1)
0x970|         05                                    |   .            |      [65]: 5 transition_type 0x973-0x973.7 (1)
0x970|            06                                 |    .           |      [66]: 6 transition_type 0x974-0x974.7 (1)
0x970|               05                              |     .          |      [67]: 5 transition_type 0x975-0x975.7 (1)
0x970|                  06                           |      .         |      [68]: 6 transition_type 0x976-0x976.7 (1)
0x970|                     05                        |       .        |      [69]: 5 transition_type 0x977-0x977.7 (1)
0x970|                        06                     |        .       |      [70]: 6 transition_type 0x978-0x978.7 (1)
0x970|                           05                  |         .      |      [71]: 5 transition_type 0x979-0x979.7 (1)
0x970|                              06               |          .     |      [72]: 6 transition_type 0x97a-0x97a.7 (1)
0x970|                                 05            |           .    |      [73]: 5 transition_type 0x97b-0x97b.7 (1)
0x970|                                    06         |            .   |      [74]: 6 transition_type 0x97c-0x97c.7 (1)
0x970|                                       05      |             .  |      [75]: 5 transition_type 0x97d-0x97d.7 (1)
0x970|                                          06   |              . |      [76]: 6 transition_type 0x97e-0x97e.7 (1)
0x970|                                             05|               .|      [77]: 5 transition_type 0x97f-0x97f.7 (1)
0x980|06                                             |.               |      [78]: 6 transition_type 0x980-0x980.7 (1)
0x980|   05                                          | .              |      [79]: 5 transition_type 0x981-0x981.7 (1)
0x980|      06                                       |  .             |      [80]: 6 transition_type 0x982-0x982.7 (1)
0x980|         05                                    |   .            |      [81]: 5 transition_type 0x983-0x983.7 (1)
0x980|            06                                 |    .           |      [82]: 6 transition_type 0x984-0x984.7 (1)
0x980|               05                              |     .          |      [83]: 5 transition_type 0x985-0x985.7 (1)
0x980|                  06                           |      .         |      [84]: 6 transition_type 0x986-0x986.7 (1)
0x980|                     05                        |       .        |      [85]: 5 transition_type 0x987-0x987.7 (1)
0x980|                        06                     |        .       |      [86]: 6 transition_type 0x988-0x988.7 (1)
0x980|                           05                  |         .      |      [87]: 5 transition_type 0x989-0x989.7 (1)
0x980|                              06               |          .     |      [88]: 6 transition_type 0x98a-0x98a.7 (1)
0x980|                                 05            |           .    |      [89]: 5 transition_type 0x98b-0x98b.7 (1)
0x980|                                    06         |            .   |      [90]: 6 transition_type 0x98c-0x98c.7 (1)
0x980|                                       05      |             .  |      [91]: 5 transition_type 0x98d-0x98d.7 (1)
0x980|                                          06   |              . |      [92]: 6 transition_type 0x98e-0x98e.7 (1)
0x980|                                             05|               .|      [93]: 5 transition_type 0x98f-0x98f.7 (1)
0x990|06                                             |.               |      [94]: 6 transition_type 0x990-0x990.7 (1)
0x990|   05                                          | .              |      [95]: 5 transition_type 0x991-0x991.7 (1)
0x990|      06                                       |  .             |      [96]: 6 transition_type 0x992-0x992.7 (1)
0x990|         05                                    |   .            |      [97]: 5 transition_type 0x993-0x993.7 (1)
0x990|            06                                 |    .           |      [98]: 6 transition_type 0x994-0x994.7 (1)
0x990|               05                              |     .          |      [99]: 5 transition_type 0x995-0x995.7 (1)
0x990|                  06                           |      .         |      [100]: 6 transition_type 0x996-0x996.7 (1)
0x990|                     05                        |       .        |      [101]: 5 transition_type 0x997-0x997.7 (1)
0x990|                        06                     |        .       |      [102]: 6 transition_type 0x998-0x998.7 (1)
0x990|                           05                  |         .      |      [103]: 5 transition_type 0x999-0x999.7 (1)
0x990|                              06               |          .     |      [104]: 6 transition_type 0x99a-0x99a.7 (1)
0x990|                                 05            |           .    |      [105]: 5 transition_type 0x99b-0x99b.7 (1)
0x990|                                    06         |            .   |      [106]: 6 transition_type 0x99c-0x99c.7 (1)
0x990|                                       05      |             .  |      [107]: 5 transition_type 0x99d-0x99d.7 (1)
0x990|                                          06   |              . |      [108]: 6 transition_type 0x99e-0x99e.7 (1)
0x990|                                             05|               .|      [109]: 5 transition_type 0x99f-0x99f.7 (1)
0x9a0|06                                             |.               |      [110]: 6 transition_type 0x9a0-0x9a0.7 (1)
0x9a0|   05                                          | .              |      [111]: 5 transition_type 0x9a1-0x9a1.7 (1)
0x9a0|      06                                       |  .             |      [112]: 6 transition_type 0x9a2-0x9a2.7 (1)
0x9a0|         05                                    |   .            |      [113]: 5 transition_type 0x9a3-0x9a3.7 (1)
0x9a0|            06                                 |    .           |      [114]: 6 transition_type 0x9a4-0x9a4.7 (1)
0x9a0|               05                              |     .          |      [115]: 5 transition_type 0x9a5-0x9a5.7 (1)
0x9a0|                  06                           |      .         |      [116]: 6 transition_type 0x9a6-0x9a6.7 (1)
0x9a0|                     05                        |       .        |      [117]: 5 transition_type 0x9a7-0x9a7.7 (1)
0x9a0|                        06                     |        .       |      [118]: 6 transition_type 0x9a8-0x9a8.7 (1)
0x9a0|                           05                  |         .      |      [119]: 5 transition_type 0x9a9-0x9a9.7 (1)
0x9a0|                              06               |          .     |      [120]: 6 transition_type 0x9aa-0x9aa.7 (1)
0x9a0|                                 05            |           .    |      [121]: 5 transition_type 0x9ab-0x9ab.7 (1)
0x9a0|                                    06         |            .   |      [122]: 6 transition_type 0x9ac-0x9ac.7 (1)
0x9a0|                                       05      |             .  |      [123]: 5 transition_type 0x9ad-0x9ad.7 (1)
0x9a0|                                          06   |              . |      [124]: 6 transition_type 0x9ae-0x9ae.7 (1)
0x9a0|                                             05|               .|      [125]: 5 transition_type 0x9af-0x9af.7 (1)
0x9b0|06                                             |.               |      [126]: 6 transition_type 0x9b0-0x9b0.7 (1)
0x9b0|   05                                          | .              |      [127]: 5 transition_type 0x9b1-0x9b1.7 (1)
0x9b0|      06                                       |  .             |      [128]: 6 transition_type 0x9b2-0x9b2.7 (1)
0x9b0|         05                                    |   .            |      [129]: 5 transition_type 0x9b3-0x9b3.7 (1)
0x9b0|            06                                 |    .           |      [130]: 6 transition_type 0x9b4-0x9b4.7 (1)
0x9b0|               05                              |     .          |      [131]: 5 transition_type 0x9b5-0x9b5.7 (1)
0x9b0|                  06                           |      .         |      [132]: 6 transition_type 0x9b6-0x9b6.7 (1)
0x9b0|                     05                        |       .        |      [133]: 5 transition_type 0x9b7-0x9b7.7 (1)
0x9b0|                        06                     |        .       |      [134]: 6 transition_type 0x9b8-0x9b8.7 (1)
0x9b0|                           05                  |         .      |      [135]: 5 transition_type 0x9b9-0x9b9.7 (1)
0x9b0|                              06               |          .     |      [136]: 6 transition_type 0x9ba-0x9ba.7 (1)
0x9b0|                                 05            |           .    |      [137]: 5 transition_type 0x9bb-0x9bb.7 (1)
0x9b0|                                    06         |            .   |      [138]: 6 transition_type 0x9bc-0x9bc.7 (1)
0x9b0|                                       05      |             .  |      [139]: 5 transition_type 0x9bd-0x9bd.7 (1)
0x9b0|                                          06   |              . |      [140]: 6 transition_type 0x9be-0x9be.7 (1)
0x9b0|                                             05|               .|      [141]: 5 transition_type 0x9bf-0x9bf.7 (1)
0x9c0|06                                             |.               |      [142]: 6 transition_type 0x9c0-0x9c0.7 (1)
0x9c0|   05                                          | .              |      [143]: 5 transition_type 0x9c1-0x9c1.7 (1)
0x9c0|      06                                       |  .             |      [144]: 6 transition_type 0x9c2-0x9c2.7 (1)
0x9c0|         05                                    |   .            |      [145]: 5 transition_type 0x9c3-0x9c3.7 (1)
0x9c0|            06                                 |    .           |      [146]: 6 transition_type 0x9c4-0x9c4.7 (1)
0x9c0|               05                              |     .          |      [147]: 5 transition_type 0x9c5-0x9c5.7 (1)
0x9c0|                  06                           |      .         |      [148]: 6 transition_type 0x9c6-0x9c6.7 (1)
0x9c0|                     05                        |       .        |      [149]: 5 transition_type 0x9c7-0x9c7.7 (1)
0x9c0|                        06                     |        .       |      [150]: 6 transition_type 0x9c8-0x9c8.7 (1)
0x9c0|                           05                  |         .      |      [151]: 5 transition_type 0x9c9-0x9c9.7 (1)
0x9c0|                              06               |          .     |      [152]: 6 transition_type 0x9ca-0x9ca.7 (1)
0x9c0|                                 05            |           .    |      [153]: 5 transition_type 0x9cb-0x9cb.7 (1)
0x9c0|                                    06         |            .   |      [154]: 6 transition_type 0x9cc-0x9cc.7 (1)
0x9c0|                                       05      |             .  |      [155]: 5 transition_type 0x9cd-0x9cd.7 (1)
0x9c0|                                          06   |              . |      [156]: 6 transition_type 0x9ce-0x9ce.7 (1)
0x9c0|                                             05|               .|      [157]: 5 transition_type 0x9cf-0x9cf.7 (1)
0x9d0|06                                             |.               |      [158]: 6 transition_type 0x9d0-0x9d0.7 (1)
0x9d0|   05                                          | .              |      [159]: 5 transition_type 0x9d1-0x9d1.7 (1)
0x9d0|      06                                       |  .             |      [160]: 6 transition_type 0x9d2-0x9d2.7 (1)
0x9d0|         05                                    |   .            |      [161]: 5 transition_type 0x9d3-0x9d3.7 (1)
0x9d0|            06                                 |    .           |      [162]: 6 transition_type 0x9d4-0x9d4.7 (1)
0x9d0|               05                              |     .          |      [163]: 5 transition_type 0x9d5-0x9d5.7 (1)
0x9d0|                  06                           |      .         |      [164]: 6 transition_type 0x9d6-0x9d6.7 (1)
0x9d0|                     05                        |       .        |      [165]: 5 transition_type 0x9d7-0x9d7.7 (1)
0x9d0|                        06                     |        .       |      [166]: 6 transition_type 0x9d8-0x9d8.7 (1)
0x9d0|                           05                  |         .      |      [167]: 5 transition_type 0x9d9-0x9d9.7 (1)
0x9d0|                              06               |          .     |      [168]: 6 transition_type 0x9da-0x9da.7 (1)
     |                                               |                |    local_time_type_records[0:7]: 0x9db-0xa04.7 (42)
     |                                               |                |      [0]{}: local_time_type 0x9db-0x9e0.7 (6)
0x9d0|                                 00 00 0d 9c   |           .... |        utoff: 3484 (valid) 0x9db-0x9de.7 (4)
0x9d0|                                             00|               .|        dst: 0 (valid) 0x9df-0x9df.7 (1)
0x9e0|00                                             |.               |        idx: 0 (valid) 0x9e0-0x9e0.7 (1)
     |                                               |                |      [1]{}: local_time_type 0x9e1-0x9e6.7 (6)
0x9e0|   00 00 1c 20                                 | ...            |        utoff: 7200 (valid) 0x9e1-0x9e4.7 (4)
0x9e0|               01                              |     .          |        dst: 1 (valid) 0x9e5-0x9e5.7 (1)
0x9e0|                  04                           |      .         |        idx: 4 (valid) 0x9e6-0x9e6.7 (1)
     |                                               |                |      [2]{}: local_time_type 0x9e7-0x9ec.7 (6)
0x9e0|                     00 00 0e 10               |       ....     |        utoff: 3600 (valid) 0x9e7-0x9ea.7 (4)
0x9e0|                                 00            |           .    |        dst: 0 (valid) 0x9eb-0x9eb.7 (1)
0x9e0|                                    09         |            .   |        idx: 9 (valid) 0x9ec-0x9ec.7 (1)
     |                                               |                |      [3]{}: local_time_type 0x9ed-0x9f2.7 (6)
0x9e0|                                       00 00 0e|             ...|        utoff: 3600 (valid) 0x9ed-0x9f0.7 (4)
0x9f0|10                                             |.               |
0x9f0|   00                                          | .              |        dst: 0 (valid) 0x9f1-0x9f1.7 (1)
0x9f0|      09                                       |  .             |        idx: 9 (valid) 0x9f2-0x9f2.7 (1)
     |                                               |                |      [4]{}: local_time_type 0x9f3-0x9f8.7 (6)
0x9f0|         00 00 1c 20                           |   ...          |        utoff: 7200 (valid) 0x9f3-0x9f6.7 (4)
0x9f0|                     01                        |       .        |        dst: 1 (valid) 0x9f7-0x9f7.7 (1)
0x9f0|                        04                     |        .       |        idx: 4 (valid) 0x9f8-0x9f8.7 (1)
     |                                               |                |      [5]{}: local_time_type 0x9f9-0x9fe.7 (6)
0x9f0|                           00 00 1c 20         |         ...    |        utoff: 7200 (valid) 0x9f9-0x9fc.7 (4)
0x9f0|                                       01      |             .  |        dst: 1 (valid) 0x9fd-0x9fd.7 (1)
0x9f0|                                          04   |              . |        idx: 4 (valid) 0x9fe-0x9fe.7 (1)
     |                                               |                |      [6]{}: local_time_type 0x9ff-0xa04.7 (6)
0x9f0|                                             00|               .|        utoff: 3600 (valid) 0x9ff-0xa02.7 (4)
0xa00|00 0e 10                                       |...             |
0xa00|         00                                    |   .            |        dst: 0 (valid) 0xa03-0xa03.7 (1)
0xa00|            09                                 |    .           |        idx: 9 (valid) 0xa04-0xa04.7 (1)
     |                                               |                |    time_zone_designations[0:3]: 0xa05-0xa11.7 (13)
0xa00|               4c 4d 54 00                     |     LMT.       |      [0]: "LMT" time_zone_designation 0xa05-0xa08.7 (4)
0xa00|                           43 45 53 54 00      |         CEST.  |      [1]: "CEST" time_zone_designation 0xa09-0xa0d.7 (5)
0xa00|                                          43 45|              CE|      [2]: "CET" time_zone_designation 0xa0e-0xa11.7 (4)
0xa10|54 00                                          |T.              |
     |                                               |                |    leap_second_records[0:0]: 0xa12-NA (0)
     |                                               |                |    standard_wall_indicators[0:7]: 0xa12-0xa18.7 (7)
0xa10|      00                                       |  .             |      [0]: 0 standard_wall_indicator (valid) 0xa12-0xa12.7 (1)
0xa10|         00                                    |   .            |      [1]: 0 standard_wall_indicator (valid) 0xa13-0xa13.7 (1)
0xa10|            00                                 |    .           |      [2]: 0 standard_wall_indicator (valid) 0xa14-0xa14.7 (1)
0xa10|               01                              |     .          |      [3]: 1 standard_wall_indicator (valid) 0xa15-0xa15.7 (1)
0xa10|                  01                           |      .         |      [4]: 1 standard_wall_indicator (valid) 0xa16-0xa16.7 (1)
0xa10|                     01                        |       .        |      [5]: 1 standard_wall_indicator (valid) 0xa17-0xa17.7 (1)
0xa10|                        01                     |        .       |      [6]: 1 standard_wall_indicator (valid) 0xa18-0xa18.7 (1)
     |                                               |                |    ut_local_indicators[0:7]: 0xa19-0xa1f.7 (7)
0xa10|                           00                  |         .      |      [0]: 0 ut_local_indicator (valid) 0xa19-0xa19.7 (1)
0xa10|                              00               |          .     |      [1]: 0 ut_local_indicator (valid) 0xa1a-0xa1a.7 (1)
0xa10|                                 00            |           .    |      [2]: 0 ut_local_indicator (valid) 0xa1b-0xa1b.7 (1)
0xa10|                                    00         |            .   |      [3]: 0 ut_local_indicator (valid) 0xa1c-0xa1c.7 (1)
0xa10|                                       00      |             .  |      [4]: 0 ut_local_indicator (valid) 0xa1d-0xa1d.7 (1)
0xa10|                                          01   |              . |      [5]: 1 ut_local_indicator (valid) 0xa1e-0xa1e.7 (1)
0xa10|                                             01|               .|      [6]: 1 ut_local_indicator (valid) 0xa1f-0xa1f.7 (1)
     |                                               |                |  footer{}: 0xa20-0xa3b.7 (28)
0xa20|0a                                             |.               |    nl1: 10 (valid) 0xa20-0xa20.7 (1)
0xa20|   43 45 54 2d 31 43 45 53 54 2c 4d 33 2e 35 2e| CET-1CEST,M3.5.|    tz_string: "CET-1CEST,M3.5.0,M10.5.0/3" 0xa21-0xa3a.7 (26)
0xa30|30 2c 4d 31 30 2e 35 2e 30 2f 33               |0,M10.5.0/3     |
0xa30|                                 0a|           |           .|   |    nl2: 10 (valid) 0xa3b-0xa3b.7 (1)
