$ fq -d tzif dv Manaus
     |00 01 02 03 04 05 06 07 08 09 0a 0b 0c 0d 0e 0f|0123456789abcdef|.{}: Manaus (tzif) 0x0-0x472 (1138)
     |                                               |                |  v1header{}: 0x0-0x2c (44)
0x000|54 5a 69 66                                    |TZif            |    magic: 0x545a6966 (valid) 0x0-0x4 (4)
0x000|            32                                 |    2           |    ver: "2" (0x32) (valid) 0x4-0x5 (1)
0x000|               00 00 00 00 00 00 00 00 00 00 00|     ...........|    reserved: raw bits 0x5-0x14 (15)
0x010|00 00 00 00                                    |....            |
0x010|            00 00 00 00                        |    ....        |    isutcnt: 0 0x14-0x18 (4)
0x010|                        00 00 00 00            |        ....    |    isstdcnt: 0 0x18-0x1c (4)
0x010|                                    00 00 00 1b|            ....|    leapcnt: 27 0x1c-0x20 (4)
0x020|00 00 00 20                                    |...             |    timecnt: 32 0x20-0x24 (4)
0x020|            00 00 00 03                        |    ....        |    typecnt: 3 0x24-0x28 (4)
0x020|                        00 00 00 0c            |        ....    |    charcnt: 12 0x28-0x2c (4)
     |                                               |                |  v1datablock{}: 0x2c-0x1c2 (406)
     |                                               |                |    transition_times[0:32]: 0x2c-0xac (128)
0x020|                                    96 aa 7f 44|            ...D|      [0]: "1914-01-01T04:00:04Z" (-1767211196) transition_time 0x2c-0x30 (4)
0x030|b8 0f 57 f0                                    |..W.            |      [1]: "1931-10-03T15:00:00Z" (-1206954000) transition_time 0x30-0x34 (4)
0x030|            b8 fd 4e b0                        |    ..N.        |      [2]: "1932-04-01T03:00:00Z" (-1191358800) transition_time 0x34-0x38 (4)
0x030|                        b9 f1 42 40            |        ..B@    |      [3]: "1932-10-03T04:00:00Z" (-1175371200) transition_time 0x38-0x3c (4)
0x030|                                    ba de 82 30|            ...0|      [4]: "1933-04-01T03:00:00Z" (-1159822800) transition_time 0x3c-0x40 (4)
0x040|da 38 bc 40                                    |.8.@            |      [5]: "1949-12-01T04:00:00Z" (-633816000) transition_time 0x40-0x44 (4)
0x040|            da ec 08 40                        |    ...@        |      [6]: "1950-04-16T04:00:00Z" (-622065600) transition_time 0x44-0x48 (4)
0x040|                        dc 19 ef c0            |        ....    |      [7]: "1950-12-01T04:00:00Z" (-602280000) transition_time 0x48-0x4c (4)
0x040|                                    dc b9 67 30|            ..g0|      [8]: "1951-04-01T03:00:00Z" (-591829200) transition_time 0x4c-0x50 (4)
0x050|dd fb 23 40                                    |..#@            |      [9]: "1951-12-01T04:00:00Z" (-570744000) transition_time 0x50-0x54 (4)
0x050|            de 9b ec 30                        |    ...0        |      [10]: "1952-04-01T03:00:00Z" (-560206800) transition_time 0x54-0x58 (4)
0x050|                        df dd a8 40            |        ...@    |      [11]: "1952-12-01T04:00:00Z" (-539121600) transition_time 0x58-0x5c (4)
0x050|                                    e0 54 41 30|            .TA0|      [12]: "1953-03-01T03:00:00Z" (-531349200) transition_time 0x5c-0x60 (4)
0x060|f4 98 0d c0                                    |....            |      [13]: "1963-12-09T04:00:00Z" (-191361600) transition_time 0x60-0x64 (4)
0x060|            f5 05 6c 30                        |    ..l0        |      [14]: "1964-03-01T03:00:00Z" (-184194000) transition_time 0x64-0x68 (4)
0x060|                        f6 c0 72 40            |        ..r@    |      [15]: "1965-01-31T04:00:00Z" (-155160000) transition_time 0x68-0x6c (4)
0x060|                                    f7 0e 2c b0|            ..,.|      [16]: "1965-03-31T03:00:00Z" (-150066000) transition_time 0x6c-0x70 (4)
0x070|f8 51 3a 40                                    |.Q:@            |      [17]: "1965-12-01T04:00:00Z" (-128894400) transition_time 0x70-0x74 (4)
0x070|            f8 c7 d3 30                        |    ...0        |      [18]: "1966-03-01T03:00:00Z" (-121122000) transition_time 0x74-0x78 (4)
0x070|                        fa 0a e0 c0            |        ....    |      [19]: "1966-11-01T04:00:00Z" (-99950400) transition_time 0x78-0x7c (4)
0x070|                                    fa a9 06 b0|            ....|      [20]: "1967-03-01T03:00:00Z" (-89586000) transition_time 0x7c-0x80 (4)
0x080|fb ec 14 40                                    |...@            |      [21]: "1967-11-01T04:00:00Z" (-68414400) transition_time 0x80-0x84 (4)
0x080|            fc 8b 8b b0                        |    ....        |      [22]: "1968-03-01T03:00:00Z" (-57963600) transition_time 0x84-0x88 (4)
0x080|                        1d c9 9c 4d            |        ...M    |      [23]: "1985-11-02T04:00:13Z" (499752013) transition_time 0x88-0x8c (4)
0x080|                                    1e 78 e5 bd|            .x..|      [24]: "1986-03-15T03:00:13Z" (511239613) transition_time 0x8c-0x90 (4)
0x090|1f a0 43 cd                                    |..C.            |      [25]: "1986-10-25T04:00:13Z" (530596813) transition_time 0x90-0x94 (4)
0x090|            20 33 dd bd                        |     3..        |      [26]: "1987-02-14T03:00:13Z" (540270013) transition_time 0x94-0x98 (4)
0x090|                        21 81 77 4d            |        !.wM    |      [27]: "1987-10-25T04:00:13Z" (562132813) transition_time 0x98-0x9c (4)
0x090|                                    22 0b d6 be|            "...|      [28]: "1988-02-07T03:00:14Z" (571201214) transition_time 0x9c-0xa0 (4)
0x0a0|2c c0 c3 52                                    |,..R            |      [29]: "1993-10-17T04:00:18Z" (750830418) transition_time 0xa0-0xa4 (4)
0x0a0|            2d 66 d2 42                        |    -f.B        |      [30]: "1994-02-20T03:00:18Z" (761713218) transition_time 0xa4-0xa8 (4)
0x0a0|                        64 9b 78 1b            |        d.x.    |      [31]: "2023-06-28T00:00:27Z" (1687910427) transition_time 0xa8-0xac (4)
     |                                               |                |    transition_types[0:32]: 0xac-0xcc (32)
0x0a0|                                    02         |            .   |      [0]: 2 transition_type 0xac-0xad (1)
0x0a0|                                       01      |             .  |      [1]: 1 transition_type 0xad-0xae (1)
0x0a0|                                          02   |              . |      [2]: 2 transition_type 0xae-0xaf (1)
0x0a0|                                             01|               .|      [3]: 1 transition_type 0xaf-0xb0 (1)
0x0b0|02                                             |.               |      [4]: 2 transition_type 0xb0-0xb1 (1)
0x0b0|   01                                          | .              |      [5]: 1 transition_type 0xb1-0xb2 (1)
0x0b0|      02                                       |  .             |      [6]: 2 transition_type 0xb2-0xb3 (1)
0x0b0|         01                                    |   .            |      [7]: 1 transition_type 0xb3-0xb4 (1)
0x0b0|            02                                 |    .           |      [8]: 2 transition_type 0xb4-0xb5 (1)
0x0b0|               01                              |     .          |      [9]: 1 transition_type 0xb5-0xb6 (1)
0x0b0|                  02                           |      .         |      [10]: 2 transition_type 0xb6-0xb7 (1)
0x0b0|                     01                        |       .        |      [11]: 1 transition_type 0xb7-0xb8 (1)
0x0b0|                        02                     |        .       |      [12]: 2 transition_type 0xb8-0xb9 (1)
0x0b0|                           01                  |         .      |      [13]: 1 transition_type 0xb9-0xba (1)
0x0b0|                              02               |          .     |      [14]: 2 transition_type 0xba-0xbb (1)
0x0b0|                                 01            |           .    |      [15]: 1 transition_type 0xbb-0xbc (1)
0x0b0|                                    02         |            .   |      [16]: 2 transition_type 0xbc-0xbd (1)
0x0b0|                                       01      |             .  |      [17]: 1 transition_type 0xbd-0xbe (1)
0x0b0|                                          02   |              . |      [18]: 2 transition_type 0xbe-0xbf (1)
0x0b0|                                             01|               .|      [19]: 1 transition_type 0xbf-0xc0 (1)
0x0c0|02                                             |.               |      [20]: 2 transition_type 0xc0-0xc1 (1)
0x0c0|   01                                          | .              |      [21]: 1 transition_type 0xc1-0xc2 (1)
0x0c0|      02                                       |  .             |      [22]: 2 transition_type 0xc2-0xc3 (1)
0x0c0|         01                                    |   .            |      [23]: 1 transition_type 0xc3-0xc4 (1)
0x0c0|            02                                 |    .           |      [24]: 2 transition_type 0xc4-0xc5 (1)
0x0c0|               01                              |     .          |      [25]: 1 transition_type 0xc5-0xc6 (1)
0x0c0|                  02                           |      .         |      [26]: 2 transition_type 0xc6-0xc7 (1)
0x0c0|                     01                        |       .        |      [27]: 1 transition_type 0xc7-0xc8 (1)
0x0c0|                        02                     |        .       |      [28]: 2 transition_type 0xc8-0xc9 (1)
0x0c0|                           01                  |         .      |      [29]: 1 transition_type 0xc9-0xca (1)
0x0c0|                              02               |          .     |      [30]: 2 transition_type 0xca-0xcb (1)
0x0c0|                                 02            |           .    |      [31]: 2 transition_type 0xcb-0xcc (1)
     |                                               |                |    local_time_type_records[0:3]: 0xcc-0xde (18)
     |                                               |                |      [0]{}: local_time_type 0xcc-0xd2 (6)
0x0c0|                                    ff ff c7 bc|            ....|        utoff: -14404 (valid) 0xcc-0xd0 (4)
0x0d0|00                                             |.               |        dst: 0 (valid) 0xd0-0xd1 (1)
0x0d0|   00                                          | .              |        idx: 0 (valid) 0xd1-0xd2 (1)
     |                                               |                |      [1]{}: local_time_type 0xd2-0xd8 (6)
0x0d0|      ff ff d5 d0                              |  ....          |        utoff: -10800 (valid) 0xd2-0xd6 (4)
0x0d0|                  01                           |      .         |        dst: 1 (valid) 0xd6-0xd7 (1)
0x0d0|                     04                        |       .        |        idx: 4 (valid) 0xd7-0xd8 (1)
     |                                               |                |      [2]{}: local_time_type 0xd8-0xde (6)
0x0d0|                        ff ff c7 c0            |        ....    |        utoff: -14400 (valid) 0xd8-0xdc (4)
0x0d0|                                    00         |            .   |        dst: 0 (valid) 0xdc-0xdd (1)
0x0d0|                                       08      |             .  |        idx: 8 (valid) 0xdd-0xde (1)
     |                                               |                |    time_zone_designations[0:3]: 0xde-0xea (12)
0x0d0|                                          4c 4d|              LM|      [0]: "LMT" time_zone_designation 0xde-0xe2 (4)
0x0e0|54 00                                          |T.              |
0x0e0|      2d 30 33 00                              |  -03.          |      [1]: "-03" time_zone_designation 0xe2-0xe6 (4)
0x0e0|                  2d 30 34 00                  |      -04.      |      [2]: "-04" time_zone_designation 0xe6-0xea (4)
     |                                               |                |    leap_second_records[0:27]: 0xea-0x1c2 (216)
     |                                               |                |      [0]{}: leap_second_record 0xea-0xf2 (8)
0x0e0|                              04 b2 58 00      |          ..X.  |        occur: "1972-07-01T00:00:00Z" (78796800) 0xea-0xee (4)
0x0e0|                                          00 00|              ..|        corr: 1 0xee-0xf2 (4)
0x0f0|00 01                                          |..              |
     |                                               |                |      [1]{}: leap_second_record 0xf2-0xfa (8)
0x0f0|      05 a4 ec 01                              |  ....          |        occur: "1973-01-01T00:00:01Z" (94694401) 0xf2-0xf6 (4)
0x0f0|                  00 00 00 02                  |      ....      |        corr: 2 0xf6-0xfa (4)
     |                                               |                |      [2]{}: leap_second_record 0xfa-0x102 (8)
0x0f0|                              07 86 1f 82      |          ....  |        occur: "1974-01-01T00:00:02Z" (126230402) 0xfa-0xfe (4)
0x0f0|                                          00 00|              ..|        corr: 3 0xfe-0x102 (4)
0x100|00 03                                          |..              |
     |                                               |                |      [3]{}: leap_second_record 0x102-0x10a (8)
0x100|      09 67 53 03                              |  .gS.          |        occur: "1975-01-01T00:00:03Z" (157766403) 0x102-0x106 (4)
0x100|                  00 00 00 04                  |      ....      |        corr: 4 0x106-0x10a (4)
     |                                               |                |      [4]{}: leap_second_record 0x10a-0x112 (8)
0x100|                              0b 48 86 84      |          .H..  |        occur: "1976-01-01T00:00:04Z" (189302404) 0x10a-0x10e (4)
0x100|                                          00 00|              ..|        corr: 5 0x10e-0x112 (4)
0x110|00 05                                          |..              |
     |                                               |                |      [5]{}: leap_second_record 0x112-0x11a (8)
0x110|      0d 2b 0b 85                              |  .+..          |        occur: "1977-01-01T00:00:05Z" (220924805) 0x112-0x116 (4)
0x110|                  00 00 00 06                  |      ....      |        corr: 6 0x116-0x11a (4)
     |                                               |                |      [6]{}: leap_second_record 0x11a-0x122 (8)
0x110|                              0f 0c 3f 06      |          ..?.  |        occur: "1978-01-01T00:00:06Z" (252460806) 0x11a-0x11e (4)
0x110|                                          00 00|              ..|        corr: 7 0x11e-0x122 (4)
0x120|00 07                                          |..              |
     |                                               |                |      [7]{}: leap_second_record 0x122-0x12a (8)
0x120|      10 ed 72 87                              |  ..r.          |        occur: "1979-01-01T00:00:07Z" (283996807) 0x122-0x126 (4)
0x120|                  00 00 00 08                  |      ....      |        corr: 8 0x126-0x12a (4)
     |                                               |                |      [8]{}: leap_second_record 0x12a-0x132 (8)
0x120|                              12 ce a6 08      |          ....  |        occur: "1980-01-01T00:00:08Z" (315532808) 0x12a-0x12e (4)
0x120|                                          00 00|              ..|        corr: 9 0x12e-0x132 (4)
0x130|00 09                                          |..              |
     |                                               |                |      [9]{}: leap_second_record 0x132-0x13a (8)
0x130|      15 9f ca 89                              |  ....          |        occur: "1981-07-01T00:00:09Z" (362793609) 0x132-0x136 (4)
0x130|                  00 00 00 0a                  |      ....      |        corr: 10 0x136-0x13a (4)
     |                                               |                |      [10]{}: leap_second_record 0x13a-0x142 (8)
0x130|                              17 80 fe 0a      |          ....  |        occur: "1982-07-01T00:00:10Z" (394329610) 0x13a-0x13e (4)
0x130|                                          00 00|              ..|        corr: 11 0x13e-0x142 (4)
0x140|00 0b                                          |..              |
     |                                               |                |      [11]{}: leap_second_record 0x142-0x14a (8)
0x140|      19 62 31 8b                              |  .b1.          |        occur: "1983-07-01T00:00:11Z" (425865611) 0x142-0x146 (4)
0x140|                  00 00 00 0c                  |      ....      |        corr: 12 0x146-0x14a (4)
     |                                               |                |      [12]{}: leap_second_record 0x14a-0x152 (8)
0x140|                              1d 25 ea 0c      |          .%..  |        occur: "1985-07-01T00:00:12Z" (489024012) 0x14a-0x14e (4)
0x140|                                          00 00|              ..|        corr: 13 0x14e-0x152 (4)
0x150|00 0d                                          |..              |
     |                                               |                |      [13]{}: leap_second_record 0x152-0x15a (8)
0x150|      21 da e5 0d                              |  !...          |        occur: "1988-01-01T00:00:13Z" (567993613) 0x152-0x156 (4)
0x150|                  00 00 00 0e                  |      ....      |        corr: 14 0x156-0x15a (4)
     |                                               |                |      [14]{}: leap_second_record 0x15a-0x162 (8)
0x150|                              25 9e 9d 8e      |          %...  |        occur: "1990-01-01T00:00:14Z" (631152014) 0x15a-0x15e (4)
0x150|                                          00 00|              ..|        corr: 15 0x15e-0x162 (4)
0x160|00 0f                                          |..              |
     |                                               |                |      [15]{}: leap_second_record 0x162-0x16a (8)
0x160|      27 7f d1 0f                              |  '...          |        occur: "1991-01-01T00:00:15Z" (662688015) 0x162-0x166 (4)
0x160|                  00 00 00 10                  |      ....      |        corr: 16 0x166-0x16a (4)
     |                                               |                |      [16]{}: leap_second_record 0x16a-0x172 (8)
0x160|                              2a 50 f5 90      |          *P..  |        occur: "1992-07-01T00:00:16Z" (709948816) 0x16a-0x16e (4)
0x160|                                          00 00|              ..|        corr: 17 0x16e-0x172 (4)
0x170|00 11                                          |..              |
     |                                               |                |      [17]{}: leap_second_record 0x172-0x17a (8)
0x170|      2c 32 29 11                              |  ,2).          |        occur: "1993-07-01T00:00:17Z" (741484817) 0x172-0x176 (4)
0x170|                  00 00 00 12                  |      ....      |        corr: 18 0x176-0x17a (4)
     |                                               |                |      [18]{}: leap_second_record 0x17a-0x182 (8)
0x170|                              2e 13 5c 92      |          ..\.  |        occur: "1994-07-01T00:00:18Z" (773020818) 0x17a-0x17e (4)
0x170|                                          00 00|              ..|        corr: 19 0x17e-0x182 (4)
0x180|00 13                                          |..              |
     |                                               |                |      [19]{}: leap_second_record 0x182-0x18a (8)
0x180|      30 e7 24 13                              |  0.$.          |        occur: "1996-01-01T00:00:19Z" (820454419) 0x182-0x186 (4)
0x180|                  00 00 00 14                  |      ....      |        corr: 20 0x186-0x18a (4)
     |                                               |                |      [20]{}: leap_second_record 0x18a-0x192 (8)
0x180|                              33 b8 48 94      |          3.H.  |        occur: "1997-07-01T00:00:20Z" (867715220) 0x18a-0x18e (4)
0x180|                                          00 00|              ..|        corr: 21 0x18e-0x192 (4)
0x190|00 15                                          |..              |
     |                                               |                |      [21]{}: leap_second_record 0x192-0x19a (8)
0x190|      36 8c 10 15                              |  6...          |        occur: "1999-01-01T00:00:21Z" (915148821) 0x192-0x196 (4)
0x190|                  00 00 00 16                  |      ....      |        corr: 22 0x196-0x19a (4)
     |                                               |                |      [22]{}: leap_second_record 0x19a-0x1a2 (8)
0x190|                              43 b7 1b 96      |          C...  |        occur: "2006-01-01T00:00:22Z" (1136073622) 0x19a-0x19e (4)
0x190|                                          00 00|              ..|        corr: 23 0x19e-0x1a2 (4)
0x1a0|00 17                                          |..              |
     |                                               |                |      [23]{}: leap_second_record 0x1a2-0x1aa (8)
0x1a0|      49 5c 07 97                              |  I\..          |        occur: "2009-01-01T00:00:23Z" (1230768023) 0x1a2-0x1a6 (4)
0x1a0|                  00 00 00 18                  |      ....      |        corr: 24 0x1a6-0x1aa (4)
     |                                               |                |      [24]{}: leap_second_record 0x1aa-0x1b2 (8)
0x1a0|                              4f ef 93 18      |          O...  |        occur: "2012-07-01T00:00:24Z" (1341100824) 0x1aa-0x1ae (4)
0x1a0|                                          00 00|              ..|        corr: 25 0x1ae-0x1b2 (4)
0x1b0|00 19                                          |..              |
     |                                               |                |      [25]{}: leap_second_record 0x1b2-0x1ba (8)
0x1b0|      55 93 2d 99                              |  U.-.          |        occur: "2015-07-01T00:00:25Z" (1435708825) 0x1b2-0x1b6 (4)
0x1b0|                  00 00 00 1a                  |      ....      |        corr: 26 0x1b6-0x1ba (4)
     |                                               |                |      [26]{}: leap_second_record 0x1ba-0x1c2 (8)
0x1b0|                              58 68 46 9a      |          XhF.  |        occur: "2017-01-01T00:00:26Z" (1483228826) 0x1ba-0x1be (4)
0x1b0|                                          00 00|              ..|        corr: 27 0x1be-0x1c2 (4)
0x1c0|00 1b                                          |..              |
     |                                               |                |    standard_wall_indicators[0:0]: 0x1c2-0x1c2 (0)
     |                                               |                |    ut_local_indicators[0:0]: 0x1c2-0x1c2 (0)
     |                                               |                |  v2plusheader{}: 0x1c2-0x1ee (44)
0x1c0|      54 5a 69 66                              |  TZif          |    magic: 0x545a6966 (valid) 0x1c2-0x1c6 (4)
0x1c0|                  32                           |      2         |    ver: "2" (0x32) (valid) 0x1c6-0x1c7 (1)
0x1c0|                     00 00 00 00 00 00 00 00 00|       .........|    reserved: raw bits 0x1c7-0x1d6 (15)
0x1d0|00 00 00 00 00 00                              |......          |
0x1d0|                  00 00 00 00                  |      ....      |    isutcnt: 0 0x1d6-0x1da (4)
0x1d0|                              00 00 00 00      |          ....  |    isstdcnt: 0 0x1da-0x1de (4)
0x1d0|                                          00 00|              ..|    leapcnt: 27 0x1de-0x1e2 (4)
0x1e0|00 1b                                          |..              |
0x1e0|      00 00 00 20                              |  ...           |    timecnt: 32 0x1e2-0x1e6 (4)
0x1e0|                  00 00 00 03                  |      ....      |    typecnt: 3 0x1e6-0x1ea (4)
0x1e0|                              00 00 00 0c      |          ....  |    charcnt: 12 0x1ea-0x1ee (4)
     |                                               |                |  v2plusdatablock{}: 0x1ee-0x470 (642)
     |                                               |                |    transition_times[0:32]: 0x1ee-0x2ee (256)
0x1e0|                                          ff ff|              ..|      [0]: "1914-01-01T04:00:04Z" (-1767211196) transition_time 0x1ee-0x1f6 (8)
0x1f0|ff ff 96 aa 7f 44                              |.....D          |
0x1f0|                  ff ff ff ff b8 0f 57 f0      |      ......W.  |      [1]: "1931-10-03T15:00:00Z" (-1206954000) transition_time 0x1f6-0x1fe (8)
0x1f0|                                          ff ff|              ..|      [2]: "1932-04-01T03:00:00Z" (-1191358800) transition_time 0x1fe-0x206 (8)
0x200|ff ff b8 fd 4e b0                              |....N.          |
0x200|                  ff ff ff ff b9 f1 42 40      |      ......B@  |      [3]: "1932-10-03T04:00:00Z" (-1175371200) transition_time 0x206-0x20e (8)
0x200|                                          ff ff|              ..|      [4]: "1933-04-01T03:00:00Z" (-1159822800) transition_time 0x20e-0x216 (8)
0x210|ff ff ba de 82 30                              |.....0          |
0x210|                  ff ff ff ff da 38 bc 40      |      .....8.@  |      [5]: "1949-12-01T04:00:00Z" (-633816000) transition_time 0x216-0x21e (8)
0x210|                                          ff ff|              ..|      [6]: "1950-04-16T04:00:00Z" (-622065600) transition_time 0x21e-0x226 (8)
0x220|ff ff da ec 08 40                              |.....@          |
0x220|                  ff ff ff ff dc 19 ef c0      |      ........  |      [7]: "1950-12-01T04:00:00Z" (-602280000) transition_time 0x226-0x22e (8)
0x220|                                          ff ff|              ..|      [8]: "1951-04-01T03:00:00Z" (-591829200) transition_time 0x22e-0x236 (8)
0x230|ff ff dc b9 67 30                              |....g0          |
0x230|                  ff ff ff ff dd fb 23 40      |      ......#@  |      [9]: "1951-12-01T04:00:00Z" (-570744000) transition_time 0x236-0x23e (8)
0x230|                                          ff ff|              ..|      [10]: "1952-04-01T03:00:00Z" (-560206800) transition_time 0x23e-0x246 (8)
0x240|ff ff de 9b ec 30                              |.....0          |
0x240|                  ff ff ff ff df dd a8 40      |      .......@  |      [11]: "1952-12-01T04:00:00Z" (-539121600) transition_time 0x246-0x24e (8)
0x240|                                          ff ff|              ..|      [12]: "1953-03-01T03:00:00Z" (-531349200) transition_time 0x24e-0x256 (8)
0x250|ff ff e0 54 41 30                              |...TA0          |
0x250|                  ff ff ff ff f4 98 0d c0      |      ........  |      [13]: "1963-12-09T04:00:00Z" (-191361600) transition_time 0x256-0x25e (8)
0x250|                                          ff ff|              ..|      [14]: "1964-03-01T03:00:00Z" (-184194000) transition_time 0x25e-0x266 (8)
0x260|ff ff f5 05 6c 30                              |....l0          |
0x260|                  ff ff ff ff f6 c0 72 40      |      ......r@  |      [15]: "1965-01-31T04:00:00Z" (-155160000) transition_time 0x266-0x26e (8)
0x260|                                          ff ff|              ..|      [16]: "1965-03-31T03:00:00Z" (-150066000) transition_time 0x26e-0x276 (8)
0x270|ff ff f7 0e 2c b0                              |....,.          |
0x270|                  ff ff ff ff f8 51 3a 40      |      .....Q:@  |      [17]: "1965-12-01T04:00:00Z" (-128894400) transition_time 0x276-0x27e (8)
0x270|                                          ff ff|              ..|      [18]: "1966-03-01T03:00:00Z" (-121122000) transition_time 0x27e-0x286 (8)
0x280|ff ff f8 c7 d3 30                              |.....0          |
0x280|                  ff ff ff ff fa 0a e0 c0      |      ........  |      [19]: "1966-11-01T04:00:00Z" (-99950400) transition_time 0x286-0x28e (8)
0x280|                                          ff ff|              ..|      [20]: "1967-03-01T03:00:00Z" (-89586000) transition_time 0x28e-0x296 (8)
0x290|ff ff fa a9 06 b0                              |......          |
0x290|                  ff ff ff ff fb ec 14 40      |      .......@  |      [21]: "1967-11-01T04:00:00Z" (-68414400) transition_time 0x296-0x29e (8)
0x290|                                          ff ff|              ..|      [22]: "1968-03-01T03:00:00Z" (-57963600) transition_time 0x29e-0x2a6 (8)
0x2a0|ff ff fc 8b 8b b0                              |......          |
0x2a0|                  00 00 00 00 1d c9 9c 4d      |      .......M  |      [23]: "1985-11-02T04:00:13Z" (499752013) transition_time 0x2a6-0x2ae (8)
0x2a0|                                          00 00|              ..|      [24]: "1986-03-15T03:00:13Z" (511239613) transition_time 0x2ae-0x2b6 (8)
0x2b0|00 00 1e 78 e5 bd                              |...x..          |
0x2b0|                  00 00 00 00 1f a0 43 cd      |      ......C.  |      [25]: "1986-10-25T04:00:13Z" (530596813) transition_time 0x2b6-0x2be (8)
0x2b0|                                          00 00|              ..|      [26]: "1987-02-14T03:00:13Z" (540270013) transition_time 0x2be-0x2c6 (8)
0x2c0|00 00 20 33 dd bd                              |.. 3..          |
0x2c0|                  00 00 00 00 21 81 77 4d      |      ....!.wM  |      [27]: "1987-10-25T04:00:13Z" (562132813) transition_time 0x2c6-0x2ce (8)
0x2c0|                                          00 00|              ..|      [28]: "1988-02-07T03:00:14Z" (571201214) transition_time 0x2ce-0x2d6 (8)
0x2d0|00 00 22 0b d6 be                              |.."...          |
0x2d0|                  00 00 00 00 2c c0 c3 52      |      ....,..R  |      [29]: "1993-10-17T04:00:18Z" (750830418) transition_time 0x2d6-0x2de (8)
0x2d0|                                          00 00|              ..|      [30]: "1994-02-20T03:00:18Z" (761713218) transition_time 0x2de-0x2e6 (8)
0x2e0|00 00 2d 66 d2 42                              |..-f.B          |
0x2e0|                  00 00 00 00 64 9b 78 1b      |      ....d.x.  |      [31]: "2023-06-28T00:00:27Z" (1687910427) transition_time 0x2e6-0x2ee (8)
     |                                               |                |    transition_types[0:32]: 0x2ee-0x30e (32)
0x2e0|                                          02   |              . |      [0]: 2 transition_type 0x2ee-0x2ef (1)
0x2e0|                                             01|               .|      [1]: 1 transition_type 0x2ef-0x2f0 (1)
0x2f0|02                                             |.               |      [2]: 2 transition_type 0x2f0-0x2f1 (1)
0x2f0|   01                                          | .              |      [3]: 1 transition_type 0x2f1-0x2f2 (1)
0x2f0|      02                                       |  .             |      [4]: 2 transition_type 0x2f2-0x2f3 (1)
0x2f0|         01                                    |   .            |      [5]: 1 transition_type 0x2f3-0x2f4 (1)
0x2f0|            02                                 |    .           |      [6]: 2 transition_type 0x2f4-0x2f5 (1)
0x2f0|               01                              |     .          |      [7]: 1 transition_type 0x2f5-0x2f6 (1)
0x2f0|                  02                           |      .         |      [8]: 2 transition_type 0x2f6-0x2f7 (1)
0x2f0|                     01                        |       .        |      [9]: 1 transition_type 0x2f7-0x2f8 (1)
0x2f0|                        02                     |        .       |      [10]: 2 transition_type 0x2f8-0x2f9 (1)
0x2f0|                           01                  |         .      |      [11]: 1 transition_type 0x2f9-0x2fa (1)
0x2f0|                              02               |          .     |      [12]: 2 transition_type 0x2fa-0x2fb (1)
0x2f0|                                 01            |           .    |      [13]: 1 transition_type 0x2fb-0x2fc (1)
0x2f0|                                    02         |            .   |      [14]: 2 transition_type 0x2fc-0x2fd (1)
0x2f0|                                       01      |             .  |      [15]: 1 transition_type 0x2fd-0x2fe (1)
0x2f0|                                          02   |              . |      [16]: 2 transition_type 0x2fe-0x2ff (1)
0x2f0|                                             01|               .|      [17]: 1 transition_type 0x2ff-0x300 (1)
0x300|02                                             |.               |      [18]: 2 transition_type 0x300-0x301 (1)
0x300|   01                                          | .              |      [19]: 1 transition_type 0x301-0x302 (1)
0x300|      02                                       |  .             |      [20]: 2 transition_type 0x302-0x303 (1)
0x300|         01                                    |   .            |      [21]: 1 transition_type 0x303-0x304 (1)
0x300|            02                                 |    .           |      [22]: 2 transition_type 0x304-0x305 (1)
0x300|               01                              |     .          |      [23]: 1 transition_type 0x305-0x306 (1)
0x300|                  02                           |      .         |      [24]: 2 transition_type 0x306-0x307 (1)
0x300|                     01                        |       .        |      [25]: 1 transition_type 0x307-0x308 (1)
0x300|                        02                     |        .       |      [26]: 2 transition_type 0x308-0x309 (1)
0x300|                           01                  |         .      |      [27]: 1 transition_type 0x309-0x30a (1)
0x300|                              02               |          .     |      [28]: 2 transition_type 0x30a-0x30b (1)
0x300|                                 01            |           .    |      [29]: 1 transition_type 0x30b-0x30c (1)
0x300|                                    02         |            .   |      [30]: 2 transition_type 0x30c-0x30d (1)
0x300|                                       02      |             .  |      [31]: 2 transition_type 0x30d-0x30e (1)
     |                                               |                |    local_time_type_records[0:3]: 0x30e-0x320 (18)
     |                                               |                |      [0]{}: local_time_type 0x30e-0x314 (6)
0x300|                                          ff ff|              ..|        utoff: -14404 (valid) 0x30e-0x312 (4)
0x310|c7 bc                                          |..              |
0x310|      00                                       |  .             |        dst: 0 (valid) 0x312-0x313 (1)
0x310|         00                                    |   .            |        idx: 0 (valid) 0x313-0x314 (1)
     |                                               |                |      [1]{}: local_time_type 0x314-0x31a (6)
0x310|            ff ff d5 d0                        |    ....        |        utoff: -10800 (valid) 0x314-0x318 (4)
0x310|                        01                     |        .       |        dst: 1 (valid) 0x318-0x319 (1)
0x310|                           04                  |         .      |        idx: 4 (valid) 0x319-0x31a (1)
     |                                               |                |      [2]{}: local_time_type 0x31a-0x320 (6)
0x310|                              ff ff c7 c0      |          ....  |        utoff: -14400 (valid) 0x31a-0x31e (4)
0x310|                                          00   |              . |        dst: 0 (valid) 0x31e-0x31f (1)
0x310|                                             08|               .|        idx: 8 (valid) 0x31f-0x320 (1)
     |                                               |                |    time_zone_designations[0:3]: 0x320-0x32c (12)
0x320|4c 4d 54 00                                    |LMT.            |      [0]: "LMT" time_zone_designation 0x320-0x324 (4)
0x320|            2d 30 33 00                        |    -03.        |      [1]: "-03" time_zone_designation 0x324-0x328 (4)
0x320|                        2d 30 34 00            |        -04.    |      [2]: "-04" time_zone_designation 0x328-0x32c (4)
     |                                               |                |    leap_second_records[0:27]: 0x32c-0x470 (324)
     |                                               |                |      [0]{}: leap_second_record 0x32c-0x338 (12)
0x320|                                    00 00 00 00|            ....|        occur: "1972-07-01T00:00:00Z" (78796800) 0x32c-0x334 (8)
0x330|04 b2 58 00                                    |..X.            |
0x330|            00 00 00 01                        |    ....        |        corr: 1 0x334-0x338 (4)
     |                                               |                |      [1]{}: leap_second_record 0x338-0x344 (12)
0x330|                        00 00 00 00 05 a4 ec 01|        ........|        occur: "1973-01-01T00:00:01Z" (94694401) 0x338-0x340 (8)
0x340|00 00 00 02                                    |....            |        corr: 2 0x340-0x344 (4)
     |                                               |                |      [2]{}: leap_second_record 0x344-0x350 (12)
0x340|            00 00 00 00 07 86 1f 82            |    ........    |        occur: "1974-01-01T00:00:02Z" (126230402) 0x344-0x34c (8)
0x340|                                    00 00 00 03|            ....|        corr: 3 0x34c-0x350 (4)
     |                                               |                |      [3]{}: leap_second_record 0x350-0x35c (12)
0x350|00 00 00 00 09 67 53 03                        |.....gS.        |        occur: "1975-01-01T00:00:03Z" (157766403) 0x350-0x358 (8)
0x350|                        00 00 00 04            |        ....    |        corr: 4 0x358-0x35c (4)
     |                                               |                |      [4]{}: leap_second_record 0x35c-0x368 (12)
0x350|                                    00 00 00 00|            ....|        occur: "1976-01-01T00:00:04Z" (189302404) 0x35c-0x364 (8)
0x360|0b 48 86 84                                    |.H..            |
0x360|            00 00 00 05                        |    ....        |        corr: 5 0x364-0x368 (4)
     |                                               |                |      [5]{}: leap_second_record 0x368-0x374 (12)
0x360|                        00 00 00 00 0d 2b 0b 85|        .....+..|        occur: "1977-01-01T00:00:05Z" (220924805) 0x368-0x370 (8)
0x370|00 00 00 06                                    |....            |        corr: 6 0x370-0x374 (4)
     |                                               |                |      [6]{}: leap_second_record 0x374-0x380 (12)
0x370|            00 00 00 00 0f 0c 3f 06            |    ......?.    |        occur: "1978-01-01T00:00:06Z" (252460806) 0x374-0x37c (8)
0x370|                                    00 00 00 07|            ....|        corr: 7 0x37c-0x380 (4)
     |                                               |                |      [7]{}: leap_second_record 0x380-0x38c (12)
0x380|00 00 00 00 10 ed 72 87                        |......r.        |        occur: "1979-01-01T00:00:07Z" (283996807) 0x380-0x388 (8)
0x380|                        00 00 00 08            |        ....    |        corr: 8 0x388-0x38c (4)
     |                                               |                |      [8]{}: leap_second_record 0x38c-0x398 (12)
0x380|                                    00 00 00 00|            ....|        occur: "1980-01-01T00:00:08Z" (315532808) 0x38c-0x394 (8)
0x390|12 ce a6 08                                    |....            |
0x390|            00 00 00 09                        |    ....        |        corr: 9 0x394-0x398 (4)
     |                                               |                |      [9]{}: leap_second_record 0x398-0x3a4 (12)
0x390|                        00 00 00 00 15 9f ca 89|        ........|        occur: "1981-07-01T00:00:09Z" (362793609) 0x398-0x3a0 (8)
0x3a0|00 00 00 0a                                    |....            |        corr: 10 0x3a0-0x3a4 (4)
     |                                               |                |      [10]{}: leap_second_record 0x3a4-0x3b0 (12)
0x3a0|            00 00 00 00 17 80 fe 0a            |    ........    |        occur: "1982-07-01T00:00:10Z" (394329610) 0x3a4-0x3ac (8)
0x3a0|                                    00 00 00 0b|            ....|        corr: 11 0x3ac-0x3b0 (4)
     |                                               |                |      [11]{}: leap_second_record 0x3b0-0x3bc (12)
0x3b0|00 00 00 00 19 62 31 8b                        |.....b1.        |        occur: "1983-07-01T00:00:11Z" (425865611) 0x3b0-0x3b8 (8)
0x3b0|                        00 00 00 0c            |        ....    |        corr: 12 0x3b8-0x3bc (4)
     |                                               |                |      [12]{}: leap_second_record 0x3bc-0x3c8 (12)
0x3b0|                                    00 00 00 00|            ....|        occur: "1985-07-01T00:00:12Z" (489024012) 0x3bc-0x3c4 (8)
0x3c0|1d 25 ea 0c                                    |.%..            |
0x3c0|            00 00 00 0d                        |    ....        |        corr: 13 0x3c4-0x3c8 (4)
     |                                               |                |      [13]{}: leap_second_record 0x3c8-0x3d4 (12)
0x3c0|                        00 00 00 00 21 da e5 0d|        ....!...|        occur: "1988-01-01T00:00:13Z" (567993613) 0x3c8-0x3d0 (8)
0x3d0|00 00 00 0e                                    |....            |        corr: 14 0x3d0-0x3d4 (4)
     |                                               |                |      [14]{}: leap_second_record 0x3d4-0x3e0 (12)
0x3d0|            00 00 00 00 25 9e 9d 8e            |    ....%...    |        occur: "1990-01-01T00:00:14Z" (631152014) 0x3d4-0x3dc (8)
0x3d0|                                    00 00 00 0f|            ....|        corr: 15 0x3dc-0x3e0 (4)
     |                                               |                |      [15]{}: leap_second_record 0x3e0-0x3ec (12)
0x3e0|00 00 00 00 27 7f d1 0f                        |....'...        |        occur: "1991-01-01T00:00:15Z" (662688015) 0x3e0-0x3e8 (8)
0x3e0|                        00 00 00 10            |        ....    |        corr: 16 0x3e8-0x3ec (4)
     |                                               |                |      [16]{}: leap_second_record 0x3ec-0x3f8 (12)
0x3e0|                                    00 00 00 00|            ....|        occur: "1992-07-01T00:00:16Z" (709948816) 0x3ec-0x3f4 (8)
0x3f0|2a 50 f5 90                                    |*P..            |
0x3f0|            00 00 00 11                        |    ....        |        corr: 17 0x3f4-0x3f8 (4)
     |                                               |                |      [17]{}: leap_second_record 0x3f8-0x404 (12)
0x3f0|                        00 00 00 00 2c 32 29 11|        ....,2).|        occur: "1993-07-01T00:00:17Z" (741484817) 0x3f8-0x400 (8)
0x400|00 00 00 12                                    |....            |        corr: 18 0x400-0x404 (4)
     |                                               |                |      [18]{}: leap_second_record 0x404-0x410 (12)
0x400|            00 00 00 00 2e 13 5c 92            |    ......\.    |        occur: "1994-07-01T00:00:18Z" (773020818) 0x404-0x40c (8)
0x400|                                    00 00 00 13|            ....|        corr: 19 0x40c-0x410 (4)
     |                                               |                |      [19]{}: leap_second_record 0x410-0x41c (12)
0x410|00 00 00 00 30 e7 24 13                        |....0.$.        |        occur: "1996-01-01T00:00:19Z" (820454419) 0x410-0x418 (8)
0x410|                        00 00 00 14            |        ....    |        corr: 20 0x418-0x41c (4)
     |                                               |                |      [20]{}: leap_second_record 0x41c-0x428 (12)
0x410|                                    00 00 00 00|            ....|        occur: "1997-07-01T00:00:20Z" (867715220) 0x41c-0x424 (8)
0x420|33 b8 48 94                                    |3.H.            |
0x420|            00 00 00 15                        |    ....        |        corr: 21 0x424-0x428 (4)
     |                                               |                |      [21]{}: leap_second_record 0x428-0x434 (12)
0x420|                        00 00 00 00 36 8c 10 15|        ....6...|        occur: "1999-01-01T00:00:21Z" (915148821) 0x428-0x430 (8)
0x430|00 00 00 16                                    |....            |        corr: 22 0x430-0x434 (4)
     |                                               |                |      [22]{}: leap_second_record 0x434-0x440 (12)
0x430|            00 00 00 00 43 b7 1b 96            |    ....C...    |        occur: "2006-01-01T00:00:22Z" (1136073622) 0x434-0x43c (8)
0x430|                                    00 00 00 17|            ....|        corr: 23 0x43c-0x440 (4)
     |                                               |                |      [23]{}: leap_second_record 0x440-0x44c (12)
0x440|00 00 00 00 49 5c 07 97                        |....I\..        |        occur: "2009-01-01T00:00:23Z" (1230768023) 0x440-0x448 (8)
0x440|                        00 00 00 18            |        ....    |        corr: 24 0x448-0x44c (4)
     |                                               |                |      [24]{}: leap_second_record 0x44c-0x458 (12)
0x440|                                    00 00 00 00|            ....|        occur: "2012-07-01T00:00:24Z" (1341100824) 0x44c-0x454 (8)
0x450|4f ef 93 18                                    |O...            |
0x450|            00 00 00 19                        |    ....        |        corr: 25 0x454-0x458 (4)
     |                                               |                |      [25]{}: leap_second_record 0x458-0x464 (12)
0x450|                        00 00 00 00 55 93 2d 99|        ....U.-.|        occur: "2015-07-01T00:00:25Z" (1435708825) 0x458-0x460 (8)
0x460|00 00 00 1a                                    |....            |        corr: 26 0x460-0x464 (4)
     |                                               |                |      [26]{}: leap_second_record 0x464-0x470 (12)
0x460|            00 00 00 00 58 68 46 9a            |    ....XhF.    |        occur: "2017-01-01T00:00:26Z" (1483228826) 0x464-0x46c (8)
0x460|                                    00 00 00 1b|            ....|        corr: 27 0x46c-0x470 (4)
     |                                               |                |    standard_wall_indicators[0:0]: 0x470-0x470 (0)
     |                                               |                |    ut_local_indicators[0:0]: 0x470-0x470 (0)
     |                                               |                |  footer{}: 0x470-0x472 (2)
0x470|0a                                             |.               |    nl1: 10 (valid) 0x470-0x471 (1)
     |                                               |                |    tz_string: "" 0x471-0x471 (0)
0x470|   0a|                                         | .|             |    nl2: 10 (valid) 0x471-0x472 (1)
