$ fq -d tzif dv Managua
     |00 01 02 03 04 05 06 07 08 09 0a 0b 0c 0d 0e 0f|0123456789abcdef|.{}: Managua (tzif) 0x0-0x3d4 (980)
     |                                               |                |  v1header{}: 0x0-0x2c (44)
0x000|54 5a 69 66                                    |TZif            |    magic: 0x545a6966 (valid) 0x0-0x4 (4)
0x000|            32                                 |    2           |    ver: "2" (0x32) (valid) 0x4-0x5 (1)
0x000|               00 00 00 00 00 00 00 00 00 00 00|     ...........|    reserved: raw bits 0x5-0x14 (15)
0x010|00 00 00 00                                    |....            |
0x010|            00 00 00 00                        |    ....        |    isutcnt: 0 0x14-0x18 (4)
0x010|                        00 00 00 00            |        ....    |    isstdcnt: 0 0x18-0x1c (4)
0x010|                                    00 00 00 1b|            ....|    leapcnt: 27 0x1c-0x20 (4)
0x020|00 00 00 11                                    |....            |    timecnt: 17 0x20-0x24 (4)
0x020|            00 00 00 06                        |    ....        |    typecnt: 6 0x24-0x28 (4)
0x020|                        00 00 00 14            |        ....    |    charcnt: 20 0x28-0x2c (4)
     |                                               |                |  v1datablock{}: 0x2c-0x191 (357)
     |                                               |                |    transition_times[0:17]: 0x2c-0x70 (68)
0x020|                                    80 00 00 00|            ....|      [0]: "1901-12-13T20:45:52Z" (-2147483648) transition_time 0x2c-0x30 (4)
0x030|bd 2d 48 e8                                    |.-H.            |      [1]: "1934-06-23T05:45:12Z" (-1121105688) transition_time 0x30-0x34 (4)
0x030|            06 43 74 62                        |    .Ctb        |      [2]: "1973-05-01T06:00:02Z" (105084002) transition_time 0x34-0x38 (4)
0x030|                        09 a4 3e 54            |        ..>T    |      [3]: "1975-02-16T05:00:04Z" (161758804) transition_time 0x38-0x3c (4)
0x030|                                    11 51 f8 e8|            .Q..|      [4]: "1979-03-18T06:00:08Z" (290584808) transition_time 0x3c-0x40 (4)
0x040|11 d4 6f 58                                    |..oX            |      [5]: "1979-06-25T05:00:08Z" (299134808) transition_time 0x40-0x44 (4)
0x040|            13 31 da e9                        |    .1..        |      [6]: "1980-03-16T06:00:09Z" (322034409) transition_time 0x44-0x48 (4)
0x040|                        13 b4 51 59            |        ..QY    |      [7]: "1980-06-23T05:00:09Z" (330584409) transition_time 0x48-0x4c (4)
0x040|                                    29 61 91 30|            )a.0|      [8]: "1992-01-01T10:00:16Z" (694260016) transition_time 0x4c-0x50 (4)
0x050|2a c1 4b 61                                    |*.Ka            |      [9]: "1992-09-24T05:00:17Z" (717310817) transition_time 0x50-0x54 (4)
0x050|            2b 43 dd f1                        |    +C..        |      [10]: "1993-01-01T06:00:17Z" (725868017) transition_time 0x54-0x58 (4)
0x050|                        32 c9 ef 64            |        2..d    |      [11]: "1997-01-01T05:00:20Z" (852094820) transition_time 0x58-0x5c (4)
0x050|                                    42 58 c0 f6|            BX..|      [12]: "2005-04-10T06:00:22Z" (1113112822) transition_time 0x5c-0x60 (4)
0x060|43 3f 69 66                                    |C?if            |      [13]: "2005-10-02T05:00:22Z" (1128229222) transition_time 0x60-0x64 (4)
0x060|            44 54 6e 97                        |    DTn.        |      [14]: "2006-04-30T08:00:23Z" (1146384023) transition_time 0x64-0x68 (4)
0x060|                        45 1f 59 77            |        E.Yw    |      [15]: "2006-10-01T06:00:23Z" (1159682423) transition_time 0x68-0x6c (4)
0x060|                                    64 9b 78 1b|            d.x.|      [16]: "2023-06-28T00:00:27Z" (1687910427) transition_time 0x6c-0x70 (4)
     |                                               |                |    transition_types[0:17]: 0x70-0x81 (17)
0x070|01                                             |.               |      [0]: 1 transition_type 0x70-0x71 (1)
0x070|   02                                          | .              |      [1]: 2 transition_type 0x71-0x72 (1)
0x070|      03                                       |  .             |      [2]: 3 transition_type 0x72-0x73 (1)
0x070|         02                                    |   .            |      [3]: 2 transition_type 0x73-0x74 (1)
0x070|            04                                 |    .           |      [4]: 4 transition_type 0x74-0x75 (1)
0x070|               02                              |     .          |      [5]: 2 transition_type 0x75-0x76 (1)
0x070|                  04                           |      .         |      [6]: 4 transition_type 0x76-0x77 (1)
0x070|                     02                        |       .        |      [7]: 2 transition_type 0x77-0x78 (1)
0x070|                        03                     |        .       |      [8]: 3 transition_type 0x78-0x79 (1)
0x070|                           02                  |         .      |      [9]: 2 transition_type 0x79-0x7a (1)
0x070|                              03               |          .     |      [10]: 3 transition_type 0x7a-0x7b (1)
0x070|                                 02            |           .    |      [11]: 2 transition_type 0x7b-0x7c (1)
0x070|                                    04         |            .   |      [12]: 4 transition_type 0x7c-0x7d (1)
0x070|                                       02      |             .  |      [13]: 2 transition_type 0x7d-0x7e (1)
0x070|                                          04   |              . |      [14]: 4 transition_type 0x7e-0x7f (1)
0x070|                                             02|               .|      [15]: 2 transition_type 0x7f-0x80 (1)
0x080|02                                             |.               |      [16]: 2 transition_type 0x80-0x81 (1)
     |                                               |                |    local_time_type_records[0:6]: 0x81-0xa5 (36)
     |                                               |                |      [0]{}: local_time_type 0x81-0x87 (6)
0x080|   ff ff af 1c                                 | ....           |        utoff: -20708 (valid) 0x81-0x85 (4)
0x080|               00                              |     .          |        dst: 0 (valid) 0x85-0x86 (1)
0x080|                  00                           |      .         |        idx: 0 (valid) 0x86-0x87 (1)
     |                                               |                |      [1]{}: local_time_type 0x87-0x8d (6)
0x080|                     ff ff af 18               |       ....     |        utoff: -20712 (valid) 0x87-0x8b (4)
0x080|                                 00            |           .    |        dst: 0 (valid) 0x8b-0x8c (1)
0x080|                                    04         |            .   |        idx: 4 (valid) 0x8c-0x8d (1)
     |                                               |                |      [2]{}: local_time_type 0x8d-0x93 (6)
0x080|                                       ff ff ab|             ...|        utoff: -21600 (valid) 0x8d-0x91 (4)
0x090|a0                                             |.               |
0x090|   00                                          | .              |        dst: 0 (valid) 0x91-0x92 (1)
0x090|      08                                       |  .             |        idx: 8 (valid) 0x92-0x93 (1)
     |                                               |                |      [3]{}: local_time_type 0x93-0x99 (6)
0x090|         ff ff b9 b0                           |   ....         |        utoff: -18000 (valid) 0x93-0x97 (4)
0x090|                     00                        |       .        |        dst: 0 (valid) 0x97-0x98 (1)
0x090|                        0c                     |        .       |        idx: 12 (valid) 0x98-0x99 (1)
     |                                               |                |      [4]{}: local_time_type 0x99-0x9f (6)
0x090|                           ff ff b9 b0         |         ....   |        utoff: -18000 (valid) 0x99-0x9d (4)
0x090|                                       01      |             .  |        dst: 1 (valid) 0x9d-0x9e (1)
0x090|                                          10   |              . |        idx: 16 (valid) 0x9e-0x9f (1)
     |                                               |                |      [5]{}: local_time_type 0x9f-0xa5 (6)
0x090|                                             ff|               .|        utoff: -21600 (valid) 0x9f-0xa3 (4)
0x0a0|ff ab a0                                       |...             |
0x0a0|         00                                    |   .            |        dst: 0 (valid) 0xa3-0xa4 (1)
0x0a0|            08                                 |    .           |        idx: 8 (valid) 0xa4-0xa5 (1)
     |                                               |                |    time_zone_designations[0:5]: 0xa5-0xb9 (20)
0x0a0|               4c 4d 54 00                     |     LMT.       |      [0]: "LMT" time_zone_designation 0xa5-0xa9 (4)
0x0a0|                           4d 4d 54 00         |         MMT.   |      [1]: "MMT" time_zone_designation 0xa9-0xad (4)
0x0a0|                                       43 53 54|             CST|      [2]: "CST" time_zone_designation 0xad-0xb1 (4)
0x0b0|00                                             |.               |
0x0b0|   45 53 54 00                                 | EST.           |      [3]: "EST" time_zone_designation 0xb1-0xb5 (4)
0x0b0|               43 44 54 00                     |     CDT.       |      [4]: "CDT" time_zone_designation 0xb5-0xb9 (4)
     |                                               |                |    leap_second_records[0:27]: 0xb9-0x191 (216)
     |                                               |                |      [0]{}: leap_second_record 0xb9-0xc1 (8)
0x0b0|                           04 b2 58 00         |         ..X.   |        occur: "1972-07-01T00:00:00Z" (78796800) 0xb9-0xbd (4)
0x0b0|                                       00 00 00|             ...|        corr: 1 0xbd-0xc1 (4)
0x0c0|01                                             |.               |
     |                                               |                |      [1]{}: leap_second_record 0xc1-0xc9 (8)
0x0c0|   05 a4 ec 01                                 | ....           |        occur: "1973-01-01T00:00:01Z" (94694401) 0xc1-0xc5 (4)
0x0c0|               00 00 00 02                     |     ....       |        corr: 2 0xc5-0xc9 (4)
     |                                               |                |      [2]{}: leap_second_record 0xc9-0xd1 (8)
0x0c0|                           07 86 1f 82         |         ....   |        occur: "1974-01-01T00:00:02Z" (126230402) 0xc9-0xcd (4)
0x0c0|                                       00 00 00|             ...|        corr: 3 0xcd-0xd1 (4)
0x0d0|03                                             |.               |
     |                                               |                |      [3]{}: leap_second_record 0xd1-0xd9 (8)
0x0d0|   09 67 53 03                                 | .gS.           |        occur: "1975-01-01T00:00:03Z" (157766403) 0xd1-0xd5 (4)
0x0d0|               00 00 00 04                     |     ....       |        corr: 4 0xd5-0xd9 (4)
     |                                               |                |      [4]{}: leap_second_record 0xd9-0xe1 (8)
0x0d0|                           0b 48 86 84         |         .H..   |        occur: "1976-01-01T00:00:04Z" (189302404) 0xd9-0xdd (4)
0x0d0|                                       00 00 00|             ...|        corr: 5 0xdd-0xe1 (4)
0x0e0|05                                             |.               |
     |                                               |                |      [5]{}: leap_second_record 0xe1-0xe9 (8)
0x0e0|   0d 2b 0b 85                                 | .+..           |        occur: "1977-01-01T00:00:05Z" (220924805) 0xe1-0xe5 (4)
0x0e0|               00 00 00 06                     |     ....       |        corr: 6 0xe5-0xe9 (4)
     |                                               |                |      [6]{}: leap_second_record 0xe9-0xf1 (8)
0x0e0|                           0f 0c 3f 06         |         ..?.   |        occur: "1978-01-01T00:00:06Z" (252460806) 0xe9-0xed (4)
0x0e0|                                       00 00 00|             ...|        corr: 7 0xed-0xf1 (4)
0x0f0|07                                             |.               |
     |                                               |                |      [7]{}: leap_second_record 0xf1-0xf9 (8)
0x0f0|   10 ed 72 87                                 | ..r.           |        occur: "1979-01-01T00:00:07Z" (283996807) 0xf1-0xf5 (4)
0x0f0|               00 00 00 08                     |     ....       |        corr: 8 0xf5-0xf9 (4)
     |                                               |                |      [8]{}: leap_second_record 0xf9-0x101 (8)
0x0f0|                           12 ce a6 08         |         ....   |        occur: "1980-01-01T00:00:08Z" (315532808) 0xf9-0xfd (4)
0x0f0|                                       00 00 00|             ...|        corr: 9 0xfd-0x101 (4)
0x100|09                                             |.               |
     |                                               |                |      [9]{}: leap_second_record 0x101-0x109 (8)
0x100|   15 9f ca 89                                 | ....           |        occur: "1981-07-01T00:00:09Z" (362793609) 0x101-0x105 (4)
0x100|               00 00 00 0a                     |     ....       |        corr: 10 0x105-0x109 (4)
     |                                               |                |      [10]{}: leap_second_record 0x109-0x111 (8)
0x100|                           17 80 fe 0a         |         ....   |        occur: "1982-07-01T00:00:10Z" (394329610) 0x109-0x10d (4)
0x100|                                       00 00 00|             ...|        corr: 11 0x10d-0x111 (4)
0x110|0b                                             |.               |
     |                                               |                |      [11]{}: leap_second_record 0x111-0x119 (8)
0x110|   19 62 31 8b                                 | .b1.           |        occur: "1983-07-01T00:00:11Z" (425865611) 0x111-0x115 (4)
0x110|               00 00 00 0c                     |     ....       |        corr: 12 0x115-0x119 (4)
     |                                               |                |      [12]{}: leap_second_record 0x119-0x121 (8)
0x110|                           1d 25 ea 0c         |         .%..   |        occur: "1985-07-01T00:00:12Z" (489024012) 0x119-0x11d (4)
0x110|                                       00 00 00|             ...|        corr: 13 0x11d-0x121 (4)
0x120|0d                                             |.               |
     |                                               |                |      [13]{}: leap_second_record 0x121-0x129 (8)
0x120|   21 da e5 0d                                 | !...           |        occur: "1988-01-01T00:00:13Z" (567993613) 0x121-0x125 (4)
0x120|               00 00 00 0e                     |     ....       |        corr: 14 0x125-0x129 (4)
     |                                               |                |      [14]{}: leap_second_record 0x129-0x131 (8)
0x120|                           25 9e 9d 8e         |         %...   |        occur: "1990-01-01T00:00:14Z" (631152014) 0x129-0x12d (4)
0x120|                                       00 00 00|             ...|        corr: 15 0x12d-0x131 (4)
0x130|0f                                             |.               |
     |                                               |                |      [15]{}: leap_second_record 0x131-0x139 (8)
0x130|   27 7f d1 0f                                 | '...           |        occur: "1991-01-01T00:00:15Z" (662688015) 0x131-0x135 (4)
0x130|               00 00 00 10                     |     ....       |        corr: 16 0x135-0x139 (4)
     |                                               |                |      [16]{}: leap_second_record 0x139-0x141 (8)
0x130|                           2a 50 f5 90         |         *P..   |        occur: "1992-07-01T00:00:16Z" (709948816) 0x139-0x13d (4)
0x130|                                       00 00 00|             ...|        corr: 17 0x13d-0x141 (4)
0x140|11                                             |.               |
     |                                               |                |      [17]{}: leap_second_record 0x141-0x149 (8)
0x140|   2c 32 29 11                                 | ,2).           |        occur: "1993-07-01T00:00:17Z" (741484817) 0x141-0x145 (4)
0x140|               00 00 00 12                     |     ....       |        corr: 18 0x145-0x149 (4)
     |                                               |                |      [18]{}: leap_second_record 0x149-0x151 (8)
0x140|                           2e 13 5c 92         |         ..\.   |        occur: "1994-07-01T00:00:18Z" (773020818) 0x149-0x14d (4)
0x140|                                       00 00 00|             ...|        corr: 19 0x14d-0x151 (4)
0x150|13                                             |.               |
     |                                               |                |      [19]{}: leap_second_record 0x151-0x159 (8)
0x150|   30 e7 24 13                                 | 0.$.           |        occur: "1996-01-01T00:00:19Z" (820454419) 0x151-0x155 (4)
0x150|               00 00 00 14                     |     ....       |        corr: 20 0x155-0x159 (4)
     |                                               |                |      [20]{}: leap_second_record 0x159-0x161 (8)
0x150|                           33 b8 48 94         |         3.H.   |        occur: "1997-07-01T00:00:20Z" (867715220) 0x159-0x15d (4)
0x150|                                       00 00 00|             ...|        corr: 21 0x15d-0x161 (4)
0x160|15                                             |.               |
     |                                               |                |      [21]{}: leap_second_record 0x161-0x169 (8)
0x160|   36 8c 10 15                                 | 6...           |        occur: "1999-01-01T00:00:21Z" (915148821) 0x161-0x165 (4)
0x160|               00 00 00 16                     |     ....       |        corr: 22 0x165-0x169 (4)
     |                                               |                |      [22]{}: leap_second_record 0x169-0x171 (8)
0x160|                           43 b7 1b 96         |         C...   |        occur: "2006-01-01T00:00:22Z" (1136073622) 0x169-0x16d (4)
0x160|                                       00 00 00|             ...|        corr: 23 0x16d-0x171 (4)
0x170|17                                             |.               |
     |                                               |                |      [23]{}: leap_second_record 0x171-0x179 (8)
0x170|   49 5c 07 97                                 | I\..           |        occur: "2009-01-01T00:00:23Z" (1230768023) 0x171-0x175 (4)
0x170|               00 00 00 18                     |     ....       |        corr: 24 0x175-0x179 (4)
     |                                               |                |      [24]{}: leap_second_record 0x179-0x181 (8)
0x170|                           4f ef 93 18         |         O...   |        occur: "2012-07-01T00:00:24Z" (1341100824) 0x179-0x17d (4)
0x170|                                       00 00 00|             ...|        corr: 25 0x17d-0x181 (4)
0x180|19                                             |.               |
     |                                               |                |      [25]{}: leap_second_record 0x181-0x189 (8)
0x180|   55 93 2d 99                                 | U.-.           |        occur: "2015-07-01T00:00:25Z" (1435708825) 0x181-0x185 (4)
0x180|               00 00 00 1a                     |     ....       |        corr: 26 0x185-0x189 (4)
     |                                               |                |      [26]{}: leap_second_record 0x189-0x191 (8)
0x180|                           58 68 46 9a         |         XhF.   |        occur: "2017-01-01T00:00:26Z" (1483228826) 0x189-0x18d (4)
0x180|                                       00 00 00|             ...|        corr: 27 0x18d-0x191 (4)
0x190|1b                                             |.               |
     |                                               |                |    standard_wall_indicators[0:0]: 0x191-0x191 (0)
     |                                               |                |    ut_local_indicators[0:0]: 0x191-0x191 (0)
     |                                               |                |  v2plusheader{}: 0x191-0x1bd (44)
0x190|   54 5a 69 66                                 | TZif           |    magic: 0x545a6966 (valid) 0x191-0x195 (4)
0x190|               32                              |     2          |    ver: "2" (0x32) (valid) 0x195-0x196 (1)
0x190|                  00 00 00 00 00 00 00 00 00 00|      ..........|    reserved: raw bits 0x196-0x1a5 (15)
0x1a0|00 00 00 00 00                                 |.....           |
0x1a0|               00 00 00 00                     |     ....       |    isutcnt: 0 0x1a5-0x1a9 (4)
0x1a0|                           00 00 00 00         |         ....   |    isstdcnt: 0 0x1a9-0x1ad (4)
0x1a0|                                       00 00 00|             ...|    leapcnt: 27 0x1ad-0x1b1 (4)
0x1b0|1b                                             |.               |
0x1b0|   00 00 00 11                                 | ....           |    timecnt: 17 0x1b1-0x1b5 (4)
0x1b0|               00 00 00 06                     |     ....       |    typecnt: 6 0x1b5-0x1b9 (4)
0x1b0|                           00 00 00 14         |         ....   |    charcnt: 20 0x1b9-0x1bd (4)
     |                                               |                |  v2plusdatablock{}: 0x1bd-0x3d2 (533)
     |                                               |                |    transition_times[0:17]: 0x1bd-0x245 (136)
0x1b0|                                       ff ff ff|             ...|      [0]: "1890-01-01T05:45:08Z" (-2524500892) transition_time 0x1bd-0x1c5 (8)
0x1c0|ff 69 87 2c 64                                 |.i.,d           |
0x1c0|               ff ff ff ff bd 2d 48 e8         |     .....-H.   |      [1]: "1934-06-23T05:45:12Z" (-1121105688) transition_time 0x1c5-0x1cd (8)
0x1c0|                                       00 00 00|             ...|      [2]: "1973-05-01T06:00:02Z" (105084002) transition_time 0x1cd-0x1d5 (8)
0x1d0|00 06 43 74 62                                 |..Ctb           |
0x1d0|               00 00 00 00 09 a4 3e 54         |     ......>T   |      [3]: "1975-02-16T05:00:04Z" (161758804) transition_time 0x1d5-0x1dd (8)
0x1d0|                                       00 00 00|             ...|      [4]: "1979-03-18T06:00:08Z" (290584808) transition_time 0x1dd-0x1e5 (8)
0x1e0|00 11 51 f8 e8                                 |..Q..           |
0x1e0|               00 00 00 00 11 d4 6f 58         |     ......oX   |      [5]: "1979-06-25T05:00:08Z" (299134808) transition_time 0x1e5-0x1ed (8)
0x1e0|                                       00 00 00|             ...|      [6]: "1980-03-16T06:00:09Z" (322034409) transition_time 0x1ed-0x1f5 (8)
0x1f0|00 13 31 da e9                                 |..1..           |
0x1f0|               00 00 00 00 13 b4 51 59         |     ......QY   |      [7]: "1980-06-23T05:00:09Z" (330584409) transition_time 0x1f5-0x1fd (8)
0x1f0|                                       00 00 00|             ...|      [8]: "1992-01-01T10:00:16Z" (694260016) transition_time 0x1fd-0x205 (8)
0x200|00 29 61 91 30                                 |.)a.0           |
0x200|               00 00 00 00 2a c1 4b 61         |     ....*.Ka   |      [9]: "1992-09-24T05:00:17Z" (717310817) transition_time 0x205-0x20d (8)
0x200|                                       00 00 00|             ...|      [10]: "1993-01-01T06:00:17Z" (725868017) transition_time 0x20d-0x215 (8)
0x210|00 2b 43 dd f1                                 |.+C..           |
0x210|               00 00 00 00 32 c9 ef 64         |     ....2..d   |      [11]: "1997-01-01T05:00:20Z" (852094820) transition_time 0x215-0x21d (8)
0x210|                                       00 00 00|             ...|      [12]: "2005-04-10T06:00:22Z" (1113112822) transition_time 0x21d-0x225 (8)
0x220|00 42 58 c0 f6                                 |.BX..           |
0x220|               00 00 00 00 43 3f 69 66         |     ....C?if   |      [13]: "2005-10-02T05:00:22Z" (1128229222) transition_time 0x225-0x22d (8)
0x220|                                       00 00 00|             ...|      [14]: "2006-04-30T08:00:23Z" (1146384023) transition_time 0x22d-0x235 (8)
0x230|00 44 54 6e 97                                 |.DTn.           |
0x230|               00 00 00 00 45 1f 59 77         |     ....E.Yw   |      [15]: "2006-10-01T06:00:23Z" (1159682423) transition_time 0x235-0x23d (8)
0x230|                                       00 00 00|             ...|      [16]: "2023-06-28T00:00:27Z" (1687910427) transition_time 0x23d-0x245 (8)
0x240|00 64 9b 78 1b                                 |.d.x.           |
     |                                               |                |    transition_types[0:17]: 0x245-0x256 (17)
0x240|               01                              |     .          |      [0]: 1 transition_type 0x245-0x246 (1)
0x240|                  02                           |      .         |      [1]: 2 transition_type 0x246-0x247 (1)
0x240|                     03                        |       .        |      [2]: 3 transition_type 0x247-0x248 (1)
0x240|                        02                     |        .       |      [3]: 2 transition_type 0x248-0x249 (1)
0x240|                           04                  |         .      |      [4]: 4 transition_type 0x249-0x24a (1)
0x240|                              02               |          .     |      [5]: 2 transition_type 0x24a-0x24b (1)
0x240|                                 04            |           .    |      [6]: 4 transition_type 0x24b-0x24c (1)
0x240|                                    02         |            .   |      [7]: 2 transition_type 0x24c-0x24d (1)
0x240|                                       03      |             .  |      [8]: 3 transition_type 0x24d-0x24e (1)
0x240|                                          02   |              . |      [9]: 2 transition_type 0x24e-0x24f (1)
0x240|                                             03|               .|      [10]: 3 transition_type 0x24f-0x250 (1)
0x250|02                                             |.               |      [11]: 2 transition_type 0x250-0x251 (1)
0x250|   04                                          | .              |      [12]: 4 transition_type 0x251-0x252 (1)
0x250|      02                                       |  .             |      [13]: 2 transition_type 0x252-0x253 (1)
0x250|         04                                    |   .            |      [14]: 4 transition_type 0x253-0x254 (1)
0x250|            02                                 |    .           |      [15]: 2 transition_type 0x254-0x255 (1)
0x250|               02                              |     .          |      [16]: 2 transition_type 0x255-0x256 (1)
     |                                               |                |    local_time_type_records[0:6]: 0x256-0x27a (36)
     |                                               |                |      [0]{}: local_time_type 0x256-0x25c (6)
0x250|                  ff ff af 1c                  |      ....      |        utoff: -20708 (valid) 0x256-0x25a (4)
0x250|                              00               |          .     |        dst: 0 (valid) 0x25a-0x25b (1)
0x250|                                 00            |           .    |        idx: 0 (valid) 0x25b-0x25c (1)
     |                                               |                |      [1]{}: local_time_type 0x25c-0x262 (6)
0x250|                                    ff ff af 18|            ....|        utoff: -20712 (valid) 0x25c-0x260 (4)
0x260|00                                             |.               |        dst: 0 (valid) 0x260-0x261 (1)
0x260|   04                                          | .              |        idx: 4 (valid) 0x261-0x262 (1)
     |                                               |                |      [2]{}: local_time_type 0x262-0x268 (6)
0x260|      ff ff ab a0                              |  ....          |        utoff: -21600 (valid) 0x262-0x266 (4)
0x260|                  00                           |      .         |        dst: 0 (valid) 0x266-0x267 (1)
0x260|                     08                        |       .        |        idx: 8 (valid) 0x267-0x268 (1)
     |                                               |                |      [3]{}: local_time_type 0x268-0x26e (6)
0x260|                        ff ff b9 b0            |        ....    |        utoff: -18000 (valid) 0x268-0x26c (4)
0x260|                                    00         |            .   |        dst: 0 (valid) 0x26c-0x26d (1)
0x260|                                       0c      |             .  |        idx: 12 (valid) 0x26d-0x26e (1)
     |                                               |                |      [4]{}: local_time_type 0x26e-0x274 (6)
0x260|                                          ff ff|              ..|        utoff: -18000 (valid) 0x26e-0x272 (4)
0x270|b9 b0                                          |..              |
0x270|      01                                       |  .             |        dst: 1 (valid) 0x272-0x273 (1)
0x270|         10                                    |   .            |        idx: 16 (valid) 0x273-0x274 (1)
     |                                               |                |      [5]{}: local_time_type 0x274-0x27a (6)
0x270|            ff ff ab a0                        |    ....        |        utoff: -21600 (valid) 0x274-0x278 (4)
0x270|                        00                     |        .       |        dst: 0 (valid) 0x278-0x279 (1)
0x270|                           08                  |         .      |        idx: 8 (valid) 0x279-0x27a (1)
     |                                               |                |    time_zone_designations[0:5]: 0x27a-0x28e (20)
0x270|                              4c 4d 54 00      |          LMT.  |      [0]: "LMT" time_zone_designation 0x27a-0x27e (4)
0x270|                                          4d 4d|              MM|      [1]: "MMT" time_zone_designation 0x27e-0x282 (4)
0x280|54 00                                          |T.              |
0x280|      43 53 54 00                              |  CST.          |      [2]: "CST" time_zone_designation 0x282-0x286 (4)
0x280|                  45 53 54 00                  |      EST.      |      [3]: "EST" time_zone_designation 0x286-0x28a (4)
0x280|                              43 44 54 00      |          CDT.  |      [4]: "CDT" time_zone_designation 0x28a-0x28e (4)
     |                                               |                |    leap_second_records[0:27]: 0x28e-0x3d2 (324)
     |                                               |                |      [0]{}: leap_second_record 0x28e-0x29a (12)
0x280|                                          00 00|              ..|        occur: "1972-07-01T00:00:00Z" (78796800) 0x28e-0x296 (8)
0x290|00 00 04 b2 58 00                              |....X.          |
0x290|                  00 00 00 01                  |      ....      |        corr: 1 0x296-0x29a (4)
     |                                               |                |      [1]{}: leap_second_record 0x29a-0x2a6 (12)
0x290|                              00 00 00 00 05 a4|          ......|        occur: "1973-01-01T00:00:01Z" (94694401) 0x29a-0x2a2 (8)
0x2a0|ec 01                                          |..              |
0x2a0|      00 00 00 02                              |  ....          |        corr: 2 0x2a2-0x2a6 (4)
     |                                               |                |      [2]{}: leap_second_record 0x2a6-0x2b2 (12)
0x2a0|                  00 00 00 00 07 86 1f 82      |      ........  |        occur: "1974-01-01T00:00:02Z" (126230402) 0x2a6-0x2ae (8)
0x2a0|                                          00 00|              ..|        corr: 3 0x2ae-0x2b2 (4)
0x2b0|00 03                                          |..              |
     |                                               |                |      [3]{}: leap_second_record 0x2b2-0x2be (12)
0x2b0|      00 00 00 00 09 67 53 03                  |  .....gS.      |        occur: "1975-01-01T00:00:03Z" (157766403) 0x2b2-0x2ba (8)
0x2b0|                              00 00 00 04      |          ....  |        corr: 4 0x2ba-0x2be (4)
     |                                               |                |      [4]{}: leap_second_record 0x2be-0x2ca (12)
0x2b0|                                          00 00|              ..|        occur: "1976-01-01T00:00:04Z" (189302404) 0x2be-0x2c6 (8)
0x2c0|00 00 0b 48 86 84                              |...H..          |
0x2c0|                  00 00 00 05                  |      ....      |        corr: 5 0x2c6-0x2ca (4)
     |                                               |                |      [5]{}: leap_second_record 0x2ca-0x2d6 (12)
0x2c0|                              00 00 00 00 0d 2b|          .....+|        occur: "1977-01-01T00:00:05Z" (220924805) 0x2ca-0x2d2 (8)
0x2d0|0b 85                                          |..              |
0x2d0|      00 00 00 06                              |  ....          |        corr: 6 0x2d2-0x2d6 (4)
     |                                               |                |      [6]{}: leap_second_record 0x2d6-0x2e2 (12)
0x2d0|                  00 00 00 00 0f 0c 3f 06      |      ......?.  |        occur: "1978-01-01T00:00:06Z" (252460806) 0x2d6-0x2de (8)
0x2d0|                                          00 00|              ..|        corr: 7 0x2de-0x2e2 (4)
0x2e0|00 07                                          |..              |
     |                                               |                |      [7]{}: leap_second_record 0x2e2-0x2ee (12)
0x2e0|      00 00 00 00 10 ed 72 87                  |  ......r.      |        occur: "1979-01-01T00:00:07Z" (283996807) 0x2e2-0x2ea (8)
0x2e0|                              00 00 00 08      |          ....  |        corr: 8 0x2ea-0x2ee (4)
     |                                               |                |      [8]{}: leap_second_record 0x2ee-0x2fa (12)
0x2e0|                                          00 00|              ..|        occur: "1980-01-01T00:00:08Z" (315532808) 0x2ee-0x2f6 (8)
0x2f0|00 00 12 ce a6 08                              |......          |
0x2f0|                  00 00 00 09                  |      ....      |        corr: 9 0x2f6-0x2fa (4)
     |                                               |                |      [9]{}: leap_second_record 0x2fa-0x306 (12)
0x2f0|                              00 00 00 00 15 9f|          ......|        occur: "1981-07-01T00:00:09Z" (362793609) 0x2fa-0x302 (8)
0x300|ca 89                                          |..              |
0x300|      00 00 00 0a                              |  ....          |        corr: 10 0x302-0x306 (4)
     |                                               |                |      [10]{}: leap_second_record 0x306-0x312 (12)
0x300|                  00 00 00 00 17 80 fe 0a      |      ........  |        occur: "1982-07-01T00:00:10Z" (394329610) 0x306-0x30e (8)
0x300|                                          00 00|              ..|        corr: 11 0x30e-0x312 (4)
0x310|00 0b                                          |..              |
     |                                               |                |      [11]{}: leap_second_record 0x312-0x31e (12)
0x310|      00 00 00 00 19 62 31 8b                  |  .....b1.      |        occur: "1983-07-01T00:00:11Z" (425865611) 0x312-0x31a (8)
0x310|                              00 00 00 0c      |          ....  |        corr: 12 0x31a-0x31e (4)
     |                                               |                |      [12]{}: leap_second_record 0x31e-0x32a (12)
0x310|                                          00 00|              ..|        occur: "1985-07-01T00:00:12Z" (489024012) 0x31e-0x326 (8)
0x320|00 00 1d 25 ea 0c                              |...%..          |
0x320|                  00 00 00 0d                  |      ....      |        corr: 13 0x326-0x32a (4)
     |                                               |                |      [13]{}: leap_second_record 0x32a-0x336 (12)
0x320|                              00 00 00 00 21 da|          ....!.|        occur: "1988-01-01T00:00:13Z" (567993613) 0x32a-0x332 (8)
0x330|e5 0d                                          |..              |
0x330|      00 00 00 0e                              |  ....          |        corr: 14 0x332-0x336 (4)
     |                                               |                |      [14]{}: leap_second_record 0x336-0x342 (12)
0x330|                  00 00 00 00 25 9e 9d 8e      |      ....%...  |        occur: "1990-01-01T00:00:14Z" (631152014) 0x336-0x33e (8)
0x330|                                          00 00|              ..|        corr: 15 0x33e-0x342 (4)
0x340|00 0f                                          |..              |
     |                                               |                |      [15]{}: leap_second_record 0x342-0x34e (12)
0x340|      00 00 00 00 27 7f d1 0f                  |  ....'...      |        occur: "1991-01-01T00:00:15Z" (662688015) 0x342-0x34a (8)
0x340|                              00 00 00 10      |          ....  |        corr: 16 0x34a-0x34e (4)
     |                                               |                |      [16]{}: leap_second_record 0x34e-0x35a (12)
0x340|                                          00 00|              ..|        occur: "1992-07-01T00:00:16Z" (709948816) 0x34e-0x356 (8)
0x350|00 00 2a 50 f5 90                              |..*P..          |
0x350|                  00 00 00 11                  |      ....      |        corr: 17 0x356-0x35a (4)
     |                                               |                |      [17]{}: leap_second_record 0x35a-0x366 (12)
0x350|                              00 00 00 00 2c 32|          ....,2|        occur: "1993-07-01T00:00:17Z" (741484817) 0x35a-0x362 (8)
0x360|29 11                                          |).              |
0x360|      00 00 00 12                              |  ....          |        corr: 18 0x362-0x366 (4)
     |                                               |                |      [18]{}: leap_second_record 0x366-0x372 (12)
0x360|                  00 00 00 00 2e 13 5c 92      |      ......\.  |        occur: "1994-07-01T00:00:18Z" (773020818) 0x366-0x36e (8)
0x360|                                          00 00|              ..|        corr: 19 0x36e-0x372 (4)
0x370|00 13                                          |..              |
     |                                               |                |      [19]{}: leap_second_record 0x372-0x37e (12)
0x370|      00 00 00 00 30 e7 24 13                  |  ....0.$.      |        occur: "1996-01-01T00:00:19Z" (820454419) 0x372-0x37a (8)
0x370|                              00 00 00 14      |          ....  |        corr: 20 0x37a-0x37e (4)
     |                                               |                |      [20]{}: leap_second_record 0x37e-0x38a (12)
0x370|                                          00 00|              ..|        occur: "1997-07-01T00:00:20Z" (867715220) 0x37e-0x386 (8)
0x380|00 00 33 b8 48 94                              |..3.H.          |
0x380|                  00 00 00 15                  |      ....      |        corr: 21 0x386-0x38a (4)
     |                                               |                |      [21]{}: leap_second_record 0x38a-0x396 (12)
0x380|                              00 00 00 00 36 8c|          ....6.|        occur: "1999-01-01T00:00:21Z" (915148821) 0x38a-0x392 (8)
0x390|10 15                                          |..              |
0x390|      00 00 00 16                              |  ....          |        corr: 22 0x392-0x396 (4)
     |                                               |                |      [22]{}: leap_second_record 0x396-0x3a2 (12)
0x390|                  00 00 00 00 43 b7 1b 96      |      ....C...  |        occur: "2006-01-01T00:00:22Z" (1136073622) 0x396-0x39e (8)
0x390|                                          00 00|              ..|        corr: 23 0x39e-0x3a2 (4)
0x3a0|00 17                                          |..              |
     |                                               |                |      [23]{}: leap_second_record 0x3a2-0x3ae (12)
0x3a0|      00 00 00 00 49 5c 07 97                  |  ....I\..      |        occur: "2009-01-01T00:00:23Z" (1230768023) 0x3a2-0x3aa (8)
0x3a0|                              00 00 00 18      |          ....  |        corr: 24 0x3aa-0x3ae (4)
     |                                               |                |      [24]{}: leap_second_record 0x3ae-0x3ba (12)
0x3a0|                                          00 00|              ..|        occur: "2012-07-01T00:00:24Z" (1341100824) 0x3ae-0x3b6 (8)
0x3b0|00 00 4f ef 93 18                              |..O...          |
0x3b0|                  00 00 00 19                  |      ....      |        corr: 25 0x3b6-0x3ba (4)
     |                                               |                |      [25]{}: leap_second_record 0x3ba-0x3c6 (12)
0x3b0|                              00 00 00 00 55 93|          ....U.|        occur: "2015-07-01T00:00:25Z" (1435708825) 0x3ba-0x3c2 (8)
0x3c0|2d 99                                          |-.              |
0x3c0|      00 00 00 1a                              |  ....          |        corr: 26 0x3c2-0x3c6 (4)
     |                                               |                |      [26]{}: leap_second_record 0x3c6-0x3d2 (12)
0x3c0|                  00 00 00 00 58 68 46 9a      |      ....XhF.  |        occur: "2017-01-01T00:00:26Z" (1483228826) 0x3c6-0x3ce (8)
0x3c0|                                          00 00|              ..|        corr: 27 0x3ce-0x3d2 (4)
0x3d0|00 1b                                          |..              |
     |                                               |                |    standard_wall_indicators[0:0]: 0x3d2-0x3d2 (0)
     |                                               |                |    ut_local_indicators[0:0]: 0x3d2-0x3d2 (0)
     |                                               |                |  footer{}: 0x3d2-0x3d4 (2)
0x3d0|      0a                                       |  .             |    nl1: 10 (valid) 0x3d2-0x3d3 (1)
     |                                               |                |    tz_string: "" 0x3d3-0x3d3 (0)
0x3d0|         0a|                                   |   .|           |    nl2: 10 (valid) 0x3d3-0x3d4 (1)
