$ fq -d tzif dv Managua
     |00 01 02 03 04 05 06 07 08 09 0a 0b 0c 0d 0e 0f|0123456789abcdef|.{}: Managua (tzif) 0x0-0x3d3.7 (980)
     |                                               |                |  v1header{}: 0x0-0x2b.7 (44)
0x000|54 5a 69 66                                    |TZif            |    magic: 0x545a6966 (valid) 0x0-0x3.7 (4)
0x000|            32                                 |    2           |    ver: "2" (0x32) (valid) 0x4-0x4.7 (1)
0x000|               00 00 00 00 00 00 00 00 00 00 00|     ...........|    reserved: raw bits 0x5-0x13.7 (15)
0x010|00 00 00 00                                    |....            |
0x010|            00 00 00 00                        |    ....        |    isutcnt: 0 0x14-0x17.7 (4)
0x010|                        00 00 00 00            |        ....    |    isstdcnt: 0 0x18-0x1b.7 (4)
0x010|                                    00 00 00 1b|            ....|    leapcnt: 27 0x1c-0x1f.7 (4)
0x020|00 00 00 11                                    |....            |    timecnt: 17 0x20-0x23.7 (4)
0x020|            00 00 00 06                        |    ....        |    typecnt: 6 0x24-0x27.7 (4)
0x020|                        00 00 00 14            |        ....    |    charcnt: 20 0x28-0x2b.7 (4)
     |                                               |                |  v1datablock{}: 0x2c-0x190.7 (357)
     |                                               |                |    transition_times[0:17]: 0x2c-0x6f.7 (68)
0x020|                                    80 00 00 00|            ....|      [0]: "1901-12-13T20:45:52Z" (-2147483648) transition_time 0x2c-0x2f.7 (4)
0x030|bd 2d 48 e8                                    |.-H.            |      [1]: "1934-06-23T05:45:12Z" (-1121105688) transition_time 0x30-0x33.7 (4)
0x030|            06 43 74 62                        |    .Ctb        |      [2]: "1973-05-01T06:00:02Z" (105084002) transition_time 0x34-0x37.7 (4)
0x030|                        09 a4 3e 54            |        ..>T    |      [3]: "1975-02-16T05:00:04Z" (161758804) transition_time 0x38-0x3b.7 (4)
0x030|                                    11 51 f8 e8|            .Q..|      [4]: "1979-03-18T06:00:08Z" (290584808) transition_time 0x3c-0x3f.7 (4)
0x040|11 d4 6f 58                                    |..oX            |      [5]: "1979-06-25T05:00:08Z" (299134808) transition_time 0x40-0x43.7 (4)
0x040|            13 31 da e9                        |    .1..        |      [6]: "1980-03-16T06:00:09Z" (322034409) transition_time 0x44-0x47.7 (4)
0x040|                        13 b4 51 59            |        ..QY    |      [7]: "1980-06-23T05:00:09Z" (330584409) transition_time 0x48-0x4b.7 (4)
0x040|                                    29 61 91 30|            )a.0|      [8]: "1992-01-01T10:00:16Z" (694260016) transition_time 0x4c-0x4f.7 (4)
0x050|2a c1 4b 61                                    |*.Ka            |      [9]: "1992-09-24T05:00:17Z" (717310817) transition_time 0x50-0x53.7 (4)
0x050|            2b 43 dd f1                        |    +C..        |      [10]: "1993-01-01T06:00:17Z" (725868017) transition_time 0x54-0x57.7 (4)
0x050|                        32 c9 ef 64            |        2..d    |      [11]: "1997-01-01T05:00:20Z" (852094820) transition_time 0x58-0x5b.7 (4)
0x050|                                    42 58 c0 f6|            BX..|      [12]: "2005-04-10T06:00:22Z" (1113112822) transition_time 0x5c-0x5f.7 (4)
0x060|43 3f 69 66                                    |C?if            |      [13]: "2005-10-02T05:00:22Z" (1128229222) transition_time 0x60-0x63.7 (4)
0x060|            44 54 6e 97                        |    DTn.        |      [14]: "2006-04-30T08:00:23Z" (1146384023) transition_time 0x64-0x67.7 (4)
0x060|                        45 1f 59 77            |        E.Yw    |      [15]: "2006-10-01T06:00:23Z" (1159682423) transition_time 0x68-0x6b.7 (4)
0x060|                                    64 9b 78 1b|            d.x.|      [16]: "2023-06-28T00:00:27Z" (1687910427) transition_time 0x6c-0x6f.7 (4)
     |                                               |                |    transition_types[0:17]: 0x70-0x80.7 (17)
0x070|01                                             |.               |      [0]: 1 transition_type 0x70-0x70.7 (1)
0x070|   02                                          | .              |      [1]: 2 transition_type 0x71-0x71.7 (1)
0x070|      03                                       |  .             |      [2]: 3 transition_type 0x72-0x72.7 (1)
0x070|         02                                    |   .            |      [3]: 2 transition_type 0x73-0x73.7 (1)
0x070|            04                                 |    .           |      [4]: 4 transition_type 0x74-0x74.7 (1)
0x070|               02                              |     .          |      [5]: 2 transition_type 0x75-0x75.7 (1)
0x070|                  04                           |      .         |      [6]: 4 transition_type 0x76-0x76.7 (1)
0x070|                     02                        |       .        |      [7]: 2 transition_type 0x77-0x77.7 (1)
0x070|                        03                     |        .       |      [8]: 3 transition_type 0x78-0x78.7 (1)
0x070|                           02                  |         .      |      [9]: 2 transition_type 0x79-0x79.7 (1)
0x070|                              03               |          .     |      [10]: 3 transition_type 0x7a-0x7a.7 (1)
0x070|                                 02            |           .    |      [11]: 2 transition_type 0x7b-0x7b.7 (1)
0x070|                                    04         |            .   |      [12]: 4 transition_type 0x7c-0x7c.7 (1)
0x070|                                       02      |             .  |      [13]: 2 transition_type 0x7d-0x7d.7 (1)
0x070|                                          04   |              . |      [14]: 4 transition_type 0x7e-0x7e.7 (1)
0x070|                                             02|               .|      [15]: 2 transition_type 0x7f-0x7f.7 (1)
0x080|02                                             |.               |      [16]: 2 transition_type 0x80-0x80.7 (1)
     |                                               |                |    local_time_type_records[0:6]: 0x81-0xa4.7 (36)
     |                                               |                |      [0]{}: local_time_type 0x81-0x86.7 (6)
0x080|   ff ff af 1c                                 | ....           |        utoff: -20708 (valid) 0x81-0x84.7 (4)
0x080|               00                              |     .          |        dst: 0 (valid) 0x85-0x85.7 (1)
0x080|                  00                           |      .         |        idx: 0 (valid) 0x86-0x86.7 (1)
     |                                               |                |      [1]{}: local_time_type 0x87-0x8c.7 (6)
0x080|                     ff ff af 18               |       ....     |        utoff: -20712 (valid) 0x87-0x8a.7 (4)
0x080|                                 00            |           .    |        dst: 0 (valid) 0x8b-0x8b.7 (1)
0x080|                                    04         |            .   |        idx: 4 (valid) 0x8c-0x8c.7 (1)
     |                                               |                |      [2]{}: local_time_type 0x8d-0x92.7 (6)
0x080|                                       ff ff ab|             ...|        utoff: -21600 (valid) 0x8d-0x90.7 (4)
0x090|a0                                             |.               |
0x090|   00                                          | .              |        dst: 0 (valid) 0x91-0x91.7 (1)
0x090|      08                                       |  .             |        idx: 8 (valid) 0x92-0x92.7 (1)
     |                                               |                |      [3]{}: local_time_type 0x93-0x98.7 (6)
0x090|         ff ff b9 b0                           |   ....         |        utoff: -18000 (valid) 0x93-0x96.7 (4)
0x090|                     00                        |       .        |        dst: 0 (valid) 0x97-0x97.7 (1)
0x090|                        0c                     |        .       |        idx: 12 (valid) 0x98-0x98.7 (1)
     |                                               |                |      [4]{}: local_time_type 0x99-0x9e.7 (6)
0x090|                           ff ff b9 b0         |         ....   |        utoff: -18000 (valid) 0x99-0x9c.7 (4)
0x090|                                       01      |             .  |        dst: 1 (valid) 0x9d-0x9d.7 (1)
0x090|                                          10   |              . |        idx: 16 (valid) 0x9e-0x9e.7 (1)
     |                                               |                |      [5]{}: local_time_type 0x9f-0xa4.7 (6)
0x090|                                             ff|               .|        utoff: -21600 (valid) 0x9f-0xa2.7 (4)
0x0a0|ff ab a0                                       |...             |
0x0a0|         00                                    |   .            |        dst: 0 (valid) 0xa3-0xa3.7 (1)
0x0a0|            08                                 |    .           |        idx: 8 (valid) 0xa4-0xa4.7 (1)
     |                                               |                |    time_zone_designations[0:5]: 0xa5-0xb8.7 (20)
0x0a0|               4c 4d 54 00                     |     LMT.       |      [0]: "LMT" time_zone_designation 0xa5-0xa8.7 (4)
0x0a0|                           4d 4d 54 00         |         MMT.   |      [1]: "MMT" time_zone_designation 0xa9-0xac.7 (4)
0x0a0|                                       43 53 54|             CST|      [2]: "CST" time_zone_designation 0xad-0xb0.7 (4)
0x0b0|00                                             |.               |
0x0b0|   45 53 54 00                                 | EST.           |      [3]: "EST" time_zone_designation 0xb1-0xb4.7 (4)
0x0b0|               43 44 54 00                     |     CDT.       |      [4]: "CDT" time_zone_designation 0xb5-0xb8.7 (4)
     |                                               |                |    leap_second_records[0:27]: 0xb9-0x190.7 (216)
     |                                               |                |      [0]{}: leap_second_record 0xb9-0xc0.7 (8)
0x0b0|                           04 b2 58 00         |         ..X.   |        occur: "1972-07-01T00:00:00Z" (78796800) 0xb9-0xbc.7 (4)
0x0b0|                                       00 00 00|             ...|        corr: 1 0xbd-0xc0.7 (4)
0x0c0|01                                             |.               |
     |                                               |                |      [1]{}: leap_second_record 0xc1-0xc8.7 (8)
0x0c0|   05 a4 ec 01                                 | ....           |        occur: "1973-01-01T00:00:01Z" (94694401) 0xc1-0xc4.7 (4)
0x0c0|               00 00 00 02                     |     ....       |        corr: 2 0xc5-0xc8.7 (4)
     |                                               |                |      [2]{}: leap_second_record 0xc9-0xd0.7 (8)
0x0c0|                           07 86 1f 82         |         ....   |        occur: "1974-01-01T00:00:02Z" (126230402) 0xc9-0xcc.7 (4)
0x0c0|                                       00 00 00|             ...|        corr: 3 0xcd-0xd0.7 (4)
0x0d0|03                                             |.               |
     |                                               |                |      [3]{}: leap_second_record 0xd1-0xd8.7 (8)
0x0d0|   09 67 53 03                                 | .gS.           |        occur: "1975-01-01T00:00:03Z" (157766403) 0xd1-0xd4.7 (4)
0x0d0|               00 00 00 04                     |     ....       |        corr: 4 0xd5-0xd8.7 (4)
     |                                               |                |      [4]{}: leap_second_record 0xd9-0xe0.7 (8)
0x0d0|                           0b 48 86 84         |         .H..   |        occur: "1976-01-01T00:00:04Z" (189302404) 0xd9-0xdc.7 (4)
0x0d0|                                       00 00 00|             ...|        corr: 5 0xdd-0xe0.7 (4)
0x0e0|05                                             |.               |
     |                                               |                |      [5]{}: leap_second_record 0xe1-0xe8.7 (8)
0x0e0|   0d 2b 0b 85                                 | .+..           |        occur: "1977-01-01T00:00:05Z" (220924805) 0xe1-0xe4.7 (4)
0x0e0|               00 00 00 06                     |     ....       |        corr: 6 0xe5-0xe8.7 (4)
     |                                               |                |      [6]{}: leap_second_record 0xe9-0xf0.7 (8)
0x0e0|                           0f 0c 3f 06         |         ..?.   |        occur: "1978-01-01T00:00:06Z" (252460806) 0xe9-0xec.7 (4)
0x0e0|                                       00 00 00|             ...|        corr: 7 0xed-0xf0.7 (4)
0x0f0|07                                             |.               |
     |                                               |                |      [7]{}: leap_second_record 0xf1-0xf8.7 (8)
0x0f0|   10 ed 72 87                                 | ..r.           |        occur: "1979-01-01T00:00:07Z" (283996807) 0xf1-0xf4.7 (4)
0x0f0|               00 00 00 08                     |     ....       |        corr: 8 0xf5-0xf8.7 (4)
     |                                               |                |      [8]{}: leap_second_record 0xf9-0x100.7 (8)
0x0f0|                           12 ce a6 08         |         ....   |        occur: "1980-01-01T00:00:08Z" (315532808) 0xf9-0xfc.7 (4)
0x0f0|                                       00 00 00|             ...|        corr: 9 0xfd-0x100.7 (4)
0x100|09                                             |.               |
     |                                               |                |      [9]{}: leap_second_record 0x101-0x108.7 (8)
0x100|   15 9f ca 89                                 | ....           |        occur: "1981-07-01T00:00:09Z" (362793609) 0x101-0x104.7 (4)
0x100|               00 00 00 0a                     |     ....       |        corr: 10 0x105-0x108.7 (4)
     |                                               |                |      [10]{}: leap_second_record 0x109-0x110.7 (8)
0x100|                           17 80 fe 0a         |         ....   |        occur: "1982-07-01T00:00:10Z" (394329610) 0x109-0x10c.7 (4)
0x100|                                       00 00 00|             ...|        corr: 11 0x10d-0x110.7 (4)
0x110|0b                                             |.               |
     |                                               |                |      [11]{}: leap_second_record 0x111-0x118.7 (8)
0x110|   19 62 31 8b                                 | .b1.           |        occur: "1983-07-01T00:00:11Z" (425865611) 0x111-0x114.7 (4)
0x110|               00 00 00 0c                     |     ....       |        corr: 12 0x115-0x118.7 (4)
     |                                               |                |      [12]{}: leap_second_record 0x119-0x120.7 (8)
0x110|                           1d 25 ea 0c         |         .%..   |        occur: "1985-07-01T00:00:12Z" (489024012) 0x119-0x11c.7 (4)
0x110|                                       00 00 00|             ...|        corr: 13 0x11d-0x120.7 (4)
0x120|0d                                             |.               |
     |                                               |                |      [13]{}: leap_second_record 0x121-0x128.7 (8)
0x120|   21 da e5 0d                                 | !...           |        occur: "1988-01-01T00:00:13Z" (567993613) 0x121-0x124.7 (4)
0x120|               00 00 00 0e                     |     ....       |        corr: 14 0x125-0x128.7 (4)
     |                                               |                |      [14]{}: leap_second_record 0x129-0x130.7 (8)
0x120|                           25 9e 9d 8e         |         %...   |        occur: "1990-01-01T00:00:14Z" (631152014) 0x129-0x12c.7 (4)
0x120|                                       00 00 00|             ...|        corr: 15 0x12d-0x130.7 (4)
0x130|0f                                             |.               |
     |                                               |                |      [15]{}: leap_second_record 0x131-0x138.7 (8)
0x130|   27 7f d1 0f                                 | '...           |        occur: "1991-01-01T00:00:15Z" (662688015) 0x131-0x134.7 (4)
0x130|               00 00 00 10                     |     ....       |        corr: 16 0x135-0x138.7 (4)
     |                                               |                |      [16]{}: leap_second_record 0x139-0x140.7 (8)
0x130|                           2a 50 f5 90         |         *P..   |        occur: "1992-07-01T00:00:16Z" (709948816) 0x139-0x13c.7 (4)
0x130|                                       00 00 00|             ...|        corr: 17 0x13d-0x140.7 (4)
0x140|11                                             |.               |
     |                                               |                |      [17]{}: leap_second_record 0x141-0x148.7 (8)
0x140|   2c 32 29 11                                 | ,2).           |        occur: "1993-07-01T00:00:17Z" (741484817) 0x141-0x144.7 (4)
0x140|               00 00 00 12                     |     ....       |        corr: 18 0x145-0x148.7 (4)
     |                                               |                |      [18]{}: leap_second_record 0x149-0x150.7 (8)
0x140|                           2e 13 5c 92         |         ..\.   |        occur: "1994-07-01T00:00:18Z" (773020818) 0x149-0x14c.7 (4)
0x140|                                       00 00 00|             ...|        corr: 19 0x14d-0x150.7 (4)
0x150|13                                             |.               |
     |                                               |                |      [19]{}: leap_second_record 0x151-0x158.7 (8)
0x150|   30 e7 24 13                                 | 0.$.           |        occur: "1996-01-01T00:00:19Z" (820454419) 0x151-0x154.7 (4)
0x150|               00 00 00 14                     |     ....       |        corr: 20 0x155-0x158.7 (4)
     |                                               |                |      [20]{}: leap_second_record 0x159-0x160.7 (8)
0x150|                           33 b8 48 94         |         3.H.   |        occur: "1997-07-01T00:00:20Z" (867715220) 0x159-0x15c.7 (4)
0x150|                                       00 00 00|             ...|        corr: 21 0x15d-0x160.7 (4)
0x160|15                                             |.               |
     |                                               |                |      [21]{}: leap_second_record 0x161-0x168.7 (8)
0x160|   36 8c 10 15                                 | 6...           |        occur: "1999-01-01T00:00:21Z" (915148821) 0x161-0x164.7 (4)
0x160|               00 00 00 16                     |     ....       |        corr: 22 0x165-0x168.7 (4)
     |                                               |                |      [22]{}: leap_second_record 0x169-0x170.7 (8)
0x160|                           43 b7 1b 96         |         C...   |        occur: "2006-01-01T00:00:22Z" (1136073622) 0x169-0x16c.7 (4)
0x160|                                       00 00 00|             ...|        corr: 23 0x16d-0x170.7 (4)
0x170|17                                             |.               |
     |                                               |                |      [23]{}: leap_second_record 0x171-0x178.7 (8)
0x170|   49 5c 07 97                                 | I\..           |        occur: "2009-01-01T00:00:23Z" (1230768023) 0x171-0x174.7 (4)
0x170|               00 00 00 18                     |     ....       |        corr: 24 0x175-0x178.7 (4)
     |                                               |                |      [24]{}: leap_second_record 0x179-0x180.7 (8)
0x170|                           4f ef 93 18         |         O...   |        occur: "2012-07-01T00:00:24Z" (1341100824) 0x179-0x17c.7 (4)
0x170|                                       00 00 00|             ...|        corr: 25 0x17d-0x180.7 (4)
0x180|19                                             |.               |
     |                                               |                |      [25]{}: leap_second_record 0x181-0x188.7 (8)
0x180|   55 93 2d 99                                 | U.-.           |        occur: "2015-07-01T00:00:25Z" (1435708825) 0x181-0x184.7 (4)
0x180|               00 00 00 1a                     |     ....       |        corr: 26 0x185-0x188.7 (4)
     |                                               |                |      [26]{}: leap_second_record 0x189-0x190.7 (8)
0x180|                           58 68 46 9a         |         XhF.   |        occur: "2017-01-01T00:00:26Z" (1483228826) 0x189-0x18c.7 (4)
0x180|                                       00 00 00|             ...|        corr: 27 0x18d-0x190.7 (4)
0x190|1b                                             |.               |
     |                                               |                |    standard_wall_indicators[0:0]: 0x191-NA (0)
     |                                               |                |    ut_local_indicators[0:0]: 0x191-NA (0)
     |                                               |                |  v2plusheader{}: 0x191-0x1bc.7 (44)
0x190|   54 5a 69 66                                 | TZif           |    magic: 0x545a6966 (valid) 0x191-0x194.7 (4)
0x190|               32                              |     2          |    ver: "2" (0x32) (valid) 0x195-0x195.7 (1)
0x190|                  00 00 00 00 00 00 00 00 00 00|      ..........|    reserved: raw bits 0x196-0x1a4.7 (15)
0x1a0|00 00 00 00 00                                 |.....           |
0x1a0|               00 00 00 00                     |     ....       |    isutcnt: 0 0x1a5-0x1a8.7 (4)
0x1a0|                           00 00 00 00         |         ....   |    isstdcnt: 0 0x1a9-0x1ac.7 (4)
0x1a0|                                       00 00 00|             ...|    leapcnt: 27 0x1ad-0x1b0.7 (4)
0x1b0|1b                                             |.               |
0x1b0|   00 00 00 11                                 | ....           |    timecnt: 17 0x1b1-0x1b4.7 (4)
0x1b0|               00 00 00 06                     |     ....       |    typecnt: 6 0x1b5-0x1b8.7 (4)
0x1b0|                           00 00 00 14         |         ....   |    charcnt: 20 0x1b9-0x1bc.7 (4)
     |                                               |                |  v2plusdatablock{}: 0x1bd-0x3d1.7 (533)
     |                                               |                |    transition_times[0:17]: 0x1bd-0x244.7 (136)
0x1b0|                                       ff ff ff|             ...|      [0]: "1890-01-01T05:45:08Z" (-2524500892) transition_time 0x1bd-0x1c4.7 (8)
0x1c0|ff 69 87 2c 64                                 |.i.,d           |
0x1c0|               ff ff ff ff bd 2d 48 e8         |     .....-H.   |      [1]: "1934-06-23T05:45:12Z" (-1121105688) transition_time 0x1c5-0x1cc.7 (8)
0x1c0|                                       00 00 00|             ...|      [2]: "1973-05-01T06:00:02Z" (105084002) transition_time 0x1cd-0x1d4.7 (8)
0x1d0|00 06 43 74 62                                 |..Ctb           |
0x1d0|               00 00 00 00 09 a4 3e 54         |     ......>T   |      [3]: "1975-02-16T05:00:04Z" (161758804) transition_time 0x1d5-0x1dc.7 (8)
0x1d0|                                       00 00 00|             ...|      [4]: "1979-03-18T06:00:08Z" (290584808) transition_time 0x1dd-0x1e4.7 (8)
0x1e0|00 11 51 f8 e8                                 |..Q..           |
0x1e0|               00 00 00 00 11 d4 6f 58         |     ......oX   |      [5]: "1979-06-25T05:00:08Z" (299134808) transition_time 0x1e5-0x1ec.7 (8)
0x1e0|                                       00 00 00|             ...|      [6]: "1980-03-16T06:00:09Z" (322034409) transition_time 0x1ed-0x1f4.7 (8)
0x1f0|00 13 31 da e9                                 |..1..           |
0x1f0|               00 00 00 00 13 b4 51 59         |     ......QY   |      [7]: "1980-06-23T05:00:09Z" (330584409) transition_time 0x1f5-0x1fc.7 (8)
0x1f0|                                       00 00 00|             ...|      [8]: "1992-01-01T10:00:16Z" (694260016) transition_time 0x1fd-0x204.7 (8)
0x200|00 29 61 91 30                                 |.)a.0           |
0x200|               00 00 00 00 2a c1 4b 61         |     ....*.Ka   |      [9]: "1992-09-24T05:00:17Z" (717310817) transition_time 0x205-0x20c.7 (8)
0x200|                                       00 00 00|             ...|      [10]: "1993-01-01T06:00:17Z" (725868017) transition_time 0x20d-0x214.7 (8)
0x210|00 2b 43 dd f1                                 |.+C..           |
0x210|               00 00 00 00 32 c9 ef 64         |     ....2..d   |      [11]: "1997-01-01T05:00:20Z" (852094820) transition_time 0x215-0x21c.7 (8)
0x210|                                       00 00 00|             ...|      [12]: "2005-04-10T06:00:22Z" (1113112822) transition_time 0x21d-0x224.7 (8)
0x220|00 42 58 c0 f6                                 |.BX..           |
0x220|               00 00 00 00 43 3f 69 66         |     ....C?if   |      [13]: "2005-10-02T05:00:22Z" (1128229222) transition_time 0x225-0x22c.7 (8)
0x220|                                       00 00 00|             ...|      [14]: "2006-04-30T08:00:23Z" (1146384023) transition_time 0x22d-0x234.7 (8)
0x230|00 44 54 6e 97                                 |.DTn.           |
0x230|               00 00 00 00 45 1f 59 77         |     ....E.Yw   |      [15]: "2006-10-01T06:00:23Z" (1159682423) transition_time 0x235-0x23c.7 (8)
0x230|                                       00 00 00|             ...|      [16]: "2023-06-28T00:00:27Z" (1687910427) transition_time 0x23d-0x244.7 (8)
0x240|00 64 9b 78 1b                                 |.d.x.           |
     |                                               |                |    transition_types[0:17]: 0x245-0x255.7 (17)
0x240|               01                              |     .          |      [0]: 1 transition_type 0x245-0x245.7 (1)
0x240|                  02                           |      .         |      [1]: 2 transition_type 0x246-0x246.7 (1)
0x240|                     03                        |       .        |      [2]: 3 transition_type 0x247-0x247.7 (1)
0x240|                        02                     |        .       |      [3]: 2 transition_type 0x248-0x248.7 (1)
0x240|                           04                  |         .      |      [4]: 4 transition_type 0x249-0x249.7 (1)
0x240|                              02               |          .     |      [5]: 2 transition_type 0x24a-0x24a.7 (1)
0x240|                                 04            |           .    |      [6]: 4 transition_type 0x24b-0x24b.7 (1)
0x240|                                    02         |            .   |      [7]: 2 transition_type 0x24c-0x24c.7 (1)
0x240|                                       03      |             .  |      [8]: 3 transition_type 0x24d-0x24d.7 (1)
0x240|                                          02   |              . |      [9]: 2 transition_type 0x24e-0x24e.7 (1)
0x240|                                             03|               .|      [10]: 3 transition_type 0x24f-0x24f.7 (1)
0x250|02                                             |.               |      [11]: 2 transition_type 0x250-0x250.7 (1)
0x250|   04                                          | .              |      [12]: 4 transition_type 0x251-0x251.7 (1)
0x250|      02                                       |  .             |      [13]: 2 transition_type 0x252-0x252.7 (1)
0x250|         04                                    |   .            |      [14]: 4 transition_type 0x253-0x253.7 (1)
0x250|            02                                 |    .           |      [15]: 2 transition_type 0x254-0x254.7 (1)
0x250|               02                              |     .          |      [16]: 2 transition_type 0x255-0x255.7 (1)
     |                                               |                |    local_time_type_records[0:6]: 0x256-0x279.7 (36)
     |                                               |                |      [0]{}: local_time_type 0x256-0x25b.7 (6)
0x250|                  ff ff af 1c                  |      ....      |        utoff: -20708 (valid) 0x256-0x259.7 (4)
0x250|                              00               |          .     |        dst: 0 (valid) 0x25a-0x25a.7 (1)
0x250|                                 00            |           .    |        idx: 0 (valid) 0x25b-0x25b.7 (1)
     |                                               |                |      [1]{}: local_time_type 0x25c-0x261.7 (6)
0x250|                                    ff ff af 18|            ....|        utoff: -20712 (valid) 0x25c-0x25f.7 (4)
0x260|00                                             |.               |        dst: 0 (valid) 0x260-0x260.7 (1)
0x260|   04                                          | .              |        idx: 4 (valid) 0x261-0x261.7 (1)
     |                                               |                |      [2]{}: local_time_type 0x262-0x267.7 (6)
0x260|      ff ff ab a0                              |  ....          |        utoff: -21600 (valid) 0x262-0x265.7 (4)
0x260|                  00                           |      .         |        dst: 0 (valid) 0x266-0x266.7 (1)
0x260|                     08                        |       .        |        idx: 8 (valid) 0x267-0x267.7 (1)
     |                                               |                |      [3]{}: local_time_type 0x268-0x26d.7 (6)
0x260|                        ff ff b9 b0            |        ....    |        utoff: -18000 (valid) 0x268-0x26b.7 (4)
0x260|                                    00         |            .   |        dst: 0 (valid) 0x26c-0x26c.7 (1)
0x260|                                       0c      |             .  |        idx: 12 (valid) 0x26d-0x26d.7 (1)
     |                                               |                |      [4]{}: local_time_type 0x26e-0x273.7 (6)
0x260|                                          ff ff|              ..|        utoff: -18000 (valid) 0x26e-0x271.7 (4)
0x270|b9 b0                                          |..              |
0x270|      01                                       |  .             |        dst: 1 (valid) 0x272-0x272.7 (1)
0x270|         10                                    |   .            |        idx: 16 (valid) 0x273-0x273.7 (1)
     |                                               |                |      [5]{}: local_time_type 0x274-0x279.7 (6)
0x270|            ff ff ab a0                        |    ....        |        utoff: -21600 (valid) 0x274-0x277.7 (4)
0x270|                        00                     |        .       |        dst: 0 (valid) 0x278-0x278.7 (1)
0x270|                           08                  |         .      |        idx: 8 (valid) 0x279-0x279.7 (1)
     |                                               |                |    time_zone_designations[0:5]: 0x27a-0x28d.7 (20)
0x270|                              4c 4d 54 00      |          LMT.  |      [0]: "LMT" time_zone_designation 0x27a-0x27d.7 (4)
0x270|                                          4d 4d|              MM|      [1]: "MMT" time_zone_designation 0x27e-0x281.7 (4)
0x280|54 00                                          |T.              |
0x280|      43 53 54 00                              |  CST.          |      [2]: "CST" time_zone_designation 0x282-0x285.7 (4)
0x280|                  45 53 54 00                  |      EST.      |      [3]: "EST" time_zone_designation 0x286-0x289.7 (4)
0x280|                              43 44 54 00      |          CDT.  |      [4]: "CDT" time_zone_designation 0x28a-0x28d.7 (4)
     |                                               |                |    leap_second_records[0:27]: 0x28e-0x3d1.7 (324)
     |                                               |                |      [0]{}: leap_second_record 0x28e-0x299.7 (12)
0x280|                                          00 00|              ..|        occur: "1972-07-01T00:00:00Z" (78796800) 0x28e-0x295.7 (8)
0x290|00 00 04 b2 58 00                              |....X.          |
0x290|                  00 00 00 01                  |      ....      |        corr: 1 0x296-0x299.7 (4)
     |                                               |                |      [1]{}: leap_second_record 0x29a-0x2a5.7 (12)
0x290|                              00 00 00 00 05 a4|          ......|        occur: "1973-01-01T00:00:01Z" (94694401) 0x29a-0x2a1.7 (8)
0x2a0|ec 01                                          |..              |
0x2a0|      00 00 00 02                              |  ....          |        corr: 2 0x2a2-0x2a5.7 (4)
     |                                               |                |      [2]{}: leap_second_record 0x2a6-0x2b1.7 (12)
0x2a0|                  00 00 00 00 07 86 1f 82      |      ........  |        occur: "1974-01-01T00:00:02Z" (126230402) 0x2a6-0x2ad.7 (8)
0x2a0|                                          00 00|              ..|        corr: 3 0x2ae-0x2b1.7 (4)
0x2b0|00 03                                          |..              |
     |                                               |                |      [3]{}: leap_second_record 0x2b2-0x2bd.7 (12)
0x2b0|      00 00 00 00 09 67 53 03                  |  .....gS.      |        occur: "1975-01-01T00:00:03Z" (157766403) 0x2b2-0x2b9.7 (8)
0x2b0|                              00 00 00 04      |          ....  |        corr: 4 0x2ba-0x2bd.7 (4)
     |                                               |                |      [4]{}: leap_second_record 0x2be-0x2c9.7 (12)
0x2b0|                                          00 00|              ..|        occur: "1976-01-01T00:00:04Z" (189302404) 0x2be-0x2c5.7 (8)
0x2c0|00 00 0b 48 86 84                              |...H..          |
0x2c0|                  00 00 00 05                  |      ....      |        corr: 5 0x2c6-0x2c9.7 (4)
     |                                               |                |      [5]{}: leap_second_record 0x2ca-0x2d5.7 (12)
0x2c0|                              00 00 00 00 0d 2b|          .....+|        occur: "1977-01-01T00:00:05Z" (220924805) 0x2ca-0x2d1.7 (8)
0x2d0|0b 85                                          |..              |
0x2d0|      00 00 00 06                              |  ....          |        corr: 6 0x2d2-0x2d5.7 (4)
     |                                               |                |      [6]{}: leap_second_record 0x2d6-0x2e1.7 (12)
0x2d0|                  00 00 00 00 0f 0c 3f 06      |      ......?.  |        occur: "1978-01-01T00:00:06Z" (252460806) 0x2d6-0x2dd.7 (8)
0x2d0|                                          00 00|              ..|        corr: 7 0x2de-0x2e1.7 (4)
0x2e0|00 07                                          |..              |
     |                                               |                |      [7]{}: leap_second_record 0x2e2-0x2ed.7 (12)
0x2e0|      00 00 00 00 10 ed 72 87                  |  ......r.      |        occur: "1979-01-01T00:00:07Z" (283996807) 0x2e2-0x2e9.7 (8)
0x2e0|                              00 00 00 08      |          ....  |        corr: 8 0x2ea-0x2ed.7 (4)
     |                                               |                |      [8]{}: leap_second_record 0x2ee-0x2f9.7 (12)
0x2e0|                                          00 00|              ..|        occur: "1980-01-01T00:00:08Z" (315532808) 0x2ee-0x2f5.7 (8)
0x2f0|00 00 12 ce a6 08                              |......          |
0x2f0|                  00 00 00 09                  |      ....      |        corr: 9 0x2f6-0x2f9.7 (4)
     |                                               |                |      [9]{}: leap_second_record 0x2fa-0x305.7 (12)
0x2f0|                              00 00 00 00 15 9f|          ......|        occur: "1981-07-01T00:00:09Z" (362793609) 0x2fa-0x301.7 (8)
0x300|ca 89                                          |..              |
0x300|      00 00 00 0a                              |  ....          |        corr: 10 0x302-0x305.7 (4)
     |                                               |                |      [10]{}: leap_second_record 0x306-0x311.7 (12)
0x300|                  00 00 00 00 17 80 fe 0a      |      ........  |        occur: "1982-07-01T00:00:10Z" (394329610) 0x306-0x30d.7 (8)
0x300|                                          00 00|              ..|        corr: 11 0x30e-0x311.7 (4)
0x310|00 0b                                          |..              |
     |                                               |                |      [11]{}: leap_second_record 0x312-0x31d.7 (12)
0x310|      00 00 00 00 19 62 31 8b                  |  .....b1.      |        occur: "1983-07-01T00:00:11Z" (425865611) 0x312-0x319.7 (8)
0x310|                              00 00 00 0c      |          ....  |        corr: 12 0x31a-0x31d.7 (4)
     |                                               |                |      [12]{}: leap_second_record 0x31e-0x329.7 (12)
0x310|                                          00 00|              ..|        occur: "1985-07-01T00:00:12Z" (489024012) 0x31e-0x325.7 (8)
0x320|00 00 1d 25 ea 0c                              |...%..          |
0x320|                  00 00 00 0d                  |      ....      |        corr: 13 0x326-0x329.7 (4)
     |                                               |                |      [13]{}: leap_second_record 0x32a-0x335.7 (12)
0x320|                              00 00 00 00 21 da|          ....!.|        occur: "1988-01-01T00:00:13Z" (567993613) 0x32a-0x331.7 (8)
0x330|e5 0d                                          |..              |
0x330|      00 00 00 0e                              |  ....          |        corr: 14 0x332-0x335.7 (4)
     |                                               |                |      [14]{}: leap_second_record 0x336-0x341.7 (12)
0x330|                  00 00 00 00 25 9e 9d 8e      |      ....%...  |        occur: "1990-01-01T00:00:14Z" (631152014) 0x336-0x33d.7 (8)
0x330|                                          00 00|              ..|        corr: 15 0x33e-0x341.7 (4)
0x340|00 0f                                          |..              |
     |                                               |                |      [15]{}: leap_second_record 0x342-0x34d.7 (12)
0x340|      00 00 00 00 27 7f d1 0f                  |  ....'...      |        occur: "1991-01-01T00:00:15Z" (662688015) 0x342-0x349.7 (8)
0x340|                              00 00 00 10      |          ....  |        corr: 16 0x34a-0x34d.7 (4)
     |                                               |                |      [16]{}: leap_second_record 0x34e-0x359.7 (12)
0x340|                                          00 00|              ..|        occur: "1992-07-01T00:00:16Z" (709948816) 0x34e-0x355.7 (8)
0x350|00 00 2a 50 f5 90                              |..*P..          |
0x350|                  00 00 00 11                  |      ....      |        corr: 17 0x356-0x359.7 (4)
     |                                               |                |      [17]{}: leap_second_record 0x35a-0x365.7 (12)
0x350|                              00 00 00 00 2c 32|          ....,2|        occur: "1993-07-01T00:00:17Z" (741484817) 0x35a-0x361.7 (8)
0x360|29 11                                          |).              |
0x360|      00 00 00 12                              |  ....          |        corr: 18 0x362-0x365.7 (4)
     |                                               |                |      [18]{}: leap_second_record 0x366-0x371.7 (12)
0x360|                  00 00 00 00 2e 13 5c 92      |      ......\.  |        occur: "1994-07-01T00:00:18Z" (773020818) 0x366-0x36d.7 (8)
0x360|                                          00 00|              ..|        corr: 19 0x36e-0x371.7 (4)
0x370|00 13                                          |..              |
     |                                               |                |      [19]{}: leap_second_record 0x372-0x37d.7 (12)
0x370|      00 00 00 00 30 e7 24 13                  |  ....0.$.      |        occur: "1996-01-01T00:00:19Z" (820454419) 0x372-0x379.7 (8)
0x370|                              00 00 00 14      |          ....  |        corr: 20 0x37a-0x37d.7 (4)
     |                                               |                |      [20]{}: leap_second_record 0x37e-0x389.7 (12)
0x370|                                          00 00|              ..|        occur: "1997-07-01T00:00:20Z" (867715220) 0x37e-0x385.7 (8)
0x380|00 00 33 b8 48 94                              |..3.H.          |
0x380|                  00 00 00 15                  |      ....      |        corr: 21 0x386-0x389.7 (4)
     |                                               |                |      [21]{}: leap_second_record 0x38a-0x395.7 (12)
0x380|                              00 00 00 00 36 8c|          ....6.|        occur: "1999-01-01T00:00:21Z" (915148821) 0x38a-0x391.7 (8)
0x390|10 15                                          |..              |
0x390|      00 00 00 16                              |  ....          |        corr: 22 0x392-0x395.7 (4)
     |                                               |                |      [22]{}: leap_second_record 0x396-0x3a1.7 (12)
0x390|                  00 00 00 00 43 b7 1b 96      |      ....C...  |        occur: "2006-01-01T00:00:22Z" (1136073622) 0x396-0x39d.7 (8)
0x390|                                          00 00|              ..|        corr: 23 0x39e-0x3a1.7 (4)
0x3a0|00 17                                          |..              |
     |                                               |                |      [23]{}: leap_second_record 0x3a2-0x3ad.7 (12)
0x3a0|      00 00 00 00 49 5c 07 97                  |  ....I\..      |        occur: "2009-01-01T00:00:23Z" (1230768023) 0x3a2-0x3a9.7 (8)
0x3a0|                              00 00 00 18      |          ....  |        corr: 24 0x3aa-0x3ad.7 (4)
     |                                               |                |      [24]{}: leap_second_record 0x3ae-0x3b9.7 (12)
0x3a0|                                          00 00|              ..|        occur: "2012-07-01T00:00:24Z" (1341100824) 0x3ae-0x3b5.7 (8)
0x3b0|00 00 4f ef 93 18                              |..O...          |
0x3b0|                  00 00 00 19                  |      ....      |        corr: 25 0x3b6-0x3b9.7 (4)
     |                                               |                |      [25]{}: leap_second_record 0x3ba-0x3c5.7 (12)
0x3b0|                              00 00 00 00 55 93|          ....U.|        occur: "2015-07-01T00:00:25Z" (1435708825) 0x3ba-0x3c1.7 (8)
0x3c0|2d 99                                          |-.              |
0x3c0|      00 00 00 1a                              |  ....          |        corr: 26 0x3c2-0x3c5.7 (4)
     |                                               |                |      [26]{}: leap_second_record 0x3c6-0x3d1.7 (12)
0x3c0|                  00 00 00 00 58 68 46 9a      |      ....XhF.  |        occur: "2017-01-01T00:00:26Z" (1483228826) 0x3c6-0x3cd.7 (8)
0x3c0|                                          00 00|              ..|        corr: 27 0x3ce-0x3d1.7 (4)
0x3d0|00 1b                                          |..              |
     |                                               |                |    standard_wall_indicators[0:0]: 0x3d2-NA (0)
     |                                               |                |    ut_local_indicators[0:0]: 0x3d2-NA (0)
     |                                               |                |  footer{}: 0x3d2-0x3d3.7 (2)
0x3d0|      0a                                       |  .             |    nl1: 10 (valid) 0x3d2-0x3d2.7 (1)
     |                                               |                |    tz_string: "" 0x3d3-NA (0)
0x3d0|         0a|                                   |   .|           |    nl2: 10 (valid) 0x3d3-0x3d3.7 (1)
