$ fq -d tzif dv Marengo
     |00 01 02 03 04 05 06 07 08 09 0a 0b 0c 0d 0e 0f|0123456789abcdef|.{}: Marengo (tzif) 0x0-0x747.7 (1864)
     |                                               |                |  v1header{}: 0x0-0x2b.7 (44)
0x000|54 5a 69 66                                    |TZif            |    magic: 0x545a6966 (valid) 0x0-0x3.7 (4)
0x000|            32                                 |    2           |    ver: "2" (0x32) (valid) 0x4-0x4.7 (1)
0x000|               00 00 00 00 00 00 00 00 00 00 00|     ...........|    reserved: raw bits 0x5-0x13.7 (15)
0x010|00 00 00 00                                    |....            |
0x010|            00 00 00 08                        |    ....        |    isutcnt: 8 0x14-0x17.7 (4)
0x010|                        00 00 00 08            |        ....    |    isstdcnt: 8 0x18-0x1b.7 (4)
0x010|                                    00 00 00 1b|            ....|    leapcnt: 27 0x1c-0x1f.7 (4)
0x020|00 00 00 4b                                    |...K            |    timecnt: 75 0x20-0x23.7 (4)
0x020|            00 00 00 08                        |    ....        |    typecnt: 8 0x24-0x27.7 (4)
0x020|                        00 00 00 1c            |        ....    |    charcnt: 28 0x28-0x2b.7 (4)
     |                                               |                |  v1datablock{}: 0x2c-0x2d6.7 (683)
     |                                               |                |    transition_times[0:75]: 0x2c-0x157.7 (300)
0x020|                                    80 00 00 00|            ....|      [0]: "1901-12-13T20:45:52Z" (-2147483648) transition_time 0x2c-0x2f.7 (4)
0x030|9e a6 2c 80                                    |..,.            |      [1]: "1918-03-31T08:00:00Z" (-1633276800) transition_time 0x30-0x33.7 (4)
0x030|            9f ba f9 70                        |    ...p        |      [2]: "1918-10-27T07:00:00Z" (-1615136400) transition_time 0x34-0x37.7 (4)
0x030|                        a0 86 0e 80            |        ....    |      [3]: "1919-03-30T08:00:00Z" (-1601827200) transition_time 0x38-0x3b.7 (4)
0x030|                                    a1 9a db 70|            ...p|      [4]: "1919-10-26T07:00:00Z" (-1583686800) transition_time 0x3c-0x3f.7 (4)
0x040|cb 88 fe 80                                    |....            |      [5]: "1942-02-09T08:00:00Z" (-880214400) transition_time 0x40-0x43.7 (4)
0x040|            d2 23 f4 70                        |    .#.p        |      [6]: "1945-08-14T23:00:00Z" (-769395600) transition_time 0x44-0x47.7 (4)
0x040|                        d2 61 09 f0            |        .a..    |      [7]: "1945-09-30T07:00:00Z" (-765392400) transition_time 0x48-0x4b.7 (4)
0x040|                                    dc de 97 80|            ....|      [8]: "1951-04-29T08:00:00Z" (-589392000) transition_time 0x4c-0x4f.7 (4)
0x050|dd a9 90 70                                    |...p            |      [9]: "1951-09-30T07:00:00Z" (-576090000) transition_time 0x50-0x53.7 (4)
0x050|            e2 7e 3d 80                        |    .~=.        |      [10]: "1954-04-25T08:00:00Z" (-495043200) transition_time 0x54-0x57.7 (4)
0x050|                        e3 49 36 70            |        .I6p    |      [11]: "1954-09-26T07:00:00Z" (-481741200) transition_time 0x58-0x5b.7 (4)
0x050|                                    e4 5e 1f 80|            .^..|      [12]: "1955-04-24T08:00:00Z" (-463593600) transition_time 0x5c-0x5f.7 (4)
0x060|e5 29 18 70                                    |.).p            |      [13]: "1955-09-25T07:00:00Z" (-450291600) transition_time 0x60-0x63.7 (4)
0x060|            e6 47 3c 00                        |    .G<.        |      [14]: "1956-04-29T08:00:00Z" (-431539200) transition_time 0x64-0x67.7 (4)
0x060|                        e7 12 34 f0            |        ..4.    |      [15]: "1956-09-30T07:00:00Z" (-418237200) transition_time 0x68-0x6b.7 (4)
0x060|                                    e8 27 1e 00|            .'..|      [16]: "1957-04-28T08:00:00Z" (-400089600) transition_time 0x6c-0x6f.7 (4)
0x070|e8 f2 16 f0                                    |....            |      [17]: "1957-09-29T07:00:00Z" (-386787600) transition_time 0x70-0x73.7 (4)
0x070|            ea 07 00 00                        |    ....        |      [18]: "1958-04-27T08:00:00Z" (-368640000) transition_time 0x74-0x77.7 (4)
0x070|                        ea d1 f8 f0            |        ....    |      [19]: "1958-09-28T07:00:00Z" (-355338000) transition_time 0x78-0x7b.7 (4)
0x070|                                    eb e6 e2 00|            ....|      [20]: "1959-04-26T08:00:00Z" (-337190400) transition_time 0x7c-0x7f.7 (4)
0x080|ec b1 da f0                                    |....            |      [21]: "1959-09-27T07:00:00Z" (-323888400) transition_time 0x80-0x83.7 (4)
0x080|            ed c6 c4 00                        |    ....        |      [22]: "1960-04-24T08:00:00Z" (-305740800) transition_time 0x84-0x87.7 (4)
0x080|                        ee 91 bc f0            |        ....    |      [23]: "1960-09-25T07:00:00Z" (-292438800) transition_time 0x88-0x8b.7 (4)
0x080|                                    ef af e0 80|            ....|      [24]: "1961-04-30T08:00:00Z" (-273686400) transition_time 0x8c-0x8f.7 (4)
0x090|fe b8 1c f0                                    |....            |      [25]: "1969-04-27T07:00:00Z" (-21488400) transition_time 0x90-0x93.7 (4)
0x090|            ff a7 ff e0                        |    ....        |      [26]: "1969-10-26T06:00:00Z" (-5767200) transition_time 0x94-0x97.7 (4)
0x090|                        00 97 fe f0            |        ....    |      [27]: "1970-04-26T07:00:00Z" (9961200) transition_time 0x98-0x9b.7 (4)
0x090|                                    01 87 e1 e0|            ....|      [28]: "1970-10-25T06:00:00Z" (25682400) transition_time 0x9c-0x9f.7 (4)
0x0a0|02 77 e0 f0                                    |.w..            |      [29]: "1971-04-25T07:00:00Z" (41410800) transition_time 0xa0-0xa3.7 (4)
0x0a0|            03 70 fe 60                        |    .p.`        |      [30]: "1971-10-31T06:00:00Z" (57736800) transition_time 0xa4-0xa7.7 (4)
0x0a0|                        04 60 fd 70            |        .`.p    |      [31]: "1972-04-30T07:00:00Z" (73465200) transition_time 0xa8-0xab.7 (4)
0x0a0|                                    05 50 e0 61|            .P.a|      [32]: "1972-10-29T06:00:01Z" (89186401) transition_time 0xac-0xaf.7 (4)
0x0b0|06 40 df 72                                    |.@.r            |      [33]: "1973-04-29T07:00:02Z" (104914802) transition_time 0xb0-0xb3.7 (4)
0x0b0|            07 30 c2 62                        |    .0.b        |      [34]: "1973-10-28T06:00:02Z" (120636002) transition_time 0xb4-0xb7.7 (4)
0x0b0|                        07 8d 19 73            |        ...s    |      [35]: "1974-01-06T07:00:03Z" (126687603) transition_time 0xb8-0xbb.7 (4)
0x0b0|                                    09 10 b2 73|            ...s|      [36]: "1974-10-27T07:00:03Z" (152089203) transition_time 0xbc-0xbf.7 (4)
0x0c0|09 ad 94 f4                                    |....            |      [37]: "1975-02-23T07:00:04Z" (162370804) transition_time 0xc0-0xc3.7 (4)
0x0c0|            0a f0 86 64                        |    ...d        |      [38]: "1975-10-26T06:00:04Z" (183535204) transition_time 0xc4-0xc7.7 (4)
0x0c0|                        44 2f 76 87            |        D/v.    |      [39]: "2006-04-02T07:00:23Z" (1143961223) transition_time 0xc8-0xcb.7 (4)
0x0c0|                                    45 44 43 77|            EDCw|      [40]: "2006-10-29T06:00:23Z" (1162101623) transition_time 0xcc-0xcf.7 (4)
0x0d0|45 f3 a9 07                                    |E...            |      [41]: "2007-03-11T07:00:23Z" (1173596423) transition_time 0xd0-0xd3.7 (4)
0x0d0|            47 2d 5f f7                        |    G-_.        |      [42]: "2007-11-04T06:00:23Z" (1194156023) transition_time 0xd4-0xd7.7 (4)
0x0d0|                        47 d3 8b 07            |        G...    |      [43]: "2008-03-09T07:00:23Z" (1205046023) transition_time 0xd8-0xdb.7 (4)
0x0d0|                                    49 0d 41 f7|            I.A.|      [44]: "2008-11-02T06:00:23Z" (1225605623) transition_time 0xdc-0xdf.7 (4)
0x0e0|49 b3 6d 08                                    |I.m.            |      [45]: "2009-03-08T07:00:24Z" (1236495624) transition_time 0xe0-0xe3.7 (4)
0x0e0|            4a ed 23 f8                        |    J.#.        |      [46]: "2009-11-01T06:00:24Z" (1257055224) transition_time 0xe4-0xe7.7 (4)
0x0e0|                        4b 9c 89 88            |        K...    |      [47]: "2010-03-14T07:00:24Z" (1268550024) transition_time 0xe8-0xeb.7 (4)
0x0e0|                                    4c d6 40 78|            L.@x|      [48]: "2010-11-07T06:00:24Z" (1289109624) transition_time 0xec-0xef.7 (4)
0x0f0|4d 7c 6b 88                                    |M|k.            |      [49]: "2011-03-13T07:00:24Z" (1299999624) transition_time 0xf0-0xf3.7 (4)
0x0f0|            4e b6 22 78                        |    N."x        |      [50]: "2011-11-06T06:00:24Z" (1320559224) transition_time 0xf4-0xf7.7 (4)
0x0f0|                        4f 5c 4d 88            |        O\M.    |      [51]: "2012-03-11T07:00:24Z" (1331449224) transition_time 0xf8-0xfb.7 (4)
0x0f0|                                    50 96 04 79|            P..y|      [52]: "2012-11-04T06:00:25Z" (1352008825) transition_time 0xfc-0xff.7 (4)
0x100|51 3c 2f 89                                    |Q</.            |      [53]: "2013-03-10T07:00:25Z" (1362898825) transition_time 0x100-0x103.7 (4)
0x100|            52 75 e6 79                        |    Ru.y        |      [54]: "2013-11-03T06:00:25Z" (1383458425) transition_time 0x104-0x107.7 (4)
0x100|                        53 1c 11 89            |        S...    |      [55]: "2014-03-09T07:00:25Z" (1394348425) transition_time 0x108-0x10b.7 (4)
0x100|                                    54 55 c8 79|            TU.y|      [56]: "2014-11-02T06:00:25Z" (1414908025) transition_time 0x10c-0x10f.7 (4)
0x110|54 fb f3 89                                    |T...            |      [57]: "2015-03-08T07:00:25Z" (1425798025) transition_time 0x110-0x113.7 (4)
0x110|            56 35 aa 7a                        |    V5.z        |      [58]: "2015-11-01T06:00:26Z" (1446357626) transition_time 0x114-0x117.7 (4)
0x110|                        56 e5 10 0a            |        V...    |      [59]: "2016-03-13T07:00:26Z" (1457852426) transition_time 0x118-0x11b.7 (4)
0x110|                                    58 1e c6 fa|            X...|      [60]: "2016-11-06T06:00:26Z" (1478412026) transition_time 0x11c-0x11f.7 (4)
0x120|58 c4 f2 0b                                    |X...            |      [61]: "2017-03-12T07:00:27Z" (1489302027) transition_time 0x120-0x123.7 (4)
0x120|            59 fe a8 fb                        |    Y...        |      [62]: "2017-11-05T06:00:27Z" (1509861627) transition_time 0x124-0x127.7 (4)
0x120|                        5a a4 d4 0b            |        Z...    |      [63]: "2018-03-11T07:00:27Z" (1520751627) transition_time 0x128-0x12b.7 (4)
0x120|                                    5b de 8a fb|            [...|      [64]: "2018-11-04T06:00:27Z" (1541311227) transition_time 0x12c-0x12f.7 (4)
0x130|5c 84 b6 0b                                    |\...            |      [65]: "2019-03-10T07:00:27Z" (1552201227) transition_time 0x130-0x133.7 (4)
0x130|            5d be 6c fb                        |    ].l.        |      [66]: "2019-11-03T06:00:27Z" (1572760827) transition_time 0x134-0x137.7 (4)
0x130|                        5e 64 98 0b            |        ^d..    |      [67]: "2020-03-08T07:00:27Z" (1583650827) transition_time 0x138-0x13b.7 (4)
0x130|                                    5f 9e 4e fb|            _.N.|      [68]: "2020-11-01T06:00:27Z" (1604210427) transition_time 0x13c-0x13f.7 (4)
0x140|60 4d b4 8b                                    |`M..            |      [69]: "2021-03-14T07:00:27Z" (1615705227) transition_time 0x140-0x143.7 (4)
0x140|            61 87 6b 7b                        |    a.k{        |      [70]: "2021-11-07T06:00:27Z" (1636264827) transition_time 0x144-0x147.7 (4)
0x140|                        62 2d 96 8b            |        b-..    |      [71]: "2022-03-13T07:00:27Z" (1647154827) transition_time 0x148-0x14b.7 (4)
0x140|                                    63 67 4d 7b|            cgM{|      [72]: "2022-11-06T06:00:27Z" (1667714427) transition_time 0x14c-0x14f.7 (4)
0x150|64 0d 78 8b                                    |d.x.            |      [73]: "2023-03-12T07:00:27Z" (1678604427) transition_time 0x150-0x153.7 (4)
0x150|            64 9b 78 1b                        |    d.x.        |      [74]: "2023-06-28T00:00:27Z" (1687910427) transition_time 0x154-0x157.7 (4)
     |                                               |                |    transition_types[0:75]: 0x158-0x1a2.7 (75)
0x150|                        05                     |        .       |      [0]: 5 transition_type 0x158-0x158.7 (1)
0x150|                           01                  |         .      |      [1]: 1 transition_type 0x159-0x159.7 (1)
0x150|                              02               |          .     |      [2]: 2 transition_type 0x15a-0x15a.7 (1)
0x150|                                 01            |           .    |      [3]: 1 transition_type 0x15b-0x15b.7 (1)
0x150|                                    02         |            .   |      [4]: 2 transition_type 0x15c-0x15c.7 (1)
0x150|                                       03      |             .  |      [5]: 3 transition_type 0x15d-0x15d.7 (1)
0x150|                                          04   |              . |      [6]: 4 transition_type 0x15e-0x15e.7 (1)
0x150|                                             02|               .|      [7]: 2 transition_type 0x15f-0x15f.7 (1)
0x160|01                                             |.               |      [8]: 1 transition_type 0x160-0x160.7 (1)
0x160|   02                                          | .              |      [9]: 2 transition_type 0x161-0x161.7 (1)
0x160|      01                                       |  .             |      [10]: 1 transition_type 0x162-0x162.7 (1)
0x160|         02                                    |   .            |      [11]: 2 transition_type 0x163-0x163.7 (1)
0x160|            01                                 |    .           |      [12]: 1 transition_type 0x164-0x164.7 (1)
0x160|               02                              |     .          |      [13]: 2 transition_type 0x165-0x165.7 (1)
0x160|                  01                           |      .         |      [14]: 1 transition_type 0x166-0x166.7 (1)
0x160|                     02                        |       .        |      [15]: 2 transition_type 0x167-0x167.7 (1)
0x160|                        01                     |        .       |      [16]: 1 transition_type 0x168-0x168.7 (1)
0x160|                           02                  |         .      |      [17]: 2 transition_type 0x169-0x169.7 (1)
0x160|                              01               |          .     |      [18]: 1 transition_type 0x16a-0x16a.7 (1)
0x160|                                 02            |           .    |      [19]: 2 transition_type 0x16b-0x16b.7 (1)
0x160|                                    01         |            .   |      [20]: 1 transition_type 0x16c-0x16c.7 (1)
0x160|                                       02      |             .  |      [21]: 2 transition_type 0x16d-0x16d.7 (1)
0x160|                                          01   |              . |      [22]: 1 transition_type 0x16e-0x16e.7 (1)
0x160|                                             02|               .|      [23]: 2 transition_type 0x16f-0x16f.7 (1)
0x170|06                                             |.               |      [24]: 6 transition_type 0x170-0x170.7 (1)
0x170|   07                                          | .              |      [25]: 7 transition_type 0x171-0x171.7 (1)
0x170|      06                                       |  .             |      [26]: 6 transition_type 0x172-0x172.7 (1)
0x170|         07                                    |   .            |      [27]: 7 transition_type 0x173-0x173.7 (1)
0x170|            06                                 |    .           |      [28]: 6 transition_type 0x174-0x174.7 (1)
0x170|               07                              |     .          |      [29]: 7 transition_type 0x175-0x175.7 (1)
0x170|                  06                           |      .         |      [30]: 6 transition_type 0x176-0x176.7 (1)
0x170|                     07                        |       .        |      [31]: 7 transition_type 0x177-0x177.7 (1)
0x170|                        06                     |        .       |      [32]: 6 transition_type 0x178-0x178.7 (1)
0x170|                           07                  |         .      |      [33]: 7 transition_type 0x179-0x179.7 (1)
0x170|                              06               |          .     |      [34]: 6 transition_type 0x17a-0x17a.7 (1)
0x170|                                 01            |           .    |      [35]: 1 transition_type 0x17b-0x17b.7 (1)
0x170|                                    06         |            .   |      [36]: 6 transition_type 0x17c-0x17c.7 (1)
0x170|                                       07      |             .  |      [37]: 7 transition_type 0x17d-0x17d.7 (1)
0x170|                                          06   |              . |      [38]: 6 transition_type 0x17e-0x17e.7 (1)
0x170|                                             07|               .|      [39]: 7 transition_type 0x17f-0x17f.7 (1)
0x180|06                                             |.               |      [40]: 6 transition_type 0x180-0x180.7 (1)
0x180|   07                                          | .              |      [41]: 7 transition_type 0x181-0x181.7 (1)
0x180|      06                                       |  .             |      [42]: 6 transition_type 0x182-0x182.7 (1)
0x180|         07                                    |   .            |      [43]: 7 transition_type 0x183-0x183.7 (1)
0x180|            06                                 |    .           |      [44]: 6 transition_type 0x184-0x184.7 (1)
0x180|               07                              |     .          |      [45]: 7 transition_type 0x185-0x185.7 (1)
0x180|                  06                           |      .         |      [46]: 6 transition_type 0x186-0x186.7 (1)
0x180|                     07                        |       .        |      [47]: 7 transition_type 0x187-0x187.7 (1)
0x180|                        06                     |        .       |      [48]: 6 transition_type 0x188-0x188.7 (1)
0x180|                           07                  |         .      |      [49]: 7 transition_type 0x189-0x189.7 (1)
0x180|                              06               |          .     |      [50]: 6 transition_type 0x18a-0x18a.7 (1)
0x180|                                 07            |           .    |      [51]: 7 transition_type 0x18b-0x18b.7 (1)
0x180|                                    06         |            .   |      [52]: 6 transition_type 0x18c-0x18c.7 (1)
0x180|                                       07      |             .  |      [53]: 7 transition_type 0x18d-0x18d.7 (1)
0x180|                                          06   |              . |      [54]: 6 transition_type 0x18e-0x18e.7 (1)
0x180|                                             07|               .|      [55]: 7 transition_type 0x18f-0x18f.7 (1)
0x190|06                                             |.               |      [56]: 6 transition_type 0x190-0x190.7 (1)
0x190|   07                                          | .              |      [57]: 7 transition_type 0x191-0x191.7 (1)
0x190|      06                                       |  .             |      [58]: 6 transition_type 0x192-0x192.7 (1)
0x190|         07                                    |   .            |      [59]: 7 transition_type 0x193-0x193.7 (1)
0x190|            06                                 |    .           |      [60]: 6 transition_type 0x194-0x194.7 (1)
0x190|               07                              |     .          |      [61]: 7 transition_type 0x195-0x195.7 (1)
0x190|                  06                           |      .         |      [62]: 6 transition_type 0x196-0x196.7 (1)
0x190|                     07                        |       .        |      [63]: 7 transition_type 0x197-0x197.7 (1)
0x190|                        06                     |        .       |      [64]: 6 transition_type 0x198-0x198.7 (1)
0x190|                           07                  |         .      |      [65]: 7 transition_type 0x199-0x199.7 (1)
0x190|                              06               |          .     |      [66]: 6 transition_type 0x19a-0x19a.7 (1)
0x190|                                 07            |           .    |      [67]: 7 transition_type 0x19b-0x19b.7 (1)
0x190|                                    06         |            .   |      [68]: 6 transition_type 0x19c-0x19c.7 (1)
0x190|                                       07      |             .  |      [69]: 7 transition_type 0x19d-0x19d.7 (1)
0x190|                                          06   |              . |      [70]: 6 transition_type 0x19e-0x19e.7 (1)
0x190|                                             07|               .|      [71]: 7 transition_type 0x19f-0x19f.7 (1)
0x1a0|06                                             |.               |      [72]: 6 transition_type 0x1a0-0x1a0.7 (1)
0x1a0|   07                                          | .              |      [73]: 7 transition_type 0x1a1-0x1a1.7 (1)
0x1a0|      07                                       |  .             |      [74]: 7 transition_type 0x1a2-0x1a2.7 (1)
     |                                               |                |    local_time_type_records[0:8]: 0x1a3-0x1d2.7 (48)
     |                                               |                |      [0]{}: local_time_type 0x1a3-0x1a8.7 (6)
0x1a0|         ff ff af 0d                           |   ....         |        utoff: -20723 (valid) 0x1a3-0x1a6.7 (4)
0x1a0|                     00                        |       .        |        dst: 0 (valid) 0x1a7-0x1a7.7 (1)
0x1a0|                        00                     |        .       |        idx: 0 (valid) 0x1a8-0x1a8.7 (1)
     |                                               |                |      [1]{}: local_time_type 0x1a9-0x1ae.7 (6)
0x1a0|                           ff ff b9 b0         |         ....   |        utoff: -18000 (valid) 0x1a9-0x1ac.7 (4)
0x1a0|                                       01      |             .  |        dst: 1 (valid) 0x1ad-0x1ad.7 (1)
0x1a0|                                          04   |              . |        idx: 4 (valid) 0x1ae-0x1ae.7 (1)
     |                                               |                |      [2]{}: local_time_type 0x1af-0x1b4.7 (6)
0x1a0|                                             ff|               .|        utoff: -21600 (valid) 0x1af-0x1b2.7 (4)
0x1b0|ff ab a0                                       |...             |
0x1b0|         00                                    |   .            |        dst: 0 (valid) 0x1b3-0x1b3.7 (1)
0x1b0|            08                                 |    .           |        idx: 8 (valid) 0x1b4-0x1b4.7 (1)
     |                                               |                |      [3]{}: local_time_type 0x1b5-0x1ba.7 (6)
0x1b0|               ff ff b9 b0                     |     ....       |        utoff: -18000 (valid) 0x1b5-0x1b8.7 (4)
0x1b0|                           01                  |         .      |        dst: 1 (valid) 0x1b9-0x1b9.7 (1)
0x1b0|                              0c               |          .     |        idx: 12 (valid) 0x1ba-0x1ba.7 (1)
     |                                               |                |      [4]{}: local_time_type 0x1bb-0x1c0.7 (6)
0x1b0|                                 ff ff b9 b0   |           .... |        utoff: -18000 (valid) 0x1bb-0x1be.7 (4)
0x1b0|                                             01|               .|        dst: 1 (valid) 0x1bf-0x1bf.7 (1)
0x1c0|10                                             |.               |        idx: 16 (valid) 0x1c0-0x1c0.7 (1)
     |                                               |                |      [5]{}: local_time_type 0x1c1-0x1c6.7 (6)
0x1c0|   ff ff ab a0                                 | ....           |        utoff: -21600 (valid) 0x1c1-0x1c4.7 (4)
0x1c0|               00                              |     .          |        dst: 0 (valid) 0x1c5-0x1c5.7 (1)
0x1c0|                  08                           |      .         |        idx: 8 (valid) 0x1c6-0x1c6.7 (1)
     |                                               |                |      [6]{}: local_time_type 0x1c7-0x1cc.7 (6)
0x1c0|                     ff ff b9 b0               |       ....     |        utoff: -18000 (valid) 0x1c7-0x1ca.7 (4)
0x1c0|                                 00            |           .    |        dst: 0 (valid) 0x1cb-0x1cb.7 (1)
0x1c0|                                    14         |            .   |        idx: 20 (valid) 0x1cc-0x1cc.7 (1)
     |                                               |                |      [7]{}: local_time_type 0x1cd-0x1d2.7 (6)
0x1c0|                                       ff ff c7|             ...|        utoff: -14400 (valid) 0x1cd-0x1d0.7 (4)
0x1d0|c0                                             |.               |
0x1d0|   01                                          | .              |        dst: 1 (valid) 0x1d1-0x1d1.7 (1)
0x1d0|      18                                       |  .             |        idx: 24 (valid) 0x1d2-0x1d2.7 (1)
     |                                               |                |    time_zone_designations[0:7]: 0x1d3-0x1ee.7 (28)
0x1d0|         4c 4d 54 00                           |   LMT.         |      [0]: "LMT" time_zone_designation 0x1d3-0x1d6.7 (4)
0x1d0|                     43 44 54 00               |       CDT.     |      [1]: "CDT" time_zone_designation 0x1d7-0x1da.7 (4)
0x1d0|                                 43 53 54 00   |           CST. |      [2]: "CST" time_zone_designation 0x1db-0x1de.7 (4)
0x1d0|                                             43|               C|      [3]: "CWT" time_zone_designation 0x1df-0x1e2.7 (4)
0x1e0|57 54 00                                       |WT.             |
0x1e0|         43 50 54 00                           |   CPT.         |      [4]: "CPT" time_zone_designation 0x1e3-0x1e6.7 (4)
0x1e0|                     45 53 54 00               |       EST.     |      [5]: "EST" time_zone_designation 0x1e7-0x1ea.7 (4)
0x1e0|                                 45 44 54 00   |           EDT. |      [6]: "EDT" time_zone_designation 0x1eb-0x1ee.7 (4)
     |                                               |                |    leap_second_records[0:27]: 0x1ef-0x2c6.7 (216)
     |                                               |                |      [0]{}: leap_second_record 0x1ef-0x1f6.7 (8)
0x1e0|                                             04|               .|        occur: "1972-07-01T00:00:00Z" (78796800) 0x1ef-0x1f2.7 (4)
0x1f0|b2 58 00                                       |.X.             |
0x1f0|         00 00 00 01                           |   ....         |        corr: 1 0x1f3-0x1f6.7 (4)
     |                                               |                |      [1]{}: leap_second_record 0x1f7-0x1fe.7 (8)
0x1f0|                     05 a4 ec 01               |       ....     |        occur: "1973-01-01T00:00:01Z" (94694401) 0x1f7-0x1fa.7 (4)
0x1f0|                                 00 00 00 02   |           .... |        corr: 2 0x1fb-0x1fe.7 (4)
     |                                               |                |      [2]{}: leap_second_record 0x1ff-0x206.7 (8)
0x1f0|                                             07|               .|        occur: "1974-01-01T00:00:02Z" (126230402) 0x1ff-0x202.7 (4)
0x200|86 1f 82                                       |...             |
0x200|         00 00 00 03                           |   ....         |        corr: 3 0x203-0x206.7 (4)
     |                                               |                |      [3]{}: leap_second_record 0x207-0x20e.7 (8)
0x200|                     09 67 53 03               |       .gS.     |        occur: "1975-01-01T00:00:03Z" (157766403) 0x207-0x20a.7 (4)
0x200|                                 00 00 00 04   |           .... |        corr: 4 0x20b-0x20e.7 (4)
     |                                               |                |      [4]{}: leap_second_record 0x20f-0x216.7 (8)
0x200|                                             0b|               .|        occur: "1976-01-01T00:00:04Z" (189302404) 0x20f-0x212.7 (4)
0x210|48 86 84                                       |H..             |
0x210|         00 00 00 05                           |   ....         |        corr: 5 0x213-0x216.7 (4)
     |                                               |                |      [5]{}: leap_second_record 0x217-0x21e.7 (8)
0x210|                     0d 2b 0b 85               |       .+..     |        occur: "1977-01-01T00:00:05Z" (220924805) 0x217-0x21a.7 (4)
0x210|                                 00 00 00 06   |           .... |        corr: 6 0x21b-0x21e.7 (4)
     |                                               |                |      [6]{}: leap_second_record 0x21f-0x226.7 (8)
0x210|                                             0f|               .|        occur: "1978-01-01T00:00:06Z" (252460806) 0x21f-0x222.7 (4)
0x220|0c 3f 06                                       |.?.             |
0x220|         00 00 00 07                           |   ....         |        corr: 7 0x223-0x226.7 (4)
     |                                               |                |      [7]{}: leap_second_record 0x227-0x22e.7 (8)
0x220|                     10 ed 72 87               |       ..r.     |        occur: "1979-01-01T00:00:07Z" (283996807) 0x227-0x22a.7 (4)
0x220|                                 00 00 00 08   |           .... |        corr: 8 0x22b-0x22e.7 (4)
     |                                               |                |      [8]{}: leap_second_record 0x22f-0x236.7 (8)
0x220|                                             12|               .|        occur: "1980-01-01T00:00:08Z" (315532808) 0x22f-0x232.7 (4)
0x230|ce a6 08                                       |...             |
0x230|         00 00 00 09                           |   ....         |        corr: 9 0x233-0x236.7 (4)
     |                                               |                |      [9]{}: leap_second_record 0x237-0x23e.7 (8)
0x230|                     15 9f ca 89               |       ....     |        occur: "1981-07-01T00:00:09Z" (362793609) 0x237-0x23a.7 (4)
0x230|                                 00 00 00 0a   |           .... |        corr: 10 0x23b-0x23e.7 (4)
     |                                               |                |      [10]{}: leap_second_record 0x23f-0x246.7 (8)
0x230|                                             17|               .|        occur: "1982-07-01T00:00:10Z" (394329610) 0x23f-0x242.7 (4)
0x240|80 fe 0a                                       |...             |
0x240|         00 00 00 0b                           |   ....         |        corr: 11 0x243-0x246.7 (4)
     |                                               |                |      [11]{}: leap_second_record 0x247-0x24e.7 (8)
0x240|                     19 62 31 8b               |       .b1.     |        occur: "1983-07-01T00:00:11Z" (425865611) 0x247-0x24a.7 (4)
0x240|                                 00 00 00 0c   |           .... |        corr: 12 0x24b-0x24e.7 (4)
     |                                               |                |      [12]{}: leap_second_record 0x24f-0x256.7 (8)
0x240|                                             1d|               .|        occur: "1985-07-01T00:00:12Z" (489024012) 0x24f-0x252.7 (4)
0x250|25 ea 0c                                       |%..             |
0x250|         00 00 00 0d                           |   ....         |        corr: 13 0x253-0x256.7 (4)
     |                                               |                |      [13]{}: leap_second_record 0x257-0x25e.7 (8)
0x250|                     21 da e5 0d               |       !...     |        occur: "1988-01-01T00:00:13Z" (567993613) 0x257-0x25a.7 (4)
0x250|                                 00 00 00 0e   |           .... |        corr: 14 0x25b-0x25e.7 (4)
     |                                               |                |      [14]{}: leap_second_record 0x25f-0x266.7 (8)
0x250|                                             25|               %|        occur: "1990-01-01T00:00:14Z" (631152014) 0x25f-0x262.7 (4)
0x260|9e 9d 8e                                       |...             |
0x260|         00 00 00 0f                           |   ....         |        corr: 15 0x263-0x266.7 (4)
     |                                               |                |      [15]{}: leap_second_record 0x267-0x26e.7 (8)
0x260|                     27 7f d1 0f               |       '...     |        occur: "1991-01-01T00:00:15Z" (662688015) 0x267-0x26a.7 (4)
0x260|                                 00 00 00 10   |           .... |        corr: 16 0x26b-0x26e.7 (4)
     |                                               |                |      [16]{}: leap_second_record 0x26f-0x276.7 (8)
0x260|                                             2a|               *|        occur: "1992-07-01T00:00:16Z" (709948816) 0x26f-0x272.7 (4)
0x270|50 f5 90                                       |P..             |
0x270|         00 00 00 11                           |   ....         |        corr: 17 0x273-0x276.7 (4)
     |                                               |                |      [17]{}: leap_second_record 0x277-0x27e.7 (8)
0x270|                     2c 32 29 11               |       ,2).     |        occur: "1993-07-01T00:00:17Z" (741484817) 0x277-0x27a.7 (4)
0x270|                                 00 00 00 12   |           .... |        corr: 18 0x27b-0x27e.7 (4)
     |                                               |                |      [18]{}: leap_second_record 0x27f-0x286.7 (8)
0x270|                                             2e|               .|        occur: "1994-07-01T00:00:18Z" (773020818) 0x27f-0x282.7 (4)
0x280|13 5c 92                                       |.\.             |
0x280|         00 00 00 13                           |   ....         |        corr: 19 0x283-0x286.7 (4)
     |                                               |                |      [19]{}: leap_second_record 0x287-0x28e.7 (8)
0x280|                     30 e7 24 13               |       0.$.     |        occur: "1996-01-01T00:00:19Z" (820454419) 0x287-0x28a.7 (4)
0x280|                                 00 00 00 14   |           .... |        corr: 20 0x28b-0x28e.7 (4)
     |                                               |                |      [20]{}: leap_second_record 0x28f-0x296.7 (8)
0x280|                                             33|               3|        occur: "1997-07-01T00:00:20Z" (867715220) 0x28f-0x292.7 (4)
0x290|b8 48 94                                       |.H.             |
0x290|         00 00 00 15                           |   ....         |        corr: 21 0x293-0x296.7 (4)
     |                                               |                |      [21]{}: leap_second_record 0x297-0x29e.7 (8)
0x290|                     36 8c 10 15               |       6...     |        occur: "1999-01-01T00:00:21Z" (915148821) 0x297-0x29a.7 (4)
0x290|                                 00 00 00 16   |           .... |        corr: 22 0x29b-0x29e.7 (4)
     |                                               |                |      [22]{}: leap_second_record 0x29f-0x2a6.7 (8)
0x290|                                             43|               C|        occur: "2006-01-01T00:00:22Z" (1136073622) 0x29f-0x2a2.7 (4)
0x2a0|b7 1b 96                                       |...             |
0x2a0|         00 00 00 17                           |   ....         |        corr: 23 0x2a3-0x2a6.7 (4)
     |                                               |                |      [23]{}: leap_second_record 0x2a7-0x2ae.7 (8)
0x2a0|                     49 5c 07 97               |       I\..     |        occur: "2009-01-01T00:00:23Z" (1230768023) 0x2a7-0x2aa.7 (4)
0x2a0|                                 00 00 00 18   |           .... |        corr: 24 0x2ab-0x2ae.7 (4)
     |                                               |                |      [24]{}: leap_second_record 0x2af-0x2b6.7 (8)
0x2a0|                                             4f|               O|        occur: "2012-07-01T00:00:24Z" (1341100824) 0x2af-0x2b2.7 (4)
0x2b0|ef 93 18                                       |...             |
0x2b0|         00 00 00 19                           |   ....         |        corr: 25 0x2b3-0x2b6.7 (4)
     |                                               |                |      [25]{}: leap_second_record 0x2b7-0x2be.7 (8)
0x2b0|                     55 93 2d 99               |       U.-.     |        occur: "2015-07-01T00:00:25Z" (1435708825) 0x2b7-0x2ba.7 (4)
0x2b0|                                 00 00 00 1a   |           .... |        corr: 26 0x2bb-0x2be.7 (4)
     |                                               |                |      [26]{}: leap_second_record 0x2bf-0x2c6.7 (8)
0x2b0|                                             58|               X|        occur: "2017-01-01T00:00:26Z" (1483228826) 0x2bf-0x2c2.7 (4)
0x2c0|68 46 9a                                       |hF.             |
0x2c0|         00 00 00 1b                           |   ....         |        corr: 27 0x2c3-0x2c6.7 (4)
     |                                               |                |    standard_wall_indicators[0:8]: 0x2c7-0x2ce.7 (8)
0x2c0|                     00                        |       .        |      [0]: 0 standard_wall_indicator (valid) 0x2c7-0x2c7.7 (1)
0x2c0|                        00                     |        .       |      [1]: 0 standard_wall_indicator (valid) 0x2c8-0x2c8.7 (1)
0x2c0|                           00                  |         .      |      [2]: 0 standard_wall_indicator (valid) 0x2c9-0x2c9.7 (1)
0x2c0|                              00               |          .     |      [3]: 0 standard_wall_indicator (valid) 0x2ca-0x2ca.7 (1)
0x2c0|                                 01            |           .    |      [4]: 1 standard_wall_indicator (valid) 0x2cb-0x2cb.7 (1)
0x2c0|                                    01         |            .   |      [5]: 1 standard_wall_indicator (valid) 0x2cc-0x2cc.7 (1)
0x2c0|                                       00      |             .  |      [6]: 0 standard_wall_indicator (valid) 0x2cd-0x2cd.7 (1)
0x2c0|                                          00   |              . |      [7]: 0 standard_wall_indicator (valid) 0x2ce-0x2ce.7 (1)
     |                                               |                |    ut_local_indicators[0:8]: 0x2cf-0x2d6.7 (8)
0x2c0|                                             00|               .|      [0]: 0 ut_local_indicator (valid) 0x2cf-0x2cf.7 (1)
0x2d0|00                                             |.               |      [1]: 0 ut_local_indicator (valid) 0x2d0-0x2d0.7 (1)
0x2d0|   00                                          | .              |      [2]: 0 ut_local_indicator (valid) 0x2d1-0x2d1.7 (1)
0x2d0|      00                                       |  .             |      [3]: 0 ut_local_indicator (valid) 0x2d2-0x2d2.7 (1)
0x2d0|         01                                    |   .            |      [4]: 1 ut_local_indicator (valid) 0x2d3-0x2d3.7 (1)
0x2d0|            01                                 |    .           |      [5]: 1 ut_local_indicator (valid) 0x2d4-0x2d4.7 (1)
0x2d0|               00                              |     .          |      [6]: 0 ut_local_indicator (valid) 0x2d5-0x2d5.7 (1)
0x2d0|                  00                           |      .         |      [7]: 0 ut_local_indicator (valid) 0x2d6-0x2d6.7 (1)
     |                                               |                |  v2plusheader{}: 0x2d7-0x302.7 (44)
0x2d0|                     54 5a 69 66               |       TZif     |    magic: 0x545a6966 (valid) 0x2d7-0x2da.7 (4)
0x2d0|                                 32            |           2    |    ver: "2" (0x32) (valid) 0x2db-0x2db.7 (1)
0x2d0|                                    00 00 00 00|            ....|    reserved: raw bits 0x2dc-0x2ea.7 (15)
0x2e0|00 00 00 00 00 00 00 00 00 00 00               |...........     |
0x2e0|                                 00 00 00 08   |           .... |    isutcnt: 8 0x2eb-0x2ee.7 (4)
0x2e0|                                             00|               .|    isstdcnt: 8 0x2ef-0x2f2.7 (4)
0x2f0|00 00 08                                       |...             |
0x2f0|         00 00 00 1b                           |   ....         |    leapcnt: 27 0x2f3-0x2f6.7 (4)
0x2f0|                     00 00 00 4b               |       ...K     |    timecnt: 75 0x2f7-0x2fa.7 (4)
0x2f0|                                 00 00 00 08   |           .... |    typecnt: 8 0x2fb-0x2fe.7 (4)
0x2f0|                                             00|               .|    charcnt: 28 0x2ff-0x302.7 (4)
0x300|00 00 1c                                       |...             |
     |                                               |                |  v2plusdatablock{}: 0x303-0x745.7 (1091)
     |                                               |                |    transition_times[0:75]: 0x303-0x55a.7 (600)
0x300|         ff ff ff ff 5e 03 fe a0               |   ....^...     |      [0]: "1883-11-18T18:00:00Z" (-2717647200) transition_time 0x303-0x30a.7 (8)
0x300|                                 ff ff ff ff 9e|           .....|      [1]: "1918-03-31T08:00:00Z" (-1633276800) transition_time 0x30b-0x312.7 (8)
0x310|a6 2c 80                                       |.,.             |
0x310|         ff ff ff ff 9f ba f9 70               |   .......p     |      [2]: "1918-10-27T07:00:00Z" (-1615136400) transition_time 0x313-0x31a.7 (8)
0x310|                                 ff ff ff ff a0|           .....|      [3]: "1919-03-30T08:00:00Z" (-1601827200) transition_time 0x31b-0x322.7 (8)
0x320|86 0e 80                                       |...             |
0x320|         ff ff ff ff a1 9a db 70               |   .......p     |      [4]: "1919-10-26T07:00:00Z" (-1583686800) transition_time 0x323-0x32a.7 (8)
0x320|                                 ff ff ff ff cb|           .....|      [5]: "1942-02-09T08:00:00Z" (-880214400) transition_time 0x32b-0x332.7 (8)
0x330|88 fe 80                                       |...             |
0x330|         ff ff ff ff d2 23 f4 70               |   .....#.p     |      [6]: "1945-08-14T23:00:00Z" (-769395600) transition_time 0x333-0x33a.7 (8)
0x330|                                 ff ff ff ff d2|           .....|      [7]: "1945-09-30T07:00:00Z" (-765392400) transition_time 0x33b-0x342.7 (8)
0x340|61 09 f0                                       |a..             |
0x340|         ff ff ff ff dc de 97 80               |   ........     |      [8]: "1951-04-29T08:00:00Z" (-589392000) transition_time 0x343-0x34a.7 (8)
0x340|                                 ff ff ff ff dd|           .....|      [9]: "1951-09-30T07:00:00Z" (-576090000) transition_time 0x34b-0x352.7 (8)
0x350|a9 90 70                                       |..p             |
0x350|         ff ff ff ff e2 7e 3d 80               |   .....~=.     |      [10]: "1954-04-25T08:00:00Z" (-495043200) transition_time 0x353-0x35a.7 (8)
0x350|                                 ff ff ff ff e3|           .....|      [11]: "1954-09-26T07:00:00Z" (-481741200) transition_time 0x35b-0x362.7 (8)
0x360|49 36 70                                       |I6p             |
0x360|         ff ff ff ff e4 5e 1f 80               |   .....^..     |      [12]: "1955-04-24T08:00:00Z" (-463593600) transition_time 0x363-0x36a.7 (8)
0x360|                                 ff ff ff ff e5|           .....|      [13]: "1955-09-25T07:00:00Z" (-450291600) transition_time 0x36b-0x372.7 (8)
0x370|29 18 70                                       |).p             |
0x370|         ff ff ff ff e6 47 3c 00               |   .....G<.     |      [14]: "1956-04-29T08:00:00Z" (-431539200) transition_time 0x373-0x37a.7 (8)
0x370|                                 ff ff ff ff e7|           .....|      [15]: "1956-09-30T07:00:00Z" (-418237200) transition_time 0x37b-0x382.7 (8)
0x380|12 34 f0                                       |.4.             |
0x380|         ff ff ff ff e8 27 1e 00               |   .....'..     |      [16]: "1957-04-28T08:00:00Z" (-400089600) transition_time 0x383-0x38a.7 (8)
0x380|                                 ff ff ff ff e8|           .....|      [17]: "1957-09-29T07:00:00Z" (-386787600) transition_time 0x38b-0x392.7 (8)
0x390|f2 16 f0                                       |...             |
0x390|         ff ff ff ff ea 07 00 00               |   ........     |      [18]: "1958-04-27T08:00:00Z" (-368640000) transition_time 0x393-0x39a.7 (8)
0x390|                                 ff ff ff ff ea|           .....|      [19]: "1958-09-28T07:00:00Z" (-355338000) transition_time 0x39b-0x3a2.7 (8)
0x3a0|d1 f8 f0                                       |...             |
0x3a0|         ff ff ff ff eb e6 e2 00               |   ........     |      [20]: "1959-04-26T08:00:00Z" (-337190400) transition_time 0x3a3-0x3aa.7 (8)
0x3a0|                                 ff ff ff ff ec|           .....|      [21]: "1959-09-27T07:00:00Z" (-323888400) transition_time 0x3ab-0x3b2.7 (8)
0x3b0|b1 da f0                                       |...             |
0x3b0|         ff ff ff ff ed c6 c4 00               |   ........     |      [22]: "1960-04-24T08:00:00Z" (-305740800) transition_time 0x3b3-0x3ba.7 (8)
0x3b0|                                 ff ff ff ff ee|           .....|      [23]: "1960-09-25T07:00:00Z" (-292438800) transition_time 0x3bb-0x3c2.7 (8)
0x3c0|91 bc f0                                       |...             |
0x3c0|         ff ff ff ff ef af e0 80               |   ........     |      [24]: "1961-04-30T08:00:00Z" (-273686400) transition_time 0x3c3-0x3ca.7 (8)
0x3c0|                                 ff ff ff ff fe|           .....|      [25]: "1969-04-27T07:00:00Z" (-21488400) transition_time 0x3cb-0x3d2.7 (8)
0x3d0|b8 1c f0                                       |...             |
0x3d0|         ff ff ff ff ff a7 ff e0               |   ........     |      [26]: "1969-10-26T06:00:00Z" (-5767200) transition_time 0x3d3-0x3da.7 (8)
0x3d0|                                 00 00 00 00 00|           .....|      [27]: "1970-04-26T07:00:00Z" (9961200) transition_time 0x3db-0x3e2.7 (8)
0x3e0|97 fe f0                                       |...             |
0x3e0|         00 00 00 00 01 87 e1 e0               |   ........     |      [28]: "1970-10-25T06:00:00Z" (25682400) transition_time 0x3e3-0x3ea.7 (8)
0x3e0|                                 00 00 00 00 02|           .....|      [29]: "1971-04-25T07:00:00Z" (41410800) transition_time 0x3eb-0x3f2.7 (8)
0x3f0|77 e0 f0                                       |w..             |
0x3f0|         00 00 00 00 03 70 fe 60               |   .....p.`     |      [30]: "1971-10-31T06:00:00Z" (57736800) transition_time 0x3f3-0x3fa.7 (8)
0x3f0|                                 00 00 00 00 04|           .....|      [31]: "1972-04-30T07:00:00Z" (73465200) transition_time 0x3fb-0x402.7 (8)
0x400|60 fd 70                                       |`.p             |
0x400|         00 00 00 00 05 50 e0 61               |   .....P.a     |      [32]: "1972-10-29T06:00:01Z" (89186401) transition_time 0x403-0x40a.7 (8)
0x400|                                 00 00 00 00 06|           .....|      [33]: "1973-04-29T07:00:02Z" (104914802) transition_time 0x40b-0x412.7 (8)
0x410|40 df 72                                       |@.r             |
0x410|         00 00 00 00 07 30 c2 62               |   .....0.b     |      [34]: "1973-10-28T06:00:02Z" (120636002) transition_time 0x413-0x41a.7 (8)
0x410|                                 00 00 00 00 07|           .....|      [35]: "1974-01-06T07:00:03Z" (126687603) transition_time 0x41b-0x422.7 (8)
0x420|8d 19 73                                       |..s             |
0x420|         00 00 00 00 09 10 b2 73               |   .......s     |      [36]: "1974-10-27T07:00:03Z" (152089203) transition_time 0x423-0x42a.7 (8)
0x420|                                 00 00 00 00 09|           .....|      [37]: "1975-02-23T07:00:04Z" (162370804) transition_time 0x42b-0x432.7 (8)
0x430|ad 94 f4                                       |...             |
0x430|         00 00 00 00 0a f0 86 64               |   .......d     |      [38]: "1975-10-26T06:00:04Z" (183535204) transition_time 0x433-0x43a.7 (8)
0x430|                                 00 00 00 00 44|           ....D|      [39]: "2006-04-02T07:00:23Z" (1143961223) transition_time 0x43b-0x442.7 (8)
0x440|2f 76 87                                       |/v.             |
0x440|         00 00 00 00 45 44 43 77               |   ....EDCw     |      [40]: "2006-10-29T06:00:23Z" (1162101623) transition_time 0x443-0x44a.7 (8)
0x440|                                 00 00 00 00 45|           ....E|      [41]: "2007-03-11T07:00:23Z" (1173596423) transition_time 0x44b-0x452.7 (8)
0x450|f3 a9 07                                       |...             |
0x450|         00 00 00 00 47 2d 5f f7               |   ....G-_.     |      [42]: "2007-11-04T06:00:23Z" (1194156023) transition_time 0x453-0x45a.7 (8)
0x450|                                 00 00 00 00 47|           ....G|      [43]: "2008-03-09T07:00:23Z" (1205046023) transition_time 0x45b-0x462.7 (8)
0x460|d3 8b 07                                       |...             |
0x460|         00 00 00 00 49 0d 41 f7               |   ....I.A.     |      [44]: "2008-11-02T06:00:23Z" (1225605623) transition_time 0x463-0x46a.7 (8)
0x460|                                 00 00 00 00 49|           ....I|      [45]: "2009-03-08T07:00:24Z" (1236495624) transition_time 0x46b-0x472.7 (8)
0x470|b3 6d 08                                       |.m.             |
0x470|         00 00 00 00 4a ed 23 f8               |   ....J.#.     |      [46]: "2009-11-01T06:00:24Z" (1257055224) transition_time 0x473-0x47a.7 (8)
0x470|                                 00 00 00 00 4b|           ....K|      [47]: "2010-03-14T07:00:24Z" (1268550024) transition_time 0x47b-0x482.7 (8)
0x480|9c 89 88                                       |...             |
0x480|         00 00 00 00 4c d6 40 78               |   ....L.@x     |      [48]: "2010-11-07T06:00:24Z" (1289109624) transition_time 0x483-0x48a.7 (8)
0x480|                                 00 00 00 00 4d|           ....M|      [49]: "2011-03-13T07:00:24Z" (1299999624) transition_time 0x48b-0x492.7 (8)
0x490|7c 6b 88                                       ||k.             |
0x490|         00 00 00 00 4e b6 22 78               |   ....N."x     |      [50]: "2011-11-06T06:00:24Z" (1320559224) transition_time 0x493-0x49a.7 (8)
0x490|                                 00 00 00 00 4f|           ....O|      [51]: "2012-03-11T07:00:24Z" (1331449224) transition_time 0x49b-0x4a2.7 (8)
0x4a0|5c 4d 88                                       |\M.             |
0x4a0|         00 00 00 00 50 96 04 79               |   ....P..y     |      [52]: "2012-11-04T06:00:25Z" (1352008825) transition_time 0x4a3-0x4aa.7 (8)
0x4a0|                                 00 00 00 00 51|           ....Q|      [53]: "2013-03-10T07:00:25Z" (1362898825) transition_time 0x4ab-0x4b2.7 (8)
0x4b0|3c 2f 89                                       |</.             |
0x4b0|         00 00 00 00 52 75 e6 79               |   ....Ru.y     |      [54]: "2013-11-03T06:00:25Z" (1383458425) transition_time 0x4b3-0x4ba.7 (8)
0x4b0|                                 00 00 00 00 53|           ....S|      [55]: "2014-03-09T07:00:25Z" (1394348425) transition_time 0x4bb-0x4c2.7 (8)
0x4c0|1c 11 89                                       |...             |
0x4c0|         00 00 00 00 54 55 c8 79               |   ....TU.y     |      [56]: "2014-11-02T06:00:25Z" (1414908025) transition_time 0x4c3-0x4ca.7 (8)
0x4c0|                                 00 00 00 00 54|           ....T|      [57]: "2015-03-08T07:00:25Z" (1425798025) transition_time 0x4cb-0x4d2.7 (8)
0x4d0|fb f3 89                                       |...             |
0x4d0|         00 00 00 00 56 35 aa 7a               |   ....V5.z     |      [58]: "2015-11-01T06:00:26Z" (1446357626) transition_time 0x4d3-0x4da.7 (8)
0x4d0|                                 00 00 00 00 56|           ....V|      [59]: "2016-03-13T07:00:26Z" (1457852426) transition_time 0x4db-0x4e2.7 (8)
0x4e0|e5 10 0a                                       |...             |
0x4e0|         00 00 00 00 58 1e c6 fa               |   ....X...     |      [60]: "2016-11-06T06:00:26Z" (1478412026) transition_time 0x4e3-0x4ea.7 (8)
0x4e0|                                 00 00 00 00 58|           ....X|      [61]: "2017-03-12T07:00:27Z" (1489302027) transition_time 0x4eb-0x4f2.7 (8)
0x4f0|c4 f2 0b                                       |...             |
0x4f0|         00 00 00 00 59 fe a8 fb               |   ....Y...     |      [62]: "2017-11-05T06:00:27Z" (1509861627) transition_time 0x4f3-0x4fa.7 (8)
0x4f0|                                 00 00 00 00 5a|           ....Z|      [63]: "2018-03-11T07:00:27Z" (1520751627) transition_time 0x4fb-0x502.7 (8)
0x500|a4 d4 0b                                       |...             |
0x500|         00 00 00 00 5b de 8a fb               |   ....[...     |      [64]: "2018-11-04T06:00:27Z" (1541311227) transition_time 0x503-0x50a.7 (8)
0x500|                                 00 00 00 00 5c|           ....\|      [65]: "2019-03-10T07:00:27Z" (1552201227) transition_time 0x50b-0x512.7 (8)
0x510|84 b6 0b                                       |...             |
0x510|         00 00 00 00 5d be 6c fb               |   ....].l.     |      [66]: "2019-11-03T06:00:27Z" (1572760827) transition_time 0x513-0x51a.7 (8)
0x510|                                 00 00 00 00 5e|           ....^|      [67]: "2020-03-08T07:00:27Z" (1583650827) transition_time 0x51b-0x522.7 (8)
0x520|64 98 0b                                       |d..             |
0x520|         00 00 00 00 5f 9e 4e fb               |   ...._.N.     |      [68]: "2020-11-01T06:00:27Z" (1604210427) transition_time 0x523-0x52a.7 (8)
0x520|                                 00 00 00 00 60|           ....`|      [69]: "2021-03-14T07:00:27Z" (1615705227) transition_time 0x52b-0x532.7 (8)
0x530|4d b4 8b                                       |M..             |
0x530|         00 00 00 00 61 87 6b 7b               |   ....a.k{     |      [70]: "2021-11-07T06:00:27Z" (1636264827) transition_time 0x533-0x53a.7 (8)
0x530|                                 00 00 00 00 62|           ....b|      [71]: "2022-03-13T07:00:27Z" (1647154827) transition_time 0x53b-0x542.7 (8)
0x540|2d 96 8b                                       |-..             |
0x540|         00 00 00 00 63 67 4d 7b               |   ....cgM{     |      [72]: "2022-11-06T06:00:27Z" (1667714427) transition_time 0x543-0x54a.7 (8)
0x540|                                 00 00 00 00 64|           ....d|      [73]: "2023-03-12T07:00:27Z" (1678604427) transition_time 0x54b-0x552.7 (8)
0x550|0d 78 8b                                       |.x.             |
0x550|         00 00 00 00 64 9b 78 1b               |   ....d.x.     |      [74]: "2023-06-28T00:00:27Z" (1687910427) transition_time 0x553-0x55a.7 (8)
     |                                               |                |    transition_types[0:75]: 0x55b-0x5a5.7 (75)
0x550|                                 05            |           .    |      [0]: 5 transition_type 0x55b-0x55b.7 (1)
0x550|                                    01         |            .   |      [1]: 1 transition_type 0x55c-0x55c.7 (1)
0x550|                                       02      |             .  |      [2]: 2 transition_type 0x55d-0x55d.7 (1)
0x550|                                          01   |              . |      [3]: 1 transition_type 0x55e-0x55e.7 (1)
0x550|                                             02|               .|      [4]: 2 transition_type 0x55f-0x55f.7 (1)
0x560|03                                             |.               |      [5]: 3 transition_type 0x560-0x560.7 (1)
0x560|   04                                          | .              |      [6]: 4 transition_type 0x561-0x561.7 (1)
0x560|      02                                       |  .             |      [7]: 2 transition_type 0x562-0x562.7 (1)
0x560|         01                                    |   .            |      [8]: 1 transition_type 0x563-0x563.7 (1)
0x560|            02                                 |    .           |      [9]: 2 transition_type 0x564-0x564.7 (1)
0x560|               01                              |     .          |      [10]: 1 transition_type 0x565-0x565.7 (1)
0x560|                  02                           |      .         |      [11]: 2 transition_type 0x566-0x566.7 (1)
0x560|                     01                        |       .        |      [12]: 1 transition_type 0x567-0x567.7 (1)
0x560|                        02                     |        .       |      [13]: 2 transition_type 0x568-0x568.7 (1)
0x560|                           01                  |         .      |      [14]: 1 transition_type 0x569-0x569.7 (1)
0x560|                              02               |          .     |      [15]: 2 transition_type 0x56a-0x56a.7 (1)
0x560|                                 01            |           .    |      [16]: 1 transition_type 0x56b-0x56b.7 (1)
0x560|                                    02         |            .   |      [17]: 2 transition_type 0x56c-0x56c.7 (1)
0x560|                                       01      |             .  |      [18]: 1 transition_type 0x56d-0x56d.7 (1)
0x560|                                          02   |              . |      [19]: 2 transition_type 0x56e-0x56e.7 (1)
0x560|                                             01|               .|      [20]: 1 transition_type 0x56f-0x56f.7 (1)
0x570|02                                             |.               |      [21]: 2 transition_type 0x570-0x570.7 (1)
0x570|   01                                          | .              |      [22]: 1 transition_type 0x571-0x571.7 (1)
0x570|      02                                       |  .             |      [23]: 2 transition_type 0x572-0x572.7 (1)
0x570|         06                                    |   .            |      [24]: 6 transition_type 0x573-0x573.7 (1)
0x570|            07                                 |    .           |      [25]: 7 transition_type 0x574-0x574.7 (1)
0x570|               06                              |     .          |      [26]: 6 transition_type 0x575-0x575.7 (1)
0x570|                  07                           |      .         |      [27]: 7 transition_type 0x576-0x576.7 (1)
0x570|                     06                        |       .        |      [28]: 6 transition_type 0x577-0x577.7 (1)
0x570|                        07                     |        .       |      [29]: 7 transition_type 0x578-0x578.7 (1)
0x570|                           06                  |         .      |      [30]: 6 transition_type 0x579-0x579.7 (1)
0x570|                              07               |          .     |      [31]: 7 transition_type 0x57a-0x57a.7 (1)
0x570|                                 06            |           .    |      [32]: 6 transition_type 0x57b-0x57b.7 (1)
0x570|                                    07         |            .   |      [33]: 7 transition_type 0x57c-0x57c.7 (1)
0x570|                                       06      |             .  |      [34]: 6 transition_type 0x57d-0x57d.7 (1)
0x570|                                          01   |              . |      [35]: 1 transition_type 0x57e-0x57e.7 (1)
0x570|                                             06|               .|      [36]: 6 transition_type 0x57f-0x57f.7 (1)
0x580|07                                             |.               |      [37]: 7 transition_type 0x580-0x580.7 (1)
0x580|   06                                          | .              |      [38]: 6 transition_type 0x581-0x581.7 (1)
0x580|      07                                       |  .             |      [39]: 7 transition_type 0x582-0x582.7 (1)
0x580|         06                                    |   .            |      [40]: 6 transition_type 0x583-0x583.7 (1)
0x580|            07                                 |    .           |      [41]: 7 transition_type 0x584-0x584.7 (1)
0x580|               06                              |     .          |      [42]: 6 transition_type 0x585-0x585.7 (1)
0x580|                  07                           |      .         |      [43]: 7 transition_type 0x586-0x586.7 (1)
0x580|                     06                        |       .        |      [44]: 6 transition_type 0x587-0x587.7 (1)
0x580|                        07                     |        .       |      [45]: 7 transition_type 0x588-0x588.7 (1)
0x580|                           06                  |         .      |      [46]: 6 transition_type 0x589-0x589.7 (1)
0x580|                              07               |          .     |      [47]: 7 transition_type 0x58a-0x58a.7 (1)
0x580|                                 06            |           .    |      [48]: 6 transition_type 0x58b-0x58b.7 (1)
0x580|                                    07         |            .   |      [49]: 7 transition_type 0x58c-0x58c.7 (1)
0x580|                                       06      |             .  |      [50]: 6 transition_type 0x58d-0x58d.7 (1)
0x580|                                          07   |              . |      [51]: 7 transition_type 0x58e-0x58e.7 (1)
0x580|                                             06|               .|      [52]: 6 transition_type 0x58f-0x58f.7 (1)
0x590|07                                             |.               |      [53]: 7 transition_type 0x590-0x590.7 (1)
0x590|   06                                          | .              |      [54]: 6 transition_type 0x591-0x591.7 (1)
0x590|      07                                       |  .             |      [55]: 7 transition_type 0x592-0x592.7 (1)
0x590|         06                                    |   .            |      [56]: 6 transition_type 0x593-0x593.7 (1)
0x590|            07                                 |    .           |      [57]: 7 transition_type 0x594-0x594.7 (1)
0x590|               06                              |     .          |      [58]: 6 transition_type 0x595-0x595.7 (1)
0x590|                  07                           |      .         |      [59]: 7 transition_type 0x596-0x596.7 (1)
0x590|                     06                        |       .        |      [60]: 6 transition_type 0x597-0x597.7 (1)
0x590|                        07                     |        .       |      [61]: 7 transition_type 0x598-0x598.7 (1)
0x590|                           06                  |         .      |      [62]: 6 transition_type 0x599-0x599.7 (1)
0x590|                              07               |          .     |      [63]: 7 transition_type 0x59a-0x59a.7 (1)
0x590|                                 06            |           .    |      [64]: 6 transition_type 0x59b-0x59b.7 (1)
0x590|                                    07         |            .   |      [65]: 7 transition_type 0x59c-0x59c.7 (1)
0x590|                                       06      |             .  |      [66]: 6 transition_type 0x59d-0x59d.7 (1)
0x590|                                          07   |              . |      [67]: 7 transition_type 0x59e-0x59e.7 (1)
0x590|                                             06|               .|      [68]: 6 transition_type 0x59f-0x59f.7 (1)
0x5a0|07                                             |.               |      [69]: 7 transition_type 0x5a0-0x5a0.7 (1)
0x5a0|   06                                          | .              |      [70]: 6 transition_type 0x5a1-0x5a1.7 (1)
0x5a0|      07                                       |  .             |      [71]: 7 transition_type 0x5a2-0x5a2.7 (1)
0x5a0|         06                                    |   .            |      [72]: 6 transition_type 0x5a3-0x5a3.7 (1)
0x5a0|            07                                 |    .           |      [73]: 7 transition_type 0x5a4-0x5a4.7 (1)
0x5a0|               07                              |     .          |      [74]: 7 transition_type 0x5a5-0x5a5.7 (1)
     |                                               |                |    local_time_type_records[0:8]: 0x5a6-0x5d5.7 (48)
     |                                               |                |      [0]{}: local_time_type 0x5a6-0x5ab.7 (6)
0x5a0|                  ff ff af 0d                  |      ....      |        utoff: -20723 (valid) 0x5a6-0x5a9.7 (4)
0x5a0|                              00               |          .     |        dst: 0 (valid) 0x5aa-0x5aa.7 (1)
0x5a0|                                 00            |           .    |        idx: 0 (valid) 0x5ab-0x5ab.7 (1)
     |                                               |                |      [1]{}: local_time_type 0x5ac-0x5b1.7 (6)
0x5a0|                                    ff ff b9 b0|            ....|        utoff: -18000 (valid) 0x5ac-0x5af.7 (4)
0x5b0|01                                             |.               |        dst: 1 (valid) 0x5b0-0x5b0.7 (1)
0x5b0|   04                                          | .              |        idx: 4 (valid) 0x5b1-0x5b1.7 (1)
     |                                               |                |      [2]{}: local_time_type 0x5b2-0x5b7.7 (6)
0x5b0|      ff ff ab a0                              |  ....          |        utoff: -21600 (valid) 0x5b2-0x5b5.7 (4)
0x5b0|                  00                           |      .         |        dst: 0 (valid) 0x5b6-0x5b6.7 (1)
0x5b0|                     08                        |       .        |        idx: 8 (valid) 0x5b7-0x5b7.7 (1)
     |                                               |                |      [3]{}: local_time_type 0x5b8-0x5bd.7 (6)
0x5b0|                        ff ff b9 b0            |        ....    |        utoff: -18000 (valid) 0x5b8-0x5bb.7 (4)
0x5b0|                                    01         |            .   |        dst: 1 (valid) 0x5bc-0x5bc.7 (1)
0x5b0|                                       0c      |             .  |        idx: 12 (valid) 0x5bd-0x5bd.7 (1)
     |                                               |                |      [4]{}: local_time_type 0x5be-0x5c3.7 (6)
0x5b0|                                          ff ff|              ..|        utoff: -18000 (valid) 0x5be-0x5c1.7 (4)
0x5c0|b9 b0                                          |..              |
0x5c0|      01                                       |  .             |        dst: 1 (valid) 0x5c2-0x5c2.7 (1)
0x5c0|         10                                    |   .            |        idx: 16 (valid) 0x5c3-0x5c3.7 (1)
     |                                               |                |      [5]{}: local_time_type 0x5c4-0x5c9.7 (6)
0x5c0|            ff ff ab a0                        |    ....        |        utoff: -21600 (valid) 0x5c4-0x5c7.7 (4)
0x5c0|                        00                     |        .       |        dst: 0 (valid) 0x5c8-0x5c8.7 (1)
0x5c0|                           08                  |         .      |        idx: 8 (valid) 0x5c9-0x5c9.7 (1)
     |                                               |                |      [6]{}: local_time_type 0x5ca-0x5cf.7 (6)
0x5c0|                              ff ff b9 b0      |          ....  |        utoff: -18000 (valid) 0x5ca-0x5cd.7 (4)
0x5c0|                                          00   |              . |        dst: 0 (valid) 0x5ce-0x5ce.7 (1)
0x5c0|                                             14|               .|        idx: 20 (valid) 0x5cf-0x5cf.7 (1)
     |                                               |                |      [7]{}: local_time_type 0x5d0-0x5d5.7 (6)
0x5d0|ff ff c7 c0                                    |....            |        utoff: -14400 (valid) 0x5d0-0x5d3.7 (4)
0x5d0|            01                                 |    .           |        dst: 1 (valid) 0x5d4-0x5d4.7 (1)
0x5d0|               18                              |     .          |        idx: 24 (valid) 0x5d5-0x5d5.7 (1)
     |                                               |                |    time_zone_designations[0:7]: 0x5d6-0x5f1.7 (28)
0x5d0|                  4c 4d 54 00                  |      LMT.      |      [0]: "LMT" time_zone_designation 0x5d6-0x5d9.7 (4)
0x5d0|                              43 44 54 00      |          CDT.  |      [1]: "CDT" time_zone_designation 0x5da-0x5dd.7 (4)
0x5d0|                                          43 53|              CS|      [2]: "CST" time_zone_designation 0x5de-0x5e1.7 (4)
0x5e0|54 00                                          |T.              |
0x5e0|      43 57 54 00                              |  CWT.          |      [3]: "CWT" time_zone_designation 0x5e2-0x5e5.7 (4)
0x5e0|                  43 50 54 00                  |      CPT.      |      [4]: "CPT" time_zone_designation 0x5e6-0x5e9.7 (4)
0x5e0|                              45 53 54 00      |          EST.  |      [5]: "EST" time_zone_designation 0x5ea-0x5ed.7 (4)
0x5e0|                                          45 44|              ED|      [6]: "EDT" time_zone_designation 0x5ee-0x5f1.7 (4)
0x5f0|54 00                                          |T.              |
     |                                               |                |    leap_second_records[0:27]: 0x5f2-0x735.7 (324)
     |                                               |                |      [0]{}: leap_second_record 0x5f2-0x5fd.7 (12)
0x5f0|      00 00 00 00 04 b2 58 00                  |  ......X.      |        occur: "1972-07-01T00:00:00Z" (78796800) 0x5f2-0x5f9.7 (8)
0x5f0|                              00 00 00 01      |          ....  |        corr: 1 0x5fa-0x5fd.7 (4)
     |                                               |                |      [1]{}: leap_second_record 0x5fe-0x609.7 (12)
0x5f0|                                          00 00|              ..|        occur: "1973-01-01T00:00:01Z" (94694401) 0x5fe-0x605.7 (8)
0x600|00 00 05 a4 ec 01                              |......          |
0x600|                  00 00 00 02                  |      ....      |        corr: 2 0x606-0x609.7 (4)
     |                                               |                |      [2]{}: leap_second_record 0x60a-0x615.7 (12)
0x600|                              00 00 00 00 07 86|          ......|        occur: "1974-01-01T00:00:02Z" (126230402) 0x60a-0x611.7 (8)
0x610|1f 82                                          |..              |
0x610|      00 00 00 03                              |  ....          |        corr: 3 0x612-0x615.7 (4)
     |                                               |                |      [3]{}: leap_second_record 0x616-0x621.7 (12)
0x610|                  00 00 00 00 09 67 53 03      |      .....gS.  |        occur: "1975-01-01T00:00:03Z" (157766403) 0x616-0x61d.7 (8)
0x610|                                          00 00|              ..|        corr: 4 0x61e-0x621.7 (4)
0x620|00 04                                          |..              |
     |                                               |                |      [4]{}: leap_second_record 0x622-0x62d.7 (12)
0x620|      00 00 00 00 0b 48 86 84                  |  .....H..      |        occur: "1976-01-01T00:00:04Z" (189302404) 0x622-0x629.7 (8)
0x620|                              00 00 00 05      |          ....  |        corr: 5 0x62a-0x62d.7 (4)
     |                                               |                |      [5]{}: leap_second_record 0x62e-0x639.7 (12)
0x620|                                          00 00|              ..|        occur: "1977-01-01T00:00:05Z" (220924805) 0x62e-0x635.7 (8)
0x630|00 00 0d 2b 0b 85                              |...+..          |
0x630|                  00 00 00 06                  |      ....      |        corr: 6 0x636-0x639.7 (4)
     |                                               |                |      [6]{}: leap_second_record 0x63a-0x645.7 (12)
0x630|                              00 00 00 00 0f 0c|          ......|        occur: "1978-01-01T00:00:06Z" (252460806) 0x63a-0x641.7 (8)
0x640|3f 06                                          |?.              |
0x640|      00 00 00 07                              |  ....          |        corr: 7 0x642-0x645.7 (4)
     |                                               |                |      [7]{}: leap_second_record 0x646-0x651.7 (12)
0x640|                  00 00 00 00 10 ed 72 87      |      ......r.  |        occur: "1979-01-01T00:00:07Z" (283996807) 0x646-0x64d.7 (8)
0x640|                                          00 00|              ..|        corr: 8 0x64e-0x651.7 (4)
0x650|00 08                                          |..              |
     |                                               |                |      [8]{}: leap_second_record 0x652-0x65d.7 (12)
0x650|      00 00 00 00 12 ce a6 08                  |  ........      |        occur: "1980-01-01T00:00:08Z" (315532808) 0x652-0x659.7 (8)
0x650|                              00 00 00 09      |          ....  |        corr: 9 0x65a-0x65d.7 (4)
     |                                               |                |      [9]{}: leap_second_record 0x65e-0x669.7 (12)
0x650|                                          00 00|              ..|        occur: "1981-07-01T00:00:09Z" (362793609) 0x65e-0x665.7 (8)
0x660|00 00 15 9f ca 89                              |......          |
0x660|                  00 00 00 0a                  |      ....      |        corr: 10 0x666-0x669.7 (4)
     |                                               |                |      [10]{}: leap_second_record 0x66a-0x675.7 (12)
0x660|                              00 00 00 00 17 80|          ......|        occur: "1982-07-01T00:00:10Z" (394329610) 0x66a-0x671.7 (8)
0x670|fe 0a                                          |..              |
0x670|      00 00 00 0b                              |  ....          |        corr: 11 0x672-0x675.7 (4)
     |                                               |                |      [11]{}: leap_second_record 0x676-0x681.7 (12)
0x670|                  00 00 00 00 19 62 31 8b      |      .....b1.  |        occur: "1983-07-01T00:00:11Z" (425865611) 0x676-0x67d.7 (8)
0x670|                                          00 00|              ..|        corr: 12 0x67e-0x681.7 (4)
0x680|00 0c                                          |..              |
     |                                               |                |      [12]{}: leap_second_record 0x682-0x68d.7 (12)
0x680|      00 00 00 00 1d 25 ea 0c                  |  .....%..      |        occur: "1985-07-01T00:00:12Z" (489024012) 0x682-0x689.7 (8)
0x680|                              00 00 00 0d      |          ....  |        corr: 13 0x68a-0x68d.7 (4)
     |                                               |                |      [13]{}: leap_second_record 0x68e-0x699.7 (12)
0x680|                                          00 00|              ..|        occur: "1988-01-01T00:00:13Z" (567993613) 0x68e-0x695.7 (8)
0x690|00 00 21 da e5 0d                              |..!...          |
0x690|                  00 00 00 0e                  |      ....      |        corr: 14 0x696-0x699.7 (4)
     |                                               |                |      [14]{}: leap_second_record 0x69a-0x6a5.7 (12)
0x690|                              00 00 00 00 25 9e|          ....%.|        occur: "1990-01-01T00:00:14Z" (631152014) 0x69a-0x6a1.7 (8)
0x6a0|9d 8e                                          |..              |
0x6a0|      00 00 00 0f                              |  ....          |        corr: 15 0x6a2-0x6a5.7 (4)
     |                                               |                |      [15]{}: leap_second_record 0x6a6-0x6b1.7 (12)
0x6a0|                  00 00 00 00 27 7f d1 0f      |      ....'...  |        occur: "1991-01-01T00:00:15Z" (662688015) 0x6a6-0x6ad.7 (8)
0x6a0|                                          00 00|              ..|        corr: 16 0x6ae-0x6b1.7 (4)
0x6b0|00 10                                          |..              |
     |                                               |                |      [16]{}: leap_second_record 0x6b2-0x6bd.7 (12)
0x6b0|      00 00 00 00 2a 50 f5 90                  |  ....*P..      |        occur: "1992-07-01T00:00:16Z" (709948816) 0x6b2-0x6b9.7 (8)
0x6b0|                              00 00 00 11      |          ....  |        corr: 17 0x6ba-0x6bd.7 (4)
     |                                               |                |      [17]{}: leap_second_record 0x6be-0x6c9.7 (12)
0x6b0|                                          00 00|              ..|        occur: "1993-07-01T00:00:17Z" (741484817) 0x6be-0x6c5.7 (8)
0x6c0|00 00 2c 32 29 11                              |..,2).          |
0x6c0|                  00 00 00 12                  |      ....      |        corr: 18 0x6c6-0x6c9.7 (4)
     |                                               |                |      [18]{}: leap_second_record 0x6ca-0x6d5.7 (12)
0x6c0|                              00 00 00 00 2e 13|          ......|        occur: "1994-07-01T00:00:18Z" (773020818) 0x6ca-0x6d1.7 (8)
0x6d0|5c 92                                          |\.              |
0x6d0|      00 00 00 13                              |  ....          |        corr: 19 0x6d2-0x6d5.7 (4)
     |                                               |                |      [19]{}: leap_second_record 0x6d6-0x6e1.7 (12)
0x6d0|                  00 00 00 00 30 e7 24 13      |      ....0.$.  |        occur: "1996-01-01T00:00:19Z" (820454419) 0x6d6-0x6dd.7 (8)
0x6d0|                                          00 00|              ..|        corr: 20 0x6de-0x6e1.7 (4)
0x6e0|00 14                                          |..              |
     |                                               |                |      [20]{}: leap_second_record 0x6e2-0x6ed.7 (12)
0x6e0|      00 00 00 00 33 b8 48 94                  |  ....3.H.      |        occur: "1997-07-01T00:00:20Z" (867715220) 0x6e2-0x6e9.7 (8)
0x6e0|                              00 00 00 15      |          ....  |        corr: 21 0x6ea-0x6ed.7 (4)
     |                                               |                |      [21]{}: leap_second_record 0x6ee-0x6f9.7 (12)
0x6e0|                                          00 00|              ..|        occur: "1999-01-01T00:00:21Z" (915148821) 0x6ee-0x6f5.7 (8)
0x6f0|00 00 36 8c 10 15                              |..6...          |
0x6f0|                  00 00 00 16                  |      ....      |        corr: 22 0x6f6-0x6f9.7 (4)
     |                                               |                |      [22]{}: leap_second_record 0x6fa-0x705.7 (12)
0x6f0|                              00 00 00 00 43 b7|          ....C.|        occur: "2006-01-01T00:00:22Z" (1136073622) 0x6fa-0x701.7 (8)
0x700|1b 96                                          |..              |
0x700|      00 00 00 17                              |  ....          |        corr: 23 0x702-0x705.7 (4)
     |                                               |                |      [23]{}: leap_second_record 0x706-0x711.7 (12)
0x700|                  00 00 00 00 49 5c 07 97      |      ....I\..  |        occur: "2009-01-01T00:00:23Z" (1230768023) 0x706-0x70d.7 (8)
0x700|                                          00 00|              ..|        corr: 24 0x70e-0x711.7 (4)
0x710|00 18                                          |..              |
     |                                               |                |      [24]{}: leap_second_record 0x712-0x71d.7 (12)
0x710|      00 00 00 00 4f ef 93 18                  |  ....O...      |        occur: "2012-07-01T00:00:24Z" (1341100824) 0x712-0x719.7 (8)
0x710|                              00 00 00 19      |          ....  |        corr: 25 0x71a-0x71d.7 (4)
     |                                               |                |      [25]{}: leap_second_record 0x71e-0x729.7 (12)
0x710|                                          00 00|              ..|        occur: "2015-07-01T00:00:25Z" (1435708825) 0x71e-0x725.7 (8)
0x720|00 00 55 93 2d 99                              |..U.-.          |
0x720|                  00 00 00 1a                  |      ....      |        corr: 26 0x726-0x729.7 (4)
     |                                               |                |      [26]{}: leap_second_record 0x72a-0x735.7 (12)
0x720|                              00 00 00 00 58 68|          ....Xh|        occur: "2017-01-01T00:00:26Z" (1483228826) 0x72a-0x731.7 (8)
0x730|46 9a                                          |F.              |
0x730|      00 00 00 1b                              |  ....          |        corr: 27 0x732-0x735.7 (4)
     |                                               |                |    standard_wall_indicators[0:8]: 0x736-0x73d.7 (8)
0x730|                  00                           |      .         |      [0]: 0 standard_wall_indicator (valid) 0x736-0x736.7 (1)
0x730|                     00                        |       .        |      [1]: 0 standard_wall_indicator (valid) 0x737-0x737.7 (1)
0x730|                        00                     |        .       |      [2]: 0 standard_wall_indicator (valid) 0x738-0x738.7 (1)
0x730|                           00                  |         .      |      [3]: 0 standard_wall_indicator (valid) 0x739-0x739.7 (1)
0x730|                              01               |          .     |      [4]: 1 standard_wall_indicator (valid) 0x73a-0x73a.7 (1)
0x730|                                 01            |           .    |      [5]: 1 standard_wall_indicator (valid) 0x73b-0x73b.7 (1)
0x730|                                    00         |            .   |      [6]: 0 standard_wall_indicator (valid) 0x73c-0x73c.7 (1)
0x730|                                       00      |             .  |      [7]: 0 standard_wall_indicator (valid) 0x73d-0x73d.7 (1)
     |                                               |                |    ut_local_indicators[0:8]: 0x73e-0x745.7 (8)
0x730|                                          00   |              . |      [0]: 0 ut_local_indicator (valid) 0x73e-0x73e.7 (1)
0x730|                                             00|               .|      [1]: 0 ut_local_indicator (valid) 0x73f-0x73f.7 (1)
0x740|00                                             |.               |      [2]: 0 ut_local_indicator (valid) 0x740-0x740.7 (1)
0x740|   00                                          | .              |      [3]: 0 ut_local_indicator (valid) 0x741-0x741.7 (1)
0x740|      01                                       |  .             |      [4]: 1 ut_local_indicator (valid) 0x742-0x742.7 (1)
0x740|         01                                    |   .            |      [5]: 1 ut_local_indicator (valid) 0x743-0x743.7 (1)
0x740|            00                                 |    .           |      [6]: 0 ut_local_indicator (valid) 0x744-0x744.7 (1)
0x740|               00                              |     .          |      [7]: 0 ut_local_indicator (valid) 0x745-0x745.7 (1)
     |                                               |                |  footer{}: 0x746-0x747.7 (2)
0x740|                  0a                           |      .         |    nl1: 10 (valid) 0x746-0x746.7 (1)
     |                                               |                |    tz_string: "" 0x747-NA (0)
0x740|                     0a|                       |       .|       |    nl2: 10 (valid) 0x747-0x747.7 (1)
