$ fq -d tzif dv Marquesas
    |00 01 02 03 04 05 06 07 08 09 0a 0b 0c 0d 0e 0f|0123456789abcdef|.{}: Marquesas (tzif) 0x0-0xac.7 (173)
    |                                               |                |  v1header{}: 0x0-0x2b.7 (44)
0x00|54 5a 69 66                                    |TZif            |    magic: 0x545a6966 (valid) 0x0-0x3.7 (4)
0x00|            32                                 |    2           |    ver: "2" (0x32) (valid) 0x4-0x4.7 (1)
0x00|               00 00 00 00 00 00 00 00 00 00 00|     ...........|    reserved: raw bits 0x5-0x13.7 (15)
0x10|00 00 00 00                                    |....            |
0x10|            00 00 00 00                        |    ....        |    isutcnt: 0 0x14-0x17.7 (4)
0x10|                        00 00 00 00            |        ....    |    isstdcnt: 0 0x18-0x1b.7 (4)
0x10|                                    00 00 00 00|            ....|    leapcnt: 0 0x1c-0x1f.7 (4)
0x20|00 00 00 02                                    |....            |    timecnt: 2 0x20-0x23.7 (4)
0x20|            00 00 00 02                        |    ....        |    typecnt: 2 0x24-0x27.7 (4)
0x20|                        00 00 00 0a            |        ....    |    charcnt: 10 0x28-0x2b.7 (4)
    |                                               |                |  v1datablock{}: 0x2c-0x4b.7 (32)
    |                                               |                |    transition_times[0:2]: 0x2c-0x33.7 (8)
0x20|                                    94 50 4c 48|            .PLH|      [0]: "1912-10-01T09:18:00Z" (-1806676920) transition_time 0x2c-0x2f.7 (4)
0x30|7f ff ff ff                                    |....            |      [1]: "2038-01-19T03:14:07Z" (2147483647) transition_time 0x30-0x33.7 (4)
    |                                               |                |    transition_types[0:2]: 0x34-0x35.7 (2)
0x30|            01                                 |    .           |      [0]: 1 transition_type 0x34-0x34.7 (1)
0x30|               01                              |     .          |      [1]: 1 transition_type 0x35-0x35.7 (1)
    |                                               |                |    local_time_type_records[0:2]: 0x36-0x41.7 (12)
    |                                               |                |      [0]{}: local_time_type 0x36-0x3b.7 (6)
0x30|                  ff ff 7d 38                  |      ..}8      |        utoff: -33480 (valid) 0x36-0x39.7 (4)
0x30|                              00               |          .     |        dst: 0 (valid) 0x3a-0x3a.7 (1)
0x30|                                 00            |           .    |        idx: 0 (valid) 0x3b-0x3b.7 (1)
    |                                               |                |      [1]{}: local_time_type 0x3c-0x41.7 (6)
0x30|                                    ff ff 7a 68|            ..zh|        utoff: -34200 (valid) 0x3c-0x3f.7 (4)
0x40|00                                             |.               |        dst: 0 (valid) 0x40-0x40.7 (1)
0x40|   04                                          | .              |        idx: 4 (valid) 0x41-0x41.7 (1)
    |                                               |                |    time_zone_designations[0:2]: 0x42-0x4b.7 (10)
0x40|      4c 4d 54 00                              |  LMT.          |      [0]: "LMT" time_zone_designation 0x42-0x45.7 (4)
0x40|                  2d 30 39 33 30 00            |      -0930.    |      [1]: "-0930" time_zone_designation 0x46-0x4b.7 (6)
    |                                               |                |    leap_second_records[0:0]: 0x4c-NA (0)
    |                                               |                |    standard_wall_indicators[0:0]: 0x4c-NA (0)
    |                                               |                |    ut_local_indicators[0:0]: 0x4c-NA (0)
    |                                               |                |  v2plusheader{}: 0x4c-0x77.7 (44)
0x40|                                    54 5a 69 66|            TZif|    magic: 0x545a6966 (valid) 0x4c-0x4f.7 (4)
0x50|32                                             |2               |    ver: "2" (0x32) (valid) 0x50-0x50.7 (1)
0x50|   00 00 00 00 00 00 00 00 00 00 00 00 00 00 00| ...............|    reserved: raw bits 0x51-0x5f.7 (15)
0x60|00 00 00 00                                    |....            |    isutcnt: 0 0x60-0x63.7 (4)
0x60|            00 00 00 00                        |    ....        |    isstdcnt: 0 0x64-0x67.7 (4)
0x60|                        00 00 00 00            |        ....    |    leapcnt: 0 0x68-0x6b.7 (4)
0x60|                                    00 00 00 02|            ....|    timecnt: 2 0x6c-0x6f.7 (4)
0x70|00 00 00 02                                    |....            |    typecnt: 2 0x70-0x73.7 (4)
0x70|            00 00 00 0a                        |    ....        |    charcnt: 10 0x74-0x77.7 (4)
    |                                               |                |  v2plusdatablock{}: 0x78-0x9f.7 (40)
    |                                               |                |    transition_times[0:2]: 0x78-0x87.7 (16)
0x70|                        ff ff ff ff 94 50 4c 48|        .....PLH|      [0]: "1912-10-01T09:18:00Z" (-1806676920) transition_time 0x78-0x7f.7 (8)
0x80|00 00 00 00 7f ff ff ff                        |........        |      [1]: "2038-01-19T03:14:07Z" (2147483647) transition_time 0x80-0x87.7 (8)
    |                                               |                |    transition_types[0:2]: 0x88-0x89.7 (2)
0x80|                        01                     |        .       |      [0]: 1 transition_type 0x88-0x88.7 (1)
0x80|                           01                  |         .      |      [1]: 1 transition_type 0x89-0x89.7 (1)
    |                                               |                |    local_time_type_records[0:2]: 0x8a-0x95.7 (12)
    |                                               |                |      [0]{}: local_time_type 0x8a-0x8f.7 (6)
0x80|                              ff ff 7d 38      |          ..}8  |        utoff: -33480 (valid) 0x8a-0x8d.7 (4)
0x80|                                          00   |              . |        dst: 0 (valid) 0x8e-0x8e.7 (1)
0x80|                                             00|               .|        idx: 0 (valid) 0x8f-0x8f.7 (1)
    |                                               |                |      [1]{}: local_time_type 0x90-0x95.7 (6)
0x90|ff ff 7a 68                                    |..zh            |        utoff: -34200 (valid) 0x90-0x93.7 (4)
0x90|            00                                 |    .           |        dst: 0 (valid) 0x94-0x94.7 (1)
0x90|               04                              |     .          |        idx: 4 (valid) 0x95-0x95.7 (1)
    |                                               |                |    time_zone_designations[0:2]: 0x96-0x9f.7 (10)
0x90|                  4c 4d 54 00                  |      LMT.      |      [0]: "LMT" time_zone_designation 0x96-0x99.7 (4)
0x90|                              2d 30 39 33 30 00|          -0930.|      [1]: "-0930" time_zone_designation 0x9a-0x9f.7 (6)
    |                                               |                |    leap_second_records[0:0]: 0xa0-NA (0)
    |                                               |                |    standard_wall_indicators[0:0]: 0xa0-NA (0)
    |                                               |                |    ut_local_indicators[0:0]: 0xa0-NA (0)
    |                                               |                |  footer{}: 0xa0-0xac.7 (13)
0xa0|0a                                             |.               |    nl1: 10 (valid) 0xa0-0xa0.7 (1)
0xa0|   3c 2d 30 39 33 30 3e 39 3a 33 30            | <-0930>9:30    |    tz_string: "<-0930>9:30" 0xa1-0xab.7 (11)
0xa0|                                    0a|        |            .|  |    nl2: 10 (valid) 0xac-0xac.7 (1)
