$ fq -d tzif dv Martinique
     |00 01 02 03 04 05 06 07 08 09 0a 0b 0c 0d 0e 0f|0123456789abcdef|.{}: Martinique (tzif) 0x0-0x30d.7 (782)
     |                                               |                |  v1header{}: 0x0-0x2b.7 (44)
0x000|54 5a 69 66                                    |TZif            |    magic: 0x545a6966 (valid) 0x0-0x3.7 (4)
0x000|            32                                 |    2           |    ver: "2" (0x32) (valid) 0x4-0x4.7 (1)
0x000|               00 00 00 00 00 00 00 00 00 00 00|     ...........|    reserved: raw bits 0x5-0x13.7 (15)
0x010|00 00 00 00                                    |....            |
0x010|            00 00 00 00                        |    ....        |    isutcnt: 0 0x14-0x17.7 (4)
0x010|                        00 00 00 00            |        ....    |    isstdcnt: 0 0x18-0x1b.7 (4)
0x010|                                    00 00 00 1b|            ....|    leapcnt: 27 0x1c-0x1f.7 (4)
0x020|00 00 00 05                                    |....            |    timecnt: 5 0x20-0x23.7 (4)
0x020|            00 00 00 04                        |    ....        |    typecnt: 4 0x24-0x27.7 (4)
0x020|                        00 00 00 11            |        ....    |    charcnt: 17 0x28-0x2b.7 (4)
     |                                               |                |  v1datablock{}: 0x2c-0x145.7 (282)
     |                                               |                |    transition_times[0:5]: 0x2c-0x3f.7 (20)
0x020|                                    80 00 00 00|            ....|      [0]: "1901-12-13T20:45:52Z" (-2147483648) transition_time 0x2c-0x2f.7 (4)
0x030|91 a3 c8 44                                    |...D            |      [1]: "1911-05-01T04:04:20Z" (-1851537340) transition_time 0x30-0x33.7 (4)
0x030|            13 4d 6e 49                        |    .MnI        |      [2]: "1980-04-06T04:00:09Z" (323841609) transition_time 0x34-0x37.7 (4)
0x030|                        14 34 16 b9            |        .4..    |      [3]: "1980-09-28T03:00:09Z" (338958009) transition_time 0x38-0x3b.7 (4)
0x030|                                    64 9b 78 1b|            d.x.|      [4]: "2023-06-28T00:00:27Z" (1687910427) transition_time 0x3c-0x3f.7 (4)
     |                                               |                |    transition_types[0:5]: 0x40-0x44.7 (5)
0x040|01                                             |.               |      [0]: 1 transition_type 0x40-0x40.7 (1)
0x040|   02                                          | .              |      [1]: 2 transition_type 0x41-0x41.7 (1)
0x040|      03                                       |  .             |      [2]: 3 transition_type 0x42-0x42.7 (1)
0x040|         02                                    |   .            |      [3]: 2 transition_type 0x43-0x43.7 (1)
0x040|            02                                 |    .           |      [4]: 2 transition_type 0x44-0x44.7 (1)
     |                                               |                |    local_time_type_records[0:4]: 0x45-0x5c.7 (24)
     |                                               |                |      [0]{}: local_time_type 0x45-0x4a.7 (6)
0x040|               ff ff c6 bc                     |     ....       |        utoff: -14660 (valid) 0x45-0x48.7 (4)
0x040|                           00                  |         .      |        dst: 0 (valid) 0x49-0x49.7 (1)
0x040|                              00               |          .     |        idx: 0 (valid) 0x4a-0x4a.7 (1)
     |                                               |                |      [1]{}: local_time_type 0x4b-0x50.7 (6)
0x040|                                 ff ff c6 bc   |           .... |        utoff: -14660 (valid) 0x4b-0x4e.7 (4)
0x040|                                             00|               .|        dst: 0 (valid) 0x4f-0x4f.7 (1)
0x050|04                                             |.               |        idx: 4 (valid) 0x50-0x50.7 (1)
     |                                               |                |      [2]{}: local_time_type 0x51-0x56.7 (6)
0x050|   ff ff c7 c0                                 | ....           |        utoff: -14400 (valid) 0x51-0x54.7 (4)
0x050|               00                              |     .          |        dst: 0 (valid) 0x55-0x55.7 (1)
0x050|                  09                           |      .         |        idx: 9 (valid) 0x56-0x56.7 (1)
     |                                               |                |      [3]{}: local_time_type 0x57-0x5c.7 (6)
0x050|                     ff ff d5 d0               |       ....     |        utoff: -10800 (valid) 0x57-0x5a.7 (4)
0x050|                                 01            |           .    |        dst: 1 (valid) 0x5b-0x5b.7 (1)
0x050|                                    0d         |            .   |        idx: 13 (valid) 0x5c-0x5c.7 (1)
     |                                               |                |    time_zone_designations[0:4]: 0x5d-0x6d.7 (17)
0x050|                                       4c 4d 54|             LMT|      [0]: "LMT" time_zone_designation 0x5d-0x60.7 (4)
0x060|00                                             |.               |
0x060|   46 46 4d 54 00                              | FFMT.          |      [1]: "FFMT" time_zone_designation 0x61-0x65.7 (5)
0x060|                  41 53 54 00                  |      AST.      |      [2]: "AST" time_zone_designation 0x66-0x69.7 (4)
0x060|                              41 44 54 00      |          ADT.  |      [3]: "ADT" time_zone_designation 0x6a-0x6d.7 (4)
     |                                               |                |    leap_second_records[0:27]: 0x6e-0x145.7 (216)
     |                                               |                |      [0]{}: leap_second_record 0x6e-0x75.7 (8)
0x060|                                          04 b2|              ..|        occur: "1972-07-01T00:00:00Z" (78796800) 0x6e-0x71.7 (4)
0x070|58 00                                          |X.              |
0x070|      00 00 00 01                              |  ....          |        corr: 1 0x72-0x75.7 (4)
     |                                               |                |      [1]{}: leap_second_record 0x76-0x7d.7 (8)
0x070|                  05 a4 ec 01                  |      ....      |        occur: "1973-01-01T00:00:01Z" (94694401) 0x76-0x79.7 (4)
0x070|                              00 00 00 02      |          ....  |        corr: 2 0x7a-0x7d.7 (4)
     |                                               |                |      [2]{}: leap_second_record 0x7e-0x85.7 (8)
0x070|                                          07 86|              ..|        occur: "1974-01-01T00:00:02Z" (126230402) 0x7e-0x81.7 (4)
0x080|1f 82                                          |..              |
0x080|      00 00 00 03                              |  ....          |        corr: 3 0x82-0x85.7 (4)
     |                                               |                |      [3]{}: leap_second_record 0x86-0x8d.7 (8)
0x080|                  09 67 53 03                  |      .gS.      |        occur: "1975-01-01T00:00:03Z" (157766403) 0x86-0x89.7 (4)
0x080|                              00 00 00 04      |          ....  |        corr: 4 0x8a-0x8d.7 (4)
     |                                               |                |      [4]{}: leap_second_record 0x8e-0x95.7 (8)
0x080|                                          0b 48|              .H|        occur: "1976-01-01T00:00:04Z" (189302404) 0x8e-0x91.7 (4)
0x090|86 84                                          |..              |
0x090|      00 00 00 05                              |  ....          |        corr: 5 0x92-0x95.7 (4)
     |                                               |                |      [5]{}: leap_second_record 0x96-0x9d.7 (8)
0x090|                  0d 2b 0b 85                  |      .+..      |        occur: "1977-01-01T00:00:05Z" (220924805) 0x96-0x99.7 (4)
0x090|                              00 00 00 06      |          ....  |        corr: 6 0x9a-0x9d.7 (4)
     |                                               |                |      [6]{}: leap_second_record 0x9e-0xa5.7 (8)
0x090|                                          0f 0c|              ..|        occur: "1978-01-01T00:00:06Z" (252460806) 0x9e-0xa1.7 (4)
0x0a0|3f 06                                          |?.              |
0x0a0|      00 00 00 07                              |  ....          |        corr: 7 0xa2-0xa5.7 (4)
     |                                               |                |      [7]{}: leap_second_record 0xa6-0xad.7 (8)
0x0a0|                  10 ed 72 87                  |      ..r.      |        occur: "1979-01-01T00:00:07Z" (283996807) 0xa6-0xa9.7 (4)
0x0a0|                              00 00 00 08      |          ....  |        corr: 8 0xaa-0xad.7 (4)
     |                                               |                |      [8]{}: leap_second_record 0xae-0xb5.7 (8)
0x0a0|                                          12 ce|              ..|        occur: "1980-01-01T00:00:08Z" (315532808) 0xae-0xb1.7 (4)
0x0b0|a6 08                                          |..              |
0x0b0|      00 00 00 09                              |  ....          |        corr: 9 0xb2-0xb5.7 (4)
     |                                               |                |      [9]{}: leap_second_record 0xb6-0xbd.7 (8)
0x0b0|                  15 9f ca 89                  |      ....      |        occur: "1981-07-01T00:00:09Z" (362793609) 0xb6-0xb9.7 (4)
0x0b0|                              00 00 00 0a      |          ....  |        corr: 10 0xba-0xbd.7 (4)
     |                                               |                |      [10]{}: leap_second_record 0xbe-0xc5.7 (8)
0x0b0|                                          17 80|              ..|        occur: "1982-07-01T00:00:10Z" (394329610) 0xbe-0xc1.7 (4)
0x0c0|fe 0a                                          |..              |
0x0c0|      00 00 00 0b                              |  ....          |        corr: 11 0xc2-0xc5.7 (4)
     |                                               |                |      [11]{}: leap_second_record 0xc6-0xcd.7 (8)
0x0c0|                  19 62 31 8b                  |      .b1.      |        occur: "1983-07-01T00:00:11Z" (425865611) 0xc6-0xc9.7 (4)
0x0c0|                              00 00 00 0c      |          ....  |        corr: 12 0xca-0xcd.7 (4)
     |                                               |                |      [12]{}: leap_second_record 0xce-0xd5.7 (8)
0x0c0|                                          1d 25|              .%|        occur: "1985-07-01T00:00:12Z" (489024012) 0xce-0xd1.7 (4)
0x0d0|ea 0c                                          |..              |
0x0d0|      00 00 00 0d                              |  ....          |        corr: 13 0xd2-0xd5.7 (4)
     |                                               |                |      [13]{}: leap_second_record 0xd6-0xdd.7 (8)
0x0d0|                  21 da e5 0d                  |      !...      |        occur: "1988-01-01T00:00:13Z" (567993613) 0xd6-0xd9.7 (4)
0x0d0|                              00 00 00 0e      |          ....  |        corr: 14 0xda-0xdd.7 (4)
     |                                               |                |      [14]{}: leap_second_record 0xde-0xe5.7 (8)
0x0d0|                                          25 9e|              %.|        occur: "1990-01-01T00:00:14Z" (631152014) 0xde-0xe1.7 (4)
0x0e0|9d 8e                                          |..              |
0x0e0|      00 00 00 0f                              |  ....          |        corr: 15 0xe2-0xe5.7 (4)
     |                                               |                |      [15]{}: leap_second_record 0xe6-0xed.7 (8)
0x0e0|                  27 7f d1 0f                  |      '...      |        occur: "1991-01-01T00:00:15Z" (662688015) 0xe6-0xe9.7 (4)
0x0e0|                              00 00 00 10      |          ....  |        corr: 16 0xea-0xed.7 (4)
     |                                               |                |      [16]{}: leap_second_record 0xee-0xf5.7 (8)
0x0e0|                                          2a 50|              *P|        occur: "1992-07-01T00:00:16Z" (709948816) 0xee-0xf1.7 (4)
0x0f0|f5 90                                          |..              |
0x0f0|      00 00 00 11                              |  ....          |        corr: 17 0xf2-0xf5.7 (4)
     |                                               |                |      [17]{}: leap_second_record 0xf6-0xfd.7 (8)
0x0f0|                  2c 32 29 11                  |      ,2).      |        occur: "1993-07-01T00:00:17Z" (741484817) 0xf6-0xf9.7 (4)
0x0f0|                              00 00 00 12      |          ....  |        corr: 18 0xfa-0xfd.7 (4)
     |                                               |                |      [18]{}: leap_second_record 0xfe-0x105.7 (8)
0x0f0|                                          2e 13|              ..|        occur: "1994-07-01T00:00:18Z" (773020818) 0xfe-0x101.7 (4)
0x100|5c 92                                          |\.              |
0x100|      00 00 00 13                              |  ....          |        corr: 19 0x102-0x105.7 (4)
     |                                               |                |      [19]{}: leap_second_record 0x106-0x10d.7 (8)
0x100|                  30 e7 24 13                  |      0.$.      |        occur: "1996-01-01T00:00:19Z" (820454419) 0x106-0x109.7 (4)
0x100|                              00 00 00 14      |          ....  |        corr: 20 0x10a-0x10d.7 (4)
     |                                               |                |      [20]{}: leap_second_record 0x10e-0x115.7 (8)
0x100|                                          33 b8|              3.|        occur: "1997-07-01T00:00:20Z" (867715220) 0x10e-0x111.7 (4)
0x110|48 94                                          |H.              |
0x110|      00 00 00 15                              |  ....          |        corr: 21 0x112-0x115.7 (4)
     |                                               |                |      [21]{}: leap_second_record 0x116-0x11d.7 (8)
0x110|                  36 8c 10 15                  |      6...      |        occur: "1999-01-01T00:00:21Z" (915148821) 0x116-0x119.7 (4)
0x110|                              00 00 00 16      |          ....  |        corr: 22 0x11a-0x11d.7 (4)
     |                                               |                |      [22]{}: leap_second_record 0x11e-0x125.7 (8)
0x110|                                          43 b7|              C.|        occur: "2006-01-01T00:00:22Z" (1136073622) 0x11e-0x121.7 (4)
0x120|1b 96                                          |..              |
0x120|      00 00 00 17                              |  ....          |        corr: 23 0x122-0x125.7 (4)
     |                                               |                |      [23]{}: leap_second_record 0x126-0x12d.7 (8)
0x120|                  49 5c 07 97                  |      I\..      |        occur: "2009-01-01T00:00:23Z" (1230768023) 0x126-0x129.7 (4)
0x120|                              00 00 00 18      |          ....  |        corr: 24 0x12a-0x12d.7 (4)
     |                                               |                |      [24]{}: leap_second_record 0x12e-0x135.7 (8)
0x120|                                          4f ef|              O.|        occur: "2012-07-01T00:00:24Z" (1341100824) 0x12e-0x131.7 (4)
0x130|93 18                                          |..              |
0x130|      00 00 00 19                              |  ....          |        corr: 25 0x132-0x135.7 (4)
     |                                               |                |      [25]{}: leap_second_record 0x136-0x13d.7 (8)
0x130|                  55 93 2d 99                  |      U.-.      |        occur: "2015-07-01T00:00:25Z" (1435708825) 0x136-0x139.7 (4)
0x130|                              00 00 00 1a      |          ....  |        corr: 26 0x13a-0x13d.7 (4)
     |                                               |                |      [26]{}: leap_second_record 0x13e-0x145.7 (8)
0x130|                                          58 68|              Xh|        occur: "2017-01-01T00:00:26Z" (1483228826) 0x13e-0x141.7 (4)
0x140|46 9a                                          |F.              |
0x140|      00 00 00 1b                              |  ....          |        corr: 27 0x142-0x145.7 (4)
     |                                               |                |    standard_wall_indicators[0:0]: 0x146-NA (0)
     |                                               |                |    ut_local_indicators[0:0]: 0x146-NA (0)
     |                                               |                |  v2plusheader{}: 0x146-0x171.7 (44)
0x140|                  54 5a 69 66                  |      TZif      |    magic: 0x545a6966 (valid) 0x146-0x149.7 (4)
0x140|                              32               |          2     |    ver: "2" (0x32) (valid) 0x14a-0x14a.7 (1)
0x140|                                 00 00 00 00 00|           .....|    reserved: raw bits 0x14b-0x159.7 (15)
0x150|00 00 00 00 00 00 00 00 00 00                  |..........      |
0x150|                              00 00 00 00      |          ....  |    isutcnt: 0 0x15a-0x15d.7 (4)
0x150|                                          00 00|              ..|    isstdcnt: 0 0x15e-0x161.7 (4)
0x160|00 00                                          |..              |
0x160|      00 00 00 1b                              |  ....          |    leapcnt: 27 0x162-0x165.7 (4)
0x160|                  00 00 00 05                  |      ....      |    timecnt: 5 0x166-0x169.7 (4)
0x160|                              00 00 00 04      |          ....  |    typecnt: 4 0x16a-0x16d.7 (4)
0x160|                                          00 00|              ..|    charcnt: 17 0x16e-0x171.7 (4)
0x170|00 11                                          |..              |
     |                                               |                |  v2plusdatablock{}: 0x172-0x30b.7 (410)
     |                                               |                |    transition_times[0:5]: 0x172-0x199.7 (40)
0x170|      ff ff ff ff 69 87 14 c4                  |  ....i...      |      [0]: "1890-01-01T04:04:20Z" (-2524506940) transition_time 0x172-0x179.7 (8)
0x170|                              ff ff ff ff 91 a3|          ......|      [1]: "1911-05-01T04:04:20Z" (-1851537340) transition_time 0x17a-0x181.7 (8)
0x180|c8 44                                          |.D              |
0x180|      00 00 00 00 13 4d 6e 49                  |  .....MnI      |      [2]: "1980-04-06T04:00:09Z" (323841609) transition_time 0x182-0x189.7 (8)
0x180|                              00 00 00 00 14 34|          .....4|      [3]: "1980-09-28T03:00:09Z" (338958009) transition_time 0x18a-0x191.7 (8)
0x190|16 b9                                          |..              |
0x190|      00 00 00 00 64 9b 78 1b                  |  ....d.x.      |      [4]: "2023-06-28T00:00:27Z" (1687910427) transition_time 0x192-0x199.7 (8)
     |                                               |                |    transition_types[0:5]: 0x19a-0x19e.7 (5)
0x190|                              01               |          .     |      [0]: 1 transition_type 0x19a-0x19a.7 (1)
0x190|                                 02            |           .    |      [1]: 2 transition_type 0x19b-0x19b.7 (1)
0x190|                                    03         |            .   |      [2]: 3 transition_type 0x19c-0x19c.7 (1)
0x190|                                       02      |             .  |      [3]: 2 transition_type 0x19d-0x19d.7 (1)
0x190|                                          02   |              . |      [4]: 2 transition_type 0x19e-0x19e.7 (1)
     |                                               |                |    local_time_type_records[0:4]: 0x19f-0x1b6.7 (24)
     |                                               |                |      [0]{}: local_time_type 0x19f-0x1a4.7 (6)
0x190|                                             ff|               .|        utoff: -14660 (valid) 0x19f-0x1a2.7 (4)
0x1a0|ff c6 bc                                       |...             |
0x1a0|         00                                    |   .            |        dst: 0 (valid) 0x1a3-0x1a3.7 (1)
0x1a0|            00                                 |    .           |        idx: 0 (valid) 0x1a4-0x1a4.7 (1)
     |                                               |                |      [1]{}: local_time_type 0x1a5-0x1aa.7 (6)
0x1a0|               ff ff c6 bc                     |     ....       |        utoff: -14660 (valid) 0x1a5-0x1a8.7 (4)
0x1a0|                           00                  |         .      |        dst: 0 (valid) 0x1a9-0x1a9.7 (1)
0x1a0|                              04               |          .     |        idx: 4 (valid) 0x1aa-0x1aa.7 (1)
     |                                               |                |      [2]{}: local_time_type 0x1ab-0x1b0.7 (6)
0x1a0|                                 ff ff c7 c0   |           .... |        utoff: -14400 (valid) 0x1ab-0x1ae.7 (4)
0x1a0|                                             00|               .|        dst: 0 (valid) 0x1af-0x1af.7 (1)
0x1b0|09                                             |.               |        idx: 9 (valid) 0x1b0-0x1b0.7 (1)
     |                                               |                |      [3]{}: local_time_type 0x1b1-0x1b6.7 (6)
0x1b0|   ff ff d5 d0                                 | ....           |        utoff: -10800 (valid) 0x1b1-0x1b4.7 (4)
0x1b0|               01                              |     .          |        dst: 1 (valid) 0x1b5-0x1b5.7 (1)
0x1b0|                  0d                           |      .         |        idx: 13 (valid) 0x1b6-0x1b6.7 (1)
     |                                               |                |    time_zone_designations[0:4]: 0x1b7-0x1c7.7 (17)
0x1b0|                     4c 4d 54 00               |       LMT.     |      [0]: "LMT" time_zone_designation 0x1b7-0x1ba.7 (4)
0x1b0|                                 46 46 4d 54 00|           FFMT.|      [1]: "FFMT" time_zone_designation 0x1bb-0x1bf.7 (5)
0x1c0|41 53 54 00                                    |AST.            |      [2]: "AST" time_zone_designation 0x1c0-0x1c3.7 (4)
0x1c0|            41 44 54 00                        |    ADT.        |      [3]: "ADT" time_zone_designation 0x1c4-0x1c7.7 (4)
     |                                               |                |    leap_second_records[0:27]: 0x1c8-0x30b.7 (324)
     |                                               |                |      [0]{}: leap_second_record 0x1c8-0x1d3.7 (12)
0x1c0|                        00 00 00 00 04 b2 58 00|        ......X.|        occur: "1972-07-01T00:00:00Z" (78796800) 0x1c8-0x1cf.7 (8)
0x1d0|00 00 00 01                                    |....            |        corr: 1 0x1d0-0x1d3.7 (4)
     |                                               |                |      [1]{}: leap_second_record 0x1d4-0x1df.7 (12)
0x1d0|            00 00 00 00 05 a4 ec 01            |    ........    |        occur: "1973-01-01T00:00:01Z" (94694401) 0x1d4-0x1db.7 (8)
0x1d0|                                    00 00 00 02|            ....|        corr: 2 0x1dc-0x1df.7 (4)
     |                                               |                |      [2]{}: leap_second_record 0x1e0-0x1eb.7 (12)
0x1e0|00 00 00 00 07 86 1f 82                        |........        |        occur: "1974-01-01T00:00:02Z" (126230402) 0x1e0-0x1e7.7 (8)
0x1e0|                        00 00 00 03            |        ....    |        corr: 3 0x1e8-0x1eb.7 (4)
     |                                               |                |      [3]{}: leap_second_record 0x1ec-0x1f7.7 (12)
0x1e0|                                    00 00 00 00|            ....|        occur: "1975-01-01T00:00:03Z" (157766403) 0x1ec-0x1f3.7 (8)
0x1f0|09 67 53 03                                    |.gS.            |
0x1f0|            00 00 00 04                        |    ....        |        corr: 4 0x1f4-0x1f7.7 (4)
     |                                               |                |      [4]{}: leap_second_record 0x1f8-0x203.7 (12)
0x1f0|                        00 00 00 00 0b 48 86 84|        .....H..|        occur: "1976-01-01T00:00:04Z" (189302404) 0x1f8-0x1ff.7 (8)
0x200|00 00 00 05                                    |....            |        corr: 5 0x200-0x203.7 (4)
     |                                               |                |      [5]{}: leap_second_record 0x204-0x20f.7 (12)
0x200|            00 00 00 00 0d 2b 0b 85            |    .....+..    |        occur: "1977-01-01T00:00:05Z" (220924805) 0x204-0x20b.7 (8)
0x200|                                    00 00 00 06|            ....|        corr: 6 0x20c-0x20f.7 (4)
     |                                               |                |      [6]{}: leap_second_record 0x210-0x21b.7 (12)
0x210|00 00 00 00 0f 0c 3f 06                        |......?.        |        occur: "1978-01-01T00:00:06Z" (252460806) 0x210-0x217.7 (8)
0x210|                        00 00 00 07            |        ....    |        corr: 7 0x218-0x21b.7 (4)
     |                                               |                |      [7]{}: leap_second_record 0x21c-0x227.7 (12)
0x210|                                    00 00 00 00|            ....|        occur: "1979-01-01T00:00:07Z" (283996807) 0x21c-0x223.7 (8)
0x220|10 ed 72 87                                    |..r.            |
0x220|            00 00 00 08                        |    ....        |        corr: 8 0x224-0x227.7 (4)
     |                                               |                |      [8]{}: leap_second_record 0x228-0x233.7 (12)
0x220|                        00 00 00 00 12 ce a6 08|        ........|        occur: "1980-01-01T00:00:08Z" (315532808) 0x228-0x22f.7 (8)
0x230|00 00 00 09                                    |....            |        corr: 9 0x230-0x233.7 (4)
     |                                               |                |      [9]{}: leap_second_record 0x234-0x23f.7 (12)
0x230|            00 00 00 00 15 9f ca 89            |    ........    |        occur: "1981-07-01T00:00:09Z" (362793609) 0x234-0x23b.7 (8)
0x230|                                    00 00 00 0a|            ....|        corr: 10 0x23c-0x23f.7 (4)
     |                                               |                |      [10]{}: leap_second_record 0x240-0x24b.7 (12)
0x240|00 00 00 00 17 80 fe 0a                        |........        |        occur: "1982-07-01T00:00:10Z" (394329610) 0x240-0x247.7 (8)
0x240|                        00 00 00 0b            |        ....    |        corr: 11 0x248-0x24b.7 (4)
     |                                               |                |      [11]{}: leap_second_record 0x24c-0x257.7 (12)
0x240|                                    00 00 00 00|            ....|        occur: "1983-07-01T00:00:11Z" (425865611) 0x24c-0x253.7 (8)
0x250|19 62 31 8b                                    |.b1.            |
0x250|            00 00 00 0c                        |    ....        |        corr: 12 0x254-0x257.7 (4)
     |                                               |                |      [12]{}: leap_second_record 0x258-0x263.7 (12)
0x250|                        00 00 00 00 1d 25 ea 0c|        .....%..|        occur: "1985-07-01T00:00:12Z" (489024012) 0x258-0x25f.7 (8)
0x260|00 00 00 0d                                    |....            |        corr: 13 0x260-0x263.7 (4)
     |                                               |                |      [13]{}: leap_second_record 0x264-0x26f.7 (12)
0x260|            00 00 00 00 21 da e5 0d            |    ....!...    |        occur: "1988-01-01T00:00:13Z" (567993613) 0x264-0x26b.7 (8)
0x260|                                    00 00 00 0e|            ....|        corr: 14 0x26c-0x26f.7 (4)
     |                                               |                |      [14]{}: leap_second_record 0x270-0x27b.7 (12)
0x270|00 00 00 00 25 9e 9d 8e                        |....%...        |        occur: "1990-01-01T00:00:14Z" (631152014) 0x270-0x277.7 (8)
0x270|                        00 00 00 0f            |        ....    |        corr: 15 0x278-0x27b.7 (4)
     |                                               |                |      [15]{}: leap_second_record 0x27c-0x287.7 (12)
0x270|                                    00 00 00 00|            ....|        occur: "1991-01-01T00:00:15Z" (662688015) 0x27c-0x283.7 (8)
0x280|27 7f d1 0f                                    |'...            |
0x280|            00 00 00 10                        |    ....        |        corr: 16 0x284-0x287.7 (4)
     |                                               |                |      [16]{}: leap_second_record 0x288-0x293.7 (12)
0x280|                        00 00 00 00 2a 50 f5 90|        ....*P..|        occur: "1992-07-01T00:00:16Z" (709948816) 0x288-0x28f.7 (8)
0x290|00 00 00 11                                    |....            |        corr: 17 0x290-0x293.7 (4)
     |                                               |                |      [17]{}: leap_second_record 0x294-0x29f.7 (12)
0x290|            00 00 00 00 2c 32 29 11            |    ....,2).    |        occur: "1993-07-01T00:00:17Z" (741484817) 0x294-0x29b.7 (8)
0x290|                                    00 00 00 12|            ....|        corr: 18 0x29c-0x29f.7 (4)
     |                                               |                |      [18]{}: leap_second_record 0x2a0-0x2ab.7 (12)
0x2a0|00 00 00 00 2e 13 5c 92                        |......\.        |        occur: "1994-07-01T00:00:18Z" (773020818) 0x2a0-0x2a7.7 (8)
0x2a0|                        00 00 00 13            |        ....    |        corr: 19 0x2a8-0x2ab.7 (4)
     |                                               |                |      [19]{}: leap_second_record 0x2ac-0x2b7.7 (12)
0x2a0|                                    00 00 00 00|            ....|        occur: "1996-01-01T00:00:19Z" (820454419) 0x2ac-0x2b3.7 (8)
0x2b0|30 e7 24 13                                    |0.$.            |
0x2b0|            00 00 00 14                        |    ....        |        corr: 20 0x2b4-0x2b7.7 (4)
     |                                               |                |      [20]{}: leap_second_record 0x2b8-0x2c3.7 (12)
0x2b0|                        00 00 00 00 33 b8 48 94|        ....3.H.|        occur: "1997-07-01T00:00:20Z" (867715220) 0x2b8-0x2bf.7 (8)
0x2c0|00 00 00 15                                    |....            |        corr: 21 0x2c0-0x2c3.7 (4)
     |                                               |                |      [21]{}: leap_second_record 0x2c4-0x2cf.7 (12)
0x2c0|            00 00 00 00 36 8c 10 15            |    ....6...    |        occur: "1999-01-01T00:00:21Z" (915148821) 0x2c4-0x2cb.7 (8)
0x2c0|                                    00 00 00 16|            ....|        corr: 22 0x2cc-0x2cf.7 (4)
     |                                               |                |      [22]{}: leap_second_record 0x2d0-0x2db.7 (12)
0x2d0|00 00 00 00 43 b7 1b 96                        |....C...        |        occur: "2006-01-01T00:00:22Z" (1136073622) 0x2d0-0x2d7.7 (8)
0x2d0|                        00 00 00 17            |        ....    |        corr: 23 0x2d8-0x2db.7 (4)
     |                                               |                |      [23]{}: leap_second_record 0x2dc-0x2e7.7 (12)
0x2d0|                                    00 00 00 00|            ....|        occur: "2009-01-01T00:00:23Z" (1230768023) 0x2dc-0x2e3.7 (8)
0x2e0|49 5c 07 97                                    |I\..            |
0x2e0|            00 00 00 18                        |    ....        |        corr: 24 0x2e4-0x2e7.7 (4)
     |                                               |                |      [24]{}: leap_second_record 0x2e8-0x2f3.7 (12)
0x2e0|                        00 00 00 00 4f ef 93 18|        ....O...|        occur: "2012-07-01T00:00:24Z" (1341100824) 0x2e8-0x2ef.7 (8)
0x2f0|00 00 00 19                                    |....            |        corr: 25 0x2f0-0x2f3.7 (4)
     |                                               |                |      [25]{}: leap_second_record 0x2f4-0x2ff.7 (12)
0x2f0|            00 00 00 00 55 93 2d 99            |    ....U.-.    |        occur: "2015-07-01T00:00:25Z" (1435708825) 0x2f4-0x2fb.7 (8)
0x2f0|                                    00 00 00 1a|            ....|        corr: 26 0x2fc-0x2ff.7 (4)
     |                                               |                |      [26]{}: leap_second_record 0x300-0x30b.7 (12)
0x300|00 00 00 00 58 68 46 9a                        |....XhF.        |        occur: "2017-01-01T00:00:26Z" (1483228826) 0x300-0x307.7 (8)
0x300|                        00 00 00 1b            |        ....    |        corr: 27 0x308-0x30b.7 (4)
     |                                               |                |    standard_wall_indicators[0:0]: 0x30c-NA (0)
     |                                               |                |    ut_local_indicators[0:0]: 0x30c-NA (0)
     |                                               |                |  footer{}: 0x30c-0x30d.7 (2)
0x300|                                    0a         |            .   |    nl1: 10 (valid) 0x30c-0x30c.7 (1)
     |                                               |                |    tz_string: "" 0x30d-NA (0)
0x300|                                       0a|     |             .| |    nl2: 10 (valid) 0x30d-0x30d.7 (1)
