$ fq -d tzif dv Martinique
     |00 01 02 03 04 05 06 07 08 09 0a 0b 0c 0d 0e 0f|0123456789abcdef|.{}: Martinique (tzif) 0x0-0x30e (782)
     |                                               |                |  v1header{}: 0x0-0x2c (44)
0x000|54 5a 69 66                                    |TZif            |    magic: 0x545a6966 (valid) 0x0-0x4 (4)
0x000|            32                                 |    2           |    ver: "2" (0x32) (valid) 0x4-0x5 (1)
0x000|               00 00 00 00 00 00 00 00 00 00 00|     ...........|    reserved: raw bits 0x5-0x14 (15)
0x010|00 00 00 00                                    |....            |
0x010|            00 00 00 00                        |    ....        |    isutcnt: 0 0x14-0x18 (4)
0x010|                        00 00 00 00            |        ....    |    isstdcnt: 0 0x18-0x1c (4)
0x010|                                    00 00 00 1b|            ....|    leapcnt: 27 0x1c-0x20 (4)
0x020|00 00 00 05                                    |....            |    timecnt: 5 0x20-0x24 (4)
0x020|            00 00 00 04                        |    ....        |    typecnt: 4 0x24-0x28 (4)
0x020|                        00 00 00 11            |        ....    |    charcnt: 17 0x28-0x2c (4)
     |                                               |                |  v1datablock{}: 0x2c-0x146 (282)
     |                                               |                |    transition_times[0:5]: 0x2c-0x40 (20)
0x020|                                    80 00 00 00|            ....|      [0]: "1901-12-13T20:45:52Z" (-2147483648) transition_time 0x2c-0x30 (4)
0x030|91 a3 c8 44                                    |...D            |      [1]: "1911-05-01T04:04:20Z" (-1851537340) transition_time 0x30-0x34 (4)
0x030|            13 4d 6e 49                        |    .MnI        |      [2]: "1980-04-06T04:00:09Z" (323841609) transition_time 0x34-0x38 (4)
0x030|                        14 34 16 b9            |        .4..    |      [3]: "1980-09-28T03:00:09Z" (338958009) transition_time 0x38-0x3c (4)
0x030|                                    64 9b 78 1b|            d.x.|      [4]: "2023-06-28T00:00:27Z" (1687910427) transition_time 0x3c-0x40 (4)
     |                                               |                |    transition_types[0:5]: 0x40-0x45 (5)
0x040|01                                             |.               |      [0]: 1 transition_type 0x40-0x41 (1)
0x040|   02                                          | .              |      [1]: 2 transition_type 0x41-0x42 (1)
0x040|      03                                       |  .             |      [2]: 3 transition_type 0x42-0x43 (1)
0x040|         02                                    |   .            |      [3]: 2 transition_type 0x43-0x44 (1)
0x040|            02                                 |    .           |      [4]: 2 transition_type 0x44-0x45 (1)
     |                                               |                |    local_time_type_records[0:4]: 0x45-0x5d (24)
     |                                               |                |      [0]{}: local_time_type 0x45-0x4b (6)
0x040|               ff ff c6 bc                     |     ....       |        utoff: -14660 (valid) 0x45-0x49 (4)
0x040|                           00                  |         .      |        dst: 0 (valid) 0x49-0x4a (1)
0x040|                              00               |          .     |        idx: 0 (valid) 0x4a-0x4b (1)
     |                                               |                |      [1]{}: local_time_type 0x4b-0x51 (6)
0x040|                                 ff ff c6 bc   |           .... |        utoff: -14660 (valid) 0x4b-0x4f (4)
0x040|                                             00|               .|        dst: 0 (valid) 0x4f-0x50 (1)
0x050|04                                             |.               |        idx: 4 (valid) 0x50-0x51 (1)
     |                                               |                |      [2]{}: local_time_type 0x51-0x57 (6)
0x050|   ff ff c7 c0                                 | ....           |        utoff: -14400 (valid) 0x51-0x55 (4)
0x050|               00                              |     .          |        dst: 0 (valid) 0x55-0x56 (1)
0x050|                  09                           |      .         |        idx: 9 (valid) 0x56-0x57 (1)
     |                                               |                |      [3]{}: local_time_type 0x57-0x5d (6)
0x050|                     ff ff d5 d0               |       ....     |        utoff: -10800 (valid) 0x57-0x5b (4)
0x050|                                 01            |           .    |        dst: 1 (valid) 0x5b-0x5c (1)
0x050|                                    0d         |            .   |        idx: 13 (valid) 0x5c-0x5d (1)
     |                                               |                |    time_zone_designations[0:4]: 0x5d-0x6e (17)
0x050|                                       4c 4d 54|             LMT|      [0]: "LMT" time_zone_designation 0x5d-0x61 (4)
0x060|00                                             |.               |
0x060|   46 46 4d 54 00                              | FFMT.          |      [1]: "FFMT" time_zone_designation 0x61-0x66 (5)
0x060|                  41 53 54 00                  |      AST.      |      [2]: "AST" time_zone_designation 0x66-0x6a (4)
0x060|                              41 44 54 00      |          ADT.  |      [3]: "ADT" time_zone_designation 0x6a-0x6e (4)
     |                                               |                |    leap_second_records[0:27]: 0x6e-0x146 (216)
     |                                               |                |      [0]{}: leap_second_record 0x6e-0x76 (8)
0x060|                                          04 b2|              ..|        occur: "1972-07-01T00:00:00Z" (78796800) 0x6e-0x72 (4)
0x070|58 00                                          |X.              |
0x070|      00 00 00 01                              |  ....          |        corr: 1 0x72-0x76 (4)
     |                                               |                |      [1]{}: leap_second_record 0x76-0x7e (8)
0x070|                  05 a4 ec 01                  |      ....      |        occur: "1973-01-01T00:00:01Z" (94694401) 0x76-0x7a (4)
0x070|                              00 00 00 02      |          ....  |        corr: 2 0x7a-0x7e (4)
     |                                               |                |      [2]{}: leap_second_record 0x7e-0x86 (8)
0x070|                                          07 86|              ..|        occur: "1974-01-01T00:00:02Z" (126230402) 0x7e-0x82 (4)
0x080|1f 82                                          |..              |
0x080|      00 00 00 03                              |  ....          |        corr: 3 0x82-0x86 (4)
     |                                               |                |      [3]{}: leap_second_record 0x86-0x8e (8)
0x080|                  09 67 53 03                  |      .gS.      |        occur: "1975-01-01T00:00:03Z" (157766403) 0x86-0x8a (4)
0x080|                              00 00 00 04      |          ....  |        corr: 4 0x8a-0x8e (4)
     |                                               |                |      [4]{}: leap_second_record 0x8e-0x96 (8)
0x080|                                          0b 48|              .H|        occur: "1976-01-01T00:00:04Z" (189302404) 0x8e-0x92 (4)
0x090|86 84                                          |..              |
0x090|      00 00 00 05                              |  ....          |        corr: 5 0x92-0x96 (4)
     |                                               |                |      [5]{}: leap_second_record 0x96-0x9e (8)
0x090|                  0d 2b 0b 85                  |      .+..      |        occur: "1977-01-01T00:00:05Z" (220924805) 0x96-0x9a (4)
0x090|                              00 00 00 06      |          ....  |        corr: 6 0x9a-0x9e (4)
     |                                               |                |      [6]{}: leap_second_record 0x9e-0xa6 (8)
0x090|                                          0f 0c|              ..|        occur: "1978-01-01T00:00:06Z" (252460806) 0x9e-0xa2 (4)
0x0a0|3f 06                                          |?.              |
0x0a0|      00 00 00 07                              |  ....          |        corr: 7 0xa2-0xa6 (4)
     |                                               |                |      [7]{}: leap_second_record 0xa6-0xae (8)
0x0a0|                  10 ed 72 87                  |      ..r.      |        occur: "1979-01-01T00:00:07Z" (283996807) 0xa6-0xaa (4)
0x0a0|                              00 00 00 08      |          ....  |        corr: 8 0xaa-0xae (4)
     |                                               |                |      [8]{}: leap_second_record 0xae-0xb6 (8)
0x0a0|                                          12 ce|              ..|        occur: "1980-01-01T00:00:08Z" (315532808) 0xae-0xb2 (4)
0x0b0|a6 08                                          |..              |
0x0b0|      00 00 00 09                              |  ....          |        corr: 9 0xb2-0xb6 (4)
     |                                               |                |      [9]{}: leap_second_record 0xb6-0xbe (8)
0x0b0|                  15 9f ca 89                  |      ....      |        occur: "1981-07-01T00:00:09Z" (362793609) 0xb6-0xba (4)
0x0b0|                              00 00 00 0a      |          ....  |        corr: 10 0xba-0xbe (4)
     |                                               |                |      [10]{}: leap_second_record 0xbe-0xc6 (8)
0x0b0|                                          17 80|              ..|        occur: "1982-07-01T00:00:10Z" (394329610) 0xbe-0xc2 (4)
0x0c0|fe 0a                                          |..              |
0x0c0|      00 00 00 0b                              |  ....          |        corr: 11 0xc2-0xc6 (4)
     |                                               |                |      [11]{}: leap_second_record 0xc6-0xce (8)
0x0c0|                  19 62 31 8b                  |      .b1.      |        occur: "1983-07-01T00:00:11Z" (425865611) 0xc6-0xca (4)
0x0c0|                              00 00 00 0c      |          ....  |        corr: 12 0xca-0xce (4)
     |                                               |                |      [12]{}: leap_second_record 0xce-0xd6 (8)
0x0c0|                                          1d 25|              .%|        occur: "1985-07-01T00:00:12Z" (489024012) 0xce-0xd2 (4)
0x0d0|ea 0c                                          |..              |
0x0d0|      00 00 00 0d                              |  ....          |        corr: 13 0xd2-0xd6 (4)
     |                                               |                |      [13]{}: leap_second_record 0xd6-0xde (8)
0x0d0|                  21 da e5 0d                  |      !...      |        occur: "1988-01-01T00:00:13Z" (567993613) 0xd6-0xda (4)
0x0d0|                              00 00 00 0e      |          ....  |        corr: 14 0xda-0xde (4)
     |                                               |                |      [14]{}: leap_second_record 0xde-0xe6 (8)
0x0d0|                                          25 9e|              %.|        occur: "1990-01-01T00:00:14Z" (631152014) 0xde-0xe2 (4)
0x0e0|9d 8e                                          |..              |
0x0e0|      00 00 00 0f                              |  ....          |        corr: 15 0xe2-0xe6 (4)
     |                                               |                |      [15]{}: leap_second_record 0xe6-0xee (8)
0x0e0|                  27 7f d1 0f                  |      '...      |        occur: "1991-01-01T00:00:15Z" (662688015) 0xe6-0xea (4)
0x0e0|                              00 00 00 10      |          ....  |        corr: 16 0xea-0xee (4)
     |                                               |                |      [16]{}: leap_second_record 0xee-0xf6 (8)
0x0e0|                                          2a 50|              *P|        occur: "1992-07-01T00:00:16Z" (709948816) 0xee-0xf2 (4)
0x0f0|f5 90                                          |..              |
0x0f0|      00 00 00 11                              |  ....          |        corr: 17 0xf2-0xf6 (4)
     |                                               |                |      [17]{}: leap_second_record 0xf6-0xfe (8)
0x0f0|                  2c 32 29 11                  |      ,2).      |        occur: "1993-07-01T00:00:17Z" (741484817) 0xf6-0xfa (4)
0x0f0|                              00 00 00 12      |          ....  |        corr: 18 0xfa-0xfe (4)
     |                                               |                |      [18]{}: leap_second_record 0xfe-0x106 (8)
0x0f0|                                          2e 13|              ..|        occur: "1994-07-01T00:00:18Z" (773020818) 0xfe-0x102 (4)
0x100|5c 92                                          |\.              |
0x100|      00 00 00 13                              |  ....          |        corr: 19 0x102-0x106 (4)
     |                                               |                |      [19]{}: leap_second_record 0x106-0x10e (8)
0x100|                  30 e7 24 13                  |      0.$.      |        occur: "1996-01-01T00:00:19Z" (820454419) 0x106-0x10a (4)
0x100|                              00 00 00 14      |          ....  |        corr: 20 0x10a-0x10e (4)
     |                                               |                |      [20]{}: leap_second_record 0x10e-0x116 (8)
0x100|                                          33 b8|              3.|        occur: "1997-07-01T00:00:20Z" (867715220) 0x10e-0x112 (4)
0x110|48 94                                          |H.              |
0x110|      00 00 00 15                              |  ....          |        corr: 21 0x112-0x116 (4)
     |                                               |                |      [21]{}: leap_second_record 0x116-0x11e (8)
0x110|                  36 8c 10 15                  |      6...      |        occur: "1999-01-01T00:00:21Z" (915148821) 0x116-0x11a (4)
0x110|                              00 00 00 16      |          ....  |        corr: 22 0x11a-0x11e (4)
     |                                               |                |      [22]{}: leap_second_record 0x11e-0x126 (8)
0x110|                                          43 b7|              C.|        occur: "2006-01-01T00:00:22Z" (1136073622) 0x11e-0x122 (4)
0x120|1b 96                                          |..              |
0x120|      00 00 00 17                              |  ....          |        corr: 23 0x122-0x126 (4)
     |                                               |                |      [23]{}: leap_second_record 0x126-0x12e (8)
0x120|                  49 5c 07 97                  |      I\..      |        occur: "2009-01-01T00:00:23Z" (1230768023) 0x126-0x12a (4)
0x120|                              00 00 00 18      |          ....  |        corr: 24 0x12a-0x12e (4)
     |                                               |                |      [24]{}: leap_second_record 0x12e-0x136 (8)
0x120|                                          4f ef|              O.|        occur: "2012-07-01T00:00:24Z" (1341100824) 0x12e-0x132 (4)
0x130|93 18                                          |..              |
0x130|      00 00 00 19                              |  ....          |        corr: 25 0x132-0x136 (4)
     |                                               |                |      [25]{}: leap_second_record 0x136-0x13e (8)
0x130|                  55 93 2d 99                  |      U.-.      |        occur: "2015-07-01T00:00:25Z" (1435708825) 0x136-0x13a (4)
0x130|                              00 00 00 1a      |          ....  |        corr: 26 0x13a-0x13e (4)
     |                                               |                |      [26]{}: leap_second_record 0x13e-0x146 (8)
0x130|                                          58 68|              Xh|        occur: "2017-01-01T00:00:26Z" (1483228826) 0x13e-0x142 (4)
0x140|46 9a                                          |F.              |
0x140|      00 00 00 1b                              |  ....          |        corr: 27 0x142-0x146 (4)
     |                                               |                |    standard_wall_indicators[0:0]: 0x146-0x146 (0)
     |                                               |                |    ut_local_indicators[0:0]: 0x146-0x146 (0)
     |                                               |                |  v2plusheader{}: 0x146-0x172 (44)
0x140|                  54 5a 69 66                  |      TZif      |    magic: 0x545a6966 (valid) 0x146-0x14a (4)
0x140|                              32               |          2     |    ver: "2" (0x32) (valid) 0x14a-0x14b (1)
0x140|                                 00 00 00 00 00|           .....|    reserved: raw bits 0x14b-0x15a (15)
0x150|00 00 00 00 00 00 00 00 00 00                  |..........      |
0x150|                              00 00 00 00      |          ....  |    isutcnt: 0 0x15a-0x15e (4)
0x150|                                          00 00|              ..|    isstdcnt: 0 0x15e-0x162 (4)
0x160|00 00                                          |..              |
0x160|      00 00 00 1b                              |  ....          |    leapcnt: 27 0x162-0x166 (4)
0x160|                  00 00 00 05                  |      ....      |    timecnt: 5 0x166-0x16a (4)
0x160|                              00 00 00 04      |          ....  |    typecnt: 4 0x16a-0x16e (4)
0x160|                                          00 00|              ..|    charcnt: 17 0x16e-0x172 (4)
0x170|00 11                                          |..              |
     |                                               |                |  v2plusdatablock{}: 0x172-0x30c (410)
     |                                               |                |    transition_times[0:5]: 0x172-0x19a (40)
0x170|      ff ff ff ff 69 87 14 c4                  |  ....i...      |      [0]: "1890-01-01T04:04:20Z" (-2524506940) transition_time 0x172-0x17a (8)
0x170|                              ff ff ff ff 91 a3|          ......|      [1]: "1911-05-01T04:04:20Z" (-1851537340) transition_time 0x17a-0x182 (8)
0x180|c8 44                                          |.D              |
0x180|      00 00 00 00 13 4d 6e 49                  |  .....MnI      |      [2]: "1980-04-06T04:00:09Z" (323841609) transition_time 0x182-0x18a (8)
0x180|                              00 00 00 00 14 34|          .....4|      [3]: "1980-09-28T03:00:09Z" (338958009) transition_time 0x18a-0x192 (8)
0x190|16 b9                                          |..              |
0x190|      00 00 00 00 64 9b 78 1b                  |  ....d.x.      |      [4]: "2023-06-28T00:00:27Z" (1687910427) transition_time 0x192-0x19a (8)
     |                                               |                |    transition_types[0:5]: 0x19a-0x19f (5)
0x190|                              01               |          .     |      [0]: 1 transition_type 0x19a-0x19b (1)
0x190|                                 02            |           .    |      [1]: 2 transition_type 0x19b-0x19c (1)
0x190|                                    03         |            .   |      [2]: 3 transition_type 0x19c-0x19d (1)
0x190|                                       02      |             .  |      [3]: 2 transition_type 0x19d-0x19e (1)
0x190|                                          02   |              . |      [4]: 2 transition_type 0x19e-0x19f (1)
     |                                               |                |    local_time_type_records[0:4]: 0x19f-0x1b7 (24)
     |                                               |                |      [0]{}: local_time_type 0x19f-0x1a5 (6)
0x190|                                             ff|               .|        utoff: -14660 (valid) 0x19f-0x1a3 (4)
0x1a0|ff c6 bc                                       |...             |
0x1a0|         00                                    |   .            |        dst: 0 (valid) 0x1a3-0x1a4 (1)
0x1a0|            00                                 |    .           |        idx: 0 (valid) 0x1a4-0x1a5 (1)
     |                                               |                |      [1]{}: local_time_type 0x1a5-0x1ab (6)
0x1a0|               ff ff c6 bc                     |     ....       |        utoff: -14660 (valid) 0x1a5-0x1a9 (4)
0x1a0|                           00                  |         .      |        dst: 0 (valid) 0x1a9-0x1aa (1)
0x1a0|                              04               |          .     |        idx: 4 (valid) 0x1aa-0x1ab (1)
     |                                               |                |      [2]{}: local_time_type 0x1ab-0x1b1 (6)
0x1a0|                                 ff ff c7 c0   |           .... |        utoff: -14400 (valid) 0x1ab-0x1af (4)
0x1a0|                                             00|               .|        dst: 0 (valid) 0x1af-0x1b0 (1)
0x1b0|09                                             |.               |        idx: 9 (valid) 0x1b0-0x1b1 (1)
     |                                               |                |      [3]{}: local_time_type 0x1b1-0x1b7 (6)
0x1b0|   ff ff d5 d0                                 | ....           |        utoff: -10800 (valid) 0x1b1-0x1b5 (4)
0x1b0|               01                              |     .          |        dst: 1 (valid) 0x1b5-0x1b6 (1)
0x1b0|                  0d                           |      .         |        idx: 13 (valid) 0x1b6-0x1b7 (1)
     |                                               |                |    time_zone_designations[0:4]: 0x1b7-0x1c8 (17)
0x1b0|                     4c 4d 54 00               |       LMT.     |      [0]: "LMT" time_zone_designation 0x1b7-0x1bb (4)
0x1b0|                                 46 46 4d 54 00|           FFMT.|      [1]: "FFMT" time_zone_designation 0x1bb-0x1c0 (5)
0x1c0|41 53 54 00                                    |AST.            |      [2]: "AST" time_zone_designation 0x1c0-0x1c4 (4)
0x1c0|            41 44 54 00                        |    ADT.        |      [3]: "ADT" time_zone_designation 0x1c4-0x1c8 (4)
     |                                               |                |    leap_second_records[0:27]: 0x1c8-0x30c (324)
     |                                               |                |      [0]{}: leap_second_record 0x1c8-0x1d4 (12)
0x1c0|                        00 00 00 00 04 b2 58 00|        ......X.|        occur: "1972-07-01T00:00:00Z" (78796800) 0x1c8-0x1d0 (8)
0x1d0|00 00 00 01                                    |....            |        corr: 1 0x1d0-0x1d4 (4)
     |                                               |                |      [1]{}: leap_second_record 0x1d4-0x1e0 (12)
0x1d0|            00 00 00 00 05 a4 ec 01            |    ........    |        occur: "1973-01-01T00:00:01Z" (94694401) 0x1d4-0x1dc (8)
0x1d0|                                    00 00 00 02|            ....|        corr: 2 0x1dc-0x1e0 (4)
     |                                               |                |      [2]{}: leap_second_record 0x1e0-0x1ec (12)
0x1e0|00 00 00 00 07 86 1f 82                        |........        |        occur: "1974-01-01T00:00:02Z" (126230402) 0x1e0-0x1e8 (8)
0x1e0|                        00 00 00 03            |        ....    |        corr: 3 0x1e8-0x1ec (4)
     |                                               |                |      [3]{}: leap_second_record 0x1ec-0x1f8 (12)
0x1e0|                                    00 00 00 00|            ....|        occur: "1975-01-01T00:00:03Z" (157766403) 0x1ec-0x1f4 (8)
0x1f0|09 67 53 03                                    |.gS.            |
0x1f0|            00 00 00 04                        |    ....        |        corr: 4 0x1f4-0x1f8 (4)
     |                                               |                |      [4]{}: leap_second_record 0x1f8-0x204 (12)
0x1f0|                        00 00 00 00 0b 48 86 84|        .....H..|        occur: "1976-01-01T00:00:04Z" (189302404) 0x1f8-0x200 (8)
0x200|00 00 00 05                                    |....            |        corr: 5 0x200-0x204 (4)
     |                                               |                |      [5]{}: leap_second_record 0x204-0x210 (12)
0x200|            00 00 00 00 0d 2b 0b 85            |    .....+..    |        occur: "1977-01-01T00:00:05Z" (220924805) 0x204-0x20c (8)
0x200|                                    00 00 00 06|            ....|        corr: 6 0x20c-0x210 (4)
     |                                               |                |      [6]{}: leap_second_record 0x210-0x21c (12)
0x210|00 00 00 00 0f 0c 3f 06                        |......?.        |        occur: "1978-01-01T00:00:06Z" (252460806) 0x210-0x218 (8)
0x210|                        00 00 00 07            |        ....    |        corr: 7 0x218-0x21c (4)
     |                                               |                |      [7]{}: leap_second_record 0x21c-0x228 (12)
0x210|                                    00 00 00 00|            ....|        occur: "1979-01-01T00:00:07Z" (283996807) 0x21c-0x224 (8)
0x220|10 ed 72 87                                    |..r.            |
0x220|            00 00 00 08                        |    ....        |        corr: 8 0x224-0x228 (4)
     |                                               |                |      [8]{}: leap_second_record 0x228-0x234 (12)
0x220|                        00 00 00 00 12 ce a6 08|        ........|        occur: "1980-01-01T00:00:08Z" (315532808) 0x228-0x230 (8)
0x230|00 00 00 09                                    |....            |        corr: 9 0x230-0x234 (4)
     |                                               |                |      [9]{}: leap_second_record 0x234-0x240 (12)
0x230|            00 00 00 00 15 9f ca 89            |    ........    |        occur: "1981-07-01T00:00:09Z" (362793609) 0x234-0x23c (8)
0x230|                                    00 00 00 0a|            ....|        corr: 10 0x23c-0x240 (4)
     |                                               |                |      [10]{}: leap_second_record 0x240-0x24c (12)
0x240|00 00 00 00 17 80 fe 0a                        |........        |        occur: "1982-07-01T00:00:10Z" (394329610) 0x240-0x248 (8)
0x240|                        00 00 00 0b            |        ....    |        corr: 11 0x248-0x24c (4)
     |                                               |                |      [11]{}: leap_second_record 0x24c-0x258 (12)
0x240|                                    00 00 00 00|            ....|        occur: "1983-07-01T00:00:11Z" (425865611) 0x24c-0x254 (8)
0x250|19 62 31 8b                                    |.b1.            |
0x250|            00 00 00 0c                        |    ....        |        corr: 12 0x254-0x258 (4)
     |                                               |                |      [12]{}: leap_second_record 0x258-0x264 (12)
0x250|                        00 00 00 00 1d 25 ea 0c|        .....%..|        occur: "1985-07-01T00:00:12Z" (489024012) 0x258-0x260 (8)
0x260|00 00 00 0d                                    |....            |        corr: 13 0x260-0x264 (4)
     |                                               |                |      [13]{}: leap_second_record 0x264-0x270 (12)
0x260|            00 00 00 00 21 da e5 0d            |    ....!...    |        occur: "1988-01-01T00:00:13Z" (567993613) 0x264-0x26c (8)
0x260|                                    00 00 00 0e|            ....|        corr: 14 0x26c-0x270 (4)
     |                                               |                |      [14]{}: leap_second_record 0x270-0x27c (12)
0x270|00 00 00 00 25 9e 9d 8e                        |....%...        |        occur: "1990-01-01T00:00:14Z" (631152014) 0x270-0x278 (8)
0x270|                        00 00 00 0f            |        ....    |        corr: 15 0x278-0x27c (4)
     |                                               |                |      [15]{}: leap_second_record 0x27c-0x288 (12)
0x270|                                    00 00 00 00|            ....|        occur: "1991-01-01T00:00:15Z" (662688015) 0x27c-0x284 (8)
0x280|27 7f d1 0f                                    |'...            |
0x280|            00 00 00 10                        |    ....        |        corr: 16 0x284-0x288 (4)
     |                                               |                |      [16]{}: leap_second_record 0x288-0x294 (12)
0x280|                        00 00 00 00 2a 50 f5 90|        ....*P..|        occur: "1992-07-01T00:00:16Z" (709948816) 0x288-0x290 (8)
0x290|00 00 00 11                                    |....            |        corr: 17 0x290-0x294 (4)
     |                                               |                |      [17]{}: leap_second_record 0x294-0x2a0 (12)
0x290|            00 00 00 00 2c 32 29 11            |    ....,2).    |        occur: "1993-07-01T00:00:17Z" (741484817) 0x294-0x29c (8)
0x290|                                    00 00 00 12|            ....|        corr: 18 0x29c-0x2a0 (4)
     |                                               |                |      [18]{}: leap_second_record 0x2a0-0x2ac (12)
0x2a0|00 00 00 00 2e 13 5c 92                        |......\.        |        occur: "1994-07-01T00:00:18Z" (773020818) 0x2a0-0x2a8 (8)
0x2a0|                        00 00 00 13            |        ....    |        corr: 19 0x2a8-0x2ac (4)
     |                                               |                |      [19]{}: leap_second_record 0x2ac-0x2b8 (12)
0x2a0|                                    00 00 00 00|            ....|        occur: "1996-01-01T00:00:19Z" (820454419) 0x2ac-0x2b4 (8)
0x2b0|30 e7 24 13                                    |0.$.            |
0x2b0|            00 00 00 14                        |    ....        |        corr: 20 0x2b4-0x2b8 (4)
     |                                               |                |      [20]{}: leap_second_record 0x2b8-0x2c4 (12)
0x2b0|                        00 00 00 00 33 b8 48 94|        ....3.H.|        occur: "1997-07-01T00:00:20Z" (867715220) 0x2b8-0x2c0 (8)
0x2c0|00 00 00 15                                    |....            |        corr: 21 0x2c0-0x2c4 (4)
     |                                               |                |      [21]{}: leap_second_record 0x2c4-0x2d0 (12)
0x2c0|            00 00 00 00 36 8c 10 15            |    ....6...    |        occur: "1999-01-01T00:00:21Z" (915148821) 0x2c4-0x2cc (8)
0x2c0|                                    00 00 00 16|            ....|        corr: 22 0x2cc-0x2d0 (4)
     |                                               |                |      [22]{}: leap_second_record 0x2d0-0x2dc (12)
0x2d0|00 00 00 00 43 b7 1b 96                        |....C...        |        occur: "2006-01-01T00:00:22Z" (1136073622) 0x2d0-0x2d8 (8)
0x2d0|                        00 00 00 17            |        ....    |        corr: 23 0x2d8-0x2dc (4)
     |                                               |                |      [23]{}: leap_second_record 0x2dc-0x2e8 (12)
0x2d0|                                    00 00 00 00|            ....|        occur: "2009-01-01T00:00:23Z" (1230768023) 0x2dc-0x2e4 (8)
0x2e0|49 5c 07 97                                    |I\..            |
0x2e0|            00 00 00 18                        |    ....        |        corr: 24 0x2e4-0x2e8 (4)
     |                                               |                |      [24]{}: leap_second_record 0x2e8-0x2f4 (12)
0x2e0|                        00 00 00 00 4f ef 93 18|        ....O...|        occur: "2012-07-01T00:00:24Z" (1341100824) 0x2e8-0x2f0 (8)
0x2f0|00 00 00 19                                    |....            |        corr: 25 0x2f0-0x2f4 (4)
     |                                               |                |      [25]{}: leap_second_record 0x2f4-0x300 (12)
0x2f0|            00 00 00 00 55 93 2d 99            |    ....U.-.    |        occur: "2015-07-01T00:00:25Z" (1435708825) 0x2f4-0x2fc (8)
0x2f0|                                    00 00 00 1a|            ....|        corr: 26 0x2fc-0x300 (4)
     |                                               |                |      [26]{}: leap_second_record 0x300-0x30c (12)
0x300|00 00 00 00 58 68 46 9a                        |....XhF.        |        occur: "2017-01-01T00:00:26Z" (1483228826) 0x300-0x308 (8)
0x300|                        00 00 00 1b            |        ....    |        corr: 27 0x308-0x30c (4)
     |                                               |                |    standard_wall_indicators[0:0]: 0x30c-0x30c (0)
     |                                               |                |    ut_local_indicators[0:0]: 0x30c-0x30c (0)
     |                                               |                |  footer{}: 0x30c-0x30e (2)
0x300|                                    0a         |            .   |    nl1: 10 (valid) 0x30c-0x30d (1)
     |                                               |                |    tz_string: "" 0x30d-0x30d (0)
0x300|                                       0a|     |             .| |    nl2: 10 (valid) 0x30d-0x30e (1)
