$ fq -d tzif dv Matamoros
     |00 01 02 03 04 05 06 07 08 09 0a 0b 0c 0d 0e 0f|0123456789abcdef|.{}: Matamoros (tzif) 0x0-0x608 (1544)
     |                                               |                |  v1header{}: 0x0-0x2c (44)
0x000|54 5a 69 66                                    |TZif            |    magic: 0x545a6966 (valid) 0x0-0x4 (4)
0x000|            32                                 |    2           |    ver: "2" (0x32) (valid) 0x4-0x5 (1)
0x000|               00 00 00 00 00 00 00 00 00 00 00|     ...........|    reserved: raw bits 0x5-0x14 (15)
0x010|00 00 00 00                                    |....            |
0x010|            00 00 00 04                        |    ....        |    isutcnt: 4 0x14-0x18 (4)
0x010|                        00 00 00 04            |        ....    |    isstdcnt: 4 0x18-0x1c (4)
0x010|                                    00 00 00 1b|            ....|    leapcnt: 27 0x1c-0x20 (4)
0x020|00 00 00 3b                                    |...;            |    timecnt: 59 0x20-0x24 (4)
0x020|            00 00 00 04                        |    ....        |    typecnt: 4 0x24-0x28 (4)
0x020|                        00 00 00 0c            |        ....    |    charcnt: 12 0x28-0x2c (4)
     |                                               |                |  v1datablock{}: 0x2c-0x257 (555)
     |                                               |                |    transition_times[0:59]: 0x2c-0x118 (236)
0x020|                                    a5 b6 da 60|            ...`|      [0]: "1922-01-01T06:00:00Z" (-1514743200) transition_time 0x2c-0x30 (4)
0x030|22 55 f1 0e                                    |"U..            |      [1]: "1988-04-03T08:00:14Z" (576057614) transition_time 0x30-0x34 (4)
0x030|            23 6a bd fe                        |    #j..        |      [2]: "1988-10-30T07:00:14Z" (594198014) transition_time 0x34-0x38 (4)
0x030|                        31 67 76 14            |        1gv.    |      [3]: "1996-04-07T08:00:20Z" (828864020) transition_time 0x38-0x3c (4)
0x030|                                    32 73 08 84|            2s..|      [4]: "1996-10-27T07:00:20Z" (846399620) transition_time 0x3c-0x40 (4)
0x040|33 47 58 14                                    |3GX.            |      [5]: "1997-04-06T08:00:20Z" (860313620) transition_time 0x40-0x44 (4)
0x040|            34 52 ea 85                        |    4R..        |      [6]: "1997-10-26T07:00:21Z" (877849221) transition_time 0x44-0x48 (4)
0x040|                        35 27 3a 15            |        5':.    |      [7]: "1998-04-05T08:00:21Z" (891763221) transition_time 0x48-0x4c (4)
0x040|                                    36 32 cc 85|            62..|      [8]: "1998-10-25T07:00:21Z" (909298821) transition_time 0x4c-0x50 (4)
0x050|37 07 1c 16                                    |7...            |      [9]: "1999-04-04T08:00:22Z" (923212822) transition_time 0x50-0x54 (4)
0x050|            38 1b e9 06                        |    8...        |      [10]: "1999-10-31T07:00:22Z" (941353222) transition_time 0x54-0x58 (4)
0x050|                        38 e6 fe 16            |        8...    |      [11]: "2000-04-02T08:00:22Z" (954662422) transition_time 0x58-0x5c (4)
0x050|                                    39 fb cb 06|            9...|      [12]: "2000-10-29T07:00:22Z" (972802822) transition_time 0x5c-0x60 (4)
0x060|3a f5 04 96                                    |:...            |      [13]: "2001-05-06T08:00:22Z" (989136022) transition_time 0x60-0x64 (4)
0x060|            3b b6 c3 06                        |    ;...        |      [14]: "2001-09-30T07:00:22Z" (1001833222) transition_time 0x64-0x68 (4)
0x060|                        3c af fc 96            |        <...    |      [15]: "2002-04-07T08:00:22Z" (1018166422) transition_time 0x68-0x6c (4)
0x060|                                    3d bb 8f 06|            =...|      [16]: "2002-10-27T07:00:22Z" (1035702022) transition_time 0x6c-0x70 (4)
0x070|3e 8f de 96                                    |>...            |      [17]: "2003-04-06T08:00:22Z" (1049616022) transition_time 0x70-0x74 (4)
0x070|            3f 9b 71 06                        |    ?.q.        |      [18]: "2003-10-26T07:00:22Z" (1067151622) transition_time 0x74-0x78 (4)
0x070|                        40 6f c0 96            |        @o..    |      [19]: "2004-04-04T08:00:22Z" (1081065622) transition_time 0x78-0x7c (4)
0x070|                                    41 84 8d 86|            A...|      [20]: "2004-10-31T07:00:22Z" (1099206022) transition_time 0x7c-0x80 (4)
0x080|42 4f a2 96                                    |BO..            |      [21]: "2005-04-03T08:00:22Z" (1112515222) transition_time 0x80-0x84 (4)
0x080|            43 64 6f 86                        |    Cdo.        |      [22]: "2005-10-30T07:00:22Z" (1130655622) transition_time 0x84-0x88 (4)
0x080|                        44 2f 84 97            |        D/..    |      [23]: "2006-04-02T08:00:23Z" (1143964823) transition_time 0x88-0x8c (4)
0x080|                                    45 44 51 87|            EDQ.|      [24]: "2006-10-29T07:00:23Z" (1162105223) transition_time 0x8c-0x90 (4)
0x090|46 0f 66 97                                    |F.f.            |      [25]: "2007-04-01T08:00:23Z" (1175414423) transition_time 0x90-0x94 (4)
0x090|            47 24 33 87                        |    G$3.        |      [26]: "2007-10-28T07:00:23Z" (1193554823) transition_time 0x94-0x98 (4)
0x090|                        47 f8 83 17            |        G...    |      [27]: "2008-04-06T08:00:23Z" (1207468823) transition_time 0x98-0x9c (4)
0x090|                                    49 04 15 87|            I...|      [28]: "2008-10-26T07:00:23Z" (1225004423) transition_time 0x9c-0xa0 (4)
0x0a0|49 d8 65 18                                    |I.e.            |      [29]: "2009-04-05T08:00:24Z" (1238918424) transition_time 0xa0-0xa4 (4)
0x0a0|            4a e3 f7 88                        |    J...        |      [30]: "2009-10-25T07:00:24Z" (1256454024) transition_time 0xa4-0xa8 (4)
0x0a0|                        4b 9c 97 98            |        K...    |      [31]: "2010-03-14T08:00:24Z" (1268553624) transition_time 0xa8-0xac (4)
0x0a0|                                    4c d6 4e 88|            L.N.|      [32]: "2010-11-07T07:00:24Z" (1289113224) transition_time 0xac-0xb0 (4)
0x0b0|4d 7c 79 98                                    |M|y.            |      [33]: "2011-03-13T08:00:24Z" (1300003224) transition_time 0xb0-0xb4 (4)
0x0b0|            4e b6 30 88                        |    N.0.        |      [34]: "2011-11-06T07:00:24Z" (1320562824) transition_time 0xb4-0xb8 (4)
0x0b0|                        4f 5c 5b 98            |        O\[.    |      [35]: "2012-03-11T08:00:24Z" (1331452824) transition_time 0xb8-0xbc (4)
0x0b0|                                    50 96 12 89|            P...|      [36]: "2012-11-04T07:00:25Z" (1352012425) transition_time 0xbc-0xc0 (4)
0x0c0|51 3c 3d 99                                    |Q<=.            |      [37]: "2013-03-10T08:00:25Z" (1362902425) transition_time 0xc0-0xc4 (4)
0x0c0|            52 75 f4 89                        |    Ru..        |      [38]: "2013-11-03T07:00:25Z" (1383462025) transition_time 0xc4-0xc8 (4)
0x0c0|                        53 1c 1f 99            |        S...    |      [39]: "2014-03-09T08:00:25Z" (1394352025) transition_time 0xc8-0xcc (4)
0x0c0|                                    54 55 d6 89|            TU..|      [40]: "2014-11-02T07:00:25Z" (1414911625) transition_time 0xcc-0xd0 (4)
0x0d0|54 fc 01 99                                    |T...            |      [41]: "2015-03-08T08:00:25Z" (1425801625) transition_time 0xd0-0xd4 (4)
0x0d0|            56 35 b8 8a                        |    V5..        |      [42]: "2015-11-01T07:00:26Z" (1446361226) transition_time 0xd4-0xd8 (4)
0x0d0|                        56 e5 1e 1a            |        V...    |      [43]: "2016-03-13T08:00:26Z" (1457856026) transition_time 0xd8-0xdc (4)
0x0d0|                                    58 1e d5 0a|            X...|      [44]: "2016-11-06T07:00:26Z" (1478415626) transition_time 0xdc-0xe0 (4)
0x0e0|58 c5 00 1b                                    |X...            |      [45]: "2017-03-12T08:00:27Z" (1489305627) transition_time 0xe0-0xe4 (4)
0x0e0|            59 fe b7 0b                        |    Y...        |      [46]: "2017-11-05T07:00:27Z" (1509865227) transition_time 0xe4-0xe8 (4)
0x0e0|                        5a a4 e2 1b            |        Z...    |      [47]: "2018-03-11T08:00:27Z" (1520755227) transition_time 0xe8-0xec (4)
0x0e0|                                    5b de 99 0b|            [...|      [48]: "2018-11-04T07:00:27Z" (1541314827) transition_time 0xec-0xf0 (4)
0x0f0|5c 84 c4 1b                                    |\...            |      [49]: "2019-03-10T08:00:27Z" (1552204827) transition_time 0xf0-0xf4 (4)
0x0f0|            5d be 7b 0b                        |    ].{.        |      [50]: "2019-11-03T07:00:27Z" (1572764427) transition_time 0xf4-0xf8 (4)
0x0f0|                        5e 64 a6 1b            |        ^d..    |      [51]: "2020-03-08T08:00:27Z" (1583654427) transition_time 0xf8-0xfc (4)
0x0f0|                                    5f 9e 5d 0b|            _.].|      [52]: "2020-11-01T07:00:27Z" (1604214027) transition_time 0xfc-0x100 (4)
0x100|60 4d c2 9b                                    |`M..            |      [53]: "2021-03-14T08:00:27Z" (1615708827) transition_time 0x100-0x104 (4)
0x100|            61 87 79 8b                        |    a.y.        |      [54]: "2021-11-07T07:00:27Z" (1636268427) transition_time 0x104-0x108 (4)
0x100|                        62 2d a4 9b            |        b-..    |      [55]: "2022-03-13T08:00:27Z" (1647158427) transition_time 0x108-0x10c (4)
0x100|                                    63 67 5b 8b|            cg[.|      [56]: "2022-11-06T07:00:27Z" (1667718027) transition_time 0x10c-0x110 (4)
0x110|64 0d 86 9b                                    |d...            |      [57]: "2023-03-12T08:00:27Z" (1678608027) transition_time 0x110-0x114 (4)
0x110|            64 9b 78 1b                        |    d.x.        |      [58]: "2023-06-28T00:00:27Z" (1687910427) transition_time 0x114-0x118 (4)
     |                                               |                |    transition_types[0:59]: 0x118-0x153 (59)
0x110|                        01                     |        .       |      [0]: 1 transition_type 0x118-0x119 (1)
0x110|                           02                  |         .      |      [1]: 2 transition_type 0x119-0x11a (1)
0x110|                              03               |          .     |      [2]: 3 transition_type 0x11a-0x11b (1)
0x110|                                 02            |           .    |      [3]: 2 transition_type 0x11b-0x11c (1)
0x110|                                    03         |            .   |      [4]: 3 transition_type 0x11c-0x11d (1)
0x110|                                       02      |             .  |      [5]: 2 transition_type 0x11d-0x11e (1)
0x110|                                          03   |              . |      [6]: 3 transition_type 0x11e-0x11f (1)
0x110|                                             02|               .|      [7]: 2 transition_type 0x11f-0x120 (1)
0x120|03                                             |.               |      [8]: 3 transition_type 0x120-0x121 (1)
0x120|   02                                          | .              |      [9]: 2 transition_type 0x121-0x122 (1)
0x120|      03                                       |  .             |      [10]: 3 transition_type 0x122-0x123 (1)
0x120|         02                                    |   .            |      [11]: 2 transition_type 0x123-0x124 (1)
0x120|            03                                 |    .           |      [12]: 3 transition_type 0x124-0x125 (1)
0x120|               02                              |     .          |      [13]: 2 transition_type 0x125-0x126 (1)
0x120|                  03                           |      .         |      [14]: 3 transition_type 0x126-0x127 (1)
0x120|                     02                        |       .        |      [15]: 2 transition_type 0x127-0x128 (1)
0x120|                        03                     |        .       |      [16]: 3 transition_type 0x128-0x129 (1)
0x120|                           02                  |         .      |      [17]: 2 transition_type 0x129-0x12a (1)
0x120|                              03               |          .     |      [18]: 3 transition_type 0x12a-0x12b (1)
0x120|                                 02            |           .    |      [19]: 2 transition_type 0x12b-0x12c (1)
0x120|                                    03         |            .   |      [20]: 3 transition_type 0x12c-0x12d (1)
0x120|                                       02      |             .  |      [21]: 2 transition_type 0x12d-0x12e (1)
0x120|                                          03   |              . |      [22]: 3 transition_type 0x12e-0x12f (1)
0x120|                                             02|               .|      [23]: 2 transition_type 0x12f-0x130 (1)
0x130|03                                             |.               |      [24]: 3 transition_type 0x130-0x131 (1)
0x130|   02                                          | .              |      [25]: 2 transition_type 0x131-0x132 (1)
0x130|      03                                       |  .             |      [26]: 3 transition_type 0x132-0x133 (1)
0x130|         02                                    |   .            |      [27]: 2 transition_type 0x133-0x134 (1)
0x130|            03                                 |    .           |      [28]: 3 transition_type 0x134-0x135 (1)
0x130|               02                              |     .          |      [29]: 2 transition_type 0x135-0x136 (1)
0x130|                  03                           |      .         |      [30]: 3 transition_type 0x136-0x137 (1)
0x130|                     02                        |       .        |      [31]: 2 transition_type 0x137-0x138 (1)
0x130|                        03                     |        .       |      [32]: 3 transition_type 0x138-0x139 (1)
0x130|                           02                  |         .      |      [33]: 2 transition_type 0x139-0x13a (1)
0x130|                              03               |          .     |      [34]: 3 transition_type 0x13a-0x13b (1)
0x130|                                 02            |           .    |      [35]: 2 transition_type 0x13b-0x13c (1)
0x130|                                    03         |            .   |      [36]: 3 transition_type 0x13c-0x13d (1)
0x130|                                       02      |             .  |      [37]: 2 transition_type 0x13d-0x13e (1)
0x130|                                          03   |              . |      [38]: 3 transition_type 0x13e-0x13f (1)
0x130|                                             02|               .|      [39]: 2 transition_type 0x13f-0x140 (1)
0x140|03                                             |.               |      [40]: 3 transition_type 0x140-0x141 (1)
0x140|   02                                          | .              |      [41]: 2 transition_type 0x141-0x142 (1)
0x140|      03                                       |  .             |      [42]: 3 transition_type 0x142-0x143 (1)
0x140|         02                                    |   .            |      [43]: 2 transition_type 0x143-0x144 (1)
0x140|            03                                 |    .           |      [44]: 3 transition_type 0x144-0x145 (1)
0x140|               02                              |     .          |      [45]: 2 transition_type 0x145-0x146 (1)
0x140|                  03                           |      .         |      [46]: 3 transition_type 0x146-0x147 (1)
0x140|                     02                        |       .        |      [47]: 2 transition_type 0x147-0x148 (1)
0x140|                        03                     |        .       |      [48]: 3 transition_type 0x148-0x149 (1)
0x140|                           02                  |         .      |      [49]: 2 transition_type 0x149-0x14a (1)
0x140|                              03               |          .     |      [50]: 3 transition_type 0x14a-0x14b (1)
0x140|                                 02            |           .    |      [51]: 2 transition_type 0x14b-0x14c (1)
0x140|                                    03         |            .   |      [52]: 3 transition_type 0x14c-0x14d (1)
0x140|                                       02      |             .  |      [53]: 2 transition_type 0x14d-0x14e (1)
0x140|                                          03   |              . |      [54]: 3 transition_type 0x14e-0x14f (1)
0x140|                                             02|               .|      [55]: 2 transition_type 0x14f-0x150 (1)
0x150|03                                             |.               |      [56]: 3 transition_type 0x150-0x151 (1)
0x150|   02                                          | .              |      [57]: 2 transition_type 0x151-0x152 (1)
0x150|      02                                       |  .             |      [58]: 2 transition_type 0x152-0x153 (1)
     |                                               |                |    local_time_type_records[0:4]: 0x153-0x16b (24)
     |                                               |                |      [0]{}: local_time_type 0x153-0x159 (6)
0x150|         ff ff a4 98                           |   ....         |        utoff: -23400 (valid) 0x153-0x157 (4)
0x150|                     00                        |       .        |        dst: 0 (valid) 0x157-0x158 (1)
0x150|                        00                     |        .       |        idx: 0 (valid) 0x158-0x159 (1)
     |                                               |                |      [1]{}: local_time_type 0x159-0x15f (6)
0x150|                           ff ff ab a0         |         ....   |        utoff: -21600 (valid) 0x159-0x15d (4)
0x150|                                       00      |             .  |        dst: 0 (valid) 0x15d-0x15e (1)
0x150|                                          04   |              . |        idx: 4 (valid) 0x15e-0x15f (1)
     |                                               |                |      [2]{}: local_time_type 0x15f-0x165 (6)
0x150|                                             ff|               .|        utoff: -18000 (valid) 0x15f-0x163 (4)
0x160|ff b9 b0                                       |...             |
0x160|         01                                    |   .            |        dst: 1 (valid) 0x163-0x164 (1)
0x160|            08                                 |    .           |        idx: 8 (valid) 0x164-0x165 (1)
     |                                               |                |      [3]{}: local_time_type 0x165-0x16b (6)
0x160|               ff ff ab a0                     |     ....       |        utoff: -21600 (valid) 0x165-0x169 (4)
0x160|                           00                  |         .      |        dst: 0 (valid) 0x169-0x16a (1)
0x160|                              04               |          .     |        idx: 4 (valid) 0x16a-0x16b (1)
     |                                               |                |    time_zone_designations[0:3]: 0x16b-0x177 (12)
0x160|                                 4c 4d 54 00   |           LMT. |      [0]: "LMT" time_zone_designation 0x16b-0x16f (4)
0x160|                                             43|               C|      [1]: "CST" time_zone_designation 0x16f-0x173 (4)
0x170|53 54 00                                       |ST.             |
0x170|         43 44 54 00                           |   CDT.         |      [2]: "CDT" time_zone_designation 0x173-0x177 (4)
     |                                               |                |    leap_second_records[0:27]: 0x177-0x24f (216)
     |                                               |                |      [0]{}: leap_second_record 0x177-0x17f (8)
0x170|                     04 b2 58 00               |       ..X.     |        occur: "1972-07-01T00:00:00Z" (78796800) 0x177-0x17b (4)
0x170|                                 00 00 00 01   |           .... |        corr: 1 0x17b-0x17f (4)
     |                                               |                |      [1]{}: leap_second_record 0x17f-0x187 (8)
0x170|                                             05|               .|        occur: "1973-01-01T00:00:01Z" (94694401) 0x17f-0x183 (4)
0x180|a4 ec 01                                       |...             |
0x180|         00 00 00 02                           |   ....         |        corr: 2 0x183-0x187 (4)
     |                                               |                |      [2]{}: leap_second_record 0x187-0x18f (8)
0x180|                     07 86 1f 82               |       ....     |        occur: "1974-01-01T00:00:02Z" (126230402) 0x187-0x18b (4)
0x180|                                 00 00 00 03   |           .... |        corr: 3 0x18b-0x18f (4)
     |                                               |                |      [3]{}: leap_second_record 0x18f-0x197 (8)
0x180|                                             09|               .|        occur: "1975-01-01T00:00:03Z" (157766403) 0x18f-0x193 (4)
0x190|67 53 03                                       |gS.             |
0x190|         00 00 00 04                           |   ....         |        corr: 4 0x193-0x197 (4)
     |                                               |                |      [4]{}: leap_second_record 0x197-0x19f (8)
0x190|                     0b 48 86 84               |       .H..     |        occur: "1976-01-01T00:00:04Z" (189302404) 0x197-0x19b (4)
0x190|                                 00 00 00 05   |           .... |        corr: 5 0x19b-0x19f (4)
     |                                               |                |      [5]{}: leap_second_record 0x19f-0x1a7 (8)
0x190|                                             0d|               .|        occur: "1977-01-01T00:00:05Z" (220924805) 0x19f-0x1a3 (4)
0x1a0|2b 0b 85                                       |+..             |
0x1a0|         00 00 00 06                           |   ....         |        corr: 6 0x1a3-0x1a7 (4)
     |                                               |                |      [6]{}: leap_second_record 0x1a7-0x1af (8)
0x1a0|                     0f 0c 3f 06               |       ..?.     |        occur: "1978-01-01T00:00:06Z" (252460806) 0x1a7-0x1ab (4)
0x1a0|                                 00 00 00 07   |           .... |        corr: 7 0x1ab-0x1af (4)
     |                                               |                |      [7]{}: leap_second_record 0x1af-0x1b7 (8)
0x1a0|                                             10|               .|        occur: "1979-01-01T00:00:07Z" (283996807) 0x1af-0x1b3 (4)
0x1b0|ed 72 87                                       |.r.             |
0x1b0|         00 00 00 08                           |   ....         |        corr: 8 0x1b3-0x1b7 (4)
     |                                               |                |      [8]{}: leap_second_record 0x1b7-0x1bf (8)
0x1b0|                     12 ce a6 08               |       ....     |        occur: "1980-01-01T00:00:08Z" (315532808) 0x1b7-0x1bb (4)
0x1b0|                                 00 00 00 09   |           .... |        corr: 9 0x1bb-0x1bf (4)
     |                                               |                |      [9]{}: leap_second_record 0x1bf-0x1c7 (8)
0x1b0|                                             15|               .|        occur: "1981-07-01T00:00:09Z" (362793609) 0x1bf-0x1c3 (4)
0x1c0|9f ca 89                                       |...             |
0x1c0|         00 00 00 0a                           |   ....         |        corr: 10 0x1c3-0x1c7 (4)
     |                                               |                |      [10]{}: leap_second_record 0x1c7-0x1cf (8)
0x1c0|                     17 80 fe 0a               |       ....     |        occur: "1982-07-01T00:00:10Z" (394329610) 0x1c7-0x1cb (4)
0x1c0|                                 00 00 00 0b   |           .... |        corr: 11 0x1cb-0x1cf (4)
     |                                               |                |      [11]{}: leap_second_record 0x1cf-0x1d7 (8)
0x1c0|                                             19|               .|        occur: "1983-07-01T00:00:11Z" (425865611) 0x1cf-0x1d3 (4)
0x1d0|62 31 8b                                       |b1.             |
0x1d0|         00 00 00 0c                           |   ....         |        corr: 12 0x1d3-0x1d7 (4)
     |                                               |                |      [12]{}: leap_second_record 0x1d7-0x1df (8)
0x1d0|                     1d 25 ea 0c               |       .%..     |        occur: "1985-07-01T00:00:12Z" (489024012) 0x1d7-0x1db (4)
0x1d0|                                 00 00 00 0d   |           .... |        corr: 13 0x1db-0x1df (4)
     |                                               |                |      [13]{}: leap_second_record 0x1df-0x1e7 (8)
0x1d0|                                             21|               !|        occur: "1988-01-01T00:00:13Z" (567993613) 0x1df-0x1e3 (4)
0x1e0|da e5 0d                                       |...             |
0x1e0|         00 00 00 0e                           |   ....         |        corr: 14 0x1e3-0x1e7 (4)
     |                                               |                |      [14]{}: leap_second_record 0x1e7-0x1ef (8)
0x1e0|                     25 9e 9d 8e               |       %...     |        occur: "1990-01-01T00:00:14Z" (631152014) 0x1e7-0x1eb (4)
0x1e0|                                 00 00 00 0f   |           .... |        corr: 15 0x1eb-0x1ef (4)
     |                                               |                |      [15]{}: leap_second_record 0x1ef-0x1f7 (8)
0x1e0|                                             27|               '|        occur: "1991-01-01T00:00:15Z" (662688015) 0x1ef-0x1f3 (4)
0x1f0|7f d1 0f                                       |...             |
0x1f0|         00 00 00 10                           |   ....         |        corr: 16 0x1f3-0x1f7 (4)
     |                                               |                |      [16]{}: leap_second_record 0x1f7-0x1ff (8)
0x1f0|                     2a 50 f5 90               |       *P..     |        occur: "1992-07-01T00:00:16Z" (709948816) 0x1f7-0x1fb (4)
0x1f0|                                 00 00 00 11   |           .... |        corr: 17 0x1fb-0x1ff (4)
     |                                               |                |      [17]{}: leap_second_record 0x1ff-0x207 (8)
0x1f0|                                             2c|               ,|        occur: "1993-07-01T00:00:17Z" (741484817) 0x1ff-0x203 (4)
0x200|32 29 11                                       |2).             |
0x200|         00 00 00 12                           |   ....         |        corr: 18 0x203-0x207 (4)
     |                                               |                |      [18]{}: leap_second_record 0x207-0x20f (8)
0x200|                     2e 13 5c 92               |       ..\.     |        occur: "1994-07-01T00:00:18Z" (773020818) 0x207-0x20b (4)
0x200|                                 00 00 00 13   |           .... |        corr: 19 0x20b-0x20f (4)
     |                                               |                |      [19]{}: leap_second_record 0x20f-0x217 (8)
0x200|                                             30|               0|        occur: "1996-01-01T00:00:19Z" (820454419) 0x20f-0x213 (4)
0x210|e7 24 13                                       |.$.             |
0x210|         00 00 00 14                           |   ....         |        corr: 20 0x213-0x217 (4)
     |                                               |                |      [20]{}: leap_second_record 0x217-0x21f (8)
0x210|                     33 b8 48 94               |       3.H.     |        occur: "1997-07-01T00:00:20Z" (867715220) 0x217-0x21b (4)
0x210|                                 00 00 00 15   |           .... |        corr: 21 0x21b-0x21f (4)
     |                                               |                |      [21]{}: leap_second_record 0x21f-0x227 (8)
0x210|                                             36|               6|        occur: "1999-01-01T00:00:21Z" (915148821) 0x21f-0x223 (4)
0x220|8c 10 15                                       |...             |
0x220|         00 00 00 16                           |   ....         |        corr: 22 0x223-0x227 (4)
     |                                               |                |      [22]{}: leap_second_record 0x227-0x22f (8)
0x220|                     43 b7 1b 96               |       C...     |        occur: "2006-01-01T00:00:22Z" (1136073622) 0x227-0x22b (4)
0x220|                                 00 00 00 17   |           .... |        corr: 23 0x22b-0x22f (4)
     |                                               |                |      [23]{}: leap_second_record 0x22f-0x237 (8)
0x220|                                             49|               I|        occur: "2009-01-01T00:00:23Z" (1230768023) 0x22f-0x233 (4)
0x230|5c 07 97                                       |\..             |
0x230|         00 00 00 18                           |   ....         |        corr: 24 0x233-0x237 (4)
     |                                               |                |      [24]{}: leap_second_record 0x237-0x23f (8)
0x230|                     4f ef 93 18               |       O...     |        occur: "2012-07-01T00:00:24Z" (1341100824) 0x237-0x23b (4)
0x230|                                 00 00 00 19   |           .... |        corr: 25 0x23b-0x23f (4)
     |                                               |                |      [25]{}: leap_second_record 0x23f-0x247 (8)
0x230|                                             55|               U|        occur: "2015-07-01T00:00:25Z" (1435708825) 0x23f-0x243 (4)
0x240|93 2d 99                                       |.-.             |
0x240|         00 00 00 1a                           |   ....         |        corr: 26 0x243-0x247 (4)
     |                                               |                |      [26]{}: leap_second_record 0x247-0x24f (8)
0x240|                     58 68 46 9a               |       XhF.     |        occur: "2017-01-01T00:00:26Z" (1483228826) 0x247-0x24b (4)
0x240|                                 00 00 00 1b   |           .... |        corr: 27 0x24b-0x24f (4)
     |                                               |                |    standard_wall_indicators[0:4]: 0x24f-0x253 (4)
0x240|                                             00|               .|      [0]: 0 standard_wall_indicator (valid) 0x24f-0x250 (1)
0x250|01                                             |.               |      [1]: 1 standard_wall_indicator (valid) 0x250-0x251 (1)
0x250|   00                                          | .              |      [2]: 0 standard_wall_indicator (valid) 0x251-0x252 (1)
0x250|      00                                       |  .             |      [3]: 0 standard_wall_indicator (valid) 0x252-0x253 (1)
     |                                               |                |    ut_local_indicators[0:4]: 0x253-0x257 (4)
0x250|         00                                    |   .            |      [0]: 0 ut_local_indicator (valid) 0x253-0x254 (1)
0x250|            01                                 |    .           |      [1]: 1 ut_local_indicator (valid) 0x254-0x255 (1)
0x250|               00                              |     .          |      [2]: 0 ut_local_indicator (valid) 0x255-0x256 (1)
0x250|                  00                           |      .         |      [3]: 0 ut_local_indicator (valid) 0x256-0x257 (1)
     |                                               |                |  v2plusheader{}: 0x257-0x283 (44)
0x250|                     54 5a 69 66               |       TZif     |    magic: 0x545a6966 (valid) 0x257-0x25b (4)
0x250|                                 32            |           2    |    ver: "2" (0x32) (valid) 0x25b-0x25c (1)
0x250|                                    00 00 00 00|            ....|    reserved: raw bits 0x25c-0x26b (15)
0x260|00 00 00 00 00 00 00 00 00 00 00               |...........     |
0x260|                                 00 00 00 04   |           .... |    isutcnt: 4 0x26b-0x26f (4)
0x260|                                             00|               .|    isstdcnt: 4 0x26f-0x273 (4)
0x270|00 00 04                                       |...             |
0x270|         00 00 00 1b                           |   ....         |    leapcnt: 27 0x273-0x277 (4)
0x270|                     00 00 00 3b               |       ...;     |    timecnt: 59 0x277-0x27b (4)
0x270|                                 00 00 00 04   |           .... |    typecnt: 4 0x27b-0x27f (4)
0x270|                                             00|               .|    charcnt: 12 0x27f-0x283 (4)
0x280|00 00 0c                                       |...             |
     |                                               |                |  v2plusdatablock{}: 0x283-0x606 (899)
     |                                               |                |    transition_times[0:59]: 0x283-0x45b (472)
0x280|         ff ff ff ff a5 b6 da 60               |   .......`     |      [0]: "1922-01-01T06:00:00Z" (-1514743200) transition_time 0x283-0x28b (8)
0x280|                                 00 00 00 00 22|           ...."|      [1]: "1988-04-03T08:00:14Z" (576057614) transition_time 0x28b-0x293 (8)
0x290|55 f1 0e                                       |U..             |
0x290|         00 00 00 00 23 6a bd fe               |   ....#j..     |      [2]: "1988-10-30T07:00:14Z" (594198014) transition_time 0x293-0x29b (8)
0x290|                                 00 00 00 00 31|           ....1|      [3]: "1996-04-07T08:00:20Z" (828864020) transition_time 0x29b-0x2a3 (8)
0x2a0|67 76 14                                       |gv.             |
0x2a0|         00 00 00 00 32 73 08 84               |   ....2s..     |      [4]: "1996-10-27T07:00:20Z" (846399620) transition_time 0x2a3-0x2ab (8)
0x2a0|                                 00 00 00 00 33|           ....3|      [5]: "1997-04-06T08:00:20Z" (860313620) transition_time 0x2ab-0x2b3 (8)
0x2b0|47 58 14                                       |GX.             |
0x2b0|         00 00 00 00 34 52 ea 85               |   ....4R..     |      [6]: "1997-10-26T07:00:21Z" (877849221) transition_time 0x2b3-0x2bb (8)
0x2b0|                                 00 00 00 00 35|           ....5|      [7]: "1998-04-05T08:00:21Z" (891763221) transition_time 0x2bb-0x2c3 (8)
0x2c0|27 3a 15                                       |':.             |
0x2c0|         00 00 00 00 36 32 cc 85               |   ....62..     |      [8]: "1998-10-25T07:00:21Z" (909298821) transition_time 0x2c3-0x2cb (8)
0x2c0|                                 00 00 00 00 37|           ....7|      [9]: "1999-04-04T08:00:22Z" (923212822) transition_time 0x2cb-0x2d3 (8)
0x2d0|07 1c 16                                       |...             |
0x2d0|         00 00 00 00 38 1b e9 06               |   ....8...     |      [10]: "1999-10-31T07:00:22Z" (941353222) transition_time 0x2d3-0x2db (8)
0x2d0|                                 00 00 00 00 38|           ....8|      [11]: "2000-04-02T08:00:22Z" (954662422) transition_time 0x2db-0x2e3 (8)
0x2e0|e6 fe 16                                       |...             |
0x2e0|         00 00 00 00 39 fb cb 06               |   ....9...     |      [12]: "2000-10-29T07:00:22Z" (972802822) transition_time 0x2e3-0x2eb (8)
0x2e0|                                 00 00 00 00 3a|           ....:|      [13]: "2001-05-06T08:00:22Z" (989136022) transition_time 0x2eb-0x2f3 (8)
0x2f0|f5 04 96                                       |...             |
0x2f0|         00 00 00 00 3b b6 c3 06               |   ....;...     |      [14]: "2001-09-30T07:00:22Z" (1001833222) transition_time 0x2f3-0x2fb (8)
0x2f0|                                 00 00 00 00 3c|           ....<|      [15]: "2002-04-07T08:00:22Z" (1018166422) transition_time 0x2fb-0x303 (8)
0x300|af fc 96                                       |...             |
0x300|         00 00 00 00 3d bb 8f 06               |   ....=...     |      [16]: "2002-10-27T07:00:22Z" (1035702022) transition_time 0x303-0x30b (8)
0x300|                                 00 00 00 00 3e|           ....>|      [17]: "2003-04-06T08:00:22Z" (1049616022) transition_time 0x30b-0x313 (8)
0x310|8f de 96                                       |...             |
0x310|         00 00 00 00 3f 9b 71 06               |   ....?.q.     |      [18]: "2003-10-26T07:00:22Z" (1067151622) transition_time 0x313-0x31b (8)
0x310|                                 00 00 00 00 40|           ....@|      [19]: "2004-04-04T08:00:22Z" (1081065622) transition_time 0x31b-0x323 (8)
0x320|6f c0 96                                       |o..             |
0x320|         00 00 00 00 41 84 8d 86               |   ....A...     |      [20]: "2004-10-31T07:00:22Z" (1099206022) transition_time 0x323-0x32b (8)
0x320|                                 00 00 00 00 42|           ....B|      [21]: "2005-04-03T08:00:22Z" (1112515222) transition_time 0x32b-0x333 (8)
0x330|4f a2 96                                       |O..             |
0x330|         00 00 00 00 43 64 6f 86               |   ....Cdo.     |      [22]: "2005-10-30T07:00:22Z" (1130655622) transition_time 0x333-0x33b (8)
0x330|                                 00 00 00 00 44|           ....D|      [23]: "2006-04-02T08:00:23Z" (1143964823) transition_time 0x33b-0x343 (8)
0x340|2f 84 97                                       |/..             |
0x340|         00 00 00 00 45 44 51 87               |   ....EDQ.     |      [24]: "2006-10-29T07:00:23Z" (1162105223) transition_time 0x343-0x34b (8)
0x340|                                 00 00 00 00 46|           ....F|      [25]: "2007-04-01T08:00:23Z" (1175414423) transition_time 0x34b-0x353 (8)
0x350|0f 66 97                                       |.f.             |
0x350|         00 00 00 00 47 24 33 87               |   ....G$3.     |      [26]: "2007-10-28T07:00:23Z" (1193554823) transition_time 0x353-0x35b (8)
0x350|                                 00 00 00 00 47|           ....G|      [27]: "2008-04-06T08:00:23Z" (1207468823) transition_time 0x35b-0x363 (8)
0x360|f8 83 17                                       |...             |
0x360|         00 00 00 00 49 04 15 87               |   ....I...     |      [28]: "2008-10-26T07:00:23Z" (1225004423) transition_time 0x363-0x36b (8)
0x360|                                 00 00 00 00 49|           ....I|      [29]: "2009-04-05T08:00:24Z" (1238918424) transition_time 0x36b-0x373 (8)
0x370|d8 65 18                                       |.e.             |
0x370|         00 00 00 00 4a e3 f7 88               |   ....J...     |      [30]: "2009-10-25T07:00:24Z" (1256454024) transition_time 0x373-0x37b (8)
0x370|                                 00 00 00 00 4b|           ....K|      [31]: "2010-03-14T08:00:24Z" (1268553624) transition_time 0x37b-0x383 (8)
0x380|9c 97 98                                       |...             |
0x380|         00 00 00 00 4c d6 4e 88               |   ....L.N.     |      [32]: "2010-11-07T07:00:24Z" (1289113224) transition_time 0x383-0x38b (8)
0x380|                                 00 00 00 00 4d|           ....M|      [33]: "2011-03-13T08:00:24Z" (1300003224) transition_time 0x38b-0x393 (8)
0x390|7c 79 98                                       ||y.             |
0x390|         00 00 00 00 4e b6 30 88               |   ....N.0.     |      [34]: "2011-11-06T07:00:24Z" (1320562824) transition_time 0x393-0x39b (8)
0x390|                                 00 00 00 00 4f|           ....O|      [35]: "2012-03-11T08:00:24Z" (1331452824) transition_time 0x39b-0x3a3 (8)
0x3a0|5c 5b 98                                       |\[.             |
0x3a0|         00 00 00 00 50 96 12 89               |   ....P...     |      [36]: "2012-11-04T07:00:25Z" (1352012425) transition_time 0x3a3-0x3ab (8)
0x3a0|                                 00 00 00 00 51|           ....Q|      [37]: "2013-03-10T08:00:25Z" (1362902425) transition_time 0x3ab-0x3b3 (8)
0x3b0|3c 3d 99                                       |<=.             |
0x3b0|         00 00 00 00 52 75 f4 89               |   ....Ru..     |      [38]: "2013-11-03T07:00:25Z" (1383462025) transition_time 0x3b3-0x3bb (8)
0x3b0|                                 00 00 00 00 53|           ....S|      [39]: "2014-03-09T08:00:25Z" (1394352025) transition_time 0x3bb-0x3c3 (8)
0x3c0|1c 1f 99                                       |...             |
0x3c0|         00 00 00 00 54 55 d6 89               |   ....TU..     |      [40]: "2014-11-02T07:00:25Z" (1414911625) transition_time 0x3c3-0x3cb (8)
0x3c0|                                 00 00 00 00 54|           ....T|      [41]: "2015-03-08T08:00:25Z" (1425801625) transition_time 0x3cb-0x3d3 (8)
0x3d0|fc 01 99                                       |...             |
0x3d0|         00 00 00 00 56 35 b8 8a               |   ....V5..     |      [42]: "2015-11-01T07:00:26Z" (1446361226) transition_time 0x3d3-0x3db (8)
0x3d0|                                 00 00 00 00 56|           ....V|      [43]: "2016-03-13T08:00:26Z" (1457856026) transition_time 0x3db-0x3e3 (8)
0x3e0|e5 1e 1a                                       |...             |
0x3e0|         00 00 00 00 58 1e d5 0a               |   ....X...     |      [44]: "2016-11-06T07:00:26Z" (1478415626) transition_time 0x3e3-0x3eb (8)
0x3e0|                                 00 00 00 00 58|           ....X|      [45]: "2017-03-12T08:00:27Z" (1489305627) transition_time 0x3eb-0x3f3 (8)
0x3f0|c5 00 1b                                       |...             |
0x3f0|         00 00 00 00 59 fe b7 0b               |   ....Y...     |      [46]: "2017-11-05T07:00:27Z" (1509865227) transition_time 0x3f3-0x3fb (8)
0x3f0|                                 00 00 00 00 5a|           ....Z|      [47]: "2018-03-11T08:00:27Z" (1520755227) transition_time 0x3fb-0x403 (8)
0x400|a4 e2 1b                                       |...             |
0x400|         00 00 00 00 5b de 99 0b               |   ....[...     |      [48]: "2018-11-04T07:00:27Z" (1541314827) transition_time 0x403-0x40b (8)
0x400|                                 00 00 00 00 5c|           ....\|      [49]: "2019-03-10T08:00:27Z" (1552204827) transition_time 0x40b-0x413 (8)
0x410|84 c4 1b                                       |...             |
0x410|         00 00 00 00 5d be 7b 0b               |   ....].{.     |      [50]: "2019-11-03T07:00:27Z" (1572764427) transition_time 0x413-0x41b (8)
0x410|                                 00 00 00 00 5e|           ....^|      [51]: "2020-03-08T08:00:27Z" (1583654427) transition_time 0x41b-0x423 (8)
0x420|64 a6 1b                                       |d..             |
0x420|         00 00 00 00 5f 9e 5d 0b               |   ...._.].     |      [52]: "2020-11-01T07:00:27Z" (1604214027) transition_time 0x423-0x42b (8)
0x420|                                 00 00 00 00 60|           ....`|      [53]: "2021-03-14T08:00:27Z" (1615708827) transition_time 0x42b-0x433 (8)
0x430|4d c2 9b                                       |M..             |
0x430|         00 00 00 00 61 87 79 8b               |   ....a.y.     |      [54]: "2021-11-07T07:00:27Z" (1636268427) transition_time 0x433-0x43b (8)
0x430|                                 00 00 00 00 62|           ....b|      [55]: "2022-03-13T08:00:27Z" (1647158427) transition_time 0x43b-0x443 (8)
0x440|2d a4 9b                                       |-..             |
0x440|         00 00 00 00 63 67 5b 8b               |   ....cg[.     |      [56]: "2022-11-06T07:00:27Z" (1667718027) transition_time 0x443-0x44b (8)
0x440|                                 00 00 00 00 64|           ....d|      [57]: "2023-03-12T08:00:27Z" (1678608027) transition_time 0x44b-0x453 (8)
0x450|0d 86 9b                                       |...             |
0x450|         00 00 00 00 64 9b 78 1b               |   ....d.x.     |      [58]: "2023-06-28T00:00:27Z" (1687910427) transition_time 0x453-0x45b (8)
     |                                               |                |    transition_types[0:59]: 0x45b-0x496 (59)
0x450|                                 01            |           .    |      [0]: 1 transition_type 0x45b-0x45c (1)
0x450|                                    02         |            .   |      [1]: 2 transition_type 0x45c-0x45d (1)
0x450|                                       03      |             .  |      [2]: 3 transition_type 0x45d-0x45e (1)
0x450|                                          02   |              . |      [3]: 2 transition_type 0x45e-0x45f (1)
0x450|                                             03|               .|      [4]: 3 transition_type 0x45f-0x460 (1)
0x460|02                                             |.               |      [5]: 2 transition_type 0x460-0x461 (1)
0x460|   03                                          | .              |      [6]: 3 transition_type 0x461-0x462 (1)
0x460|      02                                       |  .             |      [7]: 2 transition_type 0x462-0x463 (1)
0x460|         03                                    |   .            |      [8]: 3 transition_type 0x463-0x464 (1)
0x460|            02                                 |    .           |      [9]: 2 transition_type 0x464-0x465 (1)
0x460|               03                              |     .          |      [10]: 3 transition_type 0x465-0x466 (1)
0x460|                  02                           |      .         |      [11]: 2 transition_type 0x466-0x467 (1)
0x460|                     03                        |       .        |      [12]: 3 transition_type 0x467-0x468 (1)
0x460|                        02                     |        .       |      [13]: 2 transition_type 0x468-0x469 (1)
0x460|                           03                  |         .      |      [14]: 3 transition_type 0x469-0x46a (1)
0x460|                              02               |          .     |      [15]: 2 transition_type 0x46a-0x46b (1)
0x460|                                 03            |           .    |      [16]: 3 transition_type 0x46b-0x46c (1)
0x460|                                    02         |            .   |      [17]: 2 transition_type 0x46c-0x46d (1)
0x460|                                       03      |             .  |      [18]: 3 transition_type 0x46d-0x46e (1)
0x460|                                          02   |              . |      [19]: 2 transition_type 0x46e-0x46f (1)
0x460|                                             03|               .|      [20]: 3 transition_type 0x46f-0x470 (1)
0x470|02                                             |.               |      [21]: 2 transition_type 0x470-0x471 (1)
0x470|   03                                          | .              |      [22]: 3 transition_type 0x471-0x472 (1)
0x470|      02                                       |  .             |      [23]: 2 transition_type 0x472-0x473 (1)
0x470|         03                                    |   .            |      [24]: 3 transition_type 0x473-0x474 (1)
0x470|            02                                 |    .           |      [25]: 2 transition_type 0x474-0x475 (1)
0x470|               03                              |     .          |      [26]: 3 transition_type 0x475-0x476 (1)
0x470|                  02                           |      .         |      [27]: 2 transition_type 0x476-0x477 (1)
0x470|                     03                        |       .        |      [28]: 3 transition_type 0x477-0x478 (1)
0x470|                        02                     |        .       |      [29]: 2 transition_type 0x478-0x479 (1)
0x470|                           03                  |         .      |      [30]: 3 transition_type 0x479-0x47a (1)
0x470|                              02               |          .     |      [31]: 2 transition_type 0x47a-0x47b (1)
0x470|                                 03            |           .    |      [32]: 3 transition_type 0x47b-0x47c (1)
0x470|                                    02         |            .   |      [33]: 2 transition_type 0x47c-0x47d (1)
0x470|                                       03      |             .  |      [34]: 3 transition_type 0x47d-0x47e (1)
0x470|                                          02   |              . |      [35]: 2 transition_type 0x47e-0x47f (1)
0x470|                                             03|               .|      [36]: 3 transition_type 0x47f-0x480 (1)
0x480|02                                             |.               |      [37]: 2 transition_type 0x480-0x481 (1)
0x480|   03                                          | .              |      [38]: 3 transition_type 0x481-0x482 (1)
0x480|      02                                       |  .             |      [39]: 2 transition_type 0x482-0x483 (1)
0x480|         03                                    |   .            |      [40]: 3 transition_type 0x483-0x484 (1)
0x480|            02                                 |    .           |      [41]: 2 transition_type 0x484-0x485 (1)
0x480|               03                              |     .          |      [42]: 3 transition_type 0x485-0x486 (1)
0x480|                  02                           |      .         |      [43]: 2 transition_type 0x486-0x487 (1)
0x480|                     03                        |       .        |      [44]: 3 transition_type 0x487-0x488 (1)
0x480|                        02                     |        .       |      [45]: 2 transition_type 0x488-0x489 (1)
0x480|                           03                  |         .      |      [46]: 3 transition_type 0x489-0x48a (1)
0x480|                              02               |          .     |      [47]: 2 transition_type 0x48a-0x48b (1)
0x480|                                 03            |           .    |      [48]: 3 transition_type 0x48b-0x48c (1)
0x480|                                    02         |            .   |      [49]: 2 transition_type 0x48c-0x48d (1)
0x480|                                       03      |             .  |      [50]: 3 transition_type 0x48d-0x48e (1)
0x480|                                          02   |              . |      [51]: 2 transition_type 0x48e-0x48f (1)
0x480|                                             03|               .|      [52]: 3 transition_type 0x48f-0x490 (1)
0x490|02                                             |.               |      [53]: 2 transition_type 0x490-0x491 (1)
0x490|   03                                          | .              |      [54]: 3 transition_type 0x491-0x492 (1)
0x490|      02                                       |  .             |      [55]: 2 transition_type 0x492-0x493 (1)
0x490|         03                                    |   .            |      [56]: 3 transition_type 0x493-0x494 (1)
0x490|            02                                 |    .           |      [57]: 2 transition_type 0x494-0x495 (1)
0x490|               02                              |     .          |      [58]: 2 transition_type 0x495-0x496 (1)
     |                                               |                |    local_time_type_records[0:4]: 0x496-0x4ae (24)
     |                                               |                |      [0]{}: local_time_type 0x496-0x49c (6)
0x490|                  ff ff a4 98                  |      ....      |        utoff: -23400 (valid) 0x496-0x49a (4)
0x490|                              00               |          .     |        dst: 0 (valid) 0x49a-0x49b (1)
0x490|                                 00            |           .    |        idx: 0 (valid) 0x49b-0x49c (1)
     |                                               |                |      [1]{}: local_time_type 0x49c-0x4a2 (6)
0x490|                                    ff ff ab a0|            ....|        utoff: -21600 (valid) 0x49c-0x4a0 (4)
0x4a0|00                                             |.               |        dst: 0 (valid) 0x4a0-0x4a1 (1)
0x4a0|   04                                          | .              |        idx: 4 (valid) 0x4a1-0x4a2 (1)
     |                                               |                |      [2]{}: local_time_type 0x4a2-0x4a8 (6)
0x4a0|      ff ff b9 b0                              |  ....          |        utoff: -18000 (valid) 0x4a2-0x4a6 (4)
0x4a0|                  01                           |      .         |        dst: 1 (valid) 0x4a6-0x4a7 (1)
0x4a0|                     08                        |       .        |        idx: 8 (valid) 0x4a7-0x4a8 (1)
     |                                               |                |      [3]{}: local_time_type 0x4a8-0x4ae (6)
0x4a0|                        ff ff ab a0            |        ....    |        utoff: -21600 (valid) 0x4a8-0x4ac (4)
0x4a0|                                    00         |            .   |        dst: 0 (valid) 0x4ac-0x4ad (1)
0x4a0|                                       04      |             .  |        idx: 4 (valid) 0x4ad-0x4ae (1)
     |                                               |                |    time_zone_designations[0:3]: 0x4ae-0x4ba (12)
0x4a0|                                          4c 4d|              LM|      [0]: "LMT" time_zone_designation 0x4ae-0x4b2 (4)
0x4b0|54 00                                          |T.              |
0x4b0|      43 53 54 00                              |  CST.          |      [1]: "CST" time_zone_designation 0x4b2-0x4b6 (4)
0x4b0|                  43 44 54 00                  |      CDT.      |      [2]: "CDT" time_zone_designation 0x4b6-0x4ba (4)
     |                                               |                |    leap_second_records[0:27]: 0x4ba-0x5fe (324)
     |                                               |                |      [0]{}: leap_second_record 0x4ba-0x4c6 (12)
0x4b0|                              00 00 00 00 04 b2|          ......|        occur: "1972-07-01T00:00:00Z" (78796800) 0x4ba-0x4c2 (8)
0x4c0|58 00                                          |X.              |
0x4c0|      00 00 00 01                              |  ....          |        corr: 1 0x4c2-0x4c6 (4)
     |                                               |                |      [1]{}: leap_second_record 0x4c6-0x4d2 (12)
0x4c0|                  00 00 00 00 05 a4 ec 01      |      ........  |        occur: "1973-01-01T00:00:01Z" (94694401) 0x4c6-0x4ce (8)
0x4c0|                                          00 00|              ..|        corr: 2 0x4ce-0x4d2 (4)
0x4d0|00 02                                          |..              |
     |                                               |                |      [2]{}: leap_second_record 0x4d2-0x4de (12)
0x4d0|      00 00 00 00 07 86 1f 82                  |  ........      |        occur: "1974-01-01T00:00:02Z" (126230402) 0x4d2-0x4da (8)
0x4d0|                              00 00 00 03      |          ....  |        corr: 3 0x4da-0x4de (4)
     |                                               |                |      [3]{}: leap_second_record 0x4de-0x4ea (12)
0x4d0|                                          00 00|              ..|        occur: "1975-01-01T00:00:03Z" (157766403) 0x4de-0x4e6 (8)
0x4e0|00 00 09 67 53 03                              |...gS.          |
0x4e0|                  00 00 00 04                  |      ....      |        corr: 4 0x4e6-0x4ea (4)
     |                                               |                |      [4]{}: leap_second_record 0x4ea-0x4f6 (12)
0x4e0|                              00 00 00 00 0b 48|          .....H|        occur: "1976-01-01T00:00:04Z" (189302404) 0x4ea-0x4f2 (8)
0x4f0|86 84                                          |..              |
0x4f0|      00 00 00 05                              |  ....          |        corr: 5 0x4f2-0x4f6 (4)
     |                                               |                |      [5]{}: leap_second_record 0x4f6-0x502 (12)
0x4f0|                  00 00 00 00 0d 2b 0b 85      |      .....+..  |        occur: "1977-01-01T00:00:05Z" (220924805) 0x4f6-0x4fe (8)
0x4f0|                                          00 00|              ..|        corr: 6 0x4fe-0x502 (4)
0x500|00 06                                          |..              |
     |                                               |                |      [6]{}: leap_second_record 0x502-0x50e (12)
0x500|      00 00 00 00 0f 0c 3f 06                  |  ......?.      |        occur: "1978-01-01T00:00:06Z" (252460806) 0x502-0x50a (8)
0x500|                              00 00 00 07      |          ....  |        corr: 7 0x50a-0x50e (4)
     |                                               |                |      [7]{}: leap_second_record 0x50e-0x51a (12)
0x500|                                          00 00|              ..|        occur: "1979-01-01T00:00:07Z" (283996807) 0x50e-0x516 (8)
0x510|00 00 10 ed 72 87                              |....r.          |
0x510|                  00 00 00 08                  |      ....      |        corr: 8 0x516-0x51a (4)
     |                                               |                |      [8]{}: leap_second_record 0x51a-0x526 (12)
0x510|                              00 00 00 00 12 ce|          ......|        occur: "1980-01-01T00:00:08Z" (315532808) 0x51a-0x522 (8)
0x520|a6 08                                          |..              |
0x520|      00 00 00 09                              |  ....          |        corr: 9 0x522-0x526 (4)
     |                                               |                |      [9]{}: leap_second_record 0x526-0x532 (12)
0x520|                  00 00 00 00 15 9f ca 89      |      ........  |        occur: "1981-07-01T00:00:09Z" (362793609) 0x526-0x52e (8)
0x520|                                          00 00|              ..|        corr: 10 0x52e-0x532 (4)
0x530|00 0a                                          |..              |
     |                                               |                |      [10]{}: leap_second_record 0x532-0x53e (12)
0x530|      00 00 00 00 17 80 fe 0a                  |  ........      |        occur: "1982-07-01T00:00:10Z" (394329610) 0x532-0x53a (8)
0x530|                              00 00 00 0b      |          ....  |        corr: 11 0x53a-0x53e (4)
     |                                               |                |      [11]{}: leap_second_record 0x53e-0x54a (12)
0x530|                                          00 00|              ..|        occur: "1983-07-01T00:00:11Z" (425865611) 0x53e-0x546 (8)
0x540|00 00 19 62 31 8b                              |...b1.          |
0x540|                  00 00 00 0c                  |      ....      |        corr: 12 0x546-0x54a (4)
     |                                               |                |      [12]{}: leap_second_record 0x54a-0x556 (12)
0x540|                              00 00 00 00 1d 25|          .....%|        occur: "1985-07-01T00:00:12Z" (489024012) 0x54a-0x552 (8)
0x550|ea 0c                                          |..              |
0x550|      00 00 00 0d                              |  ....          |        corr: 13 0x552-0x556 (4)
     |                                               |                |      [13]{}: leap_second_record 0x556-0x562 (12)
0x550|                  00 00 00 00 21 da e5 0d      |      ....!...  |        occur: "1988-01-01T00:00:13Z" (567993613) 0x556-0x55e (8)
0x550|                                          00 00|              ..|        corr: 14 0x55e-0x562 (4)
0x560|00 0e                                          |..              |
     |                                               |                |      [14]{}: leap_second_record 0x562-0x56e (12)
0x560|      00 00 00 00 25 9e 9d 8e                  |  ....%...      |        occur: "1990-01-01T00:00:14Z" (631152014) 0x562-0x56a (8)
0x560|                              00 00 00 0f      |          ....  |        corr: 15 0x56a-0x56e (4)
     |                                               |                |      [15]{}: leap_second_record 0x56e-0x57a (12)
0x560|                                          00 00|              ..|        occur: "1991-01-01T00:00:15Z" (662688015) 0x56e-0x576 (8)
0x570|00 00 27 7f d1 0f                              |..'...          |
0x570|                  00 00 00 10                  |      ....      |        corr: 16 0x576-0x57a (4)
     |                                               |                |      [16]{}: leap_second_record 0x57a-0x586 (12)
0x570|                              00 00 00 00 2a 50|          ....*P|        occur: "1992-07-01T00:00:16Z" (709948816) 0x57a-0x582 (8)
0x580|f5 90                                          |..              |
0x580|      00 00 00 11                              |  ....          |        corr: 17 0x582-0x586 (4)
     |                                               |                |      [17]{}: leap_second_record 0x586-0x592 (12)
0x580|                  00 00 00 00 2c 32 29 11      |      ....,2).  |        occur: "1993-07-01T00:00:17Z" (741484817) 0x586-0x58e (8)
0x580|                                          00 00|              ..|        corr: 18 0x58e-0x592 (4)
0x590|00 12                                          |..              |
     |                                               |                |      [18]{}: leap_second_record 0x592-0x59e (12)
0x590|      00 00 00 00 2e 13 5c 92                  |  ......\.      |        occur: "1994-07-01T00:00:18Z" (773020818) 0x592-0x59a (8)
0x590|                              00 00 00 13      |          ....  |        corr: 19 0x59a-0x59e (4)
     |                                               |                |      [19]{}: leap_second_record 0x59e-0x5aa (12)
0x590|                                          00 00|              ..|        occur: "1996-01-01T00:00:19Z" (820454419) 0x59e-0x5a6 (8)
0x5a0|00 00 30 e7 24 13                              |..0.$.          |
0x5a0|                  00 00 00 14                  |      ....      |        corr: 20 0x5a6-0x5aa (4)
     |                                               |                |      [20]{}: leap_second_record 0x5aa-0x5b6 (12)
0x5a0|                              00 00 00 00 33 b8|          ....3.|        occur: "1997-07-01T00:00:20Z" (867715220) 0x5aa-0x5b2 (8)
0x5b0|48 94                                          |H.              |
0x5b0|      00 00 00 15                              |  ....          |        corr: 21 0x5b2-0x5b6 (4)
     |                                               |                |      [21]{}: leap_second_record 0x5b6-0x5c2 (12)
0x5b0|                  00 00 00 00 36 8c 10 15      |      ....6...  |        occur: "1999-01-01T00:00:21Z" (915148821) 0x5b6-0x5be (8)
0x5b0|                                          00 00|              ..|        corr: 22 0x5be-0x5c2 (4)
0x5c0|00 16                                          |..              |
     |                                               |                |      [22]{}: leap_second_record 0x5c2-0x5ce (12)
0x5c0|      00 00 00 00 43 b7 1b 96                  |  ....C...      |        occur: "2006-01-01T00:00:22Z" (1136073622) 0x5c2-0x5ca (8)
0x5c0|                              00 00 00 17      |          ....  |        corr: 23 0x5ca-0x5ce (4)
     |                                               |                |      [23]{}: leap_second_record 0x5ce-0x5da (12)
0x5c0|                                          00 00|              ..|        occur: "2009-01-01T00:00:23Z" (1230768023) 0x5ce-0x5d6 (8)
0x5d0|00 00 49 5c 07 97                              |..I\..          |
0x5d0|                  00 00 00 18                  |      ....      |        corr: 24 0x5d6-0x5da (4)
     |                                               |                |      [24]{}: leap_second_record 0x5da-0x5e6 (12)
0x5d0|                              00 00 00 00 4f ef|          ....O.|        occur: "2012-07-01T00:00:24Z" (1341100824) 0x5da-0x5e2 (8)
0x5e0|93 18                                          |..              |
0x5e0|      00 00 00 19                              |  ....          |        corr: 25 0x5e2-0x5e6 (4)
     |                                               |                |      [25]{}: leap_second_record 0x5e6-0x5f2 (12)
0x5e0|                  00 00 00 00 55 93 2d 99      |      ....U.-.  |        occur: "2015-07-01T00:00:25Z" (1435708825) 0x5e6-0x5ee (8)
0x5e0|                                          00 00|              ..|        corr: 26 0x5ee-0x5f2 (4)
0x5f0|00 1a                                          |..              |
     |                                               |                |      [26]{}: leap_second_record 0x5f2-0x5fe (12)
0x5f0|      00 00 00 00 58 68 46 9a                  |  ....XhF.      |        occur: "2017-01-01T00:00:26Z" (1483228826) 0x5f2-0x5fa (8)
0x5f0|                              00 00 00 1b      |          ....  |        corr: 27 0x5fa-0x5fe (4)
     |                                               |                |    standard_wall_indicators[0:4]: 0x5fe-0x602 (4)
0x5f0|                                          00   |              . |      [0]: 0 standard_wall_indicator (valid) 0x5fe-0x5ff (1)
0x5f0|                                             01|               .|      [1]: 1 standard_wall_indicator (valid) 0x5ff-0x600 (1)
0x600|00                                             |.               |      [2]: 0 standard_wall_indicator (valid) 0x600-0x601 (1)
0x600|   00                                          | .              |      [3]: 0 standard_wall_indicator (valid) 0x601-0x602 (1)
     |                                               |                |    ut_local_indicators[0:4]: 0x602-0x606 (4)
0x600|      00                                       |  .             |      [0]: 0 ut_local_indicator (valid) 0x602-0x603 (1)
0x600|         01                                    |   .            |      [1]: 1 ut_local_indicator (valid) 0x603-0x604 (1)
0x600|            00                                 |    .           |      [2]: 0 ut_local_indicator (valid) 0x604-0x605 (1)
0x600|               00                              |     .          |      [3]: 0 ut_local_indicator (valid) 0x605-0x606 (1)
     |                                               |                |  footer{}: 0x606-0x608 (2)
0x600|                  0a                           |      .         |    nl1: 10 (valid) 0x606-0x607 (1)
     |                                               |                |    tz_string: "" 0x607-0x607 (0)
0x600|                     0a|                       |       .|       |    nl2: 10 (valid) 0x607-0x608 (1)
