$ fq -d tzif dv Mazatlan
     |00 01 02 03 04 05 06 07 08 09 0a 0b 0c 0d 0e 0f|0123456789abcdef|.{}: Mazatlan (tzif) 0x0-0x68d.7 (1678)
     |                                               |                |  v1header{}: 0x0-0x2b.7 (44)
0x000|54 5a 69 66                                    |TZif            |    magic: 0x545a6966 (valid) 0x0-0x3.7 (4)
0x000|            32                                 |    2           |    ver: "2" (0x32) (valid) 0x4-0x4.7 (1)
0x000|               00 00 00 00 00 00 00 00 00 00 00|     ...........|    reserved: raw bits 0x5-0x13.7 (15)
0x010|00 00 00 00                                    |....            |
0x010|            00 00 00 07                        |    ....        |    isutcnt: 7 0x14-0x17.7 (4)
0x010|                        00 00 00 07            |        ....    |    isstdcnt: 7 0x18-0x1b.7 (4)
0x010|                                    00 00 00 1b|            ....|    leapcnt: 27 0x1c-0x1f.7 (4)
0x020|00 00 00 40                                    |...@            |    timecnt: 64 0x20-0x23.7 (4)
0x020|            00 00 00 07                        |    ....        |    typecnt: 7 0x24-0x27.7 (4)
0x020|                        00 00 00 14            |        ....    |    charcnt: 20 0x28-0x2b.7 (4)
     |                                               |                |  v1datablock{}: 0x2c-0x28f.7 (612)
     |                                               |                |    transition_times[0:64]: 0x2c-0x12b.7 (256)
0x020|                                    a5 b6 e8 70|            ...p|      [0]: "1922-01-01T07:00:00Z" (-1514739600) transition_time 0x2c-0x2f.7 (4)
0x030|af f2 6e e0                                    |..n.            |      [1]: "1927-06-11T06:00:00Z" (-1343066400) transition_time 0x30-0x33.7 (4)
0x030|            b6 66 56 60                        |    .fV`        |      [2]: "1930-11-15T06:00:00Z" (-1234807200) transition_time 0x34-0x37.7 (4)
0x030|                        b7 43 d2 60            |        .C.`    |      [3]: "1931-05-02T06:00:00Z" (-1220292000) transition_time 0x38-0x3b.7 (4)
0x030|                                    b8 0c 36 60|            ..6`|      [4]: "1931-10-01T06:00:00Z" (-1207159200) transition_time 0x3c-0x3f.7 (4)
0x040|b8 fd 86 f0                                    |....            |      [5]: "1932-04-01T07:00:00Z" (-1191344400) transition_time 0x40-0x43.7 (4)
0x040|            cb ea 71 60                        |    ..q`        |      [6]: "1942-04-24T06:00:00Z" (-873828000) transition_time 0x44-0x47.7 (4)
0x040|                        d8 91 b4 f0            |        ....    |      [7]: "1949-01-14T07:00:00Z" (-661539600) transition_time 0x48-0x4b.7 (4)
0x040|                                    00 00 70 80|            ..p.|      [8]: "1970-01-01T08:00:00Z" (28800) transition_time 0x4c-0x4f.7 (4)
0x050|31 67 84 24                                    |1g.$            |      [9]: "1996-04-07T09:00:20Z" (828867620) transition_time 0x50-0x53.7 (4)
0x050|            32 73 16 94                        |    2s..        |      [10]: "1996-10-27T08:00:20Z" (846403220) transition_time 0x54-0x57.7 (4)
0x050|                        33 47 66 24            |        3Gf$    |      [11]: "1997-04-06T09:00:20Z" (860317220) transition_time 0x58-0x5b.7 (4)
0x050|                                    34 52 f8 95|            4R..|      [12]: "1997-10-26T08:00:21Z" (877852821) transition_time 0x5c-0x5f.7 (4)
0x060|35 27 48 25                                    |5'H%            |      [13]: "1998-04-05T09:00:21Z" (891766821) transition_time 0x60-0x63.7 (4)
0x060|            36 32 da 95                        |    62..        |      [14]: "1998-10-25T08:00:21Z" (909302421) transition_time 0x64-0x67.7 (4)
0x060|                        37 07 2a 26            |        7.*&    |      [15]: "1999-04-04T09:00:22Z" (923216422) transition_time 0x68-0x6b.7 (4)
0x060|                                    38 1b f7 16|            8...|      [16]: "1999-10-31T08:00:22Z" (941356822) transition_time 0x6c-0x6f.7 (4)
0x070|38 e7 0c 26                                    |8..&            |      [17]: "2000-04-02T09:00:22Z" (954666022) transition_time 0x70-0x73.7 (4)
0x070|            39 fb d9 16                        |    9...        |      [18]: "2000-10-29T08:00:22Z" (972806422) transition_time 0x74-0x77.7 (4)
0x070|                        3a f5 12 a6            |        :...    |      [19]: "2001-05-06T09:00:22Z" (989139622) transition_time 0x78-0x7b.7 (4)
0x070|                                    3b b6 d1 16|            ;...|      [20]: "2001-09-30T08:00:22Z" (1001836822) transition_time 0x7c-0x7f.7 (4)
0x080|3c b0 0a a6                                    |<...            |      [21]: "2002-04-07T09:00:22Z" (1018170022) transition_time 0x80-0x83.7 (4)
0x080|            3d bb 9d 16                        |    =...        |      [22]: "2002-10-27T08:00:22Z" (1035705622) transition_time 0x84-0x87.7 (4)
0x080|                        3e 8f ec a6            |        >...    |      [23]: "2003-04-06T09:00:22Z" (1049619622) transition_time 0x88-0x8b.7 (4)
0x080|                                    3f 9b 7f 16|            ?...|      [24]: "2003-10-26T08:00:22Z" (1067155222) transition_time 0x8c-0x8f.7 (4)
0x090|40 6f ce a6                                    |@o..            |      [25]: "2004-04-04T09:00:22Z" (1081069222) transition_time 0x90-0x93.7 (4)
0x090|            41 84 9b 96                        |    A...        |      [26]: "2004-10-31T08:00:22Z" (1099209622) transition_time 0x94-0x97.7 (4)
0x090|                        42 4f b0 a6            |        BO..    |      [27]: "2005-04-03T09:00:22Z" (1112518822) transition_time 0x98-0x9b.7 (4)
0x090|                                    43 64 7d 96|            Cd}.|      [28]: "2005-10-30T08:00:22Z" (1130659222) transition_time 0x9c-0x9f.7 (4)
0x0a0|44 2f 92 a7                                    |D/..            |      [29]: "2006-04-02T09:00:23Z" (1143968423) transition_time 0xa0-0xa3.7 (4)
0x0a0|            45 44 5f 97                        |    ED_.        |      [30]: "2006-10-29T08:00:23Z" (1162108823) transition_time 0xa4-0xa7.7 (4)
0x0a0|                        46 0f 74 a7            |        F.t.    |      [31]: "2007-04-01T09:00:23Z" (1175418023) transition_time 0xa8-0xab.7 (4)
0x0a0|                                    47 24 41 97|            G$A.|      [32]: "2007-10-28T08:00:23Z" (1193558423) transition_time 0xac-0xaf.7 (4)
0x0b0|47 f8 91 27                                    |G..'            |      [33]: "2008-04-06T09:00:23Z" (1207472423) transition_time 0xb0-0xb3.7 (4)
0x0b0|            49 04 23 97                        |    I.#.        |      [34]: "2008-10-26T08:00:23Z" (1225008023) transition_time 0xb4-0xb7.7 (4)
0x0b0|                        49 d8 73 28            |        I.s(    |      [35]: "2009-04-05T09:00:24Z" (1238922024) transition_time 0xb8-0xbb.7 (4)
0x0b0|                                    4a e4 05 98|            J...|      [36]: "2009-10-25T08:00:24Z" (1256457624) transition_time 0xbc-0xbf.7 (4)
0x0c0|4b b8 55 28                                    |K.U(            |      [37]: "2010-04-04T09:00:24Z" (1270371624) transition_time 0xc0-0xc3.7 (4)
0x0c0|            4c cd 22 18                        |    L.".        |      [38]: "2010-10-31T08:00:24Z" (1288512024) transition_time 0xc4-0xc7.7 (4)
0x0c0|                        4d 98 37 28            |        M.7(    |      [39]: "2011-04-03T09:00:24Z" (1301821224) transition_time 0xc8-0xcb.7 (4)
0x0c0|                                    4e ad 04 18|            N...|      [40]: "2011-10-30T08:00:24Z" (1319961624) transition_time 0xcc-0xcf.7 (4)
0x0d0|4f 78 19 28                                    |Ox.(            |      [41]: "2012-04-01T09:00:24Z" (1333270824) transition_time 0xd0-0xd3.7 (4)
0x0d0|            50 8c e6 19                        |    P...        |      [42]: "2012-10-28T08:00:25Z" (1351411225) transition_time 0xd4-0xd7.7 (4)
0x0d0|                        51 61 35 a9            |        Qa5.    |      [43]: "2013-04-07T09:00:25Z" (1365325225) transition_time 0xd8-0xdb.7 (4)
0x0d0|                                    52 6c c8 19|            Rl..|      [44]: "2013-10-27T08:00:25Z" (1382860825) transition_time 0xdc-0xdf.7 (4)
0x0e0|53 41 17 a9                                    |SA..            |      [45]: "2014-04-06T09:00:25Z" (1396774825) transition_time 0xe0-0xe3.7 (4)
0x0e0|            54 4c aa 19                        |    TL..        |      [46]: "2014-10-26T08:00:25Z" (1414310425) transition_time 0xe4-0xe7.7 (4)
0x0e0|                        55 20 f9 a9            |        U ..    |      [47]: "2015-04-05T09:00:25Z" (1428224425) transition_time 0xe8-0xeb.7 (4)
0x0e0|                                    56 2c 8c 1a|            V,..|      [48]: "2015-10-25T08:00:26Z" (1445760026) transition_time 0xec-0xef.7 (4)
0x0f0|57 00 db aa                                    |W...            |      [49]: "2016-04-03T09:00:26Z" (1459674026) transition_time 0xf0-0xf3.7 (4)
0x0f0|            58 15 a8 9a                        |    X...        |      [50]: "2016-10-30T08:00:26Z" (1477814426) transition_time 0xf4-0xf7.7 (4)
0x0f0|                        58 e0 bd ab            |        X...    |      [51]: "2017-04-02T09:00:27Z" (1491123627) transition_time 0xf8-0xfb.7 (4)
0x0f0|                                    59 f5 8a 9b|            Y...|      [52]: "2017-10-29T08:00:27Z" (1509264027) transition_time 0xfc-0xff.7 (4)
0x100|5a c0 9f ab                                    |Z...            |      [53]: "2018-04-01T09:00:27Z" (1522573227) transition_time 0x100-0x103.7 (4)
0x100|            5b d5 6c 9b                        |    [.l.        |      [54]: "2018-10-28T08:00:27Z" (1540713627) transition_time 0x104-0x107.7 (4)
0x100|                        5c a9 bc 2b            |        \..+    |      [55]: "2019-04-07T09:00:27Z" (1554627627) transition_time 0x108-0x10b.7 (4)
0x100|                                    5d b5 4e 9b|            ].N.|      [56]: "2019-10-27T08:00:27Z" (1572163227) transition_time 0x10c-0x10f.7 (4)
0x110|5e 89 9e 2b                                    |^..+            |      [57]: "2020-04-05T09:00:27Z" (1586077227) transition_time 0x110-0x113.7 (4)
0x110|            5f 95 30 9b                        |    _.0.        |      [58]: "2020-10-25T08:00:27Z" (1603612827) transition_time 0x114-0x117.7 (4)
0x110|                        60 69 80 2b            |        `i.+    |      [59]: "2021-04-04T09:00:27Z" (1617526827) transition_time 0x118-0x11b.7 (4)
0x110|                                    61 7e 4d 1b|            a~M.|      [60]: "2021-10-31T08:00:27Z" (1635667227) transition_time 0x11c-0x11f.7 (4)
0x120|62 49 62 2b                                    |bIb+            |      [61]: "2022-04-03T09:00:27Z" (1648976427) transition_time 0x120-0x123.7 (4)
0x120|            63 5e 2f 1b                        |    c^/.        |      [62]: "2022-10-30T08:00:27Z" (1667116827) transition_time 0x124-0x127.7 (4)
0x120|                        64 9b 78 1b            |        d.x.    |      [63]: "2023-06-28T00:00:27Z" (1687910427) transition_time 0x128-0x12b.7 (4)
     |                                               |                |    transition_types[0:64]: 0x12c-0x16b.7 (64)
0x120|                                    01         |            .   |      [0]: 1 transition_type 0x12c-0x12c.7 (1)
0x120|                                       02      |             .  |      [1]: 2 transition_type 0x12d-0x12d.7 (1)
0x120|                                          04   |              . |      [2]: 4 transition_type 0x12e-0x12e.7 (1)
0x120|                                             03|               .|      [3]: 3 transition_type 0x12f-0x12f.7 (1)
0x130|04                                             |.               |      [4]: 4 transition_type 0x130-0x130.7 (1)
0x130|   02                                          | .              |      [5]: 2 transition_type 0x131-0x131.7 (1)
0x130|      04                                       |  .             |      [6]: 4 transition_type 0x132-0x132.7 (1)
0x130|         05                                    |   .            |      [7]: 5 transition_type 0x133-0x133.7 (1)
0x130|            04                                 |    .           |      [8]: 4 transition_type 0x134-0x134.7 (1)
0x130|               03                              |     .          |      [9]: 3 transition_type 0x135-0x135.7 (1)
0x130|                  04                           |      .         |      [10]: 4 transition_type 0x136-0x136.7 (1)
0x130|                     03                        |       .        |      [11]: 3 transition_type 0x137-0x137.7 (1)
0x130|                        04                     |        .       |      [12]: 4 transition_type 0x138-0x138.7 (1)
0x130|                           03                  |         .      |      [13]: 3 transition_type 0x139-0x139.7 (1)
0x130|                              04               |          .     |      [14]: 4 transition_type 0x13a-0x13a.7 (1)
0x130|                                 03            |           .    |      [15]: 3 transition_type 0x13b-0x13b.7 (1)
0x130|                                    04         |            .   |      [16]: 4 transition_type 0x13c-0x13c.7 (1)
0x130|                                       03      |             .  |      [17]: 3 transition_type 0x13d-0x13d.7 (1)
0x130|                                          04   |              . |      [18]: 4 transition_type 0x13e-0x13e.7 (1)
0x130|                                             03|               .|      [19]: 3 transition_type 0x13f-0x13f.7 (1)
0x140|04                                             |.               |      [20]: 4 transition_type 0x140-0x140.7 (1)
0x140|   03                                          | .              |      [21]: 3 transition_type 0x141-0x141.7 (1)
0x140|      04                                       |  .             |      [22]: 4 transition_type 0x142-0x142.7 (1)
0x140|         03                                    |   .            |      [23]: 3 transition_type 0x143-0x143.7 (1)
0x140|            04                                 |    .           |      [24]: 4 transition_type 0x144-0x144.7 (1)
0x140|               03                              |     .          |      [25]: 3 transition_type 0x145-0x145.7 (1)
0x140|                  04                           |      .         |      [26]: 4 transition_type 0x146-0x146.7 (1)
0x140|                     03                        |       .        |      [27]: 3 transition_type 0x147-0x147.7 (1)
0x140|                        04                     |        .       |      [28]: 4 transition_type 0x148-0x148.7 (1)
0x140|                           03                  |         .      |      [29]: 3 transition_type 0x149-0x149.7 (1)
0x140|                              04               |          .     |      [30]: 4 transition_type 0x14a-0x14a.7 (1)
0x140|                                 03            |           .    |      [31]: 3 transition_type 0x14b-0x14b.7 (1)
0x140|                                    04         |            .   |      [32]: 4 transition_type 0x14c-0x14c.7 (1)
0x140|                                       03      |             .  |      [33]: 3 transition_type 0x14d-0x14d.7 (1)
0x140|                                          04   |              . |      [34]: 4 transition_type 0x14e-0x14e.7 (1)
0x140|                                             03|               .|      [35]: 3 transition_type 0x14f-0x14f.7 (1)
0x150|04                                             |.               |      [36]: 4 transition_type 0x150-0x150.7 (1)
0x150|   03                                          | .              |      [37]: 3 transition_type 0x151-0x151.7 (1)
0x150|      04                                       |  .             |      [38]: 4 transition_type 0x152-0x152.7 (1)
0x150|         03                                    |   .            |      [39]: 3 transition_type 0x153-0x153.7 (1)
0x150|            04                                 |    .           |      [40]: 4 transition_type 0x154-0x154.7 (1)
0x150|               03                              |     .          |      [41]: 3 transition_type 0x155-0x155.7 (1)
0x150|                  04                           |      .         |      [42]: 4 transition_type 0x156-0x156.7 (1)
0x150|                     03                        |       .        |      [43]: 3 transition_type 0x157-0x157.7 (1)
0x150|                        04                     |        .       |      [44]: 4 transition_type 0x158-0x158.7 (1)
0x150|                           03                  |         .      |      [45]: 3 transition_type 0x159-0x159.7 (1)
0x150|                              04               |          .     |      [46]: 4 transition_type 0x15a-0x15a.7 (1)
0x150|                                 03            |           .    |      [47]: 3 transition_type 0x15b-0x15b.7 (1)
0x150|                                    04         |            .   |      [48]: 4 transition_type 0x15c-0x15c.7 (1)
0x150|                                       03      |             .  |      [49]: 3 transition_type 0x15d-0x15d.7 (1)
0x150|                                          04   |              . |      [50]: 4 transition_type 0x15e-0x15e.7 (1)
0x150|                                             03|               .|      [51]: 3 transition_type 0x15f-0x15f.7 (1)
0x160|04                                             |.               |      [52]: 4 transition_type 0x160-0x160.7 (1)
0x160|   03                                          | .              |      [53]: 3 transition_type 0x161-0x161.7 (1)
0x160|      04                                       |  .             |      [54]: 4 transition_type 0x162-0x162.7 (1)
0x160|         03                                    |   .            |      [55]: 3 transition_type 0x163-0x163.7 (1)
0x160|            04                                 |    .           |      [56]: 4 transition_type 0x164-0x164.7 (1)
0x160|               03                              |     .          |      [57]: 3 transition_type 0x165-0x165.7 (1)
0x160|                  04                           |      .         |      [58]: 4 transition_type 0x166-0x166.7 (1)
0x160|                     03                        |       .        |      [59]: 3 transition_type 0x167-0x167.7 (1)
0x160|                        04                     |        .       |      [60]: 4 transition_type 0x168-0x168.7 (1)
0x160|                           03                  |         .      |      [61]: 3 transition_type 0x169-0x169.7 (1)
0x160|                              04               |          .     |      [62]: 4 transition_type 0x16a-0x16a.7 (1)
0x160|                                 04            |           .    |      [63]: 4 transition_type 0x16b-0x16b.7 (1)
     |                                               |                |    local_time_type_records[0:7]: 0x16c-0x195.7 (42)
     |                                               |                |      [0]{}: local_time_type 0x16c-0x171.7 (6)
0x160|                                    ff ff 9c 3c|            ...<|        utoff: -25540 (valid) 0x16c-0x16f.7 (4)
0x170|00                                             |.               |        dst: 0 (valid) 0x170-0x170.7 (1)
0x170|   00                                          | .              |        idx: 0 (valid) 0x171-0x171.7 (1)
     |                                               |                |      [1]{}: local_time_type 0x172-0x177.7 (6)
0x170|      ff ff 9d 90                              |  ....          |        utoff: -25200 (valid) 0x172-0x175.7 (4)
0x170|                  00                           |      .         |        dst: 0 (valid) 0x176-0x176.7 (1)
0x170|                     04                        |       .        |        idx: 4 (valid) 0x177-0x177.7 (1)
     |                                               |                |      [2]{}: local_time_type 0x178-0x17d.7 (6)
0x170|                        ff ff ab a0            |        ....    |        utoff: -21600 (valid) 0x178-0x17b.7 (4)
0x170|                                    00         |            .   |        dst: 0 (valid) 0x17c-0x17c.7 (1)
0x170|                                       08      |             .  |        idx: 8 (valid) 0x17d-0x17d.7 (1)
     |                                               |                |      [3]{}: local_time_type 0x17e-0x183.7 (6)
0x170|                                          ff ff|              ..|        utoff: -21600 (valid) 0x17e-0x181.7 (4)
0x180|ab a0                                          |..              |
0x180|      01                                       |  .             |        dst: 1 (valid) 0x182-0x182.7 (1)
0x180|         0c                                    |   .            |        idx: 12 (valid) 0x183-0x183.7 (1)
     |                                               |                |      [4]{}: local_time_type 0x184-0x189.7 (6)
0x180|            ff ff 9d 90                        |    ....        |        utoff: -25200 (valid) 0x184-0x187.7 (4)
0x180|                        00                     |        .       |        dst: 0 (valid) 0x188-0x188.7 (1)
0x180|                           04                  |         .      |        idx: 4 (valid) 0x189-0x189.7 (1)
     |                                               |                |      [5]{}: local_time_type 0x18a-0x18f.7 (6)
0x180|                              ff ff 8f 80      |          ....  |        utoff: -28800 (valid) 0x18a-0x18d.7 (4)
0x180|                                          00   |              . |        dst: 0 (valid) 0x18e-0x18e.7 (1)
0x180|                                             10|               .|        idx: 16 (valid) 0x18f-0x18f.7 (1)
     |                                               |                |      [6]{}: local_time_type 0x190-0x195.7 (6)
0x190|ff ff 9d 90                                    |....            |        utoff: -25200 (valid) 0x190-0x193.7 (4)
0x190|            00                                 |    .           |        dst: 0 (valid) 0x194-0x194.7 (1)
0x190|               04                              |     .          |        idx: 4 (valid) 0x195-0x195.7 (1)
     |                                               |                |    time_zone_designations[0:5]: 0x196-0x1a9.7 (20)
0x190|                  4c 4d 54 00                  |      LMT.      |      [0]: "LMT" time_zone_designation 0x196-0x199.7 (4)
0x190|                              4d 53 54 00      |          MST.  |      [1]: "MST" time_zone_designation 0x19a-0x19d.7 (4)
0x190|                                          43 53|              CS|      [2]: "CST" time_zone_designation 0x19e-0x1a1.7 (4)
0x1a0|54 00                                          |T.              |
0x1a0|      4d 44 54 00                              |  MDT.          |      [3]: "MDT" time_zone_designation 0x1a2-0x1a5.7 (4)
0x1a0|                  50 53 54 00                  |      PST.      |      [4]: "PST" time_zone_designation 0x1a6-0x1a9.7 (4)
     |                                               |                |    leap_second_records[0:27]: 0x1aa-0x281.7 (216)
     |                                               |                |      [0]{}: leap_second_record 0x1aa-0x1b1.7 (8)
0x1a0|                              04 b2 58 00      |          ..X.  |        occur: "1972-07-01T00:00:00Z" (78796800) 0x1aa-0x1ad.7 (4)
0x1a0|                                          00 00|              ..|        corr: 1 0x1ae-0x1b1.7 (4)
0x1b0|00 01                                          |..              |
     |                                               |                |      [1]{}: leap_second_record 0x1b2-0x1b9.7 (8)
0x1b0|      05 a4 ec 01                              |  ....          |        occur: "1973-01-01T00:00:01Z" (94694401) 0x1b2-0x1b5.7 (4)
0x1b0|                  00 00 00 02                  |      ....      |        corr: 2 0x1b6-0x1b9.7 (4)
     |                                               |                |      [2]{}: leap_second_record 0x1ba-0x1c1.7 (8)
0x1b0|                              07 86 1f 82      |          ....  |        occur: "1974-01-01T00:00:02Z" (126230402) 0x1ba-0x1bd.7 (4)
0x1b0|                                          00 00|              ..|        corr: 3 0x1be-0x1c1.7 (4)
0x1c0|00 03                                          |..              |
     |                                               |                |      [3]{}: leap_second_record 0x1c2-0x1c9.7 (8)
0x1c0|      09 67 53 03                              |  .gS.          |        occur: "1975-01-01T00:00:03Z" (157766403) 0x1c2-0x1c5.7 (4)
0x1c0|                  00 00 00 04                  |      ....      |        corr: 4 0x1c6-0x1c9.7 (4)
     |                                               |                |      [4]{}: leap_second_record 0x1ca-0x1d1.7 (8)
0x1c0|                              0b 48 86 84      |          .H..  |        occur: "1976-01-01T00:00:04Z" (189302404) 0x1ca-0x1cd.7 (4)
0x1c0|                                          00 00|              ..|        corr: 5 0x1ce-0x1d1.7 (4)
0x1d0|00 05                                          |..              |
     |                                               |                |      [5]{}: leap_second_record 0x1d2-0x1d9.7 (8)
0x1d0|      0d 2b 0b 85                              |  .+..          |        occur: "1977-01-01T00:00:05Z" (220924805) 0x1d2-0x1d5.7 (4)
0x1d0|                  00 00 00 06                  |      ....      |        corr: 6 0x1d6-0x1d9.7 (4)
     |                                               |                |      [6]{}: leap_second_record 0x1da-0x1e1.7 (8)
0x1d0|                              0f 0c 3f 06      |          ..?.  |        occur: "1978-01-01T00:00:06Z" (252460806) 0x1da-0x1dd.7 (4)
0x1d0|                                          00 00|              ..|        corr: 7 0x1de-0x1e1.7 (4)
0x1e0|00 07                                          |..              |
     |                                               |                |      [7]{}: leap_second_record 0x1e2-0x1e9.7 (8)
0x1e0|      10 ed 72 87                              |  ..r.          |        occur: "1979-01-01T00:00:07Z" (283996807) 0x1e2-0x1e5.7 (4)
0x1e0|                  00 00 00 08                  |      ....      |        corr: 8 0x1e6-0x1e9.7 (4)
     |                                               |                |      [8]{}: leap_second_record 0x1ea-0x1f1.7 (8)
0x1e0|                              12 ce a6 08      |          ....  |        occur: "1980-01-01T00:00:08Z" (315532808) 0x1ea-0x1ed.7 (4)
0x1e0|                                          00 00|              ..|        corr: 9 0x1ee-0x1f1.7 (4)
0x1f0|00 09                                          |..              |
     |                                               |                |      [9]{}: leap_second_record 0x1f2-0x1f9.7 (8)
0x1f0|      15 9f ca 89                              |  ....          |        occur: "1981-07-01T00:00:09Z" (362793609) 0x1f2-0x1f5.7 (4)
0x1f0|                  00 00 00 0a                  |      ....      |        corr: 10 0x1f6-0x1f9.7 (4)
     |                                               |                |      [10]{}: leap_second_record 0x1fa-0x201.7 (8)
0x1f0|                              17 80 fe 0a      |          ....  |        occur: "1982-07-01T00:00:10Z" (394329610) 0x1fa-0x1fd.7 (4)
0x1f0|                                          00 00|              ..|        corr: 11 0x1fe-0x201.7 (4)
0x200|00 0b                                          |..              |
     |                                               |                |      [11]{}: leap_second_record 0x202-0x209.7 (8)
0x200|      19 62 31 8b                              |  .b1.          |        occur: "1983-07-01T00:00:11Z" (425865611) 0x202-0x205.7 (4)
0x200|                  00 00 00 0c                  |      ....      |        corr: 12 0x206-0x209.7 (4)
     |                                               |                |      [12]{}: leap_second_record 0x20a-0x211.7 (8)
0x200|                              1d 25 ea 0c      |          .%..  |        occur: "1985-07-01T00:00:12Z" (489024012) 0x20a-0x20d.7 (4)
0x200|                                          00 00|              ..|        corr: 13 0x20e-0x211.7 (4)
0x210|00 0d                                          |..              |
     |                                               |                |      [13]{}: leap_second_record 0x212-0x219.7 (8)
0x210|      21 da e5 0d                              |  !...          |        occur: "1988-01-01T00:00:13Z" (567993613) 0x212-0x215.7 (4)
0x210|                  00 00 00 0e                  |      ....      |        corr: 14 0x216-0x219.7 (4)
     |                                               |                |      [14]{}: leap_second_record 0x21a-0x221.7 (8)
0x210|                              25 9e 9d 8e      |          %...  |        occur: "1990-01-01T00:00:14Z" (631152014) 0x21a-0x21d.7 (4)
0x210|                                          00 00|              ..|        corr: 15 0x21e-0x221.7 (4)
0x220|00 0f                                          |..              |
     |                                               |                |      [15]{}: leap_second_record 0x222-0x229.7 (8)
0x220|      27 7f d1 0f                              |  '...          |        occur: "1991-01-01T00:00:15Z" (662688015) 0x222-0x225.7 (4)
0x220|                  00 00 00 10                  |      ....      |        corr: 16 0x226-0x229.7 (4)
     |                                               |                |      [16]{}: leap_second_record 0x22a-0x231.7 (8)
0x220|                              2a 50 f5 90      |          *P..  |        occur: "1992-07-01T00:00:16Z" (709948816) 0x22a-0x22d.7 (4)
0x220|                                          00 00|              ..|        corr: 17 0x22e-0x231.7 (4)
0x230|00 11                                          |..              |
     |                                               |                |      [17]{}: leap_second_record 0x232-0x239.7 (8)
0x230|      2c 32 29 11                              |  ,2).          |        occur: "1993-07-01T00:00:17Z" (741484817) 0x232-0x235.7 (4)
0x230|                  00 00 00 12                  |      ....      |        corr: 18 0x236-0x239.7 (4)
     |                                               |                |      [18]{}: leap_second_record 0x23a-0x241.7 (8)
0x230|                              2e 13 5c 92      |          ..\.  |        occur: "1994-07-01T00:00:18Z" (773020818) 0x23a-0x23d.7 (4)
0x230|                                          00 00|              ..|        corr: 19 0x23e-0x241.7 (4)
0x240|00 13                                          |..              |
     |                                               |                |      [19]{}: leap_second_record 0x242-0x249.7 (8)
0x240|      30 e7 24 13                              |  0.$.          |        occur: "1996-01-01T00:00:19Z" (820454419) 0x242-0x245.7 (4)
0x240|                  00 00 00 14                  |      ....      |        corr: 20 0x246-0x249.7 (4)
     |                                               |                |      [20]{}: leap_second_record 0x24a-0x251.7 (8)
0x240|                              33 b8 48 94      |          3.H.  |        occur: "1997-07-01T00:00:20Z" (867715220) 0x24a-0x24d.7 (4)
0x240|                                          00 00|              ..|        corr: 21 0x24e-0x251.7 (4)
0x250|00 15                                          |..              |
     |                                               |                |      [21]{}: leap_second_record 0x252-0x259.7 (8)
0x250|      36 8c 10 15                              |  6...          |        occur: "1999-01-01T00:00:21Z" (915148821) 0x252-0x255.7 (4)
0x250|                  00 00 00 16                  |      ....      |        corr: 22 0x256-0x259.7 (4)
     |                                               |                |      [22]{}: leap_second_record 0x25a-0x261.7 (8)
0x250|                              43 b7 1b 96      |          C...  |        occur: "2006-01-01T00:00:22Z" (1136073622) 0x25a-0x25d.7 (4)
0x250|                                          00 00|              ..|        corr: 23 0x25e-0x261.7 (4)
0x260|00 17                                          |..              |
     |                                               |                |      [23]{}: leap_second_record 0x262-0x269.7 (8)
0x260|      49 5c 07 97                              |  I\..          |        occur: "2009-01-01T00:00:23Z" (1230768023) 0x262-0x265.7 (4)
0x260|                  00 00 00 18                  |      ....      |        corr: 24 0x266-0x269.7 (4)
     |                                               |                |      [24]{}: leap_second_record 0x26a-0x271.7 (8)
0x260|                              4f ef 93 18      |          O...  |        occur: "2012-07-01T00:00:24Z" (1341100824) 0x26a-0x26d.7 (4)
0x260|                                          00 00|              ..|        corr: 25 0x26e-0x271.7 (4)
0x270|00 19                                          |..              |
     |                                               |                |      [25]{}: leap_second_record 0x272-0x279.7 (8)
0x270|      55 93 2d 99                              |  U.-.          |        occur: "2015-07-01T00:00:25Z" (1435708825) 0x272-0x275.7 (4)
0x270|                  00 00 00 1a                  |      ....      |        corr: 26 0x276-0x279.7 (4)
     |                                               |                |      [26]{}: leap_second_record 0x27a-0x281.7 (8)
0x270|                              58 68 46 9a      |          XhF.  |        occur: "2017-01-01T00:00:26Z" (1483228826) 0x27a-0x27d.7 (4)
0x270|                                          00 00|              ..|        corr: 27 0x27e-0x281.7 (4)
0x280|00 1b                                          |..              |
     |                                               |                |    standard_wall_indicators[0:7]: 0x282-0x288.7 (7)
0x280|      00                                       |  .             |      [0]: 0 standard_wall_indicator (valid) 0x282-0x282.7 (1)
0x280|         01                                    |   .            |      [1]: 1 standard_wall_indicator (valid) 0x283-0x283.7 (1)
0x280|            00                                 |    .           |      [2]: 0 standard_wall_indicator (valid) 0x284-0x284.7 (1)
0x280|               00                              |     .          |      [3]: 0 standard_wall_indicator (valid) 0x285-0x285.7 (1)
0x280|                  00                           |      .         |      [4]: 0 standard_wall_indicator (valid) 0x286-0x286.7 (1)
0x280|                     00                        |       .        |      [5]: 0 standard_wall_indicator (valid) 0x287-0x287.7 (1)
0x280|                        00                     |        .       |      [6]: 0 standard_wall_indicator (valid) 0x288-0x288.7 (1)
     |                                               |                |    ut_local_indicators[0:7]: 0x289-0x28f.7 (7)
0x280|                           00                  |         .      |      [0]: 0 ut_local_indicator (valid) 0x289-0x289.7 (1)
0x280|                              01               |          .     |      [1]: 1 ut_local_indicator (valid) 0x28a-0x28a.7 (1)
0x280|                                 00            |           .    |      [2]: 0 ut_local_indicator (valid) 0x28b-0x28b.7 (1)
0x280|                                    00         |            .   |      [3]: 0 ut_local_indicator (valid) 0x28c-0x28c.7 (1)
0x280|                                       00      |             .  |      [4]: 0 ut_local_indicator (valid) 0x28d-0x28d.7 (1)
0x280|                                          00   |              . |      [5]: 0 ut_local_indicator (valid) 0x28e-0x28e.7 (1)
0x280|                                             00|               .|      [6]: 0 ut_local_indicator (valid) 0x28f-0x28f.7 (1)
     |                                               |                |  v2plusheader{}: 0x290-0x2bb.7 (44)
0x290|54 5a 69 66                                    |TZif            |    magic: 0x545a6966 (valid) 0x290-0x293.7 (4)
0x290|            32                                 |    2           |    ver: "2" (0x32) (valid) 0x294-0x294.7 (1)
0x290|               00 00 00 00 00 00 00 00 00 00 00|     ...........|    reserved: raw bits 0x295-0x2a3.7 (15)
0x2a0|00 00 00 00                                    |....            |
0x2a0|            00 00 00 07                        |    ....        |    isutcnt: 7 0x2a4-0x2a7.7 (4)
0x2a0|                        00 00 00 07            |        ....    |    isstdcnt: 7 0x2a8-0x2ab.7 (4)
0x2a0|                                    00 00 00 1b|            ....|    leapcnt: 27 0x2ac-0x2af.7 (4)
0x2b0|00 00 00 40                                    |...@            |    timecnt: 64 0x2b0-0x2b3.7 (4)
0x2b0|            00 00 00 07                        |    ....        |    typecnt: 7 0x2b4-0x2b7.7 (4)
0x2b0|                        00 00 00 14            |        ....    |    charcnt: 20 0x2b8-0x2bb.7 (4)
     |                                               |                |  v2plusdatablock{}: 0x2bc-0x68b.7 (976)
     |                                               |                |    transition_times[0:64]: 0x2bc-0x4bb.7 (512)
0x2b0|                                    ff ff ff ff|            ....|      [0]: "1922-01-01T07:00:00Z" (-1514739600) transition_time 0x2bc-0x2c3.7 (8)
0x2c0|a5 b6 e8 70                                    |...p            |
0x2c0|            ff ff ff ff af f2 6e e0            |    ......n.    |      [1]: "1927-06-11T06:00:00Z" (-1343066400) transition_time 0x2c4-0x2cb.7 (8)
0x2c0|                                    ff ff ff ff|            ....|      [2]: "1930-11-15T06:00:00Z" (-1234807200) transition_time 0x2cc-0x2d3.7 (8)
0x2d0|b6 66 56 60                                    |.fV`            |
0x2d0|            ff ff ff ff b7 43 d2 60            |    .....C.`    |      [3]: "1931-05-02T06:00:00Z" (-1220292000) transition_time 0x2d4-0x2db.7 (8)
0x2d0|                                    ff ff ff ff|            ....|      [4]: "1931-10-01T06:00:00Z" (-1207159200) transition_time 0x2dc-0x2e3.7 (8)
0x2e0|b8 0c 36 60                                    |..6`            |
0x2e0|            ff ff ff ff b8 fd 86 f0            |    ........    |      [5]: "1932-04-01T07:00:00Z" (-1191344400) transition_time 0x2e4-0x2eb.7 (8)
0x2e0|                                    ff ff ff ff|            ....|      [6]: "1942-04-24T06:00:00Z" (-873828000) transition_time 0x2ec-0x2f3.7 (8)
0x2f0|cb ea 71 60                                    |..q`            |
0x2f0|            ff ff ff ff d8 91 b4 f0            |    ........    |      [7]: "1949-01-14T07:00:00Z" (-661539600) transition_time 0x2f4-0x2fb.7 (8)
0x2f0|                                    00 00 00 00|            ....|      [8]: "1970-01-01T08:00:00Z" (28800) transition_time 0x2fc-0x303.7 (8)
0x300|00 00 70 80                                    |..p.            |
0x300|            00 00 00 00 31 67 84 24            |    ....1g.$    |      [9]: "1996-04-07T09:00:20Z" (828867620) transition_time 0x304-0x30b.7 (8)
0x300|                                    00 00 00 00|            ....|      [10]: "1996-10-27T08:00:20Z" (846403220) transition_time 0x30c-0x313.7 (8)
0x310|32 73 16 94                                    |2s..            |
0x310|            00 00 00 00 33 47 66 24            |    ....3Gf$    |      [11]: "1997-04-06T09:00:20Z" (860317220) transition_time 0x314-0x31b.7 (8)
0x310|                                    00 00 00 00|            ....|      [12]: "1997-10-26T08:00:21Z" (877852821) transition_time 0x31c-0x323.7 (8)
0x320|34 52 f8 95                                    |4R..            |
0x320|            00 00 00 00 35 27 48 25            |    ....5'H%    |      [13]: "1998-04-05T09:00:21Z" (891766821) transition_time 0x324-0x32b.7 (8)
0x320|                                    00 00 00 00|            ....|      [14]: "1998-10-25T08:00:21Z" (909302421) transition_time 0x32c-0x333.7 (8)
0x330|36 32 da 95                                    |62..            |
0x330|            00 00 00 00 37 07 2a 26            |    ....7.*&    |      [15]: "1999-04-04T09:00:22Z" (923216422) transition_time 0x334-0x33b.7 (8)
0x330|                                    00 00 00 00|            ....|      [16]: "1999-10-31T08:00:22Z" (941356822) transition_time 0x33c-0x343.7 (8)
0x340|38 1b f7 16                                    |8...            |
0x340|            00 00 00 00 38 e7 0c 26            |    ....8..&    |      [17]: "2000-04-02T09:00:22Z" (954666022) transition_time 0x344-0x34b.7 (8)
0x340|                                    00 00 00 00|            ....|      [18]: "2000-10-29T08:00:22Z" (972806422) transition_time 0x34c-0x353.7 (8)
0x350|39 fb d9 16                                    |9...            |
0x350|            00 00 00 00 3a f5 12 a6            |    ....:...    |      [19]: "2001-05-06T09:00:22Z" (989139622) transition_time 0x354-0x35b.7 (8)
0x350|                                    00 00 00 00|            ....|      [20]: "2001-09-30T08:00:22Z" (1001836822) transition_time 0x35c-0x363.7 (8)
0x360|3b b6 d1 16                                    |;...            |
0x360|            00 00 00 00 3c b0 0a a6            |    ....<...    |      [21]: "2002-04-07T09:00:22Z" (1018170022) transition_time 0x364-0x36b.7 (8)
0x360|                                    00 00 00 00|            ....|      [22]: "2002-10-27T08:00:22Z" (1035705622) transition_time 0x36c-0x373.7 (8)
0x370|3d bb 9d 16                                    |=...            |
0x370|            00 00 00 00 3e 8f ec a6            |    ....>...    |      [23]: "2003-04-06T09:00:22Z" (1049619622) transition_time 0x374-0x37b.7 (8)
0x370|                                    00 00 00 00|            ....|      [24]: "2003-10-26T08:00:22Z" (1067155222) transition_time 0x37c-0x383.7 (8)
0x380|3f 9b 7f 16                                    |?...            |
0x380|            00 00 00 00 40 6f ce a6            |    ....@o..    |      [25]: "2004-04-04T09:00:22Z" (1081069222) transition_time 0x384-0x38b.7 (8)
0x380|                                    00 00 00 00|            ....|      [26]: "2004-10-31T08:00:22Z" (1099209622) transition_time 0x38c-0x393.7 (8)
0x390|41 84 9b 96                                    |A...            |
0x390|            00 00 00 00 42 4f b0 a6            |    ....BO..    |      [27]: "2005-04-03T09:00:22Z" (1112518822) transition_time 0x394-0x39b.7 (8)
0x390|                                    00 00 00 00|            ....|      [28]: "2005-10-30T08:00:22Z" (1130659222) transition_time 0x39c-0x3a3.7 (8)
0x3a0|43 64 7d 96                                    |Cd}.            |
0x3a0|            00 00 00 00 44 2f 92 a7            |    ....D/..    |      [29]: "2006-04-02T09:00:23Z" (1143968423) transition_time 0x3a4-0x3ab.7 (8)
0x3a0|                                    00 00 00 00|            ....|      [30]: "2006-10-29T08:00:23Z" (1162108823) transition_time 0x3ac-0x3b3.7 (8)
0x3b0|45 44 5f 97                                    |ED_.            |
0x3b0|            00 00 00 00 46 0f 74 a7            |    ....F.t.    |      [31]: "2007-04-01T09:00:23Z" (1175418023) transition_time 0x3b4-0x3bb.7 (8)
0x3b0|                                    00 00 00 00|            ....|      [32]: "2007-10-28T08:00:23Z" (1193558423) transition_time 0x3bc-0x3c3.7 (8)
0x3c0|47 24 41 97                                    |G$A.            |
0x3c0|            00 00 00 00 47 f8 91 27            |    ....G..'    |      [33]: "2008-04-06T09:00:23Z" (1207472423) transition_time 0x3c4-0x3cb.7 (8)
0x3c0|                                    00 00 00 00|            ....|      [34]: "2008-10-26T08:00:23Z" (1225008023) transition_time 0x3cc-0x3d3.7 (8)
0x3d0|49 04 23 97                                    |I.#.            |
0x3d0|            00 00 00 00 49 d8 73 28            |    ....I.s(    |      [35]: "2009-04-05T09:00:24Z" (1238922024) transition_time 0x3d4-0x3db.7 (8)
0x3d0|                                    00 00 00 00|            ....|      [36]: "2009-10-25T08:00:24Z" (1256457624) transition_time 0x3dc-0x3e3.7 (8)
0x3e0|4a e4 05 98                                    |J...            |
0x3e0|            00 00 00 00 4b b8 55 28            |    ....K.U(    |      [37]: "2010-04-04T09:00:24Z" (1270371624) transition_time 0x3e4-0x3eb.7 (8)
0x3e0|                                    00 00 00 00|            ....|      [38]: "2010-10-31T08:00:24Z" (1288512024) transition_time 0x3ec-0x3f3.7 (8)
0x3f0|4c cd 22 18                                    |L.".            |
0x3f0|            00 00 00 00 4d 98 37 28            |    ....M.7(    |      [39]: "2011-04-03T09:00:24Z" (1301821224) transition_time 0x3f4-0x3fb.7 (8)
0x3f0|                                    00 00 00 00|            ....|      [40]: "2011-10-30T08:00:24Z" (1319961624) transition_time 0x3fc-0x403.7 (8)
0x400|4e ad 04 18                                    |N...            |
0x400|            00 00 00 00 4f 78 19 28            |    ....Ox.(    |      [41]: "2012-04-01T09:00:24Z" (1333270824) transition_time 0x404-0x40b.7 (8)
0x400|                                    00 00 00 00|            ....|      [42]: "2012-10-28T08:00:25Z" (1351411225) transition_time 0x40c-0x413.7 (8)
0x410|50 8c e6 19                                    |P...            |
0x410|            00 00 00 00 51 61 35 a9            |    ....Qa5.    |      [43]: "2013-04-07T09:00:25Z" (1365325225) transition_time 0x414-0x41b.7 (8)
0x410|                                    00 00 00 00|            ....|      [44]: "2013-10-27T08:00:25Z" (1382860825) transition_time 0x41c-0x423.7 (8)
0x420|52 6c c8 19                                    |Rl..            |
0x420|            00 00 00 00 53 41 17 a9            |    ....SA..    |      [45]: "2014-04-06T09:00:25Z" (1396774825) transition_time 0x424-0x42b.7 (8)
0x420|                                    00 00 00 00|            ....|      [46]: "2014-10-26T08:00:25Z" (1414310425) transition_time 0x42c-0x433.7 (8)
0x430|54 4c aa 19                                    |TL..            |
0x430|            00 00 00 00 55 20 f9 a9            |    ....U ..    |      [47]: "2015-04-05T09:00:25Z" (1428224425) transition_time 0x434-0x43b.7 (8)
0x430|                                    00 00 00 00|            ....|      [48]: "2015-10-25T08:00:26Z" (1445760026) transition_time 0x43c-0x443.7 (8)
0x440|56 2c 8c 1a                                    |V,..            |
0x440|            00 00 00 00 57 00 db aa            |    ....W...    |      [49]: "2016-04-03T09:00:26Z" (1459674026) transition_time 0x444-0x44b.7 (8)
0x440|                                    00 00 00 00|            ....|      [50]: "2016-10-30T08:00:26Z" (1477814426) transition_time 0x44c-0x453.7 (8)
0x450|58 15 a8 9a                                    |X...            |
0x450|            00 00 00 00 58 e0 bd ab            |    ....X...    |      [51]: "2017-04-02T09:00:27Z" (1491123627) transition_time 0x454-0x45b.7 (8)
0x450|                                    00 00 00 00|            ....|      [52]: "2017-10-29T08:00:27Z" (1509264027) transition_time 0x45c-0x463.7 (8)
0x460|59 f5 8a 9b                                    |Y...            |
0x460|            00 00 00 00 5a c0 9f ab            |    ....Z...    |      [53]: "2018-04-01T09:00:27Z" (1522573227) transition_time 0x464-0x46b.7 (8)
0x460|                                    00 00 00 00|            ....|      [54]: "2018-10-28T08:00:27Z" (1540713627) transition_time 0x46c-0x473.7 (8)
0x470|5b d5 6c 9b                                    |[.l.            |
0x470|            00 00 00 00 5c a9 bc 2b            |    ....\..+    |      [55]: "2019-04-07T09:00:27Z" (1554627627) transition_time 0x474-0x47b.7 (8)
0x470|                                    00 00 00 00|            ....|      [56]: "2019-10-27T08:00:27Z" (1572163227) transition_time 0x47c-0x483.7 (8)
0x480|5d b5 4e 9b                                    |].N.            |
0x480|            00 00 00 00 5e 89 9e 2b            |    ....^..+    |      [57]: "2020-04-05T09:00:27Z" (1586077227) transition_time 0x484-0x48b.7 (8)
0x480|                                    00 00 00 00|            ....|      [58]: "2020-10-25T08:00:27Z" (1603612827) transition_time 0x48c-0x493.7 (8)
0x490|5f 95 30 9b                                    |_.0.            |
0x490|            00 00 00 00 60 69 80 2b            |    ....`i.+    |      [59]: "2021-04-04T09:00:27Z" (1617526827) transition_time 0x494-0x49b.7 (8)
0x490|                                    00 00 00 00|            ....|      [60]: "2021-10-31T08:00:27Z" (1635667227) transition_time 0x49c-0x4a3.7 (8)
0x4a0|61 7e 4d 1b                                    |a~M.            |
0x4a0|            00 00 00 00 62 49 62 2b            |    ....bIb+    |      [61]: "2022-04-03T09:00:27Z" (1648976427) transition_time 0x4a4-0x4ab.7 (8)
0x4a0|                                    00 00 00 00|            ....|      [62]: "2022-10-30T08:00:27Z" (1667116827) transition_time 0x4ac-0x4b3.7 (8)
0x4b0|63 5e 2f 1b                                    |c^/.            |
0x4b0|            00 00 00 00 64 9b 78 1b            |    ....d.x.    |      [63]: "2023-06-28T00:00:27Z" (1687910427) transition_time 0x4b4-0x4bb.7 (8)
     |                                               |                |    transition_types[0:64]: 0x4bc-0x4fb.7 (64)
0x4b0|                                    01         |            .   |      [0]: 1 transition_type 0x4bc-0x4bc.7 (1)
0x4b0|                                       02      |             .  |      [1]: 2 transition_type 0x4bd-0x4bd.7 (1)
0x4b0|                                          04   |              . |      [2]: 4 transition_type 0x4be-0x4be.7 (1)
0x4b0|                                             03|               .|      [3]: 3 transition_type 0x4bf-0x4bf.7 (1)
0x4c0|04                                             |.               |      [4]: 4 transition_type 0x4c0-0x4c0.7 (1)
0x4c0|   02                                          | .              |      [5]: 2 transition_type 0x4c1-0x4c1.7 (1)
0x4c0|      04                                       |  .             |      [6]: 4 transition_type 0x4c2-0x4c2.7 (1)
0x4c0|         05                                    |   .            |      [7]: 5 transition_type 0x4c3-0x4c3.7 (1)
0x4c0|            04                                 |    .           |      [8]: 4 transition_type 0x4c4-0x4c4.7 (1)
0x4c0|               03                              |     .          |      [9]: 3 transition_type 0x4c5-0x4c5.7 (1)
0x4c0|                  04                           |      .         |      [10]: 4 transition_type 0x4c6-0x4c6.7 (1)
0x4c0|                     03                        |       .        |      [11]: 3 transition_type 0x4c7-0x4c7.7 (1)
0x4c0|                        04                     |        .       |      [12]: 4 transition_type 0x4c8-0x4c8.7 (1)
0x4c0|                           03                  |         .      |      [13]: 3 transition_type 0x4c9-0x4c9.7 (1)
0x4c0|                              04               |          .     |      [14]: 4 transition_type 0x4ca-0x4ca.7 (1)
0x4c0|                                 03            |           .    |      [15]: 3 transition_type 0x4cb-0x4cb.7 (1)
0x4c0|                                    04         |            .   |      [16]: 4 transition_type 0x4cc-0x4cc.7 (1)
0x4c0|                                       03      |             .  |      [17]: 3 transition_type 0x4cd-0x4cd.7 (1)
0x4c0|                                          04   |              . |      [18]: 4 transition_type 0x4ce-0x4ce.7 (1)
0x4c0|                                             03|               .|      [19]: 3 transition_type 0x4cf-0x4cf.7 (1)
0x4d0|04                                             |.               |      [20]: 4 transition_type 0x4d0-0x4d0.7 (1)
0x4d0|   03                                          | .              |      [21]: 3 transition_type 0x4d1-0x4d1.7 (1)
0x4d0|      04                                       |  .             |      [22]: 4 transition_type 0x4d2-0x4d2.7 (1)
0x4d0|         03                                    |   .            |      [23]: 3 transition_type 0x4d3-0x4d3.7 (1)
0x4d0|            04                                 |    .           |      [24]: 4 transition_type 0x4d4-0x4d4.7 (1)
0x4d0|               03                              |     .          |      [25]: 3 transition_type 0x4d5-0x4d5.7 (1)
0x4d0|                  04                           |      .         |      [26]: 4 transition_type 0x4d6-0x4d6.7 (1)
0x4d0|                     03                        |       .        |      [27]: 3 transition_type 0x4d7-0x4d7.7 (1)
0x4d0|                        04                     |        .       |      [28]: 4 transition_type 0x4d8-0x4d8.7 (1)
0x4d0|                           03                  |         .      |      [29]: 3 transition_type 0x4d9-0x4d9.7 (1)
0x4d0|                              04               |          .     |      [30]: 4 transition_type 0x4da-0x4da.7 (1)
0x4d0|                                 03            |           .    |      [31]: 3 transition_type 0x4db-0x4db.7 (1)
0x4d0|                                    04         |            .   |      [32]: 4 transition_type 0x4dc-0x4dc.7 (1)
0x4d0|                                       03      |             .  |      [33]: 3 transition_type 0x4dd-0x4dd.7 (1)
0x4d0|                                          04   |              . |      [34]: 4 transition_type 0x4de-0x4de.7 (1)
0x4d0|                                             03|               .|      [35]: 3 transition_type 0x4df-0x4df.7 (1)
0x4e0|04                                             |.               |      [36]: 4 transition_type 0x4e0-0x4e0.7 (1)
0x4e0|   03                                          | .              |      [37]: 3 transition_type 0x4e1-0x4e1.7 (1)
0x4e0|      04                                       |  .             |      [38]: 4 transition_type 0x4e2-0x4e2.7 (1)
0x4e0|         03                                    |   .            |      [39]: 3 transition_type 0x4e3-0x4e3.7 (1)
0x4e0|            04                                 |    .           |      [40]: 4 transition_type 0x4e4-0x4e4.7 (1)
0x4e0|               03                              |     .          |      [41]: 3 transition_type 0x4e5-0x4e5.7 (1)
0x4e0|                  04                           |      .         |      [42]: 4 transition_type 0x4e6-0x4e6.7 (1)
0x4e0|                     03                        |       .        |      [43]: 3 transition_type 0x4e7-0x4e7.7 (1)
0x4e0|                        04                     |        .       |      [44]: 4 transition_type 0x4e8-0x4e8.7 (1)
0x4e0|                           03                  |         .      |      [45]: 3 transition_type 0x4e9-0x4e9.7 (1)
0x4e0|                              04               |          .     |      [46]: 4 transition_type 0x4ea-0x4ea.7 (1)
0x4e0|                                 03            |           .    |      [47]: 3 transition_type 0x4eb-0x4eb.7 (1)
0x4e0|                                    04         |            .   |      [48]: 4 transition_type 0x4ec-0x4ec.7 (1)
0x4e0|                                       03      |             .  |      [49]: 3 transition_type 0x4ed-0x4ed.7 (1)
0x4e0|                                          04   |              . |      [50]: 4 transition_type 0x4ee-0x4ee.7 (1)
0x4e0|                                             03|               .|      [51]: 3 transition_type 0x4ef-0x4ef.7 (1)
0x4f0|04                                             |.               |      [52]: 4 transition_type 0x4f0-0x4f0.7 (1)
0x4f0|   03                                          | .              |      [53]: 3 transition_type 0x4f1-0x4f1.7 (1)
0x4f0|      04                                       |  .             |      [54]: 4 transition_type 0x4f2-0x4f2.7 (1)
0x4f0|         03                                    |   .            |      [55]: 3 transition_type 0x4f3-0x4f3.7 (1)
0x4f0|            04                                 |    .           |      [56]: 4 transition_type 0x4f4-0x4f4.7 (1)
0x4f0|               03                              |     .          |      [57]: 3 transition_type 0x4f5-0x4f5.7 (1)
0x4f0|                  04                           |      .         |      [58]: 4 transition_type 0x4f6-0x4f6.7 (1)
0x4f0|                     03                        |       .        |      [59]: 3 transition_type 0x4f7-0x4f7.7 (1)
0x4f0|                        04                     |        .       |      [60]: 4 transition_type 0x4f8-0x4f8.7 (1)
0x4f0|                           03                  |         .      |      [61]: 3 transition_type 0x4f9-0x4f9.7 (1)
0x4f0|                              04               |          .     |      [62]: 4 transition_type 0x4fa-0x4fa.7 (1)
0x4f0|                                 04            |           .    |      [63]: 4 transition_type 0x4fb-0x4fb.7 (1)
     |                                               |                |    local_time_type_records[0:7]: 0x4fc-0x525.7 (42)
     |                                               |                |      [0]{}: local_time_type 0x4fc-0x501.7 (6)
0x4f0|                                    ff ff 9c 3c|            ...<|        utoff: -25540 (valid) 0x4fc-0x4ff.7 (4)
0x500|00                                             |.               |        dst: 0 (valid) 0x500-0x500.7 (1)
0x500|   00                                          | .              |        idx: 0 (valid) 0x501-0x501.7 (1)
     |                                               |                |      [1]{}: local_time_type 0x502-0x507.7 (6)
0x500|      ff ff 9d 90                              |  ....          |        utoff: -25200 (valid) 0x502-0x505.7 (4)
0x500|                  00                           |      .         |        dst: 0 (valid) 0x506-0x506.7 (1)
0x500|                     04                        |       .        |        idx: 4 (valid) 0x507-0x507.7 (1)
     |                                               |                |      [2]{}: local_time_type 0x508-0x50d.7 (6)
0x500|                        ff ff ab a0            |        ....    |        utoff: -21600 (valid) 0x508-0x50b.7 (4)
0x500|                                    00         |            .   |        dst: 0 (valid) 0x50c-0x50c.7 (1)
0x500|                                       08      |             .  |        idx: 8 (valid) 0x50d-0x50d.7 (1)
     |                                               |                |      [3]{}: local_time_type 0x50e-0x513.7 (6)
0x500|                                          ff ff|              ..|        utoff: -21600 (valid) 0x50e-0x511.7 (4)
0x510|ab a0                                          |..              |
0x510|      01                                       |  .             |        dst: 1 (valid) 0x512-0x512.7 (1)
0x510|         0c                                    |   .            |        idx: 12 (valid) 0x513-0x513.7 (1)
     |                                               |                |      [4]{}: local_time_type 0x514-0x519.7 (6)
0x510|            ff ff 9d 90                        |    ....        |        utoff: -25200 (valid) 0x514-0x517.7 (4)
0x510|                        00                     |        .       |        dst: 0 (valid) 0x518-0x518.7 (1)
0x510|                           04                  |         .      |        idx: 4 (valid) 0x519-0x519.7 (1)
     |                                               |                |      [5]{}: local_time_type 0x51a-0x51f.7 (6)
0x510|                              ff ff 8f 80      |          ....  |        utoff: -28800 (valid) 0x51a-0x51d.7 (4)
0x510|                                          00   |              . |        dst: 0 (valid) 0x51e-0x51e.7 (1)
0x510|                                             10|               .|        idx: 16 (valid) 0x51f-0x51f.7 (1)
     |                                               |                |      [6]{}: local_time_type 0x520-0x525.7 (6)
0x520|ff ff 9d 90                                    |....            |        utoff: -25200 (valid) 0x520-0x523.7 (4)
0x520|            00                                 |    .           |        dst: 0 (valid) 0x524-0x524.7 (1)
0x520|               04                              |     .          |        idx: 4 (valid) 0x525-0x525.7 (1)
     |                                               |                |    time_zone_designations[0:5]: 0x526-0x539.7 (20)
0x520|                  4c 4d 54 00                  |      LMT.      |      [0]: "LMT" time_zone_designation 0x526-0x529.7 (4)
0x520|                              4d 53 54 00      |          MST.  |      [1]: "MST" time_zone_designation 0x52a-0x52d.7 (4)
0x520|                                          43 53|              CS|      [2]: "CST" time_zone_designation 0x52e-0x531.7 (4)
0x530|54 00                                          |T.              |
0x530|      4d 44 54 00                              |  MDT.          |      [3]: "MDT" time_zone_designation 0x532-0x535.7 (4)
0x530|                  50 53 54 00                  |      PST.      |      [4]: "PST" time_zone_designation 0x536-0x539.7 (4)
     |                                               |                |    leap_second_records[0:27]: 0x53a-0x67d.7 (324)
     |                                               |                |      [0]{}: leap_second_record 0x53a-0x545.7 (12)
0x530|                              00 00 00 00 04 b2|          ......|        occur: "1972-07-01T00:00:00Z" (78796800) 0x53a-0x541.7 (8)
0x540|58 00                                          |X.              |
0x540|      00 00 00 01                              |  ....          |        corr: 1 0x542-0x545.7 (4)
     |                                               |                |      [1]{}: leap_second_record 0x546-0x551.7 (12)
0x540|                  00 00 00 00 05 a4 ec 01      |      ........  |        occur: "1973-01-01T00:00:01Z" (94694401) 0x546-0x54d.7 (8)
0x540|                                          00 00|              ..|        corr: 2 0x54e-0x551.7 (4)
0x550|00 02                                          |..              |
     |                                               |                |      [2]{}: leap_second_record 0x552-0x55d.7 (12)
0x550|      00 00 00 00 07 86 1f 82                  |  ........      |        occur: "1974-01-01T00:00:02Z" (126230402) 0x552-0x559.7 (8)
0x550|                              00 00 00 03      |          ....  |        corr: 3 0x55a-0x55d.7 (4)
     |                                               |                |      [3]{}: leap_second_record 0x55e-0x569.7 (12)
0x550|                                          00 00|              ..|        occur: "1975-01-01T00:00:03Z" (157766403) 0x55e-0x565.7 (8)
0x560|00 00 09 67 53 03                              |...gS.          |
0x560|                  00 00 00 04                  |      ....      |        corr: 4 0x566-0x569.7 (4)
     |                                               |                |      [4]{}: leap_second_record 0x56a-0x575.7 (12)
0x560|                              00 00 00 00 0b 48|          .....H|        occur: "1976-01-01T00:00:04Z" (189302404) 0x56a-0x571.7 (8)
0x570|86 84                                          |..              |
0x570|      00 00 00 05                              |  ....          |        corr: 5 0x572-0x575.7 (4)
     |                                               |                |      [5]{}: leap_second_record 0x576-0x581.7 (12)
0x570|                  00 00 00 00 0d 2b 0b 85      |      .....+..  |        occur: "1977-01-01T00:00:05Z" (220924805) 0x576-0x57d.7 (8)
0x570|                                          00 00|              ..|        corr: 6 0x57e-0x581.7 (4)
0x580|00 06                                          |..              |
     |                                               |                |      [6]{}: leap_second_record 0x582-0x58d.7 (12)
0x580|      00 00 00 00 0f 0c 3f 06                  |  ......?.      |        occur: "1978-01-01T00:00:06Z" (252460806) 0x582-0x589.7 (8)
0x580|                              00 00 00 07      |          ....  |        corr: 7 0x58a-0x58d.7 (4)
     |                                               |                |      [7]{}: leap_second_record 0x58e-0x599.7 (12)
0x580|                                          00 00|              ..|        occur: "1979-01-01T00:00:07Z" (283996807) 0x58e-0x595.7 (8)
0x590|00 00 10 ed 72 87                              |....r.          |
0x590|                  00 00 00 08                  |      ....      |        corr: 8 0x596-0x599.7 (4)
     |                                               |                |      [8]{}: leap_second_record 0x59a-0x5a5.7 (12)
0x590|                              00 00 00 00 12 ce|          ......|        occur: "1980-01-01T00:00:08Z" (315532808) 0x59a-0x5a1.7 (8)
0x5a0|a6 08                                          |..              |
0x5a0|      00 00 00 09                              |  ....          |        corr: 9 0x5a2-0x5a5.7 (4)
     |                                               |                |      [9]{}: leap_second_record 0x5a6-0x5b1.7 (12)
0x5a0|                  00 00 00 00 15 9f ca 89      |      ........  |        occur: "1981-07-01T00:00:09Z" (362793609) 0x5a6-0x5ad.7 (8)
0x5a0|                                          00 00|              ..|        corr: 10 0x5ae-0x5b1.7 (4)
0x5b0|00 0a                                          |..              |
     |                                               |                |      [10]{}: leap_second_record 0x5b2-0x5bd.7 (12)
0x5b0|      00 00 00 00 17 80 fe 0a                  |  ........      |        occur: "1982-07-01T00:00:10Z" (394329610) 0x5b2-0x5b9.7 (8)
0x5b0|                              00 00 00 0b      |          ....  |        corr: 11 0x5ba-0x5bd.7 (4)
     |                                               |                |      [11]{}: leap_second_record 0x5be-0x5c9.7 (12)
0x5b0|                                          00 00|              ..|        occur: "1983-07-01T00:00:11Z" (425865611) 0x5be-0x5c5.7 (8)
0x5c0|00 00 19 62 31 8b                              |...b1.          |
0x5c0|                  00 00 00 0c                  |      ....      |        corr: 12 0x5c6-0x5c9.7 (4)
     |                                               |                |      [12]{}: leap_second_record 0x5ca-0x5d5.7 (12)
0x5c0|                              00 00 00 00 1d 25|          .....%|        occur: "1985-07-01T00:00:12Z" (489024012) 0x5ca-0x5d1.7 (8)
0x5d0|ea 0c                                          |..              |
0x5d0|      00 00 00 0d                              |  ....          |        corr: 13 0x5d2-0x5d5.7 (4)
     |                                               |                |      [13]{}: leap_second_record 0x5d6-0x5e1.7 (12)
0x5d0|                  00 00 00 00 21 da e5 0d      |      ....!...  |        occur: "1988-01-01T00:00:13Z" (567993613) 0x5d6-0x5dd.7 (8)
0x5d0|                                          00 00|              ..|        corr: 14 0x5de-0x5e1.7 (4)
0x5e0|00 0e                                          |..              |
     |                                               |                |      [14]{}: leap_second_record 0x5e2-0x5ed.7 (12)
0x5e0|      00 00 00 00 25 9e 9d 8e                  |  ....%...      |        occur: "1990-01-01T00:00:14Z" (631152014) 0x5e2-0x5e9.7 (8)
0x5e0|                              00 00 00 0f      |          ....  |        corr: 15 0x5ea-0x5ed.7 (4)
     |                                               |                |      [15]{}: leap_second_record 0x5ee-0x5f9.7 (12)
0x5e0|                                          00 00|              ..|        occur: "1991-01-01T00:00:15Z" (662688015) 0x5ee-0x5f5.7 (8)
0x5f0|00 00 27 7f d1 0f                              |..'...          |
0x5f0|                  00 00 00 10                  |      ....      |        corr: 16 0x5f6-0x5f9.7 (4)
     |                                               |                |      [16]{}: leap_second_record 0x5fa-0x605.7 (12)
0x5f0|                              00 00 00 00 2a 50|          ....*P|        occur: "1992-07-01T00:00:16Z" (709948816) 0x5fa-0x601.7 (8)
0x600|f5 90                                          |..              |
0x600|      00 00 00 11                              |  ....          |        corr: 17 0x602-0x605.7 (4)
     |                                               |                |      [17]{}: leap_second_record 0x606-0x611.7 (12)
0x600|                  00 00 00 00 2c 32 29 11      |      ....,2).  |        occur: "1993-07-01T00:00:17Z" (741484817) 0x606-0x60d.7 (8)
0x600|                                          00 00|              ..|        corr: 18 0x60e-0x611.7 (4)
0x610|00 12                                          |..              |
     |                                               |                |      [18]{}: leap_second_record 0x612-0x61d.7 (12)
0x610|      00 00 00 00 2e 13 5c 92                  |  ......\.      |        occur: "1994-07-01T00:00:18Z" (773020818) 0x612-0x619.7 (8)
0x610|                              00 00 00 13      |          ....  |        corr: 19 0x61a-0x61d.7 (4)
     |                                               |                |      [19]{}: leap_second_record 0x61e-0x629.7 (12)
0x610|                                          00 00|              ..|        occur: "1996-01-01T00:00:19Z" (820454419) 0x61e-0x625.7 (8)
0x620|00 00 30 e7 24 13                              |..0.$.          |
0x620|                  00 00 00 14                  |      ....      |        corr: 20 0x626-0x629.7 (4)
     |                                               |                |      [20]{}: leap_second_record 0x62a-0x635.7 (12)
0x620|                              00 00 00 00 33 b8|          ....3.|        occur: "1997-07-01T00:00:20Z" (867715220) 0x62a-0x631.7 (8)
0x630|48 94                                          |H.              |
0x630|      00 00 00 15                              |  ....          |        corr: 21 0x632-0x635.7 (4)
     |                                               |                |      [21]{}: leap_second_record 0x636-0x641.7 (12)
0x630|                  00 00 00 00 36 8c 10 15      |      ....6...  |        occur: "1999-01-01T00:00:21Z" (915148821) 0x636-0x63d.7 (8)
0x630|                                          00 00|              ..|        corr: 22 0x63e-0x641.7 (4)
0x640|00 16                                          |..              |
     |                                               |                |      [22]{}: leap_second_record 0x642-0x64d.7 (12)
0x640|      00 00 00 00 43 b7 1b 96                  |  ....C...      |        occur: "2006-01-01T00:00:22Z" (1136073622) 0x642-0x649.7 (8)
0x640|                              00 00 00 17      |          ....  |        corr: 23 0x64a-0x64d.7 (4)
     |                                               |                |      [23]{}: leap_second_record 0x64e-0x659.7 (12)
0x640|                                          00 00|              ..|        occur: "2009-01-01T00:00:23Z" (1230768023) 0x64e-0x655.7 (8)
0x650|00 00 49 5c 07 97                              |..I\..          |
0x650|                  00 00 00 18                  |      ....      |        corr: 24 0x656-0x659.7 (4)
     |                                               |                |      [24]{}: leap_second_record 0x65a-0x665.7 (12)
0x650|                              00 00 00 00 4f ef|          ....O.|        occur: "2012-07-01T00:00:24Z" (1341100824) 0x65a-0x661.7 (8)
0x660|93 18                                          |..              |
0x660|      00 00 00 19                              |  ....          |        corr: 25 0x662-0x665.7 (4)
     |                                               |                |      [25]{}: leap_second_record 0x666-0x671.7 (12)
0x660|                  00 00 00 00 55 93 2d 99      |      ....U.-.  |        occur: "2015-07-01T00:00:25Z" (1435708825) 0x666-0x66d.7 (8)
0x660|                                          00 00|              ..|        corr: 26 0x66e-0x671.7 (4)
0x670|00 1a                                          |..              |
     |                                               |                |      [26]{}: leap_second_record 0x672-0x67d.7 (12)
0x670|      00 00 00 00 58 68 46 9a                  |  ....XhF.      |        occur: "2017-01-01T00:00:26Z" (1483228826) 0x672-0x679.7 (8)
0x670|                              00 00 00 1b      |          ....  |        corr: 27 0x67a-0x67d.7 (4)
     |                                               |                |    standard_wall_indicators[0:7]: 0x67e-0x684.7 (7)
0x670|                                          00   |              . |      [0]: 0 standard_wall_indicator (valid) 0x67e-0x67e.7 (1)
0x670|                                             01|               .|      [1]: 1 standard_wall_indicator (valid) 0x67f-0x67f.7 (1)
0x680|00                                             |.               |      [2]: 0 standard_wall_indicator (valid) 0x680-0x680.7 (1)
0x680|   00                                          | .              |      [3]: 0 standard_wall_indicator (valid) 0x681-0x681.7 (1)
0x680|      00                                       |  .             |      [4]: 0 standard_wall_indicator (valid) 0x682-0x682.7 (1)
0x680|         00                                    |   .            |      [5]: 0 standard_wall_indicator (valid) 0x683-0x683.7 (1)
0x680|            00                                 |    .           |      [6]: 0 standard_wall_indicator (valid) 0x684-0x684.7 (1)
     |                                               |                |    ut_local_indicators[0:7]: 0x685-0x68b.7 (7)
0x680|               00                              |     .          |      [0]: 0 ut_local_indicator (valid) 0x685-0x685.7 (1)
0x680|                  01                           |      .         |      [1]: 1 ut_local_indicator (valid) 0x686-0x686.7 (1)
0x680|                     00                        |       .        |      [2]: 0 ut_local_indicator (valid) 0x687-0x687.7 (1)
0x680|                        00                     |        .       |      [3]: 0 ut_local_indicator (valid) 0x688-0x688.7 (1)
0x680|                           00                  |         .      |      [4]: 0 ut_local_indicator (valid) 0x689-0x689.7 (1)
0x680|                              00               |          .     |      [5]: 0 ut_local_indicator (valid) 0x68a-0x68a.7 (1)
0x680|                                 00            |           .    |      [6]: 0 ut_local_indicator (valid) 0x68b-0x68b.7 (1)
     |                                               |                |  footer{}: 0x68c-0x68d.7 (2)
0x680|                                    0a         |            .   |    nl1: 10 (valid) 0x68c-0x68c.7 (1)
     |                                               |                |    tz_string: "" 0x68d-NA (0)
0x680|                                       0a|     |             .| |    nl2: 10 (valid) 0x68d-0x68d.7 (1)
