$ fq -d tzif dv Melbourne
     |00 01 02 03 04 05 06 07 08 09 0a 0b 0c 0d 0e 0f|0123456789abcdef|.{}: Melbourne (tzif) 0x0-0x88d.7 (2190)
     |                                               |                |  v1header{}: 0x0-0x2b.7 (44)
0x000|54 5a 69 66                                    |TZif            |    magic: 0x545a6966 (valid) 0x0-0x3.7 (4)
0x000|            32                                 |    2           |    ver: "2" (0x32) (valid) 0x4-0x4.7 (1)
0x000|               00 00 00 00 00 00 00 00 00 00 00|     ...........|    reserved: raw bits 0x5-0x13.7 (15)
0x010|00 00 00 00                                    |....            |
0x010|            00 00 00 00                        |    ....        |    isutcnt: 0 0x14-0x17.7 (4)
0x010|                        00 00 00 04            |        ....    |    isstdcnt: 4 0x18-0x1b.7 (4)
0x010|                                    00 00 00 00|            ....|    leapcnt: 0 0x1c-0x1f.7 (4)
0x020|00 00 00 8e                                    |....            |    timecnt: 142 0x20-0x23.7 (4)
0x020|            00 00 00 04                        |    ....        |    typecnt: 4 0x24-0x27.7 (4)
0x020|                        00 00 00 0e            |        ....    |    charcnt: 14 0x28-0x2b.7 (4)
     |                                               |                |  v1datablock{}: 0x2c-0x31b.7 (752)
     |                                               |                |    transition_times[0:142]: 0x2c-0x263.7 (568)
0x020|                                    80 00 00 00|            ....|      [0]: "1901-12-13T20:45:52Z" (-2147483648) transition_time 0x2c-0x2f.7 (4)
0x030|9c 4e c2 80                                    |.N..            |      [1]: "1916-12-31T16:00:00Z" (-1672560000) transition_time 0x30-0x33.7 (4)
0x030|            9c bc 2f 00                        |    ../.        |      [2]: "1917-03-24T16:00:00Z" (-1665388800) transition_time 0x34-0x37.7 (4)
0x030|                        cb 54 b3 00            |        .T..    |      [3]: "1941-12-31T16:00:00Z" (-883641600) transition_time 0x38-0x3b.7 (4)
0x030|                                    cb c7 65 80|            ..e.|      [4]: "1942-03-28T16:00:00Z" (-876124800) transition_time 0x3c-0x3f.7 (4)
0x040|cc b7 56 80                                    |..V.            |      [5]: "1942-09-26T16:00:00Z" (-860400000) transition_time 0x40-0x43.7 (4)
0x040|            cd a7 47 80                        |    ..G.        |      [6]: "1943-03-27T16:00:00Z" (-844675200) transition_time 0x44-0x47.7 (4)
0x040|                        ce a0 73 00            |        ..s.    |      [7]: "1943-10-02T16:00:00Z" (-828345600) transition_time 0x48-0x4b.7 (4)
0x040|                                    cf 87 29 80|            ..).|      [8]: "1944-03-25T16:00:00Z" (-813225600) transition_time 0x4c-0x4f.7 (4)
0x050|03 70 39 80                                    |.p9.            |      [9]: "1971-10-30T16:00:00Z" (57686400) transition_time 0x50-0x53.7 (4)
0x050|            04 0d 1c 00                        |    ....        |      [10]: "1972-02-26T16:00:00Z" (67968000) transition_time 0x54-0x57.7 (4)
0x050|                        05 50 1b 80            |        .P..    |      [11]: "1972-10-28T16:00:00Z" (89136000) transition_time 0x58-0x5b.7 (4)
0x050|                                    05 f6 38 80|            ..8.|      [12]: "1973-03-03T16:00:00Z" (100022400) transition_time 0x5c-0x5f.7 (4)
0x060|07 2f fd 80                                    |./..            |      [13]: "1973-10-27T16:00:00Z" (120585600) transition_time 0x60-0x63.7 (4)
0x060|            07 d6 1a 80                        |    ....        |      [14]: "1974-03-02T16:00:00Z" (131472000) transition_time 0x64-0x67.7 (4)
0x060|                        09 0f df 80            |        ....    |      [15]: "1974-10-26T16:00:00Z" (152035200) transition_time 0x68-0x6b.7 (4)
0x060|                                    09 b5 fc 80|            ....|      [16]: "1975-03-01T16:00:00Z" (162921600) transition_time 0x6c-0x6f.7 (4)
0x070|0a ef c1 80                                    |....            |      [17]: "1975-10-25T16:00:00Z" (183484800) transition_time 0x70-0x73.7 (4)
0x070|            0b 9f 19 00                        |    ....        |      [18]: "1976-03-06T16:00:00Z" (194976000) transition_time 0x74-0x77.7 (4)
0x070|                        0c d8 de 00            |        ....    |      [19]: "1976-10-30T16:00:00Z" (215539200) transition_time 0x78-0x7b.7 (4)
0x070|                                    0d 7e fb 00|            .~..|      [20]: "1977-03-05T16:00:00Z" (226425600) transition_time 0x7c-0x7f.7 (4)
0x080|0e b8 c0 00                                    |....            |      [21]: "1977-10-29T16:00:00Z" (246988800) transition_time 0x80-0x83.7 (4)
0x080|            0f 5e dd 00                        |    .^..        |      [22]: "1978-03-04T16:00:00Z" (257875200) transition_time 0x84-0x87.7 (4)
0x080|                        10 98 a2 00            |        ....    |      [23]: "1978-10-28T16:00:00Z" (278438400) transition_time 0x88-0x8b.7 (4)
0x080|                                    11 3e bf 00|            .>..|      [24]: "1979-03-03T16:00:00Z" (289324800) transition_time 0x8c-0x8f.7 (4)
0x090|12 78 84 00                                    |.x..            |      [25]: "1979-10-27T16:00:00Z" (309888000) transition_time 0x90-0x93.7 (4)
0x090|            13 1e a1 00                        |    ....        |      [26]: "1980-03-01T16:00:00Z" (320774400) transition_time 0x94-0x97.7 (4)
0x090|                        14 58 66 00            |        .Xf.    |      [27]: "1980-10-25T16:00:00Z" (341337600) transition_time 0x98-0x9b.7 (4)
0x090|                                    14 fe 83 00|            ....|      [28]: "1981-02-28T16:00:00Z" (352224000) transition_time 0x9c-0x9f.7 (4)
0x0a0|16 38 48 00                                    |.8H.            |      [29]: "1981-10-24T16:00:00Z" (372787200) transition_time 0xa0-0xa3.7 (4)
0x0a0|            16 e7 9f 80                        |    ....        |      [30]: "1982-03-06T16:00:00Z" (384278400) transition_time 0xa4-0xa7.7 (4)
0x0a0|                        18 21 64 80            |        .!d.    |      [31]: "1982-10-30T16:00:00Z" (404841600) transition_time 0xa8-0xab.7 (4)
0x0a0|                                    18 c7 81 80|            ....|      [32]: "1983-03-05T16:00:00Z" (415728000) transition_time 0xac-0xaf.7 (4)
0x0b0|1a 01 46 80                                    |..F.            |      [33]: "1983-10-29T16:00:00Z" (436291200) transition_time 0xb0-0xb3.7 (4)
0x0b0|            1a a7 63 80                        |    ..c.        |      [34]: "1984-03-03T16:00:00Z" (447177600) transition_time 0xb4-0xb7.7 (4)
0x0b0|                        1b e1 28 80            |        ..(.    |      [35]: "1984-10-27T16:00:00Z" (467740800) transition_time 0xb8-0xbb.7 (4)
0x0b0|                                    1c 87 45 80|            ..E.|      [36]: "1985-03-02T16:00:00Z" (478627200) transition_time 0xbc-0xbf.7 (4)
0x0c0|1d c1 0a 80                                    |....            |      [37]: "1985-10-26T16:00:00Z" (499190400) transition_time 0xc0-0xc3.7 (4)
0x0c0|            1e 79 9c 80                        |    .y..        |      [38]: "1986-03-15T16:00:00Z" (511286400) transition_time 0xc4-0xc7.7 (4)
0x0c0|                        1f 97 b2 00            |        ....    |      [39]: "1986-10-18T16:00:00Z" (530035200) transition_time 0xc8-0xcb.7 (4)
0x0c0|                                    20 59 7e 80|             Y~.|      [40]: "1987-03-14T16:00:00Z" (542736000) transition_time 0xcc-0xcf.7 (4)
0x0d0|21 77 94 00                                    |!w..            |      [41]: "1987-10-17T16:00:00Z" (561484800) transition_time 0xd0-0xd3.7 (4)
0x0d0|            22 42 9b 00                        |    "B..        |      [42]: "1988-03-19T16:00:00Z" (574790400) transition_time 0xd4-0xd7.7 (4)
0x0d0|                        23 69 eb 00            |        #i..    |      [43]: "1988-10-29T16:00:00Z" (594144000) transition_time 0xd8-0xdb.7 (4)
0x0d0|                                    24 22 7d 00|            $"}.|      [44]: "1989-03-18T16:00:00Z" (606240000) transition_time 0xdc-0xdf.7 (4)
0x0e0|25 49 cd 00                                    |%I..            |      [45]: "1989-10-28T16:00:00Z" (625593600) transition_time 0xe0-0xe3.7 (4)
0x0e0|            26 02 5f 00                        |    &._.        |      [46]: "1990-03-17T16:00:00Z" (637689600) transition_time 0xe4-0xe7.7 (4)
0x0e0|                        27 29 af 00            |        ')..    |      [47]: "1990-10-27T16:00:00Z" (657043200) transition_time 0xe8-0xeb.7 (4)
0x0e0|                                    27 cf cc 00|            '...|      [48]: "1991-03-02T16:00:00Z" (667929600) transition_time 0xec-0xef.7 (4)
0x0f0|29 09 91 00                                    |)...            |      [49]: "1991-10-26T16:00:00Z" (688492800) transition_time 0xf0-0xf3.7 (4)
0x0f0|            29 af ae 00                        |    )...        |      [50]: "1992-02-29T16:00:00Z" (699379200) transition_time 0xf4-0xf7.7 (4)
0x0f0|                        2a e9 73 00            |        *.s.    |      [51]: "1992-10-24T16:00:00Z" (719942400) transition_time 0xf8-0xfb.7 (4)
0x0f0|                                    2b 98 ca 80|            +...|      [52]: "1993-03-06T16:00:00Z" (731433600) transition_time 0xfc-0xff.7 (4)
0x100|2c d2 8f 80                                    |,...            |      [53]: "1993-10-30T16:00:00Z" (751996800) transition_time 0x100-0x103.7 (4)
0x100|            2d 78 ac 80                        |    -x..        |      [54]: "1994-03-05T16:00:00Z" (762883200) transition_time 0x104-0x107.7 (4)
0x100|                        2e b2 71 80            |        ..q.    |      [55]: "1994-10-29T16:00:00Z" (783446400) transition_time 0x108-0x10b.7 (4)
0x100|                                    2f 74 3e 00|            /t>.|      [56]: "1995-03-25T16:00:00Z" (796147200) transition_time 0x10c-0x10f.7 (4)
0x110|30 92 53 80                                    |0.S.            |      [57]: "1995-10-28T16:00:00Z" (814896000) transition_time 0x110-0x113.7 (4)
0x110|            31 5d 5a 80                        |    1]Z.        |      [58]: "1996-03-30T16:00:00Z" (828201600) transition_time 0x114-0x117.7 (4)
0x110|                        32 72 35 80            |        2r5.    |      [59]: "1996-10-26T16:00:00Z" (846345600) transition_time 0x118-0x11b.7 (4)
0x110|                                    33 3d 3c 80|            3=<.|      [60]: "1997-03-29T16:00:00Z" (859651200) transition_time 0x11c-0x11f.7 (4)
0x120|34 52 17 80                                    |4R..            |      [61]: "1997-10-25T16:00:00Z" (877795200) transition_time 0x120-0x123.7 (4)
0x120|            35 1d 1e 80                        |    5...        |      [62]: "1998-03-28T16:00:00Z" (891100800) transition_time 0x124-0x127.7 (4)
0x120|                        36 31 f9 80            |        61..    |      [63]: "1998-10-24T16:00:00Z" (909244800) transition_time 0x128-0x12b.7 (4)
0x120|                                    36 fd 00 80|            6...|      [64]: "1999-03-27T16:00:00Z" (922550400) transition_time 0x12c-0x12f.7 (4)
0x130|38 1b 16 00                                    |8...            |      [65]: "1999-10-30T16:00:00Z" (941299200) transition_time 0x130-0x133.7 (4)
0x130|            38 dc e2 80                        |    8...        |      [66]: "2000-03-25T16:00:00Z" (954000000) transition_time 0x134-0x137.7 (4)
0x130|                        39 a7 e9 80            |        9...    |      [67]: "2000-08-26T16:00:00Z" (967305600) transition_time 0x138-0x13b.7 (4)
0x130|                                    3a bc c4 80|            :...|      [68]: "2001-03-24T16:00:00Z" (985449600) transition_time 0x13c-0x13f.7 (4)
0x140|3b da da 00                                    |;...            |      [69]: "2001-10-27T16:00:00Z" (1004198400) transition_time 0x140-0x143.7 (4)
0x140|            3c a5 e1 00                        |    <...        |      [70]: "2002-03-30T16:00:00Z" (1017504000) transition_time 0x144-0x147.7 (4)
0x140|                        3d ba bc 00            |        =...    |      [71]: "2002-10-26T16:00:00Z" (1035648000) transition_time 0x148-0x14b.7 (4)
0x140|                                    3e 85 c3 00|            >...|      [72]: "2003-03-29T16:00:00Z" (1048953600) transition_time 0x14c-0x14f.7 (4)
0x150|3f 9a 9e 00                                    |?...            |      [73]: "2003-10-25T16:00:00Z" (1067097600) transition_time 0x150-0x153.7 (4)
0x150|            40 65 a5 00                        |    @e..        |      [74]: "2004-03-27T16:00:00Z" (1080403200) transition_time 0x154-0x157.7 (4)
0x150|                        41 83 ba 80            |        A...    |      [75]: "2004-10-30T16:00:00Z" (1099152000) transition_time 0x158-0x15b.7 (4)
0x150|                                    42 45 87 00|            BE..|      [76]: "2005-03-26T16:00:00Z" (1111852800) transition_time 0x15c-0x15f.7 (4)
0x160|43 63 9c 80                                    |Cc..            |      [77]: "2005-10-29T16:00:00Z" (1130601600) transition_time 0x160-0x163.7 (4)
0x160|            44 2e a3 80                        |    D...        |      [78]: "2006-04-01T16:00:00Z" (1143907200) transition_time 0x164-0x167.7 (4)
0x160|                        45 43 7e 80            |        EC~.    |      [79]: "2006-10-28T16:00:00Z" (1162051200) transition_time 0x168-0x16b.7 (4)
0x160|                                    46 05 4b 00|            F.K.|      [80]: "2007-03-24T16:00:00Z" (1174752000) transition_time 0x16c-0x16f.7 (4)
0x170|47 23 60 80                                    |G#`.            |      [81]: "2007-10-27T16:00:00Z" (1193500800) transition_time 0x170-0x173.7 (4)
0x170|            47 f7 a2 00                        |    G...        |      [82]: "2008-04-05T16:00:00Z" (1207411200) transition_time 0x174-0x177.7 (4)
0x170|                        48 e7 93 00            |        H...    |      [83]: "2008-10-04T16:00:00Z" (1223136000) transition_time 0x178-0x17b.7 (4)
0x170|                                    49 d7 84 00|            I...|      [84]: "2009-04-04T16:00:00Z" (1238860800) transition_time 0x17c-0x17f.7 (4)
0x180|4a c7 75 00                                    |J.u.            |      [85]: "2009-10-03T16:00:00Z" (1254585600) transition_time 0x180-0x183.7 (4)
0x180|            4b b7 66 00                        |    K.f.        |      [86]: "2010-04-03T16:00:00Z" (1270310400) transition_time 0x184-0x187.7 (4)
0x180|                        4c a7 57 00            |        L.W.    |      [87]: "2010-10-02T16:00:00Z" (1286035200) transition_time 0x188-0x18b.7 (4)
0x180|                                    4d 97 48 00|            M.H.|      [88]: "2011-04-02T16:00:00Z" (1301760000) transition_time 0x18c-0x18f.7 (4)
0x190|4e 87 39 00                                    |N.9.            |      [89]: "2011-10-01T16:00:00Z" (1317484800) transition_time 0x190-0x193.7 (4)
0x190|            4f 77 2a 00                        |    Ow*.        |      [90]: "2012-03-31T16:00:00Z" (1333209600) transition_time 0x194-0x197.7 (4)
0x190|                        50 70 55 80            |        PpU.    |      [91]: "2012-10-06T16:00:00Z" (1349539200) transition_time 0x198-0x19b.7 (4)
0x190|                                    51 60 46 80|            Q`F.|      [92]: "2013-04-06T16:00:00Z" (1365264000) transition_time 0x19c-0x19f.7 (4)
0x1a0|52 50 37 80                                    |RP7.            |      [93]: "2013-10-05T16:00:00Z" (1380988800) transition_time 0x1a0-0x1a3.7 (4)
0x1a0|            53 40 28 80                        |    S@(.        |      [94]: "2014-04-05T16:00:00Z" (1396713600) transition_time 0x1a4-0x1a7.7 (4)
0x1a0|                        54 30 19 80            |        T0..    |      [95]: "2014-10-04T16:00:00Z" (1412438400) transition_time 0x1a8-0x1ab.7 (4)
0x1a0|                                    55 20 0a 80|            U ..|      [96]: "2015-04-04T16:00:00Z" (1428163200) transition_time 0x1ac-0x1af.7 (4)
0x1b0|56 0f fb 80                                    |V...            |      [97]: "2015-10-03T16:00:00Z" (1443888000) transition_time 0x1b0-0x1b3.7 (4)
0x1b0|            56 ff ec 80                        |    V...        |      [98]: "2016-04-02T16:00:00Z" (1459612800) transition_time 0x1b4-0x1b7.7 (4)
0x1b0|                        57 ef dd 80            |        W...    |      [99]: "2016-10-01T16:00:00Z" (1475337600) transition_time 0x1b8-0x1bb.7 (4)
0x1b0|                                    58 df ce 80|            X...|      [100]: "2017-04-01T16:00:00Z" (1491062400) transition_time 0x1bc-0x1bf.7 (4)
0x1c0|59 cf bf 80                                    |Y...            |      [101]: "2017-09-30T16:00:00Z" (1506787200) transition_time 0x1c0-0x1c3.7 (4)
0x1c0|            5a bf b0 80                        |    Z...        |      [102]: "2018-03-31T16:00:00Z" (1522512000) transition_time 0x1c4-0x1c7.7 (4)
0x1c0|                        5b b8 dc 00            |        [...    |      [103]: "2018-10-06T16:00:00Z" (1538841600) transition_time 0x1c8-0x1cb.7 (4)
0x1c0|                                    5c a8 cd 00|            \...|      [104]: "2019-04-06T16:00:00Z" (1554566400) transition_time 0x1cc-0x1cf.7 (4)
0x1d0|5d 98 be 00                                    |]...            |      [105]: "2019-10-05T16:00:00Z" (1570291200) transition_time 0x1d0-0x1d3.7 (4)
0x1d0|            5e 88 af 00                        |    ^...        |      [106]: "2020-04-04T16:00:00Z" (1586016000) transition_time 0x1d4-0x1d7.7 (4)
0x1d0|                        5f 78 a0 00            |        _x..    |      [107]: "2020-10-03T16:00:00Z" (1601740800) transition_time 0x1d8-0x1db.7 (4)
0x1d0|                                    60 68 91 00|            `h..|      [108]: "2021-04-03T16:00:00Z" (1617465600) transition_time 0x1dc-0x1df.7 (4)
0x1e0|61 58 82 00                                    |aX..            |      [109]: "2021-10-02T16:00:00Z" (1633190400) transition_time 0x1e0-0x1e3.7 (4)
0x1e0|            62 48 73 00                        |    bHs.        |      [110]: "2022-04-02T16:00:00Z" (1648915200) transition_time 0x1e4-0x1e7.7 (4)
0x1e0|                        63 38 64 00            |        c8d.    |      [111]: "2022-10-01T16:00:00Z" (1664640000) transition_time 0x1e8-0x1eb.7 (4)
0x1e0|                                    64 28 55 00|            d(U.|      [112]: "2023-04-01T16:00:00Z" (1680364800) transition_time 0x1ec-0x1ef.7 (4)
0x1f0|65 18 46 00                                    |e.F.            |      [113]: "2023-09-30T16:00:00Z" (1696089600) transition_time 0x1f0-0x1f3.7 (4)
0x1f0|            66 11 71 80                        |    f.q.        |      [114]: "2024-04-06T16:00:00Z" (1712419200) transition_time 0x1f4-0x1f7.7 (4)
0x1f0|                        67 01 62 80            |        g.b.    |      [115]: "2024-10-05T16:00:00Z" (1728144000) transition_time 0x1f8-0x1fb.7 (4)
0x1f0|                                    67 f1 53 80|            g.S.|      [116]: "2025-04-05T16:00:00Z" (1743868800) transition_time 0x1fc-0x1ff.7 (4)
0x200|68 e1 44 80                                    |h.D.            |      [117]: "2025-10-04T16:00:00Z" (1759593600) transition_time 0x200-0x203.7 (4)
0x200|            69 d1 35 80                        |    i.5.        |      [118]: "2026-04-04T16:00:00Z" (1775318400) transition_time 0x204-0x207.7 (4)
0x200|                        6a c1 26 80            |        j.&.    |      [119]: "2026-10-03T16:00:00Z" (1791043200) transition_time 0x208-0x20b.7 (4)
0x200|                                    6b b1 17 80|            k...|      [120]: "2027-04-03T16:00:00Z" (1806768000) transition_time 0x20c-0x20f.7 (4)
0x210|6c a1 08 80                                    |l...            |      [121]: "2027-10-02T16:00:00Z" (1822492800) transition_time 0x210-0x213.7 (4)
0x210|            6d 90 f9 80                        |    m...        |      [122]: "2028-04-01T16:00:00Z" (1838217600) transition_time 0x214-0x217.7 (4)
0x210|                        6e 80 ea 80            |        n...    |      [123]: "2028-09-30T16:00:00Z" (1853942400) transition_time 0x218-0x21b.7 (4)
0x210|                                    6f 70 db 80|            op..|      [124]: "2029-03-31T16:00:00Z" (1869667200) transition_time 0x21c-0x21f.7 (4)
0x220|70 6a 07 00                                    |pj..            |      [125]: "2029-10-06T16:00:00Z" (1885996800) transition_time 0x220-0x223.7 (4)
0x220|            71 59 f8 00                        |    qY..        |      [126]: "2030-04-06T16:00:00Z" (1901721600) transition_time 0x224-0x227.7 (4)
0x220|                        72 49 e9 00            |        rI..    |      [127]: "2030-10-05T16:00:00Z" (1917446400) transition_time 0x228-0x22b.7 (4)
0x220|                                    73 39 da 00|            s9..|      [128]: "2031-04-05T16:00:00Z" (1933171200) transition_time 0x22c-0x22f.7 (4)
0x230|74 29 cb 00                                    |t)..            |      [129]: "2031-10-04T16:00:00Z" (1948896000) transition_time 0x230-0x233.7 (4)
0x230|            75 19 bc 00                        |    u...        |      [130]: "2032-04-03T16:00:00Z" (1964620800) transition_time 0x234-0x237.7 (4)
0x230|                        76 09 ad 00            |        v...    |      [131]: "2032-10-02T16:00:00Z" (1980345600) transition_time 0x238-0x23b.7 (4)
0x230|                                    76 f9 9e 00|            v...|      [132]: "2033-04-02T16:00:00Z" (1996070400) transition_time 0x23c-0x23f.7 (4)
0x240|77 e9 8f 00                                    |w...            |      [133]: "2033-10-01T16:00:00Z" (2011795200) transition_time 0x240-0x243.7 (4)
0x240|            78 d9 80 00                        |    x...        |      [134]: "2034-04-01T16:00:00Z" (2027520000) transition_time 0x244-0x247.7 (4)
0x240|                        79 c9 71 00            |        y.q.    |      [135]: "2034-09-30T16:00:00Z" (2043244800) transition_time 0x248-0x24b.7 (4)
0x240|                                    7a b9 62 00|            z.b.|      [136]: "2035-03-31T16:00:00Z" (2058969600) transition_time 0x24c-0x24f.7 (4)
0x250|7b b2 8d 80                                    |{...            |      [137]: "2035-10-06T16:00:00Z" (2075299200) transition_time 0x250-0x253.7 (4)
0x250|            7c a2 7e 80                        |    |.~.        |      [138]: "2036-04-05T16:00:00Z" (2091024000) transition_time 0x254-0x257.7 (4)
0x250|                        7d 92 6f 80            |        }.o.    |      [139]: "2036-10-04T16:00:00Z" (2106748800) transition_time 0x258-0x25b.7 (4)
0x250|                                    7e 82 60 80|            ~.`.|      [140]: "2037-04-04T16:00:00Z" (2122473600) transition_time 0x25c-0x25f.7 (4)
0x260|7f 72 51 80                                    |.rQ.            |      [141]: "2037-10-03T16:00:00Z" (2138198400) transition_time 0x260-0x263.7 (4)
     |                                               |                |    transition_types[0:142]: 0x264-0x2f1.7 (142)
0x260|            03                                 |    .           |      [0]: 3 transition_type 0x264-0x264.7 (1)
0x260|               01                              |     .          |      [1]: 1 transition_type 0x265-0x265.7 (1)
0x260|                  02                           |      .         |      [2]: 2 transition_type 0x266-0x266.7 (1)
0x260|                     01                        |       .        |      [3]: 1 transition_type 0x267-0x267.7 (1)
0x260|                        02                     |        .       |      [4]: 2 transition_type 0x268-0x268.7 (1)
0x260|                           01                  |         .      |      [5]: 1 transition_type 0x269-0x269.7 (1)
0x260|                              02               |          .     |      [6]: 2 transition_type 0x26a-0x26a.7 (1)
0x260|                                 01            |           .    |      [7]: 1 transition_type 0x26b-0x26b.7 (1)
0x260|                                    02         |            .   |      [8]: 2 transition_type 0x26c-0x26c.7 (1)
0x260|                                       01      |             .  |      [9]: 1 transition_type 0x26d-0x26d.7 (1)
0x260|                                          02   |              . |      [10]: 2 transition_type 0x26e-0x26e.7 (1)
0x260|                                             01|               .|      [11]: 1 transition_type 0x26f-0x26f.7 (1)
0x270|02                                             |.               |      [12]: 2 transition_type 0x270-0x270.7 (1)
0x270|   01                                          | .              |      [13]: 1 transition_type 0x271-0x271.7 (1)
0x270|      02                                       |  .             |      [14]: 2 transition_type 0x272-0x272.7 (1)
0x270|         01                                    |   .            |      [15]: 1 transition_type 0x273-0x273.7 (1)
0x270|            02                                 |    .           |      [16]: 2 transition_type 0x274-0x274.7 (1)
0x270|               01                              |     .          |      [17]: 1 transition_type 0x275-0x275.7 (1)
0x270|                  02                           |      .         |      [18]: 2 transition_type 0x276-0x276.7 (1)
0x270|                     01                        |       .        |      [19]: 1 transition_type 0x277-0x277.7 (1)
0x270|                        02                     |        .       |      [20]: 2 transition_type 0x278-0x278.7 (1)
0x270|                           01                  |         .      |      [21]: 1 transition_type 0x279-0x279.7 (1)
0x270|                              02               |          .     |      [22]: 2 transition_type 0x27a-0x27a.7 (1)
0x270|                                 01            |           .    |      [23]: 1 transition_type 0x27b-0x27b.7 (1)
0x270|                                    02         |            .   |      [24]: 2 transition_type 0x27c-0x27c.7 (1)
0x270|                                       01      |             .  |      [25]: 1 transition_type 0x27d-0x27d.7 (1)
0x270|                                          02   |              . |      [26]: 2 transition_type 0x27e-0x27e.7 (1)
0x270|                                             01|               .|      [27]: 1 transition_type 0x27f-0x27f.7 (1)
0x280|02                                             |.               |      [28]: 2 transition_type 0x280-0x280.7 (1)
0x280|   01                                          | .              |      [29]: 1 transition_type 0x281-0x281.7 (1)
0x280|      02                                       |  .             |      [30]: 2 transition_type 0x282-0x282.7 (1)
0x280|         01                                    |   .            |      [31]: 1 transition_type 0x283-0x283.7 (1)
0x280|            02                                 |    .           |      [32]: 2 transition_type 0x284-0x284.7 (1)
0x280|               01                              |     .          |      [33]: 1 transition_type 0x285-0x285.7 (1)
0x280|                  02                           |      .         |      [34]: 2 transition_type 0x286-0x286.7 (1)
0x280|                     01                        |       .        |      [35]: 1 transition_type 0x287-0x287.7 (1)
0x280|                        02                     |        .       |      [36]: 2 transition_type 0x288-0x288.7 (1)
0x280|                           01                  |         .      |      [37]: 1 transition_type 0x289-0x289.7 (1)
0x280|                              02               |          .     |      [38]: 2 transition_type 0x28a-0x28a.7 (1)
0x280|                                 01            |           .    |      [39]: 1 transition_type 0x28b-0x28b.7 (1)
0x280|                                    02         |            .   |      [40]: 2 transition_type 0x28c-0x28c.7 (1)
0x280|                                       01      |             .  |      [41]: 1 transition_type 0x28d-0x28d.7 (1)
0x280|                                          02   |              . |      [42]: 2 transition_type 0x28e-0x28e.7 (1)
0x280|                                             01|               .|      [43]: 1 transition_type 0x28f-0x28f.7 (1)
0x290|02                                             |.               |      [44]: 2 transition_type 0x290-0x290.7 (1)
0x290|   01                                          | .              |      [45]: 1 transition_type 0x291-0x291.7 (1)
0x290|      02                                       |  .             |      [46]: 2 transition_type 0x292-0x292.7 (1)
0x290|         01                                    |   .            |      [47]: 1 transition_type 0x293-0x293.7 (1)
0x290|            02                                 |    .           |      [48]: 2 transition_type 0x294-0x294.7 (1)
0x290|               01                              |     .          |      [49]: 1 transition_type 0x295-0x295.7 (1)
0x290|                  02                           |      .         |      [50]: 2 transition_type 0x296-0x296.7 (1)
0x290|                     01                        |       .        |      [51]: 1 transition_type 0x297-0x297.7 (1)
0x290|                        02                     |        .       |      [52]: 2 transition_type 0x298-0x298.7 (1)
0x290|                           01                  |         .      |      [53]: 1 transition_type 0x299-0x299.7 (1)
0x290|                              02               |          .     |      [54]: 2 transition_type 0x29a-0x29a.7 (1)
0x290|                                 01            |           .    |      [55]: 1 transition_type 0x29b-0x29b.7 (1)
0x290|                                    02         |            .   |      [56]: 2 transition_type 0x29c-0x29c.7 (1)
0x290|                                       01      |             .  |      [57]: 1 transition_type 0x29d-0x29d.7 (1)
0x290|                                          02   |              . |      [58]: 2 transition_type 0x29e-0x29e.7 (1)
0x290|                                             01|               .|      [59]: 1 transition_type 0x29f-0x29f.7 (1)
0x2a0|02                                             |.               |      [60]: 2 transition_type 0x2a0-0x2a0.7 (1)
0x2a0|   01                                          | .              |      [61]: 1 transition_type 0x2a1-0x2a1.7 (1)
0x2a0|      02                                       |  .             |      [62]: 2 transition_type 0x2a2-0x2a2.7 (1)
0x2a0|         01                                    |   .            |      [63]: 1 transition_type 0x2a3-0x2a3.7 (1)
0x2a0|            02                                 |    .           |      [64]: 2 transition_type 0x2a4-0x2a4.7 (1)
0x2a0|               01                              |     .          |      [65]: 1 transition_type 0x2a5-0x2a5.7 (1)
0x2a0|                  02                           |      .         |      [66]: 2 transition_type 0x2a6-0x2a6.7 (1)
0x2a0|                     01                        |       .        |      [67]: 1 transition_type 0x2a7-0x2a7.7 (1)
0x2a0|                        02                     |        .       |      [68]: 2 transition_type 0x2a8-0x2a8.7 (1)
0x2a0|                           01                  |         .      |      [69]: 1 transition_type 0x2a9-0x2a9.7 (1)
0x2a0|                              02               |          .     |      [70]: 2 transition_type 0x2aa-0x2aa.7 (1)
0x2a0|                                 01            |           .    |      [71]: 1 transition_type 0x2ab-0x2ab.7 (1)
0x2a0|                                    02         |            .   |      [72]: 2 transition_type 0x2ac-0x2ac.7 (1)
0x2a0|                                       01      |             .  |      [73]: 1 transition_type 0x2ad-0x2ad.7 (1)
0x2a0|                                          02   |              . |      [74]: 2 transition_type 0x2ae-0x2ae.7 (1)
0x2a0|                                             01|               .|      [75]: 1 transition_type 0x2af-0x2af.7 (1)
0x2b0|02                                             |.               |      [76]: 2 transition_type 0x2b0-0x2b0.7 (1)
0x2b0|   01                                          | .              |      [77]: 1 transition_type 0x2b1-0x2b1.7 (1)
0x2b0|      02                                       |  .             |      [78]: 2 transition_type 0x2b2-0x2b2.7 (1)
0x2b0|         01                                    |   .            |      [79]: 1 transition_type 0x2b3-0x2b3.7 (1)
0x2b0|            02                                 |    .           |      [80]: 2 transition_type 0x2b4-0x2b4.7 (1)
0x2b0|               01                              |     .          |      [81]: 1 transition_type 0x2b5-0x2b5.7 (1)
0x2b0|                  02                           |      .         |      [82]: 2 transition_type 0x2b6-0x2b6.7 (1)
0x2b0|                     01                        |       .        |      [83]: 1 transition_type 0x2b7-0x2b7.7 (1)
0x2b0|                        02                     |        .       |      [84]: 2 transition_type 0x2b8-0x2b8.7 (1)
0x2b0|                           01                  |         .      |      [85]: 1 transition_type 0x2b9-0x2b9.7 (1)
0x2b0|                              02               |          .     |      [86]: 2 transition_type 0x2ba-0x2ba.7 (1)
0x2b0|                                 01            |           .    |      [87]: 1 transition_type 0x2bb-0x2bb.7 (1)
0x2b0|                                    02         |            .   |      [88]: 2 transition_type 0x2bc-0x2bc.7 (1)
0x2b0|                                       01      |             .  |      [89]: 1 transition_type 0x2bd-0x2bd.7 (1)
0x2b0|                                          02   |              . |      [90]: 2 transition_type 0x2be-0x2be.7 (1)
0x2b0|                                             01|               .|      [91]: 1 transition_type 0x2bf-0x2bf.7 (1)
0x2c0|02                                             |.               |      [92]: 2 transition_type 0x2c0-0x2c0.7 (1)
0x2c0|   01                                          | .              |      [93]: 1 transition_type 0x2c1-0x2c1.7 (1)
0x2c0|      02                                       |  .             |      [94]: 2 transition_type 0x2c2-0x2c2.7 (1)
0x2c0|         01                                    |   .            |      [95]: 1 transition_type 0x2c3-0x2c3.7 (1)
0x2c0|            02                                 |    .           |      [96]: 2 transition_type 0x2c4-0x2c4.7 (1)
0x2c0|               01                              |     .          |      [97]: 1 transition_type 0x2c5-0x2c5.7 (1)
0x2c0|                  02                           |      .         |      [98]: 2 transition_type 0x2c6-0x2c6.7 (1)
0x2c0|                     01                        |       .        |      [99]: 1 transition_type 0x2c7-0x2c7.7 (1)
0x2c0|                        02                     |        .       |      [100]: 2 transition_type 0x2c8-0x2c8.7 (1)
0x2c0|                           01                  |         .      |      [101]: 1 transition_type 0x2c9-0x2c9.7 (1)
0x2c0|                              02               |          .     |      [102]: 2 transition_type 0x2ca-0x2ca.7 (1)
0x2c0|                                 01            |           .    |      [103]: 1 transition_type 0x2cb-0x2cb.7 (1)
0x2c0|                                    02         |            .   |      [104]: 2 transition_type 0x2cc-0x2cc.7 (1)
0x2c0|                                       01      |             .  |      [105]: 1 transition_type 0x2cd-0x2cd.7 (1)
0x2c0|                                          02   |              . |      [106]: 2 transition_type 0x2ce-0x2ce.7 (1)
0x2c0|                                             01|               .|      [107]: 1 transition_type 0x2cf-0x2cf.7 (1)
0x2d0|02                                             |.               |      [108]: 2 transition_type 0x2d0-0x2d0.7 (1)
0x2d0|   01                                          | .              |      [109]: 1 transition_type 0x2d1-0x2d1.7 (1)
0x2d0|      02                                       |  .             |      [110]: 2 transition_type 0x2d2-0x2d2.7 (1)
0x2d0|         01                                    |   .            |      [111]: 1 transition_type 0x2d3-0x2d3.7 (1)
0x2d0|            02                                 |    .           |      [112]: 2 transition_type 0x2d4-0x2d4.7 (1)
0x2d0|               01                              |     .          |      [113]: 1 transition_type 0x2d5-0x2d5.7 (1)
0x2d0|                  02                           |      .         |      [114]: 2 transition_type 0x2d6-0x2d6.7 (1)
0x2d0|                     01                        |       .        |      [115]: 1 transition_type 0x2d7-0x2d7.7 (1)
0x2d0|                        02                     |        .       |      [116]: 2 transition_type 0x2d8-0x2d8.7 (1)
0x2d0|                           01                  |         .      |      [117]: 1 transition_type 0x2d9-0x2d9.7 (1)
0x2d0|                              02               |          .     |      [118]: 2 transition_type 0x2da-0x2da.7 (1)
0x2d0|                                 01            |           .    |      [119]: 1 transition_type 0x2db-0x2db.7 (1)
0x2d0|                                    02         |            .   |      [120]: 2 transition_type 0x2dc-0x2dc.7 (1)
0x2d0|                                       01      |             .  |      [121]: 1 transition_type 0x2dd-0x2dd.7 (1)
0x2d0|                                          02   |              . |      [122]: 2 transition_type 0x2de-0x2de.7 (1)
0x2d0|                                             01|               .|      [123]: 1 transition_type 0x2df-0x2df.7 (1)
0x2e0|02                                             |.               |      [124]: 2 transition_type 0x2e0-0x2e0.7 (1)
0x2e0|   01                                          | .              |      [125]: 1 transition_type 0x2e1-0x2e1.7 (1)
0x2e0|      02                                       |  .             |      [126]: 2 transition_type 0x2e2-0x2e2.7 (1)
0x2e0|         01                                    |   .            |      [127]: 1 transition_type 0x2e3-0x2e3.7 (1)
0x2e0|            02                                 |    .           |      [128]: 2 transition_type 0x2e4-0x2e4.7 (1)
0x2e0|               01                              |     .          |      [129]: 1 transition_type 0x2e5-0x2e5.7 (1)
0x2e0|                  02                           |      .         |      [130]: 2 transition_type 0x2e6-0x2e6.7 (1)
0x2e0|                     01                        |       .        |      [131]: 1 transition_type 0x2e7-0x2e7.7 (1)
0x2e0|                        02                     |        .       |      [132]: 2 transition_type 0x2e8-0x2e8.7 (1)
0x2e0|                           01                  |         .      |      [133]: 1 transition_type 0x2e9-0x2e9.7 (1)
0x2e0|                              02               |          .     |      [134]: 2 transition_type 0x2ea-0x2ea.7 (1)
0x2e0|                                 01            |           .    |      [135]: 1 transition_type 0x2eb-0x2eb.7 (1)
0x2e0|                                    02         |            .   |      [136]: 2 transition_type 0x2ec-0x2ec.7 (1)
0x2e0|                                       01      |             .  |      [137]: 1 transition_type 0x2ed-0x2ed.7 (1)
0x2e0|                                          02   |              . |      [138]: 2 transition_type 0x2ee-0x2ee.7 (1)
0x2e0|                                             01|               .|      [139]: 1 transition_type 0x2ef-0x2ef.7 (1)
0x2f0|02                                             |.               |      [140]: 2 transition_type 0x2f0-0x2f0.7 (1)
0x2f0|   01                                          | .              |      [141]: 1 transition_type 0x2f1-0x2f1.7 (1)
     |                                               |                |    local_time_type_records[0:4]: 0x2f2-0x309.7 (24)
     |                                               |                |      [0]{}: local_time_type 0x2f2-0x2f7.7 (6)
0x2f0|      00 00 87 e8                              |  ....          |        utoff: 34792 (valid) 0x2f2-0x2f5.7 (4)
0x2f0|                  00                           |      .         |        dst: 0 (valid) 0x2f6-0x2f6.7 (1)
0x2f0|                     00                        |       .        |        idx: 0 (valid) 0x2f7-0x2f7.7 (1)
     |                                               |                |      [1]{}: local_time_type 0x2f8-0x2fd.7 (6)
0x2f0|                        00 00 9a b0            |        ....    |        utoff: 39600 (valid) 0x2f8-0x2fb.7 (4)
0x2f0|                                    01         |            .   |        dst: 1 (valid) 0x2fc-0x2fc.7 (1)
0x2f0|                                       04      |             .  |        idx: 4 (valid) 0x2fd-0x2fd.7 (1)
     |                                               |                |      [2]{}: local_time_type 0x2fe-0x303.7 (6)
0x2f0|                                          00 00|              ..|        utoff: 36000 (valid) 0x2fe-0x301.7 (4)
0x300|8c a0                                          |..              |
0x300|      00                                       |  .             |        dst: 0 (valid) 0x302-0x302.7 (1)
0x300|         09                                    |   .            |        idx: 9 (valid) 0x303-0x303.7 (1)
     |                                               |                |      [3]{}: local_time_type 0x304-0x309.7 (6)
0x300|            00 00 8c a0                        |    ....        |        utoff: 36000 (valid) 0x304-0x307.7 (4)
0x300|                        00                     |        .       |        dst: 0 (valid) 0x308-0x308.7 (1)
0x300|                           09                  |         .      |        idx: 9 (valid) 0x309-0x309.7 (1)
     |                                               |                |    time_zone_designations[0:3]: 0x30a-0x317.7 (14)
0x300|                              4c 4d 54 00      |          LMT.  |      [0]: "LMT" time_zone_designation 0x30a-0x30d.7 (4)
0x300|                                          41 45|              AE|      [1]: "AEDT" time_zone_designation 0x30e-0x312.7 (5)
0x310|44 54 00                                       |DT.             |
0x310|         41 45 53 54 00                        |   AEST.        |      [2]: "AEST" time_zone_designation 0x313-0x317.7 (5)
     |                                               |                |    leap_second_records[0:0]: 0x318-NA (0)
     |                                               |                |    standard_wall_indicators[0:4]: 0x318-0x31b.7 (4)
0x310|                        00                     |        .       |      [0]: 0 standard_wall_indicator (valid) 0x318-0x318.7 (1)
0x310|                           01                  |         .      |      [1]: 1 standard_wall_indicator (valid) 0x319-0x319.7 (1)
0x310|                              01               |          .     |      [2]: 1 standard_wall_indicator (valid) 0x31a-0x31a.7 (1)
0x310|                                 00            |           .    |      [3]: 0 standard_wall_indicator (valid) 0x31b-0x31b.7 (1)
     |                                               |                |    ut_local_indicators[0:0]: 0x31c-NA (0)
     |                                               |                |  v2plusheader{}: 0x31c-0x347.7 (44)
0x310|                                    54 5a 69 66|            TZif|    magic: 0x545a6966 (valid) 0x31c-0x31f.7 (4)
0x320|32                                             |2               |    ver: "2" (0x32) (valid) 0x320-0x320.7 (1)
0x320|   00 00 00 00 00 00 00 00 00 00 00 00 00 00 00| ...............|    reserved: raw bits 0x321-0x32f.7 (15)
0x330|00 00 00 00                                    |....            |    isutcnt: 0 0x330-0x333.7 (4)
0x330|            00 00 00 04                        |    ....        |    isstdcnt: 4 0x334-0x337.7 (4)
0x330|                        00 00 00 00            |        ....    |    leapcnt: 0 0x338-0x33b.7 (4)
0x330|                                    00 00 00 8e|            ....|    timecnt: 142 0x33c-0x33f.7 (4)
0x340|00 00 00 04                                    |....            |    typecnt: 4 0x340-0x343.7 (4)
0x340|            00 00 00 0e                        |    ....        |    charcnt: 14 0x344-0x347.7 (4)
     |                                               |                |  v2plusdatablock{}: 0x348-0x86f.7 (1320)
     |                                               |                |    transition_times[0:142]: 0x348-0x7b7.7 (1136)
0x340|                        ff ff ff ff 73 16 85 18|        ....s...|      [0]: "1895-01-31T14:20:08Z" (-2364111592) transition_time 0x348-0x34f.7 (8)
0x350|ff ff ff ff 9c 4e c2 80                        |.....N..        |      [1]: "1916-12-31T16:00:00Z" (-1672560000) transition_time 0x350-0x357.7 (8)
0x350|                        ff ff ff ff 9c bc 2f 00|        ....../.|      [2]: "1917-03-24T16:00:00Z" (-1665388800) transition_time 0x358-0x35f.7 (8)
0x360|ff ff ff ff cb 54 b3 00                        |.....T..        |      [3]: "1941-12-31T16:00:00Z" (-883641600) transition_time 0x360-0x367.7 (8)
0x360|                        ff ff ff ff cb c7 65 80|        ......e.|      [4]: "1942-03-28T16:00:00Z" (-876124800) transition_time 0x368-0x36f.7 (8)
0x370|ff ff ff ff cc b7 56 80                        |......V.        |      [5]: "1942-09-26T16:00:00Z" (-860400000) transition_time 0x370-0x377.7 (8)
0x370|                        ff ff ff ff cd a7 47 80|        ......G.|      [6]: "1943-03-27T16:00:00Z" (-844675200) transition_time 0x378-0x37f.7 (8)
0x380|ff ff ff ff ce a0 73 00                        |......s.        |      [7]: "1943-10-02T16:00:00Z" (-828345600) transition_time 0x380-0x387.7 (8)
0x380|                        ff ff ff ff cf 87 29 80|        ......).|      [8]: "1944-03-25T16:00:00Z" (-813225600) transition_time 0x388-0x38f.7 (8)
0x390|00 00 00 00 03 70 39 80                        |.....p9.        |      [9]: "1971-10-30T16:00:00Z" (57686400) transition_time 0x390-0x397.7 (8)
0x390|                        00 00 00 00 04 0d 1c 00|        ........|      [10]: "1972-02-26T16:00:00Z" (67968000) transition_time 0x398-0x39f.7 (8)
0x3a0|00 00 00 00 05 50 1b 80                        |.....P..        |      [11]: "1972-10-28T16:00:00Z" (89136000) transition_time 0x3a0-0x3a7.7 (8)
0x3a0|                        00 00 00 00 05 f6 38 80|        ......8.|      [12]: "1973-03-03T16:00:00Z" (100022400) transition_time 0x3a8-0x3af.7 (8)
0x3b0|00 00 00 00 07 2f fd 80                        |...../..        |      [13]: "1973-10-27T16:00:00Z" (120585600) transition_time 0x3b0-0x3b7.7 (8)
0x3b0|                        00 00 00 00 07 d6 1a 80|        ........|      [14]: "1974-03-02T16:00:00Z" (131472000) transition_time 0x3b8-0x3bf.7 (8)
0x3c0|00 00 00 00 09 0f df 80                        |........        |      [15]: "1974-10-26T16:00:00Z" (152035200) transition_time 0x3c0-0x3c7.7 (8)
0x3c0|                        00 00 00 00 09 b5 fc 80|        ........|      [16]: "1975-03-01T16:00:00Z" (162921600) transition_time 0x3c8-0x3cf.7 (8)
0x3d0|00 00 00 00 0a ef c1 80                        |........        |      [17]: "1975-10-25T16:00:00Z" (183484800) transition_time 0x3d0-0x3d7.7 (8)
0x3d0|                        00 00 00 00 0b 9f 19 00|        ........|      [18]: "1976-03-06T16:00:00Z" (194976000) transition_time 0x3d8-0x3df.7 (8)
0x3e0|00 00 00 00 0c d8 de 00                        |........        |      [19]: "1976-10-30T16:00:00Z" (215539200) transition_time 0x3e0-0x3e7.7 (8)
0x3e0|                        00 00 00 00 0d 7e fb 00|        .....~..|      [20]: "1977-03-05T16:00:00Z" (226425600) transition_time 0x3e8-0x3ef.7 (8)
0x3f0|00 00 00 00 0e b8 c0 00                        |........        |      [21]: "1977-10-29T16:00:00Z" (246988800) transition_time 0x3f0-0x3f7.7 (8)
0x3f0|                        00 00 00 00 0f 5e dd 00|        .....^..|      [22]: "1978-03-04T16:00:00Z" (257875200) transition_time 0x3f8-0x3ff.7 (8)
0x400|00 00 00 00 10 98 a2 00                        |........        |      [23]: "1978-10-28T16:00:00Z" (278438400) transition_time 0x400-0x407.7 (8)
0x400|                        00 00 00 00 11 3e bf 00|        .....>..|      [24]: "1979-03-03T16:00:00Z" (289324800) transition_time 0x408-0x40f.7 (8)
0x410|00 00 00 00 12 78 84 00                        |.....x..        |      [25]: "1979-10-27T16:00:00Z" (309888000) transition_time 0x410-0x417.7 (8)
0x410|                        00 00 00 00 13 1e a1 00|        ........|      [26]: "1980-03-01T16:00:00Z" (320774400) transition_time 0x418-0x41f.7 (8)
0x420|00 00 00 00 14 58 66 00                        |.....Xf.        |      [27]: "1980-10-25T16:00:00Z" (341337600) transition_time 0x420-0x427.7 (8)
0x420|                        00 00 00 00 14 fe 83 00|        ........|      [28]: "1981-02-28T16:00:00Z" (352224000) transition_time 0x428-0x42f.7 (8)
0x430|00 00 00 00 16 38 48 00                        |.....8H.        |      [29]: "1981-10-24T16:00:00Z" (372787200) transition_time 0x430-0x437.7 (8)
0x430|                        00 00 00 00 16 e7 9f 80|        ........|      [30]: "1982-03-06T16:00:00Z" (384278400) transition_time 0x438-0x43f.7 (8)
0x440|00 00 00 00 18 21 64 80                        |.....!d.        |      [31]: "1982-10-30T16:00:00Z" (404841600) transition_time 0x440-0x447.7 (8)
0x440|                        00 00 00 00 18 c7 81 80|        ........|      [32]: "1983-03-05T16:00:00Z" (415728000) transition_time 0x448-0x44f.7 (8)
0x450|00 00 00 00 1a 01 46 80                        |......F.        |      [33]: "1983-10-29T16:00:00Z" (436291200) transition_time 0x450-0x457.7 (8)
0x450|                        00 00 00 00 1a a7 63 80|        ......c.|      [34]: "1984-03-03T16:00:00Z" (447177600) transition_time 0x458-0x45f.7 (8)
0x460|00 00 00 00 1b e1 28 80                        |......(.        |      [35]: "1984-10-27T16:00:00Z" (467740800) transition_time 0x460-0x467.7 (8)
0x460|                        00 00 00 00 1c 87 45 80|        ......E.|      [36]: "1985-03-02T16:00:00Z" (478627200) transition_time 0x468-0x46f.7 (8)
0x470|00 00 00 00 1d c1 0a 80                        |........        |      [37]: "1985-10-26T16:00:00Z" (499190400) transition_time 0x470-0x477.7 (8)
0x470|                        00 00 00 00 1e 79 9c 80|        .....y..|      [38]: "1986-03-15T16:00:00Z" (511286400) transition_time 0x478-0x47f.7 (8)
0x480|00 00 00 00 1f 97 b2 00                        |........        |      [39]: "1986-10-18T16:00:00Z" (530035200) transition_time 0x480-0x487.7 (8)
0x480|                        00 00 00 00 20 59 7e 80|        .... Y~.|      [40]: "1987-03-14T16:00:00Z" (542736000) transition_time 0x488-0x48f.7 (8)
0x490|00 00 00 00 21 77 94 00                        |....!w..        |      [41]: "1987-10-17T16:00:00Z" (561484800) transition_time 0x490-0x497.7 (8)
0x490|                        00 00 00 00 22 42 9b 00|        ...."B..|      [42]: "1988-03-19T16:00:00Z" (574790400) transition_time 0x498-0x49f.7 (8)
0x4a0|00 00 00 00 23 69 eb 00                        |....#i..        |      [43]: "1988-10-29T16:00:00Z" (594144000) transition_time 0x4a0-0x4a7.7 (8)
0x4a0|                        00 00 00 00 24 22 7d 00|        ....$"}.|      [44]: "1989-03-18T16:00:00Z" (606240000) transition_time 0x4a8-0x4af.7 (8)
0x4b0|00 00 00 00 25 49 cd 00                        |....%I..        |      [45]: "1989-10-28T16:00:00Z" (625593600) transition_time 0x4b0-0x4b7.7 (8)
0x4b0|                        00 00 00 00 26 02 5f 00|        ....&._.|      [46]: "1990-03-17T16:00:00Z" (637689600) transition_time 0x4b8-0x4bf.7 (8)
0x4c0|00 00 00 00 27 29 af 00                        |....')..        |      [47]: "1990-10-27T16:00:00Z" (657043200) transition_time 0x4c0-0x4c7.7 (8)
0x4c0|                        00 00 00 00 27 cf cc 00|        ....'...|      [48]: "1991-03-02T16:00:00Z" (667929600) transition_time 0x4c8-0x4cf.7 (8)
0x4d0|00 00 00 00 29 09 91 00                        |....)...        |      [49]: "1991-10-26T16:00:00Z" (688492800) transition_time 0x4d0-0x4d7.7 (8)
0x4d0|                        00 00 00 00 29 af ae 00|        ....)...|      [50]: "1992-02-29T16:00:00Z" (699379200) transition_time 0x4d8-0x4df.7 (8)
0x4e0|00 00 00 00 2a e9 73 00                        |....*.s.        |      [51]: "1992-10-24T16:00:00Z" (719942400) transition_time 0x4e0-0x4e7.7 (8)
0x4e0|                        00 00 00 00 2b 98 ca 80|        ....+...|      [52]: "1993-03-06T16:00:00Z" (731433600) transition_time 0x4e8-0x4ef.7 (8)
0x4f0|00 00 00 00 2c d2 8f 80                        |....,...        |      [53]: "1993-10-30T16:00:00Z" (751996800) transition_time 0x4f0-0x4f7.7 (8)
0x4f0|                        00 00 00 00 2d 78 ac 80|        ....-x..|      [54]: "1994-03-05T16:00:00Z" (762883200) transition_time 0x4f8-0x4ff.7 (8)
0x500|00 00 00 00 2e b2 71 80                        |......q.        |      [55]: "1994-10-29T16:00:00Z" (783446400) transition_time 0x500-0x507.7 (8)
0x500|                        00 00 00 00 2f 74 3e 00|        ..../t>.|      [56]: "1995-03-25T16:00:00Z" (796147200) transition_time 0x508-0x50f.7 (8)
0x510|00 00 00 00 30 92 53 80                        |....0.S.        |      [57]: "1995-10-28T16:00:00Z" (814896000) transition_time 0x510-0x517.7 (8)
0x510|                        00 00 00 00 31 5d 5a 80|        ....1]Z.|      [58]: "1996-03-30T16:00:00Z" (828201600) transition_time 0x518-0x51f.7 (8)
0x520|00 00 00 00 32 72 35 80                        |....2r5.        |      [59]: "1996-10-26T16:00:00Z" (846345600) transition_time 0x520-0x527.7 (8)
0x520|                        00 00 00 00 33 3d 3c 80|        ....3=<.|      [60]: "1997-03-29T16:00:00Z" (859651200) transition_time 0x528-0x52f.7 (8)
0x530|00 00 00 00 34 52 17 80                        |....4R..        |      [61]: "1997-10-25T16:00:00Z" (877795200) transition_time 0x530-0x537.7 (8)
0x530|                        00 00 00 00 35 1d 1e 80|        ....5...|      [62]: "1998-03-28T16:00:00Z" (891100800) transition_time 0x538-0x53f.7 (8)
0x540|00 00 00 00 36 31 f9 80                        |....61..        |      [63]: "1998-10-24T16:00:00Z" (909244800) transition_time 0x540-0x547.7 (8)
0x540|                        00 00 00 00 36 fd 00 80|        ....6...|      [64]: "1999-03-27T16:00:00Z" (922550400) transition_time 0x548-0x54f.7 (8)
0x550|00 00 00 00 38 1b 16 00                        |....8...        |      [65]: "1999-10-30T16:00:00Z" (941299200) transition_time 0x550-0x557.7 (8)
0x550|                        00 00 00 00 38 dc e2 80|        ....8...|      [66]: "2000-03-25T16:00:00Z" (954000000) transition_time 0x558-0x55f.7 (8)
0x560|00 00 00 00 39 a7 e9 80                        |....9...        |      [67]: "2000-08-26T16:00:00Z" (967305600) transition_time 0x560-0x567.7 (8)
0x560|                        00 00 00 00 3a bc c4 80|        ....:...|      [68]: "2001-03-24T16:00:00Z" (985449600) transition_time 0x568-0x56f.7 (8)
0x570|00 00 00 00 3b da da 00                        |....;...        |      [69]: "2001-10-27T16:00:00Z" (1004198400) transition_time 0x570-0x577.7 (8)
0x570|                        00 00 00 00 3c a5 e1 00|        ....<...|      [70]: "2002-03-30T16:00:00Z" (1017504000) transition_time 0x578-0x57f.7 (8)
0x580|00 00 00 00 3d ba bc 00                        |....=...        |      [71]: "2002-10-26T16:00:00Z" (1035648000) transition_time 0x580-0x587.7 (8)
0x580|                        00 00 00 00 3e 85 c3 00|        ....>...|      [72]: "2003-03-29T16:00:00Z" (1048953600) transition_time 0x588-0x58f.7 (8)
0x590|00 00 00 00 3f 9a 9e 00                        |....?...        |      [73]: "2003-10-25T16:00:00Z" (1067097600) transition_time 0x590-0x597.7 (8)
0x590|                        00 00 00 00 40 65 a5 00|        ....@e..|      [74]: "2004-03-27T16:00:00Z" (1080403200) transition_time 0x598-0x59f.7 (8)
0x5a0|00 00 00 00 41 83 ba 80                        |....A...        |      [75]: "2004-10-30T16:00:00Z" (1099152000) transition_time 0x5a0-0x5a7.7 (8)
0x5a0|                        00 00 00 00 42 45 87 00|        ....BE..|      [76]: "2005-03-26T16:00:00Z" (1111852800) transition_time 0x5a8-0x5af.7 (8)
0x5b0|00 00 00 00 43 63 9c 80                        |....Cc..        |      [77]: "2005-10-29T16:00:00Z" (1130601600) transition_time 0x5b0-0x5b7.7 (8)
0x5b0|                        00 00 00 00 44 2e a3 80|        ....D...|      [78]: "2006-04-01T16:00:00Z" (1143907200) transition_time 0x5b8-0x5bf.7 (8)
0x5c0|00 00 00 00 45 43 7e 80                        |....EC~.        |      [79]: "2006-10-28T16:00:00Z" (1162051200) transition_time 0x5c0-0x5c7.7 (8)
0x5c0|                        00 00 00 00 46 05 4b 00|        ....F.K.|      [80]: "2007-03-24T16:00:00Z" (1174752000) transition_time 0x5c8-0x5cf.7 (8)
0x5d0|00 00 00 00 47 23 60 80                        |....G#`.        |      [81]: "2007-10-27T16:00:00Z" (1193500800) transition_time 0x5d0-0x5d7.7 (8)
0x5d0|                        00 00 00 00 47 f7 a2 00|        ....G...|      [82]: "2008-04-05T16:00:00Z" (1207411200) transition_time 0x5d8-0x5df.7 (8)
0x5e0|00 00 00 00 48 e7 93 00                        |....H...        |      [83]: "2008-10-04T16:00:00Z" (1223136000) transition_time 0x5e0-0x5e7.7 (8)
0x5e0|                        00 00 00 00 49 d7 84 00|        ....I...|      [84]: "2009-04-04T16:00:00Z" (1238860800) transition_time 0x5e8-0x5ef.7 (8)
0x5f0|00 00 00 00 4a c7 75 00                        |....J.u.        |      [85]: "2009-10-03T16:00:00Z" (1254585600) transition_time 0x5f0-0x5f7.7 (8)
0x5f0|                        00 00 00 00 4b b7 66 00|        ....K.f.|      [86]: "2010-04-03T16:00:00Z" (1270310400) transition_time 0x5f8-0x5ff.7 (8)
0x600|00 00 00 00 4c a7 57 00                        |....L.W.        |      [87]: "2010-10-02T16:00:00Z" (1286035200) transition_time 0x600-0x607.7 (8)
0x600|                        00 00 00 00 4d 97 48 00|        ....M.H.|      [88]: "2011-04-02T16:00:00Z" (1301760000) transition_time 0x608-0x60f.7 (8)
0x610|00 00 00 00 4e 87 39 00                        |....N.9.        |      [89]: "2011-10-01T16:00:00Z" (1317484800) transition_time 0x610-0x617.7 (8)
0x610|                        00 00 00 00 4f 77 2a 00|        ....Ow*.|      [90]: "2012-03-31T16:00:00Z" (1333209600) transition_time 0x618-0x61f.7 (8)
0x620|00 00 00 00 50 70 55 80                        |....PpU.        |      [91]: "2012-10-06T16:00:00Z" (1349539200) transition_time 0x620-0x627.7 (8)
0x620|                        00 00 00 00 51 60 46 80|        ....Q`F.|      [92]: "2013-04-06T16:00:00Z" (1365264000) transition_time 0x628-0x62f.7 (8)
0x630|00 00 00 00 52 50 37 80                        |....RP7.        |      [93]: "2013-10-05T16:00:00Z" (1380988800) transition_time 0x630-0x637.7 (8)
0x630|                        00 00 00 00 53 40 28 80|        ....S@(.|      [94]: "2014-04-05T16:00:00Z" (1396713600) transition_time 0x638-0x63f.7 (8)
0x640|00 00 00 00 54 30 19 80                        |....T0..        |      [95]: "2014-10-04T16:00:00Z" (1412438400) transition_time 0x640-0x647.7 (8)
0x640|                        00 00 00 00 55 20 0a 80|        ....U ..|      [96]: "2015-04-04T16:00:00Z" (1428163200) transition_time 0x648-0x64f.7 (8)
0x650|00 00 00 00 56 0f fb 80                        |....V...        |      [97]: "2015-10-03T16:00:00Z" (1443888000) transition_time 0x650-0x657.7 (8)
0x650|                        00 00 00 00 56 ff ec 80|        ....V...|      [98]: "2016-04-02T16:00:00Z" (1459612800) transition_time 0x658-0x65f.7 (8)
0x660|00 00 00 00 57 ef dd 80                        |....W...        |      [99]: "2016-10-01T16:00:00Z" (1475337600) transition_time 0x660-0x667.7 (8)
0x660|                        00 00 00 00 58 df ce 80|        ....X...|      [100]: "2017-04-01T16:00:00Z" (1491062400) transition_time 0x668-0x66f.7 (8)
0x670|00 00 00 00 59 cf bf 80                        |....Y...        |      [101]: "2017-09-30T16:00:00Z" (1506787200) transition_time 0x670-0x677.7 (8)
0x670|                        00 00 00 00 5a bf b0 80|        ....Z...|      [102]: "2018-03-31T16:00:00Z" (1522512000) transition_time 0x678-0x67f.7 (8)
0x680|00 00 00 00 5b b8 dc 00                        |....[...        |      [103]: "2018-10-06T16:00:00Z" (1538841600) transition_time 0x680-0x687.7 (8)
0x680|                        00 00 00 00 5c a8 cd 00|        ....\...|      [104]: "2019-04-06T16:00:00Z" (1554566400) transition_time 0x688-0x68f.7 (8)
0x690|00 00 00 00 5d 98 be 00                        |....]...        |      [105]: "2019-10-05T16:00:00Z" (1570291200) transition_time 0x690-0x697.7 (8)
0x690|                        00 00 00 00 5e 88 af 00|        ....^...|      [106]: "2020-04-04T16:00:00Z" (1586016000) transition_time 0x698-0x69f.7 (8)
0x6a0|00 00 00 00 5f 78 a0 00                        |...._x..        |      [107]: "2020-10-03T16:00:00Z" (1601740800) transition_time 0x6a0-0x6a7.7 (8)
0x6a0|                        00 00 00 00 60 68 91 00|        ....`h..|      [108]: "2021-04-03T16:00:00Z" (1617465600) transition_time 0x6a8-0x6af.7 (8)
0x6b0|00 00 00 00 61 58 82 00                        |....aX..        |      [109]: "2021-10-02T16:00:00Z" (1633190400) transition_time 0x6b0-0x6b7.7 (8)
0x6b0|                        00 00 00 00 62 48 73 00|        ....bHs.|      [110]: "2022-04-02T16:00:00Z" (1648915200) transition_time 0x6b8-0x6bf.7 (8)
0x6c0|00 00 00 00 63 38 64 00                        |....c8d.        |      [111]: "2022-10-01T16:00:00Z" (1664640000) transition_time 0x6c0-0x6c7.7 (8)
0x6c0|                        00 00 00 00 64 28 55 00|        ....d(U.|      [112]: "2023-04-01T16:00:00Z" (1680364800) transition_time 0x6c8-0x6cf.7 (8)
0x6d0|00 00 00 00 65 18 46 00                        |....e.F.        |      [113]: "2023-09-30T16:00:00Z" (1696089600) transition_time 0x6d0-0x6d7.7 (8)
0x6d0|                        00 00 00 00 66 11 71 80|        ....f.q.|      [114]: "2024-04-06T16:00:00Z" (1712419200) transition_time 0x6d8-0x6df.7 (8)
0x6e0|00 00 00 00 67 01 62 80                        |....g.b.        |      [115]: "2024-10-05T16:00:00Z" (1728144000) transition_time 0x6e0-0x6e7.7 (8)
0x6e0|                        00 00 00 00 67 f1 53 80|        ....g.S.|      [116]: "2025-04-05T16:00:00Z" (1743868800) transition_time 0x6e8-0x6ef.7 (8)
0x6f0|00 00 00 00 68 e1 44 80                        |....h.D.        |      [117]: "2025-10-04T16:00:00Z" (1759593600) transition_time 0x6f0-0x6f7.7 (8)
0x6f0|                        00 00 00 00 69 d1 35 80|        ....i.5.|      [118]: "2026-04-04T16:00:00Z" (1775318400) transition_time 0x6f8-0x6ff.7 (8)
0x700|00 00 00 00 6a c1 26 80                        |....j.&.        |      [119]: "2026-10-03T16:00:00Z" (1791043200) transition_time 0x700-0x707.7 (8)
0x700|                        00 00 00 00 6b b1 17 80|        ....k...|      [120]: "2027-04-03T16:00:00Z" (1806768000) transition_time 0x708-0x70f.7 (8)
0x710|00 00 00 00 6c a1 08 80                        |....l...        |      [121]: "2027-10-02T16:00:00Z" (1822492800) transition_time 0x710-0x717.7 (8)
0x710|                        00 00 00 00 6d 90 f9 80|        ....m...|      [122]: "2028-04-01T16:00:00Z" (1838217600) transition_time 0x718-0x71f.7 (8)
0x720|00 00 00 00 6e 80 ea 80                        |....n...        |      [123]: "2028-09-30T16:00:00Z" (1853942400) transition_time 0x720-0x727.7 (8)
0x720|                        00 00 00 00 6f 70 db 80|        ....op..|      [124]: "2029-03-31T16:00:00Z" (1869667200) transition_time 0x728-0x72f.7 (8)
0x730|00 00 00 00 70 6a 07 00                        |....pj..        |      [125]: "2029-10-06T16:00:00Z" (1885996800) transition_time 0x730-0x737.7 (8)
0x730|                        00 00 00 00 71 59 f8 00|        ....qY..|      [126]: "2030-04-06T16:00:00Z" (1901721600) transition_time 0x738-0x73f.7 (8)
0x740|00 00 00 00 72 49 e9 00                        |....rI..        |      [127]: "2030-10-05T16:00:00Z" (1917446400) transition_time 0x740-0x747.7 (8)
0x740|                        00 00 00 00 73 39 da 00|        ....s9..|      [128]: "2031-04-05T16:00:00Z" (1933171200) transition_time 0x748-0x74f.7 (8)
0x750|00 00 00 00 74 29 cb 00                        |....t)..        |      [129]: "2031-10-04T16:00:00Z" (1948896000) transition_time 0x750-0x757.7 (8)
0x750|                        00 00 00 00 75 19 bc 00|        ....u...|      [130]: "2032-04-03T16:00:00Z" (1964620800) transition_time 0x758-0x75f.7 (8)
0x760|00 00 00 00 76 09 ad 00                        |....v...        |      [131]: "2032-10-02T16:00:00Z" (1980345600) transition_time 0x760-0x767.7 (8)
0x760|                        00 00 00 00 76 f9 9e 00|        ....v...|      [132]: "2033-04-02T16:00:00Z" (1996070400) transition_time 0x768-0x76f.7 (8)
0x770|00 00 00 00 77 e9 8f 00                        |....w...        |      [133]: "2033-10-01T16:00:00Z" (2011795200) transition_time 0x770-0x777.7 (8)
0x770|                        00 00 00 00 78 d9 80 00|        ....x...|      [134]: "2034-04-01T16:00:00Z" (2027520000) transition_time 0x778-0x77f.7 (8)
0x780|00 00 00 00 79 c9 71 00                        |....y.q.        |      [135]: "2034-09-30T16:00:00Z" (2043244800) transition_time 0x780-0x787.7 (8)
0x780|                        00 00 00 00 7a b9 62 00|        ....z.b.|      [136]: "2035-03-31T16:00:00Z" (2058969600) transition_time 0x788-0x78f.7 (8)
0x790|00 00 00 00 7b b2 8d 80                        |....{...        |      [137]: "2035-10-06T16:00:00Z" (2075299200) transition_time 0x790-0x797.7 (8)
0x790|                        00 00 00 00 7c a2 7e 80|        ....|.~.|      [138]: "2036-04-05T16:00:00Z" (2091024000) transition_time 0x798-0x79f.7 (8)
0x7a0|00 00 00 00 7d 92 6f 80                        |....}.o.        |      [139]: "2036-10-04T16:00:00Z" (2106748800) transition_time 0x7a0-0x7a7.7 (8)
0x7a0|                        00 00 00 00 7e 82 60 80|        ....~.`.|      [140]: "2037-04-04T16:00:00Z" (2122473600) transition_time 0x7a8-0x7af.7 (8)
0x7b0|00 00 00 00 7f 72 51 80                        |.....rQ.        |      [141]: "2037-10-03T16:00:00Z" (2138198400) transition_time 0x7b0-0x7b7.7 (8)
     |                                               |                |    transition_types[0:142]: 0x7b8-0x845.7 (142)
0x7b0|                        03                     |        .       |      [0]: 3 transition_type 0x7b8-0x7b8.7 (1)
0x7b0|                           01                  |         .      |      [1]: 1 transition_type 0x7b9-0x7b9.7 (1)
0x7b0|                              02               |          .     |      [2]: 2 transition_type 0x7ba-0x7ba.7 (1)
0x7b0|                                 01            |           .    |      [3]: 1 transition_type 0x7bb-0x7bb.7 (1)
0x7b0|                                    02         |            .   |      [4]: 2 transition_type 0x7bc-0x7bc.7 (1)
0x7b0|                                       01      |             .  |      [5]: 1 transition_type 0x7bd-0x7bd.7 (1)
0x7b0|                                          02   |              . |      [6]: 2 transition_type 0x7be-0x7be.7 (1)
0x7b0|                                             01|               .|      [7]: 1 transition_type 0x7bf-0x7bf.7 (1)
0x7c0|02                                             |.               |      [8]: 2 transition_type 0x7c0-0x7c0.7 (1)
0x7c0|   01                                          | .              |      [9]: 1 transition_type 0x7c1-0x7c1.7 (1)
0x7c0|      02                                       |  .             |      [10]: 2 transition_type 0x7c2-0x7c2.7 (1)
0x7c0|         01                                    |   .            |      [11]: 1 transition_type 0x7c3-0x7c3.7 (1)
0x7c0|            02                                 |    .           |      [12]: 2 transition_type 0x7c4-0x7c4.7 (1)
0x7c0|               01                              |     .          |      [13]: 1 transition_type 0x7c5-0x7c5.7 (1)
0x7c0|                  02                           |      .         |      [14]: 2 transition_type 0x7c6-0x7c6.7 (1)
0x7c0|                     01                        |       .        |      [15]: 1 transition_type 0x7c7-0x7c7.7 (1)
0x7c0|                        02                     |        .       |      [16]: 2 transition_type 0x7c8-0x7c8.7 (1)
0x7c0|                           01                  |         .      |      [17]: 1 transition_type 0x7c9-0x7c9.7 (1)
0x7c0|                              02               |          .     |      [18]: 2 transition_type 0x7ca-0x7ca.7 (1)
0x7c0|                                 01            |           .    |      [19]: 1 transition_type 0x7cb-0x7cb.7 (1)
0x7c0|                                    02         |            .   |      [20]: 2 transition_type 0x7cc-0x7cc.7 (1)
0x7c0|                                       01      |             .  |      [21]: 1 transition_type 0x7cd-0x7cd.7 (1)
0x7c0|                                          02   |              . |      [22]: 2 transition_type 0x7ce-0x7ce.7 (1)
0x7c0|                                             01|               .|      [23]: 1 transition_type 0x7cf-0x7cf.7 (1)
0x7d0|02                                             |.               |      [24]: 2 transition_type 0x7d0-0x7d0.7 (1)
0x7d0|   01                                          | .              |      [25]: 1 transition_type 0x7d1-0x7d1.7 (1)
0x7d0|      02                                       |  .             |      [26]: 2 transition_type 0x7d2-0x7d2.7 (1)
0x7d0|         01                                    |   .            |      [27]: 1 transition_type 0x7d3-0x7d3.7 (1)
0x7d0|            02                                 |    .           |      [28]: 2 transition_type 0x7d4-0x7d4.7 (1)
0x7d0|               01                              |     .          |      [29]: 1 transition_type 0x7d5-0x7d5.7 (1)
0x7d0|                  02                           |      .         |      [30]: 2 transition_type 0x7d6-0x7d6.7 (1)
0x7d0|                     01                        |       .        |      [31]: 1 transition_type 0x7d7-0x7d7.7 (1)
0x7d0|                        02                     |        .       |      [32]: 2 transition_type 0x7d8-0x7d8.7 (1)
0x7d0|                           01                  |         .      |      [33]: 1 transition_type 0x7d9-0x7d9.7 (1)
0x7d0|                              02               |          .     |      [34]: 2 transition_type 0x7da-0x7da.7 (1)
0x7d0|                                 01            |           .    |      [35]: 1 transition_type 0x7db-0x7db.7 (1)
0x7d0|                                    02         |            .   |      [36]: 2 transition_type 0x7dc-0x7dc.7 (1)
0x7d0|                                       01      |             .  |      [37]: 1 transition_type 0x7dd-0x7dd.7 (1)
0x7d0|                                          02   |              . |      [38]: 2 transition_type 0x7de-0x7de.7 (1)
0x7d0|                                             01|               .|      [39]: 1 transition_type 0x7df-0x7df.7 (1)
0x7e0|02                                             |.               |      [40]: 2 transition_type 0x7e0-0x7e0.7 (1)
0x7e0|   01                                          | .              |      [41]: 1 transition_type 0x7e1-0x7e1.7 (1)
0x7e0|      02                                       |  .             |      [42]: 2 transition_type 0x7e2-0x7e2.7 (1)
0x7e0|         01                                    |   .            |      [43]: 1 transition_type 0x7e3-0x7e3.7 (1)
0x7e0|            02                                 |    .           |      [44]: 2 transition_type 0x7e4-0x7e4.7 (1)
0x7e0|               01                              |     .          |      [45]: 1 transition_type 0x7e5-0x7e5.7 (1)
0x7e0|                  02                           |      .         |      [46]: 2 transition_type 0x7e6-0x7e6.7 (1)
0x7e0|                     01                        |       .        |      [47]: 1 transition_type 0x7e7-0x7e7.7 (1)
0x7e0|                        02                     |        .       |      [48]: 2 transition_type 0x7e8-0x7e8.7 (1)
0x7e0|                           01                  |         .      |      [49]: 1 transition_type 0x7e9-0x7e9.7 (1)
0x7e0|                              02               |          .     |      [50]: 2 transition_type 0x7ea-0x7ea.7 (1)
0x7e0|                                 01            |           .    |      [51]: 1 transition_type 0x7eb-0x7eb.7 (1)
0x7e0|                                    02         |            .   |      [52]: 2 transition_type 0x7ec-0x7ec.7 (1)
0x7e0|                                       01      |             .  |      [53]: 1 transition_type 0x7ed-0x7ed.7 (1)
0x7e0|                                          02   |              . |      [54]: 2 transition_type 0x7ee-0x7ee.7 (1)
0x7e0|                                             01|               .|      [55]: 1 transition_type 0x7ef-0x7ef.7 (1)
0x7f0|02                                             |.               |      [56]: 2 transition_type 0x7f0-0x7f0.7 (1)
0x7f0|   01                                          | .              |      [57]: 1 transition_type 0x7f1-0x7f1.7 (1)
0x7f0|      02                                       |  .             |      [58]: 2 transition_type 0x7f2-0x7f2.7 (1)
0x7f0|         01                                    |   .            |      [59]: 1 transition_type 0x7f3-0x7f3.7 (1)
0x7f0|            02                                 |    .           |      [60]: 2 transition_type 0x7f4-0x7f4.7 (1)
0x7f0|               01                              |     .          |      [61]: 1 transition_type 0x7f5-0x7f5.7 (1)
0x7f0|                  02                           |      .         |      [62]: 2 transition_type 0x7f6-0x7f6.7 (1)
0x7f0|                     01                        |       .        |      [63]: 1 transition_type 0x7f7-0x7f7.7 (1)
0x7f0|                        02                     |        .       |      [64]: 2 transition_type 0x7f8-0x7f8.7 (1)
0x7f0|                           01                  |         .      |      [65]: 1 transition_type 0x7f9-0x7f9.7 (1)
0x7f0|                              02               |          .     |      [66]: 2 transition_type 0x7fa-0x7fa.7 (1)
0x7f0|                                 01            |           .    |      [67]: 1 transition_type 0x7fb-0x7fb.7 (1)
0x7f0|                                    02         |            .   |      [68]: 2 transition_type 0x7fc-0x7fc.7 (1)
0x7f0|                                       01      |             .  |      [69]: 1 transition_type 0x7fd-0x7fd.7 (1)
0x7f0|                                          02   |              . |      [70]: 2 transition_type 0x7fe-0x7fe.7 (1)
0x7f0|                                             01|               .|      [71]: 1 transition_type 0x7ff-0x7ff.7 (1)
0x800|02                                             |.               |      [72]: 2 transition_type 0x800-0x800.7 (1)
0x800|   01                                          | .              |      [73]: 1 transition_type 0x801-0x801.7 (1)
0x800|      02                                       |  .             |      [74]: 2 transition_type 0x802-0x802.7 (1)
0x800|         01                                    |   .            |      [75]: 1 transition_type 0x803-0x803.7 (1)
0x800|            02                                 |    .           |      [76]: 2 transition_type 0x804-0x804.7 (1)
0x800|               01                              |     .          |      [77]: 1 transition_type 0x805-0x805.7 (1)
0x800|                  02                           |      .         |      [78]: 2 transition_type 0x806-0x806.7 (1)
0x800|                     01                        |       .        |      [79]: 1 transition_type 0x807-0x807.7 (1)
0x800|                        02                     |        .       |      [80]: 2 transition_type 0x808-0x808.7 (1)
0x800|                           01                  |         .      |      [81]: 1 transition_type 0x809-0x809.7 (1)
0x800|                              02               |          .     |      [82]: 2 transition_type 0x80a-0x80a.7 (1)
0x800|                                 01            |           .    |      [83]: 1 transition_type 0x80b-0x80b.7 (1)
0x800|                                    02         |            .   |      [84]: 2 transition_type 0x80c-0x80c.7 (1)
0x800|                                       01      |             .  |      [85]: 1 transition_type 0x80d-0x80d.7 (1)
0x800|                                          02   |              . |      [86]: 2 transition_type 0x80e-0x80e.7 (1)
0x800|                                             01|               .|      [87]: 1 transition_type 0x80f-0x80f.7 (1)
0x810|02                                             |.               |      [88]: 2 transition_type 0x810-0x810.7 (1)
0x810|   01                                          | .              |      [89]: 1 transition_type 0x811-0x811.7 (1)
0x810|      02                                       |  .             |      [90]: 2 transition_type 0x812-0x812.7 (1)
0x810|         01                                    |   .            |      [91]: 1 transition_type 0x813-0x813.7 (1)
0x810|            02                                 |    .           |      [92]: 2 transition_type 0x814-0x814.7 (1)
0x810|               01                              |     .          |      [93]: 1 transition_type 0x815-0x815.7 (1)
0x810|                  02                           |      .         |      [94]: 2 transition_type 0x816-0x816.7 (1)
0x810|                     01                        |       .        |      [95]: 1 transition_type 0x817-0x817.7 (1)
0x810|                        02                     |        .       |      [96]: 2 transition_type 0x818-0x818.7 (1)
0x810|                           01                  |         .      |      [97]: 1 transition_type 0x819-0x819.7 (1)
0x810|                              02               |          .     |      [98]: 2 transition_type 0x81a-0x81a.7 (1)
0x810|                                 01            |           .    |      [99]: 1 transition_type 0x81b-0x81b.7 (1)
0x810|                                    02         |            .   |      [100]: 2 transition_type 0x81c-0x81c.7 (1)
0x810|                                       01      |             .  |      [101]: 1 transition_type 0x81d-0x81d.7 (1)
0x810|                                          02   |              . |      [102]: 2 transition_type 0x81e-0x81e.7 (1)
0x810|                                             01|               .|      [103]: 1 transition_type 0x81f-0x81f.7 (1)
0x820|02                                             |.               |      [104]: 2 transition_type 0x820-0x820.7 (1)
0x820|   01                                          | .              |      [105]: 1 transition_type 0x821-0x821.7 (1)
0x820|      02                                       |  .             |      [106]: 2 transition_type 0x822-0x822.7 (1)
0x820|         01                                    |   .            |      [107]: 1 transition_type 0x823-0x823.7 (1)
0x820|            02                                 |    .           |      [108]: 2 transition_type 0x824-0x824.7 (1)
0x820|               01                              |     .          |      [109]: 1 transition_type 0x825-0x825.7 (1)
0x820|                  02                           |      .         |      [110]: 2 transition_type 0x826-0x826.7 (1)
0x820|                     01                        |       .        |      [111]: 1 transition_type 0x827-0x827.7 (1)
0x820|                        02                     |        .       |      [112]: 2 transition_type 0x828-0x828.7 (1)
0x820|                           01                  |         .      |      [113]: 1 transition_type 0x829-0x829.7 (1)
0x820|                              02               |          .     |      [114]: 2 transition_type 0x82a-0x82a.7 (1)
0x820|                                 01            |           .    |      [115]: 1 transition_type 0x82b-0x82b.7 (1)
0x820|                                    02         |            .   |      [116]: 2 transition_type 0x82c-0x82c.7 (1)
0x820|                                       01      |             .  |      [117]: 1 transition_type 0x82d-0x82d.7 (1)
0x820|                                          02   |              . |      [118]: 2 transition_type 0x82e-0x82e.7 (1)
0x820|                                             01|               .|      [119]: 1 transition_type 0x82f-0x82f.7 (1)
0x830|02                                             |.               |      [120]: 2 transition_type 0x830-0x830.7 (1)
0x830|   01                                          | .              |      [121]: 1 transition_type 0x831-0x831.7 (1)
0x830|      02                                       |  .             |      [122]: 2 transition_type 0x832-0x832.7 (1)
0x830|         01                                    |   .            |      [123]: 1 transition_type 0x833-0x833.7 (1)
0x830|            02                                 |    .           |      [124]: 2 transition_type 0x834-0x834.7 (1)
0x830|               01                              |     .          |      [125]: 1 transition_type 0x835-0x835.7 (1)
0x830|                  02                           |      .         |      [126]: 2 transition_type 0x836-0x836.7 (1)
0x830|                     01                        |       .        |      [127]: 1 transition_type 0x837-0x837.7 (1)
0x830|                        02                     |        .       |      [128]: 2 transition_type 0x838-0x838.7 (1)
0x830|                           01                  |         .      |      [129]: 1 transition_type 0x839-0x839.7 (1)
0x830|                              02               |          .     |      [130]: 2 transition_type 0x83a-0x83a.7 (1)
0x830|                                 01            |           .    |      [131]: 1 transition_type 0x83b-0x83b.7 (1)
0x830|                                    02         |            .   |      [132]: 2 transition_type 0x83c-0x83c.7 (1)
0x830|                                       01      |             .  |      [133]: 1 transition_type 0x83d-0x83d.7 (1)
0x830|                                          02   |              . |      [134]: 2 transition_type 0x83e-0x83e.7 (1)
0x830|                                             01|               .|      [135]: 1 transition_type 0x83f-0x83f.7 (1)
0x840|02                                             |.               |      [136]: 2 transition_type 0x840-0x840.7 (1)
0x840|   01                                          | .              |      [137]: 1 transition_type 0x841-0x841.7 (1)
0x840|      02                                       |  .             |      [138]: 2 transition_type 0x842-0x842.7 (1)
0x840|         01                                    |   .            |      [139]: 1 transition_type 0x843-0x843.7 (1)
0x840|            02                                 |    .           |      [140]: 2 transition_type 0x844-0x844.7 (1)
0x840|               01                              |     .          |      [141]: 1 transition_type 0x845-0x845.7 (1)
     |                                               |                |    local_time_type_records[0:4]: 0x846-0x85d.7 (24)
     |                                               |                |      [0]{}: local_time_type 0x846-0x84b.7 (6)
0x840|                  00 00 87 e8                  |      ....      |        utoff: 34792 (valid) 0x846-0x849.7 (4)
0x840|                              00               |          .     |        dst: 0 (valid) 0x84a-0x84a.7 (1)
0x840|                                 00            |           .    |        idx: 0 (valid) 0x84b-0x84b.7 (1)
     |                                               |                |      [1]{}: local_time_type 0x84c-0x851.7 (6)
0x840|                                    00 00 9a b0|            ....|        utoff: 39600 (valid) 0x84c-0x84f.7 (4)
0x850|01                                             |.               |        dst: 1 (valid) 0x850-0x850.7 (1)
0x850|   04                                          | .              |        idx: 4 (valid) 0x851-0x851.7 (1)
     |                                               |                |      [2]{}: local_time_type 0x852-0x857.7 (6)
0x850|      00 00 8c a0                              |  ....          |        utoff: 36000 (valid) 0x852-0x855.7 (4)
0x850|                  00                           |      .         |        dst: 0 (valid) 0x856-0x856.7 (1)
0x850|                     09                        |       .        |        idx: 9 (valid) 0x857-0x857.7 (1)
     |                                               |                |      [3]{}: local_time_type 0x858-0x85d.7 (6)
0x850|                        00 00 8c a0            |        ....    |        utoff: 36000 (valid) 0x858-0x85b.7 (4)
0x850|                                    00         |            .   |        dst: 0 (valid) 0x85c-0x85c.7 (1)
0x850|                                       09      |             .  |        idx: 9 (valid) 0x85d-0x85d.7 (1)
     |                                               |                |    time_zone_designations[0:3]: 0x85e-0x86b.7 (14)
0x850|                                          4c 4d|              LM|      [0]: "LMT" time_zone_designation 0x85e-0x861.7 (4)
0x860|54 00                                          |T.              |
0x860|      41 45 44 54 00                           |  AEDT.         |      [1]: "AEDT" time_zone_designation 0x862-0x866.7 (5)
0x860|                     41 45 53 54 00            |       AEST.    |      [2]: "AEST" time_zone_designation 0x867-0x86b.7 (5)
     |                                               |                |    leap_second_records[0:0]: 0x86c-NA (0)
     |                                               |                |    standard_wall_indicators[0:4]: 0x86c-0x86f.7 (4)
0x860|                                    00         |            .   |      [0]: 0 standard_wall_indicator (valid) 0x86c-0x86c.7 (1)
0x860|                                       01      |             .  |      [1]: 1 standard_wall_indicator (valid) 0x86d-0x86d.7 (1)
0x860|                                          01   |              . |      [2]: 1 standard_wall_indicator (valid) 0x86e-0x86e.7 (1)
0x860|                                             00|               .|      [3]: 0 standard_wall_indicator (valid) 0x86f-0x86f.7 (1)
     |                                               |                |    ut_local_indicators[0:0]: 0x870-NA (0)
     |                                               |                |  footer{}: 0x870-0x88d.7 (30)
0x870|0a                                             |.               |    nl1: 10 (valid) 0x870-0x870.7 (1)
0x870|   41 45 53 54 2d 31 30 41 45 44 54 2c 4d 31 30| AEST-10AEDT,M10|    tz_string: "AEST-10AEDT,M10.1.0,M4.1.0/3" 0x871-0x88c.7 (28)
0x880|2e 31 2e 30 2c 4d 34 2e 31 2e 30 2f 33         |.1.0,M4.1.0/3   |
0x880|                                       0a|     |             .| |    nl2: 10 (valid) 0x88d-0x88d.7 (1)
