$ fq -d tzif dv Menominee
     |00 01 02 03 04 05 06 07 08 09 0a 0b 0c 0d 0e 0f|0123456789abcdef|.{}: Menominee (tzif) 0x0-0x95f.7 (2400)
     |                                               |                |  v1header{}: 0x0-0x2b.7 (44)
0x000|54 5a 69 66                                    |TZif            |    magic: 0x545a6966 (valid) 0x0-0x3.7 (4)
0x000|            32                                 |    2           |    ver: "2" (0x32) (valid) 0x4-0x4.7 (1)
0x000|               00 00 00 00 00 00 00 00 00 00 00|     ...........|    reserved: raw bits 0x5-0x13.7 (15)
0x010|00 00 00 00                                    |....            |
0x010|            00 00 00 07                        |    ....        |    isutcnt: 7 0x14-0x17.7 (4)
0x010|                        00 00 00 07            |        ....    |    isstdcnt: 7 0x18-0x1b.7 (4)
0x010|                                    00 00 00 1b|            ....|    leapcnt: 27 0x1c-0x1f.7 (4)
0x020|00 00 00 73                                    |...s            |    timecnt: 115 0x20-0x23.7 (4)
0x020|            00 00 00 07                        |    ....        |    typecnt: 7 0x24-0x27.7 (4)
0x020|                        00 00 00 18            |        ....    |    charcnt: 24 0x28-0x2b.7 (4)
     |                                               |                |  v1datablock{}: 0x2c-0x392.7 (871)
     |                                               |                |    transition_times[0:115]: 0x2c-0x1f7.7 (460)
0x020|                                    80 00 00 00|            ....|      [0]: "1901-12-13T20:45:52Z" (-2147483648) transition_time 0x2c-0x2f.7 (4)
0x030|9e a6 2c 80                                    |..,.            |      [1]: "1918-03-31T08:00:00Z" (-1633276800) transition_time 0x30-0x33.7 (4)
0x030|            9f ba f9 70                        |    ...p        |      [2]: "1918-10-27T07:00:00Z" (-1615136400) transition_time 0x34-0x37.7 (4)
0x030|                        a0 86 0e 80            |        ....    |      [3]: "1919-03-30T08:00:00Z" (-1601827200) transition_time 0x38-0x3b.7 (4)
0x030|                                    a1 9a db 70|            ...p|      [4]: "1919-10-26T07:00:00Z" (-1583686800) transition_time 0x3c-0x3f.7 (4)
0x040|cb 88 fe 80                                    |....            |      [5]: "1942-02-09T08:00:00Z" (-880214400) transition_time 0x40-0x43.7 (4)
0x040|            d2 23 f4 70                        |    .#.p        |      [6]: "1945-08-14T23:00:00Z" (-769395600) transition_time 0x44-0x47.7 (4)
0x040|                        d2 61 09 f0            |        .a..    |      [7]: "1945-09-30T07:00:00Z" (-765392400) transition_time 0x48-0x4b.7 (4)
0x040|                                    d3 75 f3 00|            .u..|      [8]: "1946-04-28T08:00:00Z" (-747244800) transition_time 0x4c-0x4f.7 (4)
0x050|d4 40 eb f0                                    |.@..            |      [9]: "1946-09-29T07:00:00Z" (-733942800) transition_time 0x50-0x53.7 (4)
0x050|            f9 0f 4a 80                        |    ..J.        |      [10]: "1966-04-24T08:00:00Z" (-116438400) transition_time 0x54-0x57.7 (4)
0x050|                        fa 08 67 f0            |        ..g.    |      [11]: "1966-10-30T07:00:00Z" (-100112400) transition_time 0x58-0x5b.7 (4)
0x050|                                    fe b8 2b 00|            ..+.|      [12]: "1969-04-27T08:00:00Z" (-21484800) transition_time 0x5c-0x5f.7 (4)
0x060|06 40 df 72                                    |.@.r            |      [13]: "1973-04-29T07:00:02Z" (104914802) transition_time 0x60-0x63.7 (4)
0x060|            07 30 d0 72                        |    .0.r        |      [14]: "1973-10-28T07:00:02Z" (120639602) transition_time 0x64-0x67.7 (4)
0x060|                        07 8d 27 83            |        ..'.    |      [15]: "1974-01-06T08:00:03Z" (126691203) transition_time 0x68-0x6b.7 (4)
0x060|                                    09 10 b2 73|            ...s|      [16]: "1974-10-27T07:00:03Z" (152089203) transition_time 0x6c-0x6f.7 (4)
0x070|09 ad a3 04                                    |....            |      [17]: "1975-02-23T08:00:04Z" (162374404) transition_time 0x70-0x73.7 (4)
0x070|            0a f0 94 74                        |    ...t        |      [18]: "1975-10-26T07:00:04Z" (183538804) transition_time 0x74-0x77.7 (4)
0x070|                        0b e0 93 85            |        ....    |      [19]: "1976-04-25T08:00:05Z" (199267205) transition_time 0x78-0x7b.7 (4)
0x070|                                    0c d9 b0 f5|            ....|      [20]: "1976-10-31T07:00:05Z" (215593205) transition_time 0x7c-0x7f.7 (4)
0x080|0d c0 75 86                                    |..u.            |      [21]: "1977-04-24T08:00:06Z" (230716806) transition_time 0x80-0x83.7 (4)
0x080|            0e b9 92 f6                        |    ....        |      [22]: "1977-10-30T07:00:06Z" (247042806) transition_time 0x84-0x87.7 (4)
0x080|                        0f a9 92 07            |        ....    |      [23]: "1978-04-30T08:00:07Z" (262771207) transition_time 0x88-0x8b.7 (4)
0x080|                                    10 99 74 f7|            ..t.|      [24]: "1978-10-29T07:00:07Z" (278492407) transition_time 0x8c-0x8f.7 (4)
0x090|11 89 74 08                                    |..t.            |      [25]: "1979-04-29T08:00:08Z" (294220808) transition_time 0x90-0x93.7 (4)
0x090|            12 79 56 f8                        |    .yV.        |      [26]: "1979-10-28T07:00:08Z" (309942008) transition_time 0x94-0x97.7 (4)
0x090|                        13 69 56 09            |        .iV.    |      [27]: "1980-04-27T08:00:09Z" (325670409) transition_time 0x98-0x9b.7 (4)
0x090|                                    14 59 38 f9|            .Y8.|      [28]: "1980-10-26T07:00:09Z" (341391609) transition_time 0x9c-0x9f.7 (4)
0x0a0|15 49 38 09                                    |.I8.            |      [29]: "1981-04-26T08:00:09Z" (357120009) transition_time 0xa0-0xa3.7 (4)
0x0a0|            16 39 1a fa                        |    .9..        |      [30]: "1981-10-25T07:00:10Z" (372841210) transition_time 0xa4-0xa7.7 (4)
0x0a0|                        17 29 1a 0a            |        .)..    |      [31]: "1982-04-25T08:00:10Z" (388569610) transition_time 0xa8-0xab.7 (4)
0x0a0|                                    18 22 37 7b|            ."7{|      [32]: "1982-10-31T07:00:11Z" (404895611) transition_time 0xac-0xaf.7 (4)
0x0b0|19 08 fc 0b                                    |....            |      [33]: "1983-04-24T08:00:11Z" (420019211) transition_time 0xb0-0xb3.7 (4)
0x0b0|            1a 02 19 7c                        |    ...|        |      [34]: "1983-10-30T07:00:12Z" (436345212) transition_time 0xb4-0xb7.7 (4)
0x0b0|                        1a f2 18 8c            |        ....    |      [35]: "1984-04-29T08:00:12Z" (452073612) transition_time 0xb8-0xbb.7 (4)
0x0b0|                                    1b e1 fb 7c|            ...||      [36]: "1984-10-28T07:00:12Z" (467794812) transition_time 0xbc-0xbf.7 (4)
0x0c0|1c d1 fa 8c                                    |....            |      [37]: "1985-04-28T08:00:12Z" (483523212) transition_time 0xc0-0xc3.7 (4)
0x0c0|            1d c1 dd 7d                        |    ...}        |      [38]: "1985-10-27T07:00:13Z" (499244413) transition_time 0xc4-0xc7.7 (4)
0x0c0|                        1e b1 dc 8d            |        ....    |      [39]: "1986-04-27T08:00:13Z" (514972813) transition_time 0xc8-0xcb.7 (4)
0x0c0|                                    1f a1 bf 7d|            ...}|      [40]: "1986-10-26T07:00:13Z" (530694013) transition_time 0xcc-0xcf.7 (4)
0x0d0|20 76 0f 0d                                    | v..            |      [41]: "1987-04-05T08:00:13Z" (544608013) transition_time 0xd0-0xd3.7 (4)
0x0d0|            21 81 a1 7d                        |    !..}        |      [42]: "1987-10-25T07:00:13Z" (562143613) transition_time 0xd4-0xd7.7 (4)
0x0d0|                        22 55 f1 0e            |        "U..    |      [43]: "1988-04-03T08:00:14Z" (576057614) transition_time 0xd8-0xdb.7 (4)
0x0d0|                                    23 6a bd fe|            #j..|      [44]: "1988-10-30T07:00:14Z" (594198014) transition_time 0xdc-0xdf.7 (4)
0x0e0|24 35 d3 0e                                    |$5..            |      [45]: "1989-04-02T08:00:14Z" (607507214) transition_time 0xe0-0xe3.7 (4)
0x0e0|            25 4a 9f fe                        |    %J..        |      [46]: "1989-10-29T07:00:14Z" (625647614) transition_time 0xe4-0xe7.7 (4)
0x0e0|                        26 15 b5 0f            |        &...    |      [47]: "1990-04-01T08:00:15Z" (638956815) transition_time 0xe8-0xeb.7 (4)
0x0e0|                                    27 2a 81 ff|            '*..|      [48]: "1990-10-28T07:00:15Z" (657097215) transition_time 0xec-0xef.7 (4)
0x0f0|27 fe d1 90                                    |'...            |      [49]: "1991-04-07T08:00:16Z" (671011216) transition_time 0xf0-0xf3.7 (4)
0x0f0|            29 0a 64 00                        |    ).d.        |      [50]: "1991-10-27T07:00:16Z" (688546816) transition_time 0xf4-0xf7.7 (4)
0x0f0|                        29 de b3 90            |        )...    |      [51]: "1992-04-05T08:00:16Z" (702460816) transition_time 0xf8-0xfb.7 (4)
0x0f0|                                    2a ea 46 01|            *.F.|      [52]: "1992-10-25T07:00:17Z" (719996417) transition_time 0xfc-0xff.7 (4)
0x100|2b be 95 91                                    |+...            |      [53]: "1993-04-04T08:00:17Z" (733910417) transition_time 0x100-0x103.7 (4)
0x100|            2c d3 62 82                        |    ,.b.        |      [54]: "1993-10-31T07:00:18Z" (752050818) transition_time 0x104-0x107.7 (4)
0x100|                        2d 9e 77 92            |        -.w.    |      [55]: "1994-04-03T08:00:18Z" (765360018) transition_time 0x108-0x10b.7 (4)
0x100|                                    2e b3 44 83|            ..D.|      [56]: "1994-10-30T07:00:19Z" (783500419) transition_time 0x10c-0x10f.7 (4)
0x110|2f 7e 59 93                                    |/~Y.            |      [57]: "1995-04-02T08:00:19Z" (796809619) transition_time 0x110-0x113.7 (4)
0x110|            30 93 26 83                        |    0.&.        |      [58]: "1995-10-29T07:00:19Z" (814950019) transition_time 0x114-0x117.7 (4)
0x110|                        31 67 76 14            |        1gv.    |      [59]: "1996-04-07T08:00:20Z" (828864020) transition_time 0x118-0x11b.7 (4)
0x110|                                    32 73 08 84|            2s..|      [60]: "1996-10-27T07:00:20Z" (846399620) transition_time 0x11c-0x11f.7 (4)
0x120|33 47 58 14                                    |3GX.            |      [61]: "1997-04-06T08:00:20Z" (860313620) transition_time 0x120-0x123.7 (4)
0x120|            34 52 ea 85                        |    4R..        |      [62]: "1997-10-26T07:00:21Z" (877849221) transition_time 0x124-0x127.7 (4)
0x120|                        35 27 3a 15            |        5':.    |      [63]: "1998-04-05T08:00:21Z" (891763221) transition_time 0x128-0x12b.7 (4)
0x120|                                    36 32 cc 85|            62..|      [64]: "1998-10-25T07:00:21Z" (909298821) transition_time 0x12c-0x12f.7 (4)
0x130|37 07 1c 16                                    |7...            |      [65]: "1999-04-04T08:00:22Z" (923212822) transition_time 0x130-0x133.7 (4)
0x130|            38 1b e9 06                        |    8...        |      [66]: "1999-10-31T07:00:22Z" (941353222) transition_time 0x134-0x137.7 (4)
0x130|                        38 e6 fe 16            |        8...    |      [67]: "2000-04-02T08:00:22Z" (954662422) transition_time 0x138-0x13b.7 (4)
0x130|                                    39 fb cb 06|            9...|      [68]: "2000-10-29T07:00:22Z" (972802822) transition_time 0x13c-0x13f.7 (4)
0x140|3a c6 e0 16                                    |:...            |      [69]: "2001-04-01T08:00:22Z" (986112022) transition_time 0x140-0x143.7 (4)
0x140|            3b db ad 06                        |    ;...        |      [70]: "2001-10-28T07:00:22Z" (1004252422) transition_time 0x144-0x147.7 (4)
0x140|                        3c af fc 96            |        <...    |      [71]: "2002-04-07T08:00:22Z" (1018166422) transition_time 0x148-0x14b.7 (4)
0x140|                                    3d bb 8f 06|            =...|      [72]: "2002-10-27T07:00:22Z" (1035702022) transition_time 0x14c-0x14f.7 (4)
0x150|3e 8f de 96                                    |>...            |      [73]: "2003-04-06T08:00:22Z" (1049616022) transition_time 0x150-0x153.7 (4)
0x150|            3f 9b 71 06                        |    ?.q.        |      [74]: "2003-10-26T07:00:22Z" (1067151622) transition_time 0x154-0x157.7 (4)
0x150|                        40 6f c0 96            |        @o..    |      [75]: "2004-04-04T08:00:22Z" (1081065622) transition_time 0x158-0x15b.7 (4)
0x150|                                    41 84 8d 86|            A...|      [76]: "2004-10-31T07:00:22Z" (1099206022) transition_time 0x15c-0x15f.7 (4)
0x160|42 4f a2 96                                    |BO..            |      [77]: "2005-04-03T08:00:22Z" (1112515222) transition_time 0x160-0x163.7 (4)
0x160|            43 64 6f 86                        |    Cdo.        |      [78]: "2005-10-30T07:00:22Z" (1130655622) transition_time 0x164-0x167.7 (4)
0x160|                        44 2f 84 97            |        D/..    |      [79]: "2006-04-02T08:00:23Z" (1143964823) transition_time 0x168-0x16b.7 (4)
0x160|                                    45 44 51 87|            EDQ.|      [80]: "2006-10-29T07:00:23Z" (1162105223) transition_time 0x16c-0x16f.7 (4)
0x170|45 f3 b7 17                                    |E...            |      [81]: "2007-03-11T08:00:23Z" (1173600023) transition_time 0x170-0x173.7 (4)
0x170|            47 2d 6e 07                        |    G-n.        |      [82]: "2007-11-04T07:00:23Z" (1194159623) transition_time 0x174-0x177.7 (4)
0x170|                        47 d3 99 17            |        G...    |      [83]: "2008-03-09T08:00:23Z" (1205049623) transition_time 0x178-0x17b.7 (4)
0x170|                                    49 0d 50 07|            I.P.|      [84]: "2008-11-02T07:00:23Z" (1225609223) transition_time 0x17c-0x17f.7 (4)
0x180|49 b3 7b 18                                    |I.{.            |      [85]: "2009-03-08T08:00:24Z" (1236499224) transition_time 0x180-0x183.7 (4)
0x180|            4a ed 32 08                        |    J.2.        |      [86]: "2009-11-01T07:00:24Z" (1257058824) transition_time 0x184-0x187.7 (4)
0x180|                        4b 9c 97 98            |        K...    |      [87]: "2010-03-14T08:00:24Z" (1268553624) transition_time 0x188-0x18b.7 (4)
0x180|                                    4c d6 4e 88|            L.N.|      [88]: "2010-11-07T07:00:24Z" (1289113224) transition_time 0x18c-0x18f.7 (4)
0x190|4d 7c 79 98                                    |M|y.            |      [89]: "2011-03-13T08:00:24Z" (1300003224) transition_time 0x190-0x193.7 (4)
0x190|            4e b6 30 88                        |    N.0.        |      [90]: "2011-11-06T07:00:24Z" (1320562824) transition_time 0x194-0x197.7 (4)
0x190|                        4f 5c 5b 98            |        O\[.    |      [91]: "2012-03-11T08:00:24Z" (1331452824) transition_time 0x198-0x19b.7 (4)
0x190|                                    50 96 12 89|            P...|      [92]: "2012-11-04T07:00:25Z" (1352012425) transition_time 0x19c-0x19f.7 (4)
0x1a0|51 3c 3d 99                                    |Q<=.            |      [93]: "2013-03-10T08:00:25Z" (1362902425) transition_time 0x1a0-0x1a3.7 (4)
0x1a0|            52 75 f4 89                        |    Ru..        |      [94]: "2013-11-03T07:00:25Z" (1383462025) transition_time 0x1a4-0x1a7.7 (4)
0x1a0|                        53 1c 1f 99            |        S...    |      [95]: "2014-03-09T08:00:25Z" (1394352025) transition_time 0x1a8-0x1ab.7 (4)
0x1a0|                                    54 55 d6 89|            TU..|      [96]: "2014-11-02T07:00:25Z" (1414911625) transition_time 0x1ac-0x1af.7 (4)
0x1b0|54 fc 01 99                                    |T...            |      [97]: "2015-03-08T08:00:25Z" (1425801625) transition_time 0x1b0-0x1b3.7 (4)
0x1b0|            56 35 b8 8a                        |    V5..        |      [98]: "2015-11-01T07:00:26Z" (1446361226) transition_time 0x1b4-0x1b7.7 (4)
0x1b0|                        56 e5 1e 1a            |        V...    |      [99]: "2016-03-13T08:00:26Z" (1457856026) transition_time 0x1b8-0x1bb.7 (4)
0x1b0|                                    58 1e d5 0a|            X...|      [100]: "2016-11-06T07:00:26Z" (1478415626) transition_time 0x1bc-0x1bf.7 (4)
0x1c0|58 c5 00 1b                                    |X...            |      [101]: "2017-03-12T08:00:27Z" (1489305627) transition_time 0x1c0-0x1c3.7 (4)
0x1c0|            59 fe b7 0b                        |    Y...        |      [102]: "2017-11-05T07:00:27Z" (1509865227) transition_time 0x1c4-0x1c7.7 (4)
0x1c0|                        5a a4 e2 1b            |        Z...    |      [103]: "2018-03-11T08:00:27Z" (1520755227) transition_time 0x1c8-0x1cb.7 (4)
0x1c0|                                    5b de 99 0b|            [...|      [104]: "2018-11-04T07:00:27Z" (1541314827) transition_time 0x1cc-0x1cf.7 (4)
0x1d0|5c 84 c4 1b                                    |\...            |      [105]: "2019-03-10T08:00:27Z" (1552204827) transition_time 0x1d0-0x1d3.7 (4)
0x1d0|            5d be 7b 0b                        |    ].{.        |      [106]: "2019-11-03T07:00:27Z" (1572764427) transition_time 0x1d4-0x1d7.7 (4)
0x1d0|                        5e 64 a6 1b            |        ^d..    |      [107]: "2020-03-08T08:00:27Z" (1583654427) transition_time 0x1d8-0x1db.7 (4)
0x1d0|                                    5f 9e 5d 0b|            _.].|      [108]: "2020-11-01T07:00:27Z" (1604214027) transition_time 0x1dc-0x1df.7 (4)
0x1e0|60 4d c2 9b                                    |`M..            |      [109]: "2021-03-14T08:00:27Z" (1615708827) transition_time 0x1e0-0x1e3.7 (4)
0x1e0|            61 87 79 8b                        |    a.y.        |      [110]: "2021-11-07T07:00:27Z" (1636268427) transition_time 0x1e4-0x1e7.7 (4)
0x1e0|                        62 2d a4 9b            |        b-..    |      [111]: "2022-03-13T08:00:27Z" (1647158427) transition_time 0x1e8-0x1eb.7 (4)
0x1e0|                                    63 67 5b 8b|            cg[.|      [112]: "2022-11-06T07:00:27Z" (1667718027) transition_time 0x1ec-0x1ef.7 (4)
0x1f0|64 0d 86 9b                                    |d...            |      [113]: "2023-03-12T08:00:27Z" (1678608027) transition_time 0x1f0-0x1f3.7 (4)
0x1f0|            64 9b 78 1b                        |    d.x.        |      [114]: "2023-06-28T00:00:27Z" (1687910427) transition_time 0x1f4-0x1f7.7 (4)
     |                                               |                |    transition_types[0:115]: 0x1f8-0x26a.7 (115)
0x1f0|                        02                     |        .       |      [0]: 2 transition_type 0x1f8-0x1f8.7 (1)
0x1f0|                           01                  |         .      |      [1]: 1 transition_type 0x1f9-0x1f9.7 (1)
0x1f0|                              02               |          .     |      [2]: 2 transition_type 0x1fa-0x1fa.7 (1)
0x1f0|                                 01            |           .    |      [3]: 1 transition_type 0x1fb-0x1fb.7 (1)
0x1f0|                                    02         |            .   |      [4]: 2 transition_type 0x1fc-0x1fc.7 (1)
0x1f0|                                       03      |             .  |      [5]: 3 transition_type 0x1fd-0x1fd.7 (1)
0x1f0|                                          04   |              . |      [6]: 4 transition_type 0x1fe-0x1fe.7 (1)
0x1f0|                                             02|               .|      [7]: 2 transition_type 0x1ff-0x1ff.7 (1)
0x200|01                                             |.               |      [8]: 1 transition_type 0x200-0x200.7 (1)
0x200|   02                                          | .              |      [9]: 2 transition_type 0x201-0x201.7 (1)
0x200|      01                                       |  .             |      [10]: 1 transition_type 0x202-0x202.7 (1)
0x200|         02                                    |   .            |      [11]: 2 transition_type 0x203-0x203.7 (1)
0x200|            05                                 |    .           |      [12]: 5 transition_type 0x204-0x204.7 (1)
0x200|               01                              |     .          |      [13]: 1 transition_type 0x205-0x205.7 (1)
0x200|                  02                           |      .         |      [14]: 2 transition_type 0x206-0x206.7 (1)
0x200|                     01                        |       .        |      [15]: 1 transition_type 0x207-0x207.7 (1)
0x200|                        02                     |        .       |      [16]: 2 transition_type 0x208-0x208.7 (1)
0x200|                           01                  |         .      |      [17]: 1 transition_type 0x209-0x209.7 (1)
0x200|                              02               |          .     |      [18]: 2 transition_type 0x20a-0x20a.7 (1)
0x200|                                 01            |           .    |      [19]: 1 transition_type 0x20b-0x20b.7 (1)
0x200|                                    02         |            .   |      [20]: 2 transition_type 0x20c-0x20c.7 (1)
0x200|                                       01      |             .  |      [21]: 1 transition_type 0x20d-0x20d.7 (1)
0x200|                                          02   |              . |      [22]: 2 transition_type 0x20e-0x20e.7 (1)
0x200|                                             01|               .|      [23]: 1 transition_type 0x20f-0x20f.7 (1)
0x210|02                                             |.               |      [24]: 2 transition_type 0x210-0x210.7 (1)
0x210|   01                                          | .              |      [25]: 1 transition_type 0x211-0x211.7 (1)
0x210|      02                                       |  .             |      [26]: 2 transition_type 0x212-0x212.7 (1)
0x210|         01                                    |   .            |      [27]: 1 transition_type 0x213-0x213.7 (1)
0x210|            02                                 |    .           |      [28]: 2 transition_type 0x214-0x214.7 (1)
0x210|               01                              |     .          |      [29]: 1 transition_type 0x215-0x215.7 (1)
0x210|                  02                           |      .         |      [30]: 2 transition_type 0x216-0x216.7 (1)
0x210|                     01                        |       .        |      [31]: 1 transition_type 0x217-0x217.7 (1)
0x210|                        02                     |        .       |      [32]: 2 transition_type 0x218-0x218.7 (1)
0x210|                           01                  |         .      |      [33]: 1 transition_type 0x219-0x219.7 (1)
0x210|                              02               |          .     |      [34]: 2 transition_type 0x21a-0x21a.7 (1)
0x210|                                 01            |           .    |      [35]: 1 transition_type 0x21b-0x21b.7 (1)
0x210|                                    02         |            .   |      [36]: 2 transition_type 0x21c-0x21c.7 (1)
0x210|                                       01      |             .  |      [37]: 1 transition_type 0x21d-0x21d.7 (1)
0x210|                                          02   |              . |      [38]: 2 transition_type 0x21e-0x21e.7 (1)
0x210|                                             01|               .|      [39]: 1 transition_type 0x21f-0x21f.7 (1)
0x220|02                                             |.               |      [40]: 2 transition_type 0x220-0x220.7 (1)
0x220|   01                                          | .              |      [41]: 1 transition_type 0x221-0x221.7 (1)
0x220|      02                                       |  .             |      [42]: 2 transition_type 0x222-0x222.7 (1)
0x220|         01                                    |   .            |      [43]: 1 transition_type 0x223-0x223.7 (1)
0x220|            02                                 |    .           |      [44]: 2 transition_type 0x224-0x224.7 (1)
0x220|               01                              |     .          |      [45]: 1 transition_type 0x225-0x225.7 (1)
0x220|                  02                           |      .         |      [46]: 2 transition_type 0x226-0x226.7 (1)
0x220|                     01                        |       .        |      [47]: 1 transition_type 0x227-0x227.7 (1)
0x220|                        02                     |        .       |      [48]: 2 transition_type 0x228-0x228.7 (1)
0x220|                           01                  |         .      |      [49]: 1 transition_type 0x229-0x229.7 (1)
0x220|                              02               |          .     |      [50]: 2 transition_type 0x22a-0x22a.7 (1)
0x220|                                 01            |           .    |      [51]: 1 transition_type 0x22b-0x22b.7 (1)
0x220|                                    02         |            .   |      [52]: 2 transition_type 0x22c-0x22c.7 (1)
0x220|                                       01      |             .  |      [53]: 1 transition_type 0x22d-0x22d.7 (1)
0x220|                                          02   |              . |      [54]: 2 transition_type 0x22e-0x22e.7 (1)
0x220|                                             01|               .|      [55]: 1 transition_type 0x22f-0x22f.7 (1)
0x230|02                                             |.               |      [56]: 2 transition_type 0x230-0x230.7 (1)
0x230|   01                                          | .              |      [57]: 1 transition_type 0x231-0x231.7 (1)
0x230|      02                                       |  .             |      [58]: 2 transition_type 0x232-0x232.7 (1)
0x230|         01                                    |   .            |      [59]: 1 transition_type 0x233-0x233.7 (1)
0x230|            02                                 |    .           |      [60]: 2 transition_type 0x234-0x234.7 (1)
0x230|               01                              |     .          |      [61]: 1 transition_type 0x235-0x235.7 (1)
0x230|                  02                           |      .         |      [62]: 2 transition_type 0x236-0x236.7 (1)
0x230|                     01                        |       .        |      [63]: 1 transition_type 0x237-0x237.7 (1)
0x230|                        02                     |        .       |      [64]: 2 transition_type 0x238-0x238.7 (1)
0x230|                           01                  |         .      |      [65]: 1 transition_type 0x239-0x239.7 (1)
0x230|                              02               |          .     |      [66]: 2 transition_type 0x23a-0x23a.7 (1)
0x230|                                 01            |           .    |      [67]: 1 transition_type 0x23b-0x23b.7 (1)
0x230|                                    02         |            .   |      [68]: 2 transition_type 0x23c-0x23c.7 (1)
0x230|                                       01      |             .  |      [69]: 1 transition_type 0x23d-0x23d.7 (1)
0x230|                                          02   |              . |      [70]: 2 transition_type 0x23e-0x23e.7 (1)
0x230|                                             01|               .|      [71]: 1 transition_type 0x23f-0x23f.7 (1)
0x240|02                                             |.               |      [72]: 2 transition_type 0x240-0x240.7 (1)
0x240|   01                                          | .              |      [73]: 1 transition_type 0x241-0x241.7 (1)
0x240|      02                                       |  .             |      [74]: 2 transition_type 0x242-0x242.7 (1)
0x240|         01                                    |   .            |      [75]: 1 transition_type 0x243-0x243.7 (1)
0x240|            02                                 |    .           |      [76]: 2 transition_type 0x244-0x244.7 (1)
0x240|               01                              |     .          |      [77]: 1 transition_type 0x245-0x245.7 (1)
0x240|                  02                           |      .         |      [78]: 2 transition_type 0x246-0x246.7 (1)
0x240|                     01                        |       .        |      [79]: 1 transition_type 0x247-0x247.7 (1)
0x240|                        02                     |        .       |      [80]: 2 transition_type 0x248-0x248.7 (1)
0x240|                           01                  |         .      |      [81]: 1 transition_type 0x249-0x249.7 (1)
0x240|                              02               |          .     |      [82]: 2 transition_type 0x24a-0x24a.7 (1)
0x240|                                 01            |           .    |      [83]: 1 transition_type 0x24b-0x24b.7 (1)
0x240|                                    02         |            .   |      [84]: 2 transition_type 0x24c-0x24c.7 (1)
0x240|                                       01      |             .  |      [85]: 1 transition_type 0x24d-0x24d.7 (1)
0x240|                                          02   |              . |      [86]: 2 transition_type 0x24e-0x24e.7 (1)
0x240|                                             01|               .|      [87]: 1 transition_type 0x24f-0x24f.7 (1)
0x250|02                                             |.               |      [88]: 2 transition_type 0x250-0x250.7 (1)
0x250|   01                                          | .              |      [89]: 1 transition_type 0x251-0x251.7 (1)
0x250|      02                                       |  .             |      [90]: 2 transition_type 0x252-0x252.7 (1)
0x250|         01                                    |   .            |      [91]: 1 transition_type 0x253-0x253.7 (1)
0x250|            02                                 |    .           |      [92]: 2 transition_type 0x254-0x254.7 (1)
0x250|               01                              |     .          |      [93]: 1 transition_type 0x255-0x255.7 (1)
0x250|                  02                           |      .         |      [94]: 2 transition_type 0x256-0x256.7 (1)
0x250|                     01                        |       .        |      [95]: 1 transition_type 0x257-0x257.7 (1)
0x250|                        02                     |        .       |      [96]: 2 transition_type 0x258-0x258.7 (1)
0x250|                           01                  |         .      |      [97]: 1 transition_type 0x259-0x259.7 (1)
0x250|                              02               |          .     |      [98]: 2 transition_type 0x25a-0x25a.7 (1)
0x250|                                 01            |           .    |      [99]: 1 transition_type 0x25b-0x25b.7 (1)
0x250|                                    02         |            .   |      [100]: 2 transition_type 0x25c-0x25c.7 (1)
0x250|                                       01      |             .  |      [101]: 1 transition_type 0x25d-0x25d.7 (1)
0x250|                                          02   |              . |      [102]: 2 transition_type 0x25e-0x25e.7 (1)
0x250|                                             01|               .|      [103]: 1 transition_type 0x25f-0x25f.7 (1)
0x260|02                                             |.               |      [104]: 2 transition_type 0x260-0x260.7 (1)
0x260|   01                                          | .              |      [105]: 1 transition_type 0x261-0x261.7 (1)
0x260|      02                                       |  .             |      [106]: 2 transition_type 0x262-0x262.7 (1)
0x260|         01                                    |   .            |      [107]: 1 transition_type 0x263-0x263.7 (1)
0x260|            02                                 |    .           |      [108]: 2 transition_type 0x264-0x264.7 (1)
0x260|               01                              |     .          |      [109]: 1 transition_type 0x265-0x265.7 (1)
0x260|                  02                           |      .         |      [110]: 2 transition_type 0x266-0x266.7 (1)
0x260|                     01                        |       .        |      [111]: 1 transition_type 0x267-0x267.7 (1)
0x260|                        02                     |        .       |      [112]: 2 transition_type 0x268-0x268.7 (1)
0x260|                           01                  |         .      |      [113]: 1 transition_type 0x269-0x269.7 (1)
0x260|                              01               |          .     |      [114]: 1 transition_type 0x26a-0x26a.7 (1)
     |                                               |                |    local_time_type_records[0:7]: 0x26b-0x294.7 (42)
     |                                               |                |      [0]{}: local_time_type 0x26b-0x270.7 (6)
0x260|                                 ff ff ad dd   |           .... |        utoff: -21027 (valid) 0x26b-0x26e.7 (4)
0x260|                                             00|               .|        dst: 0 (valid) 0x26f-0x26f.7 (1)
0x270|00                                             |.               |        idx: 0 (valid) 0x270-0x270.7 (1)
     |                                               |                |      [1]{}: local_time_type 0x271-0x276.7 (6)
0x270|   ff ff b9 b0                                 | ....           |        utoff: -18000 (valid) 0x271-0x274.7 (4)
0x270|               01                              |     .          |        dst: 1 (valid) 0x275-0x275.7 (1)
0x270|                  04                           |      .         |        idx: 4 (valid) 0x276-0x276.7 (1)
     |                                               |                |      [2]{}: local_time_type 0x277-0x27c.7 (6)
0x270|                     ff ff ab a0               |       ....     |        utoff: -21600 (valid) 0x277-0x27a.7 (4)
0x270|                                 00            |           .    |        dst: 0 (valid) 0x27b-0x27b.7 (1)
0x270|                                    08         |            .   |        idx: 8 (valid) 0x27c-0x27c.7 (1)
     |                                               |                |      [3]{}: local_time_type 0x27d-0x282.7 (6)
0x270|                                       ff ff b9|             ...|        utoff: -18000 (valid) 0x27d-0x280.7 (4)
0x280|b0                                             |.               |
0x280|   01                                          | .              |        dst: 1 (valid) 0x281-0x281.7 (1)
0x280|      0c                                       |  .             |        idx: 12 (valid) 0x282-0x282.7 (1)
     |                                               |                |      [4]{}: local_time_type 0x283-0x288.7 (6)
0x280|         ff ff b9 b0                           |   ....         |        utoff: -18000 (valid) 0x283-0x286.7 (4)
0x280|                     01                        |       .        |        dst: 1 (valid) 0x287-0x287.7 (1)
0x280|                        10                     |        .       |        idx: 16 (valid) 0x288-0x288.7 (1)
     |                                               |                |      [5]{}: local_time_type 0x289-0x28e.7 (6)
0x280|                           ff ff b9 b0         |         ....   |        utoff: -18000 (valid) 0x289-0x28c.7 (4)
0x280|                                       00      |             .  |        dst: 0 (valid) 0x28d-0x28d.7 (1)
0x280|                                          14   |              . |        idx: 20 (valid) 0x28e-0x28e.7 (1)
     |                                               |                |      [6]{}: local_time_type 0x28f-0x294.7 (6)
0x280|                                             ff|               .|        utoff: -21600 (valid) 0x28f-0x292.7 (4)
0x290|ff ab a0                                       |...             |
0x290|         00                                    |   .            |        dst: 0 (valid) 0x293-0x293.7 (1)
0x290|            08                                 |    .           |        idx: 8 (valid) 0x294-0x294.7 (1)
     |                                               |                |    time_zone_designations[0:6]: 0x295-0x2ac.7 (24)
0x290|               4c 4d 54 00                     |     LMT.       |      [0]: "LMT" time_zone_designation 0x295-0x298.7 (4)
0x290|                           43 44 54 00         |         CDT.   |      [1]: "CDT" time_zone_designation 0x299-0x29c.7 (4)
0x290|                                       43 53 54|             CST|      [2]: "CST" time_zone_designation 0x29d-0x2a0.7 (4)
0x2a0|00                                             |.               |
0x2a0|   43 57 54 00                                 | CWT.           |      [3]: "CWT" time_zone_designation 0x2a1-0x2a4.7 (4)
0x2a0|               43 50 54 00                     |     CPT.       |      [4]: "CPT" time_zone_designation 0x2a5-0x2a8.7 (4)
0x2a0|                           45 53 54 00         |         EST.   |      [5]: "EST" time_zone_designation 0x2a9-0x2ac.7 (4)
     |                                               |                |    leap_second_records[0:27]: 0x2ad-0x384.7 (216)
     |                                               |                |      [0]{}: leap_second_record 0x2ad-0x2b4.7 (8)
0x2a0|                                       04 b2 58|             ..X|        occur: "1972-07-01T00:00:00Z" (78796800) 0x2ad-0x2b0.7 (4)
0x2b0|00                                             |.               |
0x2b0|   00 00 00 01                                 | ....           |        corr: 1 0x2b1-0x2b4.7 (4)
     |                                               |                |      [1]{}: leap_second_record 0x2b5-0x2bc.7 (8)
0x2b0|               05 a4 ec 01                     |     ....       |        occur: "1973-01-01T00:00:01Z" (94694401) 0x2b5-0x2b8.7 (4)
0x2b0|                           00 00 00 02         |         ....   |        corr: 2 0x2b9-0x2bc.7 (4)
     |                                               |                |      [2]{}: leap_second_record 0x2bd-0x2c4.7 (8)
0x2b0|                                       07 86 1f|             ...|        occur: "1974-01-01T00:00:02Z" (126230402) 0x2bd-0x2c0.7 (4)
0x2c0|82                                             |.               |
0x2c0|   00 00 00 03                                 | ....           |        corr: 3 0x2c1-0x2c4.7 (4)
     |                                               |                |      [3]{}: leap_second_record 0x2c5-0x2cc.7 (8)
0x2c0|               09 67 53 03                     |     .gS.       |        occur: "1975-01-01T00:00:03Z" (157766403) 0x2c5-0x2c8.7 (4)
0x2c0|                           00 00 00 04         |         ....   |        corr: 4 0x2c9-0x2cc.7 (4)
     |                                               |                |      [4]{}: leap_second_record 0x2cd-0x2d4.7 (8)
0x2c0|                                       0b 48 86|             .H.|        occur: "1976-01-01T00:00:04Z" (189302404) 0x2cd-0x2d0.7 (4)
0x2d0|84                                             |.               |
0x2d0|   00 00 00 05                                 | ....           |        corr: 5 0x2d1-0x2d4.7 (4)
     |                                               |                |      [5]{}: leap_second_record 0x2d5-0x2dc.7 (8)
0x2d0|               0d 2b 0b 85                     |     .+..       |        occur: "1977-01-01T00:00:05Z" (220924805) 0x2d5-0x2d8.7 (4)
0x2d0|                           00 00 00 06         |         ....   |        corr: 6 0x2d9-0x2dc.7 (4)
     |                                               |                |      [6]{}: leap_second_record 0x2dd-0x2e4.7 (8)
0x2d0|                                       0f 0c 3f|             ..?|        occur: "1978-01-01T00:00:06Z" (252460806) 0x2dd-0x2e0.7 (4)
0x2e0|06                                             |.               |
0x2e0|   00 00 00 07                                 | ....           |        corr: 7 0x2e1-0x2e4.7 (4)
     |                                               |                |      [7]{}: leap_second_record 0x2e5-0x2ec.7 (8)
0x2e0|               10 ed 72 87                     |     ..r.       |        occur: "1979-01-01T00:00:07Z" (283996807) 0x2e5-0x2e8.7 (4)
0x2e0|                           00 00 00 08         |         ....   |        corr: 8 0x2e9-0x2ec.7 (4)
     |                                               |                |      [8]{}: leap_second_record 0x2ed-0x2f4.7 (8)
0x2e0|                                       12 ce a6|             ...|        occur: "1980-01-01T00:00:08Z" (315532808) 0x2ed-0x2f0.7 (4)
0x2f0|08                                             |.               |
0x2f0|   00 00 00 09                                 | ....           |        corr: 9 0x2f1-0x2f4.7 (4)
     |                                               |                |      [9]{}: leap_second_record 0x2f5-0x2fc.7 (8)
0x2f0|               15 9f ca 89                     |     ....       |        occur: "1981-07-01T00:00:09Z" (362793609) 0x2f5-0x2f8.7 (4)
0x2f0|                           00 00 00 0a         |         ....   |        corr: 10 0x2f9-0x2fc.7 (4)
     |                                               |                |      [10]{}: leap_second_record 0x2fd-0x304.7 (8)
0x2f0|                                       17 80 fe|             ...|        occur: "1982-07-01T00:00:10Z" (394329610) 0x2fd-0x300.7 (4)
0x300|0a                                             |.               |
0x300|   00 00 00 0b                                 | ....           |        corr: 11 0x301-0x304.7 (4)
     |                                               |                |      [11]{}: leap_second_record 0x305-0x30c.7 (8)
0x300|               19 62 31 8b                     |     .b1.       |        occur: "1983-07-01T00:00:11Z" (425865611) 0x305-0x308.7 (4)
0x300|                           00 00 00 0c         |         ....   |        corr: 12 0x309-0x30c.7 (4)
     |                                               |                |      [12]{}: leap_second_record 0x30d-0x314.7 (8)
0x300|                                       1d 25 ea|             .%.|        occur: "1985-07-01T00:00:12Z" (489024012) 0x30d-0x310.7 (4)
0x310|0c                                             |.               |
0x310|   00 00 00 0d                                 | ....           |        corr: 13 0x311-0x314.7 (4)
     |                                               |                |      [13]{}: leap_second_record 0x315-0x31c.7 (8)
0x310|               21 da e5 0d                     |     !...       |        occur: "1988-01-01T00:00:13Z" (567993613) 0x315-0x318.7 (4)
0x310|                           00 00 00 0e         |         ....   |        corr: 14 0x319-0x31c.7 (4)
     |                                               |                |      [14]{}: leap_second_record 0x31d-0x324.7 (8)
0x310|                                       25 9e 9d|             %..|        occur: "1990-01-01T00:00:14Z" (631152014) 0x31d-0x320.7 (4)
0x320|8e                                             |.               |
0x320|   00 00 00 0f                                 | ....           |        corr: 15 0x321-0x324.7 (4)
     |                                               |                |      [15]{}: leap_second_record 0x325-0x32c.7 (8)
0x320|               27 7f d1 0f                     |     '...       |        occur: "1991-01-01T00:00:15Z" (662688015) 0x325-0x328.7 (4)
0x320|                           00 00 00 10         |         ....   |        corr: 16 0x329-0x32c.7 (4)
     |                                               |                |      [16]{}: leap_second_record 0x32d-0x334.7 (8)
0x320|                                       2a 50 f5|             *P.|        occur: "1992-07-01T00:00:16Z" (709948816) 0x32d-0x330.7 (4)
0x330|90                                             |.               |
0x330|   00 00 00 11                                 | ....           |        corr: 17 0x331-0x334.7 (4)
     |                                               |                |      [17]{}: leap_second_record 0x335-0x33c.7 (8)
0x330|               2c 32 29 11                     |     ,2).       |        occur: "1993-07-01T00:00:17Z" (741484817) 0x335-0x338.7 (4)
0x330|                           00 00 00 12         |         ....   |        corr: 18 0x339-0x33c.7 (4)
     |                                               |                |      [18]{}: leap_second_record 0x33d-0x344.7 (8)
0x330|                                       2e 13 5c|             ..\|        occur: "1994-07-01T00:00:18Z" (773020818) 0x33d-0x340.7 (4)
0x340|92                                             |.               |
0x340|   00 00 00 13                                 | ....           |        corr: 19 0x341-0x344.7 (4)
     |                                               |                |      [19]{}: leap_second_record 0x345-0x34c.7 (8)
0x340|               30 e7 24 13                     |     0.$.       |        occur: "1996-01-01T00:00:19Z" (820454419) 0x345-0x348.7 (4)
0x340|                           00 00 00 14         |         ....   |        corr: 20 0x349-0x34c.7 (4)
     |                                               |                |      [20]{}: leap_second_record 0x34d-0x354.7 (8)
0x340|                                       33 b8 48|             3.H|        occur: "1997-07-01T00:00:20Z" (867715220) 0x34d-0x350.7 (4)
0x350|94                                             |.               |
0x350|   00 00 00 15                                 | ....           |        corr: 21 0x351-0x354.7 (4)
     |                                               |                |      [21]{}: leap_second_record 0x355-0x35c.7 (8)
0x350|               36 8c 10 15                     |     6...       |        occur: "1999-01-01T00:00:21Z" (915148821) 0x355-0x358.7 (4)
0x350|                           00 00 00 16         |         ....   |        corr: 22 0x359-0x35c.7 (4)
     |                                               |                |      [22]{}: leap_second_record 0x35d-0x364.7 (8)
0x350|                                       43 b7 1b|             C..|        occur: "2006-01-01T00:00:22Z" (1136073622) 0x35d-0x360.7 (4)
0x360|96                                             |.               |
0x360|   00 00 00 17                                 | ....           |        corr: 23 0x361-0x364.7 (4)
     |                                               |                |      [23]{}: leap_second_record 0x365-0x36c.7 (8)
0x360|               49 5c 07 97                     |     I\..       |        occur: "2009-01-01T00:00:23Z" (1230768023) 0x365-0x368.7 (4)
0x360|                           00 00 00 18         |         ....   |        corr: 24 0x369-0x36c.7 (4)
     |                                               |                |      [24]{}: leap_second_record 0x36d-0x374.7 (8)
0x360|                                       4f ef 93|             O..|        occur: "2012-07-01T00:00:24Z" (1341100824) 0x36d-0x370.7 (4)
0x370|18                                             |.               |
0x370|   00 00 00 19                                 | ....           |        corr: 25 0x371-0x374.7 (4)
     |                                               |                |      [25]{}: leap_second_record 0x375-0x37c.7 (8)
0x370|               55 93 2d 99                     |     U.-.       |        occur: "2015-07-01T00:00:25Z" (1435708825) 0x375-0x378.7 (4)
0x370|                           00 00 00 1a         |         ....   |        corr: 26 0x379-0x37c.7 (4)
     |                                               |                |      [26]{}: leap_second_record 0x37d-0x384.7 (8)
0x370|                                       58 68 46|             XhF|        occur: "2017-01-01T00:00:26Z" (1483228826) 0x37d-0x380.7 (4)
0x380|9a                                             |.               |
0x380|   00 00 00 1b                                 | ....           |        corr: 27 0x381-0x384.7 (4)
     |                                               |                |    standard_wall_indicators[0:7]: 0x385-0x38b.7 (7)
0x380|               00                              |     .          |      [0]: 0 standard_wall_indicator (valid) 0x385-0x385.7 (1)
0x380|                  00                           |      .         |      [1]: 0 standard_wall_indicator (valid) 0x386-0x386.7 (1)
0x380|                     00                        |       .        |      [2]: 0 standard_wall_indicator (valid) 0x387-0x387.7 (1)
0x380|                        00                     |        .       |      [3]: 0 standard_wall_indicator (valid) 0x388-0x388.7 (1)
0x380|                           01                  |         .      |      [4]: 1 standard_wall_indicator (valid) 0x389-0x389.7 (1)
0x380|                              00               |          .     |      [5]: 0 standard_wall_indicator (valid) 0x38a-0x38a.7 (1)
0x380|                                 00            |           .    |      [6]: 0 standard_wall_indicator (valid) 0x38b-0x38b.7 (1)
     |                                               |                |    ut_local_indicators[0:7]: 0x38c-0x392.7 (7)
0x380|                                    00         |            .   |      [0]: 0 ut_local_indicator (valid) 0x38c-0x38c.7 (1)
0x380|                                       00      |             .  |      [1]: 0 ut_local_indicator (valid) 0x38d-0x38d.7 (1)
0x380|                                          00   |              . |      [2]: 0 ut_local_indicator (valid) 0x38e-0x38e.7 (1)
0x380|                                             00|               .|      [3]: 0 ut_local_indicator (valid) 0x38f-0x38f.7 (1)
0x390|01                                             |.               |      [4]: 1 ut_local_indicator (valid) 0x390-0x390.7 (1)
0x390|   00                                          | .              |      [5]: 0 ut_local_indicator (valid) 0x391-0x391.7 (1)
0x390|      00                                       |  .             |      [6]: 0 ut_local_indicator (valid) 0x392-0x392.7 (1)
     |                                               |                |  v2plusheader{}: 0x393-0x3be.7 (44)
0x390|         54 5a 69 66                           |   TZif         |    magic: 0x545a6966 (valid) 0x393-0x396.7 (4)
0x390|                     32                        |       2        |    ver: "2" (0x32) (valid) 0x397-0x397.7 (1)
0x390|                        00 00 00 00 00 00 00 00|        ........|    reserved: raw bits 0x398-0x3a6.7 (15)
0x3a0|00 00 00 00 00 00 00                           |.......         |
0x3a0|                     00 00 00 07               |       ....     |    isutcnt: 7 0x3a7-0x3aa.7 (4)
0x3a0|                                 00 00 00 07   |           .... |    isstdcnt: 7 0x3ab-0x3ae.7 (4)
0x3a0|                                             00|               .|    leapcnt: 27 0x3af-0x3b2.7 (4)
0x3b0|00 00 1b                                       |...             |
0x3b0|         00 00 00 73                           |   ...s         |    timecnt: 115 0x3b3-0x3b6.7 (4)
0x3b0|                     00 00 00 07               |       ....     |    typecnt: 7 0x3b7-0x3ba.7 (4)
0x3b0|                                 00 00 00 18   |           .... |    charcnt: 24 0x3bb-0x3be.7 (4)
     |                                               |                |  v2plusdatablock{}: 0x3bf-0x95d.7 (1439)
     |                                               |                |    transition_times[0:115]: 0x3bf-0x756.7 (920)
0x3b0|                                             ff|               .|      [0]: "1885-09-18T17:50:27Z" (-2659759773) transition_time 0x3bf-0x3c6.7 (8)
0x3c0|ff ff ff 61 77 49 63                           |...awIc         |
0x3c0|                     ff ff ff ff 9e a6 2c 80   |       ......,. |      [1]: "1918-03-31T08:00:00Z" (-1633276800) transition_time 0x3c7-0x3ce.7 (8)
0x3c0|                                             ff|               .|      [2]: "1918-10-27T07:00:00Z" (-1615136400) transition_time 0x3cf-0x3d6.7 (8)
0x3d0|ff ff ff 9f ba f9 70                           |......p         |
0x3d0|                     ff ff ff ff a0 86 0e 80   |       ........ |      [3]: "1919-03-30T08:00:00Z" (-1601827200) transition_time 0x3d7-0x3de.7 (8)
0x3d0|                                             ff|               .|      [4]: "1919-10-26T07:00:00Z" (-1583686800) transition_time 0x3df-0x3e6.7 (8)
0x3e0|ff ff ff a1 9a db 70                           |......p         |
0x3e0|                     ff ff ff ff cb 88 fe 80   |       ........ |      [5]: "1942-02-09T08:00:00Z" (-880214400) transition_time 0x3e7-0x3ee.7 (8)
0x3e0|                                             ff|               .|      [6]: "1945-08-14T23:00:00Z" (-769395600) transition_time 0x3ef-0x3f6.7 (8)
0x3f0|ff ff ff d2 23 f4 70                           |....#.p         |
0x3f0|                     ff ff ff ff d2 61 09 f0   |       .....a.. |      [7]: "1945-09-30T07:00:00Z" (-765392400) transition_time 0x3f7-0x3fe.7 (8)
0x3f0|                                             ff|               .|      [8]: "1946-04-28T08:00:00Z" (-747244800) transition_time 0x3ff-0x406.7 (8)
0x400|ff ff ff d3 75 f3 00                           |....u..         |
0x400|                     ff ff ff ff d4 40 eb f0   |       .....@.. |      [9]: "1946-09-29T07:00:00Z" (-733942800) transition_time 0x407-0x40e.7 (8)
0x400|                                             ff|               .|      [10]: "1966-04-24T08:00:00Z" (-116438400) transition_time 0x40f-0x416.7 (8)
0x410|ff ff ff f9 0f 4a 80                           |.....J.         |
0x410|                     ff ff ff ff fa 08 67 f0   |       ......g. |      [11]: "1966-10-30T07:00:00Z" (-100112400) transition_time 0x417-0x41e.7 (8)
0x410|                                             ff|               .|      [12]: "1969-04-27T08:00:00Z" (-21484800) transition_time 0x41f-0x426.7 (8)
0x420|ff ff ff fe b8 2b 00                           |.....+.         |
0x420|                     00 00 00 00 06 40 df 72   |       .....@.r |      [13]: "1973-04-29T07:00:02Z" (104914802) transition_time 0x427-0x42e.7 (8)
0x420|                                             00|               .|      [14]: "1973-10-28T07:00:02Z" (120639602) transition_time 0x42f-0x436.7 (8)
0x430|00 00 00 07 30 d0 72                           |....0.r         |
0x430|                     00 00 00 00 07 8d 27 83   |       ......'. |      [15]: "1974-01-06T08:00:03Z" (126691203) transition_time 0x437-0x43e.7 (8)
0x430|                                             00|               .|      [16]: "1974-10-27T07:00:03Z" (152089203) transition_time 0x43f-0x446.7 (8)
0x440|00 00 00 09 10 b2 73                           |......s         |
0x440|                     00 00 00 00 09 ad a3 04   |       ........ |      [17]: "1975-02-23T08:00:04Z" (162374404) transition_time 0x447-0x44e.7 (8)
0x440|                                             00|               .|      [18]: "1975-10-26T07:00:04Z" (183538804) transition_time 0x44f-0x456.7 (8)
0x450|00 00 00 0a f0 94 74                           |......t         |
0x450|                     00 00 00 00 0b e0 93 85   |       ........ |      [19]: "1976-04-25T08:00:05Z" (199267205) transition_time 0x457-0x45e.7 (8)
0x450|                                             00|               .|      [20]: "1976-10-31T07:00:05Z" (215593205) transition_time 0x45f-0x466.7 (8)
0x460|00 00 00 0c d9 b0 f5                           |.......         |
0x460|                     00 00 00 00 0d c0 75 86   |       ......u. |      [21]: "1977-04-24T08:00:06Z" (230716806) transition_time 0x467-0x46e.7 (8)
0x460|                                             00|               .|      [22]: "1977-10-30T07:00:06Z" (247042806) transition_time 0x46f-0x476.7 (8)
0x470|00 00 00 0e b9 92 f6                           |.......         |
0x470|                     00 00 00 00 0f a9 92 07   |       ........ |      [23]: "1978-04-30T08:00:07Z" (262771207) transition_time 0x477-0x47e.7 (8)
0x470|                                             00|               .|      [24]: "1978-10-29T07:00:07Z" (278492407) transition_time 0x47f-0x486.7 (8)
0x480|00 00 00 10 99 74 f7                           |.....t.         |
0x480|                     00 00 00 00 11 89 74 08   |       ......t. |      [25]: "1979-04-29T08:00:08Z" (294220808) transition_time 0x487-0x48e.7 (8)
0x480|                                             00|               .|      [26]: "1979-10-28T07:00:08Z" (309942008) transition_time 0x48f-0x496.7 (8)
0x490|00 00 00 12 79 56 f8                           |....yV.         |
0x490|                     00 00 00 00 13 69 56 09   |       .....iV. |      [27]: "1980-04-27T08:00:09Z" (325670409) transition_time 0x497-0x49e.7 (8)
0x490|                                             00|               .|      [28]: "1980-10-26T07:00:09Z" (341391609) transition_time 0x49f-0x4a6.7 (8)
0x4a0|00 00 00 14 59 38 f9                           |....Y8.         |
0x4a0|                     00 00 00 00 15 49 38 09   |       .....I8. |      [29]: "1981-04-26T08:00:09Z" (357120009) transition_time 0x4a7-0x4ae.7 (8)
0x4a0|                                             00|               .|      [30]: "1981-10-25T07:00:10Z" (372841210) transition_time 0x4af-0x4b6.7 (8)
0x4b0|00 00 00 16 39 1a fa                           |....9..         |
0x4b0|                     00 00 00 00 17 29 1a 0a   |       .....).. |      [31]: "1982-04-25T08:00:10Z" (388569610) transition_time 0x4b7-0x4be.7 (8)
0x4b0|                                             00|               .|      [32]: "1982-10-31T07:00:11Z" (404895611) transition_time 0x4bf-0x4c6.7 (8)
0x4c0|00 00 00 18 22 37 7b                           |...."7{         |
0x4c0|                     00 00 00 00 19 08 fc 0b   |       ........ |      [33]: "1983-04-24T08:00:11Z" (420019211) transition_time 0x4c7-0x4ce.7 (8)
0x4c0|                                             00|               .|      [34]: "1983-10-30T07:00:12Z" (436345212) transition_time 0x4cf-0x4d6.7 (8)
0x4d0|00 00 00 1a 02 19 7c                           |......|         |
0x4d0|                     00 00 00 00 1a f2 18 8c   |       ........ |      [35]: "1984-04-29T08:00:12Z" (452073612) transition_time 0x4d7-0x4de.7 (8)
0x4d0|                                             00|               .|      [36]: "1984-10-28T07:00:12Z" (467794812) transition_time 0x4df-0x4e6.7 (8)
0x4e0|00 00 00 1b e1 fb 7c                           |......|         |
0x4e0|                     00 00 00 00 1c d1 fa 8c   |       ........ |      [37]: "1985-04-28T08:00:12Z" (483523212) transition_time 0x4e7-0x4ee.7 (8)
0x4e0|                                             00|               .|      [38]: "1985-10-27T07:00:13Z" (499244413) transition_time 0x4ef-0x4f6.7 (8)
0x4f0|00 00 00 1d c1 dd 7d                           |......}         |
0x4f0|                     00 00 00 00 1e b1 dc 8d   |       ........ |      [39]: "1986-04-27T08:00:13Z" (514972813) transition_time 0x4f7-0x4fe.7 (8)
0x4f0|                                             00|               .|      [40]: "1986-10-26T07:00:13Z" (530694013) transition_time 0x4ff-0x506.7 (8)
0x500|00 00 00 1f a1 bf 7d                           |......}         |
0x500|                     00 00 00 00 20 76 0f 0d   |       .... v.. |      [41]: "1987-04-05T08:00:13Z" (544608013) transition_time 0x507-0x50e.7 (8)
0x500|                                             00|               .|      [42]: "1987-10-25T07:00:13Z" (562143613) transition_time 0x50f-0x516.7 (8)
0x510|00 00 00 21 81 a1 7d                           |...!..}         |
0x510|                     00 00 00 00 22 55 f1 0e   |       ...."U.. |      [43]: "1988-04-03T08:00:14Z" (576057614) transition_time 0x517-0x51e.7 (8)
0x510|                                             00|               .|      [44]: "1988-10-30T07:00:14Z" (594198014) transition_time 0x51f-0x526.7 (8)
0x520|00 00 00 23 6a bd fe                           |...#j..         |
0x520|                     00 00 00 00 24 35 d3 0e   |       ....$5.. |      [45]: "1989-04-02T08:00:14Z" (607507214) transition_time 0x527-0x52e.7 (8)
0x520|                                             00|               .|      [46]: "1989-10-29T07:00:14Z" (625647614) transition_time 0x52f-0x536.7 (8)
0x530|00 00 00 25 4a 9f fe                           |...%J..         |
0x530|                     00 00 00 00 26 15 b5 0f   |       ....&... |      [47]: "1990-04-01T08:00:15Z" (638956815) transition_time 0x537-0x53e.7 (8)
0x530|                                             00|               .|      [48]: "1990-10-28T07:00:15Z" (657097215) transition_time 0x53f-0x546.7 (8)
0x540|00 00 00 27 2a 81 ff                           |...'*..         |
0x540|                     00 00 00 00 27 fe d1 90   |       ....'... |      [49]: "1991-04-07T08:00:16Z" (671011216) transition_time 0x547-0x54e.7 (8)
0x540|                                             00|               .|      [50]: "1991-10-27T07:00:16Z" (688546816) transition_time 0x54f-0x556.7 (8)
0x550|00 00 00 29 0a 64 00                           |...).d.         |
0x550|                     00 00 00 00 29 de b3 90   |       ....)... |      [51]: "1992-04-05T08:00:16Z" (702460816) transition_time 0x557-0x55e.7 (8)
0x550|                                             00|               .|      [52]: "1992-10-25T07:00:17Z" (719996417) transition_time 0x55f-0x566.7 (8)
0x560|00 00 00 2a ea 46 01                           |...*.F.         |
0x560|                     00 00 00 00 2b be 95 91   |       ....+... |      [53]: "1993-04-04T08:00:17Z" (733910417) transition_time 0x567-0x56e.7 (8)
0x560|                                             00|               .|      [54]: "1993-10-31T07:00:18Z" (752050818) transition_time 0x56f-0x576.7 (8)
0x570|00 00 00 2c d3 62 82                           |...,.b.         |
0x570|                     00 00 00 00 2d 9e 77 92   |       ....-.w. |      [55]: "1994-04-03T08:00:18Z" (765360018) transition_time 0x577-0x57e.7 (8)
0x570|                                             00|               .|      [56]: "1994-10-30T07:00:19Z" (783500419) transition_time 0x57f-0x586.7 (8)
0x580|00 00 00 2e b3 44 83                           |.....D.         |
0x580|                     00 00 00 00 2f 7e 59 93   |       ..../~Y. |      [57]: "1995-04-02T08:00:19Z" (796809619) transition_time 0x587-0x58e.7 (8)
0x580|                                             00|               .|      [58]: "1995-10-29T07:00:19Z" (814950019) transition_time 0x58f-0x596.7 (8)
0x590|00 00 00 30 93 26 83                           |...0.&.         |
0x590|                     00 00 00 00 31 67 76 14   |       ....1gv. |      [59]: "1996-04-07T08:00:20Z" (828864020) transition_time 0x597-0x59e.7 (8)
0x590|                                             00|               .|      [60]: "1996-10-27T07:00:20Z" (846399620) transition_time 0x59f-0x5a6.7 (8)
0x5a0|00 00 00 32 73 08 84                           |...2s..         |
0x5a0|                     00 00 00 00 33 47 58 14   |       ....3GX. |      [61]: "1997-04-06T08:00:20Z" (860313620) transition_time 0x5a7-0x5ae.7 (8)
0x5a0|                                             00|               .|      [62]: "1997-10-26T07:00:21Z" (877849221) transition_time 0x5af-0x5b6.7 (8)
0x5b0|00 00 00 34 52 ea 85                           |...4R..         |
0x5b0|                     00 00 00 00 35 27 3a 15   |       ....5':. |      [63]: "1998-04-05T08:00:21Z" (891763221) transition_time 0x5b7-0x5be.7 (8)
0x5b0|                                             00|               .|      [64]: "1998-10-25T07:00:21Z" (909298821) transition_time 0x5bf-0x5c6.7 (8)
0x5c0|00 00 00 36 32 cc 85                           |...62..         |
0x5c0|                     00 00 00 00 37 07 1c 16   |       ....7... |      [65]: "1999-04-04T08:00:22Z" (923212822) transition_time 0x5c7-0x5ce.7 (8)
0x5c0|                                             00|               .|      [66]: "1999-10-31T07:00:22Z" (941353222) transition_time 0x5cf-0x5d6.7 (8)
0x5d0|00 00 00 38 1b e9 06                           |...8...         |
0x5d0|                     00 00 00 00 38 e6 fe 16   |       ....8... |      [67]: "2000-04-02T08:00:22Z" (954662422) transition_time 0x5d7-0x5de.7 (8)
0x5d0|                                             00|               .|      [68]: "2000-10-29T07:00:22Z" (972802822) transition_time 0x5df-0x5e6.7 (8)
0x5e0|00 00 00 39 fb cb 06                           |...9...         |
0x5e0|                     00 00 00 00 3a c6 e0 16   |       ....:... |      [69]: "2001-04-01T08:00:22Z" (986112022) transition_time 0x5e7-0x5ee.7 (8)
0x5e0|                                             00|               .|      [70]: "2001-10-28T07:00:22Z" (1004252422) transition_time 0x5ef-0x5f6.7 (8)
0x5f0|00 00 00 3b db ad 06                           |...;...         |
0x5f0|                     00 00 00 00 3c af fc 96   |       ....<... |      [71]: "2002-04-07T08:00:22Z" (1018166422) transition_time 0x5f7-0x5fe.7 (8)
0x5f0|                                             00|               .|      [72]: "2002-10-27T07:00:22Z" (1035702022) transition_time 0x5ff-0x606.7 (8)
0x600|00 00 00 3d bb 8f 06                           |...=...         |
0x600|                     00 00 00 00 3e 8f de 96   |       ....>... |      [73]: "2003-04-06T08:00:22Z" (1049616022) transition_time 0x607-0x60e.7 (8)
0x600|                                             00|               .|      [74]: "2003-10-26T07:00:22Z" (1067151622) transition_time 0x60f-0x616.7 (8)
0x610|00 00 00 3f 9b 71 06                           |...?.q.         |
0x610|                     00 00 00 00 40 6f c0 96   |       ....@o.. |      [75]: "2004-04-04T08:00:22Z" (1081065622) transition_time 0x617-0x61e.7 (8)
0x610|                                             00|               .|      [76]: "2004-10-31T07:00:22Z" (1099206022) transition_time 0x61f-0x626.7 (8)
0x620|00 00 00 41 84 8d 86                           |...A...         |
0x620|                     00 00 00 00 42 4f a2 96   |       ....BO.. |      [77]: "2005-04-03T08:00:22Z" (1112515222) transition_time 0x627-0x62e.7 (8)
0x620|                                             00|               .|      [78]: "2005-10-30T07:00:22Z" (1130655622) transition_time 0x62f-0x636.7 (8)
0x630|00 00 00 43 64 6f 86                           |...Cdo.         |
0x630|                     00 00 00 00 44 2f 84 97   |       ....D/.. |      [79]: "2006-04-02T08:00:23Z" (1143964823) transition_time 0x637-0x63e.7 (8)
0x630|                                             00|               .|      [80]: "2006-10-29T07:00:23Z" (1162105223) transition_time 0x63f-0x646.7 (8)
0x640|00 00 00 45 44 51 87                           |...EDQ.         |
0x640|                     00 00 00 00 45 f3 b7 17   |       ....E... |      [81]: "2007-03-11T08:00:23Z" (1173600023) transition_time 0x647-0x64e.7 (8)
0x640|                                             00|               .|      [82]: "2007-11-04T07:00:23Z" (1194159623) transition_time 0x64f-0x656.7 (8)
0x650|00 00 00 47 2d 6e 07                           |...G-n.         |
0x650|                     00 00 00 00 47 d3 99 17   |       ....G... |      [83]: "2008-03-09T08:00:23Z" (1205049623) transition_time 0x657-0x65e.7 (8)
0x650|                                             00|               .|      [84]: "2008-11-02T07:00:23Z" (1225609223) transition_time 0x65f-0x666.7 (8)
0x660|00 00 00 49 0d 50 07                           |...I.P.         |
0x660|                     00 00 00 00 49 b3 7b 18   |       ....I.{. |      [85]: "2009-03-08T08:00:24Z" (1236499224) transition_time 0x667-0x66e.7 (8)
0x660|                                             00|               .|      [86]: "2009-11-01T07:00:24Z" (1257058824) transition_time 0x66f-0x676.7 (8)
0x670|00 00 00 4a ed 32 08                           |...J.2.         |
0x670|                     00 00 00 00 4b 9c 97 98   |       ....K... |      [87]: "2010-03-14T08:00:24Z" (1268553624) transition_time 0x677-0x67e.7 (8)
0x670|                                             00|               .|      [88]: "2010-11-07T07:00:24Z" (1289113224) transition_time 0x67f-0x686.7 (8)
0x680|00 00 00 4c d6 4e 88                           |...L.N.         |
0x680|                     00 00 00 00 4d 7c 79 98   |       ....M|y. |      [89]: "2011-03-13T08:00:24Z" (1300003224) transition_time 0x687-0x68e.7 (8)
0x680|                                             00|               .|      [90]: "2011-11-06T07:00:24Z" (1320562824) transition_time 0x68f-0x696.7 (8)
0x690|00 00 00 4e b6 30 88                           |...N.0.         |
0x690|                     00 00 00 00 4f 5c 5b 98   |       ....O\[. |      [91]: "2012-03-11T08:00:24Z" (1331452824) transition_time 0x697-0x69e.7 (8)
0x690|                                             00|               .|      [92]: "2012-11-04T07:00:25Z" (1352012425) transition_time 0x69f-0x6a6.7 (8)
0x6a0|00 00 00 50 96 12 89                           |...P...         |
0x6a0|                     00 00 00 00 51 3c 3d 99   |       ....Q<=. |      [93]: "2013-03-10T08:00:25Z" (1362902425) transition_time 0x6a7-0x6ae.7 (8)
0x6a0|                                             00|               .|      [94]: "2013-11-03T07:00:25Z" (1383462025) transition_time 0x6af-0x6b6.7 (8)
0x6b0|00 00 00 52 75 f4 89                           |...Ru..         |
0x6b0|                     00 00 00 00 53 1c 1f 99   |       ....S... |      [95]: "2014-03-09T08:00:25Z" (1394352025) transition_time 0x6b7-0x6be.7 (8)
0x6b0|                                             00|               .|      [96]: "2014-11-02T07:00:25Z" (1414911625) transition_time 0x6bf-0x6c6.7 (8)
0x6c0|00 00 00 54 55 d6 89                           |...TU..         |
0x6c0|                     00 00 00 00 54 fc 01 99   |       ....T... |      [97]: "2015-03-08T08:00:25Z" (1425801625) transition_time 0x6c7-0x6ce.7 (8)
0x6c0|                                             00|               .|      [98]: "2015-11-01T07:00:26Z" (1446361226) transition_time 0x6cf-0x6d6.7 (8)
0x6d0|00 00 00 56 35 b8 8a                           |...V5..         |
0x6d0|                     00 00 00 00 56 e5 1e 1a   |       ....V... |      [99]: "2016-03-13T08:00:26Z" (1457856026) transition_time 0x6d7-0x6de.7 (8)
0x6d0|                                             00|               .|      [100]: "2016-11-06T07:00:26Z" (1478415626) transition_time 0x6df-0x6e6.7 (8)
0x6e0|00 00 00 58 1e d5 0a                           |...X...         |
0x6e0|                     00 00 00 00 58 c5 00 1b   |       ....X... |      [101]: "2017-03-12T08:00:27Z" (1489305627) transition_time 0x6e7-0x6ee.7 (8)
0x6e0|                                             00|               .|      [102]: "2017-11-05T07:00:27Z" (1509865227) transition_time 0x6ef-0x6f6.7 (8)
0x6f0|00 00 00 59 fe b7 0b                           |...Y...         |
0x6f0|                     00 00 00 00 5a a4 e2 1b   |       ....Z... |      [103]: "2018-03-11T08:00:27Z" (1520755227) transition_time 0x6f7-0x6fe.7 (8)
0x6f0|                                             00|               .|      [104]: "2018-11-04T07:00:27Z" (1541314827) transition_time 0x6ff-0x706.7 (8)
0x700|00 00 00 5b de 99 0b                           |...[...         |
0x700|                     00 00 00 00 5c 84 c4 1b   |       ....\... |      [105]: "2019-03-10T08:00:27Z" (1552204827) transition_time 0x707-0x70e.7 (8)
0x700|                                             00|               .|      [106]: "2019-11-03T07:00:27Z" (1572764427) transition_time 0x70f-0x716.7 (8)
0x710|00 00 00 5d be 7b 0b                           |...].{.         |
0x710|                     00 00 00 00 5e 64 a6 1b   |       ....^d.. |      [107]: "2020-03-08T08:00:27Z" (1583654427) transition_time 0x717-0x71e.7 (8)
0x710|                                             00|               .|      [108]: "2020-11-01T07:00:27Z" (1604214027) transition_time 0x71f-0x726.7 (8)
0x720|00 00 00 5f 9e 5d 0b                           |..._.].         |
0x720|                     00 00 00 00 60 4d c2 9b   |       ....`M.. |      [109]: "2021-03-14T08:00:27Z" (1615708827) transition_time 0x727-0x72e.7 (8)
0x720|                                             00|               .|      [110]: "2021-11-07T07:00:27Z" (1636268427) transition_time 0x72f-0x736.7 (8)
0x730|00 00 00 61 87 79 8b                           |...a.y.         |
0x730|                     00 00 00 00 62 2d a4 9b   |       ....b-.. |      [111]: "2022-03-13T08:00:27Z" (1647158427) transition_time 0x737-0x73e.7 (8)
0x730|                                             00|               .|      [112]: "2022-11-06T07:00:27Z" (1667718027) transition_time 0x73f-0x746.7 (8)
0x740|00 00 00 63 67 5b 8b                           |...cg[.         |
0x740|                     00 00 00 00 64 0d 86 9b   |       ....d... |      [113]: "2023-03-12T08:00:27Z" (1678608027) transition_time 0x747-0x74e.7 (8)
0x740|                                             00|               .|      [114]: "2023-06-28T00:00:27Z" (1687910427) transition_time 0x74f-0x756.7 (8)
0x750|00 00 00 64 9b 78 1b                           |...d.x.         |
     |                                               |                |    transition_types[0:115]: 0x757-0x7c9.7 (115)
0x750|                     02                        |       .        |      [0]: 2 transition_type 0x757-0x757.7 (1)
0x750|                        01                     |        .       |      [1]: 1 transition_type 0x758-0x758.7 (1)
0x750|                           02                  |         .      |      [2]: 2 transition_type 0x759-0x759.7 (1)
0x750|                              01               |          .     |      [3]: 1 transition_type 0x75a-0x75a.7 (1)
0x750|                                 02            |           .    |      [4]: 2 transition_type 0x75b-0x75b.7 (1)
0x750|                                    03         |            .   |      [5]: 3 transition_type 0x75c-0x75c.7 (1)
0x750|                                       04      |             .  |      [6]: 4 transition_type 0x75d-0x75d.7 (1)
0x750|                                          02   |              . |      [7]: 2 transition_type 0x75e-0x75e.7 (1)
0x750|                                             01|               .|      [8]: 1 transition_type 0x75f-0x75f.7 (1)
0x760|02                                             |.               |      [9]: 2 transition_type 0x760-0x760.7 (1)
0x760|   01                                          | .              |      [10]: 1 transition_type 0x761-0x761.7 (1)
0x760|      02                                       |  .             |      [11]: 2 transition_type 0x762-0x762.7 (1)
0x760|         05                                    |   .            |      [12]: 5 transition_type 0x763-0x763.7 (1)
0x760|            01                                 |    .           |      [13]: 1 transition_type 0x764-0x764.7 (1)
0x760|               02                              |     .          |      [14]: 2 transition_type 0x765-0x765.7 (1)
0x760|                  01                           |      .         |      [15]: 1 transition_type 0x766-0x766.7 (1)
0x760|                     02                        |       .        |      [16]: 2 transition_type 0x767-0x767.7 (1)
0x760|                        01                     |        .       |      [17]: 1 transition_type 0x768-0x768.7 (1)
0x760|                           02                  |         .      |      [18]: 2 transition_type 0x769-0x769.7 (1)
0x760|                              01               |          .     |      [19]: 1 transition_type 0x76a-0x76a.7 (1)
0x760|                                 02            |           .    |      [20]: 2 transition_type 0x76b-0x76b.7 (1)
0x760|                                    01         |            .   |      [21]: 1 transition_type 0x76c-0x76c.7 (1)
0x760|                                       02      |             .  |      [22]: 2 transition_type 0x76d-0x76d.7 (1)
0x760|                                          01   |              . |      [23]: 1 transition_type 0x76e-0x76e.7 (1)
0x760|                                             02|               .|      [24]: 2 transition_type 0x76f-0x76f.7 (1)
0x770|01                                             |.               |      [25]: 1 transition_type 0x770-0x770.7 (1)
0x770|   02                                          | .              |      [26]: 2 transition_type 0x771-0x771.7 (1)
0x770|      01                                       |  .             |      [27]: 1 transition_type 0x772-0x772.7 (1)
0x770|         02                                    |   .            |      [28]: 2 transition_type 0x773-0x773.7 (1)
0x770|            01                                 |    .           |      [29]: 1 transition_type 0x774-0x774.7 (1)
0x770|               02                              |     .          |      [30]: 2 transition_type 0x775-0x775.7 (1)
0x770|                  01                           |      .         |      [31]: 1 transition_type 0x776-0x776.7 (1)
0x770|                     02                        |       .        |      [32]: 2 transition_type 0x777-0x777.7 (1)
0x770|                        01                     |        .       |      [33]: 1 transition_type 0x778-0x778.7 (1)
0x770|                           02                  |         .      |      [34]: 2 transition_type 0x779-0x779.7 (1)
0x770|                              01               |          .     |      [35]: 1 transition_type 0x77a-0x77a.7 (1)
0x770|                                 02            |           .    |      [36]: 2 transition_type 0x77b-0x77b.7 (1)
0x770|                                    01         |            .   |      [37]: 1 transition_type 0x77c-0x77c.7 (1)
0x770|                                       02      |             .  |      [38]: 2 transition_type 0x77d-0x77d.7 (1)
0x770|                                          01   |              . |      [39]: 1 transition_type 0x77e-0x77e.7 (1)
0x770|                                             02|               .|      [40]: 2 transition_type 0x77f-0x77f.7 (1)
0x780|01                                             |.               |      [41]: 1 transition_type 0x780-0x780.7 (1)
0x780|   02                                          | .              |      [42]: 2 transition_type 0x781-0x781.7 (1)
0x780|      01                                       |  .             |      [43]: 1 transition_type 0x782-0x782.7 (1)
0x780|         02                                    |   .            |      [44]: 2 transition_type 0x783-0x783.7 (1)
0x780|            01                                 |    .           |      [45]: 1 transition_type 0x784-0x784.7 (1)
0x780|               02                              |     .          |      [46]: 2 transition_type 0x785-0x785.7 (1)
0x780|                  01                           |      .         |      [47]: 1 transition_type 0x786-0x786.7 (1)
0x780|                     02                        |       .        |      [48]: 2 transition_type 0x787-0x787.7 (1)
0x780|                        01                     |        .       |      [49]: 1 transition_type 0x788-0x788.7 (1)
0x780|                           02                  |         .      |      [50]: 2 transition_type 0x789-0x789.7 (1)
0x780|                              01               |          .     |      [51]: 1 transition_type 0x78a-0x78a.7 (1)
0x780|                                 02            |           .    |      [52]: 2 transition_type 0x78b-0x78b.7 (1)
0x780|                                    01         |            .   |      [53]: 1 transition_type 0x78c-0x78c.7 (1)
0x780|                                       02      |             .  |      [54]: 2 transition_type 0x78d-0x78d.7 (1)
0x780|                                          01   |              . |      [55]: 1 transition_type 0x78e-0x78e.7 (1)
0x780|                                             02|               .|      [56]: 2 transition_type 0x78f-0x78f.7 (1)
0x790|01                                             |.               |      [57]: 1 transition_type 0x790-0x790.7 (1)
0x790|   02                                          | .              |      [58]: 2 transition_type 0x791-0x791.7 (1)
0x790|      01                                       |  .             |      [59]: 1 transition_type 0x792-0x792.7 (1)
0x790|         02                                    |   .            |      [60]: 2 transition_type 0x793-0x793.7 (1)
0x790|            01                                 |    .           |      [61]: 1 transition_type 0x794-0x794.7 (1)
0x790|               02                              |     .          |      [62]: 2 transition_type 0x795-0x795.7 (1)
0x790|                  01                           |      .         |      [63]: 1 transition_type 0x796-0x796.7 (1)
0x790|                     02                        |       .        |      [64]: 2 transition_type 0x797-0x797.7 (1)
0x790|                        01                     |        .       |      [65]: 1 transition_type 0x798-0x798.7 (1)
0x790|                           02                  |         .      |      [66]: 2 transition_type 0x799-0x799.7 (1)
0x790|                              01               |          .     |      [67]: 1 transition_type 0x79a-0x79a.7 (1)
0x790|                                 02            |           .    |      [68]: 2 transition_type 0x79b-0x79b.7 (1)
0x790|                                    01         |            .   |      [69]: 1 transition_type 0x79c-0x79c.7 (1)
0x790|                                       02      |             .  |      [70]: 2 transition_type 0x79d-0x79d.7 (1)
0x790|                                          01   |              . |      [71]: 1 transition_type 0x79e-0x79e.7 (1)
0x790|                                             02|               .|      [72]: 2 transition_type 0x79f-0x79f.7 (1)
0x7a0|01                                             |.               |      [73]: 1 transition_type 0x7a0-0x7a0.7 (1)
0x7a0|   02                                          | .              |      [74]: 2 transition_type 0x7a1-0x7a1.7 (1)
0x7a0|      01                                       |  .             |      [75]: 1 transition_type 0x7a2-0x7a2.7 (1)
0x7a0|         02                                    |   .            |      [76]: 2 transition_type 0x7a3-0x7a3.7 (1)
0x7a0|            01                                 |    .           |      [77]: 1 transition_type 0x7a4-0x7a4.7 (1)
0x7a0|               02                              |     .          |      [78]: 2 transition_type 0x7a5-0x7a5.7 (1)
0x7a0|                  01                           |      .         |      [79]: 1 transition_type 0x7a6-0x7a6.7 (1)
0x7a0|                     02                        |       .        |      [80]: 2 transition_type 0x7a7-0x7a7.7 (1)
0x7a0|                        01                     |        .       |      [81]: 1 transition_type 0x7a8-0x7a8.7 (1)
0x7a0|                           02                  |         .      |      [82]: 2 transition_type 0x7a9-0x7a9.7 (1)
0x7a0|                              01               |          .     |      [83]: 1 transition_type 0x7aa-0x7aa.7 (1)
0x7a0|                                 02            |           .    |      [84]: 2 transition_type 0x7ab-0x7ab.7 (1)
0x7a0|                                    01         |            .   |      [85]: 1 transition_type 0x7ac-0x7ac.7 (1)
0x7a0|                                       02      |             .  |      [86]: 2 transition_type 0x7ad-0x7ad.7 (1)
0x7a0|                                          01   |              . |      [87]: 1 transition_type 0x7ae-0x7ae.7 (1)
0x7a0|                                             02|               .|      [88]: 2 transition_type 0x7af-0x7af.7 (1)
0x7b0|01                                             |.               |      [89]: 1 transition_type 0x7b0-0x7b0.7 (1)
0x7b0|   02                                          | .              |      [90]: 2 transition_type 0x7b1-0x7b1.7 (1)
0x7b0|      01                                       |  .             |      [91]: 1 transition_type 0x7b2-0x7b2.7 (1)
0x7b0|         02                                    |   .            |      [92]: 2 transition_type 0x7b3-0x7b3.7 (1)
0x7b0|            01                                 |    .           |      [93]: 1 transition_type 0x7b4-0x7b4.7 (1)
0x7b0|               02                              |     .          |      [94]: 2 transition_type 0x7b5-0x7b5.7 (1)
0x7b0|                  01                           |      .         |      [95]: 1 transition_type 0x7b6-0x7b6.7 (1)
0x7b0|                     02                        |       .        |      [96]: 2 transition_type 0x7b7-0x7b7.7 (1)
0x7b0|                        01                     |        .       |      [97]: 1 transition_type 0x7b8-0x7b8.7 (1)
0x7b0|                           02                  |         .      |      [98]: 2 transition_type 0x7b9-0x7b9.7 (1)
0x7b0|                              01               |          .     |      [99]: 1 transition_type 0x7ba-0x7ba.7 (1)
0x7b0|                                 02            |           .    |      [100]: 2 transition_type 0x7bb-0x7bb.7 (1)
0x7b0|                                    01         |            .   |      [101]: 1 transition_type 0x7bc-0x7bc.7 (1)
0x7b0|                                       02      |             .  |      [102]: 2 transition_type 0x7bd-0x7bd.7 (1)
0x7b0|                                          01   |              . |      [103]: 1 transition_type 0x7be-0x7be.7 (1)
0x7b0|                                             02|               .|      [104]: 2 transition_type 0x7bf-0x7bf.7 (1)
0x7c0|01                                             |.               |      [105]: 1 transition_type 0x7c0-0x7c0.7 (1)
0x7c0|   02                                          | .              |      [106]: 2 transition_type 0x7c1-0x7c1.7 (1)
0x7c0|      01                                       |  .             |      [107]: 1 transition_type 0x7c2-0x7c2.7 (1)
0x7c0|         02                                    |   .            |      [108]: 2 transition_type 0x7c3-0x7c3.7 (1)
0x7c0|            01                                 |    .           |      [109]: 1 transition_type 0x7c4-0x7c4.7 (1)
0x7c0|               02                              |     .          |      [110]: 2 transition_type 0x7c5-0x7c5.7 (1)
0x7c0|                  01                           |      .         |      [111]: 1 transition_type 0x7c6-0x7c6.7 (1)
0x7c0|                     02                        |       .        |      [112]: 2 transition_type 0x7c7-0x7c7.7 (1)
0x7c0|                        01                     |        .       |      [113]: 1 transition_type 0x7c8-0x7c8.7 (1)
0x7c0|                           01                  |         .      |      [114]: 1 transition_type 0x7c9-0x7c9.7 (1)
     |                                               |                |    local_time_type_records[0:7]: 0x7ca-0x7f3.7 (42)
     |                                               |                |      [0]{}: local_time_type 0x7ca-0x7cf.7 (6)
0x7c0|                              ff ff ad dd      |          ....  |        utoff: -21027 (valid) 0x7ca-0x7cd.7 (4)
0x7c0|                                          00   |              . |        dst: 0 (valid) 0x7ce-0x7ce.7 (1)
0x7c0|                                             00|               .|        idx: 0 (valid) 0x7cf-0x7cf.7 (1)
     |                                               |                |      [1]{}: local_time_type 0x7d0-0x7d5.7 (6)
0x7d0|ff ff b9 b0                                    |....            |        utoff: -18000 (valid) 0x7d0-0x7d3.7 (4)
0x7d0|            01                                 |    .           |        dst: 1 (valid) 0x7d4-0x7d4.7 (1)
0x7d0|               04                              |     .          |        idx: 4 (valid) 0x7d5-0x7d5.7 (1)
     |                                               |                |      [2]{}: local_time_type 0x7d6-0x7db.7 (6)
0x7d0|                  ff ff ab a0                  |      ....      |        utoff: -21600 (valid) 0x7d6-0x7d9.7 (4)
0x7d0|                              00               |          .     |        dst: 0 (valid) 0x7da-0x7da.7 (1)
0x7d0|                                 08            |           .    |        idx: 8 (valid) 0x7db-0x7db.7 (1)
     |                                               |                |      [3]{}: local_time_type 0x7dc-0x7e1.7 (6)
0x7d0|                                    ff ff b9 b0|            ....|        utoff: -18000 (valid) 0x7dc-0x7df.7 (4)
0x7e0|01                                             |.               |        dst: 1 (valid) 0x7e0-0x7e0.7 (1)
0x7e0|   0c                                          | .              |        idx: 12 (valid) 0x7e1-0x7e1.7 (1)
     |                                               |                |      [4]{}: local_time_type 0x7e2-0x7e7.7 (6)
0x7e0|      ff ff b9 b0                              |  ....          |        utoff: -18000 (valid) 0x7e2-0x7e5.7 (4)
0x7e0|                  01                           |      .         |        dst: 1 (valid) 0x7e6-0x7e6.7 (1)
0x7e0|                     10                        |       .        |        idx: 16 (valid) 0x7e7-0x7e7.7 (1)
     |                                               |                |      [5]{}: local_time_type 0x7e8-0x7ed.7 (6)
0x7e0|                        ff ff b9 b0            |        ....    |        utoff: -18000 (valid) 0x7e8-0x7eb.7 (4)
0x7e0|                                    00         |            .   |        dst: 0 (valid) 0x7ec-0x7ec.7 (1)
0x7e0|                                       14      |             .  |        idx: 20 (valid) 0x7ed-0x7ed.7 (1)
     |                                               |                |      [6]{}: local_time_type 0x7ee-0x7f3.7 (6)
0x7e0|                                          ff ff|              ..|        utoff: -21600 (valid) 0x7ee-0x7f1.7 (4)
0x7f0|ab a0                                          |..              |
0x7f0|      00                                       |  .             |        dst: 0 (valid) 0x7f2-0x7f2.7 (1)
0x7f0|         08                                    |   .            |        idx: 8 (valid) 0x7f3-0x7f3.7 (1)
     |                                               |                |    time_zone_designations[0:6]: 0x7f4-0x80b.7 (24)
0x7f0|            4c 4d 54 00                        |    LMT.        |      [0]: "LMT" time_zone_designation 0x7f4-0x7f7.7 (4)
0x7f0|                        43 44 54 00            |        CDT.    |      [1]: "CDT" time_zone_designation 0x7f8-0x7fb.7 (4)
0x7f0|                                    43 53 54 00|            CST.|      [2]: "CST" time_zone_designation 0x7fc-0x7ff.7 (4)
0x800|43 57 54 00                                    |CWT.            |      [3]: "CWT" time_zone_designation 0x800-0x803.7 (4)
0x800|            43 50 54 00                        |    CPT.        |      [4]: "CPT" time_zone_designation 0x804-0x807.7 (4)
0x800|                        45 53 54 00            |        EST.    |      [5]: "EST" time_zone_designation 0x808-0x80b.7 (4)
     |                                               |                |    leap_second_records[0:27]: 0x80c-0x94f.7 (324)
     |                                               |                |      [0]{}: leap_second_record 0x80c-0x817.7 (12)
0x800|                                    00 00 00 00|            ....|        occur: "1972-07-01T00:00:00Z" (78796800) 0x80c-0x813.7 (8)
0x810|04 b2 58 00                                    |..X.            |
0x810|            00 00 00 01                        |    ....        |        corr: 1 0x814-0x817.7 (4)
     |                                               |                |      [1]{}: leap_second_record 0x818-0x823.7 (12)
0x810|                        00 00 00 00 05 a4 ec 01|        ........|        occur: "1973-01-01T00:00:01Z" (94694401) 0x818-0x81f.7 (8)
0x820|00 00 00 02                                    |....            |        corr: 2 0x820-0x823.7 (4)
     |                                               |                |      [2]{}: leap_second_record 0x824-0x82f.7 (12)
0x820|            00 00 00 00 07 86 1f 82            |    ........    |        occur: "1974-01-01T00:00:02Z" (126230402) 0x824-0x82b.7 (8)
0x820|                                    00 00 00 03|            ....|        corr: 3 0x82c-0x82f.7 (4)
     |                                               |                |      [3]{}: leap_second_record 0x830-0x83b.7 (12)
0x830|00 00 00 00 09 67 53 03                        |.....gS.        |        occur: "1975-01-01T00:00:03Z" (157766403) 0x830-0x837.7 (8)
0x830|                        00 00 00 04            |        ....    |        corr: 4 0x838-0x83b.7 (4)
     |                                               |                |      [4]{}: leap_second_record 0x83c-0x847.7 (12)
0x830|                                    00 00 00 00|            ....|        occur: "1976-01-01T00:00:04Z" (189302404) 0x83c-0x843.7 (8)
0x840|0b 48 86 84                                    |.H..            |
0x840|            00 00 00 05                        |    ....        |        corr: 5 0x844-0x847.7 (4)
     |                                               |                |      [5]{}: leap_second_record 0x848-0x853.7 (12)
0x840|                        00 00 00 00 0d 2b 0b 85|        .....+..|        occur: "1977-01-01T00:00:05Z" (220924805) 0x848-0x84f.7 (8)
0x850|00 00 00 06                                    |....            |        corr: 6 0x850-0x853.7 (4)
     |                                               |                |      [6]{}: leap_second_record 0x854-0x85f.7 (12)
0x850|            00 00 00 00 0f 0c 3f 06            |    ......?.    |        occur: "1978-01-01T00:00:06Z" (252460806) 0x854-0x85b.7 (8)
0x850|                                    00 00 00 07|            ....|        corr: 7 0x85c-0x85f.7 (4)
     |                                               |                |      [7]{}: leap_second_record 0x860-0x86b.7 (12)
0x860|00 00 00 00 10 ed 72 87                        |......r.        |        occur: "1979-01-01T00:00:07Z" (283996807) 0x860-0x867.7 (8)
0x860|                        00 00 00 08            |        ....    |        corr: 8 0x868-0x86b.7 (4)
     |                                               |                |      [8]{}: leap_second_record 0x86c-0x877.7 (12)
0x860|                                    00 00 00 00|            ....|        occur: "1980-01-01T00:00:08Z" (315532808) 0x86c-0x873.7 (8)
0x870|12 ce a6 08                                    |....            |
0x870|            00 00 00 09                        |    ....        |        corr: 9 0x874-0x877.7 (4)
     |                                               |                |      [9]{}: leap_second_record 0x878-0x883.7 (12)
0x870|                        00 00 00 00 15 9f ca 89|        ........|        occur: "1981-07-01T00:00:09Z" (362793609) 0x878-0x87f.7 (8)
0x880|00 00 00 0a                                    |....            |        corr: 10 0x880-0x883.7 (4)
     |                                               |                |      [10]{}: leap_second_record 0x884-0x88f.7 (12)
0x880|            00 00 00 00 17 80 fe 0a            |    ........    |        occur: "1982-07-01T00:00:10Z" (394329610) 0x884-0x88b.7 (8)
0x880|                                    00 00 00 0b|            ....|        corr: 11 0x88c-0x88f.7 (4)
     |                                               |                |      [11]{}: leap_second_record 0x890-0x89b.7 (12)
0x890|00 00 00 00 19 62 31 8b                        |.....b1.        |        occur: "1983-07-01T00:00:11Z" (425865611) 0x890-0x897.7 (8)
0x890|                        00 00 00 0c            |        ....    |        corr: 12 0x898-0x89b.7 (4)
     |                                               |                |      [12]{}: leap_second_record 0x89c-0x8a7.7 (12)
0x890|                                    00 00 00 00|            ....|        occur: "1985-07-01T00:00:12Z" (489024012) 0x89c-0x8a3.7 (8)
0x8a0|1d 25 ea 0c                                    |.%..            |
0x8a0|            00 00 00 0d                        |    ....        |        corr: 13 0x8a4-0x8a7.7 (4)
     |                                               |                |      [13]{}: leap_second_record 0x8a8-0x8b3.7 (12)
0x8a0|                        00 00 00 00 21 da e5 0d|        ....!...|        occur: "1988-01-01T00:00:13Z" (567993613) 0x8a8-0x8af.7 (8)
0x8b0|00 00 00 0e                                    |....            |        corr: 14 0x8b0-0x8b3.7 (4)
     |                                               |                |      [14]{}: leap_second_record 0x8b4-0x8bf.7 (12)
0x8b0|            00 00 00 00 25 9e 9d 8e            |    ....%...    |        occur: "1990-01-01T00:00:14Z" (631152014) 0x8b4-0x8bb.7 (8)
0x8b0|                                    00 00 00 0f|            ....|        corr: 15 0x8bc-0x8bf.7 (4)
     |                                               |                |      [15]{}: leap_second_record 0x8c0-0x8cb.7 (12)
0x8c0|00 00 00 00 27 7f d1 0f                        |....'...        |        occur: "1991-01-01T00:00:15Z" (662688015) 0x8c0-0x8c7.7 (8)
0x8c0|                        00 00 00 10            |        ....    |        corr: 16 0x8c8-0x8cb.7 (4)
     |                                               |                |      [16]{}: leap_second_record 0x8cc-0x8d7.7 (12)
0x8c0|                                    00 00 00 00|            ....|        occur: "1992-07-01T00:00:16Z" (709948816) 0x8cc-0x8d3.7 (8)
0x8d0|2a 50 f5 90                                    |*P..            |
0x8d0|            00 00 00 11                        |    ....        |        corr: 17 0x8d4-0x8d7.7 (4)
     |                                               |                |      [17]{}: leap_second_record 0x8d8-0x8e3.7 (12)
0x8d0|                        00 00 00 00 2c 32 29 11|        ....,2).|        occur: "1993-07-01T00:00:17Z" (741484817) 0x8d8-0x8df.7 (8)
0x8e0|00 00 00 12                                    |....            |        corr: 18 0x8e0-0x8e3.7 (4)
     |                                               |                |      [18]{}: leap_second_record 0x8e4-0x8ef.7 (12)
0x8e0|            00 00 00 00 2e 13 5c 92            |    ......\.    |        occur: "1994-07-01T00:00:18Z" (773020818) 0x8e4-0x8eb.7 (8)
0x8e0|                                    00 00 00 13|            ....|        corr: 19 0x8ec-0x8ef.7 (4)
     |                                               |                |      [19]{}: leap_second_record 0x8f0-0x8fb.7 (12)
0x8f0|00 00 00 00 30 e7 24 13                        |....0.$.        |        occur: "1996-01-01T00:00:19Z" (820454419) 0x8f0-0x8f7.7 (8)
0x8f0|                        00 00 00 14            |        ....    |        corr: 20 0x8f8-0x8fb.7 (4)
     |                                               |                |      [20]{}: leap_second_record 0x8fc-0x907.7 (12)
0x8f0|                                    00 00 00 00|            ....|        occur: "1997-07-01T00:00:20Z" (867715220) 0x8fc-0x903.7 (8)
0x900|33 b8 48 94                                    |3.H.            |
0x900|            00 00 00 15                        |    ....        |        corr: 21 0x904-0x907.7 (4)
     |                                               |                |      [21]{}: leap_second_record 0x908-0x913.7 (12)
0x900|                        00 00 00 00 36 8c 10 15|        ....6...|        occur: "1999-01-01T00:00:21Z" (915148821) 0x908-0x90f.7 (8)
0x910|00 00 00 16                                    |....            |        corr: 22 0x910-0x913.7 (4)
     |                                               |                |      [22]{}: leap_second_record 0x914-0x91f.7 (12)
0x910|            00 00 00 00 43 b7 1b 96            |    ....C...    |        occur: "2006-01-01T00:00:22Z" (1136073622) 0x914-0x91b.7 (8)
0x910|                                    00 00 00 17|            ....|        corr: 23 0x91c-0x91f.7 (4)
     |                                               |                |      [23]{}: leap_second_record 0x920-0x92b.7 (12)
0x920|00 00 00 00 49 5c 07 97                        |....I\..        |        occur: "2009-01-01T00:00:23Z" (1230768023) 0x920-0x927.7 (8)
0x920|                        00 00 00 18            |        ....    |        corr: 24 0x928-0x92b.7 (4)
     |                                               |                |      [24]{}: leap_second_record 0x92c-0x937.7 (12)
0x920|                                    00 00 00 00|            ....|        occur: "2012-07-01T00:00:24Z" (1341100824) 0x92c-0x933.7 (8)
0x930|4f ef 93 18                                    |O...            |
0x930|            00 00 00 19                        |    ....        |        corr: 25 0x934-0x937.7 (4)
     |                                               |                |      [25]{}: leap_second_record 0x938-0x943.7 (12)
0x930|                        00 00 00 00 55 93 2d 99|        ....U.-.|        occur: "2015-07-01T00:00:25Z" (1435708825) 0x938-0x93f.7 (8)
0x940|00 00 00 1a                                    |....            |        corr: 26 0x940-0x943.7 (4)
     |                                               |                |      [26]{}: leap_second_record 0x944-0x94f.7 (12)
0x940|            00 00 00 00 58 68 46 9a            |    ....XhF.    |        occur: "2017-01-01T00:00:26Z" (1483228826) 0x944-0x94b.7 (8)
0x940|                                    00 00 00 1b|            ....|        corr: 27 0x94c-0x94f.7 (4)
     |                                               |                |    standard_wall_indicators[0:7]: 0x950-0x956.7 (7)
0x950|00                                             |.               |      [0]: 0 standard_wall_indicator (valid) 0x950-0x950.7 (1)
0x950|   00                                          | .              |      [1]: 0 standard_wall_indicator (valid) 0x951-0x951.7 (1)
0x950|      00                                       |  .             |      [2]: 0 standard_wall_indicator (valid) 0x952-0x952.7 (1)
0x950|         00                                    |   .            |      [3]: 0 standard_wall_indicator (valid) 0x953-0x953.7 (1)
0x950|            01                                 |    .           |      [4]: 1 standard_wall_indicator (valid) 0x954-0x954.7 (1)
0x950|               00                              |     .          |      [5]: 0 standard_wall_indicator (valid) 0x955-0x955.7 (1)
0x950|                  00                           |      .         |      [6]: 0 standard_wall_indicator (valid) 0x956-0x956.7 (1)
     |                                               |                |    ut_local_indicators[0:7]: 0x957-0x95d.7 (7)
0x950|                     00                        |       .        |      [0]: 0 ut_local_indicator (valid) 0x957-0x957.7 (1)
0x950|                        00                     |        .       |      [1]: 0 ut_local_indicator (valid) 0x958-0x958.7 (1)
0x950|                           00                  |         .      |      [2]: 0 ut_local_indicator (valid) 0x959-0x959.7 (1)
0x950|                              00               |          .     |      [3]: 0 ut_local_indicator (valid) 0x95a-0x95a.7 (1)
0x950|                                 01            |           .    |      [4]: 1 ut_local_indicator (valid) 0x95b-0x95b.7 (1)
0x950|                                    00         |            .   |      [5]: 0 ut_local_indicator (valid) 0x95c-0x95c.7 (1)
0x950|                                       00      |             .  |      [6]: 0 ut_local_indicator (valid) 0x95d-0x95d.7 (1)
     |                                               |                |  footer{}: 0x95e-0x95f.7 (2)
0x950|                                          0a   |              . |    nl1: 10 (valid) 0x95e-0x95e.7 (1)
     |                                               |                |    tz_string: "" 0x95f-NA (0)
0x950|                                             0a|               .|    nl2: 10 (valid) 0x95f-0x95f.7 (1)
