$ fq -d tzif dv Merida
     |00 01 02 03 04 05 06 07 08 09 0a 0b 0c 0d 0e 0f|0123456789abcdef|.{}: Merida (tzif) 0x0-0x611.7 (1554)
     |                                               |                |  v1header{}: 0x0-0x2b.7 (44)
0x000|54 5a 69 66                                    |TZif            |    magic: 0x545a6966 (valid) 0x0-0x3.7 (4)
0x000|            32                                 |    2           |    ver: "2" (0x32) (valid) 0x4-0x4.7 (1)
0x000|               00 00 00 00 00 00 00 00 00 00 00|     ...........|    reserved: raw bits 0x5-0x13.7 (15)
0x010|00 00 00 00                                    |....            |
0x010|            00 00 00 05                        |    ....        |    isutcnt: 5 0x14-0x17.7 (4)
0x010|                        00 00 00 05            |        ....    |    isstdcnt: 5 0x18-0x1b.7 (4)
0x010|                                    00 00 00 1b|            ....|    leapcnt: 27 0x1c-0x1f.7 (4)
0x020|00 00 00 3a                                    |...:            |    timecnt: 58 0x20-0x23.7 (4)
0x020|            00 00 00 05                        |    ....        |    typecnt: 5 0x24-0x27.7 (4)
0x020|                        00 00 00 10            |        ....    |    charcnt: 16 0x28-0x2b.7 (4)
     |                                               |                |  v1datablock{}: 0x2c-0x25d.7 (562)
     |                                               |                |    transition_times[0:58]: 0x2c-0x113.7 (232)
0x020|                                    a5 b6 da 60|            ...`|      [0]: "1922-01-01T06:00:00Z" (-1514743200) transition_time 0x2c-0x2f.7 (4)
0x030|16 86 d5 6a                                    |...j            |      [1]: "1981-12-23T06:00:10Z" (377935210) transition_time 0x30-0x33.7 (4)
0x030|            18 4c 4b 5b                        |    .LK[        |      [2]: "1982-12-02T05:00:11Z" (407653211) transition_time 0x34-0x37.7 (4)
0x030|                        31 67 76 14            |        1gv.    |      [3]: "1996-04-07T08:00:20Z" (828864020) transition_time 0x38-0x3b.7 (4)
0x030|                                    32 73 08 84|            2s..|      [4]: "1996-10-27T07:00:20Z" (846399620) transition_time 0x3c-0x3f.7 (4)
0x040|33 47 58 14                                    |3GX.            |      [5]: "1997-04-06T08:00:20Z" (860313620) transition_time 0x40-0x43.7 (4)
0x040|            34 52 ea 85                        |    4R..        |      [6]: "1997-10-26T07:00:21Z" (877849221) transition_time 0x44-0x47.7 (4)
0x040|                        35 27 3a 15            |        5':.    |      [7]: "1998-04-05T08:00:21Z" (891763221) transition_time 0x48-0x4b.7 (4)
0x040|                                    36 32 cc 85|            62..|      [8]: "1998-10-25T07:00:21Z" (909298821) transition_time 0x4c-0x4f.7 (4)
0x050|37 07 1c 16                                    |7...            |      [9]: "1999-04-04T08:00:22Z" (923212822) transition_time 0x50-0x53.7 (4)
0x050|            38 1b e9 06                        |    8...        |      [10]: "1999-10-31T07:00:22Z" (941353222) transition_time 0x54-0x57.7 (4)
0x050|                        38 e6 fe 16            |        8...    |      [11]: "2000-04-02T08:00:22Z" (954662422) transition_time 0x58-0x5b.7 (4)
0x050|                                    39 fb cb 06|            9...|      [12]: "2000-10-29T07:00:22Z" (972802822) transition_time 0x5c-0x5f.7 (4)
0x060|3a f5 04 96                                    |:...            |      [13]: "2001-05-06T08:00:22Z" (989136022) transition_time 0x60-0x63.7 (4)
0x060|            3b b6 c3 06                        |    ;...        |      [14]: "2001-09-30T07:00:22Z" (1001833222) transition_time 0x64-0x67.7 (4)
0x060|                        3c af fc 96            |        <...    |      [15]: "2002-04-07T08:00:22Z" (1018166422) transition_time 0x68-0x6b.7 (4)
0x060|                                    3d bb 8f 06|            =...|      [16]: "2002-10-27T07:00:22Z" (1035702022) transition_time 0x6c-0x6f.7 (4)
0x070|3e 8f de 96                                    |>...            |      [17]: "2003-04-06T08:00:22Z" (1049616022) transition_time 0x70-0x73.7 (4)
0x070|            3f 9b 71 06                        |    ?.q.        |      [18]: "2003-10-26T07:00:22Z" (1067151622) transition_time 0x74-0x77.7 (4)
0x070|                        40 6f c0 96            |        @o..    |      [19]: "2004-04-04T08:00:22Z" (1081065622) transition_time 0x78-0x7b.7 (4)
0x070|                                    41 84 8d 86|            A...|      [20]: "2004-10-31T07:00:22Z" (1099206022) transition_time 0x7c-0x7f.7 (4)
0x080|42 4f a2 96                                    |BO..            |      [21]: "2005-04-03T08:00:22Z" (1112515222) transition_time 0x80-0x83.7 (4)
0x080|            43 64 6f 86                        |    Cdo.        |      [22]: "2005-10-30T07:00:22Z" (1130655622) transition_time 0x84-0x87.7 (4)
0x080|                        44 2f 84 97            |        D/..    |      [23]: "2006-04-02T08:00:23Z" (1143964823) transition_time 0x88-0x8b.7 (4)
0x080|                                    45 44 51 87|            EDQ.|      [24]: "2006-10-29T07:00:23Z" (1162105223) transition_time 0x8c-0x8f.7 (4)
0x090|46 0f 66 97                                    |F.f.            |      [25]: "2007-04-01T08:00:23Z" (1175414423) transition_time 0x90-0x93.7 (4)
0x090|            47 24 33 87                        |    G$3.        |      [26]: "2007-10-28T07:00:23Z" (1193554823) transition_time 0x94-0x97.7 (4)
0x090|                        47 f8 83 17            |        G...    |      [27]: "2008-04-06T08:00:23Z" (1207468823) transition_time 0x98-0x9b.7 (4)
0x090|                                    49 04 15 87|            I...|      [28]: "2008-10-26T07:00:23Z" (1225004423) transition_time 0x9c-0x9f.7 (4)
0x0a0|49 d8 65 18                                    |I.e.            |      [29]: "2009-04-05T08:00:24Z" (1238918424) transition_time 0xa0-0xa3.7 (4)
0x0a0|            4a e3 f7 88                        |    J...        |      [30]: "2009-10-25T07:00:24Z" (1256454024) transition_time 0xa4-0xa7.7 (4)
0x0a0|                        4b b8 47 18            |        K.G.    |      [31]: "2010-04-04T08:00:24Z" (1270368024) transition_time 0xa8-0xab.7 (4)
0x0a0|                                    4c cd 14 08|            L...|      [32]: "2010-10-31T07:00:24Z" (1288508424) transition_time 0xac-0xaf.7 (4)
0x0b0|4d 98 29 18                                    |M.).            |      [33]: "2011-04-03T08:00:24Z" (1301817624) transition_time 0xb0-0xb3.7 (4)
0x0b0|            4e ac f6 08                        |    N...        |      [34]: "2011-10-30T07:00:24Z" (1319958024) transition_time 0xb4-0xb7.7 (4)
0x0b0|                        4f 78 0b 18            |        Ox..    |      [35]: "2012-04-01T08:00:24Z" (1333267224) transition_time 0xb8-0xbb.7 (4)
0x0b0|                                    50 8c d8 09|            P...|      [36]: "2012-10-28T07:00:25Z" (1351407625) transition_time 0xbc-0xbf.7 (4)
0x0c0|51 61 27 99                                    |Qa'.            |      [37]: "2013-04-07T08:00:25Z" (1365321625) transition_time 0xc0-0xc3.7 (4)
0x0c0|            52 6c ba 09                        |    Rl..        |      [38]: "2013-10-27T07:00:25Z" (1382857225) transition_time 0xc4-0xc7.7 (4)
0x0c0|                        53 41 09 99            |        SA..    |      [39]: "2014-04-06T08:00:25Z" (1396771225) transition_time 0xc8-0xcb.7 (4)
0x0c0|                                    54 4c 9c 09|            TL..|      [40]: "2014-10-26T07:00:25Z" (1414306825) transition_time 0xcc-0xcf.7 (4)
0x0d0|55 20 eb 99                                    |U ..            |      [41]: "2015-04-05T08:00:25Z" (1428220825) transition_time 0xd0-0xd3.7 (4)
0x0d0|            56 2c 7e 0a                        |    V,~.        |      [42]: "2015-10-25T07:00:26Z" (1445756426) transition_time 0xd4-0xd7.7 (4)
0x0d0|                        57 00 cd 9a            |        W...    |      [43]: "2016-04-03T08:00:26Z" (1459670426) transition_time 0xd8-0xdb.7 (4)
0x0d0|                                    58 15 9a 8a|            X...|      [44]: "2016-10-30T07:00:26Z" (1477810826) transition_time 0xdc-0xdf.7 (4)
0x0e0|58 e0 af 9b                                    |X...            |      [45]: "2017-04-02T08:00:27Z" (1491120027) transition_time 0xe0-0xe3.7 (4)
0x0e0|            59 f5 7c 8b                        |    Y.|.        |      [46]: "2017-10-29T07:00:27Z" (1509260427) transition_time 0xe4-0xe7.7 (4)
0x0e0|                        5a c0 91 9b            |        Z...    |      [47]: "2018-04-01T08:00:27Z" (1522569627) transition_time 0xe8-0xeb.7 (4)
0x0e0|                                    5b d5 5e 8b|            [.^.|      [48]: "2018-10-28T07:00:27Z" (1540710027) transition_time 0xec-0xef.7 (4)
0x0f0|5c a9 ae 1b                                    |\...            |      [49]: "2019-04-07T08:00:27Z" (1554624027) transition_time 0xf0-0xf3.7 (4)
0x0f0|            5d b5 40 8b                        |    ].@.        |      [50]: "2019-10-27T07:00:27Z" (1572159627) transition_time 0xf4-0xf7.7 (4)
0x0f0|                        5e 89 90 1b            |        ^...    |      [51]: "2020-04-05T08:00:27Z" (1586073627) transition_time 0xf8-0xfb.7 (4)
0x0f0|                                    5f 95 22 8b|            _.".|      [52]: "2020-10-25T07:00:27Z" (1603609227) transition_time 0xfc-0xff.7 (4)
0x100|60 69 72 1b                                    |`ir.            |      [53]: "2021-04-04T08:00:27Z" (1617523227) transition_time 0x100-0x103.7 (4)
0x100|            61 7e 3f 0b                        |    a~?.        |      [54]: "2021-10-31T07:00:27Z" (1635663627) transition_time 0x104-0x107.7 (4)
0x100|                        62 49 54 1b            |        bIT.    |      [55]: "2022-04-03T08:00:27Z" (1648972827) transition_time 0x108-0x10b.7 (4)
0x100|                                    63 5e 21 0b|            c^!.|      [56]: "2022-10-30T07:00:27Z" (1667113227) transition_time 0x10c-0x10f.7 (4)
0x110|64 9b 78 1b                                    |d.x.            |      [57]: "2023-06-28T00:00:27Z" (1687910427) transition_time 0x110-0x113.7 (4)
     |                                               |                |    transition_types[0:58]: 0x114-0x14d.7 (58)
0x110|            01                                 |    .           |      [0]: 1 transition_type 0x114-0x114.7 (1)
0x110|               02                              |     .          |      [1]: 2 transition_type 0x115-0x115.7 (1)
0x110|                  04                           |      .         |      [2]: 4 transition_type 0x116-0x116.7 (1)
0x110|                     03                        |       .        |      [3]: 3 transition_type 0x117-0x117.7 (1)
0x110|                        04                     |        .       |      [4]: 4 transition_type 0x118-0x118.7 (1)
0x110|                           03                  |         .      |      [5]: 3 transition_type 0x119-0x119.7 (1)
0x110|                              04               |          .     |      [6]: 4 transition_type 0x11a-0x11a.7 (1)
0x110|                                 03            |           .    |      [7]: 3 transition_type 0x11b-0x11b.7 (1)
0x110|                                    04         |            .   |      [8]: 4 transition_type 0x11c-0x11c.7 (1)
0x110|                                       03      |             .  |      [9]: 3 transition_type 0x11d-0x11d.7 (1)
0x110|                                          04   |              . |      [10]: 4 transition_type 0x11e-0x11e.7 (1)
0x110|                                             03|               .|      [11]: 3 transition_type 0x11f-0x11f.7 (1)
0x120|04                                             |.               |      [12]: 4 transition_type 0x120-0x120.7 (1)
0x120|   03                                          | .              |      [13]: 3 transition_type 0x121-0x121.7 (1)
0x120|      04                                       |  .             |      [14]: 4 transition_type 0x122-0x122.7 (1)
0x120|         03                                    |   .            |      [15]: 3 transition_type 0x123-0x123.7 (1)
0x120|            04                                 |    .           |      [16]: 4 transition_type 0x124-0x124.7 (1)
0x120|               03                              |     .          |      [17]: 3 transition_type 0x125-0x125.7 (1)
0x120|                  04                           |      .         |      [18]: 4 transition_type 0x126-0x126.7 (1)
0x120|                     03                        |       .        |      [19]: 3 transition_type 0x127-0x127.7 (1)
0x120|                        04                     |        .       |      [20]: 4 transition_type 0x128-0x128.7 (1)
0x120|                           03                  |         .      |      [21]: 3 transition_type 0x129-0x129.7 (1)
0x120|                              04               |          .     |      [22]: 4 transition_type 0x12a-0x12a.7 (1)
0x120|                                 03            |           .    |      [23]: 3 transition_type 0x12b-0x12b.7 (1)
0x120|                                    04         |            .   |      [24]: 4 transition_type 0x12c-0x12c.7 (1)
0x120|                                       03      |             .  |      [25]: 3 transition_type 0x12d-0x12d.7 (1)
0x120|                                          04   |              . |      [26]: 4 transition_type 0x12e-0x12e.7 (1)
0x120|                                             03|               .|      [27]: 3 transition_type 0x12f-0x12f.7 (1)
0x130|04                                             |.               |      [28]: 4 transition_type 0x130-0x130.7 (1)
0x130|   03                                          | .              |      [29]: 3 transition_type 0x131-0x131.7 (1)
0x130|      04                                       |  .             |      [30]: 4 transition_type 0x132-0x132.7 (1)
0x130|         03                                    |   .            |      [31]: 3 transition_type 0x133-0x133.7 (1)
0x130|            04                                 |    .           |      [32]: 4 transition_type 0x134-0x134.7 (1)
0x130|               03                              |     .          |      [33]: 3 transition_type 0x135-0x135.7 (1)
0x130|                  04                           |      .         |      [34]: 4 transition_type 0x136-0x136.7 (1)
0x130|                     03                        |       .        |      [35]: 3 transition_type 0x137-0x137.7 (1)
0x130|                        04                     |        .       |      [36]: 4 transition_type 0x138-0x138.7 (1)
0x130|                           03                  |         .      |      [37]: 3 transition_type 0x139-0x139.7 (1)
0x130|                              04               |          .     |      [38]: 4 transition_type 0x13a-0x13a.7 (1)
0x130|                                 03            |           .    |      [39]: 3 transition_type 0x13b-0x13b.7 (1)
0x130|                                    04         |            .   |      [40]: 4 transition_type 0x13c-0x13c.7 (1)
0x130|                                       03      |             .  |      [41]: 3 transition_type 0x13d-0x13d.7 (1)
0x130|                                          04   |              . |      [42]: 4 transition_type 0x13e-0x13e.7 (1)
0x130|                                             03|               .|      [43]: 3 transition_type 0x13f-0x13f.7 (1)
0x140|04                                             |.               |      [44]: 4 transition_type 0x140-0x140.7 (1)
0x140|   03                                          | .              |      [45]: 3 transition_type 0x141-0x141.7 (1)
0x140|      04                                       |  .             |      [46]: 4 transition_type 0x142-0x142.7 (1)
0x140|         03                                    |   .            |      [47]: 3 transition_type 0x143-0x143.7 (1)
0x140|            04                                 |    .           |      [48]: 4 transition_type 0x144-0x144.7 (1)
0x140|               03                              |     .          |      [49]: 3 transition_type 0x145-0x145.7 (1)
0x140|                  04                           |      .         |      [50]: 4 transition_type 0x146-0x146.7 (1)
0x140|                     03                        |       .        |      [51]: 3 transition_type 0x147-0x147.7 (1)
0x140|                        04                     |        .       |      [52]: 4 transition_type 0x148-0x148.7 (1)
0x140|                           03                  |         .      |      [53]: 3 transition_type 0x149-0x149.7 (1)
0x140|                              04               |          .     |      [54]: 4 transition_type 0x14a-0x14a.7 (1)
0x140|                                 03            |           .    |      [55]: 3 transition_type 0x14b-0x14b.7 (1)
0x140|                                    04         |            .   |      [56]: 4 transition_type 0x14c-0x14c.7 (1)
0x140|                                       04      |             .  |      [57]: 4 transition_type 0x14d-0x14d.7 (1)
     |                                               |                |    local_time_type_records[0:5]: 0x14e-0x16b.7 (30)
     |                                               |                |      [0]{}: local_time_type 0x14e-0x153.7 (6)
0x140|                                          ff ff|              ..|        utoff: -21508 (valid) 0x14e-0x151.7 (4)
0x150|ab fc                                          |..              |
0x150|      00                                       |  .             |        dst: 0 (valid) 0x152-0x152.7 (1)
0x150|         00                                    |   .            |        idx: 0 (valid) 0x153-0x153.7 (1)
     |                                               |                |      [1]{}: local_time_type 0x154-0x159.7 (6)
0x150|            ff ff ab a0                        |    ....        |        utoff: -21600 (valid) 0x154-0x157.7 (4)
0x150|                        00                     |        .       |        dst: 0 (valid) 0x158-0x158.7 (1)
0x150|                           04                  |         .      |        idx: 4 (valid) 0x159-0x159.7 (1)
     |                                               |                |      [2]{}: local_time_type 0x15a-0x15f.7 (6)
0x150|                              ff ff b9 b0      |          ....  |        utoff: -18000 (valid) 0x15a-0x15d.7 (4)
0x150|                                          00   |              . |        dst: 0 (valid) 0x15e-0x15e.7 (1)
0x150|                                             08|               .|        idx: 8 (valid) 0x15f-0x15f.7 (1)
     |                                               |                |      [3]{}: local_time_type 0x160-0x165.7 (6)
0x160|ff ff b9 b0                                    |....            |        utoff: -18000 (valid) 0x160-0x163.7 (4)
0x160|            01                                 |    .           |        dst: 1 (valid) 0x164-0x164.7 (1)
0x160|               0c                              |     .          |        idx: 12 (valid) 0x165-0x165.7 (1)
     |                                               |                |      [4]{}: local_time_type 0x166-0x16b.7 (6)
0x160|                  ff ff ab a0                  |      ....      |        utoff: -21600 (valid) 0x166-0x169.7 (4)
0x160|                              00               |          .     |        dst: 0 (valid) 0x16a-0x16a.7 (1)
0x160|                                 04            |           .    |        idx: 4 (valid) 0x16b-0x16b.7 (1)
     |                                               |                |    time_zone_designations[0:4]: 0x16c-0x17b.7 (16)
0x160|                                    4c 4d 54 00|            LMT.|      [0]: "LMT" time_zone_designation 0x16c-0x16f.7 (4)
0x170|43 53 54 00                                    |CST.            |      [1]: "CST" time_zone_designation 0x170-0x173.7 (4)
0x170|            45 53 54 00                        |    EST.        |      [2]: "EST" time_zone_designation 0x174-0x177.7 (4)
0x170|                        43 44 54 00            |        CDT.    |      [3]: "CDT" time_zone_designation 0x178-0x17b.7 (4)
     |                                               |                |    leap_second_records[0:27]: 0x17c-0x253.7 (216)
     |                                               |                |      [0]{}: leap_second_record 0x17c-0x183.7 (8)
0x170|                                    04 b2 58 00|            ..X.|        occur: "1972-07-01T00:00:00Z" (78796800) 0x17c-0x17f.7 (4)
0x180|00 00 00 01                                    |....            |        corr: 1 0x180-0x183.7 (4)
     |                                               |                |      [1]{}: leap_second_record 0x184-0x18b.7 (8)
0x180|            05 a4 ec 01                        |    ....        |        occur: "1973-01-01T00:00:01Z" (94694401) 0x184-0x187.7 (4)
0x180|                        00 00 00 02            |        ....    |        corr: 2 0x188-0x18b.7 (4)
     |                                               |                |      [2]{}: leap_second_record 0x18c-0x193.7 (8)
0x180|                                    07 86 1f 82|            ....|        occur: "1974-01-01T00:00:02Z" (126230402) 0x18c-0x18f.7 (4)
0x190|00 00 00 03                                    |....            |        corr: 3 0x190-0x193.7 (4)
     |                                               |                |      [3]{}: leap_second_record 0x194-0x19b.7 (8)
0x190|            09 67 53 03                        |    .gS.        |        occur: "1975-01-01T00:00:03Z" (157766403) 0x194-0x197.7 (4)
0x190|                        00 00 00 04            |        ....    |        corr: 4 0x198-0x19b.7 (4)
     |                                               |                |      [4]{}: leap_second_record 0x19c-0x1a3.7 (8)
0x190|                                    0b 48 86 84|            .H..|        occur: "1976-01-01T00:00:04Z" (189302404) 0x19c-0x19f.7 (4)
0x1a0|00 00 00 05                                    |....            |        corr: 5 0x1a0-0x1a3.7 (4)
     |                                               |                |      [5]{}: leap_second_record 0x1a4-0x1ab.7 (8)
0x1a0|            0d 2b 0b 85                        |    .+..        |        occur: "1977-01-01T00:00:05Z" (220924805) 0x1a4-0x1a7.7 (4)
0x1a0|                        00 00 00 06            |        ....    |        corr: 6 0x1a8-0x1ab.7 (4)
     |                                               |                |      [6]{}: leap_second_record 0x1ac-0x1b3.7 (8)
0x1a0|                                    0f 0c 3f 06|            ..?.|        occur: "1978-01-01T00:00:06Z" (252460806) 0x1ac-0x1af.7 (4)
0x1b0|00 00 00 07                                    |....            |        corr: 7 0x1b0-0x1b3.7 (4)
     |                                               |                |      [7]{}: leap_second_record 0x1b4-0x1bb.7 (8)
0x1b0|            10 ed 72 87                        |    ..r.        |        occur: "1979-01-01T00:00:07Z" (283996807) 0x1b4-0x1b7.7 (4)
0x1b0|                        00 00 00 08            |        ....    |        corr: 8 0x1b8-0x1bb.7 (4)
     |                                               |                |      [8]{}: leap_second_record 0x1bc-0x1c3.7 (8)
0x1b0|                                    12 ce a6 08|            ....|        occur: "1980-01-01T00:00:08Z" (315532808) 0x1bc-0x1bf.7 (4)
0x1c0|00 00 00 09                                    |....            |        corr: 9 0x1c0-0x1c3.7 (4)
     |                                               |                |      [9]{}: leap_second_record 0x1c4-0x1cb.7 (8)
0x1c0|            15 9f ca 89                        |    ....        |        occur: "1981-07-01T00:00:09Z" (362793609) 0x1c4-0x1c7.7 (4)
0x1c0|                        00 00 00 0a            |        ....    |        corr: 10 0x1c8-0x1cb.7 (4)
     |                                               |                |      [10]{}: leap_second_record 0x1cc-0x1d3.7 (8)
0x1c0|                                    17 80 fe 0a|            ....|        occur: "1982-07-01T00:00:10Z" (394329610) 0x1cc-0x1cf.7 (4)
0x1d0|00 00 00 0b                                    |....            |        corr: 11 0x1d0-0x1d3.7 (4)
     |                                               |                |      [11]{}: leap_second_record 0x1d4-0x1db.7 (8)
0x1d0|            19 62 31 8b                        |    .b1.        |        occur: "1983-07-01T00:00:11Z" (425865611) 0x1d4-0x1d7.7 (4)
0x1d0|                        00 00 00 0c            |        ....    |        corr: 12 0x1d8-0x1db.7 (4)
     |                                               |                |      [12]{}: leap_second_record 0x1dc-0x1e3.7 (8)
0x1d0|                                    1d 25 ea 0c|            .%..|        occur: "1985-07-01T00:00:12Z" (489024012) 0x1dc-0x1df.7 (4)
0x1e0|00 00 00 0d                                    |....            |        corr: 13 0x1e0-0x1e3.7 (4)
     |                                               |                |      [13]{}: leap_second_record 0x1e4-0x1eb.7 (8)
0x1e0|            21 da e5 0d                        |    !...        |        occur: "1988-01-01T00:00:13Z" (567993613) 0x1e4-0x1e7.7 (4)
0x1e0|                        00 00 00 0e            |        ....    |        corr: 14 0x1e8-0x1eb.7 (4)
     |                                               |                |      [14]{}: leap_second_record 0x1ec-0x1f3.7 (8)
0x1e0|                                    25 9e 9d 8e|            %...|        occur: "1990-01-01T00:00:14Z" (631152014) 0x1ec-0x1ef.7 (4)
0x1f0|00 00 00 0f                                    |....            |        corr: 15 0x1f0-0x1f3.7 (4)
     |                                               |                |      [15]{}: leap_second_record 0x1f4-0x1fb.7 (8)
0x1f0|            27 7f d1 0f                        |    '...        |        occur: "1991-01-01T00:00:15Z" (662688015) 0x1f4-0x1f7.7 (4)
0x1f0|                        00 00 00 10            |        ....    |        corr: 16 0x1f8-0x1fb.7 (4)
     |                                               |                |      [16]{}: leap_second_record 0x1fc-0x203.7 (8)
0x1f0|                                    2a 50 f5 90|            *P..|        occur: "1992-07-01T00:00:16Z" (709948816) 0x1fc-0x1ff.7 (4)
0x200|00 00 00 11                                    |....            |        corr: 17 0x200-0x203.7 (4)
     |                                               |                |      [17]{}: leap_second_record 0x204-0x20b.7 (8)
0x200|            2c 32 29 11                        |    ,2).        |        occur: "1993-07-01T00:00:17Z" (741484817) 0x204-0x207.7 (4)
0x200|                        00 00 00 12            |        ....    |        corr: 18 0x208-0x20b.7 (4)
     |                                               |                |      [18]{}: leap_second_record 0x20c-0x213.7 (8)
0x200|                                    2e 13 5c 92|            ..\.|        occur: "1994-07-01T00:00:18Z" (773020818) 0x20c-0x20f.7 (4)
0x210|00 00 00 13                                    |....            |        corr: 19 0x210-0x213.7 (4)
     |                                               |                |      [19]{}: leap_second_record 0x214-0x21b.7 (8)
0x210|            30 e7 24 13                        |    0.$.        |        occur: "1996-01-01T00:00:19Z" (820454419) 0x214-0x217.7 (4)
0x210|                        00 00 00 14            |        ....    |        corr: 20 0x218-0x21b.7 (4)
     |                                               |                |      [20]{}: leap_second_record 0x21c-0x223.7 (8)
0x210|                                    33 b8 48 94|            3.H.|        occur: "1997-07-01T00:00:20Z" (867715220) 0x21c-0x21f.7 (4)
0x220|00 00 00 15                                    |....            |        corr: 21 0x220-0x223.7 (4)
     |                                               |                |      [21]{}: leap_second_record 0x224-0x22b.7 (8)
0x220|            36 8c 10 15                        |    6...        |        occur: "1999-01-01T00:00:21Z" (915148821) 0x224-0x227.7 (4)
0x220|                        00 00 00 16            |        ....    |        corr: 22 0x228-0x22b.7 (4)
     |                                               |                |      [22]{}: leap_second_record 0x22c-0x233.7 (8)
0x220|                                    43 b7 1b 96|            C...|        occur: "2006-01-01T00:00:22Z" (1136073622) 0x22c-0x22f.7 (4)
0x230|00 00 00 17                                    |....            |        corr: 23 0x230-0x233.7 (4)
     |                                               |                |      [23]{}: leap_second_record 0x234-0x23b.7 (8)
0x230|            49 5c 07 97                        |    I\..        |        occur: "2009-01-01T00:00:23Z" (1230768023) 0x234-0x237.7 (4)
0x230|                        00 00 00 18            |        ....    |        corr: 24 0x238-0x23b.7 (4)
     |                                               |                |      [24]{}: leap_second_record 0x23c-0x243.7 (8)
0x230|                                    4f ef 93 18|            O...|        occur: "2012-07-01T00:00:24Z" (1341100824) 0x23c-0x23f.7 (4)
0x240|00 00 00 19                                    |....            |        corr: 25 0x240-0x243.7 (4)
     |                                               |                |      [25]{}: leap_second_record 0x244-0x24b.7 (8)
0x240|            55 93 2d 99                        |    U.-.        |        occur: "2015-07-01T00:00:25Z" (1435708825) 0x244-0x247.7 (4)
0x240|                        00 00 00 1a            |        ....    |        corr: 26 0x248-0x24b.7 (4)
     |                                               |                |      [26]{}: leap_second_record 0x24c-0x253.7 (8)
0x240|                                    58 68 46 9a|            XhF.|        occur: "2017-01-01T00:00:26Z" (1483228826) 0x24c-0x24f.7 (4)
0x250|00 00 00 1b                                    |....            |        corr: 27 0x250-0x253.7 (4)
     |                                               |                |    standard_wall_indicators[0:5]: 0x254-0x258.7 (5)
0x250|            00                                 |    .           |      [0]: 0 standard_wall_indicator (valid) 0x254-0x254.7 (1)
0x250|               01                              |     .          |      [1]: 1 standard_wall_indicator (valid) 0x255-0x255.7 (1)
0x250|                  00                           |      .         |      [2]: 0 standard_wall_indicator (valid) 0x256-0x256.7 (1)
0x250|                     00                        |       .        |      [3]: 0 standard_wall_indicator (valid) 0x257-0x257.7 (1)
0x250|                        00                     |        .       |      [4]: 0 standard_wall_indicator (valid) 0x258-0x258.7 (1)
     |                                               |                |    ut_local_indicators[0:5]: 0x259-0x25d.7 (5)
0x250|                           00                  |         .      |      [0]: 0 ut_local_indicator (valid) 0x259-0x259.7 (1)
0x250|                              01               |          .     |      [1]: 1 ut_local_indicator (valid) 0x25a-0x25a.7 (1)
0x250|                                 00            |           .    |      [2]: 0 ut_local_indicator (valid) 0x25b-0x25b.7 (1)
0x250|                                    00         |            .   |      [3]: 0 ut_local_indicator (valid) 0x25c-0x25c.7 (1)
0x250|                                       00      |             .  |      [4]: 0 ut_local_indicator (valid) 0x25d-0x25d.7 (1)
     |                                               |                |  v2plusheader{}: 0x25e-0x289.7 (44)
0x250|                                          54 5a|              TZ|    magic: 0x545a6966 (valid) 0x25e-0x261.7 (4)
0x260|69 66                                          |if              |
0x260|      32                                       |  2             |    ver: "2" (0x32) (valid) 0x262-0x262.7 (1)
0x260|         00 00 00 00 00 00 00 00 00 00 00 00 00|   .............|    reserved: raw bits 0x263-0x271.7 (15)
0x270|00 00                                          |..              |
0x270|      00 00 00 05                              |  ....          |    isutcnt: 5 0x272-0x275.7 (4)
0x270|                  00 00 00 05                  |      ....      |    isstdcnt: 5 0x276-0x279.7 (4)
0x270|                              00 00 00 1b      |          ....  |    leapcnt: 27 0x27a-0x27d.7 (4)
0x270|                                          00 00|              ..|    timecnt: 58 0x27e-0x281.7 (4)
0x280|00 3a                                          |.:              |
0x280|      00 00 00 05                              |  ....          |    typecnt: 5 0x282-0x285.7 (4)
0x280|                  00 00 00 10                  |      ....      |    charcnt: 16 0x286-0x289.7 (4)
     |                                               |                |  v2plusdatablock{}: 0x28a-0x60f.7 (902)
     |                                               |                |    transition_times[0:58]: 0x28a-0x459.7 (464)
0x280|                              ff ff ff ff a5 b6|          ......|      [0]: "1922-01-01T06:00:00Z" (-1514743200) transition_time 0x28a-0x291.7 (8)
0x290|da 60                                          |.`              |
0x290|      00 00 00 00 16 86 d5 6a                  |  .......j      |      [1]: "1981-12-23T06:00:10Z" (377935210) transition_time 0x292-0x299.7 (8)
0x290|                              00 00 00 00 18 4c|          .....L|      [2]: "1982-12-02T05:00:11Z" (407653211) transition_time 0x29a-0x2a1.7 (8)
0x2a0|4b 5b                                          |K[              |
0x2a0|      00 00 00 00 31 67 76 14                  |  ....1gv.      |      [3]: "1996-04-07T08:00:20Z" (828864020) transition_time 0x2a2-0x2a9.7 (8)
0x2a0|                              00 00 00 00 32 73|          ....2s|      [4]: "1996-10-27T07:00:20Z" (846399620) transition_time 0x2aa-0x2b1.7 (8)
0x2b0|08 84                                          |..              |
0x2b0|      00 00 00 00 33 47 58 14                  |  ....3GX.      |      [5]: "1997-04-06T08:00:20Z" (860313620) transition_time 0x2b2-0x2b9.7 (8)
0x2b0|                              00 00 00 00 34 52|          ....4R|      [6]: "1997-10-26T07:00:21Z" (877849221) transition_time 0x2ba-0x2c1.7 (8)
0x2c0|ea 85                                          |..              |
0x2c0|      00 00 00 00 35 27 3a 15                  |  ....5':.      |      [7]: "1998-04-05T08:00:21Z" (891763221) transition_time 0x2c2-0x2c9.7 (8)
0x2c0|                              00 00 00 00 36 32|          ....62|      [8]: "1998-10-25T07:00:21Z" (909298821) transition_time 0x2ca-0x2d1.7 (8)
0x2d0|cc 85                                          |..              |
0x2d0|      00 00 00 00 37 07 1c 16                  |  ....7...      |      [9]: "1999-04-04T08:00:22Z" (923212822) transition_time 0x2d2-0x2d9.7 (8)
0x2d0|                              00 00 00 00 38 1b|          ....8.|      [10]: "1999-10-31T07:00:22Z" (941353222) transition_time 0x2da-0x2e1.7 (8)
0x2e0|e9 06                                          |..              |
0x2e0|      00 00 00 00 38 e6 fe 16                  |  ....8...      |      [11]: "2000-04-02T08:00:22Z" (954662422) transition_time 0x2e2-0x2e9.7 (8)
0x2e0|                              00 00 00 00 39 fb|          ....9.|      [12]: "2000-10-29T07:00:22Z" (972802822) transition_time 0x2ea-0x2f1.7 (8)
0x2f0|cb 06                                          |..              |
0x2f0|      00 00 00 00 3a f5 04 96                  |  ....:...      |      [13]: "2001-05-06T08:00:22Z" (989136022) transition_time 0x2f2-0x2f9.7 (8)
0x2f0|                              00 00 00 00 3b b6|          ....;.|      [14]: "2001-09-30T07:00:22Z" (1001833222) transition_time 0x2fa-0x301.7 (8)
0x300|c3 06                                          |..              |
0x300|      00 00 00 00 3c af fc 96                  |  ....<...      |      [15]: "2002-04-07T08:00:22Z" (1018166422) transition_time 0x302-0x309.7 (8)
0x300|                              00 00 00 00 3d bb|          ....=.|      [16]: "2002-10-27T07:00:22Z" (1035702022) transition_time 0x30a-0x311.7 (8)
0x310|8f 06                                          |..              |
0x310|      00 00 00 00 3e 8f de 96                  |  ....>...      |      [17]: "2003-04-06T08:00:22Z" (1049616022) transition_time 0x312-0x319.7 (8)
0x310|                              00 00 00 00 3f 9b|          ....?.|      [18]: "2003-10-26T07:00:22Z" (1067151622) transition_time 0x31a-0x321.7 (8)
0x320|71 06                                          |q.              |
0x320|      00 00 00 00 40 6f c0 96                  |  ....@o..      |      [19]: "2004-04-04T08:00:22Z" (1081065622) transition_time 0x322-0x329.7 (8)
0x320|                              00 00 00 00 41 84|          ....A.|      [20]: "2004-10-31T07:00:22Z" (1099206022) transition_time 0x32a-0x331.7 (8)
0x330|8d 86                                          |..              |
0x330|      00 00 00 00 42 4f a2 96                  |  ....BO..      |      [21]: "2005-04-03T08:00:22Z" (1112515222) transition_time 0x332-0x339.7 (8)
0x330|                              00 00 00 00 43 64|          ....Cd|      [22]: "2005-10-30T07:00:22Z" (1130655622) transition_time 0x33a-0x341.7 (8)
0x340|6f 86                                          |o.              |
0x340|      00 00 00 00 44 2f 84 97                  |  ....D/..      |      [23]: "2006-04-02T08:00:23Z" (1143964823) transition_time 0x342-0x349.7 (8)
0x340|                              00 00 00 00 45 44|          ....ED|      [24]: "2006-10-29T07:00:23Z" (1162105223) transition_time 0x34a-0x351.7 (8)
0x350|51 87                                          |Q.              |
0x350|      00 00 00 00 46 0f 66 97                  |  ....F.f.      |      [25]: "2007-04-01T08:00:23Z" (1175414423) transition_time 0x352-0x359.7 (8)
0x350|                              00 00 00 00 47 24|          ....G$|      [26]: "2007-10-28T07:00:23Z" (1193554823) transition_time 0x35a-0x361.7 (8)
0x360|33 87                                          |3.              |
0x360|      00 00 00 00 47 f8 83 17                  |  ....G...      |      [27]: "2008-04-06T08:00:23Z" (1207468823) transition_time 0x362-0x369.7 (8)
0x360|                              00 00 00 00 49 04|          ....I.|      [28]: "2008-10-26T07:00:23Z" (1225004423) transition_time 0x36a-0x371.7 (8)
0x370|15 87                                          |..              |
0x370|      00 00 00 00 49 d8 65 18                  |  ....I.e.      |      [29]: "2009-04-05T08:00:24Z" (1238918424) transition_time 0x372-0x379.7 (8)
0x370|                              00 00 00 00 4a e3|          ....J.|      [30]: "2009-10-25T07:00:24Z" (1256454024) transition_time 0x37a-0x381.7 (8)
0x380|f7 88                                          |..              |
0x380|      00 00 00 00 4b b8 47 18                  |  ....K.G.      |      [31]: "2010-04-04T08:00:24Z" (1270368024) transition_time 0x382-0x389.7 (8)
0x380|                              00 00 00 00 4c cd|          ....L.|      [32]: "2010-10-31T07:00:24Z" (1288508424) transition_time 0x38a-0x391.7 (8)
0x390|14 08                                          |..              |
0x390|      00 00 00 00 4d 98 29 18                  |  ....M.).      |      [33]: "2011-04-03T08:00:24Z" (1301817624) transition_time 0x392-0x399.7 (8)
0x390|                              00 00 00 00 4e ac|          ....N.|      [34]: "2011-10-30T07:00:24Z" (1319958024) transition_time 0x39a-0x3a1.7 (8)
0x3a0|f6 08                                          |..              |
0x3a0|      00 00 00 00 4f 78 0b 18                  |  ....Ox..      |      [35]: "2012-04-01T08:00:24Z" (1333267224) transition_time 0x3a2-0x3a9.7 (8)
0x3a0|                              00 00 00 00 50 8c|          ....P.|      [36]: "2012-10-28T07:00:25Z" (1351407625) transition_time 0x3aa-0x3b1.7 (8)
0x3b0|d8 09                                          |..              |
0x3b0|      00 00 00 00 51 61 27 99                  |  ....Qa'.      |      [37]: "2013-04-07T08:00:25Z" (1365321625) transition_time 0x3b2-0x3b9.7 (8)
0x3b0|                              00 00 00 00 52 6c|          ....Rl|      [38]: "2013-10-27T07:00:25Z" (1382857225) transition_time 0x3ba-0x3c1.7 (8)
0x3c0|ba 09                                          |..              |
0x3c0|      00 00 00 00 53 41 09 99                  |  ....SA..      |      [39]: "2014-04-06T08:00:25Z" (1396771225) transition_time 0x3c2-0x3c9.7 (8)
0x3c0|                              00 00 00 00 54 4c|          ....TL|      [40]: "2014-10-26T07:00:25Z" (1414306825) transition_time 0x3ca-0x3d1.7 (8)
0x3d0|9c 09                                          |..              |
0x3d0|      00 00 00 00 55 20 eb 99                  |  ....U ..      |      [41]: "2015-04-05T08:00:25Z" (1428220825) transition_time 0x3d2-0x3d9.7 (8)
0x3d0|                              00 00 00 00 56 2c|          ....V,|      [42]: "2015-10-25T07:00:26Z" (1445756426) transition_time 0x3da-0x3e1.7 (8)
0x3e0|7e 0a                                          |~.              |
0x3e0|      00 00 00 00 57 00 cd 9a                  |  ....W...      |      [43]: "2016-04-03T08:00:26Z" (1459670426) transition_time 0x3e2-0x3e9.7 (8)
0x3e0|                              00 00 00 00 58 15|          ....X.|      [44]: "2016-10-30T07:00:26Z" (1477810826) transition_time 0x3ea-0x3f1.7 (8)
0x3f0|9a 8a                                          |..              |
0x3f0|      00 00 00 00 58 e0 af 9b                  |  ....X...      |      [45]: "2017-04-02T08:00:27Z" (1491120027) transition_time 0x3f2-0x3f9.7 (8)
0x3f0|                              00 00 00 00 59 f5|          ....Y.|      [46]: "2017-10-29T07:00:27Z" (1509260427) transition_time 0x3fa-0x401.7 (8)
0x400|7c 8b                                          ||.              |
0x400|      00 00 00 00 5a c0 91 9b                  |  ....Z...      |      [47]: "2018-04-01T08:00:27Z" (1522569627) transition_time 0x402-0x409.7 (8)
0x400|                              00 00 00 00 5b d5|          ....[.|      [48]: "2018-10-28T07:00:27Z" (1540710027) transition_time 0x40a-0x411.7 (8)
0x410|5e 8b                                          |^.              |
0x410|      00 00 00 00 5c a9 ae 1b                  |  ....\...      |      [49]: "2019-04-07T08:00:27Z" (1554624027) transition_time 0x412-0x419.7 (8)
0x410|                              00 00 00 00 5d b5|          ....].|      [50]: "2019-10-27T07:00:27Z" (1572159627) transition_time 0x41a-0x421.7 (8)
0x420|40 8b                                          |@.              |
0x420|      00 00 00 00 5e 89 90 1b                  |  ....^...      |      [51]: "2020-04-05T08:00:27Z" (1586073627) transition_time 0x422-0x429.7 (8)
0x420|                              00 00 00 00 5f 95|          ...._.|      [52]: "2020-10-25T07:00:27Z" (1603609227) transition_time 0x42a-0x431.7 (8)
0x430|22 8b                                          |".              |
0x430|      00 00 00 00 60 69 72 1b                  |  ....`ir.      |      [53]: "2021-04-04T08:00:27Z" (1617523227) transition_time 0x432-0x439.7 (8)
0x430|                              00 00 00 00 61 7e|          ....a~|      [54]: "2021-10-31T07:00:27Z" (1635663627) transition_time 0x43a-0x441.7 (8)
0x440|3f 0b                                          |?.              |
0x440|      00 00 00 00 62 49 54 1b                  |  ....bIT.      |      [55]: "2022-04-03T08:00:27Z" (1648972827) transition_time 0x442-0x449.7 (8)
0x440|                              00 00 00 00 63 5e|          ....c^|      [56]: "2022-10-30T07:00:27Z" (1667113227) transition_time 0x44a-0x451.7 (8)
0x450|21 0b                                          |!.              |
0x450|      00 00 00 00 64 9b 78 1b                  |  ....d.x.      |      [57]: "2023-06-28T00:00:27Z" (1687910427) transition_time 0x452-0x459.7 (8)
     |                                               |                |    transition_types[0:58]: 0x45a-0x493.7 (58)
0x450|                              01               |          .     |      [0]: 1 transition_type 0x45a-0x45a.7 (1)
0x450|                                 02            |           .    |      [1]: 2 transition_type 0x45b-0x45b.7 (1)
0x450|                                    04         |            .   |      [2]: 4 transition_type 0x45c-0x45c.7 (1)
0x450|                                       03      |             .  |      [3]: 3 transition_type 0x45d-0x45d.7 (1)
0x450|                                          04   |              . |      [4]: 4 transition_type 0x45e-0x45e.7 (1)
0x450|                                             03|               .|      [5]: 3 transition_type 0x45f-0x45f.7 (1)
0x460|04                                             |.               |      [6]: 4 transition_type 0x460-0x460.7 (1)
0x460|   03                                          | .              |      [7]: 3 transition_type 0x461-0x461.7 (1)
0x460|      04                                       |  .             |      [8]: 4 transition_type 0x462-0x462.7 (1)
0x460|         03                                    |   .            |      [9]: 3 transition_type 0x463-0x463.7 (1)
0x460|            04                                 |    .           |      [10]: 4 transition_type 0x464-0x464.7 (1)
0x460|               03                              |     .          |      [11]: 3 transition_type 0x465-0x465.7 (1)
0x460|                  04                           |      .         |      [12]: 4 transition_type 0x466-0x466.7 (1)
0x460|                     03                        |       .        |      [13]: 3 transition_type 0x467-0x467.7 (1)
0x460|                        04                     |        .       |      [14]: 4 transition_type 0x468-0x468.7 (1)
0x460|                           03                  |         .      |      [15]: 3 transition_type 0x469-0x469.7 (1)
0x460|                              04               |          .     |      [16]: 4 transition_type 0x46a-0x46a.7 (1)
0x460|                                 03            |           .    |      [17]: 3 transition_type 0x46b-0x46b.7 (1)
0x460|                                    04         |            .   |      [18]: 4 transition_type 0x46c-0x46c.7 (1)
0x460|                                       03      |             .  |      [19]: 3 transition_type 0x46d-0x46d.7 (1)
0x460|                                          04   |              . |      [20]: 4 transition_type 0x46e-0x46e.7 (1)
0x460|                                             03|               .|      [21]: 3 transition_type 0x46f-0x46f.7 (1)
0x470|04                                             |.               |      [22]: 4 transition_type 0x470-0x470.7 (1)
0x470|   03                                          | .              |      [23]: 3 transition_type 0x471-0x471.7 (1)
0x470|      04                                       |  .             |      [24]: 4 transition_type 0x472-0x472.7 (1)
0x470|         03                                    |   .            |      [25]: 3 transition_type 0x473-0x473.7 (1)
0x470|            04                                 |    .           |      [26]: 4 transition_type 0x474-0x474.7 (1)
0x470|               03                              |     .          |      [27]: 3 transition_type 0x475-0x475.7 (1)
0x470|                  04                           |      .         |      [28]: 4 transition_type 0x476-0x476.7 (1)
0x470|                     03                        |       .        |      [29]: 3 transition_type 0x477-0x477.7 (1)
0x470|                        04                     |        .       |      [30]: 4 transition_type 0x478-0x478.7 (1)
0x470|                           03                  |         .      |      [31]: 3 transition_type 0x479-0x479.7 (1)
0x470|                              04               |          .     |      [32]: 4 transition_type 0x47a-0x47a.7 (1)
0x470|                                 03            |           .    |      [33]: 3 transition_type 0x47b-0x47b.7 (1)
0x470|                                    04         |            .   |      [34]: 4 transition_type 0x47c-0x47c.7 (1)
0x470|                                       03      |             .  |      [35]: 3 transition_type 0x47d-0x47d.7 (1)
0x470|                                          04   |              . |      [36]: 4 transition_type 0x47e-0x47e.7 (1)
0x470|                                             03|               .|      [37]: 3 transition_type 0x47f-0x47f.7 (1)
0x480|04                                             |.               |      [38]: 4 transition_type 0x480-0x480.7 (1)
0x480|   03                                          | .              |      [39]: 3 transition_type 0x481-0x481.7 (1)
0x480|      04                                       |  .             |      [40]: 4 transition_type 0x482-0x482.7 (1)
0x480|         03                                    |   .            |      [41]: 3 transition_type 0x483-0x483.7 (1)
0x480|            04                                 |    .           |      [42]: 4 transition_type 0x484-0x484.7 (1)
0x480|               03                              |     .          |      [43]: 3 transition_type 0x485-0x485.7 (1)
0x480|                  04                           |      .         |      [44]: 4 transition_type 0x486-0x486.7 (1)
0x480|                     03                        |       .        |      [45]: 3 transition_type 0x487-0x487.7 (1)
0x480|                        04                     |        .       |      [46]: 4 transition_type 0x488-0x488.7 (1)
0x480|                           03                  |         .      |      [47]: 3 transition_type 0x489-0x489.7 (1)
0x480|                              04               |          .     |      [48]: 4 transition_type 0x48a-0x48a.7 (1)
0x480|                                 03            |           .    |      [49]: 3 transition_type 0x48b-0x48b.7 (1)
0x480|                                    04         |            .   |      [50]: 4 transition_type 0x48c-0x48c.7 (1)
0x480|                                       03      |             .  |      [51]: 3 transition_type 0x48d-0x48d.7 (1)
0x480|                                          04   |              . |      [52]: 4 transition_type 0x48e-0x48e.7 (1)
0x480|                                             03|               .|      [53]: 3 transition_type 0x48f-0x48f.7 (1)
0x490|04                                             |.               |      [54]: 4 transition_type 0x490-0x490.7 (1)
0x490|   03                                          | .              |      [55]: 3 transition_type 0x491-0x491.7 (1)
0x490|      04                                       |  .             |      [56]: 4 transition_type 0x492-0x492.7 (1)
0x490|         04                                    |   .            |      [57]: 4 transition_type 0x493-0x493.7 (1)
     |                                               |                |    local_time_type_records[0:5]: 0x494-0x4b1.7 (30)
     |                                               |                |      [0]{}: local_time_type 0x494-0x499.7 (6)
0x490|            ff ff ab fc                        |    ....        |        utoff: -21508 (valid) 0x494-0x497.7 (4)
0x490|                        00                     |        .       |        dst: 0 (valid) 0x498-0x498.7 (1)
0x490|                           00                  |         .      |        idx: 0 (valid) 0x499-0x499.7 (1)
     |                                               |                |      [1]{}: local_time_type 0x49a-0x49f.7 (6)
0x490|                              ff ff ab a0      |          ....  |        utoff: -21600 (valid) 0x49a-0x49d.7 (4)
0x490|                                          00   |              . |        dst: 0 (valid) 0x49e-0x49e.7 (1)
0x490|                                             04|               .|        idx: 4 (valid) 0x49f-0x49f.7 (1)
     |                                               |                |      [2]{}: local_time_type 0x4a0-0x4a5.7 (6)
0x4a0|ff ff b9 b0                                    |....            |        utoff: -18000 (valid) 0x4a0-0x4a3.7 (4)
0x4a0|            00                                 |    .           |        dst: 0 (valid) 0x4a4-0x4a4.7 (1)
0x4a0|               08                              |     .          |        idx: 8 (valid) 0x4a5-0x4a5.7 (1)
     |                                               |                |      [3]{}: local_time_type 0x4a6-0x4ab.7 (6)
0x4a0|                  ff ff b9 b0                  |      ....      |        utoff: -18000 (valid) 0x4a6-0x4a9.7 (4)
0x4a0|                              01               |          .     |        dst: 1 (valid) 0x4aa-0x4aa.7 (1)
0x4a0|                                 0c            |           .    |        idx: 12 (valid) 0x4ab-0x4ab.7 (1)
     |                                               |                |      [4]{}: local_time_type 0x4ac-0x4b1.7 (6)
0x4a0|                                    ff ff ab a0|            ....|        utoff: -21600 (valid) 0x4ac-0x4af.7 (4)
0x4b0|00                                             |.               |        dst: 0 (valid) 0x4b0-0x4b0.7 (1)
0x4b0|   04                                          | .              |        idx: 4 (valid) 0x4b1-0x4b1.7 (1)
     |                                               |                |    time_zone_designations[0:4]: 0x4b2-0x4c1.7 (16)
0x4b0|      4c 4d 54 00                              |  LMT.          |      [0]: "LMT" time_zone_designation 0x4b2-0x4b5.7 (4)
0x4b0|                  43 53 54 00                  |      CST.      |      [1]: "CST" time_zone_designation 0x4b6-0x4b9.7 (4)
0x4b0|                              45 53 54 00      |          EST.  |      [2]: "EST" time_zone_designation 0x4ba-0x4bd.7 (4)
0x4b0|                                          43 44|              CD|      [3]: "CDT" time_zone_designation 0x4be-0x4c1.7 (4)
0x4c0|54 00                                          |T.              |
     |                                               |                |    leap_second_records[0:27]: 0x4c2-0x605.7 (324)
     |                                               |                |      [0]{}: leap_second_record 0x4c2-0x4cd.7 (12)
0x4c0|      00 00 00 00 04 b2 58 00                  |  ......X.      |        occur: "1972-07-01T00:00:00Z" (78796800) 0x4c2-0x4c9.7 (8)
0x4c0|                              00 00 00 01      |          ....  |        corr: 1 0x4ca-0x4cd.7 (4)
     |                                               |                |      [1]{}: leap_second_record 0x4ce-0x4d9.7 (12)
0x4c0|                                          00 00|              ..|        occur: "1973-01-01T00:00:01Z" (94694401) 0x4ce-0x4d5.7 (8)
0x4d0|00 00 05 a4 ec 01                              |......          |
0x4d0|                  00 00 00 02                  |      ....      |        corr: 2 0x4d6-0x4d9.7 (4)
     |                                               |                |      [2]{}: leap_second_record 0x4da-0x4e5.7 (12)
0x4d0|                              00 00 00 00 07 86|          ......|        occur: "1974-01-01T00:00:02Z" (126230402) 0x4da-0x4e1.7 (8)
0x4e0|1f 82                                          |..              |
0x4e0|      00 00 00 03                              |  ....          |        corr: 3 0x4e2-0x4e5.7 (4)
     |                                               |                |      [3]{}: leap_second_record 0x4e6-0x4f1.7 (12)
0x4e0|                  00 00 00 00 09 67 53 03      |      .....gS.  |        occur: "1975-01-01T00:00:03Z" (157766403) 0x4e6-0x4ed.7 (8)
0x4e0|                                          00 00|              ..|        corr: 4 0x4ee-0x4f1.7 (4)
0x4f0|00 04                                          |..              |
     |                                               |                |      [4]{}: leap_second_record 0x4f2-0x4fd.7 (12)
0x4f0|      00 00 00 00 0b 48 86 84                  |  .....H..      |        occur: "1976-01-01T00:00:04Z" (189302404) 0x4f2-0x4f9.7 (8)
0x4f0|                              00 00 00 05      |          ....  |        corr: 5 0x4fa-0x4fd.7 (4)
     |                                               |                |      [5]{}: leap_second_record 0x4fe-0x509.7 (12)
0x4f0|                                          00 00|              ..|        occur: "1977-01-01T00:00:05Z" (220924805) 0x4fe-0x505.7 (8)
0x500|00 00 0d 2b 0b 85                              |...+..          |
0x500|                  00 00 00 06                  |      ....      |        corr: 6 0x506-0x509.7 (4)
     |                                               |                |      [6]{}: leap_second_record 0x50a-0x515.7 (12)
0x500|                              00 00 00 00 0f 0c|          ......|        occur: "1978-01-01T00:00:06Z" (252460806) 0x50a-0x511.7 (8)
0x510|3f 06                                          |?.              |
0x510|      00 00 00 07                              |  ....          |        corr: 7 0x512-0x515.7 (4)
     |                                               |                |      [7]{}: leap_second_record 0x516-0x521.7 (12)
0x510|                  00 00 00 00 10 ed 72 87      |      ......r.  |        occur: "1979-01-01T00:00:07Z" (283996807) 0x516-0x51d.7 (8)
0x510|                                          00 00|              ..|        corr: 8 0x51e-0x521.7 (4)
0x520|00 08                                          |..              |
     |                                               |                |      [8]{}: leap_second_record 0x522-0x52d.7 (12)
0x520|      00 00 00 00 12 ce a6 08                  |  ........      |        occur: "1980-01-01T00:00:08Z" (315532808) 0x522-0x529.7 (8)
0x520|                              00 00 00 09      |          ....  |        corr: 9 0x52a-0x52d.7 (4)
     |                                               |                |      [9]{}: leap_second_record 0x52e-0x539.7 (12)
0x520|                                          00 00|              ..|        occur: "1981-07-01T00:00:09Z" (362793609) 0x52e-0x535.7 (8)
0x530|00 00 15 9f ca 89                              |......          |
0x530|                  00 00 00 0a                  |      ....      |        corr: 10 0x536-0x539.7 (4)
     |                                               |                |      [10]{}: leap_second_record 0x53a-0x545.7 (12)
0x530|                              00 00 00 00 17 80|          ......|        occur: "1982-07-01T00:00:10Z" (394329610) 0x53a-0x541.7 (8)
0x540|fe 0a                                          |..              |
0x540|      00 00 00 0b                              |  ....          |        corr: 11 0x542-0x545.7 (4)
     |                                               |                |      [11]{}: leap_second_record 0x546-0x551.7 (12)
0x540|                  00 00 00 00 19 62 31 8b      |      .....b1.  |        occur: "1983-07-01T00:00:11Z" (425865611) 0x546-0x54d.7 (8)
0x540|                                          00 00|              ..|        corr: 12 0x54e-0x551.7 (4)
0x550|00 0c                                          |..              |
     |                                               |                |      [12]{}: leap_second_record 0x552-0x55d.7 (12)
0x550|      00 00 00 00 1d 25 ea 0c                  |  .....%..      |        occur: "1985-07-01T00:00:12Z" (489024012) 0x552-0x559.7 (8)
0x550|                              00 00 00 0d      |          ....  |        corr: 13 0x55a-0x55d.7 (4)
     |                                               |                |      [13]{}: leap_second_record 0x55e-0x569.7 (12)
0x550|                                          00 00|              ..|        occur: "1988-01-01T00:00:13Z" (567993613) 0x55e-0x565.7 (8)
0x560|00 00 21 da e5 0d                              |..!...          |
0x560|                  00 00 00 0e                  |      ....      |        corr: 14 0x566-0x569.7 (4)
     |                                               |                |      [14]{}: leap_second_record 0x56a-0x575.7 (12)
0x560|                              00 00 00 00 25 9e|          ....%.|        occur: "1990-01-01T00:00:14Z" (631152014) 0x56a-0x571.7 (8)
0x570|9d 8e                                          |..              |
0x570|      00 00 00 0f                              |  ....          |        corr: 15 0x572-0x575.7 (4)
     |                                               |                |      [15]{}: leap_second_record 0x576-0x581.7 (12)
0x570|                  00 00 00 00 27 7f d1 0f      |      ....'...  |        occur: "1991-01-01T00:00:15Z" (662688015) 0x576-0x57d.7 (8)
0x570|                                          00 00|              ..|        corr: 16 0x57e-0x581.7 (4)
0x580|00 10                                          |..              |
     |                                               |                |      [16]{}: leap_second_record 0x582-0x58d.7 (12)
0x580|      00 00 00 00 2a 50 f5 90                  |  ....*P..      |        occur: "1992-07-01T00:00:16Z" (709948816) 0x582-0x589.7 (8)
0x580|                              00 00 00 11      |          ....  |        corr: 17 0x58a-0x58d.7 (4)
     |                                               |                |      [17]{}: leap_second_record 0x58e-0x599.7 (12)
0x580|                                          00 00|              ..|        occur: "1993-07-01T00:00:17Z" (741484817) 0x58e-0x595.7 (8)
0x590|00 00 2c 32 29 11                              |..,2).          |
0x590|                  00 00 00 12                  |      ....      |        corr: 18 0x596-0x599.7 (4)
     |                                               |                |      [18]{}: leap_second_record 0x59a-0x5a5.7 (12)
0x590|                              00 00 00 00 2e 13|          ......|        occur: "1994-07-01T00:00:18Z" (773020818) 0x59a-0x5a1.7 (8)
0x5a0|5c 92                                          |\.              |
0x5a0|      00 00 00 13                              |  ....          |        corr: 19 0x5a2-0x5a5.7 (4)
     |                                               |                |      [19]{}: leap_second_record 0x5a6-0x5b1.7 (12)
0x5a0|                  00 00 00 00 30 e7 24 13      |      ....0.$.  |        occur: "1996-01-01T00:00:19Z" (820454419) 0x5a6-0x5ad.7 (8)
0x5a0|                                          00 00|              ..|        corr: 20 0x5ae-0x5b1.7 (4)
0x5b0|00 14                                          |..              |
     |                                               |                |      [20]{}: leap_second_record 0x5b2-0x5bd.7 (12)
0x5b0|      00 00 00 00 33 b8 48 94                  |  ....3.H.      |        occur: "1997-07-01T00:00:20Z" (867715220) 0x5b2-0x5b9.7 (8)
0x5b0|                              00 00 00 15      |          ....  |        corr: 21 0x5ba-0x5bd.7 (4)
     |                                               |                |      [21]{}: leap_second_record 0x5be-0x5c9.7 (12)
0x5b0|                                          00 00|              ..|        occur: "1999-01-01T00:00:21Z" (915148821) 0x5be-0x5c5.7 (8)
0x5c0|00 00 36 8c 10 15                              |..6...          |
0x5c0|                  00 00 00 16                  |      ....      |        corr: 22 0x5c6-0x5c9.7 (4)
     |                                               |                |      [22]{}: leap_second_record 0x5ca-0x5d5.7 (12)
0x5c0|                              00 00 00 00 43 b7|          ....C.|        occur: "2006-01-01T00:00:22Z" (1136073622) 0x5ca-0x5d1.7 (8)
0x5d0|1b 96                                          |..              |
0x5d0|      00 00 00 17                              |  ....          |        corr: 23 0x5d2-0x5d5.7 (4)
     |                                               |                |      [23]{}: leap_second_record 0x5d6-0x5e1.7 (12)
0x5d0|                  00 00 00 00 49 5c 07 97      |      ....I\..  |        occur: "2009-01-01T00:00:23Z" (1230768023) 0x5d6-0x5dd.7 (8)
0x5d0|                                          00 00|              ..|        corr: 24 0x5de-0x5e1.7 (4)
0x5e0|00 18                                          |..              |
     |                                               |                |      [24]{}: leap_second_record 0x5e2-0x5ed.7 (12)
0x5e0|      00 00 00 00 4f ef 93 18                  |  ....O...      |        occur: "2012-07-01T00:00:24Z" (1341100824) 0x5e2-0x5e9.7 (8)
0x5e0|                              00 00 00 19      |          ....  |        corr: 25 0x5ea-0x5ed.7 (4)
     |                                               |                |      [25]{}: leap_second_record 0x5ee-0x5f9.7 (12)
0x5e0|                                          00 00|              ..|        occur: "2015-07-01T00:00:25Z" (1435708825) 0x5ee-0x5f5.7 (8)
0x5f0|00 00 55 93 2d 99                              |..U.-.          |
0x5f0|                  00 00 00 1a                  |      ....      |        corr: 26 0x5f6-0x5f9.7 (4)
     |                                               |                |      [26]{}: leap_second_record 0x5fa-0x605.7 (12)
0x5f0|                              00 00 00 00 58 68|          ....Xh|        occur: "2017-01-01T00:00:26Z" (1483228826) 0x5fa-0x601.7 (8)
0x600|46 9a                                          |F.              |
0x600|      00 00 00 1b                              |  ....          |        corr: 27 0x602-0x605.7 (4)
     |                                               |                |    standard_wall_indicators[0:5]: 0x606-0x60a.7 (5)
0x600|                  00                           |      .         |      [0]: 0 standard_wall_indicator (valid) 0x606-0x606.7 (1)
0x600|                     01                        |       .        |      [1]: 1 standard_wall_indicator (valid) 0x607-0x607.7 (1)
0x600|                        00                     |        .       |      [2]: 0 standard_wall_indicator (valid) 0x608-0x608.7 (1)
0x600|                           00                  |         .      |      [3]: 0 standard_wall_indicator (valid) 0x609-0x609.7 (1)
0x600|                              00               |          .     |      [4]: 0 standard_wall_indicator (valid) 0x60a-0x60a.7 (1)
     |                                               |                |    ut_local_indicators[0:5]: 0x60b-0x60f.7 (5)
0x600|                                 00            |           .    |      [0]: 0 ut_local_indicator (valid) 0x60b-0x60b.7 (1)
0x600|                                    01         |            .   |      [1]: 1 ut_local_indicator (valid) 0x60c-0x60c.7 (1)
0x600|                                       00      |             .  |      [2]: 0 ut_local_indicator (valid) 0x60d-0x60d.7 (1)
0x600|                                          00   |              . |      [3]: 0 ut_local_indicator (valid) 0x60e-0x60e.7 (1)
0x600|                                             00|               .|      [4]: 0 ut_local_indicator (valid) 0x60f-0x60f.7 (1)
     |                                               |                |  footer{}: 0x610-0x611.7 (2)
0x610|0a                                             |.               |    nl1: 10 (valid) 0x610-0x610.7 (1)
     |                                               |                |    tz_string: "" 0x611-NA (0)
0x610|   0a|                                         | .|             |    nl2: 10 (valid) 0x611-0x611.7 (1)
