$ fq -d tzif dv MET
     |00 01 02 03 04 05 06 07 08 09 0a 0b 0c 0d 0e 0f|0123456789abcdef|.{}: MET (tzif) 0x0-0x82d.7 (2094)
     |                                               |                |  v1header{}: 0x0-0x2b.7 (44)
0x000|54 5a 69 66                                    |TZif            |    magic: 0x545a6966 (valid) 0x0-0x3.7 (4)
0x000|            32                                 |    2           |    ver: "2" (0x32) (valid) 0x4-0x4.7 (1)
0x000|               00 00 00 00 00 00 00 00 00 00 00|     ...........|    reserved: raw bits 0x5-0x13.7 (15)
0x010|00 00 00 00                                    |....            |
0x010|            00 00 00 00                        |    ....        |    isutcnt: 0 0x14-0x17.7 (4)
0x010|                        00 00 00 04            |        ....    |    isstdcnt: 4 0x18-0x1b.7 (4)
0x010|                                    00 00 00 00|            ....|    leapcnt: 0 0x1c-0x1f.7 (4)
0x020|00 00 00 88                                    |....            |    timecnt: 136 0x20-0x23.7 (4)
0x020|            00 00 00 04                        |    ....        |    typecnt: 4 0x24-0x27.7 (4)
0x020|                        00 00 00 09            |        ....    |    charcnt: 9 0x28-0x2b.7 (4)
     |                                               |                |  v1datablock{}: 0x2c-0x2f8.7 (717)
     |                                               |                |    transition_times[0:136]: 0x2c-0x24b.7 (544)
0x020|                                    9b 0c 17 60|            ...`|      [0]: "1916-04-30T22:00:00Z" (-1693706400) transition_time 0x2c-0x2f.7 (4)
0x030|9b d5 da f0                                    |....            |      [1]: "1916-09-30T23:00:00Z" (-1680483600) transition_time 0x30-0x33.7 (4)
0x030|            9c d9 ae 90                        |    ....        |      [2]: "1917-04-16T01:00:00Z" (-1663455600) transition_time 0x34-0x37.7 (4)
0x030|                        9d a4 b5 90            |        ....    |      [3]: "1917-09-17T01:00:00Z" (-1650150000) transition_time 0x38-0x3b.7 (4)
0x030|                                    9e b9 90 90|            ....|      [4]: "1918-04-15T01:00:00Z" (-1632006000) transition_time 0x3c-0x3f.7 (4)
0x040|9f 84 97 90                                    |....            |      [5]: "1918-09-16T01:00:00Z" (-1618700400) transition_time 0x40-0x43.7 (4)
0x040|            c8 09 71 90                        |    ..q.        |      [6]: "1940-04-01T01:00:00Z" (-938905200) transition_time 0x44-0x47.7 (4)
0x040|                        cc e7 4b 10            |        ..K.    |      [7]: "1942-11-02T01:00:00Z" (-857257200) transition_time 0x48-0x4b.7 (4)
0x040|                                    cd a9 17 90|            ....|      [8]: "1943-03-29T01:00:00Z" (-844556400) transition_time 0x4c-0x4f.7 (4)
0x050|ce a2 43 10                                    |..C.            |      [9]: "1943-10-04T01:00:00Z" (-828226800) transition_time 0x50-0x53.7 (4)
0x050|            cf 92 34 10                        |    ..4.        |      [10]: "1944-04-03T01:00:00Z" (-812502000) transition_time 0x54-0x57.7 (4)
0x050|                        d0 82 25 10            |        ..%.    |      [11]: "1944-10-02T01:00:00Z" (-796777200) transition_time 0x58-0x5b.7 (4)
0x050|                                    d1 72 16 10|            .r..|      [12]: "1945-04-02T01:00:00Z" (-781052400) transition_time 0x5c-0x5f.7 (4)
0x060|d2 4e 40 90                                    |.N@.            |      [13]: "1945-09-16T01:00:00Z" (-766623600) transition_time 0x60-0x63.7 (4)
0x060|            0d a4 63 90                        |    ..c.        |      [14]: "1977-04-03T01:00:00Z" (228877200) transition_time 0x64-0x67.7 (4)
0x060|                        0e 8b 1a 10            |        ....    |      [15]: "1977-09-25T01:00:00Z" (243997200) transition_time 0x68-0x6b.7 (4)
0x060|                                    0f 84 45 90|            ..E.|      [16]: "1978-04-02T01:00:00Z" (260326800) transition_time 0x6c-0x6f.7 (4)
0x070|10 74 36 90                                    |.t6.            |      [17]: "1978-10-01T01:00:00Z" (276051600) transition_time 0x70-0x73.7 (4)
0x070|            11 64 27 90                        |    .d'.        |      [18]: "1979-04-01T01:00:00Z" (291776400) transition_time 0x74-0x77.7 (4)
0x070|                        12 54 18 90            |        .T..    |      [19]: "1979-09-30T01:00:00Z" (307501200) transition_time 0x78-0x7b.7 (4)
0x070|                                    13 4d 44 10|            .MD.|      [20]: "1980-04-06T01:00:00Z" (323830800) transition_time 0x7c-0x7f.7 (4)
0x080|14 33 fa 90                                    |.3..            |      [21]: "1980-09-28T01:00:00Z" (338950800) transition_time 0x80-0x83.7 (4)
0x080|            15 23 eb 90                        |    .#..        |      [22]: "1981-03-29T01:00:00Z" (354675600) transition_time 0x84-0x87.7 (4)
0x080|                        16 13 dc 90            |        ....    |      [23]: "1981-09-27T01:00:00Z" (370400400) transition_time 0x88-0x8b.7 (4)
0x080|                                    17 03 cd 90|            ....|      [24]: "1982-03-28T01:00:00Z" (386125200) transition_time 0x8c-0x8f.7 (4)
0x090|17 f3 be 90                                    |....            |      [25]: "1982-09-26T01:00:00Z" (401850000) transition_time 0x90-0x93.7 (4)
0x090|            18 e3 af 90                        |    ....        |      [26]: "1983-03-27T01:00:00Z" (417574800) transition_time 0x94-0x97.7 (4)
0x090|                        19 d3 a0 90            |        ....    |      [27]: "1983-09-25T01:00:00Z" (433299600) transition_time 0x98-0x9b.7 (4)
0x090|                                    1a c3 91 90|            ....|      [28]: "1984-03-25T01:00:00Z" (449024400) transition_time 0x9c-0x9f.7 (4)
0x0a0|1b bc bd 10                                    |....            |      [29]: "1984-09-30T01:00:00Z" (465354000) transition_time 0xa0-0xa3.7 (4)
0x0a0|            1c ac ae 10                        |    ....        |      [30]: "1985-03-31T01:00:00Z" (481078800) transition_time 0xa4-0xa7.7 (4)
0x0a0|                        1d 9c 9f 10            |        ....    |      [31]: "1985-09-29T01:00:00Z" (496803600) transition_time 0xa8-0xab.7 (4)
0x0a0|                                    1e 8c 90 10|            ....|      [32]: "1986-03-30T01:00:00Z" (512528400) transition_time 0xac-0xaf.7 (4)
0x0b0|1f 7c 81 10                                    |.|..            |      [33]: "1986-09-28T01:00:00Z" (528253200) transition_time 0xb0-0xb3.7 (4)
0x0b0|            20 6c 72 10                        |     lr.        |      [34]: "1987-03-29T01:00:00Z" (543978000) transition_time 0xb4-0xb7.7 (4)
0x0b0|                        21 5c 63 10            |        !\c.    |      [35]: "1987-09-27T01:00:00Z" (559702800) transition_time 0xb8-0xbb.7 (4)
0x0b0|                                    22 4c 54 10|            "LT.|      [36]: "1988-03-27T01:00:00Z" (575427600) transition_time 0xbc-0xbf.7 (4)
0x0c0|23 3c 45 10                                    |#<E.            |      [37]: "1988-09-25T01:00:00Z" (591152400) transition_time 0xc0-0xc3.7 (4)
0x0c0|            24 2c 36 10                        |    $,6.        |      [38]: "1989-03-26T01:00:00Z" (606877200) transition_time 0xc4-0xc7.7 (4)
0x0c0|                        25 1c 27 10            |        %.'.    |      [39]: "1989-09-24T01:00:00Z" (622602000) transition_time 0xc8-0xcb.7 (4)
0x0c0|                                    26 0c 18 10|            &...|      [40]: "1990-03-25T01:00:00Z" (638326800) transition_time 0xcc-0xcf.7 (4)
0x0d0|27 05 43 90                                    |'.C.            |      [41]: "1990-09-30T01:00:00Z" (654656400) transition_time 0xd0-0xd3.7 (4)
0x0d0|            27 f5 34 90                        |    '.4.        |      [42]: "1991-03-31T01:00:00Z" (670381200) transition_time 0xd4-0xd7.7 (4)
0x0d0|                        28 e5 25 90            |        (.%.    |      [43]: "1991-09-29T01:00:00Z" (686106000) transition_time 0xd8-0xdb.7 (4)
0x0d0|                                    29 d5 16 90|            )...|      [44]: "1992-03-29T01:00:00Z" (701830800) transition_time 0xdc-0xdf.7 (4)
0x0e0|2a c5 07 90                                    |*...            |      [45]: "1992-09-27T01:00:00Z" (717555600) transition_time 0xe0-0xe3.7 (4)
0x0e0|            2b b4 f8 90                        |    +...        |      [46]: "1993-03-28T01:00:00Z" (733280400) transition_time 0xe4-0xe7.7 (4)
0x0e0|                        2c a4 e9 90            |        ,...    |      [47]: "1993-09-26T01:00:00Z" (749005200) transition_time 0xe8-0xeb.7 (4)
0x0e0|                                    2d 94 da 90|            -...|      [48]: "1994-03-27T01:00:00Z" (764730000) transition_time 0xec-0xef.7 (4)
0x0f0|2e 84 cb 90                                    |....            |      [49]: "1994-09-25T01:00:00Z" (780454800) transition_time 0xf0-0xf3.7 (4)
0x0f0|            2f 74 bc 90                        |    /t..        |      [50]: "1995-03-26T01:00:00Z" (796179600) transition_time 0xf4-0xf7.7 (4)
0x0f0|                        30 64 ad 90            |        0d..    |      [51]: "1995-09-24T01:00:00Z" (811904400) transition_time 0xf8-0xfb.7 (4)
0x0f0|                                    31 5d d9 10|            1]..|      [52]: "1996-03-31T01:00:00Z" (828234000) transition_time 0xfc-0xff.7 (4)
0x100|32 72 b4 10                                    |2r..            |      [53]: "1996-10-27T01:00:00Z" (846378000) transition_time 0x100-0x103.7 (4)
0x100|            33 3d bb 10                        |    3=..        |      [54]: "1997-03-30T01:00:00Z" (859683600) transition_time 0x104-0x107.7 (4)
0x100|                        34 52 96 10            |        4R..    |      [55]: "1997-10-26T01:00:00Z" (877827600) transition_time 0x108-0x10b.7 (4)
0x100|                                    35 1d 9d 10|            5...|      [56]: "1998-03-29T01:00:00Z" (891133200) transition_time 0x10c-0x10f.7 (4)
0x110|36 32 78 10                                    |62x.            |      [57]: "1998-10-25T01:00:00Z" (909277200) transition_time 0x110-0x113.7 (4)
0x110|            36 fd 7f 10                        |    6...        |      [58]: "1999-03-28T01:00:00Z" (922582800) transition_time 0x114-0x117.7 (4)
0x110|                        38 1b 94 90            |        8...    |      [59]: "1999-10-31T01:00:00Z" (941331600) transition_time 0x118-0x11b.7 (4)
0x110|                                    38 dd 61 10|            8.a.|      [60]: "2000-03-26T01:00:00Z" (954032400) transition_time 0x11c-0x11f.7 (4)
0x120|39 fb 76 90                                    |9.v.            |      [61]: "2000-10-29T01:00:00Z" (972781200) transition_time 0x120-0x123.7 (4)
0x120|            3a bd 43 10                        |    :.C.        |      [62]: "2001-03-25T01:00:00Z" (985482000) transition_time 0x124-0x127.7 (4)
0x120|                        3b db 58 90            |        ;.X.    |      [63]: "2001-10-28T01:00:00Z" (1004230800) transition_time 0x128-0x12b.7 (4)
0x120|                                    3c a6 5f 90|            <._.|      [64]: "2002-03-31T01:00:00Z" (1017536400) transition_time 0x12c-0x12f.7 (4)
0x130|3d bb 3a 90                                    |=.:.            |      [65]: "2002-10-27T01:00:00Z" (1035680400) transition_time 0x130-0x133.7 (4)
0x130|            3e 86 41 90                        |    >.A.        |      [66]: "2003-03-30T01:00:00Z" (1048986000) transition_time 0x134-0x137.7 (4)
0x130|                        3f 9b 1c 90            |        ?...    |      [67]: "2003-10-26T01:00:00Z" (1067130000) transition_time 0x138-0x13b.7 (4)
0x130|                                    40 66 23 90|            @f#.|      [68]: "2004-03-28T01:00:00Z" (1080435600) transition_time 0x13c-0x13f.7 (4)
0x140|41 84 39 10                                    |A.9.            |      [69]: "2004-10-31T01:00:00Z" (1099184400) transition_time 0x140-0x143.7 (4)
0x140|            42 46 05 90                        |    BF..        |      [70]: "2005-03-27T01:00:00Z" (1111885200) transition_time 0x144-0x147.7 (4)
0x140|                        43 64 1b 10            |        Cd..    |      [71]: "2005-10-30T01:00:00Z" (1130634000) transition_time 0x148-0x14b.7 (4)
0x140|                                    44 25 e7 90|            D%..|      [72]: "2006-03-26T01:00:00Z" (1143334800) transition_time 0x14c-0x14f.7 (4)
0x150|45 43 fd 10                                    |EC..            |      [73]: "2006-10-29T01:00:00Z" (1162083600) transition_time 0x150-0x153.7 (4)
0x150|            46 05 c9 90                        |    F...        |      [74]: "2007-03-25T01:00:00Z" (1174784400) transition_time 0x154-0x157.7 (4)
0x150|                        47 23 df 10            |        G#..    |      [75]: "2007-10-28T01:00:00Z" (1193533200) transition_time 0x158-0x15b.7 (4)
0x150|                                    47 ee e6 10|            G...|      [76]: "2008-03-30T01:00:00Z" (1206838800) transition_time 0x15c-0x15f.7 (4)
0x160|49 03 c1 10                                    |I...            |      [77]: "2008-10-26T01:00:00Z" (1224982800) transition_time 0x160-0x163.7 (4)
0x160|            49 ce c8 10                        |    I...        |      [78]: "2009-03-29T01:00:00Z" (1238288400) transition_time 0x164-0x167.7 (4)
0x160|                        4a e3 a3 10            |        J...    |      [79]: "2009-10-25T01:00:00Z" (1256432400) transition_time 0x168-0x16b.7 (4)
0x160|                                    4b ae aa 10|            K...|      [80]: "2010-03-28T01:00:00Z" (1269738000) transition_time 0x16c-0x16f.7 (4)
0x170|4c cc bf 90                                    |L...            |      [81]: "2010-10-31T01:00:00Z" (1288486800) transition_time 0x170-0x173.7 (4)
0x170|            4d 8e 8c 10                        |    M...        |      [82]: "2011-03-27T01:00:00Z" (1301187600) transition_time 0x174-0x177.7 (4)
0x170|                        4e ac a1 90            |        N...    |      [83]: "2011-10-30T01:00:00Z" (1319936400) transition_time 0x178-0x17b.7 (4)
0x170|                                    4f 6e 6e 10|            Onn.|      [84]: "2012-03-25T01:00:00Z" (1332637200) transition_time 0x17c-0x17f.7 (4)
0x180|50 8c 83 90                                    |P...            |      [85]: "2012-10-28T01:00:00Z" (1351386000) transition_time 0x180-0x183.7 (4)
0x180|            51 57 8a 90                        |    QW..        |      [86]: "2013-03-31T01:00:00Z" (1364691600) transition_time 0x184-0x187.7 (4)
0x180|                        52 6c 65 90            |        Rle.    |      [87]: "2013-10-27T01:00:00Z" (1382835600) transition_time 0x188-0x18b.7 (4)
0x180|                                    53 37 6c 90|            S7l.|      [88]: "2014-03-30T01:00:00Z" (1396141200) transition_time 0x18c-0x18f.7 (4)
0x190|54 4c 47 90                                    |TLG.            |      [89]: "2014-10-26T01:00:00Z" (1414285200) transition_time 0x190-0x193.7 (4)
0x190|            55 17 4e 90                        |    U.N.        |      [90]: "2015-03-29T01:00:00Z" (1427590800) transition_time 0x194-0x197.7 (4)
0x190|                        56 2c 29 90            |        V,).    |      [91]: "2015-10-25T01:00:00Z" (1445734800) transition_time 0x198-0x19b.7 (4)
0x190|                                    56 f7 30 90|            V.0.|      [92]: "2016-03-27T01:00:00Z" (1459040400) transition_time 0x19c-0x19f.7 (4)
0x1a0|58 15 46 10                                    |X.F.            |      [93]: "2016-10-30T01:00:00Z" (1477789200) transition_time 0x1a0-0x1a3.7 (4)
0x1a0|            58 d7 12 90                        |    X...        |      [94]: "2017-03-26T01:00:00Z" (1490490000) transition_time 0x1a4-0x1a7.7 (4)
0x1a0|                        59 f5 28 10            |        Y.(.    |      [95]: "2017-10-29T01:00:00Z" (1509238800) transition_time 0x1a8-0x1ab.7 (4)
0x1a0|                                    5a b6 f4 90|            Z...|      [96]: "2018-03-25T01:00:00Z" (1521939600) transition_time 0x1ac-0x1af.7 (4)
0x1b0|5b d5 0a 10                                    |[...            |      [97]: "2018-10-28T01:00:00Z" (1540688400) transition_time 0x1b0-0x1b3.7 (4)
0x1b0|            5c a0 11 10                        |    \...        |      [98]: "2019-03-31T01:00:00Z" (1553994000) transition_time 0x1b4-0x1b7.7 (4)
0x1b0|                        5d b4 ec 10            |        ]...    |      [99]: "2019-10-27T01:00:00Z" (1572138000) transition_time 0x1b8-0x1bb.7 (4)
0x1b0|                                    5e 7f f3 10|            ^...|      [100]: "2020-03-29T01:00:00Z" (1585443600) transition_time 0x1bc-0x1bf.7 (4)
0x1c0|5f 94 ce 10                                    |_...            |      [101]: "2020-10-25T01:00:00Z" (1603587600) transition_time 0x1c0-0x1c3.7 (4)
0x1c0|            60 5f d5 10                        |    `_..        |      [102]: "2021-03-28T01:00:00Z" (1616893200) transition_time 0x1c4-0x1c7.7 (4)
0x1c0|                        61 7d ea 90            |        a}..    |      [103]: "2021-10-31T01:00:00Z" (1635642000) transition_time 0x1c8-0x1cb.7 (4)
0x1c0|                                    62 3f b7 10|            b?..|      [104]: "2022-03-27T01:00:00Z" (1648342800) transition_time 0x1cc-0x1cf.7 (4)
0x1d0|63 5d cc 90                                    |c]..            |      [105]: "2022-10-30T01:00:00Z" (1667091600) transition_time 0x1d0-0x1d3.7 (4)
0x1d0|            64 1f 99 10                        |    d...        |      [106]: "2023-03-26T01:00:00Z" (1679792400) transition_time 0x1d4-0x1d7.7 (4)
0x1d0|                        65 3d ae 90            |        e=..    |      [107]: "2023-10-29T01:00:00Z" (1698541200) transition_time 0x1d8-0x1db.7 (4)
0x1d0|                                    66 08 b5 90|            f...|      [108]: "2024-03-31T01:00:00Z" (1711846800) transition_time 0x1dc-0x1df.7 (4)
0x1e0|67 1d 90 90                                    |g...            |      [109]: "2024-10-27T01:00:00Z" (1729990800) transition_time 0x1e0-0x1e3.7 (4)
0x1e0|            67 e8 97 90                        |    g...        |      [110]: "2025-03-30T01:00:00Z" (1743296400) transition_time 0x1e4-0x1e7.7 (4)
0x1e0|                        68 fd 72 90            |        h.r.    |      [111]: "2025-10-26T01:00:00Z" (1761440400) transition_time 0x1e8-0x1eb.7 (4)
0x1e0|                                    69 c8 79 90|            i.y.|      [112]: "2026-03-29T01:00:00Z" (1774746000) transition_time 0x1ec-0x1ef.7 (4)
0x1f0|6a dd 54 90                                    |j.T.            |      [113]: "2026-10-25T01:00:00Z" (1792890000) transition_time 0x1f0-0x1f3.7 (4)
0x1f0|            6b a8 5b 90                        |    k.[.        |      [114]: "2027-03-28T01:00:00Z" (1806195600) transition_time 0x1f4-0x1f7.7 (4)
0x1f0|                        6c c6 71 10            |        l.q.    |      [115]: "2027-10-31T01:00:00Z" (1824944400) transition_time 0x1f8-0x1fb.7 (4)
0x1f0|                                    6d 88 3d 90|            m.=.|      [116]: "2028-03-26T01:00:00Z" (1837645200) transition_time 0x1fc-0x1ff.7 (4)
0x200|6e a6 53 10                                    |n.S.            |      [117]: "2028-10-29T01:00:00Z" (1856394000) transition_time 0x200-0x203.7 (4)
0x200|            6f 68 1f 90                        |    oh..        |      [118]: "2029-03-25T01:00:00Z" (1869094800) transition_time 0x204-0x207.7 (4)
0x200|                        70 86 35 10            |        p.5.    |      [119]: "2029-10-28T01:00:00Z" (1887843600) transition_time 0x208-0x20b.7 (4)
0x200|                                    71 51 3c 10|            qQ<.|      [120]: "2030-03-31T01:00:00Z" (1901149200) transition_time 0x20c-0x20f.7 (4)
0x210|72 66 17 10                                    |rf..            |      [121]: "2030-10-27T01:00:00Z" (1919293200) transition_time 0x210-0x213.7 (4)
0x210|            73 31 1e 10                        |    s1..        |      [122]: "2031-03-30T01:00:00Z" (1932598800) transition_time 0x214-0x217.7 (4)
0x210|                        74 45 f9 10            |        tE..    |      [123]: "2031-10-26T01:00:00Z" (1950742800) transition_time 0x218-0x21b.7 (4)
0x210|                                    75 11 00 10|            u...|      [124]: "2032-03-28T01:00:00Z" (1964048400) transition_time 0x21c-0x21f.7 (4)
0x220|76 2f 15 90                                    |v/..            |      [125]: "2032-10-31T01:00:00Z" (1982797200) transition_time 0x220-0x223.7 (4)
0x220|            76 f0 e2 10                        |    v...        |      [126]: "2033-03-27T01:00:00Z" (1995498000) transition_time 0x224-0x227.7 (4)
0x220|                        78 0e f7 90            |        x...    |      [127]: "2033-10-30T01:00:00Z" (2014246800) transition_time 0x228-0x22b.7 (4)
0x220|                                    78 d0 c4 10|            x...|      [128]: "2034-03-26T01:00:00Z" (2026947600) transition_time 0x22c-0x22f.7 (4)
0x230|79 ee d9 90                                    |y...            |      [129]: "2034-10-29T01:00:00Z" (2045696400) transition_time 0x230-0x233.7 (4)
0x230|            7a b0 a6 10                        |    z...        |      [130]: "2035-03-25T01:00:00Z" (2058397200) transition_time 0x234-0x237.7 (4)
0x230|                        7b ce bb 90            |        {...    |      [131]: "2035-10-28T01:00:00Z" (2077146000) transition_time 0x238-0x23b.7 (4)
0x230|                                    7c 99 c2 90|            |...|      [132]: "2036-03-30T01:00:00Z" (2090451600) transition_time 0x23c-0x23f.7 (4)
0x240|7d ae 9d 90                                    |}...            |      [133]: "2036-10-26T01:00:00Z" (2108595600) transition_time 0x240-0x243.7 (4)
0x240|            7e 79 a4 90                        |    ~y..        |      [134]: "2037-03-29T01:00:00Z" (2121901200) transition_time 0x244-0x247.7 (4)
0x240|                        7f 8e 7f 90            |        ....    |      [135]: "2037-10-25T01:00:00Z" (2140045200) transition_time 0x248-0x24b.7 (4)
     |                                               |                |    transition_types[0:136]: 0x24c-0x2d3.7 (136)
0x240|                                    01         |            .   |      [0]: 1 transition_type 0x24c-0x24c.7 (1)
0x240|                                       00      |             .  |      [1]: 0 transition_type 0x24d-0x24d.7 (1)
0x240|                                          02   |              . |      [2]: 2 transition_type 0x24e-0x24e.7 (1)
0x240|                                             03|               .|      [3]: 3 transition_type 0x24f-0x24f.7 (1)
0x250|02                                             |.               |      [4]: 2 transition_type 0x250-0x250.7 (1)
0x250|   03                                          | .              |      [5]: 3 transition_type 0x251-0x251.7 (1)
0x250|      02                                       |  .             |      [6]: 2 transition_type 0x252-0x252.7 (1)
0x250|         03                                    |   .            |      [7]: 3 transition_type 0x253-0x253.7 (1)
0x250|            02                                 |    .           |      [8]: 2 transition_type 0x254-0x254.7 (1)
0x250|               03                              |     .          |      [9]: 3 transition_type 0x255-0x255.7 (1)
0x250|                  02                           |      .         |      [10]: 2 transition_type 0x256-0x256.7 (1)
0x250|                     03                        |       .        |      [11]: 3 transition_type 0x257-0x257.7 (1)
0x250|                        02                     |        .       |      [12]: 2 transition_type 0x258-0x258.7 (1)
0x250|                           03                  |         .      |      [13]: 3 transition_type 0x259-0x259.7 (1)
0x250|                              02               |          .     |      [14]: 2 transition_type 0x25a-0x25a.7 (1)
0x250|                                 03            |           .    |      [15]: 3 transition_type 0x25b-0x25b.7 (1)
0x250|                                    02         |            .   |      [16]: 2 transition_type 0x25c-0x25c.7 (1)
0x250|                                       03      |             .  |      [17]: 3 transition_type 0x25d-0x25d.7 (1)
0x250|                                          02   |              . |      [18]: 2 transition_type 0x25e-0x25e.7 (1)
0x250|                                             03|               .|      [19]: 3 transition_type 0x25f-0x25f.7 (1)
0x260|02                                             |.               |      [20]: 2 transition_type 0x260-0x260.7 (1)
0x260|   03                                          | .              |      [21]: 3 transition_type 0x261-0x261.7 (1)
0x260|      02                                       |  .             |      [22]: 2 transition_type 0x262-0x262.7 (1)
0x260|         03                                    |   .            |      [23]: 3 transition_type 0x263-0x263.7 (1)
0x260|            02                                 |    .           |      [24]: 2 transition_type 0x264-0x264.7 (1)
0x260|               03                              |     .          |      [25]: 3 transition_type 0x265-0x265.7 (1)
0x260|                  02                           |      .         |      [26]: 2 transition_type 0x266-0x266.7 (1)
0x260|                     03                        |       .        |      [27]: 3 transition_type 0x267-0x267.7 (1)
0x260|                        02                     |        .       |      [28]: 2 transition_type 0x268-0x268.7 (1)
0x260|                           03                  |         .      |      [29]: 3 transition_type 0x269-0x269.7 (1)
0x260|                              02               |          .     |      [30]: 2 transition_type 0x26a-0x26a.7 (1)
0x260|                                 03            |           .    |      [31]: 3 transition_type 0x26b-0x26b.7 (1)
0x260|                                    02         |            .   |      [32]: 2 transition_type 0x26c-0x26c.7 (1)
0x260|                                       03      |             .  |      [33]: 3 transition_type 0x26d-0x26d.7 (1)
0x260|                                          02   |              . |      [34]: 2 transition_type 0x26e-0x26e.7 (1)
0x260|                                             03|               .|      [35]: 3 transition_type 0x26f-0x26f.7 (1)
0x270|02                                             |.               |      [36]: 2 transition_type 0x270-0x270.7 (1)
0x270|   03                                          | .              |      [37]: 3 transition_type 0x271-0x271.7 (1)
0x270|      02                                       |  .             |      [38]: 2 transition_type 0x272-0x272.7 (1)
0x270|         03                                    |   .            |      [39]: 3 transition_type 0x273-0x273.7 (1)
0x270|            02                                 |    .           |      [40]: 2 transition_type 0x274-0x274.7 (1)
0x270|               03                              |     .          |      [41]: 3 transition_type 0x275-0x275.7 (1)
0x270|                  02                           |      .         |      [42]: 2 transition_type 0x276-0x276.7 (1)
0x270|                     03                        |       .        |      [43]: 3 transition_type 0x277-0x277.7 (1)
0x270|                        02                     |        .       |      [44]: 2 transition_type 0x278-0x278.7 (1)
0x270|                           03                  |         .      |      [45]: 3 transition_type 0x279-0x279.7 (1)
0x270|                              02               |          .     |      [46]: 2 transition_type 0x27a-0x27a.7 (1)
0x270|                                 03            |           .    |      [47]: 3 transition_type 0x27b-0x27b.7 (1)
0x270|                                    02         |            .   |      [48]: 2 transition_type 0x27c-0x27c.7 (1)
0x270|                                       03      |             .  |      [49]: 3 transition_type 0x27d-0x27d.7 (1)
0x270|                                          02   |              . |      [50]: 2 transition_type 0x27e-0x27e.7 (1)
0x270|                                             03|               .|      [51]: 3 transition_type 0x27f-0x27f.7 (1)
0x280|02                                             |.               |      [52]: 2 transition_type 0x280-0x280.7 (1)
0x280|   03                                          | .              |      [53]: 3 transition_type 0x281-0x281.7 (1)
0x280|      02                                       |  .             |      [54]: 2 transition_type 0x282-0x282.7 (1)
0x280|         03                                    |   .            |      [55]: 3 transition_type 0x283-0x283.7 (1)
0x280|            02                                 |    .           |      [56]: 2 transition_type 0x284-0x284.7 (1)
0x280|               03                              |     .          |      [57]: 3 transition_type 0x285-0x285.7 (1)
0x280|                  02                           |      .         |      [58]: 2 transition_type 0x286-0x286.7 (1)
0x280|                     03                        |       .        |      [59]: 3 transition_type 0x287-0x287.7 (1)
0x280|                        02                     |        .       |      [60]: 2 transition_type 0x288-0x288.7 (1)
0x280|                           03                  |         .      |      [61]: 3 transition_type 0x289-0x289.7 (1)
0x280|                              02               |          .     |      [62]: 2 transition_type 0x28a-0x28a.7 (1)
0x280|                                 03            |           .    |      [63]: 3 transition_type 0x28b-0x28b.7 (1)
0x280|                                    02         |            .   |      [64]: 2 transition_type 0x28c-0x28c.7 (1)
0x280|                                       03      |             .  |      [65]: 3 transition_type 0x28d-0x28d.7 (1)
0x280|                                          02   |              . |      [66]: 2 transition_type 0x28e-0x28e.7 (1)
0x280|                                             03|               .|      [67]: 3 transition_type 0x28f-0x28f.7 (1)
0x290|02                                             |.               |      [68]: 2 transition_type 0x290-0x290.7 (1)
0x290|   03                                          | .              |      [69]: 3 transition_type 0x291-0x291.7 (1)
0x290|      02                                       |  .             |      [70]: 2 transition_type 0x292-0x292.7 (1)
0x290|         03                                    |   .            |      [71]: 3 transition_type 0x293-0x293.7 (1)
0x290|            02                                 |    .           |      [72]: 2 transition_type 0x294-0x294.7 (1)
0x290|               03                              |     .          |      [73]: 3 transition_type 0x295-0x295.7 (1)
0x290|                  02                           |      .         |      [74]: 2 transition_type 0x296-0x296.7 (1)
0x290|                     03                        |       .        |      [75]: 3 transition_type 0x297-0x297.7 (1)
0x290|                        02                     |        .       |      [76]: 2 transition_type 0x298-0x298.7 (1)
0x290|                           03                  |         .      |      [77]: 3 transition_type 0x299-0x299.7 (1)
0x290|                              02               |          .     |      [78]: 2 transition_type 0x29a-0x29a.7 (1)
0x290|                                 03            |           .    |      [79]: 3 transition_type 0x29b-0x29b.7 (1)
0x290|                                    02         |            .   |      [80]: 2 transition_type 0x29c-0x29c.7 (1)
0x290|                                       03      |             .  |      [81]: 3 transition_type 0x29d-0x29d.7 (1)
0x290|                                          02   |              . |      [82]: 2 transition_type 0x29e-0x29e.7 (1)
0x290|                                             03|               .|      [83]: 3 transition_type 0x29f-0x29f.7 (1)
0x2a0|02                                             |.               |      [84]: 2 transition_type 0x2a0-0x2a0.7 (1)
0x2a0|   03                                          | .              |      [85]: 3 transition_type 0x2a1-0x2a1.7 (1)
0x2a0|      02                                       |  .             |      [86]: 2 transition_type 0x2a2-0x2a2.7 (1)
0x2a0|         03                                    |   .            |      [87]: 3 transition_type 0x2a3-0x2a3.7 (1)
0x2a0|            02                                 |    .           |      [88]: 2 transition_type 0x2a4-0x2a4.7 (1)
0x2a0|               03                              |     .          |      [89]: 3 transition_type 0x2a5-0x2a5.7 (1)
0x2a0|                  02                           |      .         |      [90]: 2 transition_type 0x2a6-0x2a6.7 (1)
0x2a0|                     03                        |       .        |      [91]: 3 transition_type 0x2a7-0x2a7.7 (1)
0x2a0|                        02                     |        .       |      [92]: 2 transition_type 0x2a8-0x2a8.7 (1)
0x2a0|                           03                  |         .      |      [93]: 3 transition_type 0x2a9-0x2a9.7 (1)
0x2a0|                              02               |          .     |      [94]: 2 transition_type 0x2aa-0x2aa.7 (1)
0x2a0|                                 03            |           .    |      [95]: 3 transition_type 0x2ab-0x2ab.7 (1)
0x2a0|                                    02         |            .   |      [96]: 2 transition_type 0x2ac-0x2ac.7 (1)
0x2a0|                                       03      |             .  |      [97]: 3 transition_type 0x2ad-0x2ad.7 (1)
0x2a0|                                          02   |              . |      [98]: 2 transition_type 0x2ae-0x2ae.7 (1)
0x2a0|                                             03|               .|      [99]: 3 transition_type 0x2af-0x2af.7 (1)
0x2b0|02                                             |.               |      [100]: 2 transition_type 0x2b0-0x2b0.7 (1)
0x2b0|   03                                          | .              |      [101]: 3 transition_type 0x2b1-0x2b1.7 (1)
0x2b0|      02                                       |  .             |      [102]: 2 transition_type 0x2b2-0x2b2.7 (1)
0x2b0|         03                                    |   .            |      [103]: 3 transition_type 0x2b3-0x2b3.7 (1)
0x2b0|            02                                 |    .           |      [104]: 2 transition_type 0x2b4-0x2b4.7 (1)
0x2b0|               03                              |     .          |      [105]: 3 transition_type 0x2b5-0x2b5.7 (1)
0x2b0|                  02                           |      .         |      [106]: 2 transition_type 0x2b6-0x2b6.7 (1)
0x2b0|                     03                        |       .        |      [107]: 3 transition_type 0x2b7-0x2b7.7 (1)
0x2b0|                        02                     |        .       |      [108]: 2 transition_type 0x2b8-0x2b8.7 (1)
0x2b0|                           03                  |         .      |      [109]: 3 transition_type 0x2b9-0x2b9.7 (1)
0x2b0|                              02               |          .     |      [110]: 2 transition_type 0x2ba-0x2ba.7 (1)
0x2b0|                                 03            |           .    |      [111]: 3 transition_type 0x2bb-0x2bb.7 (1)
0x2b0|                                    02         |            .   |      [112]: 2 transition_type 0x2bc-0x2bc.7 (1)
0x2b0|                                       03      |             .  |      [113]: 3 transition_type 0x2bd-0x2bd.7 (1)
0x2b0|                                          02   |              . |      [114]: 2 transition_type 0x2be-0x2be.7 (1)
0x2b0|                                             03|               .|      [115]: 3 transition_type 0x2bf-0x2bf.7 (1)
0x2c0|02                                             |.               |      [116]: 2 transition_type 0x2c0-0x2c0.7 (1)
0x2c0|   03                                          | .              |      [117]: 3 transition_type 0x2c1-0x2c1.7 (1)
0x2c0|      02                                       |  .             |      [118]: 2 transition_type 0x2c2-0x2c2.7 (1)
0x2c0|         03                                    |   .            |      [119]: 3 transition_type 0x2c3-0x2c3.7 (1)
0x2c0|            02                                 |    .           |      [120]: 2 transition_type 0x2c4-0x2c4.7 (1)
0x2c0|               03                              |     .          |      [121]: 3 transition_type 0x2c5-0x2c5.7 (1)
0x2c0|                  02                           |      .         |      [122]: 2 transition_type 0x2c6-0x2c6.7 (1)
0x2c0|                     03                        |       .        |      [123]: 3 transition_type 0x2c7-0x2c7.7 (1)
0x2c0|                        02                     |        .       |      [124]: 2 transition_type 0x2c8-0x2c8.7 (1)
0x2c0|                           03                  |         .      |      [125]: 3 transition_type 0x2c9-0x2c9.7 (1)
0x2c0|                              02               |          .     |      [126]: 2 transition_type 0x2ca-0x2ca.7 (1)
0x2c0|                                 03            |           .    |      [127]: 3 transition_type 0x2cb-0x2cb.7 (1)
0x2c0|                                    02         |            .   |      [128]: 2 transition_type 0x2cc-0x2cc.7 (1)
0x2c0|                                       03      |             .  |      [129]: 3 transition_type 0x2cd-0x2cd.7 (1)
0x2c0|                                          02   |              . |      [130]: 2 transition_type 0x2ce-0x2ce.7 (1)
0x2c0|                                             03|               .|      [131]: 3 transition_type 0x2cf-0x2cf.7 (1)
0x2d0|02                                             |.               |      [132]: 2 transition_type 0x2d0-0x2d0.7 (1)
0x2d0|   03                                          | .              |      [133]: 3 transition_type 0x2d1-0x2d1.7 (1)
0x2d0|      02                                       |  .             |      [134]: 2 transition_type 0x2d2-0x2d2.7 (1)
0x2d0|         03                                    |   .            |      [135]: 3 transition_type 0x2d3-0x2d3.7 (1)
     |                                               |                |    local_time_type_records[0:4]: 0x2d4-0x2eb.7 (24)
     |                                               |                |      [0]{}: local_time_type 0x2d4-0x2d9.7 (6)
0x2d0|            00 00 0e 10                        |    ....        |        utoff: 3600 (valid) 0x2d4-0x2d7.7 (4)
0x2d0|                        00                     |        .       |        dst: 0 (valid) 0x2d8-0x2d8.7 (1)
0x2d0|                           05                  |         .      |        idx: 5 (valid) 0x2d9-0x2d9.7 (1)
     |                                               |                |      [1]{}: local_time_type 0x2da-0x2df.7 (6)
0x2d0|                              00 00 1c 20      |          ...   |        utoff: 7200 (valid) 0x2da-0x2dd.7 (4)
0x2d0|                                          01   |              . |        dst: 1 (valid) 0x2de-0x2de.7 (1)
0x2d0|                                             00|               .|        idx: 0 (valid) 0x2df-0x2df.7 (1)
     |                                               |                |      [2]{}: local_time_type 0x2e0-0x2e5.7 (6)
0x2e0|00 00 1c 20                                    |...             |        utoff: 7200 (valid) 0x2e0-0x2e3.7 (4)
0x2e0|            01                                 |    .           |        dst: 1 (valid) 0x2e4-0x2e4.7 (1)
0x2e0|               00                              |     .          |        idx: 0 (valid) 0x2e5-0x2e5.7 (1)
     |                                               |                |      [3]{}: local_time_type 0x2e6-0x2eb.7 (6)
0x2e0|                  00 00 0e 10                  |      ....      |        utoff: 3600 (valid) 0x2e6-0x2e9.7 (4)
0x2e0|                              00               |          .     |        dst: 0 (valid) 0x2ea-0x2ea.7 (1)
0x2e0|                                 05            |           .    |        idx: 5 (valid) 0x2eb-0x2eb.7 (1)
     |                                               |                |    time_zone_designations[0:2]: 0x2ec-0x2f4.7 (9)
0x2e0|                                    4d 45 53 54|            MEST|      [0]: "MEST" time_zone_designation 0x2ec-0x2f0.7 (5)
0x2f0|00                                             |.               |
0x2f0|   4d 45 54 00                                 | MET.           |      [1]: "MET" time_zone_designation 0x2f1-0x2f4.7 (4)
     |                                               |                |    leap_second_records[0:0]: 0x2f5-NA (0)
     |                                               |                |    standard_wall_indicators[0:4]: 0x2f5-0x2f8.7 (4)
0x2f0|               00                              |     .          |      [0]: 0 standard_wall_indicator (valid) 0x2f5-0x2f5.7 (1)
0x2f0|                  00                           |      .         |      [1]: 0 standard_wall_indicator (valid) 0x2f6-0x2f6.7 (1)
0x2f0|                     01                        |       .        |      [2]: 1 standard_wall_indicator (valid) 0x2f7-0x2f7.7 (1)
0x2f0|                        01                     |        .       |      [3]: 1 standard_wall_indicator (valid) 0x2f8-0x2f8.7 (1)
     |                                               |                |    ut_local_indicators[0:0]: 0x2f9-NA (0)
     |                                               |                |  v2plusheader{}: 0x2f9-0x324.7 (44)
0x2f0|                           54 5a 69 66         |         TZif   |    magic: 0x545a6966 (valid) 0x2f9-0x2fc.7 (4)
0x2f0|                                       32      |             2  |    ver: "2" (0x32) (valid) 0x2fd-0x2fd.7 (1)
0x2f0|                                          00 00|              ..|    reserved: raw bits 0x2fe-0x30c.7 (15)
0x300|00 00 00 00 00 00 00 00 00 00 00 00 00         |.............   |
0x300|                                       00 00 00|             ...|    isutcnt: 0 0x30d-0x310.7 (4)
0x310|00                                             |.               |
0x310|   00 00 00 04                                 | ....           |    isstdcnt: 4 0x311-0x314.7 (4)
0x310|               00 00 00 00                     |     ....       |    leapcnt: 0 0x315-0x318.7 (4)
0x310|                           00 00 00 88         |         ....   |    timecnt: 136 0x319-0x31c.7 (4)
0x310|                                       00 00 00|             ...|    typecnt: 4 0x31d-0x320.7 (4)
0x320|04                                             |.               |
0x320|   00 00 00 09                                 | ....           |    charcnt: 9 0x321-0x324.7 (4)
     |                                               |                |  v2plusdatablock{}: 0x325-0x811.7 (1261)
     |                                               |                |    transition_times[0:136]: 0x325-0x764.7 (1088)
0x320|               ff ff ff ff 9b 0c 17 60         |     .......`   |      [0]: "1916-04-30T22:00:00Z" (-1693706400) transition_time 0x325-0x32c.7 (8)
0x320|                                       ff ff ff|             ...|      [1]: "1916-09-30T23:00:00Z" (-1680483600) transition_time 0x32d-0x334.7 (8)
0x330|ff 9b d5 da f0                                 |.....           |
0x330|               ff ff ff ff 9c d9 ae 90         |     ........   |      [2]: "1917-04-16T01:00:00Z" (-1663455600) transition_time 0x335-0x33c.7 (8)
0x330|                                       ff ff ff|             ...|      [3]: "1917-09-17T01:00:00Z" (-1650150000) transition_time 0x33d-0x344.7 (8)
0x340|ff 9d a4 b5 90                                 |.....           |
0x340|               ff ff ff ff 9e b9 90 90         |     ........   |      [4]: "1918-04-15T01:00:00Z" (-1632006000) transition_time 0x345-0x34c.7 (8)
0x340|                                       ff ff ff|             ...|      [5]: "1918-09-16T01:00:00Z" (-1618700400) transition_time 0x34d-0x354.7 (8)
0x350|ff 9f 84 97 90                                 |.....           |
0x350|               ff ff ff ff c8 09 71 90         |     ......q.   |      [6]: "1940-04-01T01:00:00Z" (-938905200) transition_time 0x355-0x35c.7 (8)
0x350|                                       ff ff ff|             ...|      [7]: "1942-11-02T01:00:00Z" (-857257200) transition_time 0x35d-0x364.7 (8)
0x360|ff cc e7 4b 10                                 |...K.           |
0x360|               ff ff ff ff cd a9 17 90         |     ........   |      [8]: "1943-03-29T01:00:00Z" (-844556400) transition_time 0x365-0x36c.7 (8)
0x360|                                       ff ff ff|             ...|      [9]: "1943-10-04T01:00:00Z" (-828226800) transition_time 0x36d-0x374.7 (8)
0x370|ff ce a2 43 10                                 |...C.           |
0x370|               ff ff ff ff cf 92 34 10         |     ......4.   |      [10]: "1944-04-03T01:00:00Z" (-812502000) transition_time 0x375-0x37c.7 (8)
0x370|                                       ff ff ff|             ...|      [11]: "1944-10-02T01:00:00Z" (-796777200) transition_time 0x37d-0x384.7 (8)
0x380|ff d0 82 25 10                                 |...%.           |
0x380|               ff ff ff ff d1 72 16 10         |     .....r..   |      [12]: "1945-04-02T01:00:00Z" (-781052400) transition_time 0x385-0x38c.7 (8)
0x380|                                       ff ff ff|             ...|      [13]: "1945-09-16T01:00:00Z" (-766623600) transition_time 0x38d-0x394.7 (8)
0x390|ff d2 4e 40 90                                 |..N@.           |
0x390|               00 00 00 00 0d a4 63 90         |     ......c.   |      [14]: "1977-04-03T01:00:00Z" (228877200) transition_time 0x395-0x39c.7 (8)
0x390|                                       00 00 00|             ...|      [15]: "1977-09-25T01:00:00Z" (243997200) transition_time 0x39d-0x3a4.7 (8)
0x3a0|00 0e 8b 1a 10                                 |.....           |
0x3a0|               00 00 00 00 0f 84 45 90         |     ......E.   |      [16]: "1978-04-02T01:00:00Z" (260326800) transition_time 0x3a5-0x3ac.7 (8)
0x3a0|                                       00 00 00|             ...|      [17]: "1978-10-01T01:00:00Z" (276051600) transition_time 0x3ad-0x3b4.7 (8)
0x3b0|00 10 74 36 90                                 |..t6.           |
0x3b0|               00 00 00 00 11 64 27 90         |     .....d'.   |      [18]: "1979-04-01T01:00:00Z" (291776400) transition_time 0x3b5-0x3bc.7 (8)
0x3b0|                                       00 00 00|             ...|      [19]: "1979-09-30T01:00:00Z" (307501200) transition_time 0x3bd-0x3c4.7 (8)
0x3c0|00 12 54 18 90                                 |..T..           |
0x3c0|               00 00 00 00 13 4d 44 10         |     .....MD.   |      [20]: "1980-04-06T01:00:00Z" (323830800) transition_time 0x3c5-0x3cc.7 (8)
0x3c0|                                       00 00 00|             ...|      [21]: "1980-09-28T01:00:00Z" (338950800) transition_time 0x3cd-0x3d4.7 (8)
0x3d0|00 14 33 fa 90                                 |..3..           |
0x3d0|               00 00 00 00 15 23 eb 90         |     .....#..   |      [22]: "1981-03-29T01:00:00Z" (354675600) transition_time 0x3d5-0x3dc.7 (8)
0x3d0|                                       00 00 00|             ...|      [23]: "1981-09-27T01:00:00Z" (370400400) transition_time 0x3dd-0x3e4.7 (8)
0x3e0|00 16 13 dc 90                                 |.....           |
0x3e0|               00 00 00 00 17 03 cd 90         |     ........   |      [24]: "1982-03-28T01:00:00Z" (386125200) transition_time 0x3e5-0x3ec.7 (8)
0x3e0|                                       00 00 00|             ...|      [25]: "1982-09-26T01:00:00Z" (401850000) transition_time 0x3ed-0x3f4.7 (8)
0x3f0|00 17 f3 be 90                                 |.....           |
0x3f0|               00 00 00 00 18 e3 af 90         |     ........   |      [26]: "1983-03-27T01:00:00Z" (417574800) transition_time 0x3f5-0x3fc.7 (8)
0x3f0|                                       00 00 00|             ...|      [27]: "1983-09-25T01:00:00Z" (433299600) transition_time 0x3fd-0x404.7 (8)
0x400|00 19 d3 a0 90                                 |.....           |
0x400|               00 00 00 00 1a c3 91 90         |     ........   |      [28]: "1984-03-25T01:00:00Z" (449024400) transition_time 0x405-0x40c.7 (8)
0x400|                                       00 00 00|             ...|      [29]: "1984-09-30T01:00:00Z" (465354000) transition_time 0x40d-0x414.7 (8)
0x410|00 1b bc bd 10                                 |.....           |
0x410|               00 00 00 00 1c ac ae 10         |     ........   |      [30]: "1985-03-31T01:00:00Z" (481078800) transition_time 0x415-0x41c.7 (8)
0x410|                                       00 00 00|             ...|      [31]: "1985-09-29T01:00:00Z" (496803600) transition_time 0x41d-0x424.7 (8)
0x420|00 1d 9c 9f 10                                 |.....           |
0x420|               00 00 00 00 1e 8c 90 10         |     ........   |      [32]: "1986-03-30T01:00:00Z" (512528400) transition_time 0x425-0x42c.7 (8)
0x420|                                       00 00 00|             ...|      [33]: "1986-09-28T01:00:00Z" (528253200) transition_time 0x42d-0x434.7 (8)
0x430|00 1f 7c 81 10                                 |..|..           |
0x430|               00 00 00 00 20 6c 72 10         |     .... lr.   |      [34]: "1987-03-29T01:00:00Z" (543978000) transition_time 0x435-0x43c.7 (8)
0x430|                                       00 00 00|             ...|      [35]: "1987-09-27T01:00:00Z" (559702800) transition_time 0x43d-0x444.7 (8)
0x440|00 21 5c 63 10                                 |.!\c.           |
0x440|               00 00 00 00 22 4c 54 10         |     ...."LT.   |      [36]: "1988-03-27T01:00:00Z" (575427600) transition_time 0x445-0x44c.7 (8)
0x440|                                       00 00 00|             ...|      [37]: "1988-09-25T01:00:00Z" (591152400) transition_time 0x44d-0x454.7 (8)
0x450|00 23 3c 45 10                                 |.#<E.           |
0x450|               00 00 00 00 24 2c 36 10         |     ....$,6.   |      [38]: "1989-03-26T01:00:00Z" (606877200) transition_time 0x455-0x45c.7 (8)
0x450|                                       00 00 00|             ...|      [39]: "1989-09-24T01:00:00Z" (622602000) transition_time 0x45d-0x464.7 (8)
0x460|00 25 1c 27 10                                 |.%.'.           |
0x460|               00 00 00 00 26 0c 18 10         |     ....&...   |      [40]: "1990-03-25T01:00:00Z" (638326800) transition_time 0x465-0x46c.7 (8)
0x460|                                       00 00 00|             ...|      [41]: "1990-09-30T01:00:00Z" (654656400) transition_time 0x46d-0x474.7 (8)
0x470|00 27 05 43 90                                 |.'.C.           |
0x470|               00 00 00 00 27 f5 34 90         |     ....'.4.   |      [42]: "1991-03-31T01:00:00Z" (670381200) transition_time 0x475-0x47c.7 (8)
0x470|                                       00 00 00|             ...|      [43]: "1991-09-29T01:00:00Z" (686106000) transition_time 0x47d-0x484.7 (8)
0x480|00 28 e5 25 90                                 |.(.%.           |
0x480|               00 00 00 00 29 d5 16 90         |     ....)...   |      [44]: "1992-03-29T01:00:00Z" (701830800) transition_time 0x485-0x48c.7 (8)
0x480|                                       00 00 00|             ...|      [45]: "1992-09-27T01:00:00Z" (717555600) transition_time 0x48d-0x494.7 (8)
0x490|00 2a c5 07 90                                 |.*...           |
0x490|               00 00 00 00 2b b4 f8 90         |     ....+...   |      [46]: "1993-03-28T01:00:00Z" (733280400) transition_time 0x495-0x49c.7 (8)
0x490|                                       00 00 00|             ...|      [47]: "1993-09-26T01:00:00Z" (749005200) transition_time 0x49d-0x4a4.7 (8)
0x4a0|00 2c a4 e9 90                                 |.,...           |
0x4a0|               00 00 00 00 2d 94 da 90         |     ....-...   |      [48]: "1994-03-27T01:00:00Z" (764730000) transition_time 0x4a5-0x4ac.7 (8)
0x4a0|                                       00 00 00|             ...|      [49]: "1994-09-25T01:00:00Z" (780454800) transition_time 0x4ad-0x4b4.7 (8)
0x4b0|00 2e 84 cb 90                                 |.....           |
0x4b0|               00 00 00 00 2f 74 bc 90         |     ..../t..   |      [50]: "1995-03-26T01:00:00Z" (796179600) transition_time 0x4b5-0x4bc.7 (8)
0x4b0|                                       00 00 00|             ...|      [51]: "1995-09-24T01:00:00Z" (811904400) transition_time 0x4bd-0x4c4.7 (8)
0x4c0|00 30 64 ad 90                                 |.0d..           |
0x4c0|               00 00 00 00 31 5d d9 10         |     ....1]..   |      [52]: "1996-03-31T01:00:00Z" (828234000) transition_time 0x4c5-0x4cc.7 (8)
0x4c0|                                       00 00 00|             ...|      [53]: "1996-10-27T01:00:00Z" (846378000) transition_time 0x4cd-0x4d4.7 (8)
0x4d0|00 32 72 b4 10                                 |.2r..           |
0x4d0|               00 00 00 00 33 3d bb 10         |     ....3=..   |      [54]: "1997-03-30T01:00:00Z" (859683600) transition_time 0x4d5-0x4dc.7 (8)
0x4d0|                                       00 00 00|             ...|      [55]: "1997-10-26T01:00:00Z" (877827600) transition_time 0x4dd-0x4e4.7 (8)
0x4e0|00 34 52 96 10                                 |.4R..           |
0x4e0|               00 00 00 00 35 1d 9d 10         |     ....5...   |      [56]: "1998-03-29T01:00:00Z" (891133200) transition_time 0x4e5-0x4ec.7 (8)
0x4e0|                                       00 00 00|             ...|      [57]: "1998-10-25T01:00:00Z" (909277200) transition_time 0x4ed-0x4f4.7 (8)
0x4f0|00 36 32 78 10                                 |.62x.           |
0x4f0|               00 00 00 00 36 fd 7f 10         |     ....6...   |      [58]: "1999-03-28T01:00:00Z" (922582800) transition_time 0x4f5-0x4fc.7 (8)
0x4f0|                                       00 00 00|             ...|      [59]: "1999-10-31T01:00:00Z" (941331600) transition_time 0x4fd-0x504.7 (8)
0x500|00 38 1b 94 90                                 |.8...           |
0x500|               00 00 00 00 38 dd 61 10         |     ....8.a.   |      [60]: "2000-03-26T01:00:00Z" (954032400) transition_time 0x505-0x50c.7 (8)
0x500|                                       00 00 00|             ...|      [61]: "2000-10-29T01:00:00Z" (972781200) transition_time 0x50d-0x514.7 (8)
0x510|00 39 fb 76 90                                 |.9.v.           |
0x510|               00 00 00 00 3a bd 43 10         |     ....:.C.   |      [62]: "2001-03-25T01:00:00Z" (985482000) transition_time 0x515-0x51c.7 (8)
0x510|                                       00 00 00|             ...|      [63]: "2001-10-28T01:00:00Z" (1004230800) transition_time 0x51d-0x524.7 (8)
0x520|00 3b db 58 90                                 |.;.X.           |
0x520|               00 00 00 00 3c a6 5f 90         |     ....<._.   |      [64]: "2002-03-31T01:00:00Z" (1017536400) transition_time 0x525-0x52c.7 (8)
0x520|                                       00 00 00|             ...|      [65]: "2002-10-27T01:00:00Z" (1035680400) transition_time 0x52d-0x534.7 (8)
0x530|00 3d bb 3a 90                                 |.=.:.           |
0x530|               00 00 00 00 3e 86 41 90         |     ....>.A.   |      [66]: "2003-03-30T01:00:00Z" (1048986000) transition_time 0x535-0x53c.7 (8)
0x530|                                       00 00 00|             ...|      [67]: "2003-10-26T01:00:00Z" (1067130000) transition_time 0x53d-0x544.7 (8)
0x540|00 3f 9b 1c 90                                 |.?...           |
0x540|               00 00 00 00 40 66 23 90         |     ....@f#.   |      [68]: "2004-03-28T01:00:00Z" (1080435600) transition_time 0x545-0x54c.7 (8)
0x540|                                       00 00 00|             ...|      [69]: "2004-10-31T01:00:00Z" (1099184400) transition_time 0x54d-0x554.7 (8)
0x550|00 41 84 39 10                                 |.A.9.           |
0x550|               00 00 00 00 42 46 05 90         |     ....BF..   |      [70]: "2005-03-27T01:00:00Z" (1111885200) transition_time 0x555-0x55c.7 (8)
0x550|                                       00 00 00|             ...|      [71]: "2005-10-30T01:00:00Z" (1130634000) transition_time 0x55d-0x564.7 (8)
0x560|00 43 64 1b 10                                 |.Cd..           |
0x560|               00 00 00 00 44 25 e7 90         |     ....D%..   |      [72]: "2006-03-26T01:00:00Z" (1143334800) transition_time 0x565-0x56c.7 (8)
0x560|                                       00 00 00|             ...|      [73]: "2006-10-29T01:00:00Z" (1162083600) transition_time 0x56d-0x574.7 (8)
0x570|00 45 43 fd 10                                 |.EC..           |
0x570|               00 00 00 00 46 05 c9 90         |     ....F...   |      [74]: "2007-03-25T01:00:00Z" (1174784400) transition_time 0x575-0x57c.7 (8)
0x570|                                       00 00 00|             ...|      [75]: "2007-10-28T01:00:00Z" (1193533200) transition_time 0x57d-0x584.7 (8)
0x580|00 47 23 df 10                                 |.G#..           |
0x580|               00 00 00 00 47 ee e6 10         |     ....G...   |      [76]: "2008-03-30T01:00:00Z" (1206838800) transition_time 0x585-0x58c.7 (8)
0x580|                                       00 00 00|             ...|      [77]: "2008-10-26T01:00:00Z" (1224982800) transition_time 0x58d-0x594.7 (8)
0x590|00 49 03 c1 10                                 |.I...           |
0x590|               00 00 00 00 49 ce c8 10         |     ....I...   |      [78]: "2009-03-29T01:00:00Z" (1238288400) transition_time 0x595-0x59c.7 (8)
0x590|                                       00 00 00|             ...|      [79]: "2009-10-25T01:00:00Z" (1256432400) transition_time 0x59d-0x5a4.7 (8)
0x5a0|00 4a e3 a3 10                                 |.J...           |
0x5a0|               00 00 00 00 4b ae aa 10         |     ....K...   |      [80]: "2010-03-28T01:00:00Z" (1269738000) transition_time 0x5a5-0x5ac.7 (8)
0x5a0|                                       00 00 00|             ...|      [81]: "2010-10-31T01:00:00Z" (1288486800) transition_time 0x5ad-0x5b4.7 (8)
0x5b0|00 4c cc bf 90                                 |.L...           |
0x5b0|               00 00 00 00 4d 8e 8c 10         |     ....M...   |      [82]: "2011-03-27T01:00:00Z" (1301187600) transition_time 0x5b5-0x5bc.7 (8)
0x5b0|                                       00 00 00|             ...|      [83]: "2011-10-30T01:00:00Z" (1319936400) transition_time 0x5bd-0x5c4.7 (8)
0x5c0|00 4e ac a1 90                                 |.N...           |
0x5c0|               00 00 00 00 4f 6e 6e 10         |     ....Onn.   |      [84]: "2012-03-25T01:00:00Z" (1332637200) transition_time 0x5c5-0x5cc.7 (8)
0x5c0|                                       00 00 00|             ...|      [85]: "2012-10-28T01:00:00Z" (1351386000) transition_time 0x5cd-0x5d4.7 (8)
0x5d0|00 50 8c 83 90                                 |.P...           |
0x5d0|               00 00 00 00 51 57 8a 90         |     ....QW..   |      [86]: "2013-03-31T01:00:00Z" (1364691600) transition_time 0x5d5-0x5dc.7 (8)
0x5d0|                                       00 00 00|             ...|      [87]: "2013-10-27T01:00:00Z" (1382835600) transition_time 0x5dd-0x5e4.7 (8)
0x5e0|00 52 6c 65 90                                 |.Rle.           |
0x5e0|               00 00 00 00 53 37 6c 90         |     ....S7l.   |      [88]: "2014-03-30T01:00:00Z" (1396141200) transition_time 0x5e5-0x5ec.7 (8)
0x5e0|                                       00 00 00|             ...|      [89]: "2014-10-26T01:00:00Z" (1414285200) transition_time 0x5ed-0x5f4.7 (8)
0x5f0|00 54 4c 47 90                                 |.TLG.           |
0x5f0|               00 00 00 00 55 17 4e 90         |     ....U.N.   |      [90]: "2015-03-29T01:00:00Z" (1427590800) transition_time 0x5f5-0x5fc.7 (8)
0x5f0|                                       00 00 00|             ...|      [91]: "2015-10-25T01:00:00Z" (1445734800) transition_time 0x5fd-0x604.7 (8)
0x600|00 56 2c 29 90                                 |.V,).           |
0x600|               00 00 00 00 56 f7 30 90         |     ....V.0.   |      [92]: "2016-03-27T01:00:00Z" (1459040400) transition_time 0x605-0x60c.7 (8)
0x600|                                       00 00 00|             ...|      [93]: "2016-10-30T01:00:00Z" (1477789200) transition_time 0x60d-0x614.7 (8)
0x610|00 58 15 46 10                                 |.X.F.           |
0x610|               00 00 00 00 58 d7 12 90         |     ....X...   |      [94]: "2017-03-26T01:00:00Z" (1490490000) transition_time 0x615-0x61c.7 (8)
0x610|                                       00 00 00|             ...|      [95]: "2017-10-29T01:00:00Z" (1509238800) transition_time 0x61d-0x624.7 (8)
0x620|00 59 f5 28 10                                 |.Y.(.           |
0x620|               00 00 00 00 5a b6 f4 90         |     ....Z...   |      [96]: "2018-03-25T01:00:00Z" (1521939600) transition_time 0x625-0x62c.7 (8)
0x620|                                       00 00 00|             ...|      [97]: "2018-10-28T01:00:00Z" (1540688400) transition_time 0x62d-0x634.7 (8)
0x630|00 5b d5 0a 10                                 |.[...           |
0x630|               00 00 00 00 5c a0 11 10         |     ....\...   |      [98]: "2019-03-31T01:00:00Z" (1553994000) transition_time 0x635-0x63c.7 (8)
0x630|                                       00 00 00|             ...|      [99]: "2019-10-27T01:00:00Z" (1572138000) transition_time 0x63d-0x644.7 (8)
0x640|00 5d b4 ec 10                                 |.]...           |
0x640|               00 00 00 00 5e 7f f3 10         |     ....^...   |      [100]: "2020-03-29T01:00:00Z" (1585443600) transition_time 0x645-0x64c.7 (8)
0x640|                                       00 00 00|             ...|      [101]: "2020-10-25T01:00:00Z" (1603587600) transition_time 0x64d-0x654.7 (8)
0x650|00 5f 94 ce 10                                 |._...           |
0x650|               00 00 00 00 60 5f d5 10         |     ....`_..   |      [102]: "2021-03-28T01:00:00Z" (1616893200) transition_time 0x655-0x65c.7 (8)
0x650|                                       00 00 00|             ...|      [103]: "2021-10-31T01:00:00Z" (1635642000) transition_time 0x65d-0x664.7 (8)
0x660|00 61 7d ea 90                                 |.a}..           |
0x660|               00 00 00 00 62 3f b7 10         |     ....b?..   |      [104]: "2022-03-27T01:00:00Z" (1648342800) transition_time 0x665-0x66c.7 (8)
0x660|                                       00 00 00|             ...|      [105]: "2022-10-30T01:00:00Z" (1667091600) transition_time 0x66d-0x674.7 (8)
0x670|00 63 5d cc 90                                 |.c]..           |
0x670|               00 00 00 00 64 1f 99 10         |     ....d...   |      [106]: "2023-03-26T01:00:00Z" (1679792400) transition_time 0x675-0x67c.7 (8)
0x670|                                       00 00 00|             ...|      [107]: "2023-10-29T01:00:00Z" (1698541200) transition_time 0x67d-0x684.7 (8)
0x680|00 65 3d ae 90                                 |.e=..           |
0x680|               00 00 00 00 66 08 b5 90         |     ....f...   |      [108]: "2024-03-31T01:00:00Z" (1711846800) transition_time 0x685-0x68c.7 (8)
0x680|                                       00 00 00|             ...|      [109]: "2024-10-27T01:00:00Z" (1729990800) transition_time 0x68d-0x694.7 (8)
0x690|00 67 1d 90 90                                 |.g...           |
0x690|               00 00 00 00 67 e8 97 90         |     ....g...   |      [110]: "2025-03-30T01:00:00Z" (1743296400) transition_time 0x695-0x69c.7 (8)
0x690|                                       00 00 00|             ...|      [111]: "2025-10-26T01:00:00Z" (1761440400) transition_time 0x69d-0x6a4.7 (8)
0x6a0|00 68 fd 72 90                                 |.h.r.           |
0x6a0|               00 00 00 00 69 c8 79 90         |     ....i.y.   |      [112]: "2026-03-29T01:00:00Z" (1774746000) transition_time 0x6a5-0x6ac.7 (8)
0x6a0|                                       00 00 00|             ...|      [113]: "2026-10-25T01:00:00Z" (1792890000) transition_time 0x6ad-0x6b4.7 (8)
0x6b0|00 6a dd 54 90                                 |.j.T.           |
0x6b0|               00 00 00 00 6b a8 5b 90         |     ....k.[.   |      [114]: "2027-03-28T01:00:00Z" (1806195600) transition_time 0x6b5-0x6bc.7 (8)
0x6b0|                                       00 00 00|             ...|      [115]: "2027-10-31T01:00:00Z" (1824944400) transition_time 0x6bd-0x6c4.7 (8)
0x6c0|00 6c c6 71 10                                 |.l.q.           |
0x6c0|               00 00 00 00 6d 88 3d 90         |     ....m.=.   |      [116]: "2028-03-26T01:00:00Z" (1837645200) transition_time 0x6c5-0x6cc.7 (8)
0x6c0|                                       00 00 00|             ...|      [117]: "2028-10-29T01:00:00Z" (1856394000) transition_time 0x6cd-0x6d4.7 (8)
0x6d0|00 6e a6 53 10                                 |.n.S.           |
0x6d0|               00 00 00 00 6f 68 1f 90         |     ....oh..   |      [118]: "2029-03-25T01:00:00Z" (1869094800) transition_time 0x6d5-0x6dc.7 (8)
0x6d0|                                       00 00 00|             ...|      [119]: "2029-10-28T01:00:00Z" (1887843600) transition_time 0x6dd-0x6e4.7 (8)
0x6e0|00 70 86 35 10                                 |.p.5.           |
0x6e0|               00 00 00 00 71 51 3c 10         |     ....qQ<.   |      [120]: "2030-03-31T01:00:00Z" (1901149200) transition_time 0x6e5-0x6ec.7 (8)
0x6e0|                                       00 00 00|             ...|      [121]: "2030-10-27T01:00:00Z" (1919293200) transition_time 0x6ed-0x6f4.7 (8)
0x6f0|00 72 66 17 10                                 |.rf..           |
0x6f0|               00 00 00 00 73 31 1e 10         |     ....s1..   |      [122]: "2031-03-30T01:00:00Z" (1932598800) transition_time 0x6f5-0x6fc.7 (8)
0x6f0|                                       00 00 00|             ...|      [123]: "2031-10-26T01:00:00Z" (1950742800) transition_time 0x6fd-0x704.7 (8)
0x700|00 74 45 f9 10                                 |.tE..           |
0x700|               00 00 00 00 75 11 00 10         |     ....u...   |      [124]: "2032-03-28T01:00:00Z" (1964048400) transition_time 0x705-0x70c.7 (8)
0x700|                                       00 00 00|             ...|      [125]: "2032-10-31T01:00:00Z" (1982797200) transition_time 0x70d-0x714.7 (8)
0x710|00 76 2f 15 90                                 |.v/..           |
0x710|               00 00 00 00 76 f0 e2 10         |     ....v...   |      [126]: "2033-03-27T01:00:00Z" (1995498000) transition_time 0x715-0x71c.7 (8)
0x710|                                       00 00 00|             ...|      [127]: "2033-10-30T01:00:00Z" (2014246800) transition_time 0x71d-0x724.7 (8)
0x720|00 78 0e f7 90                                 |.x...           |
0x720|               00 00 00 00 78 d0 c4 10         |     ....x...   |      [128]: "2034-03-26T01:00:00Z" (2026947600) transition_time 0x725-0x72c.7 (8)
0x720|                                       00 00 00|             ...|      [129]: "2034-10-29T01:00:00Z" (2045696400) transition_time 0x72d-0x734.7 (8)
0x730|00 79 ee d9 90                                 |.y...           |
0x730|               00 00 00 00 7a b0 a6 10         |     ....z...   |      [130]: "2035-03-25T01:00:00Z" (2058397200) transition_time 0x735-0x73c.7 (8)
0x730|                                       00 00 00|             ...|      [131]: "2035-10-28T01:00:00Z" (2077146000) transition_time 0x73d-0x744.7 (8)
0x740|00 7b ce bb 90                                 |.{...           |
0x740|               00 00 00 00 7c 99 c2 90         |     ....|...   |      [132]: "2036-03-30T01:00:00Z" (2090451600) transition_time 0x745-0x74c.7 (8)
0x740|                                       00 00 00|             ...|      [133]: "2036-10-26T01:00:00Z" (2108595600) transition_time 0x74d-0x754.7 (8)
0x750|00 7d ae 9d 90                                 |.}...           |
0x750|               00 00 00 00 7e 79 a4 90         |     ....~y..   |      [134]: "2037-03-29T01:00:00Z" (2121901200) transition_time 0x755-0x75c.7 (8)
0x750|                                       00 00 00|             ...|      [135]: "2037-10-25T01:00:00Z" (2140045200) transition_time 0x75d-0x764.7 (8)
0x760|00 7f 8e 7f 90                                 |.....           |
     |                                               |                |    transition_types[0:136]: 0x765-0x7ec.7 (136)
0x760|               01                              |     .          |      [0]: 1 transition_type 0x765-0x765.7 (1)
0x760|                  00                           |      .         |      [1]: 0 transition_type 0x766-0x766.7 (1)
0x760|                     02                        |       .        |      [2]: 2 transition_type 0x767-0x767.7 (1)
0x760|                        03                     |        .       |      [3]: 3 transition_type 0x768-0x768.7 (1)
0x760|                           02                  |         .      |      [4]: 2 transition_type 0x769-0x769.7 (1)
0x760|                              03               |          .     |      [5]: 3 transition_type 0x76a-0x76a.7 (1)
0x760|                                 02            |           .    |      [6]: 2 transition_type 0x76b-0x76b.7 (1)
0x760|                                    03         |            .   |      [7]: 3 transition_type 0x76c-0x76c.7 (1)
0x760|                                       02      |             .  |      [8]: 2 transition_type 0x76d-0x76d.7 (1)
0x760|                                          03   |              . |      [9]: 3 transition_type 0x76e-0x76e.7 (1)
0x760|                                             02|               .|      [10]: 2 transition_type 0x76f-0x76f.7 (1)
0x770|03                                             |.               |      [11]: 3 transition_type 0x770-0x770.7 (1)
0x770|   02                                          | .              |      [12]: 2 transition_type 0x771-0x771.7 (1)
0x770|      03                                       |  .             |      [13]: 3 transition_type 0x772-0x772.7 (1)
0x770|         02                                    |   .            |      [14]: 2 transition_type 0x773-0x773.7 (1)
0x770|            03                                 |    .           |      [15]: 3 transition_type 0x774-0x774.7 (1)
0x770|               02                              |     .          |      [16]: 2 transition_type 0x775-0x775.7 (1)
0x770|                  03                           |      .         |      [17]: 3 transition_type 0x776-0x776.7 (1)
0x770|                     02                        |       .        |      [18]: 2 transition_type 0x777-0x777.7 (1)
0x770|                        03                     |        .       |      [19]: 3 transition_type 0x778-0x778.7 (1)
0x770|                           02                  |         .      |      [20]: 2 transition_type 0x779-0x779.7 (1)
0x770|                              03               |          .     |      [21]: 3 transition_type 0x77a-0x77a.7 (1)
0x770|                                 02            |           .    |      [22]: 2 transition_type 0x77b-0x77b.7 (1)
0x770|                                    03         |            .   |      [23]: 3 transition_type 0x77c-0x77c.7 (1)
0x770|                                       02      |             .  |      [24]: 2 transition_type 0x77d-0x77d.7 (1)
0x770|                                          03   |              . |      [25]: 3 transition_type 0x77e-0x77e.7 (1)
0x770|                                             02|               .|      [26]: 2 transition_type 0x77f-0x77f.7 (1)
0x780|03                                             |.               |      [27]: 3 transition_type 0x780-0x780.7 (1)
0x780|   02                                          | .              |      [28]: 2 transition_type 0x781-0x781.7 (1)
0x780|      03                                       |  .             |      [29]: 3 transition_type 0x782-0x782.7 (1)
0x780|         02                                    |   .            |      [30]: 2 transition_type 0x783-0x783.7 (1)
0x780|            03                                 |    .           |      [31]: 3 transition_type 0x784-0x784.7 (1)
0x780|               02                              |     .          |      [32]: 2 transition_type 0x785-0x785.7 (1)
0x780|                  03                           |      .         |      [33]: 3 transition_type 0x786-0x786.7 (1)
0x780|                     02                        |       .        |      [34]: 2 transition_type 0x787-0x787.7 (1)
0x780|                        03                     |        .       |      [35]: 3 transition_type 0x788-0x788.7 (1)
0x780|                           02                  |         .      |      [36]: 2 transition_type 0x789-0x789.7 (1)
0x780|                              03               |          .     |      [37]: 3 transition_type 0x78a-0x78a.7 (1)
0x780|                                 02            |           .    |      [38]: 2 transition_type 0x78b-0x78b.7 (1)
0x780|                                    03         |            .   |      [39]: 3 transition_type 0x78c-0x78c.7 (1)
0x780|                                       02      |             .  |      [40]: 2 transition_type 0x78d-0x78d.7 (1)
0x780|                                          03   |              . |      [41]: 3 transition_type 0x78e-0x78e.7 (1)
0x780|                                             02|               .|      [42]: 2 transition_type 0x78f-0x78f.7 (1)
0x790|03                                             |.               |      [43]: 3 transition_type 0x790-0x790.7 (1)
0x790|   02                                          | .              |      [44]: 2 transition_type 0x791-0x791.7 (1)
0x790|      03                                       |  .             |      [45]: 3 transition_type 0x792-0x792.7 (1)
0x790|         02                                    |   .            |      [46]: 2 transition_type 0x793-0x793.7 (1)
0x790|            03                                 |    .           |      [47]: 3 transition_type 0x794-0x794.7 (1)
0x790|               02                              |     .          |      [48]: 2 transition_type 0x795-0x795.7 (1)
0x790|                  03                           |      .         |      [49]: 3 transition_type 0x796-0x796.7 (1)
0x790|                     02                        |       .        |      [50]: 2 transition_type 0x797-0x797.7 (1)
0x790|                        03                     |        .       |      [51]: 3 transition_type 0x798-0x798.7 (1)
0x790|                           02                  |         .      |      [52]: 2 transition_type 0x799-0x799.7 (1)
0x790|                              03               |          .     |      [53]: 3 transition_type 0x79a-0x79a.7 (1)
0x790|                                 02            |           .    |      [54]: 2 transition_type 0x79b-0x79b.7 (1)
0x790|                                    03         |            .   |      [55]: 3 transition_type 0x79c-0x79c.7 (1)
0x790|                                       02      |             .  |      [56]: 2 transition_type 0x79d-0x79d.7 (1)
0x790|                                          03   |              . |      [57]: 3 transition_type 0x79e-0x79e.7 (1)
0x790|                                             02|               .|      [58]: 2 transition_type 0x79f-0x79f.7 (1)
0x7a0|03                                             |.               |      [59]: 3 transition_type 0x7a0-0x7a0.7 (1)
0x7a0|   02                                          | .              |      [60]: 2 transition_type 0x7a1-0x7a1.7 (1)
0x7a0|      03                                       |  .             |      [61]: 3 transition_type 0x7a2-0x7a2.7 (1)
0x7a0|         02                                    |   .            |      [62]: 2 transition_type 0x7a3-0x7a3.7 (1)
0x7a0|            03                                 |    .           |      [63]: 3 transition_type 0x7a4-0x7a4.7 (1)
0x7a0|               02                              |     .          |      [64]: 2 transition_type 0x7a5-0x7a5.7 (1)
0x7a0|                  03                           |      .         |      [65]: 3 transition_type 0x7a6-0x7a6.7 (1)
0x7a0|                     02                        |       .        |      [66]: 2 transition_type 0x7a7-0x7a7.7 (1)
0x7a0|                        03                     |        .       |      [67]: 3 transition_type 0x7a8-0x7a8.7 (1)
0x7a0|                           02                  |         .      |      [68]: 2 transition_type 0x7a9-0x7a9.7 (1)
0x7a0|                              03               |          .     |      [69]: 3 transition_type 0x7aa-0x7aa.7 (1)
0x7a0|                                 02            |           .    |      [70]: 2 transition_type 0x7ab-0x7ab.7 (1)
0x7a0|                                    03         |            .   |      [71]: 3 transition_type 0x7ac-0x7ac.7 (1)
0x7a0|                                       02      |             .  |      [72]: 2 transition_type 0x7ad-0x7ad.7 (1)
0x7a0|                                          03   |              . |      [73]: 3 transition_type 0x7ae-0x7ae.7 (1)
0x7a0|                                             02|               .|      [74]: 2 transition_type 0x7af-0x7af.7 (1)
0x7b0|03                                             |.               |      [75]: 3 transition_type 0x7b0-0x7b0.7 (1)
0x7b0|   02                                          | .              |      [76]: 2 transition_type 0x7b1-0x7b1.7 (1)
0x7b0|      03                                       |  .             |      [77]: 3 transition_type 0x7b2-0x7b2.7 (1)
0x7b0|         02                                    |   .            |      [78]: 2 transition_type 0x7b3-0x7b3.7 (1)
0x7b0|            03                                 |    .           |      [79]: 3 transition_type 0x7b4-0x7b4.7 (1)
0x7b0|               02                              |     .          |      [80]: 2 transition_type 0x7b5-0x7b5.7 (1)
0x7b0|                  03                           |      .         |      [81]: 3 transition_type 0x7b6-0x7b6.7 (1)
0x7b0|                     02                        |       .        |      [82]: 2 transition_type 0x7b7-0x7b7.7 (1)
0x7b0|                        03                     |        .       |      [83]: 3 transition_type 0x7b8-0x7b8.7 (1)
0x7b0|                           02                  |         .      |      [84]: 2 transition_type 0x7b9-0x7b9.7 (1)
0x7b0|                              03               |          .     |      [85]: 3 transition_type 0x7ba-0x7ba.7 (1)
0x7b0|                                 02            |           .    |      [86]: 2 transition_type 0x7bb-0x7bb.7 (1)
0x7b0|                                    03         |            .   |      [87]: 3 transition_type 0x7bc-0x7bc.7 (1)
0x7b0|                                       02      |             .  |      [88]: 2 transition_type 0x7bd-0x7bd.7 (1)
0x7b0|                                          03   |              . |      [89]: 3 transition_type 0x7be-0x7be.7 (1)
0x7b0|                                             02|               .|      [90]: 2 transition_type 0x7bf-0x7bf.7 (1)
0x7c0|03                                             |.               |      [91]: 3 transition_type 0x7c0-0x7c0.7 (1)
0x7c0|   02                                          | .              |      [92]: 2 transition_type 0x7c1-0x7c1.7 (1)
0x7c0|      03                                       |  .             |      [93]: 3 transition_type 0x7c2-0x7c2.7 (1)
0x7c0|         02                                    |   .            |      [94]: 2 transition_type 0x7c3-0x7c3.7 (1)
0x7c0|            03                                 |    .           |      [95]: 3 transition_type 0x7c4-0x7c4.7 (1)
0x7c0|               02                              |     .          |      [96]: 2 transition_type 0x7c5-0x7c5.7 (1)
0x7c0|                  03                           |      .         |      [97]: 3 transition_type 0x7c6-0x7c6.7 (1)
0x7c0|                     02                        |       .        |      [98]: 2 transition_type 0x7c7-0x7c7.7 (1)
0x7c0|                        03                     |        .       |      [99]: 3 transition_type 0x7c8-0x7c8.7 (1)
0x7c0|                           02                  |         .      |      [100]: 2 transition_type 0x7c9-0x7c9.7 (1)
0x7c0|                              03               |          .     |      [101]: 3 transition_type 0x7ca-0x7ca.7 (1)
0x7c0|                                 02            |           .    |      [102]: 2 transition_type 0x7cb-0x7cb.7 (1)
0x7c0|                                    03         |            .   |      [103]: 3 transition_type 0x7cc-0x7cc.7 (1)
0x7c0|                                       02      |             .  |      [104]: 2 transition_type 0x7cd-0x7cd.7 (1)
0x7c0|                                          03   |              . |      [105]: 3 transition_type 0x7ce-0x7ce.7 (1)
0x7c0|                                             02|               .|      [106]: 2 transition_type 0x7cf-0x7cf.7 (1)
0x7d0|03                                             |.               |      [107]: 3 transition_type 0x7d0-0x7d0.7 (1)
0x7d0|   02                                          | .              |      [108]: 2 transition_type 0x7d1-0x7d1.7 (1)
0x7d0|      03                                       |  .             |      [109]: 3 transition_type 0x7d2-0x7d2.7 (1)
0x7d0|         02                                    |   .            |      [110]: 2 transition_type 0x7d3-0x7d3.7 (1)
0x7d0|            03                                 |    .           |      [111]: 3 transition_type 0x7d4-0x7d4.7 (1)
0x7d0|               02                              |     .          |      [112]: 2 transition_type 0x7d5-0x7d5.7 (1)
0x7d0|                  03                           |      .         |      [113]: 3 transition_type 0x7d6-0x7d6.7 (1)
0x7d0|                     02                        |       .        |      [114]: 2 transition_type 0x7d7-0x7d7.7 (1)
0x7d0|                        03                     |        .       |      [115]: 3 transition_type 0x7d8-0x7d8.7 (1)
0x7d0|                           02                  |         .      |      [116]: 2 transition_type 0x7d9-0x7d9.7 (1)
0x7d0|                              03               |          .     |      [117]: 3 transition_type 0x7da-0x7da.7 (1)
0x7d0|                                 02            |           .    |      [118]: 2 transition_type 0x7db-0x7db.7 (1)
0x7d0|                                    03         |            .   |      [119]: 3 transition_type 0x7dc-0x7dc.7 (1)
0x7d0|                                       02      |             .  |      [120]: 2 transition_type 0x7dd-0x7dd.7 (1)
0x7d0|                                          03   |              . |      [121]: 3 transition_type 0x7de-0x7de.7 (1)
0x7d0|                                             02|               .|      [122]: 2 transition_type 0x7df-0x7df.7 (1)
0x7e0|03                                             |.               |      [123]: 3 transition_type 0x7e0-0x7e0.7 (1)
0x7e0|   02                                          | .              |      [124]: 2 transition_type 0x7e1-0x7e1.7 (1)
0x7e0|      03                                       |  .             |      [125]: 3 transition_type 0x7e2-0x7e2.7 (1)
0x7e0|         02                                    |   .            |      [126]: 2 transition_type 0x7e3-0x7e3.7 (1)
0x7e0|            03                                 |    .           |      [127]: 3 transition_type 0x7e4-0x7e4.7 (1)
0x7e0|               02                              |     .          |      [128]: 2 transition_type 0x7e5-0x7e5.7 (1)
0x7e0|                  03                           |      .         |      [129]: 3 transition_type 0x7e6-0x7e6.7 (1)
0x7e0|                     02                        |       .        |      [130]: 2 transition_type 0x7e7-0x7e7.7 (1)
0x7e0|                        03                     |        .       |      [131]: 3 transition_type 0x7e8-0x7e8.7 (1)
0x7e0|                           02                  |         .      |      [132]: 2 transition_type 0x7e9-0x7e9.7 (1)
0x7e0|                              03               |          .     |      [133]: 3 transition_type 0x7ea-0x7ea.7 (1)
0x7e0|                                 02            |           .    |      [134]: 2 transition_type 0x7eb-0x7eb.7 (1)
0x7e0|                                    03         |            .   |      [135]: 3 transition_type 0x7ec-0x7ec.7 (1)
     |                                               |                |    local_time_type_records[0:4]: 0x7ed-0x804.7 (24)
     |                                               |                |      [0]{}: local_time_type 0x7ed-0x7f2.7 (6)
0x7e0|                                       00 00 0e|             ...|        utoff: 3600 (valid) 0x7ed-0x7f0.7 (4)
0x7f0|10                                             |.               |
0x7f0|   00                                          | .              |        dst: 0 (valid) 0x7f1-0x7f1.7 (1)
0x7f0|      05                                       |  .             |        idx: 5 (valid) 0x7f2-0x7f2.7 (1)
     |                                               |                |      [1]{}: local_time_type 0x7f3-0x7f8.7 (6)
0x7f0|         00 00 1c 20                           |   ...          |        utoff: 7200 (valid) 0x7f3-0x7f6.7 (4)
0x7f0|                     01                        |       .        |        dst: 1 (valid) 0x7f7-0x7f7.7 (1)
0x7f0|                        00                     |        .       |        idx: 0 (valid) 0x7f8-0x7f8.7 (1)
     |                                               |                |      [2]{}: local_time_type 0x7f9-0x7fe.7 (6)
0x7f0|                           00 00 1c 20         |         ...    |        utoff: 7200 (valid) 0x7f9-0x7fc.7 (4)
0x7f0|                                       01      |             .  |        dst: 1 (valid) 0x7fd-0x7fd.7 (1)
0x7f0|                                          00   |              . |        idx: 0 (valid) 0x7fe-0x7fe.7 (1)
     |                                               |                |      [3]{}: local_time_type 0x7ff-0x804.7 (6)
0x7f0|                                             00|               .|        utoff: 3600 (valid) 0x7ff-0x802.7 (4)
0x800|00 0e 10                                       |...             |
0x800|         00                                    |   .            |        dst: 0 (valid) 0x803-0x803.7 (1)
0x800|            05                                 |    .           |        idx: 5 (valid) 0x804-0x804.7 (1)
     |                                               |                |    time_zone_designations[0:2]: 0x805-0x80d.7 (9)
0x800|               4d 45 53 54 00                  |     MEST.      |      [0]: "MEST" time_zone_designation 0x805-0x809.7 (5)
0x800|                              4d 45 54 00      |          MET.  |      [1]: "MET" time_zone_designation 0x80a-0x80d.7 (4)
     |                                               |                |    leap_second_records[0:0]: 0x80e-NA (0)
     |                                               |                |    standard_wall_indicators[0:4]: 0x80e-0x811.7 (4)
0x800|                                          00   |              . |      [0]: 0 standard_wall_indicator (valid) 0x80e-0x80e.7 (1)
0x800|                                             00|               .|      [1]: 0 standard_wall_indicator (valid) 0x80f-0x80f.7 (1)
0x810|01                                             |.               |      [2]: 1 standard_wall_indicator (valid) 0x810-0x810.7 (1)
0x810|   01                                          | .              |      [3]: 1 standard_wall_indicator (valid) 0x811-0x811.7 (1)
     |                                               |                |    ut_local_indicators[0:0]: 0x812-NA (0)
     |                                               |                |  footer{}: 0x812-0x82d.7 (28)
0x810|      0a                                       |  .             |    nl1: 10 (valid) 0x812-0x812.7 (1)
0x810|         4d 45 54 2d 31 4d 45 53 54 2c 4d 33 2e|   MET-1MEST,M3.|    tz_string: "MET-1MEST,M3.5.0,M10.5.0/3" 0x813-0x82c.7 (26)
0x820|35 2e 30 2c 4d 31 30 2e 35 2e 30 2f 33         |5.0,M10.5.0/3   |
0x820|                                       0a|     |             .| |    nl2: 10 (valid) 0x82d-0x82d.7 (1)
