$ fq -d tzif dv Metlakatla
     |00 01 02 03 04 05 06 07 08 09 0a 0b 0c 0d 0e 0f|0123456789abcdef|.{}: Metlakatla (tzif) 0x0-0x60b (1547)
     |                                               |                |  v1header{}: 0x0-0x2c (44)
0x000|54 5a 69 66                                    |TZif            |    magic: 0x545a6966 (valid) 0x0-0x4 (4)
0x000|            32                                 |    2           |    ver: "2" (0x32) (valid) 0x4-0x5 (1)
0x000|               00 00 00 00 00 00 00 00 00 00 00|     ...........|    reserved: raw bits 0x5-0x14 (15)
0x010|00 00 00 00                                    |....            |
0x010|            00 00 00 07                        |    ....        |    isutcnt: 7 0x14-0x18 (4)
0x010|                        00 00 00 07            |        ....    |    isstdcnt: 7 0x18-0x1c (4)
0x010|                                    00 00 00 1b|            ....|    leapcnt: 27 0x1c-0x20 (4)
0x020|00 00 00 34                                    |...4            |    timecnt: 52 0x20-0x24 (4)
0x020|            00 00 00 07                        |    ....        |    typecnt: 7 0x24-0x28 (4)
0x020|                        00 00 00 1e            |        ....    |    charcnt: 30 0x28-0x2c (4)
     |                                               |                |  v1datablock{}: 0x2c-0x25e (562)
     |                                               |                |    transition_times[0:52]: 0x2c-0xfc (208)
0x020|                                    80 00 00 00|            ....|      [0]: "1901-12-13T20:45:52Z" (-2147483648) transition_time 0x2c-0x30 (4)
0x030|cb 89 1a a0                                    |....            |      [1]: "1942-02-09T10:00:00Z" (-880207200) transition_time 0x30-0x34 (4)
0x030|            d2 23 f4 70                        |    .#.p        |      [2]: "1945-08-14T23:00:00Z" (-769395600) transition_time 0x34-0x38 (4)
0x030|                        d2 61 26 10            |        .a&.    |      [3]: "1945-09-30T09:00:00Z" (-765385200) transition_time 0x38-0x3c (4)
0x030|                                    fe b8 47 20|            ..G |      [4]: "1969-04-27T10:00:00Z" (-21477600) transition_time 0x3c-0x40 (4)
0x040|ff a8 2a 10                                    |..*.            |      [5]: "1969-10-26T09:00:00Z" (-5756400) transition_time 0x40-0x44 (4)
0x040|            00 98 29 20                        |    ..)         |      [6]: "1970-04-26T10:00:00Z" (9972000) transition_time 0x44-0x48 (4)
0x040|                        01 88 0c 10            |        ....    |      [7]: "1970-10-25T09:00:00Z" (25693200) transition_time 0x48-0x4c (4)
0x040|                                    02 78 0b 20|            .x. |      [8]: "1971-04-25T10:00:00Z" (41421600) transition_time 0x4c-0x50 (4)
0x050|03 71 28 90                                    |.q(.            |      [9]: "1971-10-31T09:00:00Z" (57747600) transition_time 0x50-0x54 (4)
0x050|            04 61 27 a0                        |    .a'.        |      [10]: "1972-04-30T10:00:00Z" (73476000) transition_time 0x54-0x58 (4)
0x050|                        05 51 0a 91            |        .Q..    |      [11]: "1972-10-29T09:00:01Z" (89197201) transition_time 0x58-0x5c (4)
0x050|                                    06 41 09 a2|            .A..|      [12]: "1973-04-29T10:00:02Z" (104925602) transition_time 0x5c-0x60 (4)
0x060|07 30 ec 92                                    |.0..            |      [13]: "1973-10-28T09:00:02Z" (120646802) transition_time 0x60-0x64 (4)
0x060|            07 8d 43 a3                        |    ..C.        |      [14]: "1974-01-06T10:00:03Z" (126698403) transition_time 0x64-0x68 (4)
0x060|                        09 10 ce 93            |        ....    |      [15]: "1974-10-27T09:00:03Z" (152096403) transition_time 0x68-0x6c (4)
0x060|                                    09 ad bf 24|            ...$|      [16]: "1975-02-23T10:00:04Z" (162381604) transition_time 0x6c-0x70 (4)
0x070|0a f0 b0 94                                    |....            |      [17]: "1975-10-26T09:00:04Z" (183546004) transition_time 0x70-0x74 (4)
0x070|            0b e0 af a5                        |    ....        |      [18]: "1976-04-25T10:00:05Z" (199274405) transition_time 0x74-0x78 (4)
0x070|                        0c d9 cd 15            |        ....    |      [19]: "1976-10-31T09:00:05Z" (215600405) transition_time 0x78-0x7c (4)
0x070|                                    0d c0 91 a6|            ....|      [20]: "1977-04-24T10:00:06Z" (230724006) transition_time 0x7c-0x80 (4)
0x080|0e b9 af 16                                    |....            |      [21]: "1977-10-30T09:00:06Z" (247050006) transition_time 0x80-0x84 (4)
0x080|            0f a9 ae 27                        |    ...'        |      [22]: "1978-04-30T10:00:07Z" (262778407) transition_time 0x84-0x88 (4)
0x080|                        10 99 91 17            |        ....    |      [23]: "1978-10-29T09:00:07Z" (278499607) transition_time 0x88-0x8c (4)
0x080|                                    11 89 90 28|            ...(|      [24]: "1979-04-29T10:00:08Z" (294228008) transition_time 0x8c-0x90 (4)
0x090|12 79 73 18                                    |.ys.            |      [25]: "1979-10-28T09:00:08Z" (309949208) transition_time 0x90-0x94 (4)
0x090|            13 69 72 29                        |    .ir)        |      [26]: "1980-04-27T10:00:09Z" (325677609) transition_time 0x94-0x98 (4)
0x090|                        14 59 55 19            |        .YU.    |      [27]: "1980-10-26T09:00:09Z" (341398809) transition_time 0x98-0x9c (4)
0x090|                                    15 49 54 29|            .IT)|      [28]: "1981-04-26T10:00:09Z" (357127209) transition_time 0x9c-0xa0 (4)
0x0a0|16 39 37 1a                                    |.97.            |      [29]: "1981-10-25T09:00:10Z" (372848410) transition_time 0xa0-0xa4 (4)
0x0a0|            17 29 36 2a                        |    .)6*        |      [30]: "1982-04-25T10:00:10Z" (388576810) transition_time 0xa4-0xa8 (4)
0x0a0|                        18 22 53 9b            |        ."S.    |      [31]: "1982-10-31T09:00:11Z" (404902811) transition_time 0xa8-0xac (4)
0x0a0|                                    19 09 18 2b|            ...+|      [32]: "1983-04-24T10:00:11Z" (420026411) transition_time 0xac-0xb0 (4)
0x0b0|1a 02 35 9c                                    |..5.            |      [33]: "1983-10-30T09:00:12Z" (436352412) transition_time 0xb0-0xb4 (4)
0x0b0|            56 35 e2 ba                        |    V5..        |      [34]: "2015-11-01T10:00:26Z" (1446372026) transition_time 0xb4-0xb8 (4)
0x0b0|                        56 e5 48 4a            |        V.HJ    |      [35]: "2016-03-13T11:00:26Z" (1457866826) transition_time 0xb8-0xbc (4)
0x0b0|                                    58 1e ff 3a|            X..:|      [36]: "2016-11-06T10:00:26Z" (1478426426) transition_time 0xbc-0xc0 (4)
0x0c0|58 c5 2a 4b                                    |X.*K            |      [37]: "2017-03-12T11:00:27Z" (1489316427) transition_time 0xc0-0xc4 (4)
0x0c0|            59 fe e1 3b                        |    Y..;        |      [38]: "2017-11-05T10:00:27Z" (1509876027) transition_time 0xc4-0xc8 (4)
0x0c0|                        5a a5 0c 4b            |        Z..K    |      [39]: "2018-03-11T11:00:27Z" (1520766027) transition_time 0xc8-0xcc (4)
0x0c0|                                    5b de c3 3b|            [..;|      [40]: "2018-11-04T10:00:27Z" (1541325627) transition_time 0xcc-0xd0 (4)
0x0d0|5c 44 46 bb                                    |\DF.            |      [41]: "2019-01-20T10:00:27Z" (1547978427) transition_time 0xd0-0xd4 (4)
0x0d0|            5c 84 ee 4b                        |    \..K        |      [42]: "2019-03-10T11:00:27Z" (1552215627) transition_time 0xd4-0xd8 (4)
0x0d0|                        5d be a5 3b            |        ]..;    |      [43]: "2019-11-03T10:00:27Z" (1572775227) transition_time 0xd8-0xdc (4)
0x0d0|                                    5e 64 d0 4b|            ^d.K|      [44]: "2020-03-08T11:00:27Z" (1583665227) transition_time 0xdc-0xe0 (4)
0x0e0|5f 9e 87 3b                                    |_..;            |      [45]: "2020-11-01T10:00:27Z" (1604224827) transition_time 0xe0-0xe4 (4)
0x0e0|            60 4d ec cb                        |    `M..        |      [46]: "2021-03-14T11:00:27Z" (1615719627) transition_time 0xe4-0xe8 (4)
0x0e0|                        61 87 a3 bb            |        a...    |      [47]: "2021-11-07T10:00:27Z" (1636279227) transition_time 0xe8-0xec (4)
0x0e0|                                    62 2d ce cb|            b-..|      [48]: "2022-03-13T11:00:27Z" (1647169227) transition_time 0xec-0xf0 (4)
0x0f0|63 67 85 bb                                    |cg..            |      [49]: "2022-11-06T10:00:27Z" (1667728827) transition_time 0xf0-0xf4 (4)
0x0f0|            64 0d b0 cb                        |    d...        |      [50]: "2023-03-12T11:00:27Z" (1678618827) transition_time 0xf4-0xf8 (4)
0x0f0|                        64 9b 78 1b            |        d.x.    |      [51]: "2023-06-28T00:00:27Z" (1687910427) transition_time 0xf8-0xfc (4)
     |                                               |                |    transition_types[0:52]: 0xfc-0x130 (52)
0x0f0|                                    01         |            .   |      [0]: 1 transition_type 0xfc-0xfd (1)
0x0f0|                                       02      |             .  |      [1]: 2 transition_type 0xfd-0xfe (1)
0x0f0|                                          03   |              . |      [2]: 3 transition_type 0xfe-0xff (1)
0x0f0|                                             01|               .|      [3]: 1 transition_type 0xff-0x100 (1)
0x100|04                                             |.               |      [4]: 4 transition_type 0x100-0x101 (1)
0x100|   01                                          | .              |      [5]: 1 transition_type 0x101-0x102 (1)
0x100|      04                                       |  .             |      [6]: 4 transition_type 0x102-0x103 (1)
0x100|         01                                    |   .            |      [7]: 1 transition_type 0x103-0x104 (1)
0x100|            04                                 |    .           |      [8]: 4 transition_type 0x104-0x105 (1)
0x100|               01                              |     .          |      [9]: 1 transition_type 0x105-0x106 (1)
0x100|                  04                           |      .         |      [10]: 4 transition_type 0x106-0x107 (1)
0x100|                     01                        |       .        |      [11]: 1 transition_type 0x107-0x108 (1)
0x100|                        04                     |        .       |      [12]: 4 transition_type 0x108-0x109 (1)
0x100|                           01                  |         .      |      [13]: 1 transition_type 0x109-0x10a (1)
0x100|                              04               |          .     |      [14]: 4 transition_type 0x10a-0x10b (1)
0x100|                                 01            |           .    |      [15]: 1 transition_type 0x10b-0x10c (1)
0x100|                                    04         |            .   |      [16]: 4 transition_type 0x10c-0x10d (1)
0x100|                                       01      |             .  |      [17]: 1 transition_type 0x10d-0x10e (1)
0x100|                                          04   |              . |      [18]: 4 transition_type 0x10e-0x10f (1)
0x100|                                             01|               .|      [19]: 1 transition_type 0x10f-0x110 (1)
0x110|04                                             |.               |      [20]: 4 transition_type 0x110-0x111 (1)
0x110|   01                                          | .              |      [21]: 1 transition_type 0x111-0x112 (1)
0x110|      04                                       |  .             |      [22]: 4 transition_type 0x112-0x113 (1)
0x110|         01                                    |   .            |      [23]: 1 transition_type 0x113-0x114 (1)
0x110|            04                                 |    .           |      [24]: 4 transition_type 0x114-0x115 (1)
0x110|               01                              |     .          |      [25]: 1 transition_type 0x115-0x116 (1)
0x110|                  04                           |      .         |      [26]: 4 transition_type 0x116-0x117 (1)
0x110|                     01                        |       .        |      [27]: 1 transition_type 0x117-0x118 (1)
0x110|                        04                     |        .       |      [28]: 4 transition_type 0x118-0x119 (1)
0x110|                           01                  |         .      |      [29]: 1 transition_type 0x119-0x11a (1)
0x110|                              04               |          .     |      [30]: 4 transition_type 0x11a-0x11b (1)
0x110|                                 01            |           .    |      [31]: 1 transition_type 0x11b-0x11c (1)
0x110|                                    04         |            .   |      [32]: 4 transition_type 0x11c-0x11d (1)
0x110|                                       01      |             .  |      [33]: 1 transition_type 0x11d-0x11e (1)
0x110|                                          05   |              . |      [34]: 5 transition_type 0x11e-0x11f (1)
0x110|                                             06|               .|      [35]: 6 transition_type 0x11f-0x120 (1)
0x120|05                                             |.               |      [36]: 5 transition_type 0x120-0x121 (1)
0x120|   06                                          | .              |      [37]: 6 transition_type 0x121-0x122 (1)
0x120|      05                                       |  .             |      [38]: 5 transition_type 0x122-0x123 (1)
0x120|         06                                    |   .            |      [39]: 6 transition_type 0x123-0x124 (1)
0x120|            01                                 |    .           |      [40]: 1 transition_type 0x124-0x125 (1)
0x120|               05                              |     .          |      [41]: 5 transition_type 0x125-0x126 (1)
0x120|                  06                           |      .         |      [42]: 6 transition_type 0x126-0x127 (1)
0x120|                     05                        |       .        |      [43]: 5 transition_type 0x127-0x128 (1)
0x120|                        06                     |        .       |      [44]: 6 transition_type 0x128-0x129 (1)
0x120|                           05                  |         .      |      [45]: 5 transition_type 0x129-0x12a (1)
0x120|                              06               |          .     |      [46]: 6 transition_type 0x12a-0x12b (1)
0x120|                                 05            |           .    |      [47]: 5 transition_type 0x12b-0x12c (1)
0x120|                                    06         |            .   |      [48]: 6 transition_type 0x12c-0x12d (1)
0x120|                                       05      |             .  |      [49]: 5 transition_type 0x12d-0x12e (1)
0x120|                                          06   |              . |      [50]: 6 transition_type 0x12e-0x12f (1)
0x120|                                             06|               .|      [51]: 6 transition_type 0x12f-0x130 (1)
     |                                               |                |    local_time_type_records[0:7]: 0x130-0x15a (42)
     |                                               |                |      [0]{}: local_time_type 0x130-0x136 (6)
0x130|00 00 d6 26                                    |...&            |        utoff: 54822 (valid) 0x130-0x134 (4)
0x130|            00                                 |    .           |        dst: 0 (valid) 0x134-0x135 (1)
0x130|               00                              |     .          |        idx: 0 (valid) 0x135-0x136 (1)
     |                                               |                |      [1]{}: local_time_type 0x136-0x13c (6)
0x130|                  ff ff 8f 80                  |      ....      |        utoff: -28800 (valid) 0x136-0x13a (4)
0x130|                              00               |          .     |        dst: 0 (valid) 0x13a-0x13b (1)
0x130|                                 04            |           .    |        idx: 4 (valid) 0x13b-0x13c (1)
     |                                               |                |      [2]{}: local_time_type 0x13c-0x142 (6)
0x130|                                    ff ff 9d 90|            ....|        utoff: -25200 (valid) 0x13c-0x140 (4)
0x140|01                                             |.               |        dst: 1 (valid) 0x140-0x141 (1)
0x140|   08                                          | .              |        idx: 8 (valid) 0x141-0x142 (1)
     |                                               |                |      [3]{}: local_time_type 0x142-0x148 (6)
0x140|      ff ff 9d 90                              |  ....          |        utoff: -25200 (valid) 0x142-0x146 (4)
0x140|                  01                           |      .         |        dst: 1 (valid) 0x146-0x147 (1)
0x140|                     0c                        |       .        |        idx: 12 (valid) 0x147-0x148 (1)
     |                                               |                |      [4]{}: local_time_type 0x148-0x14e (6)
0x140|                        ff ff 9d 90            |        ....    |        utoff: -25200 (valid) 0x148-0x14c (4)
0x140|                                    01         |            .   |        dst: 1 (valid) 0x14c-0x14d (1)
0x140|                                       10      |             .  |        idx: 16 (valid) 0x14d-0x14e (1)
     |                                               |                |      [5]{}: local_time_type 0x14e-0x154 (6)
0x140|                                          ff ff|              ..|        utoff: -32400 (valid) 0x14e-0x152 (4)
0x150|81 70                                          |.p              |
0x150|      00                                       |  .             |        dst: 0 (valid) 0x152-0x153 (1)
0x150|         14                                    |   .            |        idx: 20 (valid) 0x153-0x154 (1)
     |                                               |                |      [6]{}: local_time_type 0x154-0x15a (6)
0x150|            ff ff 8f 80                        |    ....        |        utoff: -28800 (valid) 0x154-0x158 (4)
0x150|                        01                     |        .       |        dst: 1 (valid) 0x158-0x159 (1)
0x150|                           19                  |         .      |        idx: 25 (valid) 0x159-0x15a (1)
     |                                               |                |    time_zone_designations[0:7]: 0x15a-0x178 (30)
0x150|                              4c 4d 54 00      |          LMT.  |      [0]: "LMT" time_zone_designation 0x15a-0x15e (4)
0x150|                                          50 53|              PS|      [1]: "PST" time_zone_designation 0x15e-0x162 (4)
0x160|54 00                                          |T.              |
0x160|      50 57 54 00                              |  PWT.          |      [2]: "PWT" time_zone_designation 0x162-0x166 (4)
0x160|                  50 50 54 00                  |      PPT.      |      [3]: "PPT" time_zone_designation 0x166-0x16a (4)
0x160|                              50 44 54 00      |          PDT.  |      [4]: "PDT" time_zone_designation 0x16a-0x16e (4)
0x160|                                          41 4b|              AK|      [5]: "AKST" time_zone_designation 0x16e-0x173 (5)
0x170|53 54 00                                       |ST.             |
0x170|         41 4b 44 54 00                        |   AKDT.        |      [6]: "AKDT" time_zone_designation 0x173-0x178 (5)
     |                                               |                |    leap_second_records[0:27]: 0x178-0x250 (216)
     |                                               |                |      [0]{}: leap_second_record 0x178-0x180 (8)
0x170|                        04 b2 58 00            |        ..X.    |        occur: "1972-07-01T00:00:00Z" (78796800) 0x178-0x17c (4)
0x170|                                    00 00 00 01|            ....|        corr: 1 0x17c-0x180 (4)
     |                                               |                |      [1]{}: leap_second_record 0x180-0x188 (8)
0x180|05 a4 ec 01                                    |....            |        occur: "1973-01-01T00:00:01Z" (94694401) 0x180-0x184 (4)
0x180|            00 00 00 02                        |    ....        |        corr: 2 0x184-0x188 (4)
     |                                               |                |      [2]{}: leap_second_record 0x188-0x190 (8)
0x180|                        07 86 1f 82            |        ....    |        occur: "1974-01-01T00:00:02Z" (126230402) 0x188-0x18c (4)
0x180|                                    00 00 00 03|            ....|        corr: 3 0x18c-0x190 (4)
     |                                               |                |      [3]{}: leap_second_record 0x190-0x198 (8)
0x190|09 67 53 03                                    |.gS.            |        occur: "1975-01-01T00:00:03Z" (157766403) 0x190-0x194 (4)
0x190|            00 00 00 04                        |    ....        |        corr: 4 0x194-0x198 (4)
     |                                               |                |      [4]{}: leap_second_record 0x198-0x1a0 (8)
0x190|                        0b 48 86 84            |        .H..    |        occur: "1976-01-01T00:00:04Z" (189302404) 0x198-0x19c (4)
0x190|                                    00 00 00 05|            ....|        corr: 5 0x19c-0x1a0 (4)
     |                                               |                |      [5]{}: leap_second_record 0x1a0-0x1a8 (8)
0x1a0|0d 2b 0b 85                                    |.+..            |        occur: "1977-01-01T00:00:05Z" (220924805) 0x1a0-0x1a4 (4)
0x1a0|            00 00 00 06                        |    ....        |        corr: 6 0x1a4-0x1a8 (4)
     |                                               |                |      [6]{}: leap_second_record 0x1a8-0x1b0 (8)
0x1a0|                        0f 0c 3f 06            |        ..?.    |        occur: "1978-01-01T00:00:06Z" (252460806) 0x1a8-0x1ac (4)
0x1a0|                                    00 00 00 07|            ....|        corr: 7 0x1ac-0x1b0 (4)
     |                                               |                |      [7]{}: leap_second_record 0x1b0-0x1b8 (8)
0x1b0|10 ed 72 87                                    |..r.            |        occur: "1979-01-01T00:00:07Z" (283996807) 0x1b0-0x1b4 (4)
0x1b0|            00 00 00 08                        |    ....        |        corr: 8 0x1b4-0x1b8 (4)
     |                                               |                |      [8]{}: leap_second_record 0x1b8-0x1c0 (8)
0x1b0|                        12 ce a6 08            |        ....    |        occur: "1980-01-01T00:00:08Z" (315532808) 0x1b8-0x1bc (4)
0x1b0|                                    00 00 00 09|            ....|        corr: 9 0x1bc-0x1c0 (4)
     |                                               |                |      [9]{}: leap_second_record 0x1c0-0x1c8 (8)
0x1c0|15 9f ca 89                                    |....            |        occur: "1981-07-01T00:00:09Z" (362793609) 0x1c0-0x1c4 (4)
0x1c0|            00 00 00 0a                        |    ....        |        corr: 10 0x1c4-0x1c8 (4)
     |                                               |                |      [10]{}: leap_second_record 0x1c8-0x1d0 (8)
0x1c0|                        17 80 fe 0a            |        ....    |        occur: "1982-07-01T00:00:10Z" (394329610) 0x1c8-0x1cc (4)
0x1c0|                                    00 00 00 0b|            ....|        corr: 11 0x1cc-0x1d0 (4)
     |                                               |                |      [11]{}: leap_second_record 0x1d0-0x1d8 (8)
0x1d0|19 62 31 8b                                    |.b1.            |        occur: "1983-07-01T00:00:11Z" (425865611) 0x1d0-0x1d4 (4)
0x1d0|            00 00 00 0c                        |    ....        |        corr: 12 0x1d4-0x1d8 (4)
     |                                               |                |      [12]{}: leap_second_record 0x1d8-0x1e0 (8)
0x1d0|                        1d 25 ea 0c            |        .%..    |        occur: "1985-07-01T00:00:12Z" (489024012) 0x1d8-0x1dc (4)
0x1d0|                                    00 00 00 0d|            ....|        corr: 13 0x1dc-0x1e0 (4)
     |                                               |                |      [13]{}: leap_second_record 0x1e0-0x1e8 (8)
0x1e0|21 da e5 0d                                    |!...            |        occur: "1988-01-01T00:00:13Z" (567993613) 0x1e0-0x1e4 (4)
0x1e0|            00 00 00 0e                        |    ....        |        corr: 14 0x1e4-0x1e8 (4)
     |                                               |                |      [14]{}: leap_second_record 0x1e8-0x1f0 (8)
0x1e0|                        25 9e 9d 8e            |        %...    |        occur: "1990-01-01T00:00:14Z" (631152014) 0x1e8-0x1ec (4)
0x1e0|                                    00 00 00 0f|            ....|        corr: 15 0x1ec-0x1f0 (4)
     |                                               |                |      [15]{}: leap_second_record 0x1f0-0x1f8 (8)
0x1f0|27 7f d1 0f                                    |'...            |        occur: "1991-01-01T00:00:15Z" (662688015) 0x1f0-0x1f4 (4)
0x1f0|            00 00 00 10                        |    ....        |        corr: 16 0x1f4-0x1f8 (4)
     |                                               |                |      [16]{}: leap_second_record 0x1f8-0x200 (8)
0x1f0|                        2a 50 f5 90            |        *P..    |        occur: "1992-07-01T00:00:16Z" (709948816) 0x1f8-0x1fc (4)
0x1f0|                                    00 00 00 11|            ....|        corr: 17 0x1fc-0x200 (4)
     |                                               |                |      [17]{}: leap_second_record 0x200-0x208 (8)
0x200|2c 32 29 11                                    |,2).            |        occur: "1993-07-01T00:00:17Z" (741484817) 0x200-0x204 (4)
0x200|            00 00 00 12                        |    ....        |        corr: 18 0x204-0x208 (4)
     |                                               |                |      [18]{}: leap_second_record 0x208-0x210 (8)
0x200|                        2e 13 5c 92            |        ..\.    |        occur: "1994-07-01T00:00:18Z" (773020818) 0x208-0x20c (4)
0x200|                                    00 00 00 13|            ....|        corr: 19 0x20c-0x210 (4)
     |                                               |                |      [19]{}: leap_second_record 0x210-0x218 (8)
0x210|30 e7 24 13                                    |0.$.            |        occur: "1996-01-01T00:00:19Z" (820454419) 0x210-0x214 (4)
0x210|            00 00 00 14                        |    ....        |        corr: 20 0x214-0x218 (4)
     |                                               |                |      [20]{}: leap_second_record 0x218-0x220 (8)
0x210|                        33 b8 48 94            |        3.H.    |        occur: "1997-07-01T00:00:20Z" (867715220) 0x218-0x21c (4)
0x210|                                    00 00 00 15|            ....|        corr: 21 0x21c-0x220 (4)
     |                                               |                |      [21]{}: leap_second_record 0x220-0x228 (8)
0x220|36 8c 10 15                                    |6...            |        occur: "1999-01-01T00:00:21Z" (915148821) 0x220-0x224 (4)
0x220|            00 00 00 16                        |    ....        |        corr: 22 0x224-0x228 (4)
     |                                               |                |      [22]{}: leap_second_record 0x228-0x230 (8)
0x220|                        43 b7 1b 96            |        C...    |        occur: "2006-01-01T00:00:22Z" (1136073622) 0x228-0x22c (4)
0x220|                                    00 00 00 17|            ....|        corr: 23 0x22c-0x230 (4)
     |                                               |                |      [23]{}: leap_second_record 0x230-0x238 (8)
0x230|49 5c 07 97                                    |I\..            |        occur: "2009-01-01T00:00:23Z" (1230768023) 0x230-0x234 (4)
0x230|            00 00 00 18                        |    ....        |        corr: 24 0x234-0x238 (4)
     |                                               |                |      [24]{}: leap_second_record 0x238-0x240 (8)
0x230|                        4f ef 93 18            |        O...    |        occur: "2012-07-01T00:00:24Z" (1341100824) 0x238-0x23c (4)
0x230|                                    00 00 00 19|            ....|        corr: 25 0x23c-0x240 (4)
     |                                               |                |      [25]{}: leap_second_record 0x240-0x248 (8)
0x240|55 93 2d 99                                    |U.-.            |        occur: "2015-07-01T00:00:25Z" (1435708825) 0x240-0x244 (4)
0x240|            00 00 00 1a                        |    ....        |        corr: 26 0x244-0x248 (4)
     |                                               |                |      [26]{}: leap_second_record 0x248-0x250 (8)
0x240|                        58 68 46 9a            |        XhF.    |        occur: "2017-01-01T00:00:26Z" (1483228826) 0x248-0x24c (4)
0x240|                                    00 00 00 1b|            ....|        corr: 27 0x24c-0x250 (4)
     |                                               |                |    standard_wall_indicators[0:7]: 0x250-0x257 (7)
0x250|00                                             |.               |      [0]: 0 standard_wall_indicator (valid) 0x250-0x251 (1)
0x250|   00                                          | .              |      [1]: 0 standard_wall_indicator (valid) 0x251-0x252 (1)
0x250|      00                                       |  .             |      [2]: 0 standard_wall_indicator (valid) 0x252-0x253 (1)
0x250|         01                                    |   .            |      [3]: 1 standard_wall_indicator (valid) 0x253-0x254 (1)
0x250|            00                                 |    .           |      [4]: 0 standard_wall_indicator (valid) 0x254-0x255 (1)
0x250|               00                              |     .          |      [5]: 0 standard_wall_indicator (valid) 0x255-0x256 (1)
0x250|                  00                           |      .         |      [6]: 0 standard_wall_indicator (valid) 0x256-0x257 (1)
     |                                               |                |    ut_local_indicators[0:7]: 0x257-0x25e (7)
0x250|                     00                        |       .        |      [0]: 0 ut_local_indicator (valid) 0x257-0x258 (1)
0x250|                        00                     |        .       |      [1]: 0 ut_local_indicator (valid) 0x258-0x259 (1)
0x250|                           00                  |         .      |      [2]: 0 ut_local_indicator (valid) 0x259-0x25a (1)
0x250|                              01               |          .     |      [3]: 1 ut_local_indicator (valid) 0x25a-0x25b (1)
0x250|                                 00            |           .    |      [4]: 0 ut_local_indicator (valid) 0x25b-0x25c (1)
0x250|                                    00         |            .   |      [5]: 0 ut_local_indicator (valid) 0x25c-0x25d (1)
0x250|                                       00      |             .  |      [6]: 0 ut_local_indicator (valid) 0x25d-0x25e (1)
     |                                               |                |  v2plusheader{}: 0x25e-0x28a (44)
0x250|                                          54 5a|              TZ|    magic: 0x545a6966 (valid) 0x25e-0x262 (4)
0x260|69 66                                          |if              |
0x260|      32                                       |  2             |    ver: "2" (0x32) (valid) 0x262-0x263 (1)
0x260|         00 00 00 00 00 00 00 00 00 00 00 00 00|   .............|    reserved: raw bits 0x263-0x272 (15)
0x270|00 00                                          |..              |
0x270|      00 00 00 08                              |  ....          |    isutcnt: 8 0x272-0x276 (4)
0x270|                  00 00 00 08                  |      ....      |    isstdcnt: 8 0x276-0x27a (4)
0x270|                              00 00 00 1b      |          ....  |    leapcnt: 27 0x27a-0x27e (4)
0x270|                                          00 00|              ..|    timecnt: 53 0x27e-0x282 (4)
0x280|00 35                                          |.5              |
0x280|      00 00 00 08                              |  ....          |    typecnt: 8 0x282-0x286 (4)
0x280|                  00 00 00 1e                  |      ....      |    charcnt: 30 0x286-0x28a (4)
     |                                               |                |  v2plusdatablock{}: 0x28a-0x609 (895)
     |                                               |                |    transition_times[0:53]: 0x28a-0x432 (424)
0x280|                              ff ff ff ff 3f c2|          ....?.|      [0]: "1867-10-19T00:31:13Z" (-3225223727) transition_time 0x28a-0x292 (8)
0x290|fd d1                                          |..              |
0x290|      ff ff ff ff 7d 87 30 1a                  |  ....}.0.      |      [1]: "1900-08-20T20:46:18Z" (-2188955622) transition_time 0x292-0x29a (8)
0x290|                              ff ff ff ff cb 89|          ......|      [2]: "1942-02-09T10:00:00Z" (-880207200) transition_time 0x29a-0x2a2 (8)
0x2a0|1a a0                                          |..              |
0x2a0|      ff ff ff ff d2 23 f4 70                  |  .....#.p      |      [3]: "1945-08-14T23:00:00Z" (-769395600) transition_time 0x2a2-0x2aa (8)
0x2a0|                              ff ff ff ff d2 61|          .....a|      [4]: "1945-09-30T09:00:00Z" (-765385200) transition_time 0x2aa-0x2b2 (8)
0x2b0|26 10                                          |&.              |
0x2b0|      ff ff ff ff fe b8 47 20                  |  ......G       |      [5]: "1969-04-27T10:00:00Z" (-21477600) transition_time 0x2b2-0x2ba (8)
0x2b0|                              ff ff ff ff ff a8|          ......|      [6]: "1969-10-26T09:00:00Z" (-5756400) transition_time 0x2ba-0x2c2 (8)
0x2c0|2a 10                                          |*.              |
0x2c0|      00 00 00 00 00 98 29 20                  |  ......)       |      [7]: "1970-04-26T10:00:00Z" (9972000) transition_time 0x2c2-0x2ca (8)
0x2c0|                              00 00 00 00 01 88|          ......|      [8]: "1970-10-25T09:00:00Z" (25693200) transition_time 0x2ca-0x2d2 (8)
0x2d0|0c 10                                          |..              |
0x2d0|      00 00 00 00 02 78 0b 20                  |  .....x.       |      [9]: "1971-04-25T10:00:00Z" (41421600) transition_time 0x2d2-0x2da (8)
0x2d0|                              00 00 00 00 03 71|          .....q|      [10]: "1971-10-31T09:00:00Z" (57747600) transition_time 0x2da-0x2e2 (8)
0x2e0|28 90                                          |(.              |
0x2e0|      00 00 00 00 04 61 27 a0                  |  .....a'.      |      [11]: "1972-04-30T10:00:00Z" (73476000) transition_time 0x2e2-0x2ea (8)
0x2e0|                              00 00 00 00 05 51|          .....Q|      [12]: "1972-10-29T09:00:01Z" (89197201) transition_time 0x2ea-0x2f2 (8)
0x2f0|0a 91                                          |..              |
0x2f0|      00 00 00 00 06 41 09 a2                  |  .....A..      |      [13]: "1973-04-29T10:00:02Z" (104925602) transition_time 0x2f2-0x2fa (8)
0x2f0|                              00 00 00 00 07 30|          .....0|      [14]: "1973-10-28T09:00:02Z" (120646802) transition_time 0x2fa-0x302 (8)
0x300|ec 92                                          |..              |
0x300|      00 00 00 00 07 8d 43 a3                  |  ......C.      |      [15]: "1974-01-06T10:00:03Z" (126698403) transition_time 0x302-0x30a (8)
0x300|                              00 00 00 00 09 10|          ......|      [16]: "1974-10-27T09:00:03Z" (152096403) transition_time 0x30a-0x312 (8)
0x310|ce 93                                          |..              |
0x310|      00 00 00 00 09 ad bf 24                  |  .......$      |      [17]: "1975-02-23T10:00:04Z" (162381604) transition_time 0x312-0x31a (8)
0x310|                              00 00 00 00 0a f0|          ......|      [18]: "1975-10-26T09:00:04Z" (183546004) transition_time 0x31a-0x322 (8)
0x320|b0 94                                          |..              |
0x320|      00 00 00 00 0b e0 af a5                  |  ........      |      [19]: "1976-04-25T10:00:05Z" (199274405) transition_time 0x322-0x32a (8)
0x320|                              00 00 00 00 0c d9|          ......|      [20]: "1976-10-31T09:00:05Z" (215600405) transition_time 0x32a-0x332 (8)
0x330|cd 15                                          |..              |
0x330|      00 00 00 00 0d c0 91 a6                  |  ........      |      [21]: "1977-04-24T10:00:06Z" (230724006) transition_time 0x332-0x33a (8)
0x330|                              00 00 00 00 0e b9|          ......|      [22]: "1977-10-30T09:00:06Z" (247050006) transition_time 0x33a-0x342 (8)
0x340|af 16                                          |..              |
0x340|      00 00 00 00 0f a9 ae 27                  |  .......'      |      [23]: "1978-04-30T10:00:07Z" (262778407) transition_time 0x342-0x34a (8)
0x340|                              00 00 00 00 10 99|          ......|      [24]: "1978-10-29T09:00:07Z" (278499607) transition_time 0x34a-0x352 (8)
0x350|91 17                                          |..              |
0x350|      00 00 00 00 11 89 90 28                  |  .......(      |      [25]: "1979-04-29T10:00:08Z" (294228008) transition_time 0x352-0x35a (8)
0x350|                              00 00 00 00 12 79|          .....y|      [26]: "1979-10-28T09:00:08Z" (309949208) transition_time 0x35a-0x362 (8)
0x360|73 18                                          |s.              |
0x360|      00 00 00 00 13 69 72 29                  |  .....ir)      |      [27]: "1980-04-27T10:00:09Z" (325677609) transition_time 0x362-0x36a (8)
0x360|                              00 00 00 00 14 59|          .....Y|      [28]: "1980-10-26T09:00:09Z" (341398809) transition_time 0x36a-0x372 (8)
0x370|55 19                                          |U.              |
0x370|      00 00 00 00 15 49 54 29                  |  .....IT)      |      [29]: "1981-04-26T10:00:09Z" (357127209) transition_time 0x372-0x37a (8)
0x370|                              00 00 00 00 16 39|          .....9|      [30]: "1981-10-25T09:00:10Z" (372848410) transition_time 0x37a-0x382 (8)
0x380|37 1a                                          |7.              |
0x380|      00 00 00 00 17 29 36 2a                  |  .....)6*      |      [31]: "1982-04-25T10:00:10Z" (388576810) transition_time 0x382-0x38a (8)
0x380|                              00 00 00 00 18 22|          ....."|      [32]: "1982-10-31T09:00:11Z" (404902811) transition_time 0x38a-0x392 (8)
0x390|53 9b                                          |S.              |
0x390|      00 00 00 00 19 09 18 2b                  |  .......+      |      [33]: "1983-04-24T10:00:11Z" (420026411) transition_time 0x392-0x39a (8)
0x390|                              00 00 00 00 1a 02|          ......|      [34]: "1983-10-30T09:00:12Z" (436352412) transition_time 0x39a-0x3a2 (8)
0x3a0|35 9c                                          |5.              |
0x3a0|      00 00 00 00 56 35 e2 ba                  |  ....V5..      |      [35]: "2015-11-01T10:00:26Z" (1446372026) transition_time 0x3a2-0x3aa (8)
0x3a0|                              00 00 00 00 56 e5|          ....V.|      [36]: "2016-03-13T11:00:26Z" (1457866826) transition_time 0x3aa-0x3b2 (8)
0x3b0|48 4a                                          |HJ              |
0x3b0|      00 00 00 00 58 1e ff 3a                  |  ....X..:      |      [37]: "2016-11-06T10:00:26Z" (1478426426) transition_time 0x3b2-0x3ba (8)
0x3b0|                              00 00 00 00 58 c5|          ....X.|      [38]: "2017-03-12T11:00:27Z" (1489316427) transition_time 0x3ba-0x3c2 (8)
0x3c0|2a 4b                                          |*K              |
0x3c0|      00 00 00 00 59 fe e1 3b                  |  ....Y..;      |      [39]: "2017-11-05T10:00:27Z" (1509876027) transition_time 0x3c2-0x3ca (8)
0x3c0|                              00 00 00 00 5a a5|          ....Z.|      [40]: "2018-03-11T11:00:27Z" (1520766027) transition_time 0x3ca-0x3d2 (8)
0x3d0|0c 4b                                          |.K              |
0x3d0|      00 00 00 00 5b de c3 3b                  |  ....[..;      |      [41]: "2018-11-04T10:00:27Z" (1541325627) transition_time 0x3d2-0x3da (8)
0x3d0|                              00 00 00 00 5c 44|          ....\D|      [42]: "2019-01-20T10:00:27Z" (1547978427) transition_time 0x3da-0x3e2 (8)
0x3e0|46 bb                                          |F.              |
0x3e0|      00 00 00 00 5c 84 ee 4b                  |  ....\..K      |      [43]: "2019-03-10T11:00:27Z" (1552215627) transition_time 0x3e2-0x3ea (8)
0x3e0|                              00 00 00 00 5d be|          ....].|      [44]: "2019-11-03T10:00:27Z" (1572775227) transition_time 0x3ea-0x3f2 (8)
0x3f0|a5 3b                                          |.;              |
0x3f0|      00 00 00 00 5e 64 d0 4b                  |  ....^d.K      |      [45]: "2020-03-08T11:00:27Z" (1583665227) transition_time 0x3f2-0x3fa (8)
0x3f0|                              00 00 00 00 5f 9e|          ...._.|      [46]: "2020-11-01T10:00:27Z" (1604224827) transition_time 0x3fa-0x402 (8)
0x400|87 3b                                          |.;              |
0x400|      00 00 00 00 60 4d ec cb                  |  ....`M..      |      [47]: "2021-03-14T11:00:27Z" (1615719627) transition_time 0x402-0x40a (8)
0x400|                              00 00 00 00 61 87|          ....a.|      [48]: "2021-11-07T10:00:27Z" (1636279227) transition_time 0x40a-0x412 (8)
0x410|a3 bb                                          |..              |
0x410|      00 00 00 00 62 2d ce cb                  |  ....b-..      |      [49]: "2022-03-13T11:00:27Z" (1647169227) transition_time 0x412-0x41a (8)
0x410|                              00 00 00 00 63 67|          ....cg|      [50]: "2022-11-06T10:00:27Z" (1667728827) transition_time 0x41a-0x422 (8)
0x420|85 bb                                          |..              |
0x420|      00 00 00 00 64 0d b0 cb                  |  ....d...      |      [51]: "2023-03-12T11:00:27Z" (1678618827) transition_time 0x422-0x42a (8)
0x420|                              00 00 00 00 64 9b|          ....d.|      [52]: "2023-06-28T00:00:27Z" (1687910427) transition_time 0x42a-0x432 (8)
0x430|78 1b                                          |x.              |
     |                                               |                |    transition_types[0:53]: 0x432-0x467 (53)
0x430|      01                                       |  .             |      [0]: 1 transition_type 0x432-0x433 (1)
0x430|         02                                    |   .            |      [1]: 2 transition_type 0x433-0x434 (1)
0x430|            03                                 |    .           |      [2]: 3 transition_type 0x434-0x435 (1)
0x430|               04                              |     .          |      [3]: 4 transition_type 0x435-0x436 (1)
0x430|                  02                           |      .         |      [4]: 2 transition_type 0x436-0x437 (1)
0x430|                     05                        |       .        |      [5]: 5 transition_type 0x437-0x438 (1)
0x430|                        02                     |        .       |      [6]: 2 transition_type 0x438-0x439 (1)
0x430|                           05                  |         .      |      [7]: 5 transition_type 0x439-0x43a (1)
0x430|                              02               |          .     |      [8]: 2 transition_type 0x43a-0x43b (1)
0x430|                                 05            |           .    |      [9]: 5 transition_type 0x43b-0x43c (1)
0x430|                                    02         |            .   |      [10]: 2 transition_type 0x43c-0x43d (1)
0x430|                                       05      |             .  |      [11]: 5 transition_type 0x43d-0x43e (1)
0x430|                                          02   |              . |      [12]: 2 transition_type 0x43e-0x43f (1)
0x430|                                             05|               .|      [13]: 5 transition_type 0x43f-0x440 (1)
0x440|02                                             |.               |      [14]: 2 transition_type 0x440-0x441 (1)
0x440|   05                                          | .              |      [15]: 5 transition_type 0x441-0x442 (1)
0x440|      02                                       |  .             |      [16]: 2 transition_type 0x442-0x443 (1)
0x440|         05                                    |   .            |      [17]: 5 transition_type 0x443-0x444 (1)
0x440|            02                                 |    .           |      [18]: 2 transition_type 0x444-0x445 (1)
0x440|               05                              |     .          |      [19]: 5 transition_type 0x445-0x446 (1)
0x440|                  02                           |      .         |      [20]: 2 transition_type 0x446-0x447 (1)
0x440|                     05                        |       .        |      [21]: 5 transition_type 0x447-0x448 (1)
0x440|                        02                     |        .       |      [22]: 2 transition_type 0x448-0x449 (1)
0x440|                           05                  |         .      |      [23]: 5 transition_type 0x449-0x44a (1)
0x440|                              02               |          .     |      [24]: 2 transition_type 0x44a-0x44b (1)
0x440|                                 05            |           .    |      [25]: 5 transition_type 0x44b-0x44c (1)
0x440|                                    02         |            .   |      [26]: 2 transition_type 0x44c-0x44d (1)
0x440|                                       05      |             .  |      [27]: 5 transition_type 0x44d-0x44e (1)
0x440|                                          02   |              . |      [28]: 2 transition_type 0x44e-0x44f (1)
0x440|                                             05|               .|      [29]: 5 transition_type 0x44f-0x450 (1)
0x450|02                                             |.               |      [30]: 2 transition_type 0x450-0x451 (1)
0x450|   05                                          | .              |      [31]: 5 transition_type 0x451-0x452 (1)
0x450|      02                                       |  .             |      [32]: 2 transition_type 0x452-0x453 (1)
0x450|         05                                    |   .            |      [33]: 5 transition_type 0x453-0x454 (1)
0x450|            02                                 |    .           |      [34]: 2 transition_type 0x454-0x455 (1)
0x450|               06                              |     .          |      [35]: 6 transition_type 0x455-0x456 (1)
0x450|                  07                           |      .         |      [36]: 7 transition_type 0x456-0x457 (1)
0x450|                     06                        |       .        |      [37]: 6 transition_type 0x457-0x458 (1)
0x450|                        07                     |        .       |      [38]: 7 transition_type 0x458-0x459 (1)
0x450|                           06                  |         .      |      [39]: 6 transition_type 0x459-0x45a (1)
0x450|                              07               |          .     |      [40]: 7 transition_type 0x45a-0x45b (1)
0x450|                                 02            |           .    |      [41]: 2 transition_type 0x45b-0x45c (1)
0x450|                                    06         |            .   |      [42]: 6 transition_type 0x45c-0x45d (1)
0x450|                                       07      |             .  |      [43]: 7 transition_type 0x45d-0x45e (1)
0x450|                                          06   |              . |      [44]: 6 transition_type 0x45e-0x45f (1)
0x450|                                             07|               .|      [45]: 7 transition_type 0x45f-0x460 (1)
0x460|06                                             |.               |      [46]: 6 transition_type 0x460-0x461 (1)
0x460|   07                                          | .              |      [47]: 7 transition_type 0x461-0x462 (1)
0x460|      06                                       |  .             |      [48]: 6 transition_type 0x462-0x463 (1)
0x460|         07                                    |   .            |      [49]: 7 transition_type 0x463-0x464 (1)
0x460|            06                                 |    .           |      [50]: 6 transition_type 0x464-0x465 (1)
0x460|               07                              |     .          |      [51]: 7 transition_type 0x465-0x466 (1)
0x460|                  07                           |      .         |      [52]: 7 transition_type 0x466-0x467 (1)
     |                                               |                |    local_time_type_records[0:8]: 0x467-0x497 (48)
     |                                               |                |      [0]{}: local_time_type 0x467-0x46d (6)
0x460|                     00 00 d6 26               |       ...&     |        utoff: 54822 (valid) 0x467-0x46b (4)
0x460|                                 00            |           .    |        dst: 0 (valid) 0x46b-0x46c (1)
0x460|                                    00         |            .   |        idx: 0 (valid) 0x46c-0x46d (1)
     |                                               |                |      [1]{}: local_time_type 0x46d-0x473 (6)
0x460|                                       ff ff 84|             ...|        utoff: -31578 (valid) 0x46d-0x471 (4)
0x470|a6                                             |.               |
0x470|   00                                          | .              |        dst: 0 (valid) 0x471-0x472 (1)
0x470|      00                                       |  .             |        idx: 0 (valid) 0x472-0x473 (1)
     |                                               |                |      [2]{}: local_time_type 0x473-0x479 (6)
0x470|         ff ff 8f 80                           |   ....         |        utoff: -28800 (valid) 0x473-0x477 (4)
0x470|                     00                        |       .        |        dst: 0 (valid) 0x477-0x478 (1)
0x470|                        04                     |        .       |        idx: 4 (valid) 0x478-0x479 (1)
     |                                               |                |      [3]{}: local_time_type 0x479-0x47f (6)
0x470|                           ff ff 9d 90         |         ....   |        utoff: -25200 (valid) 0x479-0x47d (4)
0x470|                                       01      |             .  |        dst: 1 (valid) 0x47d-0x47e (1)
0x470|                                          08   |              . |        idx: 8 (valid) 0x47e-0x47f (1)
     |                                               |                |      [4]{}: local_time_type 0x47f-0x485 (6)
0x470|                                             ff|               .|        utoff: -25200 (valid) 0x47f-0x483 (4)
0x480|ff 9d 90                                       |...             |
0x480|         01                                    |   .            |        dst: 1 (valid) 0x483-0x484 (1)
0x480|            0c                                 |    .           |        idx: 12 (valid) 0x484-0x485 (1)
     |                                               |                |      [5]{}: local_time_type 0x485-0x48b (6)
0x480|               ff ff 9d 90                     |     ....       |        utoff: -25200 (valid) 0x485-0x489 (4)
0x480|                           01                  |         .      |        dst: 1 (valid) 0x489-0x48a (1)
0x480|                              10               |          .     |        idx: 16 (valid) 0x48a-0x48b (1)
     |                                               |                |      [6]{}: local_time_type 0x48b-0x491 (6)
0x480|                                 ff ff 81 70   |           ...p |        utoff: -32400 (valid) 0x48b-0x48f (4)
0x480|                                             00|               .|        dst: 0 (valid) 0x48f-0x490 (1)
0x490|14                                             |.               |        idx: 20 (valid) 0x490-0x491 (1)
     |                                               |                |      [7]{}: local_time_type 0x491-0x497 (6)
0x490|   ff ff 8f 80                                 | ....           |        utoff: -28800 (valid) 0x491-0x495 (4)
0x490|               01                              |     .          |        dst: 1 (valid) 0x495-0x496 (1)
0x490|                  19                           |      .         |        idx: 25 (valid) 0x496-0x497 (1)
     |                                               |                |    time_zone_designations[0:7]: 0x497-0x4b5 (30)
0x490|                     4c 4d 54 00               |       LMT.     |      [0]: "LMT" time_zone_designation 0x497-0x49b (4)
0x490|                                 50 53 54 00   |           PST. |      [1]: "PST" time_zone_designation 0x49b-0x49f (4)
0x490|                                             50|               P|      [2]: "PWT" time_zone_designation 0x49f-0x4a3 (4)
0x4a0|57 54 00                                       |WT.             |
0x4a0|         50 50 54 00                           |   PPT.         |      [3]: "PPT" time_zone_designation 0x4a3-0x4a7 (4)
0x4a0|                     50 44 54 00               |       PDT.     |      [4]: "PDT" time_zone_designation 0x4a7-0x4ab (4)
0x4a0|                                 41 4b 53 54 00|           AKST.|      [5]: "AKST" time_zone_designation 0x4ab-0x4b0 (5)
0x4b0|41 4b 44 54 00                                 |AKDT.           |      [6]: "AKDT" time_zone_designation 0x4b0-0x4b5 (5)
     |                                               |                |    leap_second_records[0:27]: 0x4b5-0x5f9 (324)
     |                                               |                |      [0]{}: leap_second_record 0x4b5-0x4c1 (12)
0x4b0|               00 00 00 00 04 b2 58 00         |     ......X.   |        occur: "1972-07-01T00:00:00Z" (78796800) 0x4b5-0x4bd (8)
0x4b0|                                       00 00 00|             ...|        corr: 1 0x4bd-0x4c1 (4)
0x4c0|01                                             |.               |
     |                                               |                |      [1]{}: leap_second_record 0x4c1-0x4cd (12)
0x4c0|   00 00 00 00 05 a4 ec 01                     | ........       |        occur: "1973-01-01T00:00:01Z" (94694401) 0x4c1-0x4c9 (8)
0x4c0|                           00 00 00 02         |         ....   |        corr: 2 0x4c9-0x4cd (4)
     |                                               |                |      [2]{}: leap_second_record 0x4cd-0x4d9 (12)
0x4c0|                                       00 00 00|             ...|        occur: "1974-01-01T00:00:02Z" (126230402) 0x4cd-0x4d5 (8)
0x4d0|00 07 86 1f 82                                 |.....           |
0x4d0|               00 00 00 03                     |     ....       |        corr: 3 0x4d5-0x4d9 (4)
     |                                               |                |      [3]{}: leap_second_record 0x4d9-0x4e5 (12)
0x4d0|                           00 00 00 00 09 67 53|         .....gS|        occur: "1975-01-01T00:00:03Z" (157766403) 0x4d9-0x4e1 (8)
0x4e0|03                                             |.               |
0x4e0|   00 00 00 04                                 | ....           |        corr: 4 0x4e1-0x4e5 (4)
     |                                               |                |      [4]{}: leap_second_record 0x4e5-0x4f1 (12)
0x4e0|               00 00 00 00 0b 48 86 84         |     .....H..   |        occur: "1976-01-01T00:00:04Z" (189302404) 0x4e5-0x4ed (8)
0x4e0|                                       00 00 00|             ...|        corr: 5 0x4ed-0x4f1 (4)
0x4f0|05                                             |.               |
     |                                               |                |      [5]{}: leap_second_record 0x4f1-0x4fd (12)
0x4f0|   00 00 00 00 0d 2b 0b 85                     | .....+..       |        occur: "1977-01-01T00:00:05Z" (220924805) 0x4f1-0x4f9 (8)
0x4f0|                           00 00 00 06         |         ....   |        corr: 6 0x4f9-0x4fd (4)
     |                                               |                |      [6]{}: leap_second_record 0x4fd-0x509 (12)
0x4f0|                                       00 00 00|             ...|        occur: "1978-01-01T00:00:06Z" (252460806) 0x4fd-0x505 (8)
0x500|00 0f 0c 3f 06                                 |...?.           |
0x500|               00 00 00 07                     |     ....       |        corr: 7 0x505-0x509 (4)
     |                                               |                |      [7]{}: leap_second_record 0x509-0x515 (12)
0x500|                           00 00 00 00 10 ed 72|         ......r|        occur: "1979-01-01T00:00:07Z" (283996807) 0x509-0x511 (8)
0x510|87                                             |.               |
0x510|   00 00 00 08                                 | ....           |        corr: 8 0x511-0x515 (4)
     |                                               |                |      [8]{}: leap_second_record 0x515-0x521 (12)
0x510|               00 00 00 00 12 ce a6 08         |     ........   |        occur: "1980-01-01T00:00:08Z" (315532808) 0x515-0x51d (8)
0x510|                                       00 00 00|             ...|        corr: 9 0x51d-0x521 (4)
0x520|09                                             |.               |
     |                                               |                |      [9]{}: leap_second_record 0x521-0x52d (12)
0x520|   00 00 00 00 15 9f ca 89                     | ........       |        occur: "1981-07-01T00:00:09Z" (362793609) 0x521-0x529 (8)
0x520|                           00 00 00 0a         |         ....   |        corr: 10 0x529-0x52d (4)
     |                                               |                |      [10]{}: leap_second_record 0x52d-0x539 (12)
0x520|                                       00 00 00|             ...|        occur: "1982-07-01T00:00:10Z" (394329610) 0x52d-0x535 (8)
0x530|00 17 80 fe 0a                                 |.....           |
0x530|               00 00 00 0b                     |     ....       |        corr: 11 0x535-0x539 (4)
     |                                               |                |      [11]{}: leap_second_record 0x539-0x545 (12)
0x530|                           00 00 00 00 19 62 31|         .....b1|        occur: "1983-07-01T00:00:11Z" (425865611) 0x539-0x541 (8)
0x540|8b                                             |.               |
0x540|   00 00 00 0c                                 | ....           |        corr: 12 0x541-0x545 (4)
     |                                               |                |      [12]{}: leap_second_record 0x545-0x551 (12)
0x540|               00 00 00 00 1d 25 ea 0c         |     .....%..   |        occur: "1985-07-01T00:00:12Z" (489024012) 0x545-0x54d (8)
0x540|                                       00 00 00|             ...|        corr: 13 0x54d-0x551 (4)
0x550|0d                                             |.               |
     |                                               |                |      [13]{}: leap_second_record 0x551-0x55d (12)
0x550|   00 00 00 00 21 da e5 0d                     | ....!...       |        occur: "1988-01-01T00:00:13Z" (567993613) 0x551-0x559 (8)
0x550|                           00 00 00 0e         |         ....   |        corr: 14 0x559-0x55d (4)
     |                                               |                |      [14]{}: leap_second_record 0x55d-0x569 (12)
0x550|                                       00 00 00|             ...|        occur: "1990-01-01T00:00:14Z" (631152014) 0x55d-0x565 (8)
0x560|00 25 9e 9d 8e                                 |.%...           |
0x560|               00 00 00 0f                     |     ....       |        corr: 15 0x565-0x569 (4)
     |                                               |                |      [15]{}: leap_second_record 0x569-0x575 (12)
0x560|                           00 00 00 00 27 7f d1|         ....'..|        occur: "1991-01-01T00:00:15Z" (662688015) 0x569-0x571 (8)
0x570|0f                                             |.               |
0x570|   00 00 00 10                                 | ....           |        corr: 16 0x571-0x575 (4)
     |                                               |                |      [16]{}: leap_second_record 0x575-0x581 (12)
0x570|               00 00 00 00 2a 50 f5 90         |     ....*P..   |        occur: "1992-07-01T00:00:16Z" (709948816) 0x575-0x57d (8)
0x570|                                       00 00 00|             ...|        corr: 17 0x57d-0x581 (4)
0x580|11                                             |.               |
     |                                               |                |      [17]{}: leap_second_record 0x581-0x58d (12)
0x580|   00 00 00 00 2c 32 29 11                     | ....,2).       |        occur: "1993-07-01T00:00:17Z" (741484817) 0x581-0x589 (8)
0x580|                           00 00 00 12         |         ....   |        corr: 18 0x589-0x58d (4)
     |                                               |                |      [18]{}: leap_second_record 0x58d-0x599 (12)
0x580|                                       00 00 00|             ...|        occur: "1994-07-01T00:00:18Z" (773020818) 0x58d-0x595 (8)
0x590|00 2e 13 5c 92                                 |...\.           |
0x590|               00 00 00 13                     |     ....       |        corr: 19 0x595-0x599 (4)
     |                                               |                |      [19]{}: leap_second_record 0x599-0x5a5 (12)
0x590|                           00 00 00 00 30 e7 24|         ....0.$|        occur: "1996-01-01T00:00:19Z" (820454419) 0x599-0x5a1 (8)
0x5a0|13                                             |.               |
0x5a0|   00 00 00 14                                 | ....           |        corr: 20 0x5a1-0x5a5 (4)
     |                                               |                |      [20]{}: leap_second_record 0x5a5-0x5b1 (12)
0x5a0|               00 00 00 00 33 b8 48 94         |     ....3.H.   |        occur: "1997-07-01T00:00:20Z" (867715220) 0x5a5-0x5ad (8)
0x5a0|                                       00 00 00|             ...|        corr: 21 0x5ad-0x5b1 (4)
0x5b0|15                                             |.               |
     |                                               |                |      [21]{}: leap_second_record 0x5b1-0x5bd (12)
0x5b0|   00 00 00 00 36 8c 10 15                     | ....6...       |        occur: "1999-01-01T00:00:21Z" (915148821) 0x5b1-0x5b9 (8)
0x5b0|                           00 00 00 16         |         ....   |        corr: 22 0x5b9-0x5bd (4)
     |                                               |                |      [22]{}: leap_second_record 0x5bd-0x5c9 (12)
0x5b0|                                       00 00 00|             ...|        occur: "2006-01-01T00:00:22Z" (1136073622) 0x5bd-0x5c5 (8)
0x5c0|00 43 b7 1b 96                                 |.C...           |
0x5c0|               00 00 00 17                     |     ....       |        corr: 23 0x5c5-0x5c9 (4)
     |                                               |                |      [23]{}: leap_second_record 0x5c9-0x5d5 (12)
0x5c0|                           00 00 00 00 49 5c 07|         ....I\.|        occur: "2009-01-01T00:00:23Z" (1230768023) 0x5c9-0x5d1 (8)
0x5d0|97                                             |.               |
0x5d0|   00 00 00 18                                 | ....           |        corr: 24 0x5d1-0x5d5 (4)
     |                                               |                |      [24]{}: leap_second_record 0x5d5-0x5e1 (12)
0x5d0|               00 00 00 00 4f ef 93 18         |     ....O...   |        occur: "2012-07-01T00:00:24Z" (1341100824) 0x5d5-0x5dd (8)
0x5d0|                                       00 00 00|             ...|        corr: 25 0x5dd-0x5e1 (4)
0x5e0|19                                             |.               |
     |                                               |                |      [25]{}: leap_second_record 0x5e1-0x5ed (12)
0x5e0|   00 00 00 00 55 93 2d 99                     | ....U.-.       |        occur: "2015-07-01T00:00:25Z" (1435708825) 0x5e1-0x5e9 (8)
0x5e0|                           00 00 00 1a         |         ....   |        corr: 26 0x5e9-0x5ed (4)
     |                                               |                |      [26]{}: leap_second_record 0x5ed-0x5f9 (12)
0x5e0|                                       00 00 00|             ...|        occur: "2017-01-01T00:00:26Z" (1483228826) 0x5ed-0x5f5 (8)
0x5f0|00 58 68 46 9a                                 |.XhF.           |
0x5f0|               00 00 00 1b                     |     ....       |        corr: 27 0x5f5-0x5f9 (4)
     |                                               |                |    standard_wall_indicators[0:8]: 0x5f9-0x601 (8)
0x5f0|                           00                  |         .      |      [0]: 0 standard_wall_indicator (valid) 0x5f9-0x5fa (1)
0x5f0|                              00               |          .     |      [1]: 0 standard_wall_indicator (valid) 0x5fa-0x5fb (1)
0x5f0|                                 00            |           .    |      [2]: 0 standard_wall_indicator (valid) 0x5fb-0x5fc (1)
0x5f0|                                    00         |            .   |      [3]: 0 standard_wall_indicator (valid) 0x5fc-0x5fd (1)
0x5f0|                                       01      |             .  |      [4]: 1 standard_wall_indicator (valid) 0x5fd-0x5fe (1)
0x5f0|                                          00   |              . |      [5]: 0 standard_wall_indicator (valid) 0x5fe-0x5ff (1)
0x5f0|                                             00|               .|      [6]: 0 standard_wall_indicator (valid) 0x5ff-0x600 (1)
0x600|00                                             |.               |      [7]: 0 standard_wall_indicator (valid) 0x600-0x601 (1)
     |                                               |                |    ut_local_indicators[0:8]: 0x601-0x609 (8)
0x600|   00                                          | .              |      [0]: 0 ut_local_indicator (valid) 0x601-0x602 (1)
0x600|      00                                       |  .             |      [1]: 0 ut_local_indicator (valid) 0x602-0x603 (1)
0x600|         00                                    |   .            |      [2]: 0 ut_local_indicator (valid) 0x603-0x604 (1)
0x600|            00                                 |    .           |      [3]: 0 ut_local_indicator (valid) 0x604-0x605 (1)
0x600|               01                              |     .          |      [4]: 1 ut_local_indicator (valid) 0x605-0x606 (1)
0x600|                  00                           |      .         |      [5]: 0 ut_local_indicator (valid) 0x606-0x607 (1)
0x600|                     00                        |       .        |      [6]: 0 ut_local_indicator (valid) 0x607-0x608 (1)
0x600|                        00                     |        .       |      [7]: 0 ut_local_indicator (valid) 0x608-0x609 (1)
     |                                               |                |  footer{}: 0x609-0x60b (2)
0x600|                           0a                  |         .      |    nl1: 10 (valid) 0x609-0x60a (1)
     |                                               |                |    tz_string: "" 0x60a-0x60a (0)
0x600|                              0a|              |          .|    |    nl2: 10 (valid) 0x60a-0x60b (1)
