$ fq -d tzif dv Mexico_City
     |00 01 02 03 04 05 06 07 08 09 0a 0b 0c 0d 0e 0f|0123456789abcdef|.{}: Mexico_City (tzif) 0x0-0x6eb.7 (1772)
     |                                               |                |  v1header{}: 0x0-0x2b.7 (44)
0x000|54 5a 69 66                                    |TZif            |    magic: 0x545a6966 (valid) 0x0-0x3.7 (4)
0x000|            32                                 |    2           |    ver: "2" (0x32) (valid) 0x4-0x4.7 (1)
0x000|               00 00 00 00 00 00 00 00 00 00 00|     ...........|    reserved: raw bits 0x5-0x13.7 (15)
0x010|00 00 00 00                                    |....            |
0x010|            00 00 00 08                        |    ....        |    isutcnt: 8 0x14-0x17.7 (4)
0x010|                        00 00 00 08            |        ....    |    isstdcnt: 8 0x18-0x1b.7 (4)
0x010|                                    00 00 00 1b|            ....|    leapcnt: 27 0x1c-0x1f.7 (4)
0x020|00 00 00 45                                    |...E            |    timecnt: 69 0x20-0x23.7 (4)
0x020|            00 00 00 08                        |    ....        |    typecnt: 8 0x24-0x27.7 (4)
0x020|                        00 00 00 18            |        ....    |    charcnt: 24 0x28-0x2b.7 (4)
     |                                               |                |  v1datablock{}: 0x2c-0x2b4.7 (649)
     |                                               |                |    transition_times[0:69]: 0x2c-0x13f.7 (276)
0x020|                                    a5 b6 e8 70|            ...p|      [0]: "1922-01-01T07:00:00Z" (-1514739600) transition_time 0x2c-0x2f.7 (4)
0x030|af f2 6e e0                                    |..n.            |      [1]: "1927-06-11T06:00:00Z" (-1343066400) transition_time 0x30-0x33.7 (4)
0x030|            b6 66 56 60                        |    .fV`        |      [2]: "1930-11-15T06:00:00Z" (-1234807200) transition_time 0x34-0x37.7 (4)
0x030|                        b7 43 d2 60            |        .C.`    |      [3]: "1931-05-02T06:00:00Z" (-1220292000) transition_time 0x38-0x3b.7 (4)
0x030|                                    b8 0c 36 60|            ..6`|      [4]: "1931-10-01T06:00:00Z" (-1207159200) transition_time 0x3c-0x3f.7 (4)
0x040|b8 fd 86 f0                                    |....            |      [5]: "1932-04-01T07:00:00Z" (-1191344400) transition_time 0x40-0x43.7 (4)
0x040|            c5 de b0 60                        |    ...`        |      [6]: "1939-02-05T06:00:00Z" (-975261600) transition_time 0x44-0x47.7 (4)
0x040|                        c6 97 34 50            |        ..4P    |      [7]: "1939-06-25T05:00:00Z" (-963169200) transition_time 0x48-0x4b.7 (4)
0x040|                                    c9 55 f1 e0|            .U..|      [8]: "1940-12-09T06:00:00Z" (-917114400) transition_time 0x4c-0x4f.7 (4)
0x050|c9 ea dd 50                                    |...P            |      [9]: "1941-04-01T05:00:00Z" (-907354800) transition_time 0x50-0x53.7 (4)
0x050|            cf 02 c6 e0                        |    ....        |      [10]: "1943-12-16T06:00:00Z" (-821901600) transition_time 0x54-0x57.7 (4)
0x050|                        cf b7 56 50            |        ..VP    |      [11]: "1944-05-01T05:00:00Z" (-810068400) transition_time 0x58-0x5b.7 (4)
0x050|                                    da 99 15 e0|            ....|      [12]: "1950-02-12T06:00:00Z" (-627501600) transition_time 0x5c-0x5f.7 (4)
0x060|db 76 83 d0                                    |.v..            |      [13]: "1950-07-30T05:00:00Z" (-612990000) transition_time 0x60-0x63.7 (4)
0x060|            31 67 76 14                        |    1gv.        |      [14]: "1996-04-07T08:00:20Z" (828864020) transition_time 0x64-0x67.7 (4)
0x060|                        32 73 08 84            |        2s..    |      [15]: "1996-10-27T07:00:20Z" (846399620) transition_time 0x68-0x6b.7 (4)
0x060|                                    33 47 58 14|            3GX.|      [16]: "1997-04-06T08:00:20Z" (860313620) transition_time 0x6c-0x6f.7 (4)
0x070|34 52 ea 85                                    |4R..            |      [17]: "1997-10-26T07:00:21Z" (877849221) transition_time 0x70-0x73.7 (4)
0x070|            35 27 3a 15                        |    5':.        |      [18]: "1998-04-05T08:00:21Z" (891763221) transition_time 0x74-0x77.7 (4)
0x070|                        36 32 cc 85            |        62..    |      [19]: "1998-10-25T07:00:21Z" (909298821) transition_time 0x78-0x7b.7 (4)
0x070|                                    37 07 1c 16|            7...|      [20]: "1999-04-04T08:00:22Z" (923212822) transition_time 0x7c-0x7f.7 (4)
0x080|38 1b e9 06                                    |8...            |      [21]: "1999-10-31T07:00:22Z" (941353222) transition_time 0x80-0x83.7 (4)
0x080|            38 e6 fe 16                        |    8...        |      [22]: "2000-04-02T08:00:22Z" (954662422) transition_time 0x84-0x87.7 (4)
0x080|                        39 fb cb 06            |        9...    |      [23]: "2000-10-29T07:00:22Z" (972802822) transition_time 0x88-0x8b.7 (4)
0x080|                                    3a f5 04 96|            :...|      [24]: "2001-05-06T08:00:22Z" (989136022) transition_time 0x8c-0x8f.7 (4)
0x090|3b b6 c3 06                                    |;...            |      [25]: "2001-09-30T07:00:22Z" (1001833222) transition_time 0x90-0x93.7 (4)
0x090|            3c af fc 96                        |    <...        |      [26]: "2002-04-07T08:00:22Z" (1018166422) transition_time 0x94-0x97.7 (4)
0x090|                        3d bb 8f 06            |        =...    |      [27]: "2002-10-27T07:00:22Z" (1035702022) transition_time 0x98-0x9b.7 (4)
0x090|                                    3e 8f de 96|            >...|      [28]: "2003-04-06T08:00:22Z" (1049616022) transition_time 0x9c-0x9f.7 (4)
0x0a0|3f 9b 71 06                                    |?.q.            |      [29]: "2003-10-26T07:00:22Z" (1067151622) transition_time 0xa0-0xa3.7 (4)
0x0a0|            40 6f c0 96                        |    @o..        |      [30]: "2004-04-04T08:00:22Z" (1081065622) transition_time 0xa4-0xa7.7 (4)
0x0a0|                        41 84 8d 86            |        A...    |      [31]: "2004-10-31T07:00:22Z" (1099206022) transition_time 0xa8-0xab.7 (4)
0x0a0|                                    42 4f a2 96|            BO..|      [32]: "2005-04-03T08:00:22Z" (1112515222) transition_time 0xac-0xaf.7 (4)
0x0b0|43 64 6f 86                                    |Cdo.            |      [33]: "2005-10-30T07:00:22Z" (1130655622) transition_time 0xb0-0xb3.7 (4)
0x0b0|            44 2f 84 97                        |    D/..        |      [34]: "2006-04-02T08:00:23Z" (1143964823) transition_time 0xb4-0xb7.7 (4)
0x0b0|                        45 44 51 87            |        EDQ.    |      [35]: "2006-10-29T07:00:23Z" (1162105223) transition_time 0xb8-0xbb.7 (4)
0x0b0|                                    46 0f 66 97|            F.f.|      [36]: "2007-04-01T08:00:23Z" (1175414423) transition_time 0xbc-0xbf.7 (4)
0x0c0|47 24 33 87                                    |G$3.            |      [37]: "2007-10-28T07:00:23Z" (1193554823) transition_time 0xc0-0xc3.7 (4)
0x0c0|            47 f8 83 17                        |    G...        |      [38]: "2008-04-06T08:00:23Z" (1207468823) transition_time 0xc4-0xc7.7 (4)
0x0c0|                        49 04 15 87            |        I...    |      [39]: "2008-10-26T07:00:23Z" (1225004423) transition_time 0xc8-0xcb.7 (4)
0x0c0|                                    49 d8 65 18|            I.e.|      [40]: "2009-04-05T08:00:24Z" (1238918424) transition_time 0xcc-0xcf.7 (4)
0x0d0|4a e3 f7 88                                    |J...            |      [41]: "2009-10-25T07:00:24Z" (1256454024) transition_time 0xd0-0xd3.7 (4)
0x0d0|            4b b8 47 18                        |    K.G.        |      [42]: "2010-04-04T08:00:24Z" (1270368024) transition_time 0xd4-0xd7.7 (4)
0x0d0|                        4c cd 14 08            |        L...    |      [43]: "2010-10-31T07:00:24Z" (1288508424) transition_time 0xd8-0xdb.7 (4)
0x0d0|                                    4d 98 29 18|            M.).|      [44]: "2011-04-03T08:00:24Z" (1301817624) transition_time 0xdc-0xdf.7 (4)
0x0e0|4e ac f6 08                                    |N...            |      [45]: "2011-10-30T07:00:24Z" (1319958024) transition_time 0xe0-0xe3.7 (4)
0x0e0|            4f 78 0b 18                        |    Ox..        |      [46]: "2012-04-01T08:00:24Z" (1333267224) transition_time 0xe4-0xe7.7 (4)
0x0e0|                        50 8c d8 09            |        P...    |      [47]: "2012-10-28T07:00:25Z" (1351407625) transition_time 0xe8-0xeb.7 (4)
0x0e0|                                    51 61 27 99|            Qa'.|      [48]: "2013-04-07T08:00:25Z" (1365321625) transition_time 0xec-0xef.7 (4)
0x0f0|52 6c ba 09                                    |Rl..            |      [49]: "2013-10-27T07:00:25Z" (1382857225) transition_time 0xf0-0xf3.7 (4)
0x0f0|            53 41 09 99                        |    SA..        |      [50]: "2014-04-06T08:00:25Z" (1396771225) transition_time 0xf4-0xf7.7 (4)
0x0f0|                        54 4c 9c 09            |        TL..    |      [51]: "2014-10-26T07:00:25Z" (1414306825) transition_time 0xf8-0xfb.7 (4)
0x0f0|                                    55 20 eb 99|            U ..|      [52]: "2015-04-05T08:00:25Z" (1428220825) transition_time 0xfc-0xff.7 (4)
0x100|56 2c 7e 0a                                    |V,~.            |      [53]: "2015-10-25T07:00:26Z" (1445756426) transition_time 0x100-0x103.7 (4)
0x100|            57 00 cd 9a                        |    W...        |      [54]: "2016-04-03T08:00:26Z" (1459670426) transition_time 0x104-0x107.7 (4)
0x100|                        58 15 9a 8a            |        X...    |      [55]: "2016-10-30T07:00:26Z" (1477810826) transition_time 0x108-0x10b.7 (4)
0x100|                                    58 e0 af 9b|            X...|      [56]: "2017-04-02T08:00:27Z" (1491120027) transition_time 0x10c-0x10f.7 (4)
0x110|59 f5 7c 8b                                    |Y.|.            |      [57]: "2017-10-29T07:00:27Z" (1509260427) transition_time 0x110-0x113.7 (4)
0x110|            5a c0 91 9b                        |    Z...        |      [58]: "2018-04-01T08:00:27Z" (1522569627) transition_time 0x114-0x117.7 (4)
0x110|                        5b d5 5e 8b            |        [.^.    |      [59]: "2018-10-28T07:00:27Z" (1540710027) transition_time 0x118-0x11b.7 (4)
0x110|                                    5c a9 ae 1b|            \...|      [60]: "2019-04-07T08:00:27Z" (1554624027) transition_time 0x11c-0x11f.7 (4)
0x120|5d b5 40 8b                                    |].@.            |      [61]: "2019-10-27T07:00:27Z" (1572159627) transition_time 0x120-0x123.7 (4)
0x120|            5e 89 90 1b                        |    ^...        |      [62]: "2020-04-05T08:00:27Z" (1586073627) transition_time 0x124-0x127.7 (4)
0x120|                        5f 95 22 8b            |        _.".    |      [63]: "2020-10-25T07:00:27Z" (1603609227) transition_time 0x128-0x12b.7 (4)
0x120|                                    60 69 72 1b|            `ir.|      [64]: "2021-04-04T08:00:27Z" (1617523227) transition_time 0x12c-0x12f.7 (4)
0x130|61 7e 3f 0b                                    |a~?.            |      [65]: "2021-10-31T07:00:27Z" (1635663627) transition_time 0x130-0x133.7 (4)
0x130|            62 49 54 1b                        |    bIT.        |      [66]: "2022-04-03T08:00:27Z" (1648972827) transition_time 0x134-0x137.7 (4)
0x130|                        63 5e 21 0b            |        c^!.    |      [67]: "2022-10-30T07:00:27Z" (1667113227) transition_time 0x138-0x13b.7 (4)
0x130|                                    64 9b 78 1b|            d.x.|      [68]: "2023-06-28T00:00:27Z" (1687910427) transition_time 0x13c-0x13f.7 (4)
     |                                               |                |    transition_types[0:69]: 0x140-0x184.7 (69)
0x140|01                                             |.               |      [0]: 1 transition_type 0x140-0x140.7 (1)
0x140|   02                                          | .              |      [1]: 2 transition_type 0x141-0x141.7 (1)
0x140|      04                                       |  .             |      [2]: 4 transition_type 0x142-0x142.7 (1)
0x140|         03                                    |   .            |      [3]: 3 transition_type 0x143-0x143.7 (1)
0x140|            04                                 |    .           |      [4]: 4 transition_type 0x144-0x144.7 (1)
0x140|               02                              |     .          |      [5]: 2 transition_type 0x145-0x145.7 (1)
0x140|                  05                           |      .         |      [6]: 5 transition_type 0x146-0x146.7 (1)
0x140|                     02                        |       .        |      [7]: 2 transition_type 0x147-0x147.7 (1)
0x140|                        05                     |        .       |      [8]: 5 transition_type 0x148-0x148.7 (1)
0x140|                           02                  |         .      |      [9]: 2 transition_type 0x149-0x149.7 (1)
0x140|                              06               |          .     |      [10]: 6 transition_type 0x14a-0x14a.7 (1)
0x140|                                 02            |           .    |      [11]: 2 transition_type 0x14b-0x14b.7 (1)
0x140|                                    05         |            .   |      [12]: 5 transition_type 0x14c-0x14c.7 (1)
0x140|                                       02      |             .  |      [13]: 2 transition_type 0x14d-0x14d.7 (1)
0x140|                                          05   |              . |      [14]: 5 transition_type 0x14e-0x14e.7 (1)
0x140|                                             02|               .|      [15]: 2 transition_type 0x14f-0x14f.7 (1)
0x150|05                                             |.               |      [16]: 5 transition_type 0x150-0x150.7 (1)
0x150|   02                                          | .              |      [17]: 2 transition_type 0x151-0x151.7 (1)
0x150|      05                                       |  .             |      [18]: 5 transition_type 0x152-0x152.7 (1)
0x150|         02                                    |   .            |      [19]: 2 transition_type 0x153-0x153.7 (1)
0x150|            05                                 |    .           |      [20]: 5 transition_type 0x154-0x154.7 (1)
0x150|               02                              |     .          |      [21]: 2 transition_type 0x155-0x155.7 (1)
0x150|                  05                           |      .         |      [22]: 5 transition_type 0x156-0x156.7 (1)
0x150|                     02                        |       .        |      [23]: 2 transition_type 0x157-0x157.7 (1)
0x150|                        05                     |        .       |      [24]: 5 transition_type 0x158-0x158.7 (1)
0x150|                           02                  |         .      |      [25]: 2 transition_type 0x159-0x159.7 (1)
0x150|                              05               |          .     |      [26]: 5 transition_type 0x15a-0x15a.7 (1)
0x150|                                 02            |           .    |      [27]: 2 transition_type 0x15b-0x15b.7 (1)
0x150|                                    05         |            .   |      [28]: 5 transition_type 0x15c-0x15c.7 (1)
0x150|                                       02      |             .  |      [29]: 2 transition_type 0x15d-0x15d.7 (1)
0x150|                                          05   |              . |      [30]: 5 transition_type 0x15e-0x15e.7 (1)
0x150|                                             02|               .|      [31]: 2 transition_type 0x15f-0x15f.7 (1)
0x160|05                                             |.               |      [32]: 5 transition_type 0x160-0x160.7 (1)
0x160|   02                                          | .              |      [33]: 2 transition_type 0x161-0x161.7 (1)
0x160|      05                                       |  .             |      [34]: 5 transition_type 0x162-0x162.7 (1)
0x160|         02                                    |   .            |      [35]: 2 transition_type 0x163-0x163.7 (1)
0x160|            05                                 |    .           |      [36]: 5 transition_type 0x164-0x164.7 (1)
0x160|               02                              |     .          |      [37]: 2 transition_type 0x165-0x165.7 (1)
0x160|                  05                           |      .         |      [38]: 5 transition_type 0x166-0x166.7 (1)
0x160|                     02                        |       .        |      [39]: 2 transition_type 0x167-0x167.7 (1)
0x160|                        05                     |        .       |      [40]: 5 transition_type 0x168-0x168.7 (1)
0x160|                           02                  |         .      |      [41]: 2 transition_type 0x169-0x169.7 (1)
0x160|                              05               |          .     |      [42]: 5 transition_type 0x16a-0x16a.7 (1)
0x160|                                 02            |           .    |      [43]: 2 transition_type 0x16b-0x16b.7 (1)
0x160|                                    05         |            .   |      [44]: 5 transition_type 0x16c-0x16c.7 (1)
0x160|                                       02      |             .  |      [45]: 2 transition_type 0x16d-0x16d.7 (1)
0x160|                                          05   |              . |      [46]: 5 transition_type 0x16e-0x16e.7 (1)
0x160|                                             02|               .|      [47]: 2 transition_type 0x16f-0x16f.7 (1)
0x170|05                                             |.               |      [48]: 5 transition_type 0x170-0x170.7 (1)
0x170|   02                                          | .              |      [49]: 2 transition_type 0x171-0x171.7 (1)
0x170|      05                                       |  .             |      [50]: 5 transition_type 0x172-0x172.7 (1)
0x170|         02                                    |   .            |      [51]: 2 transition_type 0x173-0x173.7 (1)
0x170|            05                                 |    .           |      [52]: 5 transition_type 0x174-0x174.7 (1)
0x170|               02                              |     .          |      [53]: 2 transition_type 0x175-0x175.7 (1)
0x170|                  05                           |      .         |      [54]: 5 transition_type 0x176-0x176.7 (1)
0x170|                     02                        |       .        |      [55]: 2 transition_type 0x177-0x177.7 (1)
0x170|                        05                     |        .       |      [56]: 5 transition_type 0x178-0x178.7 (1)
0x170|                           02                  |         .      |      [57]: 2 transition_type 0x179-0x179.7 (1)
0x170|                              05               |          .     |      [58]: 5 transition_type 0x17a-0x17a.7 (1)
0x170|                                 02            |           .    |      [59]: 2 transition_type 0x17b-0x17b.7 (1)
0x170|                                    05         |            .   |      [60]: 5 transition_type 0x17c-0x17c.7 (1)
0x170|                                       02      |             .  |      [61]: 2 transition_type 0x17d-0x17d.7 (1)
0x170|                                          05   |              . |      [62]: 5 transition_type 0x17e-0x17e.7 (1)
0x170|                                             02|               .|      [63]: 2 transition_type 0x17f-0x17f.7 (1)
0x180|05                                             |.               |      [64]: 5 transition_type 0x180-0x180.7 (1)
0x180|   02                                          | .              |      [65]: 2 transition_type 0x181-0x181.7 (1)
0x180|      05                                       |  .             |      [66]: 5 transition_type 0x182-0x182.7 (1)
0x180|         02                                    |   .            |      [67]: 2 transition_type 0x183-0x183.7 (1)
0x180|            02                                 |    .           |      [68]: 2 transition_type 0x184-0x184.7 (1)
     |                                               |                |    local_time_type_records[0:8]: 0x185-0x1b4.7 (48)
     |                                               |                |      [0]{}: local_time_type 0x185-0x18a.7 (6)
0x180|               ff ff a3 0c                     |     ....       |        utoff: -23796 (valid) 0x185-0x188.7 (4)
0x180|                           00                  |         .      |        dst: 0 (valid) 0x189-0x189.7 (1)
0x180|                              00               |          .     |        idx: 0 (valid) 0x18a-0x18a.7 (1)
     |                                               |                |      [1]{}: local_time_type 0x18b-0x190.7 (6)
0x180|                                 ff ff 9d 90   |           .... |        utoff: -25200 (valid) 0x18b-0x18e.7 (4)
0x180|                                             00|               .|        dst: 0 (valid) 0x18f-0x18f.7 (1)
0x190|04                                             |.               |        idx: 4 (valid) 0x190-0x190.7 (1)
     |                                               |                |      [2]{}: local_time_type 0x191-0x196.7 (6)
0x190|   ff ff ab a0                                 | ....           |        utoff: -21600 (valid) 0x191-0x194.7 (4)
0x190|               00                              |     .          |        dst: 0 (valid) 0x195-0x195.7 (1)
0x190|                  08                           |      .         |        idx: 8 (valid) 0x196-0x196.7 (1)
     |                                               |                |      [3]{}: local_time_type 0x197-0x19c.7 (6)
0x190|                     ff ff ab a0               |       ....     |        utoff: -21600 (valid) 0x197-0x19a.7 (4)
0x190|                                 01            |           .    |        dst: 1 (valid) 0x19b-0x19b.7 (1)
0x190|                                    0c         |            .   |        idx: 12 (valid) 0x19c-0x19c.7 (1)
     |                                               |                |      [4]{}: local_time_type 0x19d-0x1a2.7 (6)
0x190|                                       ff ff 9d|             ...|        utoff: -25200 (valid) 0x19d-0x1a0.7 (4)
0x1a0|90                                             |.               |
0x1a0|   00                                          | .              |        dst: 0 (valid) 0x1a1-0x1a1.7 (1)
0x1a0|      04                                       |  .             |        idx: 4 (valid) 0x1a2-0x1a2.7 (1)
     |                                               |                |      [5]{}: local_time_type 0x1a3-0x1a8.7 (6)
0x1a0|         ff ff b9 b0                           |   ....         |        utoff: -18000 (valid) 0x1a3-0x1a6.7 (4)
0x1a0|                     01                        |       .        |        dst: 1 (valid) 0x1a7-0x1a7.7 (1)
0x1a0|                        10                     |        .       |        idx: 16 (valid) 0x1a8-0x1a8.7 (1)
     |                                               |                |      [6]{}: local_time_type 0x1a9-0x1ae.7 (6)
0x1a0|                           ff ff b9 b0         |         ....   |        utoff: -18000 (valid) 0x1a9-0x1ac.7 (4)
0x1a0|                                       01      |             .  |        dst: 1 (valid) 0x1ad-0x1ad.7 (1)
0x1a0|                                          14   |              . |        idx: 20 (valid) 0x1ae-0x1ae.7 (1)
     |                                               |                |      [7]{}: local_time_type 0x1af-0x1b4.7 (6)
0x1a0|                                             ff|               .|        utoff: -21600 (valid) 0x1af-0x1b2.7 (4)
0x1b0|ff ab a0                                       |...             |
0x1b0|         00                                    |   .            |        dst: 0 (valid) 0x1b3-0x1b3.7 (1)
0x1b0|            08                                 |    .           |        idx: 8 (valid) 0x1b4-0x1b4.7 (1)
     |                                               |                |    time_zone_designations[0:6]: 0x1b5-0x1cc.7 (24)
0x1b0|               4c 4d 54 00                     |     LMT.       |      [0]: "LMT" time_zone_designation 0x1b5-0x1b8.7 (4)
0x1b0|                           4d 53 54 00         |         MST.   |      [1]: "MST" time_zone_designation 0x1b9-0x1bc.7 (4)
0x1b0|                                       43 53 54|             CST|      [2]: "CST" time_zone_designation 0x1bd-0x1c0.7 (4)
0x1c0|00                                             |.               |
0x1c0|   4d 44 54 00                                 | MDT.           |      [3]: "MDT" time_zone_designation 0x1c1-0x1c4.7 (4)
0x1c0|               43 44 54 00                     |     CDT.       |      [4]: "CDT" time_zone_designation 0x1c5-0x1c8.7 (4)
0x1c0|                           43 57 54 00         |         CWT.   |      [5]: "CWT" time_zone_designation 0x1c9-0x1cc.7 (4)
     |                                               |                |    leap_second_records[0:27]: 0x1cd-0x2a4.7 (216)
     |                                               |                |      [0]{}: leap_second_record 0x1cd-0x1d4.7 (8)
0x1c0|                                       04 b2 58|             ..X|        occur: "1972-07-01T00:00:00Z" (78796800) 0x1cd-0x1d0.7 (4)
0x1d0|00                                             |.               |
0x1d0|   00 00 00 01                                 | ....           |        corr: 1 0x1d1-0x1d4.7 (4)
     |                                               |                |      [1]{}: leap_second_record 0x1d5-0x1dc.7 (8)
0x1d0|               05 a4 ec 01                     |     ....       |        occur: "1973-01-01T00:00:01Z" (94694401) 0x1d5-0x1d8.7 (4)
0x1d0|                           00 00 00 02         |         ....   |        corr: 2 0x1d9-0x1dc.7 (4)
     |                                               |                |      [2]{}: leap_second_record 0x1dd-0x1e4.7 (8)
0x1d0|                                       07 86 1f|             ...|        occur: "1974-01-01T00:00:02Z" (126230402) 0x1dd-0x1e0.7 (4)
0x1e0|82                                             |.               |
0x1e0|   00 00 00 03                                 | ....           |        corr: 3 0x1e1-0x1e4.7 (4)
     |                                               |                |      [3]{}: leap_second_record 0x1e5-0x1ec.7 (8)
0x1e0|               09 67 53 03                     |     .gS.       |        occur: "1975-01-01T00:00:03Z" (157766403) 0x1e5-0x1e8.7 (4)
0x1e0|                           00 00 00 04         |         ....   |        corr: 4 0x1e9-0x1ec.7 (4)
     |                                               |                |      [4]{}: leap_second_record 0x1ed-0x1f4.7 (8)
0x1e0|                                       0b 48 86|             .H.|        occur: "1976-01-01T00:00:04Z" (189302404) 0x1ed-0x1f0.7 (4)
0x1f0|84                                             |.               |
0x1f0|   00 00 00 05                                 | ....           |        corr: 5 0x1f1-0x1f4.7 (4)
     |                                               |                |      [5]{}: leap_second_record 0x1f5-0x1fc.7 (8)
0x1f0|               0d 2b 0b 85                     |     .+..       |        occur: "1977-01-01T00:00:05Z" (220924805) 0x1f5-0x1f8.7 (4)
0x1f0|                           00 00 00 06         |         ....   |        corr: 6 0x1f9-0x1fc.7 (4)
     |                                               |                |      [6]{}: leap_second_record 0x1fd-0x204.7 (8)
0x1f0|                                       0f 0c 3f|             ..?|        occur: "1978-01-01T00:00:06Z" (252460806) 0x1fd-0x200.7 (4)
0x200|06                                             |.               |
0x200|   00 00 00 07                                 | ....           |        corr: 7 0x201-0x204.7 (4)
     |                                               |                |      [7]{}: leap_second_record 0x205-0x20c.7 (8)
0x200|               10 ed 72 87                     |     ..r.       |        occur: "1979-01-01T00:00:07Z" (283996807) 0x205-0x208.7 (4)
0x200|                           00 00 00 08         |         ....   |        corr: 8 0x209-0x20c.7 (4)
     |                                               |                |      [8]{}: leap_second_record 0x20d-0x214.7 (8)
0x200|                                       12 ce a6|             ...|        occur: "1980-01-01T00:00:08Z" (315532808) 0x20d-0x210.7 (4)
0x210|08                                             |.               |
0x210|   00 00 00 09                                 | ....           |        corr: 9 0x211-0x214.7 (4)
     |                                               |                |      [9]{}: leap_second_record 0x215-0x21c.7 (8)
0x210|               15 9f ca 89                     |     ....       |        occur: "1981-07-01T00:00:09Z" (362793609) 0x215-0x218.7 (4)
0x210|                           00 00 00 0a         |         ....   |        corr: 10 0x219-0x21c.7 (4)
     |                                               |                |      [10]{}: leap_second_record 0x21d-0x224.7 (8)
0x210|                                       17 80 fe|             ...|        occur: "1982-07-01T00:00:10Z" (394329610) 0x21d-0x220.7 (4)
0x220|0a                                             |.               |
0x220|   00 00 00 0b                                 | ....           |        corr: 11 0x221-0x224.7 (4)
     |                                               |                |      [11]{}: leap_second_record 0x225-0x22c.7 (8)
0x220|               19 62 31 8b                     |     .b1.       |        occur: "1983-07-01T00:00:11Z" (425865611) 0x225-0x228.7 (4)
0x220|                           00 00 00 0c         |         ....   |        corr: 12 0x229-0x22c.7 (4)
     |                                               |                |      [12]{}: leap_second_record 0x22d-0x234.7 (8)
0x220|                                       1d 25 ea|             .%.|        occur: "1985-07-01T00:00:12Z" (489024012) 0x22d-0x230.7 (4)
0x230|0c                                             |.               |
0x230|   00 00 00 0d                                 | ....           |        corr: 13 0x231-0x234.7 (4)
     |                                               |                |      [13]{}: leap_second_record 0x235-0x23c.7 (8)
0x230|               21 da e5 0d                     |     !...       |        occur: "1988-01-01T00:00:13Z" (567993613) 0x235-0x238.7 (4)
0x230|                           00 00 00 0e         |         ....   |        corr: 14 0x239-0x23c.7 (4)
     |                                               |                |      [14]{}: leap_second_record 0x23d-0x244.7 (8)
0x230|                                       25 9e 9d|             %..|        occur: "1990-01-01T00:00:14Z" (631152014) 0x23d-0x240.7 (4)
0x240|8e                                             |.               |
0x240|   00 00 00 0f                                 | ....           |        corr: 15 0x241-0x244.7 (4)
     |                                               |                |      [15]{}: leap_second_record 0x245-0x24c.7 (8)
0x240|               27 7f d1 0f                     |     '...       |        occur: "1991-01-01T00:00:15Z" (662688015) 0x245-0x248.7 (4)
0x240|                           00 00 00 10         |         ....   |        corr: 16 0x249-0x24c.7 (4)
     |                                               |                |      [16]{}: leap_second_record 0x24d-0x254.7 (8)
0x240|                                       2a 50 f5|             *P.|        occur: "1992-07-01T00:00:16Z" (709948816) 0x24d-0x250.7 (4)
0x250|90                                             |.               |
0x250|   00 00 00 11                                 | ....           |        corr: 17 0x251-0x254.7 (4)
     |                                               |                |      [17]{}: leap_second_record 0x255-0x25c.7 (8)
0x250|               2c 32 29 11                     |     ,2).       |        occur: "1993-07-01T00:00:17Z" (741484817) 0x255-0x258.7 (4)
0x250|                           00 00 00 12         |         ....   |        corr: 18 0x259-0x25c.7 (4)
     |                                               |                |      [18]{}: leap_second_record 0x25d-0x264.7 (8)
0x250|                                       2e 13 5c|             ..\|        occur: "1994-07-01T00:00:18Z" (773020818) 0x25d-0x260.7 (4)
0x260|92                                             |.               |
0x260|   00 00 00 13                                 | ....           |        corr: 19 0x261-0x264.7 (4)
     |                                               |                |      [19]{}: leap_second_record 0x265-0x26c.7 (8)
0x260|               30 e7 24 13                     |     0.$.       |        occur: "1996-01-01T00:00:19Z" (820454419) 0x265-0x268.7 (4)
0x260|                           00 00 00 14         |         ....   |        corr: 20 0x269-0x26c.7 (4)
     |                                               |                |      [20]{}: leap_second_record 0x26d-0x274.7 (8)
0x260|                                       33 b8 48|             3.H|        occur: "1997-07-01T00:00:20Z" (867715220) 0x26d-0x270.7 (4)
0x270|94                                             |.               |
0x270|   00 00 00 15                                 | ....           |        corr: 21 0x271-0x274.7 (4)
     |                                               |                |      [21]{}: leap_second_record 0x275-0x27c.7 (8)
0x270|               36 8c 10 15                     |     6...       |        occur: "1999-01-01T00:00:21Z" (915148821) 0x275-0x278.7 (4)
0x270|                           00 00 00 16         |         ....   |        corr: 22 0x279-0x27c.7 (4)
     |                                               |                |      [22]{}: leap_second_record 0x27d-0x284.7 (8)
0x270|                                       43 b7 1b|             C..|        occur: "2006-01-01T00:00:22Z" (1136073622) 0x27d-0x280.7 (4)
0x280|96                                             |.               |
0x280|   00 00 00 17                                 | ....           |        corr: 23 0x281-0x284.7 (4)
     |                                               |                |      [23]{}: leap_second_record 0x285-0x28c.7 (8)
0x280|               49 5c 07 97                     |     I\..       |        occur: "2009-01-01T00:00:23Z" (1230768023) 0x285-0x288.7 (4)
0x280|                           00 00 00 18         |         ....   |        corr: 24 0x289-0x28c.7 (4)
     |                                               |                |      [24]{}: leap_second_record 0x28d-0x294.7 (8)
0x280|                                       4f ef 93|             O..|        occur: "2012-07-01T00:00:24Z" (1341100824) 0x28d-0x290.7 (4)
0x290|18                                             |.               |
0x290|   00 00 00 19                                 | ....           |        corr: 25 0x291-0x294.7 (4)
     |                                               |                |      [25]{}: leap_second_record 0x295-0x29c.7 (8)
0x290|               55 93 2d 99                     |     U.-.       |        occur: "2015-07-01T00:00:25Z" (1435708825) 0x295-0x298.7 (4)
0x290|                           00 00 00 1a         |         ....   |        corr: 26 0x299-0x29c.7 (4)
     |                                               |                |      [26]{}: leap_second_record 0x29d-0x2a4.7 (8)
0x290|                                       58 68 46|             XhF|        occur: "2017-01-01T00:00:26Z" (1483228826) 0x29d-0x2a0.7 (4)
0x2a0|9a                                             |.               |
0x2a0|   00 00 00 1b                                 | ....           |        corr: 27 0x2a1-0x2a4.7 (4)
     |                                               |                |    standard_wall_indicators[0:8]: 0x2a5-0x2ac.7 (8)
0x2a0|               00                              |     .          |      [0]: 0 standard_wall_indicator (valid) 0x2a5-0x2a5.7 (1)
0x2a0|                  01                           |      .         |      [1]: 1 standard_wall_indicator (valid) 0x2a6-0x2a6.7 (1)
0x2a0|                     00                        |       .        |      [2]: 0 standard_wall_indicator (valid) 0x2a7-0x2a7.7 (1)
0x2a0|                        00                     |        .       |      [3]: 0 standard_wall_indicator (valid) 0x2a8-0x2a8.7 (1)
0x2a0|                           00                  |         .      |      [4]: 0 standard_wall_indicator (valid) 0x2a9-0x2a9.7 (1)
0x2a0|                              00               |          .     |      [5]: 0 standard_wall_indicator (valid) 0x2aa-0x2aa.7 (1)
0x2a0|                                 00            |           .    |      [6]: 0 standard_wall_indicator (valid) 0x2ab-0x2ab.7 (1)
0x2a0|                                    00         |            .   |      [7]: 0 standard_wall_indicator (valid) 0x2ac-0x2ac.7 (1)
     |                                               |                |    ut_local_indicators[0:8]: 0x2ad-0x2b4.7 (8)
0x2a0|                                       00      |             .  |      [0]: 0 ut_local_indicator (valid) 0x2ad-0x2ad.7 (1)
0x2a0|                                          01   |              . |      [1]: 1 ut_local_indicator (valid) 0x2ae-0x2ae.7 (1)
0x2a0|                                             00|               .|      [2]: 0 ut_local_indicator (valid) 0x2af-0x2af.7 (1)
0x2b0|00                                             |.               |      [3]: 0 ut_local_indicator (valid) 0x2b0-0x2b0.7 (1)
0x2b0|   00                                          | .              |      [4]: 0 ut_local_indicator (valid) 0x2b1-0x2b1.7 (1)
0x2b0|      00                                       |  .             |      [5]: 0 ut_local_indicator (valid) 0x2b2-0x2b2.7 (1)
0x2b0|         00                                    |   .            |      [6]: 0 ut_local_indicator (valid) 0x2b3-0x2b3.7 (1)
0x2b0|            00                                 |    .           |      [7]: 0 ut_local_indicator (valid) 0x2b4-0x2b4.7 (1)
     |                                               |                |  v2plusheader{}: 0x2b5-0x2e0.7 (44)
0x2b0|               54 5a 69 66                     |     TZif       |    magic: 0x545a6966 (valid) 0x2b5-0x2b8.7 (4)
0x2b0|                           32                  |         2      |    ver: "2" (0x32) (valid) 0x2b9-0x2b9.7 (1)
0x2b0|                              00 00 00 00 00 00|          ......|    reserved: raw bits 0x2ba-0x2c8.7 (15)
0x2c0|00 00 00 00 00 00 00 00 00                     |.........       |
0x2c0|                           00 00 00 08         |         ....   |    isutcnt: 8 0x2c9-0x2cc.7 (4)
0x2c0|                                       00 00 00|             ...|    isstdcnt: 8 0x2cd-0x2d0.7 (4)
0x2d0|08                                             |.               |
0x2d0|   00 00 00 1b                                 | ....           |    leapcnt: 27 0x2d1-0x2d4.7 (4)
0x2d0|               00 00 00 45                     |     ...E       |    timecnt: 69 0x2d5-0x2d8.7 (4)
0x2d0|                           00 00 00 08         |         ....   |    typecnt: 8 0x2d9-0x2dc.7 (4)
0x2d0|                                       00 00 00|             ...|    charcnt: 24 0x2dd-0x2e0.7 (4)
0x2e0|18                                             |.               |
     |                                               |                |  v2plusdatablock{}: 0x2e1-0x6e9.7 (1033)
     |                                               |                |    transition_times[0:69]: 0x2e1-0x508.7 (552)
0x2e0|   ff ff ff ff a5 b6 e8 70                     | .......p       |      [0]: "1922-01-01T07:00:00Z" (-1514739600) transition_time 0x2e1-0x2e8.7 (8)
0x2e0|                           ff ff ff ff af f2 6e|         ......n|      [1]: "1927-06-11T06:00:00Z" (-1343066400) transition_time 0x2e9-0x2f0.7 (8)
0x2f0|e0                                             |.               |
0x2f0|   ff ff ff ff b6 66 56 60                     | .....fV`       |      [2]: "1930-11-15T06:00:00Z" (-1234807200) transition_time 0x2f1-0x2f8.7 (8)
0x2f0|                           ff ff ff ff b7 43 d2|         .....C.|      [3]: "1931-05-02T06:00:00Z" (-1220292000) transition_time 0x2f9-0x300.7 (8)
0x300|60                                             |`               |
0x300|   ff ff ff ff b8 0c 36 60                     | ......6`       |      [4]: "1931-10-01T06:00:00Z" (-1207159200) transition_time 0x301-0x308.7 (8)
0x300|                           ff ff ff ff b8 fd 86|         .......|      [5]: "1932-04-01T07:00:00Z" (-1191344400) transition_time 0x309-0x310.7 (8)
0x310|f0                                             |.               |
0x310|   ff ff ff ff c5 de b0 60                     | .......`       |      [6]: "1939-02-05T06:00:00Z" (-975261600) transition_time 0x311-0x318.7 (8)
0x310|                           ff ff ff ff c6 97 34|         ......4|      [7]: "1939-06-25T05:00:00Z" (-963169200) transition_time 0x319-0x320.7 (8)
0x320|50                                             |P               |
0x320|   ff ff ff ff c9 55 f1 e0                     | .....U..       |      [8]: "1940-12-09T06:00:00Z" (-917114400) transition_time 0x321-0x328.7 (8)
0x320|                           ff ff ff ff c9 ea dd|         .......|      [9]: "1941-04-01T05:00:00Z" (-907354800) transition_time 0x329-0x330.7 (8)
0x330|50                                             |P               |
0x330|   ff ff ff ff cf 02 c6 e0                     | ........       |      [10]: "1943-12-16T06:00:00Z" (-821901600) transition_time 0x331-0x338.7 (8)
0x330|                           ff ff ff ff cf b7 56|         ......V|      [11]: "1944-05-01T05:00:00Z" (-810068400) transition_time 0x339-0x340.7 (8)
0x340|50                                             |P               |
0x340|   ff ff ff ff da 99 15 e0                     | ........       |      [12]: "1950-02-12T06:00:00Z" (-627501600) transition_time 0x341-0x348.7 (8)
0x340|                           ff ff ff ff db 76 83|         .....v.|      [13]: "1950-07-30T05:00:00Z" (-612990000) transition_time 0x349-0x350.7 (8)
0x350|d0                                             |.               |
0x350|   00 00 00 00 31 67 76 14                     | ....1gv.       |      [14]: "1996-04-07T08:00:20Z" (828864020) transition_time 0x351-0x358.7 (8)
0x350|                           00 00 00 00 32 73 08|         ....2s.|      [15]: "1996-10-27T07:00:20Z" (846399620) transition_time 0x359-0x360.7 (8)
0x360|84                                             |.               |
0x360|   00 00 00 00 33 47 58 14                     | ....3GX.       |      [16]: "1997-04-06T08:00:20Z" (860313620) transition_time 0x361-0x368.7 (8)
0x360|                           00 00 00 00 34 52 ea|         ....4R.|      [17]: "1997-10-26T07:00:21Z" (877849221) transition_time 0x369-0x370.7 (8)
0x370|85                                             |.               |
0x370|   00 00 00 00 35 27 3a 15                     | ....5':.       |      [18]: "1998-04-05T08:00:21Z" (891763221) transition_time 0x371-0x378.7 (8)
0x370|                           00 00 00 00 36 32 cc|         ....62.|      [19]: "1998-10-25T07:00:21Z" (909298821) transition_time 0x379-0x380.7 (8)
0x380|85                                             |.               |
0x380|   00 00 00 00 37 07 1c 16                     | ....7...       |      [20]: "1999-04-04T08:00:22Z" (923212822) transition_time 0x381-0x388.7 (8)
0x380|                           00 00 00 00 38 1b e9|         ....8..|      [21]: "1999-10-31T07:00:22Z" (941353222) transition_time 0x389-0x390.7 (8)
0x390|06                                             |.               |
0x390|   00 00 00 00 38 e6 fe 16                     | ....8...       |      [22]: "2000-04-02T08:00:22Z" (954662422) transition_time 0x391-0x398.7 (8)
0x390|                           00 00 00 00 39 fb cb|         ....9..|      [23]: "2000-10-29T07:00:22Z" (972802822) transition_time 0x399-0x3a0.7 (8)
0x3a0|06                                             |.               |
0x3a0|   00 00 00 00 3a f5 04 96                     | ....:...       |      [24]: "2001-05-06T08:00:22Z" (989136022) transition_time 0x3a1-0x3a8.7 (8)
0x3a0|                           00 00 00 00 3b b6 c3|         ....;..|      [25]: "2001-09-30T07:00:22Z" (1001833222) transition_time 0x3a9-0x3b0.7 (8)
0x3b0|06                                             |.               |
0x3b0|   00 00 00 00 3c af fc 96                     | ....<...       |      [26]: "2002-04-07T08:00:22Z" (1018166422) transition_time 0x3b1-0x3b8.7 (8)
0x3b0|                           00 00 00 00 3d bb 8f|         ....=..|      [27]: "2002-10-27T07:00:22Z" (1035702022) transition_time 0x3b9-0x3c0.7 (8)
0x3c0|06                                             |.               |
0x3c0|   00 00 00 00 3e 8f de 96                     | ....>...       |      [28]: "2003-04-06T08:00:22Z" (1049616022) transition_time 0x3c1-0x3c8.7 (8)
0x3c0|                           00 00 00 00 3f 9b 71|         ....?.q|      [29]: "2003-10-26T07:00:22Z" (1067151622) transition_time 0x3c9-0x3d0.7 (8)
0x3d0|06                                             |.               |
0x3d0|   00 00 00 00 40 6f c0 96                     | ....@o..       |      [30]: "2004-04-04T08:00:22Z" (1081065622) transition_time 0x3d1-0x3d8.7 (8)
0x3d0|                           00 00 00 00 41 84 8d|         ....A..|      [31]: "2004-10-31T07:00:22Z" (1099206022) transition_time 0x3d9-0x3e0.7 (8)
0x3e0|86                                             |.               |
0x3e0|   00 00 00 00 42 4f a2 96                     | ....BO..       |      [32]: "2005-04-03T08:00:22Z" (1112515222) transition_time 0x3e1-0x3e8.7 (8)
0x3e0|                           00 00 00 00 43 64 6f|         ....Cdo|      [33]: "2005-10-30T07:00:22Z" (1130655622) transition_time 0x3e9-0x3f0.7 (8)
0x3f0|86                                             |.               |
0x3f0|   00 00 00 00 44 2f 84 97                     | ....D/..       |      [34]: "2006-04-02T08:00:23Z" (1143964823) transition_time 0x3f1-0x3f8.7 (8)
0x3f0|                           00 00 00 00 45 44 51|         ....EDQ|      [35]: "2006-10-29T07:00:23Z" (1162105223) transition_time 0x3f9-0x400.7 (8)
0x400|87                                             |.               |
0x400|   00 00 00 00 46 0f 66 97                     | ....F.f.       |      [36]: "2007-04-01T08:00:23Z" (1175414423) transition_time 0x401-0x408.7 (8)
0x400|                           00 00 00 00 47 24 33|         ....G$3|      [37]: "2007-10-28T07:00:23Z" (1193554823) transition_time 0x409-0x410.7 (8)
0x410|87                                             |.               |
0x410|   00 00 00 00 47 f8 83 17                     | ....G...       |      [38]: "2008-04-06T08:00:23Z" (1207468823) transition_time 0x411-0x418.7 (8)
0x410|                           00 00 00 00 49 04 15|         ....I..|      [39]: "2008-10-26T07:00:23Z" (1225004423) transition_time 0x419-0x420.7 (8)
0x420|87                                             |.               |
0x420|   00 00 00 00 49 d8 65 18                     | ....I.e.       |      [40]: "2009-04-05T08:00:24Z" (1238918424) transition_time 0x421-0x428.7 (8)
0x420|                           00 00 00 00 4a e3 f7|         ....J..|      [41]: "2009-10-25T07:00:24Z" (1256454024) transition_time 0x429-0x430.7 (8)
0x430|88                                             |.               |
0x430|   00 00 00 00 4b b8 47 18                     | ....K.G.       |      [42]: "2010-04-04T08:00:24Z" (1270368024) transition_time 0x431-0x438.7 (8)
0x430|                           00 00 00 00 4c cd 14|         ....L..|      [43]: "2010-10-31T07:00:24Z" (1288508424) transition_time 0x439-0x440.7 (8)
0x440|08                                             |.               |
0x440|   00 00 00 00 4d 98 29 18                     | ....M.).       |      [44]: "2011-04-03T08:00:24Z" (1301817624) transition_time 0x441-0x448.7 (8)
0x440|                           00 00 00 00 4e ac f6|         ....N..|      [45]: "2011-10-30T07:00:24Z" (1319958024) transition_time 0x449-0x450.7 (8)
0x450|08                                             |.               |
0x450|   00 00 00 00 4f 78 0b 18                     | ....Ox..       |      [46]: "2012-04-01T08:00:24Z" (1333267224) transition_time 0x451-0x458.7 (8)
0x450|                           00 00 00 00 50 8c d8|         ....P..|      [47]: "2012-10-28T07:00:25Z" (1351407625) transition_time 0x459-0x460.7 (8)
0x460|09                                             |.               |
0x460|   00 00 00 00 51 61 27 99                     | ....Qa'.       |      [48]: "2013-04-07T08:00:25Z" (1365321625) transition_time 0x461-0x468.7 (8)
0x460|                           00 00 00 00 52 6c ba|         ....Rl.|      [49]: "2013-10-27T07:00:25Z" (1382857225) transition_time 0x469-0x470.7 (8)
0x470|09                                             |.               |
0x470|   00 00 00 00 53 41 09 99                     | ....SA..       |      [50]: "2014-04-06T08:00:25Z" (1396771225) transition_time 0x471-0x478.7 (8)
0x470|                           00 00 00 00 54 4c 9c|         ....TL.|      [51]: "2014-10-26T07:00:25Z" (1414306825) transition_time 0x479-0x480.7 (8)
0x480|09                                             |.               |
0x480|   00 00 00 00 55 20 eb 99                     | ....U ..       |      [52]: "2015-04-05T08:00:25Z" (1428220825) transition_time 0x481-0x488.7 (8)
0x480|                           00 00 00 00 56 2c 7e|         ....V,~|      [53]: "2015-10-25T07:00:26Z" (1445756426) transition_time 0x489-0x490.7 (8)
0x490|0a                                             |.               |
0x490|   00 00 00 00 57 00 cd 9a                     | ....W...       |      [54]: "2016-04-03T08:00:26Z" (1459670426) transition_time 0x491-0x498.7 (8)
0x490|                           00 00 00 00 58 15 9a|         ....X..|      [55]: "2016-10-30T07:00:26Z" (1477810826) transition_time 0x499-0x4a0.7 (8)
0x4a0|8a                                             |.               |
0x4a0|   00 00 00 00 58 e0 af 9b                     | ....X...       |      [56]: "2017-04-02T08:00:27Z" (1491120027) transition_time 0x4a1-0x4a8.7 (8)
0x4a0|                           00 00 00 00 59 f5 7c|         ....Y.||      [57]: "2017-10-29T07:00:27Z" (1509260427) transition_time 0x4a9-0x4b0.7 (8)
0x4b0|8b                                             |.               |
0x4b0|   00 00 00 00 5a c0 91 9b                     | ....Z...       |      [58]: "2018-04-01T08:00:27Z" (1522569627) transition_time 0x4b1-0x4b8.7 (8)
0x4b0|                           00 00 00 00 5b d5 5e|         ....[.^|      [59]: "2018-10-28T07:00:27Z" (1540710027) transition_time 0x4b9-0x4c0.7 (8)
0x4c0|8b                                             |.               |
0x4c0|   00 00 00 00 5c a9 ae 1b                     | ....\...       |      [60]: "2019-04-07T08:00:27Z" (1554624027) transition_time 0x4c1-0x4c8.7 (8)
0x4c0|                           00 00 00 00 5d b5 40|         ....].@|      [61]: "2019-10-27T07:00:27Z" (1572159627) transition_time 0x4c9-0x4d0.7 (8)
0x4d0|8b                                             |.               |
0x4d0|   00 00 00 00 5e 89 90 1b                     | ....^...       |      [62]: "2020-04-05T08:00:27Z" (1586073627) transition_time 0x4d1-0x4d8.7 (8)
0x4d0|                           00 00 00 00 5f 95 22|         ...._."|      [63]: "2020-10-25T07:00:27Z" (1603609227) transition_time 0x4d9-0x4e0.7 (8)
0x4e0|8b                                             |.               |
0x4e0|   00 00 00 00 60 69 72 1b                     | ....`ir.       |      [64]: "2021-04-04T08:00:27Z" (1617523227) transition_time 0x4e1-0x4e8.7 (8)
0x4e0|                           00 00 00 00 61 7e 3f|         ....a~?|      [65]: "2021-10-31T07:00:27Z" (1635663627) transition_time 0x4e9-0x4f0.7 (8)
0x4f0|0b                                             |.               |
0x4f0|   00 00 00 00 62 49 54 1b                     | ....bIT.       |      [66]: "2022-04-03T08:00:27Z" (1648972827) transition_time 0x4f1-0x4f8.7 (8)
0x4f0|                           00 00 00 00 63 5e 21|         ....c^!|      [67]: "2022-10-30T07:00:27Z" (1667113227) transition_time 0x4f9-0x500.7 (8)
0x500|0b                                             |.               |
0x500|   00 00 00 00 64 9b 78 1b                     | ....d.x.       |      [68]: "2023-06-28T00:00:27Z" (1687910427) transition_time 0x501-0x508.7 (8)
     |                                               |                |    transition_types[0:69]: 0x509-0x54d.7 (69)
0x500|                           01                  |         .      |      [0]: 1 transition_type 0x509-0x509.7 (1)
0x500|                              02               |          .     |      [1]: 2 transition_type 0x50a-0x50a.7 (1)
0x500|                                 04            |           .    |      [2]: 4 transition_type 0x50b-0x50b.7 (1)
0x500|                                    03         |            .   |      [3]: 3 transition_type 0x50c-0x50c.7 (1)
0x500|                                       04      |             .  |      [4]: 4 transition_type 0x50d-0x50d.7 (1)
0x500|                                          02   |              . |      [5]: 2 transition_type 0x50e-0x50e.7 (1)
0x500|                                             05|               .|      [6]: 5 transition_type 0x50f-0x50f.7 (1)
0x510|02                                             |.               |      [7]: 2 transition_type 0x510-0x510.7 (1)
0x510|   05                                          | .              |      [8]: 5 transition_type 0x511-0x511.7 (1)
0x510|      02                                       |  .             |      [9]: 2 transition_type 0x512-0x512.7 (1)
0x510|         06                                    |   .            |      [10]: 6 transition_type 0x513-0x513.7 (1)
0x510|            02                                 |    .           |      [11]: 2 transition_type 0x514-0x514.7 (1)
0x510|               05                              |     .          |      [12]: 5 transition_type 0x515-0x515.7 (1)
0x510|                  02                           |      .         |      [13]: 2 transition_type 0x516-0x516.7 (1)
0x510|                     05                        |       .        |      [14]: 5 transition_type 0x517-0x517.7 (1)
0x510|                        02                     |        .       |      [15]: 2 transition_type 0x518-0x518.7 (1)
0x510|                           05                  |         .      |      [16]: 5 transition_type 0x519-0x519.7 (1)
0x510|                              02               |          .     |      [17]: 2 transition_type 0x51a-0x51a.7 (1)
0x510|                                 05            |           .    |      [18]: 5 transition_type 0x51b-0x51b.7 (1)
0x510|                                    02         |            .   |      [19]: 2 transition_type 0x51c-0x51c.7 (1)
0x510|                                       05      |             .  |      [20]: 5 transition_type 0x51d-0x51d.7 (1)
0x510|                                          02   |              . |      [21]: 2 transition_type 0x51e-0x51e.7 (1)
0x510|                                             05|               .|      [22]: 5 transition_type 0x51f-0x51f.7 (1)
0x520|02                                             |.               |      [23]: 2 transition_type 0x520-0x520.7 (1)
0x520|   05                                          | .              |      [24]: 5 transition_type 0x521-0x521.7 (1)
0x520|      02                                       |  .             |      [25]: 2 transition_type 0x522-0x522.7 (1)
0x520|         05                                    |   .            |      [26]: 5 transition_type 0x523-0x523.7 (1)
0x520|            02                                 |    .           |      [27]: 2 transition_type 0x524-0x524.7 (1)
0x520|               05                              |     .          |      [28]: 5 transition_type 0x525-0x525.7 (1)
0x520|                  02                           |      .         |      [29]: 2 transition_type 0x526-0x526.7 (1)
0x520|                     05                        |       .        |      [30]: 5 transition_type 0x527-0x527.7 (1)
0x520|                        02                     |        .       |      [31]: 2 transition_type 0x528-0x528.7 (1)
0x520|                           05                  |         .      |      [32]: 5 transition_type 0x529-0x529.7 (1)
0x520|                              02               |          .     |      [33]: 2 transition_type 0x52a-0x52a.7 (1)
0x520|                                 05            |           .    |      [34]: 5 transition_type 0x52b-0x52b.7 (1)
0x520|                                    02         |            .   |      [35]: 2 transition_type 0x52c-0x52c.7 (1)
0x520|                                       05      |             .  |      [36]: 5 transition_type 0x52d-0x52d.7 (1)
0x520|                                          02   |              . |      [37]: 2 transition_type 0x52e-0x52e.7 (1)
0x520|                                             05|               .|      [38]: 5 transition_type 0x52f-0x52f.7 (1)
0x530|02                                             |.               |      [39]: 2 transition_type 0x530-0x530.7 (1)
0x530|   05                                          | .              |      [40]: 5 transition_type 0x531-0x531.7 (1)
0x530|      02                                       |  .             |      [41]: 2 transition_type 0x532-0x532.7 (1)
0x530|         05                                    |   .            |      [42]: 5 transition_type 0x533-0x533.7 (1)
0x530|            02                                 |    .           |      [43]: 2 transition_type 0x534-0x534.7 (1)
0x530|               05                              |     .          |      [44]: 5 transition_type 0x535-0x535.7 (1)
0x530|                  02                           |      .         |      [45]: 2 transition_type 0x536-0x536.7 (1)
0x530|                     05                        |       .        |      [46]: 5 transition_type 0x537-0x537.7 (1)
0x530|                        02                     |        .       |      [47]: 2 transition_type 0x538-0x538.7 (1)
0x530|                           05                  |         .      |      [48]: 5 transition_type 0x539-0x539.7 (1)
0x530|                              02               |          .     |      [49]: 2 transition_type 0x53a-0x53a.7 (1)
0x530|                                 05            |           .    |      [50]: 5 transition_type 0x53b-0x53b.7 (1)
0x530|                                    02         |            .   |      [51]: 2 transition_type 0x53c-0x53c.7 (1)
0x530|                                       05      |             .  |      [52]: 5 transition_type 0x53d-0x53d.7 (1)
0x530|                                          02   |              . |      [53]: 2 transition_type 0x53e-0x53e.7 (1)
0x530|                                             05|               .|      [54]: 5 transition_type 0x53f-0x53f.7 (1)
0x540|02                                             |.               |      [55]: 2 transition_type 0x540-0x540.7 (1)
0x540|   05                                          | .              |      [56]: 5 transition_type 0x541-0x541.7 (1)
0x540|      02                                       |  .             |      [57]: 2 transition_type 0x542-0x542.7 (1)
0x540|         05                                    |   .            |      [58]: 5 transition_type 0x543-0x543.7 (1)
0x540|            02                                 |    .           |      [59]: 2 transition_type 0x544-0x544.7 (1)
0x540|               05                              |     .          |      [60]: 5 transition_type 0x545-0x545.7 (1)
0x540|                  02                           |      .         |      [61]: 2 transition_type 0x546-0x546.7 (1)
0x540|                     05                        |       .        |      [62]: 5 transition_type 0x547-0x547.7 (1)
0x540|                        02                     |        .       |      [63]: 2 transition_type 0x548-0x548.7 (1)
0x540|                           05                  |         .      |      [64]: 5 transition_type 0x549-0x549.7 (1)
0x540|                              02               |          .     |      [65]: 2 transition_type 0x54a-0x54a.7 (1)
0x540|                                 05            |           .    |      [66]: 5 transition_type 0x54b-0x54b.7 (1)
0x540|                                    02         |            .   |      [67]: 2 transition_type 0x54c-0x54c.7 (1)
0x540|                                       02      |             .  |      [68]: 2 transition_type 0x54d-0x54d.7 (1)
     |                                               |                |    local_time_type_records[0:8]: 0x54e-0x57d.7 (48)
     |                                               |                |      [0]{}: local_time_type 0x54e-0x553.7 (6)
0x540|                                          ff ff|              ..|        utoff: -23796 (valid) 0x54e-0x551.7 (4)
0x550|a3 0c                                          |..              |
0x550|      00                                       |  .             |        dst: 0 (valid) 0x552-0x552.7 (1)
0x550|         00                                    |   .            |        idx: 0 (valid) 0x553-0x553.7 (1)
     |                                               |                |      [1]{}: local_time_type 0x554-0x559.7 (6)
0x550|            ff ff 9d 90                        |    ....        |        utoff: -25200 (valid) 0x554-0x557.7 (4)
0x550|                        00                     |        .       |        dst: 0 (valid) 0x558-0x558.7 (1)
0x550|                           04                  |         .      |        idx: 4 (valid) 0x559-0x559.7 (1)
     |                                               |                |      [2]{}: local_time_type 0x55a-0x55f.7 (6)
0x550|                              ff ff ab a0      |          ....  |        utoff: -21600 (valid) 0x55a-0x55d.7 (4)
0x550|                                          00   |              . |        dst: 0 (valid) 0x55e-0x55e.7 (1)
0x550|                                             08|               .|        idx: 8 (valid) 0x55f-0x55f.7 (1)
     |                                               |                |      [3]{}: local_time_type 0x560-0x565.7 (6)
0x560|ff ff ab a0                                    |....            |        utoff: -21600 (valid) 0x560-0x563.7 (4)
0x560|            01                                 |    .           |        dst: 1 (valid) 0x564-0x564.7 (1)
0x560|               0c                              |     .          |        idx: 12 (valid) 0x565-0x565.7 (1)
     |                                               |                |      [4]{}: local_time_type 0x566-0x56b.7 (6)
0x560|                  ff ff 9d 90                  |      ....      |        utoff: -25200 (valid) 0x566-0x569.7 (4)
0x560|                              00               |          .     |        dst: 0 (valid) 0x56a-0x56a.7 (1)
0x560|                                 04            |           .    |        idx: 4 (valid) 0x56b-0x56b.7 (1)
     |                                               |                |      [5]{}: local_time_type 0x56c-0x571.7 (6)
0x560|                                    ff ff b9 b0|            ....|        utoff: -18000 (valid) 0x56c-0x56f.7 (4)
0x570|01                                             |.               |        dst: 1 (valid) 0x570-0x570.7 (1)
0x570|   10                                          | .              |        idx: 16 (valid) 0x571-0x571.7 (1)
     |                                               |                |      [6]{}: local_time_type 0x572-0x577.7 (6)
0x570|      ff ff b9 b0                              |  ....          |        utoff: -18000 (valid) 0x572-0x575.7 (4)
0x570|                  01                           |      .         |        dst: 1 (valid) 0x576-0x576.7 (1)
0x570|                     14                        |       .        |        idx: 20 (valid) 0x577-0x577.7 (1)
     |                                               |                |      [7]{}: local_time_type 0x578-0x57d.7 (6)
0x570|                        ff ff ab a0            |        ....    |        utoff: -21600 (valid) 0x578-0x57b.7 (4)
0x570|                                    00         |            .   |        dst: 0 (valid) 0x57c-0x57c.7 (1)
0x570|                                       08      |             .  |        idx: 8 (valid) 0x57d-0x57d.7 (1)
     |                                               |                |    time_zone_designations[0:6]: 0x57e-0x595.7 (24)
0x570|                                          4c 4d|              LM|      [0]: "LMT" time_zone_designation 0x57e-0x581.7 (4)
0x580|54 00                                          |T.              |
0x580|      4d 53 54 00                              |  MST.          |      [1]: "MST" time_zone_designation 0x582-0x585.7 (4)
0x580|                  43 53 54 00                  |      CST.      |      [2]: "CST" time_zone_designation 0x586-0x589.7 (4)
0x580|                              4d 44 54 00      |          MDT.  |      [3]: "MDT" time_zone_designation 0x58a-0x58d.7 (4)
0x580|                                          43 44|              CD|      [4]: "CDT" time_zone_designation 0x58e-0x591.7 (4)
0x590|54 00                                          |T.              |
0x590|      43 57 54 00                              |  CWT.          |      [5]: "CWT" time_zone_designation 0x592-0x595.7 (4)
     |                                               |                |    leap_second_records[0:27]: 0x596-0x6d9.7 (324)
     |                                               |                |      [0]{}: leap_second_record 0x596-0x5a1.7 (12)
0x590|                  00 00 00 00 04 b2 58 00      |      ......X.  |        occur: "1972-07-01T00:00:00Z" (78796800) 0x596-0x59d.7 (8)
0x590|                                          00 00|              ..|        corr: 1 0x59e-0x5a1.7 (4)
0x5a0|00 01                                          |..              |
     |                                               |                |      [1]{}: leap_second_record 0x5a2-0x5ad.7 (12)
0x5a0|      00 00 00 00 05 a4 ec 01                  |  ........      |        occur: "1973-01-01T00:00:01Z" (94694401) 0x5a2-0x5a9.7 (8)
0x5a0|                              00 00 00 02      |          ....  |        corr: 2 0x5aa-0x5ad.7 (4)
     |                                               |                |      [2]{}: leap_second_record 0x5ae-0x5b9.7 (12)
0x5a0|                                          00 00|              ..|        occur: "1974-01-01T00:00:02Z" (126230402) 0x5ae-0x5b5.7 (8)
0x5b0|00 00 07 86 1f 82                              |......          |
0x5b0|                  00 00 00 03                  |      ....      |        corr: 3 0x5b6-0x5b9.7 (4)
     |                                               |                |      [3]{}: leap_second_record 0x5ba-0x5c5.7 (12)
0x5b0|                              00 00 00 00 09 67|          .....g|        occur: "1975-01-01T00:00:03Z" (157766403) 0x5ba-0x5c1.7 (8)
0x5c0|53 03                                          |S.              |
0x5c0|      00 00 00 04                              |  ....          |        corr: 4 0x5c2-0x5c5.7 (4)
     |                                               |                |      [4]{}: leap_second_record 0x5c6-0x5d1.7 (12)
0x5c0|                  00 00 00 00 0b 48 86 84      |      .....H..  |        occur: "1976-01-01T00:00:04Z" (189302404) 0x5c6-0x5cd.7 (8)
0x5c0|                                          00 00|              ..|        corr: 5 0x5ce-0x5d1.7 (4)
0x5d0|00 05                                          |..              |
     |                                               |                |      [5]{}: leap_second_record 0x5d2-0x5dd.7 (12)
0x5d0|      00 00 00 00 0d 2b 0b 85                  |  .....+..      |        occur: "1977-01-01T00:00:05Z" (220924805) 0x5d2-0x5d9.7 (8)
0x5d0|                              00 00 00 06      |          ....  |        corr: 6 0x5da-0x5dd.7 (4)
     |                                               |                |      [6]{}: leap_second_record 0x5de-0x5e9.7 (12)
0x5d0|                                          00 00|              ..|        occur: "1978-01-01T00:00:06Z" (252460806) 0x5de-0x5e5.7 (8)
0x5e0|00 00 0f 0c 3f 06                              |....?.          |
0x5e0|                  00 00 00 07                  |      ....      |        corr: 7 0x5e6-0x5e9.7 (4)
     |                                               |                |      [7]{}: leap_second_record 0x5ea-0x5f5.7 (12)
0x5e0|                              00 00 00 00 10 ed|          ......|        occur: "1979-01-01T00:00:07Z" (283996807) 0x5ea-0x5f1.7 (8)
0x5f0|72 87                                          |r.              |
0x5f0|      00 00 00 08                              |  ....          |        corr: 8 0x5f2-0x5f5.7 (4)
     |                                               |                |      [8]{}: leap_second_record 0x5f6-0x601.7 (12)
0x5f0|                  00 00 00 00 12 ce a6 08      |      ........  |        occur: "1980-01-01T00:00:08Z" (315532808) 0x5f6-0x5fd.7 (8)
0x5f0|                                          00 00|              ..|        corr: 9 0x5fe-0x601.7 (4)
0x600|00 09                                          |..              |
     |                                               |                |      [9]{}: leap_second_record 0x602-0x60d.7 (12)
0x600|      00 00 00 00 15 9f ca 89                  |  ........      |        occur: "1981-07-01T00:00:09Z" (362793609) 0x602-0x609.7 (8)
0x600|                              00 00 00 0a      |          ....  |        corr: 10 0x60a-0x60d.7 (4)
     |                                               |                |      [10]{}: leap_second_record 0x60e-0x619.7 (12)
0x600|                                          00 00|              ..|        occur: "1982-07-01T00:00:10Z" (394329610) 0x60e-0x615.7 (8)
0x610|00 00 17 80 fe 0a                              |......          |
0x610|                  00 00 00 0b                  |      ....      |        corr: 11 0x616-0x619.7 (4)
     |                                               |                |      [11]{}: leap_second_record 0x61a-0x625.7 (12)
0x610|                              00 00 00 00 19 62|          .....b|        occur: "1983-07-01T00:00:11Z" (425865611) 0x61a-0x621.7 (8)
0x620|31 8b                                          |1.              |
0x620|      00 00 00 0c                              |  ....          |        corr: 12 0x622-0x625.7 (4)
     |                                               |                |      [12]{}: leap_second_record 0x626-0x631.7 (12)
0x620|                  00 00 00 00 1d 25 ea 0c      |      .....%..  |        occur: "1985-07-01T00:00:12Z" (489024012) 0x626-0x62d.7 (8)
0x620|                                          00 00|              ..|        corr: 13 0x62e-0x631.7 (4)
0x630|00 0d                                          |..              |
     |                                               |                |      [13]{}: leap_second_record 0x632-0x63d.7 (12)
0x630|      00 00 00 00 21 da e5 0d                  |  ....!...      |        occur: "1988-01-01T00:00:13Z" (567993613) 0x632-0x639.7 (8)
0x630|                              00 00 00 0e      |          ....  |        corr: 14 0x63a-0x63d.7 (4)
     |                                               |                |      [14]{}: leap_second_record 0x63e-0x649.7 (12)
0x630|                                          00 00|              ..|        occur: "1990-01-01T00:00:14Z" (631152014) 0x63e-0x645.7 (8)
0x640|00 00 25 9e 9d 8e                              |..%...          |
0x640|                  00 00 00 0f                  |      ....      |        corr: 15 0x646-0x649.7 (4)
     |                                               |                |      [15]{}: leap_second_record 0x64a-0x655.7 (12)
0x640|                              00 00 00 00 27 7f|          ....'.|        occur: "1991-01-01T00:00:15Z" (662688015) 0x64a-0x651.7 (8)
0x650|d1 0f                                          |..              |
0x650|      00 00 00 10                              |  ....          |        corr: 16 0x652-0x655.7 (4)
     |                                               |                |      [16]{}: leap_second_record 0x656-0x661.7 (12)
0x650|                  00 00 00 00 2a 50 f5 90      |      ....*P..  |        occur: "1992-07-01T00:00:16Z" (709948816) 0x656-0x65d.7 (8)
0x650|                                          00 00|              ..|        corr: 17 0x65e-0x661.7 (4)
0x660|00 11                                          |..              |
     |                                               |                |      [17]{}: leap_second_record 0x662-0x66d.7 (12)
0x660|      00 00 00 00 2c 32 29 11                  |  ....,2).      |        occur: "1993-07-01T00:00:17Z" (741484817) 0x662-0x669.7 (8)
0x660|                              00 00 00 12      |          ....  |        corr: 18 0x66a-0x66d.7 (4)
     |                                               |                |      [18]{}: leap_second_record 0x66e-0x679.7 (12)
0x660|                                          00 00|              ..|        occur: "1994-07-01T00:00:18Z" (773020818) 0x66e-0x675.7 (8)
0x670|00 00 2e 13 5c 92                              |....\.          |
0x670|                  00 00 00 13                  |      ....      |        corr: 19 0x676-0x679.7 (4)
     |                                               |                |      [19]{}: leap_second_record 0x67a-0x685.7 (12)
0x670|                              00 00 00 00 30 e7|          ....0.|        occur: "1996-01-01T00:00:19Z" (820454419) 0x67a-0x681.7 (8)
0x680|24 13                                          |$.              |
0x680|      00 00 00 14                              |  ....          |        corr: 20 0x682-0x685.7 (4)
     |                                               |                |      [20]{}: leap_second_record 0x686-0x691.7 (12)
0x680|                  00 00 00 00 33 b8 48 94      |      ....3.H.  |        occur: "1997-07-01T00:00:20Z" (867715220) 0x686-0x68d.7 (8)
0x680|                                          00 00|              ..|        corr: 21 0x68e-0x691.7 (4)
0x690|00 15                                          |..              |
     |                                               |                |      [21]{}: leap_second_record 0x692-0x69d.7 (12)
0x690|      00 00 00 00 36 8c 10 15                  |  ....6...      |        occur: "1999-01-01T00:00:21Z" (915148821) 0x692-0x699.7 (8)
0x690|                              00 00 00 16      |          ....  |        corr: 22 0x69a-0x69d.7 (4)
     |                                               |                |      [22]{}: leap_second_record 0x69e-0x6a9.7 (12)
0x690|                                          00 00|              ..|        occur: "2006-01-01T00:00:22Z" (1136073622) 0x69e-0x6a5.7 (8)
0x6a0|00 00 43 b7 1b 96                              |..C...          |
0x6a0|                  00 00 00 17                  |      ....      |        corr: 23 0x6a6-0x6a9.7 (4)
     |                                               |                |      [23]{}: leap_second_record 0x6aa-0x6b5.7 (12)
0x6a0|                              00 00 00 00 49 5c|          ....I\|        occur: "2009-01-01T00:00:23Z" (1230768023) 0x6aa-0x6b1.7 (8)
0x6b0|07 97                                          |..              |
0x6b0|      00 00 00 18                              |  ....          |        corr: 24 0x6b2-0x6b5.7 (4)
     |                                               |                |      [24]{}: leap_second_record 0x6b6-0x6c1.7 (12)
0x6b0|                  00 00 00 00 4f ef 93 18      |      ....O...  |        occur: "2012-07-01T00:00:24Z" (1341100824) 0x6b6-0x6bd.7 (8)
0x6b0|                                          00 00|              ..|        corr: 25 0x6be-0x6c1.7 (4)
0x6c0|00 19                                          |..              |
     |                                               |                |      [25]{}: leap_second_record 0x6c2-0x6cd.7 (12)
0x6c0|      00 00 00 00 55 93 2d 99                  |  ....U.-.      |        occur: "2015-07-01T00:00:25Z" (1435708825) 0x6c2-0x6c9.7 (8)
0x6c0|                              00 00 00 1a      |          ....  |        corr: 26 0x6ca-0x6cd.7 (4)
     |                                               |                |      [26]{}: leap_second_record 0x6ce-0x6d9.7 (12)
0x6c0|                                          00 00|              ..|        occur: "2017-01-01T00:00:26Z" (1483228826) 0x6ce-0x6d5.7 (8)
0x6d0|00 00 58 68 46 9a                              |..XhF.          |
0x6d0|                  00 00 00 1b                  |      ....      |        corr: 27 0x6d6-0x6d9.7 (4)
     |                                               |                |    standard_wall_indicators[0:8]: 0x6da-0x6e1.7 (8)
0x6d0|                              00               |          .     |      [0]: 0 standard_wall_indicator (valid) 0x6da-0x6da.7 (1)
0x6d0|                                 01            |           .    |      [1]: 1 standard_wall_indicator (valid) 0x6db-0x6db.7 (1)
0x6d0|                                    00         |            .   |      [2]: 0 standard_wall_indicator (valid) 0x6dc-0x6dc.7 (1)
0x6d0|                                       00      |             .  |      [3]: 0 standard_wall_indicator (valid) 0x6dd-0x6dd.7 (1)
0x6d0|                                          00   |              . |      [4]: 0 standard_wall_indicator (valid) 0x6de-0x6de.7 (1)
0x6d0|                                             00|               .|      [5]: 0 standard_wall_indicator (valid) 0x6df-0x6df.7 (1)
0x6e0|00                                             |.               |      [6]: 0 standard_wall_indicator (valid) 0x6e0-0x6e0.7 (1)
0x6e0|   00                                          | .              |      [7]: 0 standard_wall_indicator (valid) 0x6e1-0x6e1.7 (1)
     |                                               |                |    ut_local_indicators[0:8]: 0x6e2-0x6e9.7 (8)
0x6e0|      00                                       |  .             |      [0]: 0 ut_local_indicator (valid) 0x6e2-0x6e2.7 (1)
0x6e0|         01                                    |   .            |      [1]: 1 ut_local_indicator (valid) 0x6e3-0x6e3.7 (1)
0x6e0|            00                                 |    .           |      [2]: 0 ut_local_indicator (valid) 0x6e4-0x6e4.7 (1)
0x6e0|               00                              |     .          |      [3]: 0 ut_local_indicator (valid) 0x6e5-0x6e5.7 (1)
0x6e0|                  00                           |      .         |      [4]: 0 ut_local_indicator (valid) 0x6e6-0x6e6.7 (1)
0x6e0|                     00                        |       .        |      [5]: 0 ut_local_indicator (valid) 0x6e7-0x6e7.7 (1)
0x6e0|                        00                     |        .       |      [6]: 0 ut_local_indicator (valid) 0x6e8-0x6e8.7 (1)
0x6e0|                           00                  |         .      |      [7]: 0 ut_local_indicator (valid) 0x6e9-0x6e9.7 (1)
     |                                               |                |  footer{}: 0x6ea-0x6eb.7 (2)
0x6e0|                              0a               |          .     |    nl1: 10 (valid) 0x6ea-0x6ea.7 (1)
     |                                               |                |    tz_string: "" 0x6eb-NA (0)
0x6e0|                                 0a|           |           .|   |    nl2: 10 (valid) 0x6eb-0x6eb.7 (1)
