$ fq -d tzif dv Minsk
     |00 01 02 03 04 05 06 07 08 09 0a 0b 0c 0d 0e 0f|0123456789abcdef|.{}: Minsk (tzif) 0x0-0x529 (1321)
     |                                               |                |  v1header{}: 0x0-0x2c (44)
0x000|54 5a 69 66                                    |TZif            |    magic: 0x545a6966 (valid) 0x0-0x4 (4)
0x000|            32                                 |    2           |    ver: "2" (0x32) (valid) 0x4-0x5 (1)
0x000|               00 00 00 00 00 00 00 00 00 00 00|     ...........|    reserved: raw bits 0x5-0x14 (15)
0x010|00 00 00 00                                    |....            |
0x010|            00 00 00 00                        |    ....        |    isutcnt: 0 0x14-0x18 (4)
0x010|                        00 00 00 0d            |        ....    |    isstdcnt: 13 0x18-0x1c (4)
0x010|                                    00 00 00 00|            ....|    leapcnt: 0 0x1c-0x20 (4)
0x020|00 00 00 45                                    |...E            |    timecnt: 69 0x20-0x24 (4)
0x020|            00 00 00 0d                        |    ....        |    typecnt: 13 0x24-0x28 (4)
0x020|                        00 00 00 26            |        ...&    |    charcnt: 38 0x28-0x2c (4)
     |                                               |                |  v1datablock{}: 0x2c-0x206 (474)
     |                                               |                |    transition_times[0:69]: 0x2c-0x140 (276)
0x020|                                    80 00 00 00|            ....|      [0]: "1901-12-13T20:45:52Z" (-2147483648) transition_time 0x2c-0x30 (4)
0x030|aa 19 aa 38                                    |...8            |      [1]: "1924-05-01T22:10:00Z" (-1441158600) transition_time 0x30-0x34 (4)
0x030|            b5 a4 19 60                        |    ...`        |      [2]: "1930-06-20T22:00:00Z" (-1247536800) transition_time 0x34-0x38 (4)
0x030|                        ca 5e 70 d0            |        .^p.    |      [3]: "1941-06-27T21:00:00Z" (-899780400) transition_time 0x38-0x3c (4)
0x030|                                    cc e7 4b 10|            ..K.|      [4]: "1942-11-02T01:00:00Z" (-857257200) transition_time 0x3c-0x40 (4)
0x040|cd a9 17 90                                    |....            |      [5]: "1943-03-29T01:00:00Z" (-844556400) transition_time 0x40-0x44 (4)
0x040|            ce a2 43 10                        |    ..C.        |      [6]: "1943-10-04T01:00:00Z" (-828226800) transition_time 0x44-0x48 (4)
0x040|                        cf 92 34 10            |        ..4.    |      [7]: "1944-04-03T01:00:00Z" (-812502000) transition_time 0x48-0x4c (4)
0x040|                                    d0 0a 02 60|            ...`|      [8]: "1944-07-02T22:00:00Z" (-804650400) transition_time 0x4c-0x50 (4)
0x050|15 27 a7 d0                                    |.'..            |      [9]: "1981-03-31T21:00:00Z" (354920400) transition_time 0x50-0x54 (4)
0x050|            16 18 dc 40                        |    ...@        |      [10]: "1981-09-30T20:00:00Z" (370728000) transition_time 0x54-0x58 (4)
0x050|                        17 08 db 50            |        ...P    |      [11]: "1982-03-31T21:00:00Z" (386456400) transition_time 0x58-0x5c (4)
0x050|                                    17 fa 0f c0|            ....|      [12]: "1982-09-30T20:00:00Z" (402264000) transition_time 0x5c-0x60 (4)
0x060|18 ea 0e d0                                    |....            |      [13]: "1983-03-31T21:00:00Z" (417992400) transition_time 0x60-0x64 (4)
0x060|            19 db 43 40                        |    ..C@        |      [14]: "1983-09-30T20:00:00Z" (433800000) transition_time 0x64-0x68 (4)
0x060|                        1a cc 93 d0            |        ....    |      [15]: "1984-03-31T21:00:00Z" (449614800) transition_time 0x68-0x6c (4)
0x060|                                    1b bc a0 f0|            ....|      [16]: "1984-09-29T23:00:00Z" (465346800) transition_time 0x6c-0x70 (4)
0x070|1c ac 91 f0                                    |....            |      [17]: "1985-03-30T23:00:00Z" (481071600) transition_time 0x70-0x74 (4)
0x070|            1d 9c 82 f0                        |    ....        |      [18]: "1985-09-28T23:00:00Z" (496796400) transition_time 0x74-0x78 (4)
0x070|                        1e 8c 73 f0            |        ..s.    |      [19]: "1986-03-29T23:00:00Z" (512521200) transition_time 0x78-0x7c (4)
0x070|                                    1f 7c 64 f0|            .|d.|      [20]: "1986-09-27T23:00:00Z" (528246000) transition_time 0x7c-0x80 (4)
0x080|20 6c 55 f0                                    | lU.            |      [21]: "1987-03-28T23:00:00Z" (543970800) transition_time 0x80-0x84 (4)
0x080|            21 5c 46 f0                        |    !\F.        |      [22]: "1987-09-26T23:00:00Z" (559695600) transition_time 0x84-0x88 (4)
0x080|                        22 4c 37 f0            |        "L7.    |      [23]: "1988-03-26T23:00:00Z" (575420400) transition_time 0x88-0x8c (4)
0x080|                                    23 3c 28 f0|            #<(.|      [24]: "1988-09-24T23:00:00Z" (591145200) transition_time 0x8c-0x90 (4)
0x090|24 2c 19 f0                                    |$,..            |      [25]: "1989-03-25T23:00:00Z" (606870000) transition_time 0x90-0x94 (4)
0x090|            25 1c 0a f0                        |    %...        |      [26]: "1989-09-23T23:00:00Z" (622594800) transition_time 0x94-0x98 (4)
0x090|                        27 f5 18 70            |        '..p    |      [27]: "1991-03-30T23:00:00Z" (670374000) transition_time 0x98-0x9c (4)
0x090|                                    28 e5 17 80|            (...|      [28]: "1991-09-29T00:00:00Z" (686102400) transition_time 0x9c-0xa0 (4)
0x0a0|29 d5 08 80                                    |)...            |      [29]: "1992-03-29T00:00:00Z" (701827200) transition_time 0xa0-0xa4 (4)
0x0a0|            2a c4 f9 80                        |    *...        |      [30]: "1992-09-27T00:00:00Z" (717552000) transition_time 0xa4-0xa8 (4)
0x0a0|                        2b b4 ea 80            |        +...    |      [31]: "1993-03-28T00:00:00Z" (733276800) transition_time 0xa8-0xac (4)
0x0a0|                                    2c a4 db 80|            ,...|      [32]: "1993-09-26T00:00:00Z" (749001600) transition_time 0xac-0xb0 (4)
0x0b0|2d 94 cc 80                                    |-...            |      [33]: "1994-03-27T00:00:00Z" (764726400) transition_time 0xb0-0xb4 (4)
0x0b0|            2e 84 bd 80                        |    ....        |      [34]: "1994-09-25T00:00:00Z" (780451200) transition_time 0xb4-0xb8 (4)
0x0b0|                        2f 74 ae 80            |        /t..    |      [35]: "1995-03-26T00:00:00Z" (796176000) transition_time 0xb8-0xbc (4)
0x0b0|                                    30 64 9f 80|            0d..|      [36]: "1995-09-24T00:00:00Z" (811900800) transition_time 0xbc-0xc0 (4)
0x0c0|31 5d cb 00                                    |1]..            |      [37]: "1996-03-31T00:00:00Z" (828230400) transition_time 0xc0-0xc4 (4)
0x0c0|            32 72 a6 00                        |    2r..        |      [38]: "1996-10-27T00:00:00Z" (846374400) transition_time 0xc4-0xc8 (4)
0x0c0|                        33 3d ad 00            |        3=..    |      [39]: "1997-03-30T00:00:00Z" (859680000) transition_time 0xc8-0xcc (4)
0x0c0|                                    34 52 88 00|            4R..|      [40]: "1997-10-26T00:00:00Z" (877824000) transition_time 0xcc-0xd0 (4)
0x0d0|35 1d 8f 00                                    |5...            |      [41]: "1998-03-29T00:00:00Z" (891129600) transition_time 0xd0-0xd4 (4)
0x0d0|            36 32 6a 00                        |    62j.        |      [42]: "1998-10-25T00:00:00Z" (909273600) transition_time 0xd4-0xd8 (4)
0x0d0|                        36 fd 71 00            |        6.q.    |      [43]: "1999-03-28T00:00:00Z" (922579200) transition_time 0xd8-0xdc (4)
0x0d0|                                    38 1b 86 80|            8...|      [44]: "1999-10-31T00:00:00Z" (941328000) transition_time 0xdc-0xe0 (4)
0x0e0|38 dd 53 00                                    |8.S.            |      [45]: "2000-03-26T00:00:00Z" (954028800) transition_time 0xe0-0xe4 (4)
0x0e0|            39 fb 68 80                        |    9.h.        |      [46]: "2000-10-29T00:00:00Z" (972777600) transition_time 0xe4-0xe8 (4)
0x0e0|                        3a bd 35 00            |        :.5.    |      [47]: "2001-03-25T00:00:00Z" (985478400) transition_time 0xe8-0xec (4)
0x0e0|                                    3b db 4a 80|            ;.J.|      [48]: "2001-10-28T00:00:00Z" (1004227200) transition_time 0xec-0xf0 (4)
0x0f0|3c a6 51 80                                    |<.Q.            |      [49]: "2002-03-31T00:00:00Z" (1017532800) transition_time 0xf0-0xf4 (4)
0x0f0|            3d bb 2c 80                        |    =.,.        |      [50]: "2002-10-27T00:00:00Z" (1035676800) transition_time 0xf4-0xf8 (4)
0x0f0|                        3e 86 33 80            |        >.3.    |      [51]: "2003-03-30T00:00:00Z" (1048982400) transition_time 0xf8-0xfc (4)
0x0f0|                                    3f 9b 0e 80|            ?...|      [52]: "2003-10-26T00:00:00Z" (1067126400) transition_time 0xfc-0x100 (4)
0x100|40 66 15 80                                    |@f..            |      [53]: "2004-03-28T00:00:00Z" (1080432000) transition_time 0x100-0x104 (4)
0x100|            41 84 2b 00                        |    A.+.        |      [54]: "2004-10-31T00:00:00Z" (1099180800) transition_time 0x104-0x108 (4)
0x100|                        42 45 f7 80            |        BE..    |      [55]: "2005-03-27T00:00:00Z" (1111881600) transition_time 0x108-0x10c (4)
0x100|                                    43 64 0d 00|            Cd..|      [56]: "2005-10-30T00:00:00Z" (1130630400) transition_time 0x10c-0x110 (4)
0x110|44 25 d9 80                                    |D%..            |      [57]: "2006-03-26T00:00:00Z" (1143331200) transition_time 0x110-0x114 (4)
0x110|            45 43 ef 00                        |    EC..        |      [58]: "2006-10-29T00:00:00Z" (1162080000) transition_time 0x114-0x118 (4)
0x110|                        46 05 bb 80            |        F...    |      [59]: "2007-03-25T00:00:00Z" (1174780800) transition_time 0x118-0x11c (4)
0x110|                                    47 23 d1 00|            G#..|      [60]: "2007-10-28T00:00:00Z" (1193529600) transition_time 0x11c-0x120 (4)
0x120|47 ee d8 00                                    |G...            |      [61]: "2008-03-30T00:00:00Z" (1206835200) transition_time 0x120-0x124 (4)
0x120|            49 03 b3 00                        |    I...        |      [62]: "2008-10-26T00:00:00Z" (1224979200) transition_time 0x124-0x128 (4)
0x120|                        49 ce ba 00            |        I...    |      [63]: "2009-03-29T00:00:00Z" (1238284800) transition_time 0x128-0x12c (4)
0x120|                                    4a e3 95 00|            J...|      [64]: "2009-10-25T00:00:00Z" (1256428800) transition_time 0x12c-0x130 (4)
0x130|4b ae 9c 00                                    |K...            |      [65]: "2010-03-28T00:00:00Z" (1269734400) transition_time 0x130-0x134 (4)
0x130|            4c cc b1 80                        |    L...        |      [66]: "2010-10-31T00:00:00Z" (1288483200) transition_time 0x134-0x138 (4)
0x130|                        4d 8e 7e 00            |        M.~.    |      [67]: "2011-03-27T00:00:00Z" (1301184000) transition_time 0x138-0x13c (4)
0x130|                                    7f ff ff ff|            ....|      [68]: "2038-01-19T03:14:07Z" (2147483647) transition_time 0x13c-0x140 (4)
     |                                               |                |    transition_types[0:69]: 0x140-0x185 (69)
0x140|01                                             |.               |      [0]: 1 transition_type 0x140-0x141 (1)
0x140|   02                                          | .              |      [1]: 2 transition_type 0x141-0x142 (1)
0x140|      03                                       |  .             |      [2]: 3 transition_type 0x142-0x143 (1)
0x140|         06                                    |   .            |      [3]: 6 transition_type 0x143-0x144 (1)
0x140|            04                                 |    .           |      [4]: 4 transition_type 0x144-0x145 (1)
0x140|               05                              |     .          |      [5]: 5 transition_type 0x145-0x146 (1)
0x140|                  04                           |      .         |      [6]: 4 transition_type 0x146-0x147 (1)
0x140|                     05                        |       .        |      [7]: 5 transition_type 0x147-0x148 (1)
0x140|                        03                     |        .       |      [8]: 3 transition_type 0x148-0x149 (1)
0x140|                           07                  |         .      |      [9]: 7 transition_type 0x149-0x14a (1)
0x140|                              03               |          .     |      [10]: 3 transition_type 0x14a-0x14b (1)
0x140|                                 07            |           .    |      [11]: 7 transition_type 0x14b-0x14c (1)
0x140|                                    03         |            .   |      [12]: 3 transition_type 0x14c-0x14d (1)
0x140|                                       07      |             .  |      [13]: 7 transition_type 0x14d-0x14e (1)
0x140|                                          03   |              . |      [14]: 3 transition_type 0x14e-0x14f (1)
0x140|                                             07|               .|      [15]: 7 transition_type 0x14f-0x150 (1)
0x150|08                                             |.               |      [16]: 8 transition_type 0x150-0x151 (1)
0x150|   09                                          | .              |      [17]: 9 transition_type 0x151-0x152 (1)
0x150|      08                                       |  .             |      [18]: 8 transition_type 0x152-0x153 (1)
0x150|         09                                    |   .            |      [19]: 9 transition_type 0x153-0x154 (1)
0x150|            08                                 |    .           |      [20]: 8 transition_type 0x154-0x155 (1)
0x150|               09                              |     .          |      [21]: 9 transition_type 0x155-0x156 (1)
0x150|                  08                           |      .         |      [22]: 8 transition_type 0x156-0x157 (1)
0x150|                     09                        |       .        |      [23]: 9 transition_type 0x157-0x158 (1)
0x150|                        08                     |        .       |      [24]: 8 transition_type 0x158-0x159 (1)
0x150|                           09                  |         .      |      [25]: 9 transition_type 0x159-0x15a (1)
0x150|                              08               |          .     |      [26]: 8 transition_type 0x15a-0x15b (1)
0x150|                                 0a            |           .    |      [27]: 10 transition_type 0x15b-0x15c (1)
0x150|                                    0b         |            .   |      [28]: 11 transition_type 0x15c-0x15d (1)
0x150|                                       0a      |             .  |      [29]: 10 transition_type 0x15d-0x15e (1)
0x150|                                          0b   |              . |      [30]: 11 transition_type 0x15e-0x15f (1)
0x150|                                             0a|               .|      [31]: 10 transition_type 0x15f-0x160 (1)
0x160|0b                                             |.               |      [32]: 11 transition_type 0x160-0x161 (1)
0x160|   0a                                          | .              |      [33]: 10 transition_type 0x161-0x162 (1)
0x160|      0b                                       |  .             |      [34]: 11 transition_type 0x162-0x163 (1)
0x160|         0a                                    |   .            |      [35]: 10 transition_type 0x163-0x164 (1)
0x160|            0b                                 |    .           |      [36]: 11 transition_type 0x164-0x165 (1)
0x160|               0a                              |     .          |      [37]: 10 transition_type 0x165-0x166 (1)
0x160|                  0b                           |      .         |      [38]: 11 transition_type 0x166-0x167 (1)
0x160|                     0a                        |       .        |      [39]: 10 transition_type 0x167-0x168 (1)
0x160|                        0b                     |        .       |      [40]: 11 transition_type 0x168-0x169 (1)
0x160|                           0a                  |         .      |      [41]: 10 transition_type 0x169-0x16a (1)
0x160|                              0b               |          .     |      [42]: 11 transition_type 0x16a-0x16b (1)
0x160|                                 0a            |           .    |      [43]: 10 transition_type 0x16b-0x16c (1)
0x160|                                    0b         |            .   |      [44]: 11 transition_type 0x16c-0x16d (1)
0x160|                                       0a      |             .  |      [45]: 10 transition_type 0x16d-0x16e (1)
0x160|                                          0b   |              . |      [46]: 11 transition_type 0x16e-0x16f (1)
0x160|                                             0a|               .|      [47]: 10 transition_type 0x16f-0x170 (1)
0x170|0b                                             |.               |      [48]: 11 transition_type 0x170-0x171 (1)
0x170|   0a                                          | .              |      [49]: 10 transition_type 0x171-0x172 (1)
0x170|      0b                                       |  .             |      [50]: 11 transition_type 0x172-0x173 (1)
0x170|         0a                                    |   .            |      [51]: 10 transition_type 0x173-0x174 (1)
0x170|            0b                                 |    .           |      [52]: 11 transition_type 0x174-0x175 (1)
0x170|               0a                              |     .          |      [53]: 10 transition_type 0x175-0x176 (1)
0x170|                  0b                           |      .         |      [54]: 11 transition_type 0x176-0x177 (1)
0x170|                     0a                        |       .        |      [55]: 10 transition_type 0x177-0x178 (1)
0x170|                        0b                     |        .       |      [56]: 11 transition_type 0x178-0x179 (1)
0x170|                           0a                  |         .      |      [57]: 10 transition_type 0x179-0x17a (1)
0x170|                              0b               |          .     |      [58]: 11 transition_type 0x17a-0x17b (1)
0x170|                                 0a            |           .    |      [59]: 10 transition_type 0x17b-0x17c (1)
0x170|                                    0b         |            .   |      [60]: 11 transition_type 0x17c-0x17d (1)
0x170|                                       0a      |             .  |      [61]: 10 transition_type 0x17d-0x17e (1)
0x170|                                          0b   |              . |      [62]: 11 transition_type 0x17e-0x17f (1)
0x170|                                             0a|               .|      [63]: 10 transition_type 0x17f-0x180 (1)
0x180|0b                                             |.               |      [64]: 11 transition_type 0x180-0x181 (1)
0x180|   0a                                          | .              |      [65]: 10 transition_type 0x181-0x182 (1)
0x180|      0b                                       |  .             |      [66]: 11 transition_type 0x182-0x183 (1)
0x180|         0c                                    |   .            |      [67]: 12 transition_type 0x183-0x184 (1)
0x180|            0c                                 |    .           |      [68]: 12 transition_type 0x184-0x185 (1)
     |                                               |                |    local_time_type_records[0:13]: 0x185-0x1d3 (78)
     |                                               |                |      [0]{}: local_time_type 0x185-0x18b (6)
0x180|               00 00 19 d8                     |     ....       |        utoff: 6616 (valid) 0x185-0x189 (4)
0x180|                           00                  |         .      |        dst: 0 (valid) 0x189-0x18a (1)
0x180|                              00               |          .     |        idx: 0 (valid) 0x18a-0x18b (1)
     |                                               |                |      [1]{}: local_time_type 0x18b-0x191 (6)
0x180|                                 00 00 19 c8   |           .... |        utoff: 6600 (valid) 0x18b-0x18f (4)
0x180|                                             00|               .|        dst: 0 (valid) 0x18f-0x190 (1)
0x190|04                                             |.               |        idx: 4 (valid) 0x190-0x191 (1)
     |                                               |                |      [2]{}: local_time_type 0x191-0x197 (6)
0x190|   00 00 1c 20                                 | ...            |        utoff: 7200 (valid) 0x191-0x195 (4)
0x190|               00                              |     .          |        dst: 0 (valid) 0x195-0x196 (1)
0x190|                  08                           |      .         |        idx: 8 (valid) 0x196-0x197 (1)
     |                                               |                |      [3]{}: local_time_type 0x197-0x19d (6)
0x190|                     00 00 2a 30               |       ..*0     |        utoff: 10800 (valid) 0x197-0x19b (4)
0x190|                                 00            |           .    |        dst: 0 (valid) 0x19b-0x19c (1)
0x190|                                    0c         |            .   |        idx: 12 (valid) 0x19c-0x19d (1)
     |                                               |                |      [4]{}: local_time_type 0x19d-0x1a3 (6)
0x190|                                       00 00 0e|             ...|        utoff: 3600 (valid) 0x19d-0x1a1 (4)
0x1a0|10                                             |.               |
0x1a0|   00                                          | .              |        dst: 0 (valid) 0x1a1-0x1a2 (1)
0x1a0|      10                                       |  .             |        idx: 16 (valid) 0x1a2-0x1a3 (1)
     |                                               |                |      [5]{}: local_time_type 0x1a3-0x1a9 (6)
0x1a0|         00 00 1c 20                           |   ...          |        utoff: 7200 (valid) 0x1a3-0x1a7 (4)
0x1a0|                     01                        |       .        |        dst: 1 (valid) 0x1a7-0x1a8 (1)
0x1a0|                        14                     |        .       |        idx: 20 (valid) 0x1a8-0x1a9 (1)
     |                                               |                |      [6]{}: local_time_type 0x1a9-0x1af (6)
0x1a0|                           00 00 1c 20         |         ...    |        utoff: 7200 (valid) 0x1a9-0x1ad (4)
0x1a0|                                       01      |             .  |        dst: 1 (valid) 0x1ad-0x1ae (1)
0x1a0|                                          14   |              . |        idx: 20 (valid) 0x1ae-0x1af (1)
     |                                               |                |      [7]{}: local_time_type 0x1af-0x1b5 (6)
0x1a0|                                             00|               .|        utoff: 14400 (valid) 0x1af-0x1b3 (4)
0x1b0|00 38 40                                       |.8@             |
0x1b0|         01                                    |   .            |        dst: 1 (valid) 0x1b3-0x1b4 (1)
0x1b0|            19                                 |    .           |        idx: 25 (valid) 0x1b4-0x1b5 (1)
     |                                               |                |      [8]{}: local_time_type 0x1b5-0x1bb (6)
0x1b0|               00 00 2a 30                     |     ..*0       |        utoff: 10800 (valid) 0x1b5-0x1b9 (4)
0x1b0|                           00                  |         .      |        dst: 0 (valid) 0x1b9-0x1ba (1)
0x1b0|                              0c               |          .     |        idx: 12 (valid) 0x1ba-0x1bb (1)
     |                                               |                |      [9]{}: local_time_type 0x1bb-0x1c1 (6)
0x1b0|                                 00 00 38 40   |           ..8@ |        utoff: 14400 (valid) 0x1bb-0x1bf (4)
0x1b0|                                             01|               .|        dst: 1 (valid) 0x1bf-0x1c0 (1)
0x1c0|19                                             |.               |        idx: 25 (valid) 0x1c0-0x1c1 (1)
     |                                               |                |      [10]{}: local_time_type 0x1c1-0x1c7 (6)
0x1c0|   00 00 2a 30                                 | ..*0           |        utoff: 10800 (valid) 0x1c1-0x1c5 (4)
0x1c0|               01                              |     .          |        dst: 1 (valid) 0x1c5-0x1c6 (1)
0x1c0|                  1d                           |      .         |        idx: 29 (valid) 0x1c6-0x1c7 (1)
     |                                               |                |      [11]{}: local_time_type 0x1c7-0x1cd (6)
0x1c0|                     00 00 1c 20               |       ...      |        utoff: 7200 (valid) 0x1c7-0x1cb (4)
0x1c0|                                 00            |           .    |        dst: 0 (valid) 0x1cb-0x1cc (1)
0x1c0|                                    08         |            .   |        idx: 8 (valid) 0x1cc-0x1cd (1)
     |                                               |                |      [12]{}: local_time_type 0x1cd-0x1d3 (6)
0x1c0|                                       00 00 2a|             ..*|        utoff: 10800 (valid) 0x1cd-0x1d1 (4)
0x1d0|30                                             |0               |
0x1d0|   00                                          | .              |        dst: 0 (valid) 0x1d1-0x1d2 (1)
0x1d0|      22                                       |  "             |        idx: 34 (valid) 0x1d2-0x1d3 (1)
     |                                               |                |    time_zone_designations[0:9]: 0x1d3-0x1f9 (38)
0x1d0|         4c 4d 54 00                           |   LMT.         |      [0]: "LMT" time_zone_designation 0x1d3-0x1d7 (4)
0x1d0|                     4d 4d 54 00               |       MMT.     |      [1]: "MMT" time_zone_designation 0x1d7-0x1db (4)
0x1d0|                                 45 45 54 00   |           EET. |      [2]: "EET" time_zone_designation 0x1db-0x1df (4)
0x1d0|                                             4d|               M|      [3]: "MSK" time_zone_designation 0x1df-0x1e3 (4)
0x1e0|53 4b 00                                       |SK.             |
0x1e0|         43 45 54 00                           |   CET.         |      [4]: "CET" time_zone_designation 0x1e3-0x1e7 (4)
0x1e0|                     43 45 53 54 00            |       CEST.    |      [5]: "CEST" time_zone_designation 0x1e7-0x1ec (5)
0x1e0|                                    4d 53 44 00|            MSD.|      [6]: "MSD" time_zone_designation 0x1ec-0x1f0 (4)
0x1f0|45 45 53 54 00                                 |EEST.           |      [7]: "EEST" time_zone_designation 0x1f0-0x1f5 (5)
0x1f0|               2b 30 33 00                     |     +03.       |      [8]: "+03" time_zone_designation 0x1f5-0x1f9 (4)
     |                                               |                |    leap_second_records[0:0]: 0x1f9-0x1f9 (0)
     |                                               |                |    standard_wall_indicators[0:13]: 0x1f9-0x206 (13)
0x1f0|                           00                  |         .      |      [0]: 0 standard_wall_indicator (valid) 0x1f9-0x1fa (1)
0x1f0|                              00               |          .     |      [1]: 0 standard_wall_indicator (valid) 0x1fa-0x1fb (1)
0x1f0|                                 00            |           .    |      [2]: 0 standard_wall_indicator (valid) 0x1fb-0x1fc (1)
0x1f0|                                    00         |            .   |      [3]: 0 standard_wall_indicator (valid) 0x1fc-0x1fd (1)
0x1f0|                                       01      |             .  |      [4]: 1 standard_wall_indicator (valid) 0x1fd-0x1fe (1)
0x1f0|                                          01   |              . |      [5]: 1 standard_wall_indicator (valid) 0x1fe-0x1ff (1)
0x1f0|                                             00|               .|      [6]: 0 standard_wall_indicator (valid) 0x1ff-0x200 (1)
0x200|00                                             |.               |      [7]: 0 standard_wall_indicator (valid) 0x200-0x201 (1)
0x200|   01                                          | .              |      [8]: 1 standard_wall_indicator (valid) 0x201-0x202 (1)
0x200|      01                                       |  .             |      [9]: 1 standard_wall_indicator (valid) 0x202-0x203 (1)
0x200|         01                                    |   .            |      [10]: 1 standard_wall_indicator (valid) 0x203-0x204 (1)
0x200|            01                                 |    .           |      [11]: 1 standard_wall_indicator (valid) 0x204-0x205 (1)
0x200|               01                              |     .          |      [12]: 1 standard_wall_indicator (valid) 0x205-0x206 (1)
     |                                               |                |    ut_local_indicators[0:0]: 0x206-0x206 (0)
     |                                               |                |  v2plusheader{}: 0x206-0x232 (44)
0x200|                  54 5a 69 66                  |      TZif      |    magic: 0x545a6966 (valid) 0x206-0x20a (4)
0x200|                              32               |          2     |    ver: "2" (0x32) (valid) 0x20a-0x20b (1)
0x200|                                 00 00 00 00 00|           .....|    reserved: raw bits 0x20b-0x21a (15)
0x210|00 00 00 00 00 00 00 00 00 00                  |..........      |
0x210|                              00 00 00 00      |          ....  |    isutcnt: 0 0x21a-0x21e (4)
0x210|                                          00 00|              ..|    isstdcnt: 13 0x21e-0x222 (4)
0x220|00 0d                                          |..              |
0x220|      00 00 00 00                              |  ....          |    leapcnt: 0 0x222-0x226 (4)
0x220|                  00 00 00 45                  |      ...E      |    timecnt: 69 0x226-0x22a (4)
0x220|                              00 00 00 0d      |          ....  |    typecnt: 13 0x22a-0x22e (4)
0x220|                                          00 00|              ..|    charcnt: 38 0x22e-0x232 (4)
0x230|00 26                                          |.&              |
     |                                               |                |  v2plusdatablock{}: 0x232-0x520 (750)
     |                                               |                |    transition_times[0:69]: 0x232-0x45a (552)
0x230|      ff ff ff ff 56 b6 ca 28                  |  ....V..(      |      [0]: "1879-12-31T22:09:44Z" (-2840147416) transition_time 0x232-0x23a (8)
0x230|                              ff ff ff ff aa 19|          ......|      [1]: "1924-05-01T22:10:00Z" (-1441158600) transition_time 0x23a-0x242 (8)
0x240|aa 38                                          |.8              |
0x240|      ff ff ff ff b5 a4 19 60                  |  .......`      |      [2]: "1930-06-20T22:00:00Z" (-1247536800) transition_time 0x242-0x24a (8)
0x240|                              ff ff ff ff ca 5e|          .....^|      [3]: "1941-06-27T21:00:00Z" (-899780400) transition_time 0x24a-0x252 (8)
0x250|70 d0                                          |p.              |
0x250|      ff ff ff ff cc e7 4b 10                  |  ......K.      |      [4]: "1942-11-02T01:00:00Z" (-857257200) transition_time 0x252-0x25a (8)
0x250|                              ff ff ff ff cd a9|          ......|      [5]: "1943-03-29T01:00:00Z" (-844556400) transition_time 0x25a-0x262 (8)
0x260|17 90                                          |..              |
0x260|      ff ff ff ff ce a2 43 10                  |  ......C.      |      [6]: "1943-10-04T01:00:00Z" (-828226800) transition_time 0x262-0x26a (8)
0x260|                              ff ff ff ff cf 92|          ......|      [7]: "1944-04-03T01:00:00Z" (-812502000) transition_time 0x26a-0x272 (8)
0x270|34 10                                          |4.              |
0x270|      ff ff ff ff d0 0a 02 60                  |  .......`      |      [8]: "1944-07-02T22:00:00Z" (-804650400) transition_time 0x272-0x27a (8)
0x270|                              00 00 00 00 15 27|          .....'|      [9]: "1981-03-31T21:00:00Z" (354920400) transition_time 0x27a-0x282 (8)
0x280|a7 d0                                          |..              |
0x280|      00 00 00 00 16 18 dc 40                  |  .......@      |      [10]: "1981-09-30T20:00:00Z" (370728000) transition_time 0x282-0x28a (8)
0x280|                              00 00 00 00 17 08|          ......|      [11]: "1982-03-31T21:00:00Z" (386456400) transition_time 0x28a-0x292 (8)
0x290|db 50                                          |.P              |
0x290|      00 00 00 00 17 fa 0f c0                  |  ........      |      [12]: "1982-09-30T20:00:00Z" (402264000) transition_time 0x292-0x29a (8)
0x290|                              00 00 00 00 18 ea|          ......|      [13]: "1983-03-31T21:00:00Z" (417992400) transition_time 0x29a-0x2a2 (8)
0x2a0|0e d0                                          |..              |
0x2a0|      00 00 00 00 19 db 43 40                  |  ......C@      |      [14]: "1983-09-30T20:00:00Z" (433800000) transition_time 0x2a2-0x2aa (8)
0x2a0|                              00 00 00 00 1a cc|          ......|      [15]: "1984-03-31T21:00:00Z" (449614800) transition_time 0x2aa-0x2b2 (8)
0x2b0|93 d0                                          |..              |
0x2b0|      00 00 00 00 1b bc a0 f0                  |  ........      |      [16]: "1984-09-29T23:00:00Z" (465346800) transition_time 0x2b2-0x2ba (8)
0x2b0|                              00 00 00 00 1c ac|          ......|      [17]: "1985-03-30T23:00:00Z" (481071600) transition_time 0x2ba-0x2c2 (8)
0x2c0|91 f0                                          |..              |
0x2c0|      00 00 00 00 1d 9c 82 f0                  |  ........      |      [18]: "1985-09-28T23:00:00Z" (496796400) transition_time 0x2c2-0x2ca (8)
0x2c0|                              00 00 00 00 1e 8c|          ......|      [19]: "1986-03-29T23:00:00Z" (512521200) transition_time 0x2ca-0x2d2 (8)
0x2d0|73 f0                                          |s.              |
0x2d0|      00 00 00 00 1f 7c 64 f0                  |  .....|d.      |      [20]: "1986-09-27T23:00:00Z" (528246000) transition_time 0x2d2-0x2da (8)
0x2d0|                              00 00 00 00 20 6c|          .... l|      [21]: "1987-03-28T23:00:00Z" (543970800) transition_time 0x2da-0x2e2 (8)
0x2e0|55 f0                                          |U.              |
0x2e0|      00 00 00 00 21 5c 46 f0                  |  ....!\F.      |      [22]: "1987-09-26T23:00:00Z" (559695600) transition_time 0x2e2-0x2ea (8)
0x2e0|                              00 00 00 00 22 4c|          ...."L|      [23]: "1988-03-26T23:00:00Z" (575420400) transition_time 0x2ea-0x2f2 (8)
0x2f0|37 f0                                          |7.              |
0x2f0|      00 00 00 00 23 3c 28 f0                  |  ....#<(.      |      [24]: "1988-09-24T23:00:00Z" (591145200) transition_time 0x2f2-0x2fa (8)
0x2f0|                              00 00 00 00 24 2c|          ....$,|      [25]: "1989-03-25T23:00:00Z" (606870000) transition_time 0x2fa-0x302 (8)
0x300|19 f0                                          |..              |
0x300|      00 00 00 00 25 1c 0a f0                  |  ....%...      |      [26]: "1989-09-23T23:00:00Z" (622594800) transition_time 0x302-0x30a (8)
0x300|                              00 00 00 00 27 f5|          ....'.|      [27]: "1991-03-30T23:00:00Z" (670374000) transition_time 0x30a-0x312 (8)
0x310|18 70                                          |.p              |
0x310|      00 00 00 00 28 e5 17 80                  |  ....(...      |      [28]: "1991-09-29T00:00:00Z" (686102400) transition_time 0x312-0x31a (8)
0x310|                              00 00 00 00 29 d5|          ....).|      [29]: "1992-03-29T00:00:00Z" (701827200) transition_time 0x31a-0x322 (8)
0x320|08 80                                          |..              |
0x320|      00 00 00 00 2a c4 f9 80                  |  ....*...      |      [30]: "1992-09-27T00:00:00Z" (717552000) transition_time 0x322-0x32a (8)
0x320|                              00 00 00 00 2b b4|          ....+.|      [31]: "1993-03-28T00:00:00Z" (733276800) transition_time 0x32a-0x332 (8)
0x330|ea 80                                          |..              |
0x330|      00 00 00 00 2c a4 db 80                  |  ....,...      |      [32]: "1993-09-26T00:00:00Z" (749001600) transition_time 0x332-0x33a (8)
0x330|                              00 00 00 00 2d 94|          ....-.|      [33]: "1994-03-27T00:00:00Z" (764726400) transition_time 0x33a-0x342 (8)
0x340|cc 80                                          |..              |
0x340|      00 00 00 00 2e 84 bd 80                  |  ........      |      [34]: "1994-09-25T00:00:00Z" (780451200) transition_time 0x342-0x34a (8)
0x340|                              00 00 00 00 2f 74|          ..../t|      [35]: "1995-03-26T00:00:00Z" (796176000) transition_time 0x34a-0x352 (8)
0x350|ae 80                                          |..              |
0x350|      00 00 00 00 30 64 9f 80                  |  ....0d..      |      [36]: "1995-09-24T00:00:00Z" (811900800) transition_time 0x352-0x35a (8)
0x350|                              00 00 00 00 31 5d|          ....1]|      [37]: "1996-03-31T00:00:00Z" (828230400) transition_time 0x35a-0x362 (8)
0x360|cb 00                                          |..              |
0x360|      00 00 00 00 32 72 a6 00                  |  ....2r..      |      [38]: "1996-10-27T00:00:00Z" (846374400) transition_time 0x362-0x36a (8)
0x360|                              00 00 00 00 33 3d|          ....3=|      [39]: "1997-03-30T00:00:00Z" (859680000) transition_time 0x36a-0x372 (8)
0x370|ad 00                                          |..              |
0x370|      00 00 00 00 34 52 88 00                  |  ....4R..      |      [40]: "1997-10-26T00:00:00Z" (877824000) transition_time 0x372-0x37a (8)
0x370|                              00 00 00 00 35 1d|          ....5.|      [41]: "1998-03-29T00:00:00Z" (891129600) transition_time 0x37a-0x382 (8)
0x380|8f 00                                          |..              |
0x380|      00 00 00 00 36 32 6a 00                  |  ....62j.      |      [42]: "1998-10-25T00:00:00Z" (909273600) transition_time 0x382-0x38a (8)
0x380|                              00 00 00 00 36 fd|          ....6.|      [43]: "1999-03-28T00:00:00Z" (922579200) transition_time 0x38a-0x392 (8)
0x390|71 00                                          |q.              |
0x390|      00 00 00 00 38 1b 86 80                  |  ....8...      |      [44]: "1999-10-31T00:00:00Z" (941328000) transition_time 0x392-0x39a (8)
0x390|                              00 00 00 00 38 dd|          ....8.|      [45]: "2000-03-26T00:00:00Z" (954028800) transition_time 0x39a-0x3a2 (8)
0x3a0|53 00                                          |S.              |
0x3a0|      00 00 00 00 39 fb 68 80                  |  ....9.h.      |      [46]: "2000-10-29T00:00:00Z" (972777600) transition_time 0x3a2-0x3aa (8)
0x3a0|                              00 00 00 00 3a bd|          ....:.|      [47]: "2001-03-25T00:00:00Z" (985478400) transition_time 0x3aa-0x3b2 (8)
0x3b0|35 00                                          |5.              |
0x3b0|      00 00 00 00 3b db 4a 80                  |  ....;.J.      |      [48]: "2001-10-28T00:00:00Z" (1004227200) transition_time 0x3b2-0x3ba (8)
0x3b0|                              00 00 00 00 3c a6|          ....<.|      [49]: "2002-03-31T00:00:00Z" (1017532800) transition_time 0x3ba-0x3c2 (8)
0x3c0|51 80                                          |Q.              |
0x3c0|      00 00 00 00 3d bb 2c 80                  |  ....=.,.      |      [50]: "2002-10-27T00:00:00Z" (1035676800) transition_time 0x3c2-0x3ca (8)
0x3c0|                              00 00 00 00 3e 86|          ....>.|      [51]: "2003-03-30T00:00:00Z" (1048982400) transition_time 0x3ca-0x3d2 (8)
0x3d0|33 80                                          |3.              |
0x3d0|      00 00 00 00 3f 9b 0e 80                  |  ....?...      |      [52]: "2003-10-26T00:00:00Z" (1067126400) transition_time 0x3d2-0x3da (8)
0x3d0|                              00 00 00 00 40 66|          ....@f|      [53]: "2004-03-28T00:00:00Z" (1080432000) transition_time 0x3da-0x3e2 (8)
0x3e0|15 80                                          |..              |
0x3e0|      00 00 00 00 41 84 2b 00                  |  ....A.+.      |      [54]: "2004-10-31T00:00:00Z" (1099180800) transition_time 0x3e2-0x3ea (8)
0x3e0|                              00 00 00 00 42 45|          ....BE|      [55]: "2005-03-27T00:00:00Z" (1111881600) transition_time 0x3ea-0x3f2 (8)
0x3f0|f7 80                                          |..              |
0x3f0|      00 00 00 00 43 64 0d 00                  |  ....Cd..      |      [56]: "2005-10-30T00:00:00Z" (1130630400) transition_time 0x3f2-0x3fa (8)
0x3f0|                              00 00 00 00 44 25|          ....D%|      [57]: "2006-03-26T00:00:00Z" (1143331200) transition_time 0x3fa-0x402 (8)
0x400|d9 80                                          |..              |
0x400|      00 00 00 00 45 43 ef 00                  |  ....EC..      |      [58]: "2006-10-29T00:00:00Z" (1162080000) transition_time 0x402-0x40a (8)
0x400|                              00 00 00 00 46 05|          ....F.|      [59]: "2007-03-25T00:00:00Z" (1174780800) transition_time 0x40a-0x412 (8)
0x410|bb 80                                          |..              |
0x410|      00 00 00 00 47 23 d1 00                  |  ....G#..      |      [60]: "2007-10-28T00:00:00Z" (1193529600) transition_time 0x412-0x41a (8)
0x410|                              00 00 00 00 47 ee|          ....G.|      [61]: "2008-03-30T00:00:00Z" (1206835200) transition_time 0x41a-0x422 (8)
0x420|d8 00                                          |..              |
0x420|      00 00 00 00 49 03 b3 00                  |  ....I...      |      [62]: "2008-10-26T00:00:00Z" (1224979200) transition_time 0x422-0x42a (8)
0x420|                              00 00 00 00 49 ce|          ....I.|      [63]: "2009-03-29T00:00:00Z" (1238284800) transition_time 0x42a-0x432 (8)
0x430|ba 00                                          |..              |
0x430|      00 00 00 00 4a e3 95 00                  |  ....J...      |      [64]: "2009-10-25T00:00:00Z" (1256428800) transition_time 0x432-0x43a (8)
0x430|                              00 00 00 00 4b ae|          ....K.|      [65]: "2010-03-28T00:00:00Z" (1269734400) transition_time 0x43a-0x442 (8)
0x440|9c 00                                          |..              |
0x440|      00 00 00 00 4c cc b1 80                  |  ....L...      |      [66]: "2010-10-31T00:00:00Z" (1288483200) transition_time 0x442-0x44a (8)
0x440|                              00 00 00 00 4d 8e|          ....M.|      [67]: "2011-03-27T00:00:00Z" (1301184000) transition_time 0x44a-0x452 (8)
0x450|7e 00                                          |~.              |
0x450|      00 00 00 00 7f ff ff ff                  |  ........      |      [68]: "2038-01-19T03:14:07Z" (2147483647) transition_time 0x452-0x45a (8)
     |                                               |                |    transition_types[0:69]: 0x45a-0x49f (69)
0x450|                              01               |          .     |      [0]: 1 transition_type 0x45a-0x45b (1)
0x450|                                 02            |           .    |      [1]: 2 transition_type 0x45b-0x45c (1)
0x450|                                    03         |            .   |      [2]: 3 transition_type 0x45c-0x45d (1)
0x450|                                       06      |             .  |      [3]: 6 transition_type 0x45d-0x45e (1)
0x450|                                          04   |              . |      [4]: 4 transition_type 0x45e-0x45f (1)
0x450|                                             05|               .|      [5]: 5 transition_type 0x45f-0x460 (1)
0x460|04                                             |.               |      [6]: 4 transition_type 0x460-0x461 (1)
0x460|   05                                          | .              |      [7]: 5 transition_type 0x461-0x462 (1)
0x460|      03                                       |  .             |      [8]: 3 transition_type 0x462-0x463 (1)
0x460|         07                                    |   .            |      [9]: 7 transition_type 0x463-0x464 (1)
0x460|            03                                 |    .           |      [10]: 3 transition_type 0x464-0x465 (1)
0x460|               07                              |     .          |      [11]: 7 transition_type 0x465-0x466 (1)
0x460|                  03                           |      .         |      [12]: 3 transition_type 0x466-0x467 (1)
0x460|                     07                        |       .        |      [13]: 7 transition_type 0x467-0x468 (1)
0x460|                        03                     |        .       |      [14]: 3 transition_type 0x468-0x469 (1)
0x460|                           07                  |         .      |      [15]: 7 transition_type 0x469-0x46a (1)
0x460|                              08               |          .     |      [16]: 8 transition_type 0x46a-0x46b (1)
0x460|                                 09            |           .    |      [17]: 9 transition_type 0x46b-0x46c (1)
0x460|                                    08         |            .   |      [18]: 8 transition_type 0x46c-0x46d (1)
0x460|                                       09      |             .  |      [19]: 9 transition_type 0x46d-0x46e (1)
0x460|                                          08   |              . |      [20]: 8 transition_type 0x46e-0x46f (1)
0x460|                                             09|               .|      [21]: 9 transition_type 0x46f-0x470 (1)
0x470|08                                             |.               |      [22]: 8 transition_type 0x470-0x471 (1)
0x470|   09                                          | .              |      [23]: 9 transition_type 0x471-0x472 (1)
0x470|      08                                       |  .             |      [24]: 8 transition_type 0x472-0x473 (1)
0x470|         09                                    |   .            |      [25]: 9 transition_type 0x473-0x474 (1)
0x470|            08                                 |    .           |      [26]: 8 transition_type 0x474-0x475 (1)
0x470|               0a                              |     .          |      [27]: 10 transition_type 0x475-0x476 (1)
0x470|                  0b                           |      .         |      [28]: 11 transition_type 0x476-0x477 (1)
0x470|                     0a                        |       .        |      [29]: 10 transition_type 0x477-0x478 (1)
0x470|                        0b                     |        .       |      [30]: 11 transition_type 0x478-0x479 (1)
0x470|                           0a                  |         .      |      [31]: 10 transition_type 0x479-0x47a (1)
0x470|                              0b               |          .     |      [32]: 11 transition_type 0x47a-0x47b (1)
0x470|                                 0a            |           .    |      [33]: 10 transition_type 0x47b-0x47c (1)
0x470|                                    0b         |            .   |      [34]: 11 transition_type 0x47c-0x47d (1)
0x470|                                       0a      |             .  |      [35]: 10 transition_type 0x47d-0x47e (1)
0x470|                                          0b   |              . |      [36]: 11 transition_type 0x47e-0x47f (1)
0x470|                                             0a|               .|      [37]: 10 transition_type 0x47f-0x480 (1)
0x480|0b                                             |.               |      [38]: 11 transition_type 0x480-0x481 (1)
0x480|   0a                                          | .              |      [39]: 10 transition_type 0x481-0x482 (1)
0x480|      0b                                       |  .             |      [40]: 11 transition_type 0x482-0x483 (1)
0x480|         0a                                    |   .            |      [41]: 10 transition_type 0x483-0x484 (1)
0x480|            0b                                 |    .           |      [42]: 11 transition_type 0x484-0x485 (1)
0x480|               0a                              |     .          |      [43]: 10 transition_type 0x485-0x486 (1)
0x480|                  0b                           |      .         |      [44]: 11 transition_type 0x486-0x487 (1)
0x480|                     0a                        |       .        |      [45]: 10 transition_type 0x487-0x488 (1)
0x480|                        0b                     |        .       |      [46]: 11 transition_type 0x488-0x489 (1)
0x480|                           0a                  |         .      |      [47]: 10 transition_type 0x489-0x48a (1)
0x480|                              0b               |          .     |      [48]: 11 transition_type 0x48a-0x48b (1)
0x480|                                 0a            |           .    |      [49]: 10 transition_type 0x48b-0x48c (1)
0x480|                                    0b         |            .   |      [50]: 11 transition_type 0x48c-0x48d (1)
0x480|                                       0a      |             .  |      [51]: 10 transition_type 0x48d-0x48e (1)
0x480|                                          0b   |              . |      [52]: 11 transition_type 0x48e-0x48f (1)
0x480|                                             0a|               .|      [53]: 10 transition_type 0x48f-0x490 (1)
0x490|0b                                             |.               |      [54]: 11 transition_type 0x490-0x491 (1)
0x490|   0a                                          | .              |      [55]: 10 transition_type 0x491-0x492 (1)
0x490|      0b                                       |  .             |      [56]: 11 transition_type 0x492-0x493 (1)
0x490|         0a                                    |   .            |      [57]: 10 transition_type 0x493-0x494 (1)
0x490|            0b                                 |    .           |      [58]: 11 transition_type 0x494-0x495 (1)
0x490|               0a                              |     .          |      [59]: 10 transition_type 0x495-0x496 (1)
0x490|                  0b                           |      .         |      [60]: 11 transition_type 0x496-0x497 (1)
0x490|                     0a                        |       .        |      [61]: 10 transition_type 0x497-0x498 (1)
0x490|                        0b                     |        .       |      [62]: 11 transition_type 0x498-0x499 (1)
0x490|                           0a                  |         .      |      [63]: 10 transition_type 0x499-0x49a (1)
0x490|                              0b               |          .     |      [64]: 11 transition_type 0x49a-0x49b (1)
0x490|                                 0a            |           .    |      [65]: 10 transition_type 0x49b-0x49c (1)
0x490|                                    0b         |            .   |      [66]: 11 transition_type 0x49c-0x49d (1)
0x490|                                       0c      |             .  |      [67]: 12 transition_type 0x49d-0x49e (1)
0x490|                                          0c   |              . |      [68]: 12 transition_type 0x49e-0x49f (1)
     |                                               |                |    local_time_type_records[0:13]: 0x49f-0x4ed (78)
     |                                               |                |      [0]{}: local_time_type 0x49f-0x4a5 (6)
0x490|                                             00|               .|        utoff: 6616 (valid) 0x49f-0x4a3 (4)
0x4a0|00 19 d8                                       |...             |
0x4a0|         00                                    |   .            |        dst: 0 (valid) 0x4a3-0x4a4 (1)
0x4a0|            00                                 |    .           |        idx: 0 (valid) 0x4a4-0x4a5 (1)
     |                                               |                |      [1]{}: local_time_type 0x4a5-0x4ab (6)
0x4a0|               00 00 19 c8                     |     ....       |        utoff: 6600 (valid) 0x4a5-0x4a9 (4)
0x4a0|                           00                  |         .      |        dst: 0 (valid) 0x4a9-0x4aa (1)
0x4a0|                              04               |          .     |        idx: 4 (valid) 0x4aa-0x4ab (1)
     |                                               |                |      [2]{}: local_time_type 0x4ab-0x4b1 (6)
0x4a0|                                 00 00 1c 20   |           ...  |        utoff: 7200 (valid) 0x4ab-0x4af (4)
0x4a0|                                             00|               .|        dst: 0 (valid) 0x4af-0x4b0 (1)
0x4b0|08                                             |.               |        idx: 8 (valid) 0x4b0-0x4b1 (1)
     |                                               |                |      [3]{}: local_time_type 0x4b1-0x4b7 (6)
0x4b0|   00 00 2a 30                                 | ..*0           |        utoff: 10800 (valid) 0x4b1-0x4b5 (4)
0x4b0|               00                              |     .          |        dst: 0 (valid) 0x4b5-0x4b6 (1)
0x4b0|                  0c                           |      .         |        idx: 12 (valid) 0x4b6-0x4b7 (1)
     |                                               |                |      [4]{}: local_time_type 0x4b7-0x4bd (6)
0x4b0|                     00 00 0e 10               |       ....     |        utoff: 3600 (valid) 0x4b7-0x4bb (4)
0x4b0|                                 00            |           .    |        dst: 0 (valid) 0x4bb-0x4bc (1)
0x4b0|                                    10         |            .   |        idx: 16 (valid) 0x4bc-0x4bd (1)
     |                                               |                |      [5]{}: local_time_type 0x4bd-0x4c3 (6)
0x4b0|                                       00 00 1c|             ...|        utoff: 7200 (valid) 0x4bd-0x4c1 (4)
0x4c0|20                                             |                |
0x4c0|   01                                          | .              |        dst: 1 (valid) 0x4c1-0x4c2 (1)
0x4c0|      14                                       |  .             |        idx: 20 (valid) 0x4c2-0x4c3 (1)
     |                                               |                |      [6]{}: local_time_type 0x4c3-0x4c9 (6)
0x4c0|         00 00 1c 20                           |   ...          |        utoff: 7200 (valid) 0x4c3-0x4c7 (4)
0x4c0|                     01                        |       .        |        dst: 1 (valid) 0x4c7-0x4c8 (1)
0x4c0|                        14                     |        .       |        idx: 20 (valid) 0x4c8-0x4c9 (1)
     |                                               |                |      [7]{}: local_time_type 0x4c9-0x4cf (6)
0x4c0|                           00 00 38 40         |         ..8@   |        utoff: 14400 (valid) 0x4c9-0x4cd (4)
0x4c0|                                       01      |             .  |        dst: 1 (valid) 0x4cd-0x4ce (1)
0x4c0|                                          19   |              . |        idx: 25 (valid) 0x4ce-0x4cf (1)
     |                                               |                |      [8]{}: local_time_type 0x4cf-0x4d5 (6)
0x4c0|                                             00|               .|        utoff: 10800 (valid) 0x4cf-0x4d3 (4)
0x4d0|00 2a 30                                       |.*0             |
0x4d0|         00                                    |   .            |        dst: 0 (valid) 0x4d3-0x4d4 (1)
0x4d0|            0c                                 |    .           |        idx: 12 (valid) 0x4d4-0x4d5 (1)
     |                                               |                |      [9]{}: local_time_type 0x4d5-0x4db (6)
0x4d0|               00 00 38 40                     |     ..8@       |        utoff: 14400 (valid) 0x4d5-0x4d9 (4)
0x4d0|                           01                  |         .      |        dst: 1 (valid) 0x4d9-0x4da (1)
0x4d0|                              19               |          .     |        idx: 25 (valid) 0x4da-0x4db (1)
     |                                               |                |      [10]{}: local_time_type 0x4db-0x4e1 (6)
0x4d0|                                 00 00 2a 30   |           ..*0 |        utoff: 10800 (valid) 0x4db-0x4df (4)
0x4d0|                                             01|               .|        dst: 1 (valid) 0x4df-0x4e0 (1)
0x4e0|1d                                             |.               |        idx: 29 (valid) 0x4e0-0x4e1 (1)
     |                                               |                |      [11]{}: local_time_type 0x4e1-0x4e7 (6)
0x4e0|   00 00 1c 20                                 | ...            |        utoff: 7200 (valid) 0x4e1-0x4e5 (4)
0x4e0|               00                              |     .          |        dst: 0 (valid) 0x4e5-0x4e6 (1)
0x4e0|                  08                           |      .         |        idx: 8 (valid) 0x4e6-0x4e7 (1)
     |                                               |                |      [12]{}: local_time_type 0x4e7-0x4ed (6)
0x4e0|                     00 00 2a 30               |       ..*0     |        utoff: 10800 (valid) 0x4e7-0x4eb (4)
0x4e0|                                 00            |           .    |        dst: 0 (valid) 0x4eb-0x4ec (1)
0x4e0|                                    22         |            "   |        idx: 34 (valid) 0x4ec-0x4ed (1)
     |                                               |                |    time_zone_designations[0:9]: 0x4ed-0x513 (38)
0x4e0|                                       4c 4d 54|             LMT|      [0]: "LMT" time_zone_designation 0x4ed-0x4f1 (4)
0x4f0|00                                             |.               |
0x4f0|   4d 4d 54 00                                 | MMT.           |      [1]: "MMT" time_zone_designation 0x4f1-0x4f5 (4)
0x4f0|               45 45 54 00                     |     EET.       |      [2]: "EET" time_zone_designation 0x4f5-0x4f9 (4)
0x4f0|                           4d 53 4b 00         |         MSK.   |      [3]: "MSK" time_zone_designation 0x4f9-0x4fd (4)
0x4f0|                                       43 45 54|             CET|      [4]: "CET" time_zone_designation 0x4fd-0x501 (4)
0x500|00                                             |.               |
0x500|   43 45 53 54 00                              | CEST.          |      [5]: "CEST" time_zone_designation 0x501-0x506 (5)
0x500|                  4d 53 44 00                  |      MSD.      |      [6]: "MSD" time_zone_designation 0x506-0x50a (4)
0x500|                              45 45 53 54 00   |          EEST. |      [7]: "EEST" time_zone_designation 0x50a-0x50f (5)
0x500|                                             2b|               +|      [8]: "+03" time_zone_designation 0x50f-0x513 (4)
0x510|30 33 00                                       |03.             |
     |                                               |                |    leap_second_records[0:0]: 0x513-0x513 (0)
     |                                               |                |    standard_wall_indicators[0:13]: 0x513-0x520 (13)
0x510|         00                                    |   .            |      [0]: 0 standard_wall_indicator (valid) 0x513-0x514 (1)
0x510|            00                                 |    .           |      [1]: 0 standard_wall_indicator (valid) 0x514-0x515 (1)
0x510|               00                              |     .          |      [2]: 0 standard_wall_indicator (valid) 0x515-0x516 (1)
0x510|                  00                           |      .         |      [3]: 0 standard_wall_indicator (valid) 0x516-0x517 (1)
0x510|                     01                        |       .        |      [4]: 1 standard_wall_indicator (valid) 0x517-0x518 (1)
0x510|                        01                     |        .       |      [5]: 1 standard_wall_indicator (valid) 0x518-0x519 (1)
0x510|                           00                  |         .      |      [6]: 0 standard_wall_indicator (valid) 0x519-0x51a (1)
0x510|                              00               |          .     |      [7]: 0 standard_wall_indicator (valid) 0x51a-0x51b (1)
0x510|                                 01            |           .    |      [8]: 1 standard_wall_indicator (valid) 0x51b-0x51c (1)
0x510|                                    01         |            .   |      [9]: 1 standard_wall_indicator (valid) 0x51c-0x51d (1)
0x510|                                       01      |             .  |      [10]: 1 standard_wall_indicator (valid) 0x51d-0x51e (1)
0x510|                                          01   |              . |      [11]: 1 standard_wall_indicator (valid) 0x51e-0x51f (1)
0x510|                                             01|               .|      [12]: 1 standard_wall_indicator (valid) 0x51f-0x520 (1)
     |                                               |                |    ut_local_indicators[0:0]: 0x520-0x520 (0)
     |                                               |                |  footer{}: 0x520-0x529 (9)
0x520|0a                                             |.               |    nl1: 10 (valid) 0x520-0x521 (1)
0x520|   3c 2b 30 33 3e 2d 33                        | <+03>-3        |    tz_string: "<+03>-3" 0x521-0x528 (7)
0x520|                        0a|                    |        .|      |    nl2: 10 (valid) 0x528-0x529 (1)
