$ fq -d tzif dv Miquelon
     |00 01 02 03 04 05 06 07 08 09 0a 0b 0c 0d 0e 0f|0123456789abcdef|.{}: Miquelon (tzif) 0x0-0x6ed.7 (1774)
     |                                               |                |  v1header{}: 0x0-0x2b.7 (44)
0x000|54 5a 69 66                                    |TZif            |    magic: 0x545a6966 (valid) 0x0-0x3.7 (4)
0x000|            32                                 |    2           |    ver: "2" (0x32) (valid) 0x4-0x4.7 (1)
0x000|               00 00 00 00 00 00 00 00 00 00 00|     ...........|    reserved: raw bits 0x5-0x13.7 (15)
0x010|00 00 00 00                                    |....            |
0x010|            00 00 00 00                        |    ....        |    isutcnt: 0 0x14-0x17.7 (4)
0x010|                        00 00 00 00            |        ....    |    isstdcnt: 0 0x18-0x1b.7 (4)
0x010|                                    00 00 00 1b|            ....|    leapcnt: 27 0x1c-0x1f.7 (4)
0x020|00 00 00 4c                                    |...L            |    timecnt: 76 0x20-0x23.7 (4)
0x020|            00 00 00 04                        |    ....        |    typecnt: 4 0x24-0x27.7 (4)
0x020|                        00 00 00 10            |        ....    |    charcnt: 16 0x28-0x2b.7 (4)
     |                                               |                |  v1datablock{}: 0x2c-0x2a7.7 (636)
     |                                               |                |    transition_times[0:76]: 0x2c-0x15b.7 (304)
0x020|                                    91 b6 38 a8|            ..8.|      [0]: "1911-05-15T03:44:40Z" (-1850328920) transition_time 0x2c-0x2f.7 (4)
0x030|13 6e 63 c9                                    |.nc.            |      [1]: "1980-05-01T04:00:09Z" (326001609) transition_time 0x30-0x33.7 (4)
0x030|            20 75 e4 dd                        |     u..        |      [2]: "1987-04-05T05:00:13Z" (544597213) transition_time 0x34-0x37.7 (4)
0x030|                        21 81 77 4d            |        !.wM    |      [3]: "1987-10-25T04:00:13Z" (562132813) transition_time 0x38-0x3b.7 (4)
0x030|                                    22 55 c6 de|            "U..|      [4]: "1988-04-03T05:00:14Z" (576046814) transition_time 0x3c-0x3f.7 (4)
0x040|23 6a 93 ce                                    |#j..            |      [5]: "1988-10-30T04:00:14Z" (594187214) transition_time 0x40-0x43.7 (4)
0x040|            24 35 a8 de                        |    $5..        |      [6]: "1989-04-02T05:00:14Z" (607496414) transition_time 0x44-0x47.7 (4)
0x040|                        25 4a 75 ce            |        %Ju.    |      [7]: "1989-10-29T04:00:14Z" (625636814) transition_time 0x48-0x4b.7 (4)
0x040|                                    26 15 8a df|            &...|      [8]: "1990-04-01T05:00:15Z" (638946015) transition_time 0x4c-0x4f.7 (4)
0x050|27 2a 57 cf                                    |'*W.            |      [9]: "1990-10-28T04:00:15Z" (657086415) transition_time 0x50-0x53.7 (4)
0x050|            27 fe a7 60                        |    '..`        |      [10]: "1991-04-07T05:00:16Z" (671000416) transition_time 0x54-0x57.7 (4)
0x050|                        29 0a 39 d0            |        ).9.    |      [11]: "1991-10-27T04:00:16Z" (688536016) transition_time 0x58-0x5b.7 (4)
0x050|                                    29 de 89 60|            )..`|      [12]: "1992-04-05T05:00:16Z" (702450016) transition_time 0x5c-0x5f.7 (4)
0x060|2a ea 1b d1                                    |*...            |      [13]: "1992-10-25T04:00:17Z" (719985617) transition_time 0x60-0x63.7 (4)
0x060|            2b be 6b 61                        |    +.ka        |      [14]: "1993-04-04T05:00:17Z" (733899617) transition_time 0x64-0x67.7 (4)
0x060|                        2c d3 38 52            |        ,.8R    |      [15]: "1993-10-31T04:00:18Z" (752040018) transition_time 0x68-0x6b.7 (4)
0x060|                                    2d 9e 4d 62|            -.Mb|      [16]: "1994-04-03T05:00:18Z" (765349218) transition_time 0x6c-0x6f.7 (4)
0x070|2e b3 1a 53                                    |...S            |      [17]: "1994-10-30T04:00:19Z" (783489619) transition_time 0x70-0x73.7 (4)
0x070|            2f 7e 2f 63                        |    /~/c        |      [18]: "1995-04-02T05:00:19Z" (796798819) transition_time 0x74-0x77.7 (4)
0x070|                        30 92 fc 53            |        0..S    |      [19]: "1995-10-29T04:00:19Z" (814939219) transition_time 0x78-0x7b.7 (4)
0x070|                                    31 67 4b e4|            1gK.|      [20]: "1996-04-07T05:00:20Z" (828853220) transition_time 0x7c-0x7f.7 (4)
0x080|32 72 de 54                                    |2r.T            |      [21]: "1996-10-27T04:00:20Z" (846388820) transition_time 0x80-0x83.7 (4)
0x080|            33 47 2d e4                        |    3G-.        |      [22]: "1997-04-06T05:00:20Z" (860302820) transition_time 0x84-0x87.7 (4)
0x080|                        34 52 c0 55            |        4R.U    |      [23]: "1997-10-26T04:00:21Z" (877838421) transition_time 0x88-0x8b.7 (4)
0x080|                                    35 27 0f e5|            5'..|      [24]: "1998-04-05T05:00:21Z" (891752421) transition_time 0x8c-0x8f.7 (4)
0x090|36 32 a2 55                                    |62.U            |      [25]: "1998-10-25T04:00:21Z" (909288021) transition_time 0x90-0x93.7 (4)
0x090|            37 06 f1 e6                        |    7...        |      [26]: "1999-04-04T05:00:22Z" (923202022) transition_time 0x94-0x97.7 (4)
0x090|                        38 1b be d6            |        8...    |      [27]: "1999-10-31T04:00:22Z" (941342422) transition_time 0x98-0x9b.7 (4)
0x090|                                    38 e6 d3 e6|            8...|      [28]: "2000-04-02T05:00:22Z" (954651622) transition_time 0x9c-0x9f.7 (4)
0x0a0|39 fb a0 d6                                    |9...            |      [29]: "2000-10-29T04:00:22Z" (972792022) transition_time 0xa0-0xa3.7 (4)
0x0a0|            3a c6 b5 e6                        |    :...        |      [30]: "2001-04-01T05:00:22Z" (986101222) transition_time 0xa4-0xa7.7 (4)
0x0a0|                        3b db 82 d6            |        ;...    |      [31]: "2001-10-28T04:00:22Z" (1004241622) transition_time 0xa8-0xab.7 (4)
0x0a0|                                    3c af d2 66|            <..f|      [32]: "2002-04-07T05:00:22Z" (1018155622) transition_time 0xac-0xaf.7 (4)
0x0b0|3d bb 64 d6                                    |=.d.            |      [33]: "2002-10-27T04:00:22Z" (1035691222) transition_time 0xb0-0xb3.7 (4)
0x0b0|            3e 8f b4 66                        |    >..f        |      [34]: "2003-04-06T05:00:22Z" (1049605222) transition_time 0xb4-0xb7.7 (4)
0x0b0|                        3f 9b 46 d6            |        ?.F.    |      [35]: "2003-10-26T04:00:22Z" (1067140822) transition_time 0xb8-0xbb.7 (4)
0x0b0|                                    40 6f 96 66|            @o.f|      [36]: "2004-04-04T05:00:22Z" (1081054822) transition_time 0xbc-0xbf.7 (4)
0x0c0|41 84 63 56                                    |A.cV            |      [37]: "2004-10-31T04:00:22Z" (1099195222) transition_time 0xc0-0xc3.7 (4)
0x0c0|            42 4f 78 66                        |    BOxf        |      [38]: "2005-04-03T05:00:22Z" (1112504422) transition_time 0xc4-0xc7.7 (4)
0x0c0|                        43 64 45 56            |        CdEV    |      [39]: "2005-10-30T04:00:22Z" (1130644822) transition_time 0xc8-0xcb.7 (4)
0x0c0|                                    44 2f 5a 67|            D/Zg|      [40]: "2006-04-02T05:00:23Z" (1143954023) transition_time 0xcc-0xcf.7 (4)
0x0d0|45 44 27 57                                    |ED'W            |      [41]: "2006-10-29T04:00:23Z" (1162094423) transition_time 0xd0-0xd3.7 (4)
0x0d0|            45 f3 8c e7                        |    E...        |      [42]: "2007-03-11T05:00:23Z" (1173589223) transition_time 0xd4-0xd7.7 (4)
0x0d0|                        47 2d 43 d7            |        G-C.    |      [43]: "2007-11-04T04:00:23Z" (1194148823) transition_time 0xd8-0xdb.7 (4)
0x0d0|                                    47 d3 6e e7|            G.n.|      [44]: "2008-03-09T05:00:23Z" (1205038823) transition_time 0xdc-0xdf.7 (4)
0x0e0|49 0d 25 d7                                    |I.%.            |      [45]: "2008-11-02T04:00:23Z" (1225598423) transition_time 0xe0-0xe3.7 (4)
0x0e0|            49 b3 50 e8                        |    I.P.        |      [46]: "2009-03-08T05:00:24Z" (1236488424) transition_time 0xe4-0xe7.7 (4)
0x0e0|                        4a ed 07 d8            |        J...    |      [47]: "2009-11-01T04:00:24Z" (1257048024) transition_time 0xe8-0xeb.7 (4)
0x0e0|                                    4b 9c 6d 68|            K.mh|      [48]: "2010-03-14T05:00:24Z" (1268542824) transition_time 0xec-0xef.7 (4)
0x0f0|4c d6 24 58                                    |L.$X            |      [49]: "2010-11-07T04:00:24Z" (1289102424) transition_time 0xf0-0xf3.7 (4)
0x0f0|            4d 7c 4f 68                        |    M|Oh        |      [50]: "2011-03-13T05:00:24Z" (1299992424) transition_time 0xf4-0xf7.7 (4)
0x0f0|                        4e b6 06 58            |        N..X    |      [51]: "2011-11-06T04:00:24Z" (1320552024) transition_time 0xf8-0xfb.7 (4)
0x0f0|                                    4f 5c 31 68|            O\1h|      [52]: "2012-03-11T05:00:24Z" (1331442024) transition_time 0xfc-0xff.7 (4)
0x100|50 95 e8 59                                    |P..Y            |      [53]: "2012-11-04T04:00:25Z" (1352001625) transition_time 0x100-0x103.7 (4)
0x100|            51 3c 13 69                        |    Q<.i        |      [54]: "2013-03-10T05:00:25Z" (1362891625) transition_time 0x104-0x107.7 (4)
0x100|                        52 75 ca 59            |        Ru.Y    |      [55]: "2013-11-03T04:00:25Z" (1383451225) transition_time 0x108-0x10b.7 (4)
0x100|                                    53 1b f5 69|            S..i|      [56]: "2014-03-09T05:00:25Z" (1394341225) transition_time 0x10c-0x10f.7 (4)
0x110|54 55 ac 59                                    |TU.Y            |      [57]: "2014-11-02T04:00:25Z" (1414900825) transition_time 0x110-0x113.7 (4)
0x110|            54 fb d7 69                        |    T..i        |      [58]: "2015-03-08T05:00:25Z" (1425790825) transition_time 0x114-0x117.7 (4)
0x110|                        56 35 8e 5a            |        V5.Z    |      [59]: "2015-11-01T04:00:26Z" (1446350426) transition_time 0x118-0x11b.7 (4)
0x110|                                    56 e4 f3 ea|            V...|      [60]: "2016-03-13T05:00:26Z" (1457845226) transition_time 0x11c-0x11f.7 (4)
0x120|58 1e aa da                                    |X...            |      [61]: "2016-11-06T04:00:26Z" (1478404826) transition_time 0x120-0x123.7 (4)
0x120|            58 c4 d5 eb                        |    X...        |      [62]: "2017-03-12T05:00:27Z" (1489294827) transition_time 0x124-0x127.7 (4)
0x120|                        59 fe 8c db            |        Y...    |      [63]: "2017-11-05T04:00:27Z" (1509854427) transition_time 0x128-0x12b.7 (4)
0x120|                                    5a a4 b7 eb|            Z...|      [64]: "2018-03-11T05:00:27Z" (1520744427) transition_time 0x12c-0x12f.7 (4)
0x130|5b de 6e db                                    |[.n.            |      [65]: "2018-11-04T04:00:27Z" (1541304027) transition_time 0x130-0x133.7 (4)
0x130|            5c 84 99 eb                        |    \...        |      [66]: "2019-03-10T05:00:27Z" (1552194027) transition_time 0x134-0x137.7 (4)
0x130|                        5d be 50 db            |        ].P.    |      [67]: "2019-11-03T04:00:27Z" (1572753627) transition_time 0x138-0x13b.7 (4)
0x130|                                    5e 64 7b eb|            ^d{.|      [68]: "2020-03-08T05:00:27Z" (1583643627) transition_time 0x13c-0x13f.7 (4)
0x140|5f 9e 32 db                                    |_.2.            |      [69]: "2020-11-01T04:00:27Z" (1604203227) transition_time 0x140-0x143.7 (4)
0x140|            60 4d 98 6b                        |    `M.k        |      [70]: "2021-03-14T05:00:27Z" (1615698027) transition_time 0x144-0x147.7 (4)
0x140|                        61 87 4f 5b            |        a.O[    |      [71]: "2021-11-07T04:00:27Z" (1636257627) transition_time 0x148-0x14b.7 (4)
0x140|                                    62 2d 7a 6b|            b-zk|      [72]: "2022-03-13T05:00:27Z" (1647147627) transition_time 0x14c-0x14f.7 (4)
0x150|63 67 31 5b                                    |cg1[            |      [73]: "2022-11-06T04:00:27Z" (1667707227) transition_time 0x150-0x153.7 (4)
0x150|            64 0d 5c 6b                        |    d.\k        |      [74]: "2023-03-12T05:00:27Z" (1678597227) transition_time 0x154-0x157.7 (4)
0x150|                        64 9b 78 1b            |        d.x.    |      [75]: "2023-06-28T00:00:27Z" (1687910427) transition_time 0x158-0x15b.7 (4)
     |                                               |                |    transition_types[0:76]: 0x15c-0x1a7.7 (76)
0x150|                                    01         |            .   |      [0]: 1 transition_type 0x15c-0x15c.7 (1)
0x150|                                       02      |             .  |      [1]: 2 transition_type 0x15d-0x15d.7 (1)
0x150|                                          03   |              . |      [2]: 3 transition_type 0x15e-0x15e.7 (1)
0x150|                                             02|               .|      [3]: 2 transition_type 0x15f-0x15f.7 (1)
0x160|03                                             |.               |      [4]: 3 transition_type 0x160-0x160.7 (1)
0x160|   02                                          | .              |      [5]: 2 transition_type 0x161-0x161.7 (1)
0x160|      03                                       |  .             |      [6]: 3 transition_type 0x162-0x162.7 (1)
0x160|         02                                    |   .            |      [7]: 2 transition_type 0x163-0x163.7 (1)
0x160|            03                                 |    .           |      [8]: 3 transition_type 0x164-0x164.7 (1)
0x160|               02                              |     .          |      [9]: 2 transition_type 0x165-0x165.7 (1)
0x160|                  03                           |      .         |      [10]: 3 transition_type 0x166-0x166.7 (1)
0x160|                     02                        |       .        |      [11]: 2 transition_type 0x167-0x167.7 (1)
0x160|                        03                     |        .       |      [12]: 3 transition_type 0x168-0x168.7 (1)
0x160|                           02                  |         .      |      [13]: 2 transition_type 0x169-0x169.7 (1)
0x160|                              03               |          .     |      [14]: 3 transition_type 0x16a-0x16a.7 (1)
0x160|                                 02            |           .    |      [15]: 2 transition_type 0x16b-0x16b.7 (1)
0x160|                                    03         |            .   |      [16]: 3 transition_type 0x16c-0x16c.7 (1)
0x160|                                       02      |             .  |      [17]: 2 transition_type 0x16d-0x16d.7 (1)
0x160|                                          03   |              . |      [18]: 3 transition_type 0x16e-0x16e.7 (1)
0x160|                                             02|               .|      [19]: 2 transition_type 0x16f-0x16f.7 (1)
0x170|03                                             |.               |      [20]: 3 transition_type 0x170-0x170.7 (1)
0x170|   02                                          | .              |      [21]: 2 transition_type 0x171-0x171.7 (1)
0x170|      03                                       |  .             |      [22]: 3 transition_type 0x172-0x172.7 (1)
0x170|         02                                    |   .            |      [23]: 2 transition_type 0x173-0x173.7 (1)
0x170|            03                                 |    .           |      [24]: 3 transition_type 0x174-0x174.7 (1)
0x170|               02                              |     .          |      [25]: 2 transition_type 0x175-0x175.7 (1)
0x170|                  03                           |      .         |      [26]: 3 transition_type 0x176-0x176.7 (1)
0x170|                     02                        |       .        |      [27]: 2 transition_type 0x177-0x177.7 (1)
0x170|                        03                     |        .       |      [28]: 3 transition_type 0x178-0x178.7 (1)
0x170|                           02                  |         .      |      [29]: 2 transition_type 0x179-0x179.7 (1)
0x170|                              03               |          .     |      [30]: 3 transition_type 0x17a-0x17a.7 (1)
0x170|                                 02            |           .    |      [31]: 2 transition_type 0x17b-0x17b.7 (1)
0x170|                                    03         |            .   |      [32]: 3 transition_type 0x17c-0x17c.7 (1)
0x170|                                       02      |             .  |      [33]: 2 transition_type 0x17d-0x17d.7 (1)
0x170|                                          03   |              . |      [34]: 3 transition_type 0x17e-0x17e.7 (1)
0x170|                                             02|               .|      [35]: 2 transition_type 0x17f-0x17f.7 (1)
0x180|03                                             |.               |      [36]: 3 transition_type 0x180-0x180.7 (1)
0x180|   02                                          | .              |      [37]: 2 transition_type 0x181-0x181.7 (1)
0x180|      03                                       |  .             |      [38]: 3 transition_type 0x182-0x182.7 (1)
0x180|         02                                    |   .            |      [39]: 2 transition_type 0x183-0x183.7 (1)
0x180|            03                                 |    .           |      [40]: 3 transition_type 0x184-0x184.7 (1)
0x180|               02                              |     .          |      [41]: 2 transition_type 0x185-0x185.7 (1)
0x180|                  03                           |      .         |      [42]: 3 transition_type 0x186-0x186.7 (1)
0x180|                     02                        |       .        |      [43]: 2 transition_type 0x187-0x187.7 (1)
0x180|                        03                     |        .       |      [44]: 3 transition_type 0x188-0x188.7 (1)
0x180|                           02                  |         .      |      [45]: 2 transition_type 0x189-0x189.7 (1)
0x180|                              03               |          .     |      [46]: 3 transition_type 0x18a-0x18a.7 (1)
0x180|                                 02            |           .    |      [47]: 2 transition_type 0x18b-0x18b.7 (1)
0x180|                                    03         |            .   |      [48]: 3 transition_type 0x18c-0x18c.7 (1)
0x180|                                       02      |             .  |      [49]: 2 transition_type 0x18d-0x18d.7 (1)
0x180|                                          03   |              . |      [50]: 3 transition_type 0x18e-0x18e.7 (1)
0x180|                                             02|               .|      [51]: 2 transition_type 0x18f-0x18f.7 (1)
0x190|03                                             |.               |      [52]: 3 transition_type 0x190-0x190.7 (1)
0x190|   02                                          | .              |      [53]: 2 transition_type 0x191-0x191.7 (1)
0x190|      03                                       |  .             |      [54]: 3 transition_type 0x192-0x192.7 (1)
0x190|         02                                    |   .            |      [55]: 2 transition_type 0x193-0x193.7 (1)
0x190|            03                                 |    .           |      [56]: 3 transition_type 0x194-0x194.7 (1)
0x190|               02                              |     .          |      [57]: 2 transition_type 0x195-0x195.7 (1)
0x190|                  03                           |      .         |      [58]: 3 transition_type 0x196-0x196.7 (1)
0x190|                     02                        |       .        |      [59]: 2 transition_type 0x197-0x197.7 (1)
0x190|                        03                     |        .       |      [60]: 3 transition_type 0x198-0x198.7 (1)
0x190|                           02                  |         .      |      [61]: 2 transition_type 0x199-0x199.7 (1)
0x190|                              03               |          .     |      [62]: 3 transition_type 0x19a-0x19a.7 (1)
0x190|                                 02            |           .    |      [63]: 2 transition_type 0x19b-0x19b.7 (1)
0x190|                                    03         |            .   |      [64]: 3 transition_type 0x19c-0x19c.7 (1)
0x190|                                       02      |             .  |      [65]: 2 transition_type 0x19d-0x19d.7 (1)
0x190|                                          03   |              . |      [66]: 3 transition_type 0x19e-0x19e.7 (1)
0x190|                                             02|               .|      [67]: 2 transition_type 0x19f-0x19f.7 (1)
0x1a0|03                                             |.               |      [68]: 3 transition_type 0x1a0-0x1a0.7 (1)
0x1a0|   02                                          | .              |      [69]: 2 transition_type 0x1a1-0x1a1.7 (1)
0x1a0|      03                                       |  .             |      [70]: 3 transition_type 0x1a2-0x1a2.7 (1)
0x1a0|         02                                    |   .            |      [71]: 2 transition_type 0x1a3-0x1a3.7 (1)
0x1a0|            03                                 |    .           |      [72]: 3 transition_type 0x1a4-0x1a4.7 (1)
0x1a0|               02                              |     .          |      [73]: 2 transition_type 0x1a5-0x1a5.7 (1)
0x1a0|                  03                           |      .         |      [74]: 3 transition_type 0x1a6-0x1a6.7 (1)
0x1a0|                     03                        |       .        |      [75]: 3 transition_type 0x1a7-0x1a7.7 (1)
     |                                               |                |    local_time_type_records[0:4]: 0x1a8-0x1bf.7 (24)
     |                                               |                |      [0]{}: local_time_type 0x1a8-0x1ad.7 (6)
0x1a0|                        ff ff cb 58            |        ...X    |        utoff: -13480 (valid) 0x1a8-0x1ab.7 (4)
0x1a0|                                    00         |            .   |        dst: 0 (valid) 0x1ac-0x1ac.7 (1)
0x1a0|                                       00      |             .  |        idx: 0 (valid) 0x1ad-0x1ad.7 (1)
     |                                               |                |      [1]{}: local_time_type 0x1ae-0x1b3.7 (6)
0x1a0|                                          ff ff|              ..|        utoff: -14400 (valid) 0x1ae-0x1b1.7 (4)
0x1b0|c7 c0                                          |..              |
0x1b0|      00                                       |  .             |        dst: 0 (valid) 0x1b2-0x1b2.7 (1)
0x1b0|         04                                    |   .            |        idx: 4 (valid) 0x1b3-0x1b3.7 (1)
     |                                               |                |      [2]{}: local_time_type 0x1b4-0x1b9.7 (6)
0x1b0|            ff ff d5 d0                        |    ....        |        utoff: -10800 (valid) 0x1b4-0x1b7.7 (4)
0x1b0|                        00                     |        .       |        dst: 0 (valid) 0x1b8-0x1b8.7 (1)
0x1b0|                           08                  |         .      |        idx: 8 (valid) 0x1b9-0x1b9.7 (1)
     |                                               |                |      [3]{}: local_time_type 0x1ba-0x1bf.7 (6)
0x1b0|                              ff ff e3 e0      |          ....  |        utoff: -7200 (valid) 0x1ba-0x1bd.7 (4)
0x1b0|                                          01   |              . |        dst: 1 (valid) 0x1be-0x1be.7 (1)
0x1b0|                                             0c|               .|        idx: 12 (valid) 0x1bf-0x1bf.7 (1)
     |                                               |                |    time_zone_designations[0:4]: 0x1c0-0x1cf.7 (16)
0x1c0|4c 4d 54 00                                    |LMT.            |      [0]: "LMT" time_zone_designation 0x1c0-0x1c3.7 (4)
0x1c0|            41 53 54 00                        |    AST.        |      [1]: "AST" time_zone_designation 0x1c4-0x1c7.7 (4)
0x1c0|                        2d 30 33 00            |        -03.    |      [2]: "-03" time_zone_designation 0x1c8-0x1cb.7 (4)
0x1c0|                                    2d 30 32 00|            -02.|      [3]: "-02" time_zone_designation 0x1cc-0x1cf.7 (4)
     |                                               |                |    leap_second_records[0:27]: 0x1d0-0x2a7.7 (216)
     |                                               |                |      [0]{}: leap_second_record 0x1d0-0x1d7.7 (8)
0x1d0|04 b2 58 00                                    |..X.            |        occur: "1972-07-01T00:00:00Z" (78796800) 0x1d0-0x1d3.7 (4)
0x1d0|            00 00 00 01                        |    ....        |        corr: 1 0x1d4-0x1d7.7 (4)
     |                                               |                |      [1]{}: leap_second_record 0x1d8-0x1df.7 (8)
0x1d0|                        05 a4 ec 01            |        ....    |        occur: "1973-01-01T00:00:01Z" (94694401) 0x1d8-0x1db.7 (4)
0x1d0|                                    00 00 00 02|            ....|        corr: 2 0x1dc-0x1df.7 (4)
     |                                               |                |      [2]{}: leap_second_record 0x1e0-0x1e7.7 (8)
0x1e0|07 86 1f 82                                    |....            |        occur: "1974-01-01T00:00:02Z" (126230402) 0x1e0-0x1e3.7 (4)
0x1e0|            00 00 00 03                        |    ....        |        corr: 3 0x1e4-0x1e7.7 (4)
     |                                               |                |      [3]{}: leap_second_record 0x1e8-0x1ef.7 (8)
0x1e0|                        09 67 53 03            |        .gS.    |        occur: "1975-01-01T00:00:03Z" (157766403) 0x1e8-0x1eb.7 (4)
0x1e0|                                    00 00 00 04|            ....|        corr: 4 0x1ec-0x1ef.7 (4)
     |                                               |                |      [4]{}: leap_second_record 0x1f0-0x1f7.7 (8)
0x1f0|0b 48 86 84                                    |.H..            |        occur: "1976-01-01T00:00:04Z" (189302404) 0x1f0-0x1f3.7 (4)
0x1f0|            00 00 00 05                        |    ....        |        corr: 5 0x1f4-0x1f7.7 (4)
     |                                               |                |      [5]{}: leap_second_record 0x1f8-0x1ff.7 (8)
0x1f0|                        0d 2b 0b 85            |        .+..    |        occur: "1977-01-01T00:00:05Z" (220924805) 0x1f8-0x1fb.7 (4)
0x1f0|                                    00 00 00 06|            ....|        corr: 6 0x1fc-0x1ff.7 (4)
     |                                               |                |      [6]{}: leap_second_record 0x200-0x207.7 (8)
0x200|0f 0c 3f 06                                    |..?.            |        occur: "1978-01-01T00:00:06Z" (252460806) 0x200-0x203.7 (4)
0x200|            00 00 00 07                        |    ....        |        corr: 7 0x204-0x207.7 (4)
     |                                               |                |      [7]{}: leap_second_record 0x208-0x20f.7 (8)
0x200|                        10 ed 72 87            |        ..r.    |        occur: "1979-01-01T00:00:07Z" (283996807) 0x208-0x20b.7 (4)
0x200|                                    00 00 00 08|            ....|        corr: 8 0x20c-0x20f.7 (4)
     |                                               |                |      [8]{}: leap_second_record 0x210-0x217.7 (8)
0x210|12 ce a6 08                                    |....            |        occur: "1980-01-01T00:00:08Z" (315532808) 0x210-0x213.7 (4)
0x210|            00 00 00 09                        |    ....        |        corr: 9 0x214-0x217.7 (4)
     |                                               |                |      [9]{}: leap_second_record 0x218-0x21f.7 (8)
0x210|                        15 9f ca 89            |        ....    |        occur: "1981-07-01T00:00:09Z" (362793609) 0x218-0x21b.7 (4)
0x210|                                    00 00 00 0a|            ....|        corr: 10 0x21c-0x21f.7 (4)
     |                                               |                |      [10]{}: leap_second_record 0x220-0x227.7 (8)
0x220|17 80 fe 0a                                    |....            |        occur: "1982-07-01T00:00:10Z" (394329610) 0x220-0x223.7 (4)
0x220|            00 00 00 0b                        |    ....        |        corr: 11 0x224-0x227.7 (4)
     |                                               |                |      [11]{}: leap_second_record 0x228-0x22f.7 (8)
0x220|                        19 62 31 8b            |        .b1.    |        occur: "1983-07-01T00:00:11Z" (425865611) 0x228-0x22b.7 (4)
0x220|                                    00 00 00 0c|            ....|        corr: 12 0x22c-0x22f.7 (4)
     |                                               |                |      [12]{}: leap_second_record 0x230-0x237.7 (8)
0x230|1d 25 ea 0c                                    |.%..            |        occur: "1985-07-01T00:00:12Z" (489024012) 0x230-0x233.7 (4)
0x230|            00 00 00 0d                        |    ....        |        corr: 13 0x234-0x237.7 (4)
     |                                               |                |      [13]{}: leap_second_record 0x238-0x23f.7 (8)
0x230|                        21 da e5 0d            |        !...    |        occur: "1988-01-01T00:00:13Z" (567993613) 0x238-0x23b.7 (4)
0x230|                                    00 00 00 0e|            ....|        corr: 14 0x23c-0x23f.7 (4)
     |                                               |                |      [14]{}: leap_second_record 0x240-0x247.7 (8)
0x240|25 9e 9d 8e                                    |%...            |        occur: "1990-01-01T00:00:14Z" (631152014) 0x240-0x243.7 (4)
0x240|            00 00 00 0f                        |    ....        |        corr: 15 0x244-0x247.7 (4)
     |                                               |                |      [15]{}: leap_second_record 0x248-0x24f.7 (8)
0x240|                        27 7f d1 0f            |        '...    |        occur: "1991-01-01T00:00:15Z" (662688015) 0x248-0x24b.7 (4)
0x240|                                    00 00 00 10|            ....|        corr: 16 0x24c-0x24f.7 (4)
     |                                               |                |      [16]{}: leap_second_record 0x250-0x257.7 (8)
0x250|2a 50 f5 90                                    |*P..            |        occur: "1992-07-01T00:00:16Z" (709948816) 0x250-0x253.7 (4)
0x250|            00 00 00 11                        |    ....        |        corr: 17 0x254-0x257.7 (4)
     |                                               |                |      [17]{}: leap_second_record 0x258-0x25f.7 (8)
0x250|                        2c 32 29 11            |        ,2).    |        occur: "1993-07-01T00:00:17Z" (741484817) 0x258-0x25b.7 (4)
0x250|                                    00 00 00 12|            ....|        corr: 18 0x25c-0x25f.7 (4)
     |                                               |                |      [18]{}: leap_second_record 0x260-0x267.7 (8)
0x260|2e 13 5c 92                                    |..\.            |        occur: "1994-07-01T00:00:18Z" (773020818) 0x260-0x263.7 (4)
0x260|            00 00 00 13                        |    ....        |        corr: 19 0x264-0x267.7 (4)
     |                                               |                |      [19]{}: leap_second_record 0x268-0x26f.7 (8)
0x260|                        30 e7 24 13            |        0.$.    |        occur: "1996-01-01T00:00:19Z" (820454419) 0x268-0x26b.7 (4)
0x260|                                    00 00 00 14|            ....|        corr: 20 0x26c-0x26f.7 (4)
     |                                               |                |      [20]{}: leap_second_record 0x270-0x277.7 (8)
0x270|33 b8 48 94                                    |3.H.            |        occur: "1997-07-01T00:00:20Z" (867715220) 0x270-0x273.7 (4)
0x270|            00 00 00 15                        |    ....        |        corr: 21 0x274-0x277.7 (4)
     |                                               |                |      [21]{}: leap_second_record 0x278-0x27f.7 (8)
0x270|                        36 8c 10 15            |        6...    |        occur: "1999-01-01T00:00:21Z" (915148821) 0x278-0x27b.7 (4)
0x270|                                    00 00 00 16|            ....|        corr: 22 0x27c-0x27f.7 (4)
     |                                               |                |      [22]{}: leap_second_record 0x280-0x287.7 (8)
0x280|43 b7 1b 96                                    |C...            |        occur: "2006-01-01T00:00:22Z" (1136073622) 0x280-0x283.7 (4)
0x280|            00 00 00 17                        |    ....        |        corr: 23 0x284-0x287.7 (4)
     |                                               |                |      [23]{}: leap_second_record 0x288-0x28f.7 (8)
0x280|                        49 5c 07 97            |        I\..    |        occur: "2009-01-01T00:00:23Z" (1230768023) 0x288-0x28b.7 (4)
0x280|                                    00 00 00 18|            ....|        corr: 24 0x28c-0x28f.7 (4)
     |                                               |                |      [24]{}: leap_second_record 0x290-0x297.7 (8)
0x290|4f ef 93 18                                    |O...            |        occur: "2012-07-01T00:00:24Z" (1341100824) 0x290-0x293.7 (4)
0x290|            00 00 00 19                        |    ....        |        corr: 25 0x294-0x297.7 (4)
     |                                               |                |      [25]{}: leap_second_record 0x298-0x29f.7 (8)
0x290|                        55 93 2d 99            |        U.-.    |        occur: "2015-07-01T00:00:25Z" (1435708825) 0x298-0x29b.7 (4)
0x290|                                    00 00 00 1a|            ....|        corr: 26 0x29c-0x29f.7 (4)
     |                                               |                |      [26]{}: leap_second_record 0x2a0-0x2a7.7 (8)
0x2a0|58 68 46 9a                                    |XhF.            |        occur: "2017-01-01T00:00:26Z" (1483228826) 0x2a0-0x2a3.7 (4)
0x2a0|            00 00 00 1b                        |    ....        |        corr: 27 0x2a4-0x2a7.7 (4)
     |                                               |                |    standard_wall_indicators[0:0]: 0x2a8-NA (0)
     |                                               |                |    ut_local_indicators[0:0]: 0x2a8-NA (0)
     |                                               |                |  v2plusheader{}: 0x2a8-0x2d3.7 (44)
0x2a0|                        54 5a 69 66            |        TZif    |    magic: 0x545a6966 (valid) 0x2a8-0x2ab.7 (4)
0x2a0|                                    32         |            2   |    ver: "2" (0x32) (valid) 0x2ac-0x2ac.7 (1)
0x2a0|                                       00 00 00|             ...|    reserved: raw bits 0x2ad-0x2bb.7 (15)
0x2b0|00 00 00 00 00 00 00 00 00 00 00 00            |............    |
0x2b0|                                    00 00 00 00|            ....|    isutcnt: 0 0x2bc-0x2bf.7 (4)
0x2c0|00 00 00 00                                    |....            |    isstdcnt: 0 0x2c0-0x2c3.7 (4)
0x2c0|            00 00 00 1b                        |    ....        |    leapcnt: 27 0x2c4-0x2c7.7 (4)
0x2c0|                        00 00 00 4c            |        ...L    |    timecnt: 76 0x2c8-0x2cb.7 (4)
0x2c0|                                    00 00 00 04|            ....|    typecnt: 4 0x2cc-0x2cf.7 (4)
0x2d0|00 00 00 10                                    |....            |    charcnt: 16 0x2d0-0x2d3.7 (4)
     |                                               |                |  v2plusdatablock{}: 0x2d4-0x6eb.7 (1048)
     |                                               |                |    transition_times[0:76]: 0x2d4-0x533.7 (608)
0x2d0|            ff ff ff ff 91 b6 38 a8            |    ......8.    |      [0]: "1911-05-15T03:44:40Z" (-1850328920) transition_time 0x2d4-0x2db.7 (8)
0x2d0|                                    00 00 00 00|            ....|      [1]: "1980-05-01T04:00:09Z" (326001609) transition_time 0x2dc-0x2e3.7 (8)
0x2e0|13 6e 63 c9                                    |.nc.            |
0x2e0|            00 00 00 00 20 75 e4 dd            |    .... u..    |      [2]: "1987-04-05T05:00:13Z" (544597213) transition_time 0x2e4-0x2eb.7 (8)
0x2e0|                                    00 00 00 00|            ....|      [3]: "1987-10-25T04:00:13Z" (562132813) transition_time 0x2ec-0x2f3.7 (8)
0x2f0|21 81 77 4d                                    |!.wM            |
0x2f0|            00 00 00 00 22 55 c6 de            |    ...."U..    |      [4]: "1988-04-03T05:00:14Z" (576046814) transition_time 0x2f4-0x2fb.7 (8)
0x2f0|                                    00 00 00 00|            ....|      [5]: "1988-10-30T04:00:14Z" (594187214) transition_time 0x2fc-0x303.7 (8)
0x300|23 6a 93 ce                                    |#j..            |
0x300|            00 00 00 00 24 35 a8 de            |    ....$5..    |      [6]: "1989-04-02T05:00:14Z" (607496414) transition_time 0x304-0x30b.7 (8)
0x300|                                    00 00 00 00|            ....|      [7]: "1989-10-29T04:00:14Z" (625636814) transition_time 0x30c-0x313.7 (8)
0x310|25 4a 75 ce                                    |%Ju.            |
0x310|            00 00 00 00 26 15 8a df            |    ....&...    |      [8]: "1990-04-01T05:00:15Z" (638946015) transition_time 0x314-0x31b.7 (8)
0x310|                                    00 00 00 00|            ....|      [9]: "1990-10-28T04:00:15Z" (657086415) transition_time 0x31c-0x323.7 (8)
0x320|27 2a 57 cf                                    |'*W.            |
0x320|            00 00 00 00 27 fe a7 60            |    ....'..`    |      [10]: "1991-04-07T05:00:16Z" (671000416) transition_time 0x324-0x32b.7 (8)
0x320|                                    00 00 00 00|            ....|      [11]: "1991-10-27T04:00:16Z" (688536016) transition_time 0x32c-0x333.7 (8)
0x330|29 0a 39 d0                                    |).9.            |
0x330|            00 00 00 00 29 de 89 60            |    ....)..`    |      [12]: "1992-04-05T05:00:16Z" (702450016) transition_time 0x334-0x33b.7 (8)
0x330|                                    00 00 00 00|            ....|      [13]: "1992-10-25T04:00:17Z" (719985617) transition_time 0x33c-0x343.7 (8)
0x340|2a ea 1b d1                                    |*...            |
0x340|            00 00 00 00 2b be 6b 61            |    ....+.ka    |      [14]: "1993-04-04T05:00:17Z" (733899617) transition_time 0x344-0x34b.7 (8)
0x340|                                    00 00 00 00|            ....|      [15]: "1993-10-31T04:00:18Z" (752040018) transition_time 0x34c-0x353.7 (8)
0x350|2c d3 38 52                                    |,.8R            |
0x350|            00 00 00 00 2d 9e 4d 62            |    ....-.Mb    |      [16]: "1994-04-03T05:00:18Z" (765349218) transition_time 0x354-0x35b.7 (8)
0x350|                                    00 00 00 00|            ....|      [17]: "1994-10-30T04:00:19Z" (783489619) transition_time 0x35c-0x363.7 (8)
0x360|2e b3 1a 53                                    |...S            |
0x360|            00 00 00 00 2f 7e 2f 63            |    ..../~/c    |      [18]: "1995-04-02T05:00:19Z" (796798819) transition_time 0x364-0x36b.7 (8)
0x360|                                    00 00 00 00|            ....|      [19]: "1995-10-29T04:00:19Z" (814939219) transition_time 0x36c-0x373.7 (8)
0x370|30 92 fc 53                                    |0..S            |
0x370|            00 00 00 00 31 67 4b e4            |    ....1gK.    |      [20]: "1996-04-07T05:00:20Z" (828853220) transition_time 0x374-0x37b.7 (8)
0x370|                                    00 00 00 00|            ....|      [21]: "1996-10-27T04:00:20Z" (846388820) transition_time 0x37c-0x383.7 (8)
0x380|32 72 de 54                                    |2r.T            |
0x380|            00 00 00 00 33 47 2d e4            |    ....3G-.    |      [22]: "1997-04-06T05:00:20Z" (860302820) transition_time 0x384-0x38b.7 (8)
0x380|                                    00 00 00 00|            ....|      [23]: "1997-10-26T04:00:21Z" (877838421) transition_time 0x38c-0x393.7 (8)
0x390|34 52 c0 55                                    |4R.U            |
0x390|            00 00 00 00 35 27 0f e5            |    ....5'..    |      [24]: "1998-04-05T05:00:21Z" (891752421) transition_time 0x394-0x39b.7 (8)
0x390|                                    00 00 00 00|            ....|      [25]: "1998-10-25T04:00:21Z" (909288021) transition_time 0x39c-0x3a3.7 (8)
0x3a0|36 32 a2 55                                    |62.U            |
0x3a0|            00 00 00 00 37 06 f1 e6            |    ....7...    |      [26]: "1999-04-04T05:00:22Z" (923202022) transition_time 0x3a4-0x3ab.7 (8)
0x3a0|                                    00 00 00 00|            ....|      [27]: "1999-10-31T04:00:22Z" (941342422) transition_time 0x3ac-0x3b3.7 (8)
0x3b0|38 1b be d6                                    |8...            |
0x3b0|            00 00 00 00 38 e6 d3 e6            |    ....8...    |      [28]: "2000-04-02T05:00:22Z" (954651622) transition_time 0x3b4-0x3bb.7 (8)
0x3b0|                                    00 00 00 00|            ....|      [29]: "2000-10-29T04:00:22Z" (972792022) transition_time 0x3bc-0x3c3.7 (8)
0x3c0|39 fb a0 d6                                    |9...            |
0x3c0|            00 00 00 00 3a c6 b5 e6            |    ....:...    |      [30]: "2001-04-01T05:00:22Z" (986101222) transition_time 0x3c4-0x3cb.7 (8)
0x3c0|                                    00 00 00 00|            ....|      [31]: "2001-10-28T04:00:22Z" (1004241622) transition_time 0x3cc-0x3d3.7 (8)
0x3d0|3b db 82 d6                                    |;...            |
0x3d0|            00 00 00 00 3c af d2 66            |    ....<..f    |      [32]: "2002-04-07T05:00:22Z" (1018155622) transition_time 0x3d4-0x3db.7 (8)
0x3d0|                                    00 00 00 00|            ....|      [33]: "2002-10-27T04:00:22Z" (1035691222) transition_time 0x3dc-0x3e3.7 (8)
0x3e0|3d bb 64 d6                                    |=.d.            |
0x3e0|            00 00 00 00 3e 8f b4 66            |    ....>..f    |      [34]: "2003-04-06T05:00:22Z" (1049605222) transition_time 0x3e4-0x3eb.7 (8)
0x3e0|                                    00 00 00 00|            ....|      [35]: "2003-10-26T04:00:22Z" (1067140822) transition_time 0x3ec-0x3f3.7 (8)
0x3f0|3f 9b 46 d6                                    |?.F.            |
0x3f0|            00 00 00 00 40 6f 96 66            |    ....@o.f    |      [36]: "2004-04-04T05:00:22Z" (1081054822) transition_time 0x3f4-0x3fb.7 (8)
0x3f0|                                    00 00 00 00|            ....|      [37]: "2004-10-31T04:00:22Z" (1099195222) transition_time 0x3fc-0x403.7 (8)
0x400|41 84 63 56                                    |A.cV            |
0x400|            00 00 00 00 42 4f 78 66            |    ....BOxf    |      [38]: "2005-04-03T05:00:22Z" (1112504422) transition_time 0x404-0x40b.7 (8)
0x400|                                    00 00 00 00|            ....|      [39]: "2005-10-30T04:00:22Z" (1130644822) transition_time 0x40c-0x413.7 (8)
0x410|43 64 45 56                                    |CdEV            |
0x410|            00 00 00 00 44 2f 5a 67            |    ....D/Zg    |      [40]: "2006-04-02T05:00:23Z" (1143954023) transition_time 0x414-0x41b.7 (8)
0x410|                                    00 00 00 00|            ....|      [41]: "2006-10-29T04:00:23Z" (1162094423) transition_time 0x41c-0x423.7 (8)
0x420|45 44 27 57                                    |ED'W            |
0x420|            00 00 00 00 45 f3 8c e7            |    ....E...    |      [42]: "2007-03-11T05:00:23Z" (1173589223) transition_time 0x424-0x42b.7 (8)
0x420|                                    00 00 00 00|            ....|      [43]: "2007-11-04T04:00:23Z" (1194148823) transition_time 0x42c-0x433.7 (8)
0x430|47 2d 43 d7                                    |G-C.            |
0x430|            00 00 00 00 47 d3 6e e7            |    ....G.n.    |      [44]: "2008-03-09T05:00:23Z" (1205038823) transition_time 0x434-0x43b.7 (8)
0x430|                                    00 00 00 00|            ....|      [45]: "2008-11-02T04:00:23Z" (1225598423) transition_time 0x43c-0x443.7 (8)
0x440|49 0d 25 d7                                    |I.%.            |
0x440|            00 00 00 00 49 b3 50 e8            |    ....I.P.    |      [46]: "2009-03-08T05:00:24Z" (1236488424) transition_time 0x444-0x44b.7 (8)
0x440|                                    00 00 00 00|            ....|      [47]: "2009-11-01T04:00:24Z" (1257048024) transition_time 0x44c-0x453.7 (8)
0x450|4a ed 07 d8                                    |J...            |
0x450|            00 00 00 00 4b 9c 6d 68            |    ....K.mh    |      [48]: "2010-03-14T05:00:24Z" (1268542824) transition_time 0x454-0x45b.7 (8)
0x450|                                    00 00 00 00|            ....|      [49]: "2010-11-07T04:00:24Z" (1289102424) transition_time 0x45c-0x463.7 (8)
0x460|4c d6 24 58                                    |L.$X            |
0x460|            00 00 00 00 4d 7c 4f 68            |    ....M|Oh    |      [50]: "2011-03-13T05:00:24Z" (1299992424) transition_time 0x464-0x46b.7 (8)
0x460|                                    00 00 00 00|            ....|      [51]: "2011-11-06T04:00:24Z" (1320552024) transition_time 0x46c-0x473.7 (8)
0x470|4e b6 06 58                                    |N..X            |
0x470|            00 00 00 00 4f 5c 31 68            |    ....O\1h    |      [52]: "2012-03-11T05:00:24Z" (1331442024) transition_time 0x474-0x47b.7 (8)
0x470|                                    00 00 00 00|            ....|      [53]: "2012-11-04T04:00:25Z" (1352001625) transition_time 0x47c-0x483.7 (8)
0x480|50 95 e8 59                                    |P..Y            |
0x480|            00 00 00 00 51 3c 13 69            |    ....Q<.i    |      [54]: "2013-03-10T05:00:25Z" (1362891625) transition_time 0x484-0x48b.7 (8)
0x480|                                    00 00 00 00|            ....|      [55]: "2013-11-03T04:00:25Z" (1383451225) transition_time 0x48c-0x493.7 (8)
0x490|52 75 ca 59                                    |Ru.Y            |
0x490|            00 00 00 00 53 1b f5 69            |    ....S..i    |      [56]: "2014-03-09T05:00:25Z" (1394341225) transition_time 0x494-0x49b.7 (8)
0x490|                                    00 00 00 00|            ....|      [57]: "2014-11-02T04:00:25Z" (1414900825) transition_time 0x49c-0x4a3.7 (8)
0x4a0|54 55 ac 59                                    |TU.Y            |
0x4a0|            00 00 00 00 54 fb d7 69            |    ....T..i    |      [58]: "2015-03-08T05:00:25Z" (1425790825) transition_time 0x4a4-0x4ab.7 (8)
0x4a0|                                    00 00 00 00|            ....|      [59]: "2015-11-01T04:00:26Z" (1446350426) transition_time 0x4ac-0x4b3.7 (8)
0x4b0|56 35 8e 5a                                    |V5.Z            |
0x4b0|            00 00 00 00 56 e4 f3 ea            |    ....V...    |      [60]: "2016-03-13T05:00:26Z" (1457845226) transition_time 0x4b4-0x4bb.7 (8)
0x4b0|                                    00 00 00 00|            ....|      [61]: "2016-11-06T04:00:26Z" (1478404826) transition_time 0x4bc-0x4c3.7 (8)
0x4c0|58 1e aa da                                    |X...            |
0x4c0|            00 00 00 00 58 c4 d5 eb            |    ....X...    |      [62]: "2017-03-12T05:00:27Z" (1489294827) transition_time 0x4c4-0x4cb.7 (8)
0x4c0|                                    00 00 00 00|            ....|      [63]: "2017-11-05T04:00:27Z" (1509854427) transition_time 0x4cc-0x4d3.7 (8)
0x4d0|59 fe 8c db                                    |Y...            |
0x4d0|            00 00 00 00 5a a4 b7 eb            |    ....Z...    |      [64]: "2018-03-11T05:00:27Z" (1520744427) transition_time 0x4d4-0x4db.7 (8)
0x4d0|                                    00 00 00 00|            ....|      [65]: "2018-11-04T04:00:27Z" (1541304027) transition_time 0x4dc-0x4e3.7 (8)
0x4e0|5b de 6e db                                    |[.n.            |
0x4e0|            00 00 00 00 5c 84 99 eb            |    ....\...    |      [66]: "2019-03-10T05:00:27Z" (1552194027) transition_time 0x4e4-0x4eb.7 (8)
0x4e0|                                    00 00 00 00|            ....|      [67]: "2019-11-03T04:00:27Z" (1572753627) transition_time 0x4ec-0x4f3.7 (8)
0x4f0|5d be 50 db                                    |].P.            |
0x4f0|            00 00 00 00 5e 64 7b eb            |    ....^d{.    |      [68]: "2020-03-08T05:00:27Z" (1583643627) transition_time 0x4f4-0x4fb.7 (8)
0x4f0|                                    00 00 00 00|            ....|      [69]: "2020-11-01T04:00:27Z" (1604203227) transition_time 0x4fc-0x503.7 (8)
0x500|5f 9e 32 db                                    |_.2.            |
0x500|            00 00 00 00 60 4d 98 6b            |    ....`M.k    |      [70]: "2021-03-14T05:00:27Z" (1615698027) transition_time 0x504-0x50b.7 (8)
0x500|                                    00 00 00 00|            ....|      [71]: "2021-11-07T04:00:27Z" (1636257627) transition_time 0x50c-0x513.7 (8)
0x510|61 87 4f 5b                                    |a.O[            |
0x510|            00 00 00 00 62 2d 7a 6b            |    ....b-zk    |      [72]: "2022-03-13T05:00:27Z" (1647147627) transition_time 0x514-0x51b.7 (8)
0x510|                                    00 00 00 00|            ....|      [73]: "2022-11-06T04:00:27Z" (1667707227) transition_time 0x51c-0x523.7 (8)
0x520|63 67 31 5b                                    |cg1[            |
0x520|            00 00 00 00 64 0d 5c 6b            |    ....d.\k    |      [74]: "2023-03-12T05:00:27Z" (1678597227) transition_time 0x524-0x52b.7 (8)
0x520|                                    00 00 00 00|            ....|      [75]: "2023-06-28T00:00:27Z" (1687910427) transition_time 0x52c-0x533.7 (8)
0x530|64 9b 78 1b                                    |d.x.            |
     |                                               |                |    transition_types[0:76]: 0x534-0x57f.7 (76)
0x530|            01                                 |    .           |      [0]: 1 transition_type 0x534-0x534.7 (1)
0x530|               02                              |     .          |      [1]: 2 transition_type 0x535-0x535.7 (1)
0x530|                  03                           |      .         |      [2]: 3 transition_type 0x536-0x536.7 (1)
0x530|                     02                        |       .        |      [3]: 2 transition_type 0x537-0x537.7 (1)
0x530|                        03                     |        .       |      [4]: 3 transition_type 0x538-0x538.7 (1)
0x530|                           02                  |         .      |      [5]: 2 transition_type 0x539-0x539.7 (1)
0x530|                              03               |          .     |      [6]: 3 transition_type 0x53a-0x53a.7 (1)
0x530|                                 02            |           .    |      [7]: 2 transition_type 0x53b-0x53b.7 (1)
0x530|                                    03         |            .   |      [8]: 3 transition_type 0x53c-0x53c.7 (1)
0x530|                                       02      |             .  |      [9]: 2 transition_type 0x53d-0x53d.7 (1)
0x530|                                          03   |              . |      [10]: 3 transition_type 0x53e-0x53e.7 (1)
0x530|                                             02|               .|      [11]: 2 transition_type 0x53f-0x53f.7 (1)
0x540|03                                             |.               |      [12]: 3 transition_type 0x540-0x540.7 (1)
0x540|   02                                          | .              |      [13]: 2 transition_type 0x541-0x541.7 (1)
0x540|      03                                       |  .             |      [14]: 3 transition_type 0x542-0x542.7 (1)
0x540|         02                                    |   .            |      [15]: 2 transition_type 0x543-0x543.7 (1)
0x540|            03                                 |    .           |      [16]: 3 transition_type 0x544-0x544.7 (1)
0x540|               02                              |     .          |      [17]: 2 transition_type 0x545-0x545.7 (1)
0x540|                  03                           |      .         |      [18]: 3 transition_type 0x546-0x546.7 (1)
0x540|                     02                        |       .        |      [19]: 2 transition_type 0x547-0x547.7 (1)
0x540|                        03                     |        .       |      [20]: 3 transition_type 0x548-0x548.7 (1)
0x540|                           02                  |         .      |      [21]: 2 transition_type 0x549-0x549.7 (1)
0x540|                              03               |          .     |      [22]: 3 transition_type 0x54a-0x54a.7 (1)
0x540|                                 02            |           .    |      [23]: 2 transition_type 0x54b-0x54b.7 (1)
0x540|                                    03         |            .   |      [24]: 3 transition_type 0x54c-0x54c.7 (1)
0x540|                                       02      |             .  |      [25]: 2 transition_type 0x54d-0x54d.7 (1)
0x540|                                          03   |              . |      [26]: 3 transition_type 0x54e-0x54e.7 (1)
0x540|                                             02|               .|      [27]: 2 transition_type 0x54f-0x54f.7 (1)
0x550|03                                             |.               |      [28]: 3 transition_type 0x550-0x550.7 (1)
0x550|   02                                          | .              |      [29]: 2 transition_type 0x551-0x551.7 (1)
0x550|      03                                       |  .             |      [30]: 3 transition_type 0x552-0x552.7 (1)
0x550|         02                                    |   .            |      [31]: 2 transition_type 0x553-0x553.7 (1)
0x550|            03                                 |    .           |      [32]: 3 transition_type 0x554-0x554.7 (1)
0x550|               02                              |     .          |      [33]: 2 transition_type 0x555-0x555.7 (1)
0x550|                  03                           |      .         |      [34]: 3 transition_type 0x556-0x556.7 (1)
0x550|                     02                        |       .        |      [35]: 2 transition_type 0x557-0x557.7 (1)
0x550|                        03                     |        .       |      [36]: 3 transition_type 0x558-0x558.7 (1)
0x550|                           02                  |         .      |      [37]: 2 transition_type 0x559-0x559.7 (1)
0x550|                              03               |          .     |      [38]: 3 transition_type 0x55a-0x55a.7 (1)
0x550|                                 02            |           .    |      [39]: 2 transition_type 0x55b-0x55b.7 (1)
0x550|                                    03         |            .   |      [40]: 3 transition_type 0x55c-0x55c.7 (1)
0x550|                                       02      |             .  |      [41]: 2 transition_type 0x55d-0x55d.7 (1)
0x550|                                          03   |              . |      [42]: 3 transition_type 0x55e-0x55e.7 (1)
0x550|                                             02|               .|      [43]: 2 transition_type 0x55f-0x55f.7 (1)
0x560|03                                             |.               |      [44]: 3 transition_type 0x560-0x560.7 (1)
0x560|   02                                          | .              |      [45]: 2 transition_type 0x561-0x561.7 (1)
0x560|      03                                       |  .             |      [46]: 3 transition_type 0x562-0x562.7 (1)
0x560|         02                                    |   .            |      [47]: 2 transition_type 0x563-0x563.7 (1)
0x560|            03                                 |    .           |      [48]: 3 transition_type 0x564-0x564.7 (1)
0x560|               02                              |     .          |      [49]: 2 transition_type 0x565-0x565.7 (1)
0x560|                  03                           |      .         |      [50]: 3 transition_type 0x566-0x566.7 (1)
0x560|                     02                        |       .        |      [51]: 2 transition_type 0x567-0x567.7 (1)
0x560|                        03                     |        .       |      [52]: 3 transition_type 0x568-0x568.7 (1)
0x560|                           02                  |         .      |      [53]: 2 transition_type 0x569-0x569.7 (1)
0x560|                              03               |          .     |      [54]: 3 transition_type 0x56a-0x56a.7 (1)
0x560|                                 02            |           .    |      [55]: 2 transition_type 0x56b-0x56b.7 (1)
0x560|                                    03         |            .   |      [56]: 3 transition_type 0x56c-0x56c.7 (1)
0x560|                                       02      |             .  |      [57]: 2 transition_type 0x56d-0x56d.7 (1)
0x560|                                          03   |              . |      [58]: 3 transition_type 0x56e-0x56e.7 (1)
0x560|                                             02|               .|      [59]: 2 transition_type 0x56f-0x56f.7 (1)
0x570|03                                             |.               |      [60]: 3 transition_type 0x570-0x570.7 (1)
0x570|   02                                          | .              |      [61]: 2 transition_type 0x571-0x571.7 (1)
0x570|      03                                       |  .             |      [62]: 3 transition_type 0x572-0x572.7 (1)
0x570|         02                                    |   .            |      [63]: 2 transition_type 0x573-0x573.7 (1)
0x570|            03                                 |    .           |      [64]: 3 transition_type 0x574-0x574.7 (1)
0x570|               02                              |     .          |      [65]: 2 transition_type 0x575-0x575.7 (1)
0x570|                  03                           |      .         |      [66]: 3 transition_type 0x576-0x576.7 (1)
0x570|                     02                        |       .        |      [67]: 2 transition_type 0x577-0x577.7 (1)
0x570|                        03                     |        .       |      [68]: 3 transition_type 0x578-0x578.7 (1)
0x570|                           02                  |         .      |      [69]: 2 transition_type 0x579-0x579.7 (1)
0x570|                              03               |          .     |      [70]: 3 transition_type 0x57a-0x57a.7 (1)
0x570|                                 02            |           .    |      [71]: 2 transition_type 0x57b-0x57b.7 (1)
0x570|                                    03         |            .   |      [72]: 3 transition_type 0x57c-0x57c.7 (1)
0x570|                                       02      |             .  |      [73]: 2 transition_type 0x57d-0x57d.7 (1)
0x570|                                          03   |              . |      [74]: 3 transition_type 0x57e-0x57e.7 (1)
0x570|                                             03|               .|      [75]: 3 transition_type 0x57f-0x57f.7 (1)
     |                                               |                |    local_time_type_records[0:4]: 0x580-0x597.7 (24)
     |                                               |                |      [0]{}: local_time_type 0x580-0x585.7 (6)
0x580|ff ff cb 58                                    |...X            |        utoff: -13480 (valid) 0x580-0x583.7 (4)
0x580|            00                                 |    .           |        dst: 0 (valid) 0x584-0x584.7 (1)
0x580|               00                              |     .          |        idx: 0 (valid) 0x585-0x585.7 (1)
     |                                               |                |      [1]{}: local_time_type 0x586-0x58b.7 (6)
0x580|                  ff ff c7 c0                  |      ....      |        utoff: -14400 (valid) 0x586-0x589.7 (4)
0x580|                              00               |          .     |        dst: 0 (valid) 0x58a-0x58a.7 (1)
0x580|                                 04            |           .    |        idx: 4 (valid) 0x58b-0x58b.7 (1)
     |                                               |                |      [2]{}: local_time_type 0x58c-0x591.7 (6)
0x580|                                    ff ff d5 d0|            ....|        utoff: -10800 (valid) 0x58c-0x58f.7 (4)
0x590|00                                             |.               |        dst: 0 (valid) 0x590-0x590.7 (1)
0x590|   08                                          | .              |        idx: 8 (valid) 0x591-0x591.7 (1)
     |                                               |                |      [3]{}: local_time_type 0x592-0x597.7 (6)
0x590|      ff ff e3 e0                              |  ....          |        utoff: -7200 (valid) 0x592-0x595.7 (4)
0x590|                  01                           |      .         |        dst: 1 (valid) 0x596-0x596.7 (1)
0x590|                     0c                        |       .        |        idx: 12 (valid) 0x597-0x597.7 (1)
     |                                               |                |    time_zone_designations[0:4]: 0x598-0x5a7.7 (16)
0x590|                        4c 4d 54 00            |        LMT.    |      [0]: "LMT" time_zone_designation 0x598-0x59b.7 (4)
0x590|                                    41 53 54 00|            AST.|      [1]: "AST" time_zone_designation 0x59c-0x59f.7 (4)
0x5a0|2d 30 33 00                                    |-03.            |      [2]: "-03" time_zone_designation 0x5a0-0x5a3.7 (4)
0x5a0|            2d 30 32 00                        |    -02.        |      [3]: "-02" time_zone_designation 0x5a4-0x5a7.7 (4)
     |                                               |                |    leap_second_records[0:27]: 0x5a8-0x6eb.7 (324)
     |                                               |                |      [0]{}: leap_second_record 0x5a8-0x5b3.7 (12)
0x5a0|                        00 00 00 00 04 b2 58 00|        ......X.|        occur: "1972-07-01T00:00:00Z" (78796800) 0x5a8-0x5af.7 (8)
0x5b0|00 00 00 01                                    |....            |        corr: 1 0x5b0-0x5b3.7 (4)
     |                                               |                |      [1]{}: leap_second_record 0x5b4-0x5bf.7 (12)
0x5b0|            00 00 00 00 05 a4 ec 01            |    ........    |        occur: "1973-01-01T00:00:01Z" (94694401) 0x5b4-0x5bb.7 (8)
0x5b0|                                    00 00 00 02|            ....|        corr: 2 0x5bc-0x5bf.7 (4)
     |                                               |                |      [2]{}: leap_second_record 0x5c0-0x5cb.7 (12)
0x5c0|00 00 00 00 07 86 1f 82                        |........        |        occur: "1974-01-01T00:00:02Z" (126230402) 0x5c0-0x5c7.7 (8)
0x5c0|                        00 00 00 03            |        ....    |        corr: 3 0x5c8-0x5cb.7 (4)
     |                                               |                |      [3]{}: leap_second_record 0x5cc-0x5d7.7 (12)
0x5c0|                                    00 00 00 00|            ....|        occur: "1975-01-01T00:00:03Z" (157766403) 0x5cc-0x5d3.7 (8)
0x5d0|09 67 53 03                                    |.gS.            |
0x5d0|            00 00 00 04                        |    ....        |        corr: 4 0x5d4-0x5d7.7 (4)
     |                                               |                |      [4]{}: leap_second_record 0x5d8-0x5e3.7 (12)
0x5d0|                        00 00 00 00 0b 48 86 84|        .....H..|        occur: "1976-01-01T00:00:04Z" (189302404) 0x5d8-0x5df.7 (8)
0x5e0|00 00 00 05                                    |....            |        corr: 5 0x5e0-0x5e3.7 (4)
     |                                               |                |      [5]{}: leap_second_record 0x5e4-0x5ef.7 (12)
0x5e0|            00 00 00 00 0d 2b 0b 85            |    .....+..    |        occur: "1977-01-01T00:00:05Z" (220924805) 0x5e4-0x5eb.7 (8)
0x5e0|                                    00 00 00 06|            ....|        corr: 6 0x5ec-0x5ef.7 (4)
     |                                               |                |      [6]{}: leap_second_record 0x5f0-0x5fb.7 (12)
0x5f0|00 00 00 00 0f 0c 3f 06                        |......?.        |        occur: "1978-01-01T00:00:06Z" (252460806) 0x5f0-0x5f7.7 (8)
0x5f0|                        00 00 00 07            |        ....    |        corr: 7 0x5f8-0x5fb.7 (4)
     |                                               |                |      [7]{}: leap_second_record 0x5fc-0x607.7 (12)
0x5f0|                                    00 00 00 00|            ....|        occur: "1979-01-01T00:00:07Z" (283996807) 0x5fc-0x603.7 (8)
0x600|10 ed 72 87                                    |..r.            |
0x600|            00 00 00 08                        |    ....        |        corr: 8 0x604-0x607.7 (4)
     |                                               |                |      [8]{}: leap_second_record 0x608-0x613.7 (12)
0x600|                        00 00 00 00 12 ce a6 08|        ........|        occur: "1980-01-01T00:00:08Z" (315532808) 0x608-0x60f.7 (8)
0x610|00 00 00 09                                    |....            |        corr: 9 0x610-0x613.7 (4)
     |                                               |                |      [9]{}: leap_second_record 0x614-0x61f.7 (12)
0x610|            00 00 00 00 15 9f ca 89            |    ........    |        occur: "1981-07-01T00:00:09Z" (362793609) 0x614-0x61b.7 (8)
0x610|                                    00 00 00 0a|            ....|        corr: 10 0x61c-0x61f.7 (4)
     |                                               |                |      [10]{}: leap_second_record 0x620-0x62b.7 (12)
0x620|00 00 00 00 17 80 fe 0a                        |........        |        occur: "1982-07-01T00:00:10Z" (394329610) 0x620-0x627.7 (8)
0x620|                        00 00 00 0b            |        ....    |        corr: 11 0x628-0x62b.7 (4)
     |                                               |                |      [11]{}: leap_second_record 0x62c-0x637.7 (12)
0x620|                                    00 00 00 00|            ....|        occur: "1983-07-01T00:00:11Z" (425865611) 0x62c-0x633.7 (8)
0x630|19 62 31 8b                                    |.b1.            |
0x630|            00 00 00 0c                        |    ....        |        corr: 12 0x634-0x637.7 (4)
     |                                               |                |      [12]{}: leap_second_record 0x638-0x643.7 (12)
0x630|                        00 00 00 00 1d 25 ea 0c|        .....%..|        occur: "1985-07-01T00:00:12Z" (489024012) 0x638-0x63f.7 (8)
0x640|00 00 00 0d                                    |....            |        corr: 13 0x640-0x643.7 (4)
     |                                               |                |      [13]{}: leap_second_record 0x644-0x64f.7 (12)
0x640|            00 00 00 00 21 da e5 0d            |    ....!...    |        occur: "1988-01-01T00:00:13Z" (567993613) 0x644-0x64b.7 (8)
0x640|                                    00 00 00 0e|            ....|        corr: 14 0x64c-0x64f.7 (4)
     |                                               |                |      [14]{}: leap_second_record 0x650-0x65b.7 (12)
0x650|00 00 00 00 25 9e 9d 8e                        |....%...        |        occur: "1990-01-01T00:00:14Z" (631152014) 0x650-0x657.7 (8)
0x650|                        00 00 00 0f            |        ....    |        corr: 15 0x658-0x65b.7 (4)
     |                                               |                |      [15]{}: leap_second_record 0x65c-0x667.7 (12)
0x650|                                    00 00 00 00|            ....|        occur: "1991-01-01T00:00:15Z" (662688015) 0x65c-0x663.7 (8)
0x660|27 7f d1 0f                                    |'...            |
0x660|            00 00 00 10                        |    ....        |        corr: 16 0x664-0x667.7 (4)
     |                                               |                |      [16]{}: leap_second_record 0x668-0x673.7 (12)
0x660|                        00 00 00 00 2a 50 f5 90|        ....*P..|        occur: "1992-07-01T00:00:16Z" (709948816) 0x668-0x66f.7 (8)
0x670|00 00 00 11                                    |....            |        corr: 17 0x670-0x673.7 (4)
     |                                               |                |      [17]{}: leap_second_record 0x674-0x67f.7 (12)
0x670|            00 00 00 00 2c 32 29 11            |    ....,2).    |        occur: "1993-07-01T00:00:17Z" (741484817) 0x674-0x67b.7 (8)
0x670|                                    00 00 00 12|            ....|        corr: 18 0x67c-0x67f.7 (4)
     |                                               |                |      [18]{}: leap_second_record 0x680-0x68b.7 (12)
0x680|00 00 00 00 2e 13 5c 92                        |......\.        |        occur: "1994-07-01T00:00:18Z" (773020818) 0x680-0x687.7 (8)
0x680|                        00 00 00 13            |        ....    |        corr: 19 0x688-0x68b.7 (4)
     |                                               |                |      [19]{}: leap_second_record 0x68c-0x697.7 (12)
0x680|                                    00 00 00 00|            ....|        occur: "1996-01-01T00:00:19Z" (820454419) 0x68c-0x693.7 (8)
0x690|30 e7 24 13                                    |0.$.            |
0x690|            00 00 00 14                        |    ....        |        corr: 20 0x694-0x697.7 (4)
     |                                               |                |      [20]{}: leap_second_record 0x698-0x6a3.7 (12)
0x690|                        00 00 00 00 33 b8 48 94|        ....3.H.|        occur: "1997-07-01T00:00:20Z" (867715220) 0x698-0x69f.7 (8)
0x6a0|00 00 00 15                                    |....            |        corr: 21 0x6a0-0x6a3.7 (4)
     |                                               |                |      [21]{}: leap_second_record 0x6a4-0x6af.7 (12)
0x6a0|            00 00 00 00 36 8c 10 15            |    ....6...    |        occur: "1999-01-01T00:00:21Z" (915148821) 0x6a4-0x6ab.7 (8)
0x6a0|                                    00 00 00 16|            ....|        corr: 22 0x6ac-0x6af.7 (4)
     |                                               |                |      [22]{}: leap_second_record 0x6b0-0x6bb.7 (12)
0x6b0|00 00 00 00 43 b7 1b 96                        |....C...        |        occur: "2006-01-01T00:00:22Z" (1136073622) 0x6b0-0x6b7.7 (8)
0x6b0|                        00 00 00 17            |        ....    |        corr: 23 0x6b8-0x6bb.7 (4)
     |                                               |                |      [23]{}: leap_second_record 0x6bc-0x6c7.7 (12)
0x6b0|                                    00 00 00 00|            ....|        occur: "2009-01-01T00:00:23Z" (1230768023) 0x6bc-0x6c3.7 (8)
0x6c0|49 5c 07 97                                    |I\..            |
0x6c0|            00 00 00 18                        |    ....        |        corr: 24 0x6c4-0x6c7.7 (4)
     |                                               |                |      [24]{}: leap_second_record 0x6c8-0x6d3.7 (12)
0x6c0|                        00 00 00 00 4f ef 93 18|        ....O...|        occur: "2012-07-01T00:00:24Z" (1341100824) 0x6c8-0x6cf.7 (8)
0x6d0|00 00 00 19                                    |....            |        corr: 25 0x6d0-0x6d3.7 (4)
     |                                               |                |      [25]{}: leap_second_record 0x6d4-0x6df.7 (12)
0x6d0|            00 00 00 00 55 93 2d 99            |    ....U.-.    |        occur: "2015-07-01T00:00:25Z" (1435708825) 0x6d4-0x6db.7 (8)
0x6d0|                                    00 00 00 1a|            ....|        corr: 26 0x6dc-0x6df.7 (4)
     |                                               |                |      [26]{}: leap_second_record 0x6e0-0x6eb.7 (12)
0x6e0|00 00 00 00 58 68 46 9a                        |....XhF.        |        occur: "2017-01-01T00:00:26Z" (1483228826) 0x6e0-0x6e7.7 (8)
0x6e0|                        00 00 00 1b            |        ....    |        corr: 27 0x6e8-0x6eb.7 (4)
     |                                               |                |    standard_wall_indicators[0:0]: 0x6ec-NA (0)
     |                                               |                |    ut_local_indicators[0:0]: 0x6ec-NA (0)
     |                                               |                |  footer{}: 0x6ec-0x6ed.7 (2)
0x6e0|                                    0a         |            .   |    nl1: 10 (valid) 0x6ec-0x6ec.7 (1)
     |                                               |                |    tz_string: "" 0x6ed-NA (0)
0x6e0|                                       0a|     |             .| |    nl2: 10 (valid) 0x6ed-0x6ed.7 (1)
