$ fq -d tzif dv Moncton
     |00 01 02 03 04 05 06 07 08 09 0a 0b 0c 0d 0e 0f|0123456789abcdef|.{}: Moncton (tzif) 0x0-0xccf.7 (3280)
     |                                               |                |  v1header{}: 0x0-0x2b.7 (44)
0x000|54 5a 69 66                                    |TZif            |    magic: 0x545a6966 (valid) 0x0-0x3.7 (4)
0x000|            32                                 |    2           |    ver: "2" (0x32) (valid) 0x4-0x4.7 (1)
0x000|               00 00 00 00 00 00 00 00 00 00 00|     ...........|    reserved: raw bits 0x5-0x13.7 (15)
0x010|00 00 00 00                                    |....            |
0x010|            00 00 00 06                        |    ....        |    isutcnt: 6 0x14-0x17.7 (4)
0x010|                        00 00 00 06            |        ....    |    isstdcnt: 6 0x18-0x1b.7 (4)
0x010|                                    00 00 00 1b|            ....|    leapcnt: 27 0x1c-0x1f.7 (4)
0x020|00 00 00 b3                                    |....            |    timecnt: 179 0x20-0x23.7 (4)
0x020|            00 00 00 06                        |    ....        |    typecnt: 6 0x24-0x27.7 (4)
0x020|                        00 00 00 18            |        ....    |    charcnt: 24 0x28-0x2b.7 (4)
     |                                               |                |  v1datablock{}: 0x2c-0x4ca.7 (1183)
     |                                               |                |    transition_times[0:179]: 0x2c-0x2f7.7 (716)
0x020|                                    80 00 00 00|            ....|      [0]: "1901-12-13T20:45:52Z" (-2147483648) transition_time 0x2c-0x2f.7 (4)
0x030|80 f1 b6 50                                    |...P            |      [1]: "1902-06-15T05:00:00Z" (-2131642800) transition_time 0x30-0x33.7 (4)
0x030|            9e b8 85 60                        |    ...`        |      [2]: "1918-04-14T06:00:00Z" (-1632074400) transition_time 0x34-0x37.7 (4)
0x030|                        9f ba dd 50            |        ...P    |      [3]: "1918-10-27T05:00:00Z" (-1615143600) transition_time 0x38-0x3b.7 (4)
0x030|                                    bb 3c 38 d0|            .<8.|      [4]: "1933-06-11T05:00:00Z" (-1153681200) transition_time 0x3c-0x3f.7 (4)
0x040|bb b4 23 40                                    |..#@            |      [5]: "1933-09-10T04:00:00Z" (-1145822400) transition_time 0x40-0x43.7 (4)
0x040|            bd 1c 1a d0                        |    ....        |      [6]: "1934-06-10T05:00:00Z" (-1122231600) transition_time 0x44-0x47.7 (4)
0x040|                        bd 94 05 40            |        ...@    |      [7]: "1934-09-09T04:00:00Z" (-1114372800) transition_time 0x48-0x4b.7 (4)
0x040|                                    be fb fc d0|            ....|      [8]: "1935-06-09T05:00:00Z" (-1090782000) transition_time 0x4c-0x4f.7 (4)
0x050|bf 73 e7 40                                    |.s.@            |      [9]: "1935-09-08T04:00:00Z" (-1082923200) transition_time 0x50-0x53.7 (4)
0x050|            c0 db de d0                        |    ....        |      [10]: "1936-06-07T05:00:00Z" (-1059332400) transition_time 0x54-0x57.7 (4)
0x050|                        c1 53 c9 40            |        .S.@    |      [11]: "1936-09-06T04:00:00Z" (-1051473600) transition_time 0x58-0x5b.7 (4)
0x050|                                    c2 bb c0 d0|            ....|      [12]: "1937-06-06T05:00:00Z" (-1027882800) transition_time 0x5c-0x5f.7 (4)
0x060|c3 33 ab 40                                    |.3.@            |      [13]: "1937-09-05T04:00:00Z" (-1020024000) transition_time 0x60-0x63.7 (4)
0x060|            c4 9b a2 d0                        |    ....        |      [14]: "1938-06-05T05:00:00Z" (-996433200) transition_time 0x64-0x67.7 (4)
0x060|                        c5 13 8d 40            |        ...@    |      [15]: "1938-09-04T04:00:00Z" (-988574400) transition_time 0x68-0x6b.7 (4)
0x060|                                    c6 70 f8 d0|            .p..|      [16]: "1939-05-27T05:00:00Z" (-965674800) transition_time 0x6c-0x6f.7 (4)
0x070|c7 0d cd 40                                    |...@            |      [17]: "1939-09-23T04:00:00Z" (-955396800) transition_time 0x70-0x73.7 (4)
0x070|            c8 48 f1 d0                        |    .H..        |      [18]: "1940-05-19T05:00:00Z" (-934743600) transition_time 0x74-0x77.7 (4)
0x070|                        c8 ed af 40            |        ...@    |      [19]: "1940-09-21T04:00:00Z" (-923947200) transition_time 0x78-0x7b.7 (4)
0x070|                                    ca 16 5e d0|            ..^.|      [20]: "1941-05-04T05:00:00Z" (-904503600) transition_time 0x7c-0x7f.7 (4)
0x080|ca d6 cb c0                                    |....            |      [21]: "1941-09-27T04:00:00Z" (-891892800) transition_time 0x80-0x83.7 (4)
0x080|            cb 88 e2 60                        |    ...`        |      [22]: "1942-02-09T06:00:00Z" (-880221600) transition_time 0x84-0x87.7 (4)
0x080|                        d2 23 f4 70            |        .#.p    |      [23]: "1945-08-14T23:00:00Z" (-769395600) transition_time 0x88-0x8b.7 (4)
0x080|                                    d2 60 ed d0|            .`..|      [24]: "1945-09-30T05:00:00Z" (-765399600) transition_time 0x8c-0x8f.7 (4)
0x090|d3 75 d6 e0                                    |.u..            |      [25]: "1946-04-28T06:00:00Z" (-747252000) transition_time 0x90-0x93.7 (4)
0x090|            d4 40 cf d0                        |    .@..        |      [26]: "1946-09-29T05:00:00Z" (-733950000) transition_time 0x94-0x97.7 (4)
0x090|                        d5 55 b8 e0            |        .U..    |      [27]: "1947-04-27T06:00:00Z" (-715802400) transition_time 0x98-0x9b.7 (4)
0x090|                                    d6 20 b1 d0|            . ..|      [28]: "1947-09-28T05:00:00Z" (-702500400) transition_time 0x9c-0x9f.7 (4)
0x0a0|d7 35 9a e0                                    |.5..            |      [29]: "1948-04-25T06:00:00Z" (-684352800) transition_time 0xa0-0xa3.7 (4)
0x0a0|            d8 00 93 d0                        |    ....        |      [30]: "1948-09-26T05:00:00Z" (-671050800) transition_time 0xa4-0xa7.7 (4)
0x0a0|                        d9 15 7c e0            |        ..|.    |      [31]: "1949-04-24T06:00:00Z" (-652903200) transition_time 0xa8-0xab.7 (4)
0x0a0|                                    d9 e0 75 d0|            ..u.|      [32]: "1949-09-25T05:00:00Z" (-639601200) transition_time 0xac-0xaf.7 (4)
0x0b0|da fe 99 60                                    |...`            |      [33]: "1950-04-30T06:00:00Z" (-620848800) transition_time 0xb0-0xb3.7 (4)
0x0b0|            db c0 57 d0                        |    ..W.        |      [34]: "1950-09-24T05:00:00Z" (-608151600) transition_time 0xb4-0xb7.7 (4)
0x0b0|                        dc de 7b 60            |        ..{`    |      [35]: "1951-04-29T06:00:00Z" (-589399200) transition_time 0xb8-0xbb.7 (4)
0x0b0|                                    dd a9 74 50|            ..tP|      [36]: "1951-09-30T05:00:00Z" (-576097200) transition_time 0xbc-0xbf.7 (4)
0x0c0|de be 5d 60                                    |..]`            |      [37]: "1952-04-27T06:00:00Z" (-557949600) transition_time 0xc0-0xc3.7 (4)
0x0c0|            df 89 56 50                        |    ..VP        |      [38]: "1952-09-28T05:00:00Z" (-544647600) transition_time 0xc4-0xc7.7 (4)
0x0c0|                        e0 9e 3f 60            |        ..?`    |      [39]: "1953-04-26T06:00:00Z" (-526500000) transition_time 0xc8-0xcb.7 (4)
0x0c0|                                    e1 69 38 50|            .i8P|      [40]: "1953-09-27T05:00:00Z" (-513198000) transition_time 0xcc-0xcf.7 (4)
0x0d0|e2 7e 21 60                                    |.~!`            |      [41]: "1954-04-25T06:00:00Z" (-495050400) transition_time 0xd0-0xd3.7 (4)
0x0d0|            e3 49 1a 50                        |    .I.P        |      [42]: "1954-09-26T05:00:00Z" (-481748400) transition_time 0xd4-0xd7.7 (4)
0x0d0|                        e4 5e 03 60            |        .^.`    |      [43]: "1955-04-24T06:00:00Z" (-463600800) transition_time 0xd8-0xdb.7 (4)
0x0d0|                                    e5 28 fc 50|            .(.P|      [44]: "1955-09-25T05:00:00Z" (-450298800) transition_time 0xdc-0xdf.7 (4)
0x0e0|e6 47 1f e0                                    |.G..            |      [45]: "1956-04-29T06:00:00Z" (-431546400) transition_time 0xe0-0xe3.7 (4)
0x0e0|            e7 12 18 d0                        |    ....        |      [46]: "1956-09-30T05:00:00Z" (-418244400) transition_time 0xe4-0xe7.7 (4)
0x0e0|                        e8 27 01 e0            |        .'..    |      [47]: "1957-04-28T06:00:00Z" (-400096800) transition_time 0xe8-0xeb.7 (4)
0x0e0|                                    e9 16 e4 d0|            ....|      [48]: "1957-10-27T05:00:00Z" (-384375600) transition_time 0xec-0xef.7 (4)
0x0f0|ea 06 e3 e0                                    |....            |      [49]: "1958-04-27T06:00:00Z" (-368647200) transition_time 0xf0-0xf3.7 (4)
0x0f0|            ea f6 c6 d0                        |    ....        |      [50]: "1958-10-26T05:00:00Z" (-352926000) transition_time 0xf4-0xf7.7 (4)
0x0f0|                        eb e6 c5 e0            |        ....    |      [51]: "1959-04-26T06:00:00Z" (-337197600) transition_time 0xf8-0xfb.7 (4)
0x0f0|                                    ec d6 a8 d0|            ....|      [52]: "1959-10-25T05:00:00Z" (-321476400) transition_time 0xfc-0xff.7 (4)
0x100|ed c6 a7 e0                                    |....            |      [53]: "1960-04-24T06:00:00Z" (-305748000) transition_time 0x100-0x103.7 (4)
0x100|            ee bf c5 50                        |    ...P        |      [54]: "1960-10-30T05:00:00Z" (-289422000) transition_time 0x104-0x107.7 (4)
0x100|                        ef af c4 60            |        ...`    |      [55]: "1961-04-30T06:00:00Z" (-273693600) transition_time 0x108-0x10b.7 (4)
0x100|                                    f0 9f a7 50|            ...P|      [56]: "1961-10-29T05:00:00Z" (-257972400) transition_time 0x10c-0x10f.7 (4)
0x110|f1 8f a6 60                                    |...`            |      [57]: "1962-04-29T06:00:00Z" (-242244000) transition_time 0x110-0x113.7 (4)
0x110|            f2 7f 89 50                        |    ...P        |      [58]: "1962-10-28T05:00:00Z" (-226522800) transition_time 0x114-0x117.7 (4)
0x110|                        f3 6f 88 60            |        .o.`    |      [59]: "1963-04-28T06:00:00Z" (-210794400) transition_time 0x118-0x11b.7 (4)
0x110|                                    f4 5f 6b 50|            ._kP|      [60]: "1963-10-27T05:00:00Z" (-195073200) transition_time 0x11c-0x11f.7 (4)
0x120|f5 4f 6a 60                                    |.Oj`            |      [61]: "1964-04-26T06:00:00Z" (-179344800) transition_time 0x120-0x123.7 (4)
0x120|            f6 3f 4d 50                        |    .?MP        |      [62]: "1964-10-25T05:00:00Z" (-163623600) transition_time 0x124-0x127.7 (4)
0x120|                        f7 2f 4c 60            |        ./L`    |      [63]: "1965-04-25T06:00:00Z" (-147895200) transition_time 0x128-0x12b.7 (4)
0x120|                                    f8 28 69 d0|            .(i.|      [64]: "1965-10-31T05:00:00Z" (-131569200) transition_time 0x12c-0x12f.7 (4)
0x130|f9 0f 2e 60                                    |...`            |      [65]: "1966-04-24T06:00:00Z" (-116445600) transition_time 0x130-0x133.7 (4)
0x130|            fa 08 4b d0                        |    ..K.        |      [66]: "1966-10-30T05:00:00Z" (-100119600) transition_time 0x134-0x137.7 (4)
0x130|                        fa f8 4a e0            |        ..J.    |      [67]: "1967-04-30T06:00:00Z" (-84391200) transition_time 0x138-0x13b.7 (4)
0x130|                                    fb e8 2d d0|            ..-.|      [68]: "1967-10-29T05:00:00Z" (-68670000) transition_time 0x13c-0x13f.7 (4)
0x140|fc d8 2c e0                                    |..,.            |      [69]: "1968-04-28T06:00:00Z" (-52941600) transition_time 0x140-0x143.7 (4)
0x140|            fd c8 0f d0                        |    ....        |      [70]: "1968-10-27T05:00:00Z" (-37220400) transition_time 0x144-0x147.7 (4)
0x140|                        fe b8 0e e0            |        ....    |      [71]: "1969-04-27T06:00:00Z" (-21492000) transition_time 0x148-0x14b.7 (4)
0x140|                                    ff a7 f1 d0|            ....|      [72]: "1969-10-26T05:00:00Z" (-5770800) transition_time 0x14c-0x14f.7 (4)
0x150|00 97 f0 e0                                    |....            |      [73]: "1970-04-26T06:00:00Z" (9957600) transition_time 0x150-0x153.7 (4)
0x150|            01 87 d3 d0                        |    ....        |      [74]: "1970-10-25T05:00:00Z" (25678800) transition_time 0x154-0x157.7 (4)
0x150|                        02 77 d2 e0            |        .w..    |      [75]: "1971-04-25T06:00:00Z" (41407200) transition_time 0x158-0x15b.7 (4)
0x150|                                    03 70 f0 50|            .p.P|      [76]: "1971-10-31T05:00:00Z" (57733200) transition_time 0x15c-0x15f.7 (4)
0x160|04 60 ef 60                                    |.`.`            |      [77]: "1972-04-30T06:00:00Z" (73461600) transition_time 0x160-0x163.7 (4)
0x160|            05 50 d2 51                        |    .P.Q        |      [78]: "1972-10-29T05:00:01Z" (89182801) transition_time 0x164-0x167.7 (4)
0x160|                        08 20 b3 63            |        . .c    |      [79]: "1974-04-28T06:00:03Z" (136360803) transition_time 0x168-0x16b.7 (4)
0x160|                                    09 10 96 53|            ...S|      [80]: "1974-10-27T05:00:03Z" (152082003) transition_time 0x16c-0x16f.7 (4)
0x170|0a 00 95 64                                    |...d            |      [81]: "1975-04-27T06:00:04Z" (167810404) transition_time 0x170-0x173.7 (4)
0x170|            0a f0 78 54                        |    ..xT        |      [82]: "1975-10-26T05:00:04Z" (183531604) transition_time 0x174-0x177.7 (4)
0x170|                        0b e0 77 65            |        ..we    |      [83]: "1976-04-25T06:00:05Z" (199260005) transition_time 0x178-0x17b.7 (4)
0x170|                                    0c d9 94 d5|            ....|      [84]: "1976-10-31T05:00:05Z" (215586005) transition_time 0x17c-0x17f.7 (4)
0x180|0d c0 59 66                                    |..Yf            |      [85]: "1977-04-24T06:00:06Z" (230709606) transition_time 0x180-0x183.7 (4)
0x180|            0e b9 76 d6                        |    ..v.        |      [86]: "1977-10-30T05:00:06Z" (247035606) transition_time 0x184-0x187.7 (4)
0x180|                        0f a9 75 e7            |        ..u.    |      [87]: "1978-04-30T06:00:07Z" (262764007) transition_time 0x188-0x18b.7 (4)
0x180|                                    10 99 58 d7|            ..X.|      [88]: "1978-10-29T05:00:07Z" (278485207) transition_time 0x18c-0x18f.7 (4)
0x190|11 89 57 e8                                    |..W.            |      [89]: "1979-04-29T06:00:08Z" (294213608) transition_time 0x190-0x193.7 (4)
0x190|            12 79 3a d8                        |    .y:.        |      [90]: "1979-10-28T05:00:08Z" (309934808) transition_time 0x194-0x197.7 (4)
0x190|                        13 69 39 e9            |        .i9.    |      [91]: "1980-04-27T06:00:09Z" (325663209) transition_time 0x198-0x19b.7 (4)
0x190|                                    14 59 1c d9|            .Y..|      [92]: "1980-10-26T05:00:09Z" (341384409) transition_time 0x19c-0x19f.7 (4)
0x1a0|15 49 1b e9                                    |.I..            |      [93]: "1981-04-26T06:00:09Z" (357112809) transition_time 0x1a0-0x1a3.7 (4)
0x1a0|            16 38 fe da                        |    .8..        |      [94]: "1981-10-25T05:00:10Z" (372834010) transition_time 0x1a4-0x1a7.7 (4)
0x1a0|                        17 28 fd ea            |        .(..    |      [95]: "1982-04-25T06:00:10Z" (388562410) transition_time 0x1a8-0x1ab.7 (4)
0x1a0|                                    18 22 1b 5b|            .".[|      [96]: "1982-10-31T05:00:11Z" (404888411) transition_time 0x1ac-0x1af.7 (4)
0x1b0|19 08 df eb                                    |....            |      [97]: "1983-04-24T06:00:11Z" (420012011) transition_time 0x1b0-0x1b3.7 (4)
0x1b0|            1a 01 fd 5c                        |    ...\        |      [98]: "1983-10-30T05:00:12Z" (436338012) transition_time 0x1b4-0x1b7.7 (4)
0x1b0|                        1a f1 fc 6c            |        ...l    |      [99]: "1984-04-29T06:00:12Z" (452066412) transition_time 0x1b8-0x1bb.7 (4)
0x1b0|                                    1b e1 df 5c|            ...\|      [100]: "1984-10-28T05:00:12Z" (467787612) transition_time 0x1bc-0x1bf.7 (4)
0x1c0|1c d1 de 6c                                    |...l            |      [101]: "1985-04-28T06:00:12Z" (483516012) transition_time 0x1c0-0x1c3.7 (4)
0x1c0|            1d c1 c1 5d                        |    ...]        |      [102]: "1985-10-27T05:00:13Z" (499237213) transition_time 0x1c4-0x1c7.7 (4)
0x1c0|                        1e b1 c0 6d            |        ...m    |      [103]: "1986-04-27T06:00:13Z" (514965613) transition_time 0x1c8-0x1cb.7 (4)
0x1c0|                                    1f a1 a3 5d|            ...]|      [104]: "1986-10-26T05:00:13Z" (530686813) transition_time 0x1cc-0x1cf.7 (4)
0x1d0|20 75 f2 ed                                    | u..            |      [105]: "1987-04-05T06:00:13Z" (544600813) transition_time 0x1d0-0x1d3.7 (4)
0x1d0|            21 81 85 5d                        |    !..]        |      [106]: "1987-10-25T05:00:13Z" (562136413) transition_time 0x1d4-0x1d7.7 (4)
0x1d0|                        22 55 d4 ee            |        "U..    |      [107]: "1988-04-03T06:00:14Z" (576050414) transition_time 0x1d8-0x1db.7 (4)
0x1d0|                                    23 6a a1 de|            #j..|      [108]: "1988-10-30T05:00:14Z" (594190814) transition_time 0x1dc-0x1df.7 (4)
0x1e0|24 35 b6 ee                                    |$5..            |      [109]: "1989-04-02T06:00:14Z" (607500014) transition_time 0x1e0-0x1e3.7 (4)
0x1e0|            25 4a 83 de                        |    %J..        |      [110]: "1989-10-29T05:00:14Z" (625640414) transition_time 0x1e4-0x1e7.7 (4)
0x1e0|                        26 15 98 ef            |        &...    |      [111]: "1990-04-01T06:00:15Z" (638949615) transition_time 0x1e8-0x1eb.7 (4)
0x1e0|                                    27 2a 65 df|            '*e.|      [112]: "1990-10-28T05:00:15Z" (657090015) transition_time 0x1ec-0x1ef.7 (4)
0x1f0|27 fe b5 70                                    |'..p            |      [113]: "1991-04-07T06:00:16Z" (671004016) transition_time 0x1f0-0x1f3.7 (4)
0x1f0|            29 0a 47 e0                        |    ).G.        |      [114]: "1991-10-27T05:00:16Z" (688539616) transition_time 0x1f4-0x1f7.7 (4)
0x1f0|                        29 de 97 70            |        )..p    |      [115]: "1992-04-05T06:00:16Z" (702453616) transition_time 0x1f8-0x1fb.7 (4)
0x1f0|                                    2a ea 29 e1|            *.).|      [116]: "1992-10-25T05:00:17Z" (719989217) transition_time 0x1fc-0x1ff.7 (4)
0x200|2b be 5d 8d                                    |+.].            |      [117]: "1993-04-04T04:01:17Z" (733896077) transition_time 0x200-0x203.7 (4)
0x200|            2c d3 2a 7e                        |    ,.*~        |      [118]: "1993-10-31T03:01:18Z" (752036478) transition_time 0x204-0x207.7 (4)
0x200|                        2d 9e 3f 8e            |        -.?.    |      [119]: "1994-04-03T04:01:18Z" (765345678) transition_time 0x208-0x20b.7 (4)
0x200|                                    2e b3 0c 7f|            ....|      [120]: "1994-10-30T03:01:19Z" (783486079) transition_time 0x20c-0x20f.7 (4)
0x210|2f 7e 21 8f                                    |/~!.            |      [121]: "1995-04-02T04:01:19Z" (796795279) transition_time 0x210-0x213.7 (4)
0x210|            30 92 ee 7f                        |    0...        |      [122]: "1995-10-29T03:01:19Z" (814935679) transition_time 0x214-0x217.7 (4)
0x210|                        31 67 3e 10            |        1g>.    |      [123]: "1996-04-07T04:01:20Z" (828849680) transition_time 0x218-0x21b.7 (4)
0x210|                                    32 72 d0 80|            2r..|      [124]: "1996-10-27T03:01:20Z" (846385280) transition_time 0x21c-0x21f.7 (4)
0x220|33 47 20 10                                    |3G .            |      [125]: "1997-04-06T04:01:20Z" (860299280) transition_time 0x220-0x223.7 (4)
0x220|            34 52 b2 81                        |    4R..        |      [126]: "1997-10-26T03:01:21Z" (877834881) transition_time 0x224-0x227.7 (4)
0x220|                        35 27 02 11            |        5'..    |      [127]: "1998-04-05T04:01:21Z" (891748881) transition_time 0x228-0x22b.7 (4)
0x220|                                    36 32 94 81|            62..|      [128]: "1998-10-25T03:01:21Z" (909284481) transition_time 0x22c-0x22f.7 (4)
0x230|37 06 e4 12                                    |7...            |      [129]: "1999-04-04T04:01:22Z" (923198482) transition_time 0x230-0x233.7 (4)
0x230|            38 1b b1 02                        |    8...        |      [130]: "1999-10-31T03:01:22Z" (941338882) transition_time 0x234-0x237.7 (4)
0x230|                        38 e6 c6 12            |        8...    |      [131]: "2000-04-02T04:01:22Z" (954648082) transition_time 0x238-0x23b.7 (4)
0x230|                                    39 fb 93 02|            9...|      [132]: "2000-10-29T03:01:22Z" (972788482) transition_time 0x23c-0x23f.7 (4)
0x240|3a c6 a8 12                                    |:...            |      [133]: "2001-04-01T04:01:22Z" (986097682) transition_time 0x240-0x243.7 (4)
0x240|            3b db 75 02                        |    ;.u.        |      [134]: "2001-10-28T03:01:22Z" (1004238082) transition_time 0x244-0x247.7 (4)
0x240|                        3c af c4 92            |        <...    |      [135]: "2002-04-07T04:01:22Z" (1018152082) transition_time 0x248-0x24b.7 (4)
0x240|                                    3d bb 57 02|            =.W.|      [136]: "2002-10-27T03:01:22Z" (1035687682) transition_time 0x24c-0x24f.7 (4)
0x250|3e 8f a6 92                                    |>...            |      [137]: "2003-04-06T04:01:22Z" (1049601682) transition_time 0x250-0x253.7 (4)
0x250|            3f 9b 39 02                        |    ?.9.        |      [138]: "2003-10-26T03:01:22Z" (1067137282) transition_time 0x254-0x257.7 (4)
0x250|                        40 6f 88 92            |        @o..    |      [139]: "2004-04-04T04:01:22Z" (1081051282) transition_time 0x258-0x25b.7 (4)
0x250|                                    41 84 55 82|            A.U.|      [140]: "2004-10-31T03:01:22Z" (1099191682) transition_time 0x25c-0x25f.7 (4)
0x260|42 4f 6a 92                                    |BOj.            |      [141]: "2005-04-03T04:01:22Z" (1112500882) transition_time 0x260-0x263.7 (4)
0x260|            43 64 37 82                        |    Cd7.        |      [142]: "2005-10-30T03:01:22Z" (1130641282) transition_time 0x264-0x267.7 (4)
0x260|                        44 2f 4c 93            |        D/L.    |      [143]: "2006-04-02T04:01:23Z" (1143950483) transition_time 0x268-0x26b.7 (4)
0x260|                                    45 44 19 83|            ED..|      [144]: "2006-10-29T03:01:23Z" (1162090883) transition_time 0x26c-0x26f.7 (4)
0x270|45 f3 9a f7                                    |E...            |      [145]: "2007-03-11T06:00:23Z" (1173592823) transition_time 0x270-0x273.7 (4)
0x270|            47 2d 51 e7                        |    G-Q.        |      [146]: "2007-11-04T05:00:23Z" (1194152423) transition_time 0x274-0x277.7 (4)
0x270|                        47 d3 7c f7            |        G.|.    |      [147]: "2008-03-09T06:00:23Z" (1205042423) transition_time 0x278-0x27b.7 (4)
0x270|                                    49 0d 33 e7|            I.3.|      [148]: "2008-11-02T05:00:23Z" (1225602023) transition_time 0x27c-0x27f.7 (4)
0x280|49 b3 5e f8                                    |I.^.            |      [149]: "2009-03-08T06:00:24Z" (1236492024) transition_time 0x280-0x283.7 (4)
0x280|            4a ed 15 e8                        |    J...        |      [150]: "2009-11-01T05:00:24Z" (1257051624) transition_time 0x284-0x287.7 (4)
0x280|                        4b 9c 7b 78            |        K.{x    |      [151]: "2010-03-14T06:00:24Z" (1268546424) transition_time 0x288-0x28b.7 (4)
0x280|                                    4c d6 32 68|            L.2h|      [152]: "2010-11-07T05:00:24Z" (1289106024) transition_time 0x28c-0x28f.7 (4)
0x290|4d 7c 5d 78                                    |M|]x            |      [153]: "2011-03-13T06:00:24Z" (1299996024) transition_time 0x290-0x293.7 (4)
0x290|            4e b6 14 68                        |    N..h        |      [154]: "2011-11-06T05:00:24Z" (1320555624) transition_time 0x294-0x297.7 (4)
0x290|                        4f 5c 3f 78            |        O\?x    |      [155]: "2012-03-11T06:00:24Z" (1331445624) transition_time 0x298-0x29b.7 (4)
0x290|                                    50 95 f6 69|            P..i|      [156]: "2012-11-04T05:00:25Z" (1352005225) transition_time 0x29c-0x29f.7 (4)
0x2a0|51 3c 21 79                                    |Q<!y            |      [157]: "2013-03-10T06:00:25Z" (1362895225) transition_time 0x2a0-0x2a3.7 (4)
0x2a0|            52 75 d8 69                        |    Ru.i        |      [158]: "2013-11-03T05:00:25Z" (1383454825) transition_time 0x2a4-0x2a7.7 (4)
0x2a0|                        53 1c 03 79            |        S..y    |      [159]: "2014-03-09T06:00:25Z" (1394344825) transition_time 0x2a8-0x2ab.7 (4)
0x2a0|                                    54 55 ba 69|            TU.i|      [160]: "2014-11-02T05:00:25Z" (1414904425) transition_time 0x2ac-0x2af.7 (4)
0x2b0|54 fb e5 79                                    |T..y            |      [161]: "2015-03-08T06:00:25Z" (1425794425) transition_time 0x2b0-0x2b3.7 (4)
0x2b0|            56 35 9c 6a                        |    V5.j        |      [162]: "2015-11-01T05:00:26Z" (1446354026) transition_time 0x2b4-0x2b7.7 (4)
0x2b0|                        56 e5 01 fa            |        V...    |      [163]: "2016-03-13T06:00:26Z" (1457848826) transition_time 0x2b8-0x2bb.7 (4)
0x2b0|                                    58 1e b8 ea|            X...|      [164]: "2016-11-06T05:00:26Z" (1478408426) transition_time 0x2bc-0x2bf.7 (4)
0x2c0|58 c4 e3 fb                                    |X...            |      [165]: "2017-03-12T06:00:27Z" (1489298427) transition_time 0x2c0-0x2c3.7 (4)
0x2c0|            59 fe 9a eb                        |    Y...        |      [166]: "2017-11-05T05:00:27Z" (1509858027) transition_time 0x2c4-0x2c7.7 (4)
0x2c0|                        5a a4 c5 fb            |        Z...    |      [167]: "2018-03-11T06:00:27Z" (1520748027) transition_time 0x2c8-0x2cb.7 (4)
0x2c0|                                    5b de 7c eb|            [.|.|      [168]: "2018-11-04T05:00:27Z" (1541307627) transition_time 0x2cc-0x2cf.7 (4)
0x2d0|5c 84 a7 fb                                    |\...            |      [169]: "2019-03-10T06:00:27Z" (1552197627) transition_time 0x2d0-0x2d3.7 (4)
0x2d0|            5d be 5e eb                        |    ].^.        |      [170]: "2019-11-03T05:00:27Z" (1572757227) transition_time 0x2d4-0x2d7.7 (4)
0x2d0|                        5e 64 89 fb            |        ^d..    |      [171]: "2020-03-08T06:00:27Z" (1583647227) transition_time 0x2d8-0x2db.7 (4)
0x2d0|                                    5f 9e 40 eb|            _.@.|      [172]: "2020-11-01T05:00:27Z" (1604206827) transition_time 0x2dc-0x2df.7 (4)
0x2e0|60 4d a6 7b                                    |`M.{            |      [173]: "2021-03-14T06:00:27Z" (1615701627) transition_time 0x2e0-0x2e3.7 (4)
0x2e0|            61 87 5d 6b                        |    a.]k        |      [174]: "2021-11-07T05:00:27Z" (1636261227) transition_time 0x2e4-0x2e7.7 (4)
0x2e0|                        62 2d 88 7b            |        b-.{    |      [175]: "2022-03-13T06:00:27Z" (1647151227) transition_time 0x2e8-0x2eb.7 (4)
0x2e0|                                    63 67 3f 6b|            cg?k|      [176]: "2022-11-06T05:00:27Z" (1667710827) transition_time 0x2ec-0x2ef.7 (4)
0x2f0|64 0d 6a 7b                                    |d.j{            |      [177]: "2023-03-12T06:00:27Z" (1678600827) transition_time 0x2f0-0x2f3.7 (4)
0x2f0|            64 9b 78 1b                        |    d.x.        |      [178]: "2023-06-28T00:00:27Z" (1687910427) transition_time 0x2f4-0x2f7.7 (4)
     |                                               |                |    transition_types[0:179]: 0x2f8-0x3aa.7 (179)
0x2f0|                        01                     |        .       |      [0]: 1 transition_type 0x2f8-0x2f8.7 (1)
0x2f0|                           03                  |         .      |      [1]: 3 transition_type 0x2f9-0x2f9.7 (1)
0x2f0|                              02               |          .     |      [2]: 2 transition_type 0x2fa-0x2fa.7 (1)
0x2f0|                                 03            |           .    |      [3]: 3 transition_type 0x2fb-0x2fb.7 (1)
0x2f0|                                    02         |            .   |      [4]: 2 transition_type 0x2fc-0x2fc.7 (1)
0x2f0|                                       03      |             .  |      [5]: 3 transition_type 0x2fd-0x2fd.7 (1)
0x2f0|                                          02   |              . |      [6]: 2 transition_type 0x2fe-0x2fe.7 (1)
0x2f0|                                             03|               .|      [7]: 3 transition_type 0x2ff-0x2ff.7 (1)
0x300|02                                             |.               |      [8]: 2 transition_type 0x300-0x300.7 (1)
0x300|   03                                          | .              |      [9]: 3 transition_type 0x301-0x301.7 (1)
0x300|      02                                       |  .             |      [10]: 2 transition_type 0x302-0x302.7 (1)
0x300|         03                                    |   .            |      [11]: 3 transition_type 0x303-0x303.7 (1)
0x300|            02                                 |    .           |      [12]: 2 transition_type 0x304-0x304.7 (1)
0x300|               03                              |     .          |      [13]: 3 transition_type 0x305-0x305.7 (1)
0x300|                  02                           |      .         |      [14]: 2 transition_type 0x306-0x306.7 (1)
0x300|                     03                        |       .        |      [15]: 3 transition_type 0x307-0x307.7 (1)
0x300|                        02                     |        .       |      [16]: 2 transition_type 0x308-0x308.7 (1)
0x300|                           03                  |         .      |      [17]: 3 transition_type 0x309-0x309.7 (1)
0x300|                              02               |          .     |      [18]: 2 transition_type 0x30a-0x30a.7 (1)
0x300|                                 03            |           .    |      [19]: 3 transition_type 0x30b-0x30b.7 (1)
0x300|                                    02         |            .   |      [20]: 2 transition_type 0x30c-0x30c.7 (1)
0x300|                                       03      |             .  |      [21]: 3 transition_type 0x30d-0x30d.7 (1)
0x300|                                          04   |              . |      [22]: 4 transition_type 0x30e-0x30e.7 (1)
0x300|                                             05|               .|      [23]: 5 transition_type 0x30f-0x30f.7 (1)
0x310|03                                             |.               |      [24]: 3 transition_type 0x310-0x310.7 (1)
0x310|   02                                          | .              |      [25]: 2 transition_type 0x311-0x311.7 (1)
0x310|      03                                       |  .             |      [26]: 3 transition_type 0x312-0x312.7 (1)
0x310|         02                                    |   .            |      [27]: 2 transition_type 0x313-0x313.7 (1)
0x310|            03                                 |    .           |      [28]: 3 transition_type 0x314-0x314.7 (1)
0x310|               02                              |     .          |      [29]: 2 transition_type 0x315-0x315.7 (1)
0x310|                  03                           |      .         |      [30]: 3 transition_type 0x316-0x316.7 (1)
0x310|                     02                        |       .        |      [31]: 2 transition_type 0x317-0x317.7 (1)
0x310|                        03                     |        .       |      [32]: 3 transition_type 0x318-0x318.7 (1)
0x310|                           02                  |         .      |      [33]: 2 transition_type 0x319-0x319.7 (1)
0x310|                              03               |          .     |      [34]: 3 transition_type 0x31a-0x31a.7 (1)
0x310|                                 02            |           .    |      [35]: 2 transition_type 0x31b-0x31b.7 (1)
0x310|                                    03         |            .   |      [36]: 3 transition_type 0x31c-0x31c.7 (1)
0x310|                                       02      |             .  |      [37]: 2 transition_type 0x31d-0x31d.7 (1)
0x310|                                          03   |              . |      [38]: 3 transition_type 0x31e-0x31e.7 (1)
0x310|                                             02|               .|      [39]: 2 transition_type 0x31f-0x31f.7 (1)
0x320|03                                             |.               |      [40]: 3 transition_type 0x320-0x320.7 (1)
0x320|   02                                          | .              |      [41]: 2 transition_type 0x321-0x321.7 (1)
0x320|      03                                       |  .             |      [42]: 3 transition_type 0x322-0x322.7 (1)
0x320|         02                                    |   .            |      [43]: 2 transition_type 0x323-0x323.7 (1)
0x320|            03                                 |    .           |      [44]: 3 transition_type 0x324-0x324.7 (1)
0x320|               02                              |     .          |      [45]: 2 transition_type 0x325-0x325.7 (1)
0x320|                  03                           |      .         |      [46]: 3 transition_type 0x326-0x326.7 (1)
0x320|                     02                        |       .        |      [47]: 2 transition_type 0x327-0x327.7 (1)
0x320|                        03                     |        .       |      [48]: 3 transition_type 0x328-0x328.7 (1)
0x320|                           02                  |         .      |      [49]: 2 transition_type 0x329-0x329.7 (1)
0x320|                              03               |          .     |      [50]: 3 transition_type 0x32a-0x32a.7 (1)
0x320|                                 02            |           .    |      [51]: 2 transition_type 0x32b-0x32b.7 (1)
0x320|                                    03         |            .   |      [52]: 3 transition_type 0x32c-0x32c.7 (1)
0x320|                                       02      |             .  |      [53]: 2 transition_type 0x32d-0x32d.7 (1)
0x320|                                          03   |              . |      [54]: 3 transition_type 0x32e-0x32e.7 (1)
0x320|                                             02|               .|      [55]: 2 transition_type 0x32f-0x32f.7 (1)
0x330|03                                             |.               |      [56]: 3 transition_type 0x330-0x330.7 (1)
0x330|   02                                          | .              |      [57]: 2 transition_type 0x331-0x331.7 (1)
0x330|      03                                       |  .             |      [58]: 3 transition_type 0x332-0x332.7 (1)
0x330|         02                                    |   .            |      [59]: 2 transition_type 0x333-0x333.7 (1)
0x330|            03                                 |    .           |      [60]: 3 transition_type 0x334-0x334.7 (1)
0x330|               02                              |     .          |      [61]: 2 transition_type 0x335-0x335.7 (1)
0x330|                  03                           |      .         |      [62]: 3 transition_type 0x336-0x336.7 (1)
0x330|                     02                        |       .        |      [63]: 2 transition_type 0x337-0x337.7 (1)
0x330|                        03                     |        .       |      [64]: 3 transition_type 0x338-0x338.7 (1)
0x330|                           02                  |         .      |      [65]: 2 transition_type 0x339-0x339.7 (1)
0x330|                              03               |          .     |      [66]: 3 transition_type 0x33a-0x33a.7 (1)
0x330|                                 02            |           .    |      [67]: 2 transition_type 0x33b-0x33b.7 (1)
0x330|                                    03         |            .   |      [68]: 3 transition_type 0x33c-0x33c.7 (1)
0x330|                                       02      |             .  |      [69]: 2 transition_type 0x33d-0x33d.7 (1)
0x330|                                          03   |              . |      [70]: 3 transition_type 0x33e-0x33e.7 (1)
0x330|                                             02|               .|      [71]: 2 transition_type 0x33f-0x33f.7 (1)
0x340|03                                             |.               |      [72]: 3 transition_type 0x340-0x340.7 (1)
0x340|   02                                          | .              |      [73]: 2 transition_type 0x341-0x341.7 (1)
0x340|      03                                       |  .             |      [74]: 3 transition_type 0x342-0x342.7 (1)
0x340|         02                                    |   .            |      [75]: 2 transition_type 0x343-0x343.7 (1)
0x340|            03                                 |    .           |      [76]: 3 transition_type 0x344-0x344.7 (1)
0x340|               02                              |     .          |      [77]: 2 transition_type 0x345-0x345.7 (1)
0x340|                  03                           |      .         |      [78]: 3 transition_type 0x346-0x346.7 (1)
0x340|                     02                        |       .        |      [79]: 2 transition_type 0x347-0x347.7 (1)
0x340|                        03                     |        .       |      [80]: 3 transition_type 0x348-0x348.7 (1)
0x340|                           02                  |         .      |      [81]: 2 transition_type 0x349-0x349.7 (1)
0x340|                              03               |          .     |      [82]: 3 transition_type 0x34a-0x34a.7 (1)
0x340|                                 02            |           .    |      [83]: 2 transition_type 0x34b-0x34b.7 (1)
0x340|                                    03         |            .   |      [84]: 3 transition_type 0x34c-0x34c.7 (1)
0x340|                                       02      |             .  |      [85]: 2 transition_type 0x34d-0x34d.7 (1)
0x340|                                          03   |              . |      [86]: 3 transition_type 0x34e-0x34e.7 (1)
0x340|                                             02|               .|      [87]: 2 transition_type 0x34f-0x34f.7 (1)
0x350|03                                             |.               |      [88]: 3 transition_type 0x350-0x350.7 (1)
0x350|   02                                          | .              |      [89]: 2 transition_type 0x351-0x351.7 (1)
0x350|      03                                       |  .             |      [90]: 3 transition_type 0x352-0x352.7 (1)
0x350|         02                                    |   .            |      [91]: 2 transition_type 0x353-0x353.7 (1)
0x350|            03                                 |    .           |      [92]: 3 transition_type 0x354-0x354.7 (1)
0x350|               02                              |     .          |      [93]: 2 transition_type 0x355-0x355.7 (1)
0x350|                  03                           |      .         |      [94]: 3 transition_type 0x356-0x356.7 (1)
0x350|                     02                        |       .        |      [95]: 2 transition_type 0x357-0x357.7 (1)
0x350|                        03                     |        .       |      [96]: 3 transition_type 0x358-0x358.7 (1)
0x350|                           02                  |         .      |      [97]: 2 transition_type 0x359-0x359.7 (1)
0x350|                              03               |          .     |      [98]: 3 transition_type 0x35a-0x35a.7 (1)
0x350|                                 02            |           .    |      [99]: 2 transition_type 0x35b-0x35b.7 (1)
0x350|                                    03         |            .   |      [100]: 3 transition_type 0x35c-0x35c.7 (1)
0x350|                                       02      |             .  |      [101]: 2 transition_type 0x35d-0x35d.7 (1)
0x350|                                          03   |              . |      [102]: 3 transition_type 0x35e-0x35e.7 (1)
0x350|                                             02|               .|      [103]: 2 transition_type 0x35f-0x35f.7 (1)
0x360|03                                             |.               |      [104]: 3 transition_type 0x360-0x360.7 (1)
0x360|   02                                          | .              |      [105]: 2 transition_type 0x361-0x361.7 (1)
0x360|      03                                       |  .             |      [106]: 3 transition_type 0x362-0x362.7 (1)
0x360|         02                                    |   .            |      [107]: 2 transition_type 0x363-0x363.7 (1)
0x360|            03                                 |    .           |      [108]: 3 transition_type 0x364-0x364.7 (1)
0x360|               02                              |     .          |      [109]: 2 transition_type 0x365-0x365.7 (1)
0x360|                  03                           |      .         |      [110]: 3 transition_type 0x366-0x366.7 (1)
0x360|                     02                        |       .        |      [111]: 2 transition_type 0x367-0x367.7 (1)
0x360|                        03                     |        .       |      [112]: 3 transition_type 0x368-0x368.7 (1)
0x360|                           02                  |         .      |      [113]: 2 transition_type 0x369-0x369.7 (1)
0x360|                              03               |          .     |      [114]: 3 transition_type 0x36a-0x36a.7 (1)
0x360|                                 02            |           .    |      [115]: 2 transition_type 0x36b-0x36b.7 (1)
0x360|                                    03         |            .   |      [116]: 3 transition_type 0x36c-0x36c.7 (1)
0x360|                                       02      |             .  |      [117]: 2 transition_type 0x36d-0x36d.7 (1)
0x360|                                          03   |              . |      [118]: 3 transition_type 0x36e-0x36e.7 (1)
0x360|                                             02|               .|      [119]: 2 transition_type 0x36f-0x36f.7 (1)
0x370|03                                             |.               |      [120]: 3 transition_type 0x370-0x370.7 (1)
0x370|   02                                          | .              |      [121]: 2 transition_type 0x371-0x371.7 (1)
0x370|      03                                       |  .             |      [122]: 3 transition_type 0x372-0x372.7 (1)
0x370|         02                                    |   .            |      [123]: 2 transition_type 0x373-0x373.7 (1)
0x370|            03                                 |    .           |      [124]: 3 transition_type 0x374-0x374.7 (1)
0x370|               02                              |     .          |      [125]: 2 transition_type 0x375-0x375.7 (1)
0x370|                  03                           |      .         |      [126]: 3 transition_type 0x376-0x376.7 (1)
0x370|                     02                        |       .        |      [127]: 2 transition_type 0x377-0x377.7 (1)
0x370|                        03                     |        .       |      [128]: 3 transition_type 0x378-0x378.7 (1)
0x370|                           02                  |         .      |      [129]: 2 transition_type 0x379-0x379.7 (1)
0x370|                              03               |          .     |      [130]: 3 transition_type 0x37a-0x37a.7 (1)
0x370|                                 02            |           .    |      [131]: 2 transition_type 0x37b-0x37b.7 (1)
0x370|                                    03         |            .   |      [132]: 3 transition_type 0x37c-0x37c.7 (1)
0x370|                                       02      |             .  |      [133]: 2 transition_type 0x37d-0x37d.7 (1)
0x370|                                          03   |              . |      [134]: 3 transition_type 0x37e-0x37e.7 (1)
0x370|                                             02|               .|      [135]: 2 transition_type 0x37f-0x37f.7 (1)
0x380|03                                             |.               |      [136]: 3 transition_type 0x380-0x380.7 (1)
0x380|   02                                          | .              |      [137]: 2 transition_type 0x381-0x381.7 (1)
0x380|      03                                       |  .             |      [138]: 3 transition_type 0x382-0x382.7 (1)
0x380|         02                                    |   .            |      [139]: 2 transition_type 0x383-0x383.7 (1)
0x380|            03                                 |    .           |      [140]: 3 transition_type 0x384-0x384.7 (1)
0x380|               02                              |     .          |      [141]: 2 transition_type 0x385-0x385.7 (1)
0x380|                  03                           |      .         |      [142]: 3 transition_type 0x386-0x386.7 (1)
0x380|                     02                        |       .        |      [143]: 2 transition_type 0x387-0x387.7 (1)
0x380|                        03                     |        .       |      [144]: 3 transition_type 0x388-0x388.7 (1)
0x380|                           02                  |         .      |      [145]: 2 transition_type 0x389-0x389.7 (1)
0x380|                              03               |          .     |      [146]: 3 transition_type 0x38a-0x38a.7 (1)
0x380|                                 02            |           .    |      [147]: 2 transition_type 0x38b-0x38b.7 (1)
0x380|                                    03         |            .   |      [148]: 3 transition_type 0x38c-0x38c.7 (1)
0x380|                                       02      |             .  |      [149]: 2 transition_type 0x38d-0x38d.7 (1)
0x380|                                          03   |              . |      [150]: 3 transition_type 0x38e-0x38e.7 (1)
0x380|                                             02|               .|      [151]: 2 transition_type 0x38f-0x38f.7 (1)
0x390|03                                             |.               |      [152]: 3 transition_type 0x390-0x390.7 (1)
0x390|   02                                          | .              |      [153]: 2 transition_type 0x391-0x391.7 (1)
0x390|      03                                       |  .             |      [154]: 3 transition_type 0x392-0x392.7 (1)
0x390|         02                                    |   .            |      [155]: 2 transition_type 0x393-0x393.7 (1)
0x390|            03                                 |    .           |      [156]: 3 transition_type 0x394-0x394.7 (1)
0x390|               02                              |     .          |      [157]: 2 transition_type 0x395-0x395.7 (1)
0x390|                  03                           |      .         |      [158]: 3 transition_type 0x396-0x396.7 (1)
0x390|                     02                        |       .        |      [159]: 2 transition_type 0x397-0x397.7 (1)
0x390|                        03                     |        .       |      [160]: 3 transition_type 0x398-0x398.7 (1)
0x390|                           02                  |         .      |      [161]: 2 transition_type 0x399-0x399.7 (1)
0x390|                              03               |          .     |      [162]: 3 transition_type 0x39a-0x39a.7 (1)
0x390|                                 02            |           .    |      [163]: 2 transition_type 0x39b-0x39b.7 (1)
0x390|                                    03         |            .   |      [164]: 3 transition_type 0x39c-0x39c.7 (1)
0x390|                                       02      |             .  |      [165]: 2 transition_type 0x39d-0x39d.7 (1)
0x390|                                          03   |              . |      [166]: 3 transition_type 0x39e-0x39e.7 (1)
0x390|                                             02|               .|      [167]: 2 transition_type 0x39f-0x39f.7 (1)
0x3a0|03                                             |.               |      [168]: 3 transition_type 0x3a0-0x3a0.7 (1)
0x3a0|   02                                          | .              |      [169]: 2 transition_type 0x3a1-0x3a1.7 (1)
0x3a0|      03                                       |  .             |      [170]: 3 transition_type 0x3a2-0x3a2.7 (1)
0x3a0|         02                                    |   .            |      [171]: 2 transition_type 0x3a3-0x3a3.7 (1)
0x3a0|            03                                 |    .           |      [172]: 3 transition_type 0x3a4-0x3a4.7 (1)
0x3a0|               02                              |     .          |      [173]: 2 transition_type 0x3a5-0x3a5.7 (1)
0x3a0|                  03                           |      .         |      [174]: 3 transition_type 0x3a6-0x3a6.7 (1)
0x3a0|                     02                        |       .        |      [175]: 2 transition_type 0x3a7-0x3a7.7 (1)
0x3a0|                        03                     |        .       |      [176]: 3 transition_type 0x3a8-0x3a8.7 (1)
0x3a0|                           02                  |         .      |      [177]: 2 transition_type 0x3a9-0x3a9.7 (1)
0x3a0|                              02               |          .     |      [178]: 2 transition_type 0x3aa-0x3aa.7 (1)
     |                                               |                |    local_time_type_records[0:6]: 0x3ab-0x3ce.7 (36)
     |                                               |                |      [0]{}: local_time_type 0x3ab-0x3b0.7 (6)
0x3a0|                                 ff ff c3 44   |           ...D |        utoff: -15548 (valid) 0x3ab-0x3ae.7 (4)
0x3a0|                                             00|               .|        dst: 0 (valid) 0x3af-0x3af.7 (1)
0x3b0|00                                             |.               |        idx: 0 (valid) 0x3b0-0x3b0.7 (1)
     |                                               |                |      [1]{}: local_time_type 0x3b1-0x3b6.7 (6)
0x3b0|   ff ff b9 b0                                 | ....           |        utoff: -18000 (valid) 0x3b1-0x3b4.7 (4)
0x3b0|               00                              |     .          |        dst: 0 (valid) 0x3b5-0x3b5.7 (1)
0x3b0|                  04                           |      .         |        idx: 4 (valid) 0x3b6-0x3b6.7 (1)
     |                                               |                |      [2]{}: local_time_type 0x3b7-0x3bc.7 (6)
0x3b0|                     ff ff d5 d0               |       ....     |        utoff: -10800 (valid) 0x3b7-0x3ba.7 (4)
0x3b0|                                 01            |           .    |        dst: 1 (valid) 0x3bb-0x3bb.7 (1)
0x3b0|                                    08         |            .   |        idx: 8 (valid) 0x3bc-0x3bc.7 (1)
     |                                               |                |      [3]{}: local_time_type 0x3bd-0x3c2.7 (6)
0x3b0|                                       ff ff c7|             ...|        utoff: -14400 (valid) 0x3bd-0x3c0.7 (4)
0x3c0|c0                                             |.               |
0x3c0|   00                                          | .              |        dst: 0 (valid) 0x3c1-0x3c1.7 (1)
0x3c0|      0c                                       |  .             |        idx: 12 (valid) 0x3c2-0x3c2.7 (1)
     |                                               |                |      [4]{}: local_time_type 0x3c3-0x3c8.7 (6)
0x3c0|         ff ff d5 d0                           |   ....         |        utoff: -10800 (valid) 0x3c3-0x3c6.7 (4)
0x3c0|                     01                        |       .        |        dst: 1 (valid) 0x3c7-0x3c7.7 (1)
0x3c0|                        10                     |        .       |        idx: 16 (valid) 0x3c8-0x3c8.7 (1)
     |                                               |                |      [5]{}: local_time_type 0x3c9-0x3ce.7 (6)
0x3c0|                           ff ff d5 d0         |         ....   |        utoff: -10800 (valid) 0x3c9-0x3cc.7 (4)
0x3c0|                                       01      |             .  |        dst: 1 (valid) 0x3cd-0x3cd.7 (1)
0x3c0|                                          14   |              . |        idx: 20 (valid) 0x3ce-0x3ce.7 (1)
     |                                               |                |    time_zone_designations[0:6]: 0x3cf-0x3e6.7 (24)
0x3c0|                                             4c|               L|      [0]: "LMT" time_zone_designation 0x3cf-0x3d2.7 (4)
0x3d0|4d 54 00                                       |MT.             |
0x3d0|         45 53 54 00                           |   EST.         |      [1]: "EST" time_zone_designation 0x3d3-0x3d6.7 (4)
0x3d0|                     41 44 54 00               |       ADT.     |      [2]: "ADT" time_zone_designation 0x3d7-0x3da.7 (4)
0x3d0|                                 41 53 54 00   |           AST. |      [3]: "AST" time_zone_designation 0x3db-0x3de.7 (4)
0x3d0|                                             41|               A|      [4]: "AWT" time_zone_designation 0x3df-0x3e2.7 (4)
0x3e0|57 54 00                                       |WT.             |
0x3e0|         41 50 54 00                           |   APT.         |      [5]: "APT" time_zone_designation 0x3e3-0x3e6.7 (4)
     |                                               |                |    leap_second_records[0:27]: 0x3e7-0x4be.7 (216)
     |                                               |                |      [0]{}: leap_second_record 0x3e7-0x3ee.7 (8)
0x3e0|                     04 b2 58 00               |       ..X.     |        occur: "1972-07-01T00:00:00Z" (78796800) 0x3e7-0x3ea.7 (4)
0x3e0|                                 00 00 00 01   |           .... |        corr: 1 0x3eb-0x3ee.7 (4)
     |                                               |                |      [1]{}: leap_second_record 0x3ef-0x3f6.7 (8)
0x3e0|                                             05|               .|        occur: "1973-01-01T00:00:01Z" (94694401) 0x3ef-0x3f2.7 (4)
0x3f0|a4 ec 01                                       |...             |
0x3f0|         00 00 00 02                           |   ....         |        corr: 2 0x3f3-0x3f6.7 (4)
     |                                               |                |      [2]{}: leap_second_record 0x3f7-0x3fe.7 (8)
0x3f0|                     07 86 1f 82               |       ....     |        occur: "1974-01-01T00:00:02Z" (126230402) 0x3f7-0x3fa.7 (4)
0x3f0|                                 00 00 00 03   |           .... |        corr: 3 0x3fb-0x3fe.7 (4)
     |                                               |                |      [3]{}: leap_second_record 0x3ff-0x406.7 (8)
0x3f0|                                             09|               .|        occur: "1975-01-01T00:00:03Z" (157766403) 0x3ff-0x402.7 (4)
0x400|67 53 03                                       |gS.             |
0x400|         00 00 00 04                           |   ....         |        corr: 4 0x403-0x406.7 (4)
     |                                               |                |      [4]{}: leap_second_record 0x407-0x40e.7 (8)
0x400|                     0b 48 86 84               |       .H..     |        occur: "1976-01-01T00:00:04Z" (189302404) 0x407-0x40a.7 (4)
0x400|                                 00 00 00 05   |           .... |        corr: 5 0x40b-0x40e.7 (4)
     |                                               |                |      [5]{}: leap_second_record 0x40f-0x416.7 (8)
0x400|                                             0d|               .|        occur: "1977-01-01T00:00:05Z" (220924805) 0x40f-0x412.7 (4)
0x410|2b 0b 85                                       |+..             |
0x410|         00 00 00 06                           |   ....         |        corr: 6 0x413-0x416.7 (4)
     |                                               |                |      [6]{}: leap_second_record 0x417-0x41e.7 (8)
0x410|                     0f 0c 3f 06               |       ..?.     |        occur: "1978-01-01T00:00:06Z" (252460806) 0x417-0x41a.7 (4)
0x410|                                 00 00 00 07   |           .... |        corr: 7 0x41b-0x41e.7 (4)
     |                                               |                |      [7]{}: leap_second_record 0x41f-0x426.7 (8)
0x410|                                             10|               .|        occur: "1979-01-01T00:00:07Z" (283996807) 0x41f-0x422.7 (4)
0x420|ed 72 87                                       |.r.             |
0x420|         00 00 00 08                           |   ....         |        corr: 8 0x423-0x426.7 (4)
     |                                               |                |      [8]{}: leap_second_record 0x427-0x42e.7 (8)
0x420|                     12 ce a6 08               |       ....     |        occur: "1980-01-01T00:00:08Z" (315532808) 0x427-0x42a.7 (4)
0x420|                                 00 00 00 09   |           .... |        corr: 9 0x42b-0x42e.7 (4)
     |                                               |                |      [9]{}: leap_second_record 0x42f-0x436.7 (8)
0x420|                                             15|               .|        occur: "1981-07-01T00:00:09Z" (362793609) 0x42f-0x432.7 (4)
0x430|9f ca 89                                       |...             |
0x430|         00 00 00 0a                           |   ....         |        corr: 10 0x433-0x436.7 (4)
     |                                               |                |      [10]{}: leap_second_record 0x437-0x43e.7 (8)
0x430|                     17 80 fe 0a               |       ....     |        occur: "1982-07-01T00:00:10Z" (394329610) 0x437-0x43a.7 (4)
0x430|                                 00 00 00 0b   |           .... |        corr: 11 0x43b-0x43e.7 (4)
     |                                               |                |      [11]{}: leap_second_record 0x43f-0x446.7 (8)
0x430|                                             19|               .|        occur: "1983-07-01T00:00:11Z" (425865611) 0x43f-0x442.7 (4)
0x440|62 31 8b                                       |b1.             |
0x440|         00 00 00 0c                           |   ....         |        corr: 12 0x443-0x446.7 (4)
     |                                               |                |      [12]{}: leap_second_record 0x447-0x44e.7 (8)
0x440|                     1d 25 ea 0c               |       .%..     |        occur: "1985-07-01T00:00:12Z" (489024012) 0x447-0x44a.7 (4)
0x440|                                 00 00 00 0d   |           .... |        corr: 13 0x44b-0x44e.7 (4)
     |                                               |                |      [13]{}: leap_second_record 0x44f-0x456.7 (8)
0x440|                                             21|               !|        occur: "1988-01-01T00:00:13Z" (567993613) 0x44f-0x452.7 (4)
0x450|da e5 0d                                       |...             |
0x450|         00 00 00 0e                           |   ....         |        corr: 14 0x453-0x456.7 (4)
     |                                               |                |      [14]{}: leap_second_record 0x457-0x45e.7 (8)
0x450|                     25 9e 9d 8e               |       %...     |        occur: "1990-01-01T00:00:14Z" (631152014) 0x457-0x45a.7 (4)
0x450|                                 00 00 00 0f   |           .... |        corr: 15 0x45b-0x45e.7 (4)
     |                                               |                |      [15]{}: leap_second_record 0x45f-0x466.7 (8)
0x450|                                             27|               '|        occur: "1991-01-01T00:00:15Z" (662688015) 0x45f-0x462.7 (4)
0x460|7f d1 0f                                       |...             |
0x460|         00 00 00 10                           |   ....         |        corr: 16 0x463-0x466.7 (4)
     |                                               |                |      [16]{}: leap_second_record 0x467-0x46e.7 (8)
0x460|                     2a 50 f5 90               |       *P..     |        occur: "1992-07-01T00:00:16Z" (709948816) 0x467-0x46a.7 (4)
0x460|                                 00 00 00 11   |           .... |        corr: 17 0x46b-0x46e.7 (4)
     |                                               |                |      [17]{}: leap_second_record 0x46f-0x476.7 (8)
0x460|                                             2c|               ,|        occur: "1993-07-01T00:00:17Z" (741484817) 0x46f-0x472.7 (4)
0x470|32 29 11                                       |2).             |
0x470|         00 00 00 12                           |   ....         |        corr: 18 0x473-0x476.7 (4)
     |                                               |                |      [18]{}: leap_second_record 0x477-0x47e.7 (8)
0x470|                     2e 13 5c 92               |       ..\.     |        occur: "1994-07-01T00:00:18Z" (773020818) 0x477-0x47a.7 (4)
0x470|                                 00 00 00 13   |           .... |        corr: 19 0x47b-0x47e.7 (4)
     |                                               |                |      [19]{}: leap_second_record 0x47f-0x486.7 (8)
0x470|                                             30|               0|        occur: "1996-01-01T00:00:19Z" (820454419) 0x47f-0x482.7 (4)
0x480|e7 24 13                                       |.$.             |
0x480|         00 00 00 14                           |   ....         |        corr: 20 0x483-0x486.7 (4)
     |                                               |                |      [20]{}: leap_second_record 0x487-0x48e.7 (8)
0x480|                     33 b8 48 94               |       3.H.     |        occur: "1997-07-01T00:00:20Z" (867715220) 0x487-0x48a.7 (4)
0x480|                                 00 00 00 15   |           .... |        corr: 21 0x48b-0x48e.7 (4)
     |                                               |                |      [21]{}: leap_second_record 0x48f-0x496.7 (8)
0x480|                                             36|               6|        occur: "1999-01-01T00:00:21Z" (915148821) 0x48f-0x492.7 (4)
0x490|8c 10 15                                       |...             |
0x490|         00 00 00 16                           |   ....         |        corr: 22 0x493-0x496.7 (4)
     |                                               |                |      [22]{}: leap_second_record 0x497-0x49e.7 (8)
0x490|                     43 b7 1b 96               |       C...     |        occur: "2006-01-01T00:00:22Z" (1136073622) 0x497-0x49a.7 (4)
0x490|                                 00 00 00 17   |           .... |        corr: 23 0x49b-0x49e.7 (4)
     |                                               |                |      [23]{}: leap_second_record 0x49f-0x4a6.7 (8)
0x490|                                             49|               I|        occur: "2009-01-01T00:00:23Z" (1230768023) 0x49f-0x4a2.7 (4)
0x4a0|5c 07 97                                       |\..             |
0x4a0|         00 00 00 18                           |   ....         |        corr: 24 0x4a3-0x4a6.7 (4)
     |                                               |                |      [24]{}: leap_second_record 0x4a7-0x4ae.7 (8)
0x4a0|                     4f ef 93 18               |       O...     |        occur: "2012-07-01T00:00:24Z" (1341100824) 0x4a7-0x4aa.7 (4)
0x4a0|                                 00 00 00 19   |           .... |        corr: 25 0x4ab-0x4ae.7 (4)
     |                                               |                |      [25]{}: leap_second_record 0x4af-0x4b6.7 (8)
0x4a0|                                             55|               U|        occur: "2015-07-01T00:00:25Z" (1435708825) 0x4af-0x4b2.7 (4)
0x4b0|93 2d 99                                       |.-.             |
0x4b0|         00 00 00 1a                           |   ....         |        corr: 26 0x4b3-0x4b6.7 (4)
     |                                               |                |      [26]{}: leap_second_record 0x4b7-0x4be.7 (8)
0x4b0|                     58 68 46 9a               |       XhF.     |        occur: "2017-01-01T00:00:26Z" (1483228826) 0x4b7-0x4ba.7 (4)
0x4b0|                                 00 00 00 1b   |           .... |        corr: 27 0x4bb-0x4be.7 (4)
     |                                               |                |    standard_wall_indicators[0:6]: 0x4bf-0x4c4.7 (6)
0x4b0|                                             00|               .|      [0]: 0 standard_wall_indicator (valid) 0x4bf-0x4bf.7 (1)
0x4c0|00                                             |.               |      [1]: 0 standard_wall_indicator (valid) 0x4c0-0x4c0.7 (1)
0x4c0|   00                                          | .              |      [2]: 0 standard_wall_indicator (valid) 0x4c1-0x4c1.7 (1)
0x4c0|      00                                       |  .             |      [3]: 0 standard_wall_indicator (valid) 0x4c2-0x4c2.7 (1)
0x4c0|         00                                    |   .            |      [4]: 0 standard_wall_indicator (valid) 0x4c3-0x4c3.7 (1)
0x4c0|            01                                 |    .           |      [5]: 1 standard_wall_indicator (valid) 0x4c4-0x4c4.7 (1)
     |                                               |                |    ut_local_indicators[0:6]: 0x4c5-0x4ca.7 (6)
0x4c0|               00                              |     .          |      [0]: 0 ut_local_indicator (valid) 0x4c5-0x4c5.7 (1)
0x4c0|                  00                           |      .         |      [1]: 0 ut_local_indicator (valid) 0x4c6-0x4c6.7 (1)
0x4c0|                     00                        |       .        |      [2]: 0 ut_local_indicator (valid) 0x4c7-0x4c7.7 (1)
0x4c0|                        00                     |        .       |      [3]: 0 ut_local_indicator (valid) 0x4c8-0x4c8.7 (1)
0x4c0|                           00                  |         .      |      [4]: 0 ut_local_indicator (valid) 0x4c9-0x4c9.7 (1)
0x4c0|                              01               |          .     |      [5]: 1 ut_local_indicator (valid) 0x4ca-0x4ca.7 (1)
     |                                               |                |  v2plusheader{}: 0x4cb-0x4f6.7 (44)
0x4c0|                                 54 5a 69 66   |           TZif |    magic: 0x545a6966 (valid) 0x4cb-0x4ce.7 (4)
0x4c0|                                             32|               2|    ver: "2" (0x32) (valid) 0x4cf-0x4cf.7 (1)
0x4d0|00 00 00 00 00 00 00 00 00 00 00 00 00 00 00   |............... |    reserved: raw bits 0x4d0-0x4de.7 (15)
0x4d0|                                             00|               .|    isutcnt: 6 0x4df-0x4e2.7 (4)
0x4e0|00 00 06                                       |...             |
0x4e0|         00 00 00 06                           |   ....         |    isstdcnt: 6 0x4e3-0x4e6.7 (4)
0x4e0|                     00 00 00 1b               |       ....     |    leapcnt: 27 0x4e7-0x4ea.7 (4)
0x4e0|                                 00 00 00 b3   |           .... |    timecnt: 179 0x4eb-0x4ee.7 (4)
0x4e0|                                             00|               .|    typecnt: 6 0x4ef-0x4f2.7 (4)
0x4f0|00 00 06                                       |...             |
0x4f0|         00 00 00 18                           |   ....         |    charcnt: 24 0x4f3-0x4f6.7 (4)
     |                                               |                |  v2plusdatablock{}: 0x4f7-0xccd.7 (2007)
     |                                               |                |    transition_times[0:179]: 0x4f7-0xa8e.7 (1432)
0x4f0|                     ff ff ff ff 5e 1e ed bc   |       ....^... |      [0]: "1883-12-09T04:19:08Z" (-2715882052) transition_time 0x4f7-0x4fe.7 (8)
0x4f0|                                             ff|               .|      [1]: "1902-06-15T05:00:00Z" (-2131642800) transition_time 0x4ff-0x506.7 (8)
0x500|ff ff ff 80 f1 b6 50                           |......P         |
0x500|                     ff ff ff ff 9e b8 85 60   |       .......` |      [2]: "1918-04-14T06:00:00Z" (-1632074400) transition_time 0x507-0x50e.7 (8)
0x500|                                             ff|               .|      [3]: "1918-10-27T05:00:00Z" (-1615143600) transition_time 0x50f-0x516.7 (8)
0x510|ff ff ff 9f ba dd 50                           |......P         |
0x510|                     ff ff ff ff bb 3c 38 d0   |       .....<8. |      [4]: "1933-06-11T05:00:00Z" (-1153681200) transition_time 0x517-0x51e.7 (8)
0x510|                                             ff|               .|      [5]: "1933-09-10T04:00:00Z" (-1145822400) transition_time 0x51f-0x526.7 (8)
0x520|ff ff ff bb b4 23 40                           |.....#@         |
0x520|                     ff ff ff ff bd 1c 1a d0   |       ........ |      [6]: "1934-06-10T05:00:00Z" (-1122231600) transition_time 0x527-0x52e.7 (8)
0x520|                                             ff|               .|      [7]: "1934-09-09T04:00:00Z" (-1114372800) transition_time 0x52f-0x536.7 (8)
0x530|ff ff ff bd 94 05 40                           |......@         |
0x530|                     ff ff ff ff be fb fc d0   |       ........ |      [8]: "1935-06-09T05:00:00Z" (-1090782000) transition_time 0x537-0x53e.7 (8)
0x530|                                             ff|               .|      [9]: "1935-09-08T04:00:00Z" (-1082923200) transition_time 0x53f-0x546.7 (8)
0x540|ff ff ff bf 73 e7 40                           |....s.@         |
0x540|                     ff ff ff ff c0 db de d0   |       ........ |      [10]: "1936-06-07T05:00:00Z" (-1059332400) transition_time 0x547-0x54e.7 (8)
0x540|                                             ff|               .|      [11]: "1936-09-06T04:00:00Z" (-1051473600) transition_time 0x54f-0x556.7 (8)
0x550|ff ff ff c1 53 c9 40                           |....S.@         |
0x550|                     ff ff ff ff c2 bb c0 d0   |       ........ |      [12]: "1937-06-06T05:00:00Z" (-1027882800) transition_time 0x557-0x55e.7 (8)
0x550|                                             ff|               .|      [13]: "1937-09-05T04:00:00Z" (-1020024000) transition_time 0x55f-0x566.7 (8)
0x560|ff ff ff c3 33 ab 40                           |....3.@         |
0x560|                     ff ff ff ff c4 9b a2 d0   |       ........ |      [14]: "1938-06-05T05:00:00Z" (-996433200) transition_time 0x567-0x56e.7 (8)
0x560|                                             ff|               .|      [15]: "1938-09-04T04:00:00Z" (-988574400) transition_time 0x56f-0x576.7 (8)
0x570|ff ff ff c5 13 8d 40                           |......@         |
0x570|                     ff ff ff ff c6 70 f8 d0   |       .....p.. |      [16]: "1939-05-27T05:00:00Z" (-965674800) transition_time 0x577-0x57e.7 (8)
0x570|                                             ff|               .|      [17]: "1939-09-23T04:00:00Z" (-955396800) transition_time 0x57f-0x586.7 (8)
0x580|ff ff ff c7 0d cd 40                           |......@         |
0x580|                     ff ff ff ff c8 48 f1 d0   |       .....H.. |      [18]: "1940-05-19T05:00:00Z" (-934743600) transition_time 0x587-0x58e.7 (8)
0x580|                                             ff|               .|      [19]: "1940-09-21T04:00:00Z" (-923947200) transition_time 0x58f-0x596.7 (8)
0x590|ff ff ff c8 ed af 40                           |......@         |
0x590|                     ff ff ff ff ca 16 5e d0   |       ......^. |      [20]: "1941-05-04T05:00:00Z" (-904503600) transition_time 0x597-0x59e.7 (8)
0x590|                                             ff|               .|      [21]: "1941-09-27T04:00:00Z" (-891892800) transition_time 0x59f-0x5a6.7 (8)
0x5a0|ff ff ff ca d6 cb c0                           |.......         |
0x5a0|                     ff ff ff ff cb 88 e2 60   |       .......` |      [22]: "1942-02-09T06:00:00Z" (-880221600) transition_time 0x5a7-0x5ae.7 (8)
0x5a0|                                             ff|               .|      [23]: "1945-08-14T23:00:00Z" (-769395600) transition_time 0x5af-0x5b6.7 (8)
0x5b0|ff ff ff d2 23 f4 70                           |....#.p         |
0x5b0|                     ff ff ff ff d2 60 ed d0   |       .....`.. |      [24]: "1945-09-30T05:00:00Z" (-765399600) transition_time 0x5b7-0x5be.7 (8)
0x5b0|                                             ff|               .|      [25]: "1946-04-28T06:00:00Z" (-747252000) transition_time 0x5bf-0x5c6.7 (8)
0x5c0|ff ff ff d3 75 d6 e0                           |....u..         |
0x5c0|                     ff ff ff ff d4 40 cf d0   |       .....@.. |      [26]: "1946-09-29T05:00:00Z" (-733950000) transition_time 0x5c7-0x5ce.7 (8)
0x5c0|                                             ff|               .|      [27]: "1947-04-27T06:00:00Z" (-715802400) transition_time 0x5cf-0x5d6.7 (8)
0x5d0|ff ff ff d5 55 b8 e0                           |....U..         |
0x5d0|                     ff ff ff ff d6 20 b1 d0   |       ..... .. |      [28]: "1947-09-28T05:00:00Z" (-702500400) transition_time 0x5d7-0x5de.7 (8)
0x5d0|                                             ff|               .|      [29]: "1948-04-25T06:00:00Z" (-684352800) transition_time 0x5df-0x5e6.7 (8)
0x5e0|ff ff ff d7 35 9a e0                           |....5..         |
0x5e0|                     ff ff ff ff d8 00 93 d0   |       ........ |      [30]: "1948-09-26T05:00:00Z" (-671050800) transition_time 0x5e7-0x5ee.7 (8)
0x5e0|                                             ff|               .|      [31]: "1949-04-24T06:00:00Z" (-652903200) transition_time 0x5ef-0x5f6.7 (8)
0x5f0|ff ff ff d9 15 7c e0                           |.....|.         |
0x5f0|                     ff ff ff ff d9 e0 75 d0   |       ......u. |      [32]: "1949-09-25T05:00:00Z" (-639601200) transition_time 0x5f7-0x5fe.7 (8)
0x5f0|                                             ff|               .|      [33]: "1950-04-30T06:00:00Z" (-620848800) transition_time 0x5ff-0x606.7 (8)
0x600|ff ff ff da fe 99 60                           |......`         |
0x600|                     ff ff ff ff db c0 57 d0   |       ......W. |      [34]: "1950-09-24T05:00:00Z" (-608151600) transition_time 0x607-0x60e.7 (8)
0x600|                                             ff|               .|      [35]: "1951-04-29T06:00:00Z" (-589399200) transition_time 0x60f-0x616.7 (8)
0x610|ff ff ff dc de 7b 60                           |.....{`         |
0x610|                     ff ff ff ff dd a9 74 50   |       ......tP |      [36]: "1951-09-30T05:00:00Z" (-576097200) transition_time 0x617-0x61e.7 (8)
0x610|                                             ff|               .|      [37]: "1952-04-27T06:00:00Z" (-557949600) transition_time 0x61f-0x626.7 (8)
0x620|ff ff ff de be 5d 60                           |.....]`         |
0x620|                     ff ff ff ff df 89 56 50   |       ......VP |      [38]: "1952-09-28T05:00:00Z" (-544647600) transition_time 0x627-0x62e.7 (8)
0x620|                                             ff|               .|      [39]: "1953-04-26T06:00:00Z" (-526500000) transition_time 0x62f-0x636.7 (8)
0x630|ff ff ff e0 9e 3f 60                           |.....?`         |
0x630|                     ff ff ff ff e1 69 38 50   |       .....i8P |      [40]: "1953-09-27T05:00:00Z" (-513198000) transition_time 0x637-0x63e.7 (8)
0x630|                                             ff|               .|      [41]: "1954-04-25T06:00:00Z" (-495050400) transition_time 0x63f-0x646.7 (8)
0x640|ff ff ff e2 7e 21 60                           |....~!`         |
0x640|                     ff ff ff ff e3 49 1a 50   |       .....I.P |      [42]: "1954-09-26T05:00:00Z" (-481748400) transition_time 0x647-0x64e.7 (8)
0x640|                                             ff|               .|      [43]: "1955-04-24T06:00:00Z" (-463600800) transition_time 0x64f-0x656.7 (8)
0x650|ff ff ff e4 5e 03 60                           |....^.`         |
0x650|                     ff ff ff ff e5 28 fc 50   |       .....(.P |      [44]: "1955-09-25T05:00:00Z" (-450298800) transition_time 0x657-0x65e.7 (8)
0x650|                                             ff|               .|      [45]: "1956-04-29T06:00:00Z" (-431546400) transition_time 0x65f-0x666.7 (8)
0x660|ff ff ff e6 47 1f e0                           |....G..         |
0x660|                     ff ff ff ff e7 12 18 d0   |       ........ |      [46]: "1956-09-30T05:00:00Z" (-418244400) transition_time 0x667-0x66e.7 (8)
0x660|                                             ff|               .|      [47]: "1957-04-28T06:00:00Z" (-400096800) transition_time 0x66f-0x676.7 (8)
0x670|ff ff ff e8 27 01 e0                           |....'..         |
0x670|                     ff ff ff ff e9 16 e4 d0   |       ........ |      [48]: "1957-10-27T05:00:00Z" (-384375600) transition_time 0x677-0x67e.7 (8)
0x670|                                             ff|               .|      [49]: "1958-04-27T06:00:00Z" (-368647200) transition_time 0x67f-0x686.7 (8)
0x680|ff ff ff ea 06 e3 e0                           |.......         |
0x680|                     ff ff ff ff ea f6 c6 d0   |       ........ |      [50]: "1958-10-26T05:00:00Z" (-352926000) transition_time 0x687-0x68e.7 (8)
0x680|                                             ff|               .|      [51]: "1959-04-26T06:00:00Z" (-337197600) transition_time 0x68f-0x696.7 (8)
0x690|ff ff ff eb e6 c5 e0                           |.......         |
0x690|                     ff ff ff ff ec d6 a8 d0   |       ........ |      [52]: "1959-10-25T05:00:00Z" (-321476400) transition_time 0x697-0x69e.7 (8)
0x690|                                             ff|               .|      [53]: "1960-04-24T06:00:00Z" (-305748000) transition_time 0x69f-0x6a6.7 (8)
0x6a0|ff ff ff ed c6 a7 e0                           |.......         |
0x6a0|                     ff ff ff ff ee bf c5 50   |       .......P |      [54]: "1960-10-30T05:00:00Z" (-289422000) transition_time 0x6a7-0x6ae.7 (8)
0x6a0|                                             ff|               .|      [55]: "1961-04-30T06:00:00Z" (-273693600) transition_time 0x6af-0x6b6.7 (8)
0x6b0|ff ff ff ef af c4 60                           |......`         |
0x6b0|                     ff ff ff ff f0 9f a7 50   |       .......P |      [56]: "1961-10-29T05:00:00Z" (-257972400) transition_time 0x6b7-0x6be.7 (8)
0x6b0|                                             ff|               .|      [57]: "1962-04-29T06:00:00Z" (-242244000) transition_time 0x6bf-0x6c6.7 (8)
0x6c0|ff ff ff f1 8f a6 60                           |......`         |
0x6c0|                     ff ff ff ff f2 7f 89 50   |       .......P |      [58]: "1962-10-28T05:00:00Z" (-226522800) transition_time 0x6c7-0x6ce.7 (8)
0x6c0|                                             ff|               .|      [59]: "1963-04-28T06:00:00Z" (-210794400) transition_time 0x6cf-0x6d6.7 (8)
0x6d0|ff ff ff f3 6f 88 60                           |....o.`         |
0x6d0|                     ff ff ff ff f4 5f 6b 50   |       ....._kP |      [60]: "1963-10-27T05:00:00Z" (-195073200) transition_time 0x6d7-0x6de.7 (8)
0x6d0|                                             ff|               .|      [61]: "1964-04-26T06:00:00Z" (-179344800) transition_time 0x6df-0x6e6.7 (8)
0x6e0|ff ff ff f5 4f 6a 60                           |....Oj`         |
0x6e0|                     ff ff ff ff f6 3f 4d 50   |       .....?MP |      [62]: "1964-10-25T05:00:00Z" (-163623600) transition_time 0x6e7-0x6ee.7 (8)
0x6e0|                                             ff|               .|      [63]: "1965-04-25T06:00:00Z" (-147895200) transition_time 0x6ef-0x6f6.7 (8)
0x6f0|ff ff ff f7 2f 4c 60                           |..../L`         |
0x6f0|                     ff ff ff ff f8 28 69 d0   |       .....(i. |      [64]: "1965-10-31T05:00:00Z" (-131569200) transition_time 0x6f7-0x6fe.7 (8)
0x6f0|                                             ff|               .|      [65]: "1966-04-24T06:00:00Z" (-116445600) transition_time 0x6ff-0x706.7 (8)
0x700|ff ff ff f9 0f 2e 60                           |......`         |
0x700|                     ff ff ff ff fa 08 4b d0   |       ......K. |      [66]: "1966-10-30T05:00:00Z" (-100119600) transition_time 0x707-0x70e.7 (8)
0x700|                                             ff|               .|      [67]: "1967-04-30T06:00:00Z" (-84391200) transition_time 0x70f-0x716.7 (8)
0x710|ff ff ff fa f8 4a e0                           |.....J.         |
0x710|                     ff ff ff ff fb e8 2d d0   |       ......-. |      [68]: "1967-10-29T05:00:00Z" (-68670000) transition_time 0x717-0x71e.7 (8)
0x710|                                             ff|               .|      [69]: "1968-04-28T06:00:00Z" (-52941600) transition_time 0x71f-0x726.7 (8)
0x720|ff ff ff fc d8 2c e0                           |.....,.         |
0x720|                     ff ff ff ff fd c8 0f d0   |       ........ |      [70]: "1968-10-27T05:00:00Z" (-37220400) transition_time 0x727-0x72e.7 (8)
0x720|                                             ff|               .|      [71]: "1969-04-27T06:00:00Z" (-21492000) transition_time 0x72f-0x736.7 (8)
0x730|ff ff ff fe b8 0e e0                           |.......         |
0x730|                     ff ff ff ff ff a7 f1 d0   |       ........ |      [72]: "1969-10-26T05:00:00Z" (-5770800) transition_time 0x737-0x73e.7 (8)
0x730|                                             00|               .|      [73]: "1970-04-26T06:00:00Z" (9957600) transition_time 0x73f-0x746.7 (8)
0x740|00 00 00 00 97 f0 e0                           |.......         |
0x740|                     00 00 00 00 01 87 d3 d0   |       ........ |      [74]: "1970-10-25T05:00:00Z" (25678800) transition_time 0x747-0x74e.7 (8)
0x740|                                             00|               .|      [75]: "1971-04-25T06:00:00Z" (41407200) transition_time 0x74f-0x756.7 (8)
0x750|00 00 00 02 77 d2 e0                           |....w..         |
0x750|                     00 00 00 00 03 70 f0 50   |       .....p.P |      [76]: "1971-10-31T05:00:00Z" (57733200) transition_time 0x757-0x75e.7 (8)
0x750|                                             00|               .|      [77]: "1972-04-30T06:00:00Z" (73461600) transition_time 0x75f-0x766.7 (8)
0x760|00 00 00 04 60 ef 60                           |....`.`         |
0x760|                     00 00 00 00 05 50 d2 51   |       .....P.Q |      [78]: "1972-10-29T05:00:01Z" (89182801) transition_time 0x767-0x76e.7 (8)
0x760|                                             00|               .|      [79]: "1974-04-28T06:00:03Z" (136360803) transition_time 0x76f-0x776.7 (8)
0x770|00 00 00 08 20 b3 63                           |.... .c         |
0x770|                     00 00 00 00 09 10 96 53   |       .......S |      [80]: "1974-10-27T05:00:03Z" (152082003) transition_time 0x777-0x77e.7 (8)
0x770|                                             00|               .|      [81]: "1975-04-27T06:00:04Z" (167810404) transition_time 0x77f-0x786.7 (8)
0x780|00 00 00 0a 00 95 64                           |......d         |
0x780|                     00 00 00 00 0a f0 78 54   |       ......xT |      [82]: "1975-10-26T05:00:04Z" (183531604) transition_time 0x787-0x78e.7 (8)
0x780|                                             00|               .|      [83]: "1976-04-25T06:00:05Z" (199260005) transition_time 0x78f-0x796.7 (8)
0x790|00 00 00 0b e0 77 65                           |.....we         |
0x790|                     00 00 00 00 0c d9 94 d5   |       ........ |      [84]: "1976-10-31T05:00:05Z" (215586005) transition_time 0x797-0x79e.7 (8)
0x790|                                             00|               .|      [85]: "1977-04-24T06:00:06Z" (230709606) transition_time 0x79f-0x7a6.7 (8)
0x7a0|00 00 00 0d c0 59 66                           |.....Yf         |
0x7a0|                     00 00 00 00 0e b9 76 d6   |       ......v. |      [86]: "1977-10-30T05:00:06Z" (247035606) transition_time 0x7a7-0x7ae.7 (8)
0x7a0|                                             00|               .|      [87]: "1978-04-30T06:00:07Z" (262764007) transition_time 0x7af-0x7b6.7 (8)
0x7b0|00 00 00 0f a9 75 e7                           |.....u.         |
0x7b0|                     00 00 00 00 10 99 58 d7   |       ......X. |      [88]: "1978-10-29T05:00:07Z" (278485207) transition_time 0x7b7-0x7be.7 (8)
0x7b0|                                             00|               .|      [89]: "1979-04-29T06:00:08Z" (294213608) transition_time 0x7bf-0x7c6.7 (8)
0x7c0|00 00 00 11 89 57 e8                           |.....W.         |
0x7c0|                     00 00 00 00 12 79 3a d8   |       .....y:. |      [90]: "1979-10-28T05:00:08Z" (309934808) transition_time 0x7c7-0x7ce.7 (8)
0x7c0|                                             00|               .|      [91]: "1980-04-27T06:00:09Z" (325663209) transition_time 0x7cf-0x7d6.7 (8)
0x7d0|00 00 00 13 69 39 e9                           |....i9.         |
0x7d0|                     00 00 00 00 14 59 1c d9   |       .....Y.. |      [92]: "1980-10-26T05:00:09Z" (341384409) transition_time 0x7d7-0x7de.7 (8)
0x7d0|                                             00|               .|      [93]: "1981-04-26T06:00:09Z" (357112809) transition_time 0x7df-0x7e6.7 (8)
0x7e0|00 00 00 15 49 1b e9                           |....I..         |
0x7e0|                     00 00 00 00 16 38 fe da   |       .....8.. |      [94]: "1981-10-25T05:00:10Z" (372834010) transition_time 0x7e7-0x7ee.7 (8)
0x7e0|                                             00|               .|      [95]: "1982-04-25T06:00:10Z" (388562410) transition_time 0x7ef-0x7f6.7 (8)
0x7f0|00 00 00 17 28 fd ea                           |....(..         |
0x7f0|                     00 00 00 00 18 22 1b 5b   |       .....".[ |      [96]: "1982-10-31T05:00:11Z" (404888411) transition_time 0x7f7-0x7fe.7 (8)
0x7f0|                                             00|               .|      [97]: "1983-04-24T06:00:11Z" (420012011) transition_time 0x7ff-0x806.7 (8)
0x800|00 00 00 19 08 df eb                           |.......         |
0x800|                     00 00 00 00 1a 01 fd 5c   |       .......\ |      [98]: "1983-10-30T05:00:12Z" (436338012) transition_time 0x807-0x80e.7 (8)
0x800|                                             00|               .|      [99]: "1984-04-29T06:00:12Z" (452066412) transition_time 0x80f-0x816.7 (8)
0x810|00 00 00 1a f1 fc 6c                           |......l         |
0x810|                     00 00 00 00 1b e1 df 5c   |       .......\ |      [100]: "1984-10-28T05:00:12Z" (467787612) transition_time 0x817-0x81e.7 (8)
0x810|                                             00|               .|      [101]: "1985-04-28T06:00:12Z" (483516012) transition_time 0x81f-0x826.7 (8)
0x820|00 00 00 1c d1 de 6c                           |......l         |
0x820|                     00 00 00 00 1d c1 c1 5d   |       .......] |      [102]: "1985-10-27T05:00:13Z" (499237213) transition_time 0x827-0x82e.7 (8)
0x820|                                             00|               .|      [103]: "1986-04-27T06:00:13Z" (514965613) transition_time 0x82f-0x836.7 (8)
0x830|00 00 00 1e b1 c0 6d                           |......m         |
0x830|                     00 00 00 00 1f a1 a3 5d   |       .......] |      [104]: "1986-10-26T05:00:13Z" (530686813) transition_time 0x837-0x83e.7 (8)
0x830|                                             00|               .|      [105]: "1987-04-05T06:00:13Z" (544600813) transition_time 0x83f-0x846.7 (8)
0x840|00 00 00 20 75 f2 ed                           |... u..         |
0x840|                     00 00 00 00 21 81 85 5d   |       ....!..] |      [106]: "1987-10-25T05:00:13Z" (562136413) transition_time 0x847-0x84e.7 (8)
0x840|                                             00|               .|      [107]: "1988-04-03T06:00:14Z" (576050414) transition_time 0x84f-0x856.7 (8)
0x850|00 00 00 22 55 d4 ee                           |..."U..         |
0x850|                     00 00 00 00 23 6a a1 de   |       ....#j.. |      [108]: "1988-10-30T05:00:14Z" (594190814) transition_time 0x857-0x85e.7 (8)
0x850|                                             00|               .|      [109]: "1989-04-02T06:00:14Z" (607500014) transition_time 0x85f-0x866.7 (8)
0x860|00 00 00 24 35 b6 ee                           |...$5..         |
0x860|                     00 00 00 00 25 4a 83 de   |       ....%J.. |      [110]: "1989-10-29T05:00:14Z" (625640414) transition_time 0x867-0x86e.7 (8)
0x860|                                             00|               .|      [111]: "1990-04-01T06:00:15Z" (638949615) transition_time 0x86f-0x876.7 (8)
0x870|00 00 00 26 15 98 ef                           |...&...         |
0x870|                     00 00 00 00 27 2a 65 df   |       ....'*e. |      [112]: "1990-10-28T05:00:15Z" (657090015) transition_time 0x877-0x87e.7 (8)
0x870|                                             00|               .|      [113]: "1991-04-07T06:00:16Z" (671004016) transition_time 0x87f-0x886.7 (8)
0x880|00 00 00 27 fe b5 70                           |...'..p         |
0x880|                     00 00 00 00 29 0a 47 e0   |       ....).G. |      [114]: "1991-10-27T05:00:16Z" (688539616) transition_time 0x887-0x88e.7 (8)
0x880|                                             00|               .|      [115]: "1992-04-05T06:00:16Z" (702453616) transition_time 0x88f-0x896.7 (8)
0x890|00 00 00 29 de 97 70                           |...)..p         |
0x890|                     00 00 00 00 2a ea 29 e1   |       ....*.). |      [116]: "1992-10-25T05:00:17Z" (719989217) transition_time 0x897-0x89e.7 (8)
0x890|                                             00|               .|      [117]: "1993-04-04T04:01:17Z" (733896077) transition_time 0x89f-0x8a6.7 (8)
0x8a0|00 00 00 2b be 5d 8d                           |...+.].         |
0x8a0|                     00 00 00 00 2c d3 2a 7e   |       ....,.*~ |      [118]: "1993-10-31T03:01:18Z" (752036478) transition_time 0x8a7-0x8ae.7 (8)
0x8a0|                                             00|               .|      [119]: "1994-04-03T04:01:18Z" (765345678) transition_time 0x8af-0x8b6.7 (8)
0x8b0|00 00 00 2d 9e 3f 8e                           |...-.?.         |
0x8b0|                     00 00 00 00 2e b3 0c 7f   |       ........ |      [120]: "1994-10-30T03:01:19Z" (783486079) transition_time 0x8b7-0x8be.7 (8)
0x8b0|                                             00|               .|      [121]: "1995-04-02T04:01:19Z" (796795279) transition_time 0x8bf-0x8c6.7 (8)
0x8c0|00 00 00 2f 7e 21 8f                           |.../~!.         |
0x8c0|                     00 00 00 00 30 92 ee 7f   |       ....0... |      [122]: "1995-10-29T03:01:19Z" (814935679) transition_time 0x8c7-0x8ce.7 (8)
0x8c0|                                             00|               .|      [123]: "1996-04-07T04:01:20Z" (828849680) transition_time 0x8cf-0x8d6.7 (8)
0x8d0|00 00 00 31 67 3e 10                           |...1g>.         |
0x8d0|                     00 00 00 00 32 72 d0 80   |       ....2r.. |      [124]: "1996-10-27T03:01:20Z" (846385280) transition_time 0x8d7-0x8de.7 (8)
0x8d0|                                             00|               .|      [125]: "1997-04-06T04:01:20Z" (860299280) transition_time 0x8df-0x8e6.7 (8)
0x8e0|00 00 00 33 47 20 10                           |...3G .         |
0x8e0|                     00 00 00 00 34 52 b2 81   |       ....4R.. |      [126]: "1997-10-26T03:01:21Z" (877834881) transition_time 0x8e7-0x8ee.7 (8)
0x8e0|                                             00|               .|      [127]: "1998-04-05T04:01:21Z" (891748881) transition_time 0x8ef-0x8f6.7 (8)
0x8f0|00 00 00 35 27 02 11                           |...5'..         |
0x8f0|                     00 00 00 00 36 32 94 81   |       ....62.. |      [128]: "1998-10-25T03:01:21Z" (909284481) transition_time 0x8f7-0x8fe.7 (8)
0x8f0|                                             00|               .|      [129]: "1999-04-04T04:01:22Z" (923198482) transition_time 0x8ff-0x906.7 (8)
0x900|00 00 00 37 06 e4 12                           |...7...         |
0x900|                     00 00 00 00 38 1b b1 02   |       ....8... |      [130]: "1999-10-31T03:01:22Z" (941338882) transition_time 0x907-0x90e.7 (8)
0x900|                                             00|               .|      [131]: "2000-04-02T04:01:22Z" (954648082) transition_time 0x90f-0x916.7 (8)
0x910|00 00 00 38 e6 c6 12                           |...8...         |
0x910|                     00 00 00 00 39 fb 93 02   |       ....9... |      [132]: "2000-10-29T03:01:22Z" (972788482) transition_time 0x917-0x91e.7 (8)
0x910|                                             00|               .|      [133]: "2001-04-01T04:01:22Z" (986097682) transition_time 0x91f-0x926.7 (8)
0x920|00 00 00 3a c6 a8 12                           |...:...         |
0x920|                     00 00 00 00 3b db 75 02   |       ....;.u. |      [134]: "2001-10-28T03:01:22Z" (1004238082) transition_time 0x927-0x92e.7 (8)
0x920|                                             00|               .|      [135]: "2002-04-07T04:01:22Z" (1018152082) transition_time 0x92f-0x936.7 (8)
0x930|00 00 00 3c af c4 92                           |...<...         |
0x930|                     00 00 00 00 3d bb 57 02   |       ....=.W. |      [136]: "2002-10-27T03:01:22Z" (1035687682) transition_time 0x937-0x93e.7 (8)
0x930|                                             00|               .|      [137]: "2003-04-06T04:01:22Z" (1049601682) transition_time 0x93f-0x946.7 (8)
0x940|00 00 00 3e 8f a6 92                           |...>...         |
0x940|                     00 00 00 00 3f 9b 39 02   |       ....?.9. |      [138]: "2003-10-26T03:01:22Z" (1067137282) transition_time 0x947-0x94e.7 (8)
0x940|                                             00|               .|      [139]: "2004-04-04T04:01:22Z" (1081051282) transition_time 0x94f-0x956.7 (8)
0x950|00 00 00 40 6f 88 92                           |...@o..         |
0x950|                     00 00 00 00 41 84 55 82   |       ....A.U. |      [140]: "2004-10-31T03:01:22Z" (1099191682) transition_time 0x957-0x95e.7 (8)
0x950|                                             00|               .|      [141]: "2005-04-03T04:01:22Z" (1112500882) transition_time 0x95f-0x966.7 (8)
0x960|00 00 00 42 4f 6a 92                           |...BOj.         |
0x960|                     00 00 00 00 43 64 37 82   |       ....Cd7. |      [142]: "2005-10-30T03:01:22Z" (1130641282) transition_time 0x967-0x96e.7 (8)
0x960|                                             00|               .|      [143]: "2006-04-02T04:01:23Z" (1143950483) transition_time 0x96f-0x976.7 (8)
0x970|00 00 00 44 2f 4c 93                           |...D/L.         |
0x970|                     00 00 00 00 45 44 19 83   |       ....ED.. |      [144]: "2006-10-29T03:01:23Z" (1162090883) transition_time 0x977-0x97e.7 (8)
0x970|                                             00|               .|      [145]: "2007-03-11T06:00:23Z" (1173592823) transition_time 0x97f-0x986.7 (8)
0x980|00 00 00 45 f3 9a f7                           |...E...         |
0x980|                     00 00 00 00 47 2d 51 e7   |       ....G-Q. |      [146]: "2007-11-04T05:00:23Z" (1194152423) transition_time 0x987-0x98e.7 (8)
0x980|                                             00|               .|      [147]: "2008-03-09T06:00:23Z" (1205042423) transition_time 0x98f-0x996.7 (8)
0x990|00 00 00 47 d3 7c f7                           |...G.|.         |
0x990|                     00 00 00 00 49 0d 33 e7   |       ....I.3. |      [148]: "2008-11-02T05:00:23Z" (1225602023) transition_time 0x997-0x99e.7 (8)
0x990|                                             00|               .|      [149]: "2009-03-08T06:00:24Z" (1236492024) transition_time 0x99f-0x9a6.7 (8)
0x9a0|00 00 00 49 b3 5e f8                           |...I.^.         |
0x9a0|                     00 00 00 00 4a ed 15 e8   |       ....J... |      [150]: "2009-11-01T05:00:24Z" (1257051624) transition_time 0x9a7-0x9ae.7 (8)
0x9a0|                                             00|               .|      [151]: "2010-03-14T06:00:24Z" (1268546424) transition_time 0x9af-0x9b6.7 (8)
0x9b0|00 00 00 4b 9c 7b 78                           |...K.{x         |
0x9b0|                     00 00 00 00 4c d6 32 68   |       ....L.2h |      [152]: "2010-11-07T05:00:24Z" (1289106024) transition_time 0x9b7-0x9be.7 (8)
0x9b0|                                             00|               .|      [153]: "2011-03-13T06:00:24Z" (1299996024) transition_time 0x9bf-0x9c6.7 (8)
0x9c0|00 00 00 4d 7c 5d 78                           |...M|]x         |
0x9c0|                     00 00 00 00 4e b6 14 68   |       ....N..h |      [154]: "2011-11-06T05:00:24Z" (1320555624) transition_time 0x9c7-0x9ce.7 (8)
0x9c0|                                             00|               .|      [155]: "2012-03-11T06:00:24Z" (1331445624) transition_time 0x9cf-0x9d6.7 (8)
0x9d0|00 00 00 4f 5c 3f 78                           |...O\?x         |
0x9d0|                     00 00 00 00 50 95 f6 69   |       ....P..i |      [156]: "2012-11-04T05:00:25Z" (1352005225) transition_time 0x9d7-0x9de.7 (8)
0x9d0|                                             00|               .|      [157]: "2013-03-10T06:00:25Z" (1362895225) transition_time 0x9df-0x9e6.7 (8)
0x9e0|00 00 00 51 3c 21 79                           |...Q<!y         |
0x9e0|                     00 00 00 00 52 75 d8 69   |       ....Ru.i |      [158]: "2013-11-03T05:00:25Z" (1383454825) transition_time 0x9e7-0x9ee.7 (8)
0x9e0|                                             00|               .|      [159]: "2014-03-09T06:00:25Z" (1394344825) transition_time 0x9ef-0x9f6.7 (8)
0x9f0|00 00 00 53 1c 03 79                           |...S..y         |
0x9f0|                     00 00 00 00 54 55 ba 69   |       ....TU.i |      [160]: "2014-11-02T05:00:25Z" (1414904425) transition_time 0x9f7-0x9fe.7 (8)
0x9f0|                                             00|               .|      [161]: "2015-03-08T06:00:25Z" (1425794425) transition_time 0x9ff-0xa06.7 (8)
0xa00|00 00 00 54 fb e5 79                           |...T..y         |
0xa00|                     00 00 00 00 56 35 9c 6a   |       ....V5.j |      [162]: "2015-11-01T05:00:26Z" (1446354026) transition_time 0xa07-0xa0e.7 (8)
0xa00|                                             00|               .|      [163]: "2016-03-13T06:00:26Z" (1457848826) transition_time 0xa0f-0xa16.7 (8)
0xa10|00 00 00 56 e5 01 fa                           |...V...         |
0xa10|                     00 00 00 00 58 1e b8 ea   |       ....X... |      [164]: "2016-11-06T05:00:26Z" (1478408426) transition_time 0xa17-0xa1e.7 (8)
0xa10|                                             00|               .|      [165]: "2017-03-12T06:00:27Z" (1489298427) transition_time 0xa1f-0xa26.7 (8)
0xa20|00 00 00 58 c4 e3 fb                           |...X...         |
0xa20|                     00 00 00 00 59 fe 9a eb   |       ....Y... |      [166]: "2017-11-05T05:00:27Z" (1509858027) transition_time 0xa27-0xa2e.7 (8)
0xa20|                                             00|               .|      [167]: "2018-03-11T06:00:27Z" (1520748027) transition_time 0xa2f-0xa36.7 (8)
0xa30|00 00 00 5a a4 c5 fb                           |...Z...         |
0xa30|                     00 00 00 00 5b de 7c eb   |       ....[.|. |      [168]: "2018-11-04T05:00:27Z" (1541307627) transition_time 0xa37-0xa3e.7 (8)
0xa30|                                             00|               .|      [169]: "2019-03-10T06:00:27Z" (1552197627) transition_time 0xa3f-0xa46.7 (8)
0xa40|00 00 00 5c 84 a7 fb                           |...\...         |
0xa40|                     00 00 00 00 5d be 5e eb   |       ....].^. |      [170]: "2019-11-03T05:00:27Z" (1572757227) transition_time 0xa47-0xa4e.7 (8)
0xa40|                                             00|               .|      [171]: "2020-03-08T06:00:27Z" (1583647227) transition_time 0xa4f-0xa56.7 (8)
0xa50|00 00 00 5e 64 89 fb                           |...^d..         |
0xa50|                     00 00 00 00 5f 9e 40 eb   |       ...._.@. |      [172]: "2020-11-01T05:00:27Z" (1604206827) transition_time 0xa57-0xa5e.7 (8)
0xa50|                                             00|               .|      [173]: "2021-03-14T06:00:27Z" (1615701627) transition_time 0xa5f-0xa66.7 (8)
0xa60|00 00 00 60 4d a6 7b                           |...`M.{         |
0xa60|                     00 00 00 00 61 87 5d 6b   |       ....a.]k |      [174]: "2021-11-07T05:00:27Z" (1636261227) transition_time 0xa67-0xa6e.7 (8)
0xa60|                                             00|               .|      [175]: "2022-03-13T06:00:27Z" (1647151227) transition_time 0xa6f-0xa76.7 (8)
0xa70|00 00 00 62 2d 88 7b                           |...b-.{         |
0xa70|                     00 00 00 00 63 67 3f 6b   |       ....cg?k |      [176]: "2022-11-06T05:00:27Z" (1667710827) transition_time 0xa77-0xa7e.7 (8)
0xa70|                                             00|               .|      [177]: "2023-03-12T06:00:27Z" (1678600827) transition_time 0xa7f-0xa86.7 (8)
0xa80|00 00 00 64 0d 6a 7b                           |...d.j{         |
0xa80|                     00 00 00 00 64 9b 78 1b   |       ....d.x. |      [178]: "2023-06-28T00:00:27Z" (1687910427) transition_time 0xa87-0xa8e.7 (8)
     |                                               |                |    transition_types[0:179]: 0xa8f-0xb41.7 (179)
0xa80|                                             01|               .|      [0]: 1 transition_type 0xa8f-0xa8f.7 (1)
0xa90|03                                             |.               |      [1]: 3 transition_type 0xa90-0xa90.7 (1)
0xa90|   02                                          | .              |      [2]: 2 transition_type 0xa91-0xa91.7 (1)
0xa90|      03                                       |  .             |      [3]: 3 transition_type 0xa92-0xa92.7 (1)
0xa90|         02                                    |   .            |      [4]: 2 transition_type 0xa93-0xa93.7 (1)
0xa90|            03                                 |    .           |      [5]: 3 transition_type 0xa94-0xa94.7 (1)
0xa90|               02                              |     .          |      [6]: 2 transition_type 0xa95-0xa95.7 (1)
0xa90|                  03                           |      .         |      [7]: 3 transition_type 0xa96-0xa96.7 (1)
0xa90|                     02                        |       .        |      [8]: 2 transition_type 0xa97-0xa97.7 (1)
0xa90|                        03                     |        .       |      [9]: 3 transition_type 0xa98-0xa98.7 (1)
0xa90|                           02                  |         .      |      [10]: 2 transition_type 0xa99-0xa99.7 (1)
0xa90|                              03               |          .     |      [11]: 3 transition_type 0xa9a-0xa9a.7 (1)
0xa90|                                 02            |           .    |      [12]: 2 transition_type 0xa9b-0xa9b.7 (1)
0xa90|                                    03         |            .   |      [13]: 3 transition_type 0xa9c-0xa9c.7 (1)
0xa90|                                       02      |             .  |      [14]: 2 transition_type 0xa9d-0xa9d.7 (1)
0xa90|                                          03   |              . |      [15]: 3 transition_type 0xa9e-0xa9e.7 (1)
0xa90|                                             02|               .|      [16]: 2 transition_type 0xa9f-0xa9f.7 (1)
0xaa0|03                                             |.               |      [17]: 3 transition_type 0xaa0-0xaa0.7 (1)
0xaa0|   02                                          | .              |      [18]: 2 transition_type 0xaa1-0xaa1.7 (1)
0xaa0|      03                                       |  .             |      [19]: 3 transition_type 0xaa2-0xaa2.7 (1)
0xaa0|         02                                    |   .            |      [20]: 2 transition_type 0xaa3-0xaa3.7 (1)
0xaa0|            03                                 |    .           |      [21]: 3 transition_type 0xaa4-0xaa4.7 (1)
0xaa0|               04                              |     .          |      [22]: 4 transition_type 0xaa5-0xaa5.7 (1)
0xaa0|                  05                           |      .         |      [23]: 5 transition_type 0xaa6-0xaa6.7 (1)
0xaa0|                     03                        |       .        |      [24]: 3 transition_type 0xaa7-0xaa7.7 (1)
0xaa0|                        02                     |        .       |      [25]: 2 transition_type 0xaa8-0xaa8.7 (1)
0xaa0|                           03                  |         .      |      [26]: 3 transition_type 0xaa9-0xaa9.7 (1)
0xaa0|                              02               |          .     |      [27]: 2 transition_type 0xaaa-0xaaa.7 (1)
0xaa0|                                 03            |           .    |      [28]: 3 transition_type 0xaab-0xaab.7 (1)
0xaa0|                                    02         |            .   |      [29]: 2 transition_type 0xaac-0xaac.7 (1)
0xaa0|                                       03      |             .  |      [30]: 3 transition_type 0xaad-0xaad.7 (1)
0xaa0|                                          02   |              . |      [31]: 2 transition_type 0xaae-0xaae.7 (1)
0xaa0|                                             03|               .|      [32]: 3 transition_type 0xaaf-0xaaf.7 (1)
0xab0|02                                             |.               |      [33]: 2 transition_type 0xab0-0xab0.7 (1)
0xab0|   03                                          | .              |      [34]: 3 transition_type 0xab1-0xab1.7 (1)
0xab0|      02                                       |  .             |      [35]: 2 transition_type 0xab2-0xab2.7 (1)
0xab0|         03                                    |   .            |      [36]: 3 transition_type 0xab3-0xab3.7 (1)
0xab0|            02                                 |    .           |      [37]: 2 transition_type 0xab4-0xab4.7 (1)
0xab0|               03                              |     .          |      [38]: 3 transition_type 0xab5-0xab5.7 (1)
0xab0|                  02                           |      .         |      [39]: 2 transition_type 0xab6-0xab6.7 (1)
0xab0|                     03                        |       .        |      [40]: 3 transition_type 0xab7-0xab7.7 (1)
0xab0|                        02                     |        .       |      [41]: 2 transition_type 0xab8-0xab8.7 (1)
0xab0|                           03                  |         .      |      [42]: 3 transition_type 0xab9-0xab9.7 (1)
0xab0|                              02               |          .     |      [43]: 2 transition_type 0xaba-0xaba.7 (1)
0xab0|                                 03            |           .    |      [44]: 3 transition_type 0xabb-0xabb.7 (1)
0xab0|                                    02         |            .   |      [45]: 2 transition_type 0xabc-0xabc.7 (1)
0xab0|                                       03      |             .  |      [46]: 3 transition_type 0xabd-0xabd.7 (1)
0xab0|                                          02   |              . |      [47]: 2 transition_type 0xabe-0xabe.7 (1)
0xab0|                                             03|               .|      [48]: 3 transition_type 0xabf-0xabf.7 (1)
0xac0|02                                             |.               |      [49]: 2 transition_type 0xac0-0xac0.7 (1)
0xac0|   03                                          | .              |      [50]: 3 transition_type 0xac1-0xac1.7 (1)
0xac0|      02                                       |  .             |      [51]: 2 transition_type 0xac2-0xac2.7 (1)
0xac0|         03                                    |   .            |      [52]: 3 transition_type 0xac3-0xac3.7 (1)
0xac0|            02                                 |    .           |      [53]: 2 transition_type 0xac4-0xac4.7 (1)
0xac0|               03                              |     .          |      [54]: 3 transition_type 0xac5-0xac5.7 (1)
0xac0|                  02                           |      .         |      [55]: 2 transition_type 0xac6-0xac6.7 (1)
0xac0|                     03                        |       .        |      [56]: 3 transition_type 0xac7-0xac7.7 (1)
0xac0|                        02                     |        .       |      [57]: 2 transition_type 0xac8-0xac8.7 (1)
0xac0|                           03                  |         .      |      [58]: 3 transition_type 0xac9-0xac9.7 (1)
0xac0|                              02               |          .     |      [59]: 2 transition_type 0xaca-0xaca.7 (1)
0xac0|                                 03            |           .    |      [60]: 3 transition_type 0xacb-0xacb.7 (1)
0xac0|                                    02         |            .   |      [61]: 2 transition_type 0xacc-0xacc.7 (1)
0xac0|                                       03      |             .  |      [62]: 3 transition_type 0xacd-0xacd.7 (1)
0xac0|                                          02   |              . |      [63]: 2 transition_type 0xace-0xace.7 (1)
0xac0|                                             03|               .|      [64]: 3 transition_type 0xacf-0xacf.7 (1)
0xad0|02                                             |.               |      [65]: 2 transition_type 0xad0-0xad0.7 (1)
0xad0|   03                                          | .              |      [66]: 3 transition_type 0xad1-0xad1.7 (1)
0xad0|      02                                       |  .             |      [67]: 2 transition_type 0xad2-0xad2.7 (1)
0xad0|         03                                    |   .            |      [68]: 3 transition_type 0xad3-0xad3.7 (1)
0xad0|            02                                 |    .           |      [69]: 2 transition_type 0xad4-0xad4.7 (1)
0xad0|               03                              |     .          |      [70]: 3 transition_type 0xad5-0xad5.7 (1)
0xad0|                  02                           |      .         |      [71]: 2 transition_type 0xad6-0xad6.7 (1)
0xad0|                     03                        |       .        |      [72]: 3 transition_type 0xad7-0xad7.7 (1)
0xad0|                        02                     |        .       |      [73]: 2 transition_type 0xad8-0xad8.7 (1)
0xad0|                           03                  |         .      |      [74]: 3 transition_type 0xad9-0xad9.7 (1)
0xad0|                              02               |          .     |      [75]: 2 transition_type 0xada-0xada.7 (1)
0xad0|                                 03            |           .    |      [76]: 3 transition_type 0xadb-0xadb.7 (1)
0xad0|                                    02         |            .   |      [77]: 2 transition_type 0xadc-0xadc.7 (1)
0xad0|                                       03      |             .  |      [78]: 3 transition_type 0xadd-0xadd.7 (1)
0xad0|                                          02   |              . |      [79]: 2 transition_type 0xade-0xade.7 (1)
0xad0|                                             03|               .|      [80]: 3 transition_type 0xadf-0xadf.7 (1)
0xae0|02                                             |.               |      [81]: 2 transition_type 0xae0-0xae0.7 (1)
0xae0|   03                                          | .              |      [82]: 3 transition_type 0xae1-0xae1.7 (1)
0xae0|      02                                       |  .             |      [83]: 2 transition_type 0xae2-0xae2.7 (1)
0xae0|         03                                    |   .            |      [84]: 3 transition_type 0xae3-0xae3.7 (1)
0xae0|            02                                 |    .           |      [85]: 2 transition_type 0xae4-0xae4.7 (1)
0xae0|               03                              |     .          |      [86]: 3 transition_type 0xae5-0xae5.7 (1)
0xae0|                  02                           |      .         |      [87]: 2 transition_type 0xae6-0xae6.7 (1)
0xae0|                     03                        |       .        |      [88]: 3 transition_type 0xae7-0xae7.7 (1)
0xae0|                        02                     |        .       |      [89]: 2 transition_type 0xae8-0xae8.7 (1)
0xae0|                           03                  |         .      |      [90]: 3 transition_type 0xae9-0xae9.7 (1)
0xae0|                              02               |          .     |      [91]: 2 transition_type 0xaea-0xaea.7 (1)
0xae0|                                 03            |           .    |      [92]: 3 transition_type 0xaeb-0xaeb.7 (1)
0xae0|                                    02         |            .   |      [93]: 2 transition_type 0xaec-0xaec.7 (1)
0xae0|                                       03      |             .  |      [94]: 3 transition_type 0xaed-0xaed.7 (1)
0xae0|                                          02   |              . |      [95]: 2 transition_type 0xaee-0xaee.7 (1)
0xae0|                                             03|               .|      [96]: 3 transition_type 0xaef-0xaef.7 (1)
0xaf0|02                                             |.               |      [97]: 2 transition_type 0xaf0-0xaf0.7 (1)
0xaf0|   03                                          | .              |      [98]: 3 transition_type 0xaf1-0xaf1.7 (1)
0xaf0|      02                                       |  .             |      [99]: 2 transition_type 0xaf2-0xaf2.7 (1)
0xaf0|         03                                    |   .            |      [100]: 3 transition_type 0xaf3-0xaf3.7 (1)
0xaf0|            02                                 |    .           |      [101]: 2 transition_type 0xaf4-0xaf4.7 (1)
0xaf0|               03                              |     .          |      [102]: 3 transition_type 0xaf5-0xaf5.7 (1)
0xaf0|                  02                           |      .         |      [103]: 2 transition_type 0xaf6-0xaf6.7 (1)
0xaf0|                     03                        |       .        |      [104]: 3 transition_type 0xaf7-0xaf7.7 (1)
0xaf0|                        02                     |        .       |      [105]: 2 transition_type 0xaf8-0xaf8.7 (1)
0xaf0|                           03                  |         .      |      [106]: 3 transition_type 0xaf9-0xaf9.7 (1)
0xaf0|                              02               |          .     |      [107]: 2 transition_type 0xafa-0xafa.7 (1)
0xaf0|                                 03            |           .    |      [108]: 3 transition_type 0xafb-0xafb.7 (1)
0xaf0|                                    02         |            .   |      [109]: 2 transition_type 0xafc-0xafc.7 (1)
0xaf0|                                       03      |             .  |      [110]: 3 transition_type 0xafd-0xafd.7 (1)
0xaf0|                                          02   |              . |      [111]: 2 transition_type 0xafe-0xafe.7 (1)
0xaf0|                                             03|               .|      [112]: 3 transition_type 0xaff-0xaff.7 (1)
0xb00|02                                             |.               |      [113]: 2 transition_type 0xb00-0xb00.7 (1)
0xb00|   03                                          | .              |      [114]: 3 transition_type 0xb01-0xb01.7 (1)
0xb00|      02                                       |  .             |      [115]: 2 transition_type 0xb02-0xb02.7 (1)
0xb00|         03                                    |   .            |      [116]: 3 transition_type 0xb03-0xb03.7 (1)
0xb00|            02                                 |    .           |      [117]: 2 transition_type 0xb04-0xb04.7 (1)
0xb00|               03                              |     .          |      [118]: 3 transition_type 0xb05-0xb05.7 (1)
0xb00|                  02                           |      .         |      [119]: 2 transition_type 0xb06-0xb06.7 (1)
0xb00|                     03                        |       .        |      [120]: 3 transition_type 0xb07-0xb07.7 (1)
0xb00|                        02                     |        .       |      [121]: 2 transition_type 0xb08-0xb08.7 (1)
0xb00|                           03                  |         .      |      [122]: 3 transition_type 0xb09-0xb09.7 (1)
0xb00|                              02               |          .     |      [123]: 2 transition_type 0xb0a-0xb0a.7 (1)
0xb00|                                 03            |           .    |      [124]: 3 transition_type 0xb0b-0xb0b.7 (1)
0xb00|                                    02         |            .   |      [125]: 2 transition_type 0xb0c-0xb0c.7 (1)
0xb00|                                       03      |             .  |      [126]: 3 transition_type 0xb0d-0xb0d.7 (1)
0xb00|                                          02   |              . |      [127]: 2 transition_type 0xb0e-0xb0e.7 (1)
0xb00|                                             03|               .|      [128]: 3 transition_type 0xb0f-0xb0f.7 (1)
0xb10|02                                             |.               |      [129]: 2 transition_type 0xb10-0xb10.7 (1)
0xb10|   03                                          | .              |      [130]: 3 transition_type 0xb11-0xb11.7 (1)
0xb10|      02                                       |  .             |      [131]: 2 transition_type 0xb12-0xb12.7 (1)
0xb10|         03                                    |   .            |      [132]: 3 transition_type 0xb13-0xb13.7 (1)
0xb10|            02                                 |    .           |      [133]: 2 transition_type 0xb14-0xb14.7 (1)
0xb10|               03                              |     .          |      [134]: 3 transition_type 0xb15-0xb15.7 (1)
0xb10|                  02                           |      .         |      [135]: 2 transition_type 0xb16-0xb16.7 (1)
0xb10|                     03                        |       .        |      [136]: 3 transition_type 0xb17-0xb17.7 (1)
0xb10|                        02                     |        .       |      [137]: 2 transition_type 0xb18-0xb18.7 (1)
0xb10|                           03                  |         .      |      [138]: 3 transition_type 0xb19-0xb19.7 (1)
0xb10|                              02               |          .     |      [139]: 2 transition_type 0xb1a-0xb1a.7 (1)
0xb10|                                 03            |           .    |      [140]: 3 transition_type 0xb1b-0xb1b.7 (1)
0xb10|                                    02         |            .   |      [141]: 2 transition_type 0xb1c-0xb1c.7 (1)
0xb10|                                       03      |             .  |      [142]: 3 transition_type 0xb1d-0xb1d.7 (1)
0xb10|                                          02   |              . |      [143]: 2 transition_type 0xb1e-0xb1e.7 (1)
0xb10|                                             03|               .|      [144]: 3 transition_type 0xb1f-0xb1f.7 (1)
0xb20|02                                             |.               |      [145]: 2 transition_type 0xb20-0xb20.7 (1)
0xb20|   03                                          | .              |      [146]: 3 transition_type 0xb21-0xb21.7 (1)
0xb20|      02                                       |  .             |      [147]: 2 transition_type 0xb22-0xb22.7 (1)
0xb20|         03                                    |   .            |      [148]: 3 transition_type 0xb23-0xb23.7 (1)
0xb20|            02                                 |    .           |      [149]: 2 transition_type 0xb24-0xb24.7 (1)
0xb20|               03                              |     .          |      [150]: 3 transition_type 0xb25-0xb25.7 (1)
0xb20|                  02                           |      .         |      [151]: 2 transition_type 0xb26-0xb26.7 (1)
0xb20|                     03                        |       .        |      [152]: 3 transition_type 0xb27-0xb27.7 (1)
0xb20|                        02                     |        .       |      [153]: 2 transition_type 0xb28-0xb28.7 (1)
0xb20|                           03                  |         .      |      [154]: 3 transition_type 0xb29-0xb29.7 (1)
0xb20|                              02               |          .     |      [155]: 2 transition_type 0xb2a-0xb2a.7 (1)
0xb20|                                 03            |           .    |      [156]: 3 transition_type 0xb2b-0xb2b.7 (1)
0xb20|                                    02         |            .   |      [157]: 2 transition_type 0xb2c-0xb2c.7 (1)
0xb20|                                       03      |             .  |      [158]: 3 transition_type 0xb2d-0xb2d.7 (1)
0xb20|                                          02   |              . |      [159]: 2 transition_type 0xb2e-0xb2e.7 (1)
0xb20|                                             03|               .|      [160]: 3 transition_type 0xb2f-0xb2f.7 (1)
0xb30|02                                             |.               |      [161]: 2 transition_type 0xb30-0xb30.7 (1)
0xb30|   03                                          | .              |      [162]: 3 transition_type 0xb31-0xb31.7 (1)
0xb30|      02                                       |  .             |      [163]: 2 transition_type 0xb32-0xb32.7 (1)
0xb30|         03                                    |   .            |      [164]: 3 transition_type 0xb33-0xb33.7 (1)
0xb30|            02                                 |    .           |      [165]: 2 transition_type 0xb34-0xb34.7 (1)
0xb30|               03                              |     .          |      [166]: 3 transition_type 0xb35-0xb35.7 (1)
0xb30|                  02                           |      .         |      [167]: 2 transition_type 0xb36-0xb36.7 (1)
0xb30|                     03                        |       .        |      [168]: 3 transition_type 0xb37-0xb37.7 (1)
0xb30|                        02                     |        .       |      [169]: 2 transition_type 0xb38-0xb38.7 (1)
0xb30|                           03                  |         .      |      [170]: 3 transition_type 0xb39-0xb39.7 (1)
0xb30|                              02               |          .     |      [171]: 2 transition_type 0xb3a-0xb3a.7 (1)
0xb30|                                 03            |           .    |      [172]: 3 transition_type 0xb3b-0xb3b.7 (1)
0xb30|                                    02         |            .   |      [173]: 2 transition_type 0xb3c-0xb3c.7 (1)
0xb30|                                       03      |             .  |      [174]: 3 transition_type 0xb3d-0xb3d.7 (1)
0xb30|                                          02   |              . |      [175]: 2 transition_type 0xb3e-0xb3e.7 (1)
0xb30|                                             03|               .|      [176]: 3 transition_type 0xb3f-0xb3f.7 (1)
0xb40|02                                             |.               |      [177]: 2 transition_type 0xb40-0xb40.7 (1)
0xb40|   02                                          | .              |      [178]: 2 transition_type 0xb41-0xb41.7 (1)
     |                                               |                |    local_time_type_records[0:6]: 0xb42-0xb65.7 (36)
     |                                               |                |      [0]{}: local_time_type 0xb42-0xb47.7 (6)
0xb40|      ff ff c3 44                              |  ...D          |        utoff: -15548 (valid) 0xb42-0xb45.7 (4)
0xb40|                  00                           |      .         |        dst: 0 (valid) 0xb46-0xb46.7 (1)
0xb40|                     00                        |       .        |        idx: 0 (valid) 0xb47-0xb47.7 (1)
     |                                               |                |      [1]{}: local_time_type 0xb48-0xb4d.7 (6)
0xb40|                        ff ff b9 b0            |        ....    |        utoff: -18000 (valid) 0xb48-0xb4b.7 (4)
0xb40|                                    00         |            .   |        dst: 0 (valid) 0xb4c-0xb4c.7 (1)
0xb40|                                       04      |             .  |        idx: 4 (valid) 0xb4d-0xb4d.7 (1)
     |                                               |                |      [2]{}: local_time_type 0xb4e-0xb53.7 (6)
0xb40|                                          ff ff|              ..|        utoff: -10800 (valid) 0xb4e-0xb51.7 (4)
0xb50|d5 d0                                          |..              |
0xb50|      01                                       |  .             |        dst: 1 (valid) 0xb52-0xb52.7 (1)
0xb50|         08                                    |   .            |        idx: 8 (valid) 0xb53-0xb53.7 (1)
     |                                               |                |      [3]{}: local_time_type 0xb54-0xb59.7 (6)
0xb50|            ff ff c7 c0                        |    ....        |        utoff: -14400 (valid) 0xb54-0xb57.7 (4)
0xb50|                        00                     |        .       |        dst: 0 (valid) 0xb58-0xb58.7 (1)
0xb50|                           0c                  |         .      |        idx: 12 (valid) 0xb59-0xb59.7 (1)
     |                                               |                |      [4]{}: local_time_type 0xb5a-0xb5f.7 (6)
0xb50|                              ff ff d5 d0      |          ....  |        utoff: -10800 (valid) 0xb5a-0xb5d.7 (4)
0xb50|                                          01   |              . |        dst: 1 (valid) 0xb5e-0xb5e.7 (1)
0xb50|                                             10|               .|        idx: 16 (valid) 0xb5f-0xb5f.7 (1)
     |                                               |                |      [5]{}: local_time_type 0xb60-0xb65.7 (6)
0xb60|ff ff d5 d0                                    |....            |        utoff: -10800 (valid) 0xb60-0xb63.7 (4)
0xb60|            01                                 |    .           |        dst: 1 (valid) 0xb64-0xb64.7 (1)
0xb60|               14                              |     .          |        idx: 20 (valid) 0xb65-0xb65.7 (1)
     |                                               |                |    time_zone_designations[0:6]: 0xb66-0xb7d.7 (24)
0xb60|                  4c 4d 54 00                  |      LMT.      |      [0]: "LMT" time_zone_designation 0xb66-0xb69.7 (4)
0xb60|                              45 53 54 00      |          EST.  |      [1]: "EST" time_zone_designation 0xb6a-0xb6d.7 (4)
0xb60|                                          41 44|              AD|      [2]: "ADT" time_zone_designation 0xb6e-0xb71.7 (4)
0xb70|54 00                                          |T.              |
0xb70|      41 53 54 00                              |  AST.          |      [3]: "AST" time_zone_designation 0xb72-0xb75.7 (4)
0xb70|                  41 57 54 00                  |      AWT.      |      [4]: "AWT" time_zone_designation 0xb76-0xb79.7 (4)
0xb70|                              41 50 54 00      |          APT.  |      [5]: "APT" time_zone_designation 0xb7a-0xb7d.7 (4)
     |                                               |                |    leap_second_records[0:27]: 0xb7e-0xcc1.7 (324)
     |                                               |                |      [0]{}: leap_second_record 0xb7e-0xb89.7 (12)
0xb70|                                          00 00|              ..|        occur: "1972-07-01T00:00:00Z" (78796800) 0xb7e-0xb85.7 (8)
0xb80|00 00 04 b2 58 00                              |....X.          |
0xb80|                  00 00 00 01                  |      ....      |        corr: 1 0xb86-0xb89.7 (4)
     |                                               |                |      [1]{}: leap_second_record 0xb8a-0xb95.7 (12)
0xb80|                              00 00 00 00 05 a4|          ......|        occur: "1973-01-01T00:00:01Z" (94694401) 0xb8a-0xb91.7 (8)
0xb90|ec 01                                          |..              |
0xb90|      00 00 00 02                              |  ....          |        corr: 2 0xb92-0xb95.7 (4)
     |                                               |                |      [2]{}: leap_second_record 0xb96-0xba1.7 (12)
0xb90|                  00 00 00 00 07 86 1f 82      |      ........  |        occur: "1974-01-01T00:00:02Z" (126230402) 0xb96-0xb9d.7 (8)
0xb90|                                          00 00|              ..|        corr: 3 0xb9e-0xba1.7 (4)
0xba0|00 03                                          |..              |
     |                                               |                |      [3]{}: leap_second_record 0xba2-0xbad.7 (12)
0xba0|      00 00 00 00 09 67 53 03                  |  .....gS.      |        occur: "1975-01-01T00:00:03Z" (157766403) 0xba2-0xba9.7 (8)
0xba0|                              00 00 00 04      |          ....  |        corr: 4 0xbaa-0xbad.7 (4)
     |                                               |                |      [4]{}: leap_second_record 0xbae-0xbb9.7 (12)
0xba0|                                          00 00|              ..|        occur: "1976-01-01T00:00:04Z" (189302404) 0xbae-0xbb5.7 (8)
0xbb0|00 00 0b 48 86 84                              |...H..          |
0xbb0|                  00 00 00 05                  |      ....      |        corr: 5 0xbb6-0xbb9.7 (4)
     |                                               |                |      [5]{}: leap_second_record 0xbba-0xbc5.7 (12)
0xbb0|                              00 00 00 00 0d 2b|          .....+|        occur: "1977-01-01T00:00:05Z" (220924805) 0xbba-0xbc1.7 (8)
0xbc0|0b 85                                          |..              |
0xbc0|      00 00 00 06                              |  ....          |        corr: 6 0xbc2-0xbc5.7 (4)
     |                                               |                |      [6]{}: leap_second_record 0xbc6-0xbd1.7 (12)
0xbc0|                  00 00 00 00 0f 0c 3f 06      |      ......?.  |        occur: "1978-01-01T00:00:06Z" (252460806) 0xbc6-0xbcd.7 (8)
0xbc0|                                          00 00|              ..|        corr: 7 0xbce-0xbd1.7 (4)
0xbd0|00 07                                          |..              |
     |                                               |                |      [7]{}: leap_second_record 0xbd2-0xbdd.7 (12)
0xbd0|      00 00 00 00 10 ed 72 87                  |  ......r.      |        occur: "1979-01-01T00:00:07Z" (283996807) 0xbd2-0xbd9.7 (8)
0xbd0|                              00 00 00 08      |          ....  |        corr: 8 0xbda-0xbdd.7 (4)
     |                                               |                |      [8]{}: leap_second_record 0xbde-0xbe9.7 (12)
0xbd0|                                          00 00|              ..|        occur: "1980-01-01T00:00:08Z" (315532808) 0xbde-0xbe5.7 (8)
0xbe0|00 00 12 ce a6 08                              |......          |
0xbe0|                  00 00 00 09                  |      ....      |        corr: 9 0xbe6-0xbe9.7 (4)
     |                                               |                |      [9]{}: leap_second_record 0xbea-0xbf5.7 (12)
0xbe0|                              00 00 00 00 15 9f|          ......|        occur: "1981-07-01T00:00:09Z" (362793609) 0xbea-0xbf1.7 (8)
0xbf0|ca 89                                          |..              |
0xbf0|      00 00 00 0a                              |  ....          |        corr: 10 0xbf2-0xbf5.7 (4)
     |                                               |                |      [10]{}: leap_second_record 0xbf6-0xc01.7 (12)
0xbf0|                  00 00 00 00 17 80 fe 0a      |      ........  |        occur: "1982-07-01T00:00:10Z" (394329610) 0xbf6-0xbfd.7 (8)
0xbf0|                                          00 00|              ..|        corr: 11 0xbfe-0xc01.7 (4)
0xc00|00 0b                                          |..              |
     |                                               |                |      [11]{}: leap_second_record 0xc02-0xc0d.7 (12)
0xc00|      00 00 00 00 19 62 31 8b                  |  .....b1.      |        occur: "1983-07-01T00:00:11Z" (425865611) 0xc02-0xc09.7 (8)
0xc00|                              00 00 00 0c      |          ....  |        corr: 12 0xc0a-0xc0d.7 (4)
     |                                               |                |      [12]{}: leap_second_record 0xc0e-0xc19.7 (12)
0xc00|                                          00 00|              ..|        occur: "1985-07-01T00:00:12Z" (489024012) 0xc0e-0xc15.7 (8)
0xc10|00 00 1d 25 ea 0c                              |...%..          |
0xc10|                  00 00 00 0d                  |      ....      |        corr: 13 0xc16-0xc19.7 (4)
     |                                               |                |      [13]{}: leap_second_record 0xc1a-0xc25.7 (12)
0xc10|                              00 00 00 00 21 da|          ....!.|        occur: "1988-01-01T00:00:13Z" (567993613) 0xc1a-0xc21.7 (8)
0xc20|e5 0d                                          |..              |
0xc20|      00 00 00 0e                              |  ....          |        corr: 14 0xc22-0xc25.7 (4)
     |                                               |                |      [14]{}: leap_second_record 0xc26-0xc31.7 (12)
0xc20|                  00 00 00 00 25 9e 9d 8e      |      ....%...  |        occur: "1990-01-01T00:00:14Z" (631152014) 0xc26-0xc2d.7 (8)
0xc20|                                          00 00|              ..|        corr: 15 0xc2e-0xc31.7 (4)
0xc30|00 0f                                          |..              |
     |                                               |                |      [15]{}: leap_second_record 0xc32-0xc3d.7 (12)
0xc30|      00 00 00 00 27 7f d1 0f                  |  ....'...      |        occur: "1991-01-01T00:00:15Z" (662688015) 0xc32-0xc39.7 (8)
0xc30|                              00 00 00 10      |          ....  |        corr: 16 0xc3a-0xc3d.7 (4)
     |                                               |                |      [16]{}: leap_second_record 0xc3e-0xc49.7 (12)
0xc30|                                          00 00|              ..|        occur: "1992-07-01T00:00:16Z" (709948816) 0xc3e-0xc45.7 (8)
0xc40|00 00 2a 50 f5 90                              |..*P..          |
0xc40|                  00 00 00 11                  |      ....      |        corr: 17 0xc46-0xc49.7 (4)
     |                                               |                |      [17]{}: leap_second_record 0xc4a-0xc55.7 (12)
0xc40|                              00 00 00 00 2c 32|          ....,2|        occur: "1993-07-01T00:00:17Z" (741484817) 0xc4a-0xc51.7 (8)
0xc50|29 11                                          |).              |
0xc50|      00 00 00 12                              |  ....          |        corr: 18 0xc52-0xc55.7 (4)
     |                                               |                |      [18]{}: leap_second_record 0xc56-0xc61.7 (12)
0xc50|                  00 00 00 00 2e 13 5c 92      |      ......\.  |        occur: "1994-07-01T00:00:18Z" (773020818) 0xc56-0xc5d.7 (8)
0xc50|                                          00 00|              ..|        corr: 19 0xc5e-0xc61.7 (4)
0xc60|00 13                                          |..              |
     |                                               |                |      [19]{}: leap_second_record 0xc62-0xc6d.7 (12)
0xc60|      00 00 00 00 30 e7 24 13                  |  ....0.$.      |        occur: "1996-01-01T00:00:19Z" (820454419) 0xc62-0xc69.7 (8)
0xc60|                              00 00 00 14      |          ....  |        corr: 20 0xc6a-0xc6d.7 (4)
     |                                               |                |      [20]{}: leap_second_record 0xc6e-0xc79.7 (12)
0xc60|                                          00 00|              ..|        occur: "1997-07-01T00:00:20Z" (867715220) 0xc6e-0xc75.7 (8)
0xc70|00 00 33 b8 48 94                              |..3.H.          |
0xc70|                  00 00 00 15                  |      ....      |        corr: 21 0xc76-0xc79.7 (4)
     |                                               |                |      [21]{}: leap_second_record 0xc7a-0xc85.7 (12)
0xc70|                              00 00 00 00 36 8c|          ....6.|        occur: "1999-01-01T00:00:21Z" (915148821) 0xc7a-0xc81.7 (8)
0xc80|10 15                                          |..              |
0xc80|      00 00 00 16                              |  ....          |        corr: 22 0xc82-0xc85.7 (4)
     |                                               |                |      [22]{}: leap_second_record 0xc86-0xc91.7 (12)
0xc80|                  00 00 00 00 43 b7 1b 96      |      ....C...  |        occur: "2006-01-01T00:00:22Z" (1136073622) 0xc86-0xc8d.7 (8)
0xc80|                                          00 00|              ..|        corr: 23 0xc8e-0xc91.7 (4)
0xc90|00 17                                          |..              |
     |                                               |                |      [23]{}: leap_second_record 0xc92-0xc9d.7 (12)
0xc90|      00 00 00 00 49 5c 07 97                  |  ....I\..      |        occur: "2009-01-01T00:00:23Z" (1230768023) 0xc92-0xc99.7 (8)
0xc90|                              00 00 00 18      |          ....  |        corr: 24 0xc9a-0xc9d.7 (4)
     |                                               |                |      [24]{}: leap_second_record 0xc9e-0xca9.7 (12)
0xc90|                                          00 00|              ..|        occur: "2012-07-01T00:00:24Z" (1341100824) 0xc9e-0xca5.7 (8)
0xca0|00 00 4f ef 93 18                              |..O...          |
0xca0|                  00 00 00 19                  |      ....      |        corr: 25 0xca6-0xca9.7 (4)
     |                                               |                |      [25]{}: leap_second_record 0xcaa-0xcb5.7 (12)
0xca0|                              00 00 00 00 55 93|          ....U.|        occur: "2015-07-01T00:00:25Z" (1435708825) 0xcaa-0xcb1.7 (8)
0xcb0|2d 99                                          |-.              |
0xcb0|      00 00 00 1a                              |  ....          |        corr: 26 0xcb2-0xcb5.7 (4)
     |                                               |                |      [26]{}: leap_second_record 0xcb6-0xcc1.7 (12)
0xcb0|                  00 00 00 00 58 68 46 9a      |      ....XhF.  |        occur: "2017-01-01T00:00:26Z" (1483228826) 0xcb6-0xcbd.7 (8)
0xcb0|                                          00 00|              ..|        corr: 27 0xcbe-0xcc1.7 (4)
0xcc0|00 1b                                          |..              |
     |                                               |                |    standard_wall_indicators[0:6]: 0xcc2-0xcc7.7 (6)
0xcc0|      00                                       |  .             |      [0]: 0 standard_wall_indicator (valid) 0xcc2-0xcc2.7 (1)
0xcc0|         00                                    |   .            |      [1]: 0 standard_wall_indicator (valid) 0xcc3-0xcc3.7 (1)
0xcc0|            00                                 |    .           |      [2]: 0 standard_wall_indicator (valid) 0xcc4-0xcc4.7 (1)
0xcc0|               00                              |     .          |      [3]: 0 standard_wall_indicator (valid) 0xcc5-0xcc5.7 (1)
0xcc0|                  00                           |      .         |      [4]: 0 standard_wall_indicator (valid) 0xcc6-0xcc6.7 (1)
0xcc0|                     01                        |       .        |      [5]: 1 standard_wall_indicator (valid) 0xcc7-0xcc7.7 (1)
     |                                               |                |    ut_local_indicators[0:6]: 0xcc8-0xccd.7 (6)
0xcc0|                        00                     |        .       |      [0]: 0 ut_local_indicator (valid) 0xcc8-0xcc8.7 (1)
0xcc0|                           00                  |         .      |      [1]: 0 ut_local_indicator (valid) 0xcc9-0xcc9.7 (1)
0xcc0|                              00               |          .     |      [2]: 0 ut_local_indicator (valid) 0xcca-0xcca.7 (1)
0xcc0|                                 00            |           .    |      [3]: 0 ut_local_indicator (valid) 0xccb-0xccb.7 (1)
0xcc0|                                    00         |            .   |      [4]: 0 ut_local_indicator (valid) 0xccc-0xccc.7 (1)
0xcc0|                                       01      |             .  |      [5]: 1 ut_local_indicator (valid) 0xccd-0xccd.7 (1)
     |                                               |                |  footer{}: 0xcce-0xccf.7 (2)
0xcc0|                                          0a   |              . |    nl1: 10 (valid) 0xcce-0xcce.7 (1)
     |                                               |                |    tz_string: "" 0xccf-NA (0)
0xcc0|                                             0a|               .|    nl2: 10 (valid) 0xccf-0xccf.7 (1)
