$ fq -d tzif dv Monterrey
     |00 01 02 03 04 05 06 07 08 09 0a 0b 0c 0d 0e 0f|0123456789abcdef|.{}: Monterrey (tzif) 0x0-0x5f9.7 (1530)
     |                                               |                |  v1header{}: 0x0-0x2b.7 (44)
0x000|54 5a 69 66                                    |TZif            |    magic: 0x545a6966 (valid) 0x0-0x3.7 (4)
0x000|            32                                 |    2           |    ver: "2" (0x32) (valid) 0x4-0x4.7 (1)
0x000|               00 00 00 00 00 00 00 00 00 00 00|     ...........|    reserved: raw bits 0x5-0x13.7 (15)
0x010|00 00 00 00                                    |....            |
0x010|            00 00 00 04                        |    ....        |    isutcnt: 4 0x14-0x17.7 (4)
0x010|                        00 00 00 04            |        ....    |    isstdcnt: 4 0x18-0x1b.7 (4)
0x010|                                    00 00 00 1b|            ....|    leapcnt: 27 0x1c-0x1f.7 (4)
0x020|00 00 00 3a                                    |...:            |    timecnt: 58 0x20-0x23.7 (4)
0x020|            00 00 00 04                        |    ....        |    typecnt: 4 0x24-0x27.7 (4)
0x020|                        00 00 00 0c            |        ....    |    charcnt: 12 0x28-0x2b.7 (4)
     |                                               |                |  v1datablock{}: 0x2c-0x251.7 (550)
     |                                               |                |    transition_times[0:58]: 0x2c-0x113.7 (232)
0x020|                                    a5 b6 da 60|            ...`|      [0]: "1922-01-01T06:00:00Z" (-1514743200) transition_time 0x2c-0x2f.7 (4)
0x030|22 55 f1 0e                                    |"U..            |      [1]: "1988-04-03T08:00:14Z" (576057614) transition_time 0x30-0x33.7 (4)
0x030|            23 6a bd fe                        |    #j..        |      [2]: "1988-10-30T07:00:14Z" (594198014) transition_time 0x34-0x37.7 (4)
0x030|                        31 67 76 14            |        1gv.    |      [3]: "1996-04-07T08:00:20Z" (828864020) transition_time 0x38-0x3b.7 (4)
0x030|                                    32 73 08 84|            2s..|      [4]: "1996-10-27T07:00:20Z" (846399620) transition_time 0x3c-0x3f.7 (4)
0x040|33 47 58 14                                    |3GX.            |      [5]: "1997-04-06T08:00:20Z" (860313620) transition_time 0x40-0x43.7 (4)
0x040|            34 52 ea 85                        |    4R..        |      [6]: "1997-10-26T07:00:21Z" (877849221) transition_time 0x44-0x47.7 (4)
0x040|                        35 27 3a 15            |        5':.    |      [7]: "1998-04-05T08:00:21Z" (891763221) transition_time 0x48-0x4b.7 (4)
0x040|                                    36 32 cc 85|            62..|      [8]: "1998-10-25T07:00:21Z" (909298821) transition_time 0x4c-0x4f.7 (4)
0x050|37 07 1c 16                                    |7...            |      [9]: "1999-04-04T08:00:22Z" (923212822) transition_time 0x50-0x53.7 (4)
0x050|            38 1b e9 06                        |    8...        |      [10]: "1999-10-31T07:00:22Z" (941353222) transition_time 0x54-0x57.7 (4)
0x050|                        38 e6 fe 16            |        8...    |      [11]: "2000-04-02T08:00:22Z" (954662422) transition_time 0x58-0x5b.7 (4)
0x050|                                    39 fb cb 06|            9...|      [12]: "2000-10-29T07:00:22Z" (972802822) transition_time 0x5c-0x5f.7 (4)
0x060|3a f5 04 96                                    |:...            |      [13]: "2001-05-06T08:00:22Z" (989136022) transition_time 0x60-0x63.7 (4)
0x060|            3b b6 c3 06                        |    ;...        |      [14]: "2001-09-30T07:00:22Z" (1001833222) transition_time 0x64-0x67.7 (4)
0x060|                        3c af fc 96            |        <...    |      [15]: "2002-04-07T08:00:22Z" (1018166422) transition_time 0x68-0x6b.7 (4)
0x060|                                    3d bb 8f 06|            =...|      [16]: "2002-10-27T07:00:22Z" (1035702022) transition_time 0x6c-0x6f.7 (4)
0x070|3e 8f de 96                                    |>...            |      [17]: "2003-04-06T08:00:22Z" (1049616022) transition_time 0x70-0x73.7 (4)
0x070|            3f 9b 71 06                        |    ?.q.        |      [18]: "2003-10-26T07:00:22Z" (1067151622) transition_time 0x74-0x77.7 (4)
0x070|                        40 6f c0 96            |        @o..    |      [19]: "2004-04-04T08:00:22Z" (1081065622) transition_time 0x78-0x7b.7 (4)
0x070|                                    41 84 8d 86|            A...|      [20]: "2004-10-31T07:00:22Z" (1099206022) transition_time 0x7c-0x7f.7 (4)
0x080|42 4f a2 96                                    |BO..            |      [21]: "2005-04-03T08:00:22Z" (1112515222) transition_time 0x80-0x83.7 (4)
0x080|            43 64 6f 86                        |    Cdo.        |      [22]: "2005-10-30T07:00:22Z" (1130655622) transition_time 0x84-0x87.7 (4)
0x080|                        44 2f 84 97            |        D/..    |      [23]: "2006-04-02T08:00:23Z" (1143964823) transition_time 0x88-0x8b.7 (4)
0x080|                                    45 44 51 87|            EDQ.|      [24]: "2006-10-29T07:00:23Z" (1162105223) transition_time 0x8c-0x8f.7 (4)
0x090|46 0f 66 97                                    |F.f.            |      [25]: "2007-04-01T08:00:23Z" (1175414423) transition_time 0x90-0x93.7 (4)
0x090|            47 24 33 87                        |    G$3.        |      [26]: "2007-10-28T07:00:23Z" (1193554823) transition_time 0x94-0x97.7 (4)
0x090|                        47 f8 83 17            |        G...    |      [27]: "2008-04-06T08:00:23Z" (1207468823) transition_time 0x98-0x9b.7 (4)
0x090|                                    49 04 15 87|            I...|      [28]: "2008-10-26T07:00:23Z" (1225004423) transition_time 0x9c-0x9f.7 (4)
0x0a0|49 d8 65 18                                    |I.e.            |      [29]: "2009-04-05T08:00:24Z" (1238918424) transition_time 0xa0-0xa3.7 (4)
0x0a0|            4a e3 f7 88                        |    J...        |      [30]: "2009-10-25T07:00:24Z" (1256454024) transition_time 0xa4-0xa7.7 (4)
0x0a0|                        4b b8 47 18            |        K.G.    |      [31]: "2010-04-04T08:00:24Z" (1270368024) transition_time 0xa8-0xab.7 (4)
0x0a0|                                    4c cd 14 08|            L...|      [32]: "2010-10-31T07:00:24Z" (1288508424) transition_time 0xac-0xaf.7 (4)
0x0b0|4d 98 29 18                                    |M.).            |      [33]: "2011-04-03T08:00:24Z" (1301817624) transition_time 0xb0-0xb3.7 (4)
0x0b0|            4e ac f6 08                        |    N...        |      [34]: "2011-10-30T07:00:24Z" (1319958024) transition_time 0xb4-0xb7.7 (4)
0x0b0|                        4f 78 0b 18            |        Ox..    |      [35]: "2012-04-01T08:00:24Z" (1333267224) transition_time 0xb8-0xbb.7 (4)
0x0b0|                                    50 8c d8 09|            P...|      [36]: "2012-10-28T07:00:25Z" (1351407625) transition_time 0xbc-0xbf.7 (4)
0x0c0|51 61 27 99                                    |Qa'.            |      [37]: "2013-04-07T08:00:25Z" (1365321625) transition_time 0xc0-0xc3.7 (4)
0x0c0|            52 6c ba 09                        |    Rl..        |      [38]: "2013-10-27T07:00:25Z" (1382857225) transition_time 0xc4-0xc7.7 (4)
0x0c0|                        53 41 09 99            |        SA..    |      [39]: "2014-04-06T08:00:25Z" (1396771225) transition_time 0xc8-0xcb.7 (4)
0x0c0|                                    54 4c 9c 09|            TL..|      [40]: "2014-10-26T07:00:25Z" (1414306825) transition_time 0xcc-0xcf.7 (4)
0x0d0|55 20 eb 99                                    |U ..            |      [41]: "2015-04-05T08:00:25Z" (1428220825) transition_time 0xd0-0xd3.7 (4)
0x0d0|            56 2c 7e 0a                        |    V,~.        |      [42]: "2015-10-25T07:00:26Z" (1445756426) transition_time 0xd4-0xd7.7 (4)
0x0d0|                        57 00 cd 9a            |        W...    |      [43]: "2016-04-03T08:00:26Z" (1459670426) transition_time 0xd8-0xdb.7 (4)
0x0d0|                                    58 15 9a 8a|            X...|      [44]: "2016-10-30T07:00:26Z" (1477810826) transition_time 0xdc-0xdf.7 (4)
0x0e0|58 e0 af 9b                                    |X...            |      [45]: "2017-04-02T08:00:27Z" (1491120027) transition_time 0xe0-0xe3.7 (4)
0x0e0|            59 f5 7c 8b                        |    Y.|.        |      [46]: "2017-10-29T07:00:27Z" (1509260427) transition_time 0xe4-0xe7.7 (4)
0x0e0|                        5a c0 91 9b            |        Z...    |      [47]: "2018-04-01T08:00:27Z" (1522569627) transition_time 0xe8-0xeb.7 (4)
0x0e0|                                    5b d5 5e 8b|            [.^.|      [48]: "2018-10-28T07:00:27Z" (1540710027) transition_time 0xec-0xef.7 (4)
0x0f0|5c a9 ae 1b                                    |\...            |      [49]: "2019-04-07T08:00:27Z" (1554624027) transition_time 0xf0-0xf3.7 (4)
0x0f0|            5d b5 40 8b                        |    ].@.        |      [50]: "2019-10-27T07:00:27Z" (1572159627) transition_time 0xf4-0xf7.7 (4)
0x0f0|                        5e 89 90 1b            |        ^...    |      [51]: "2020-04-05T08:00:27Z" (1586073627) transition_time 0xf8-0xfb.7 (4)
0x0f0|                                    5f 95 22 8b|            _.".|      [52]: "2020-10-25T07:00:27Z" (1603609227) transition_time 0xfc-0xff.7 (4)
0x100|60 69 72 1b                                    |`ir.            |      [53]: "2021-04-04T08:00:27Z" (1617523227) transition_time 0x100-0x103.7 (4)
0x100|            61 7e 3f 0b                        |    a~?.        |      [54]: "2021-10-31T07:00:27Z" (1635663627) transition_time 0x104-0x107.7 (4)
0x100|                        62 49 54 1b            |        bIT.    |      [55]: "2022-04-03T08:00:27Z" (1648972827) transition_time 0x108-0x10b.7 (4)
0x100|                                    63 5e 21 0b|            c^!.|      [56]: "2022-10-30T07:00:27Z" (1667113227) transition_time 0x10c-0x10f.7 (4)
0x110|64 9b 78 1b                                    |d.x.            |      [57]: "2023-06-28T00:00:27Z" (1687910427) transition_time 0x110-0x113.7 (4)
     |                                               |                |    transition_types[0:58]: 0x114-0x14d.7 (58)
0x110|            01                                 |    .           |      [0]: 1 transition_type 0x114-0x114.7 (1)
0x110|               02                              |     .          |      [1]: 2 transition_type 0x115-0x115.7 (1)
0x110|                  03                           |      .         |      [2]: 3 transition_type 0x116-0x116.7 (1)
0x110|                     02                        |       .        |      [3]: 2 transition_type 0x117-0x117.7 (1)
0x110|                        03                     |        .       |      [4]: 3 transition_type 0x118-0x118.7 (1)
0x110|                           02                  |         .      |      [5]: 2 transition_type 0x119-0x119.7 (1)
0x110|                              03               |          .     |      [6]: 3 transition_type 0x11a-0x11a.7 (1)
0x110|                                 02            |           .    |      [7]: 2 transition_type 0x11b-0x11b.7 (1)
0x110|                                    03         |            .   |      [8]: 3 transition_type 0x11c-0x11c.7 (1)
0x110|                                       02      |             .  |      [9]: 2 transition_type 0x11d-0x11d.7 (1)
0x110|                                          03   |              . |      [10]: 3 transition_type 0x11e-0x11e.7 (1)
0x110|                                             02|               .|      [11]: 2 transition_type 0x11f-0x11f.7 (1)
0x120|03                                             |.               |      [12]: 3 transition_type 0x120-0x120.7 (1)
0x120|   02                                          | .              |      [13]: 2 transition_type 0x121-0x121.7 (1)
0x120|      03                                       |  .             |      [14]: 3 transition_type 0x122-0x122.7 (1)
0x120|         02                                    |   .            |      [15]: 2 transition_type 0x123-0x123.7 (1)
0x120|            03                                 |    .           |      [16]: 3 transition_type 0x124-0x124.7 (1)
0x120|               02                              |     .          |      [17]: 2 transition_type 0x125-0x125.7 (1)
0x120|                  03                           |      .         |      [18]: 3 transition_type 0x126-0x126.7 (1)
0x120|                     02                        |       .        |      [19]: 2 transition_type 0x127-0x127.7 (1)
0x120|                        03                     |        .       |      [20]: 3 transition_type 0x128-0x128.7 (1)
0x120|                           02                  |         .      |      [21]: 2 transition_type 0x129-0x129.7 (1)
0x120|                              03               |          .     |      [22]: 3 transition_type 0x12a-0x12a.7 (1)
0x120|                                 02            |           .    |      [23]: 2 transition_type 0x12b-0x12b.7 (1)
0x120|                                    03         |            .   |      [24]: 3 transition_type 0x12c-0x12c.7 (1)
0x120|                                       02      |             .  |      [25]: 2 transition_type 0x12d-0x12d.7 (1)
0x120|                                          03   |              . |      [26]: 3 transition_type 0x12e-0x12e.7 (1)
0x120|                                             02|               .|      [27]: 2 transition_type 0x12f-0x12f.7 (1)
0x130|03                                             |.               |      [28]: 3 transition_type 0x130-0x130.7 (1)
0x130|   02                                          | .              |      [29]: 2 transition_type 0x131-0x131.7 (1)
0x130|      03                                       |  .             |      [30]: 3 transition_type 0x132-0x132.7 (1)
0x130|         02                                    |   .            |      [31]: 2 transition_type 0x133-0x133.7 (1)
0x130|            03                                 |    .           |      [32]: 3 transition_type 0x134-0x134.7 (1)
0x130|               02                              |     .          |      [33]: 2 transition_type 0x135-0x135.7 (1)
0x130|                  03                           |      .         |      [34]: 3 transition_type 0x136-0x136.7 (1)
0x130|                     02                        |       .        |      [35]: 2 transition_type 0x137-0x137.7 (1)
0x130|                        03                     |        .       |      [36]: 3 transition_type 0x138-0x138.7 (1)
0x130|                           02                  |         .      |      [37]: 2 transition_type 0x139-0x139.7 (1)
0x130|                              03               |          .     |      [38]: 3 transition_type 0x13a-0x13a.7 (1)
0x130|                                 02            |           .    |      [39]: 2 transition_type 0x13b-0x13b.7 (1)
0x130|                                    03         |            .   |      [40]: 3 transition_type 0x13c-0x13c.7 (1)
0x130|                                       02      |             .  |      [41]: 2 transition_type 0x13d-0x13d.7 (1)
0x130|                                          03   |              . |      [42]: 3 transition_type 0x13e-0x13e.7 (1)
0x130|                                             02|               .|      [43]: 2 transition_type 0x13f-0x13f.7 (1)
0x140|03                                             |.               |      [44]: 3 transition_type 0x140-0x140.7 (1)
0x140|   02                                          | .              |      [45]: 2 transition_type 0x141-0x141.7 (1)
0x140|      03                                       |  .             |      [46]: 3 transition_type 0x142-0x142.7 (1)
0x140|         02                                    |   .            |      [47]: 2 transition_type 0x143-0x143.7 (1)
0x140|            03                                 |    .           |      [48]: 3 transition_type 0x144-0x144.7 (1)
0x140|               02                              |     .          |      [49]: 2 transition_type 0x145-0x145.7 (1)
0x140|                  03                           |      .         |      [50]: 3 transition_type 0x146-0x146.7 (1)
0x140|                     02                        |       .        |      [51]: 2 transition_type 0x147-0x147.7 (1)
0x140|                        03                     |        .       |      [52]: 3 transition_type 0x148-0x148.7 (1)
0x140|                           02                  |         .      |      [53]: 2 transition_type 0x149-0x149.7 (1)
0x140|                              03               |          .     |      [54]: 3 transition_type 0x14a-0x14a.7 (1)
0x140|                                 02            |           .    |      [55]: 2 transition_type 0x14b-0x14b.7 (1)
0x140|                                    03         |            .   |      [56]: 3 transition_type 0x14c-0x14c.7 (1)
0x140|                                       03      |             .  |      [57]: 3 transition_type 0x14d-0x14d.7 (1)
     |                                               |                |    local_time_type_records[0:4]: 0x14e-0x165.7 (24)
     |                                               |                |      [0]{}: local_time_type 0x14e-0x153.7 (6)
0x140|                                          ff ff|              ..|        utoff: -24076 (valid) 0x14e-0x151.7 (4)
0x150|a1 f4                                          |..              |
0x150|      00                                       |  .             |        dst: 0 (valid) 0x152-0x152.7 (1)
0x150|         00                                    |   .            |        idx: 0 (valid) 0x153-0x153.7 (1)
     |                                               |                |      [1]{}: local_time_type 0x154-0x159.7 (6)
0x150|            ff ff ab a0                        |    ....        |        utoff: -21600 (valid) 0x154-0x157.7 (4)
0x150|                        00                     |        .       |        dst: 0 (valid) 0x158-0x158.7 (1)
0x150|                           04                  |         .      |        idx: 4 (valid) 0x159-0x159.7 (1)
     |                                               |                |      [2]{}: local_time_type 0x15a-0x15f.7 (6)
0x150|                              ff ff b9 b0      |          ....  |        utoff: -18000 (valid) 0x15a-0x15d.7 (4)
0x150|                                          01   |              . |        dst: 1 (valid) 0x15e-0x15e.7 (1)
0x150|                                             08|               .|        idx: 8 (valid) 0x15f-0x15f.7 (1)
     |                                               |                |      [3]{}: local_time_type 0x160-0x165.7 (6)
0x160|ff ff ab a0                                    |....            |        utoff: -21600 (valid) 0x160-0x163.7 (4)
0x160|            00                                 |    .           |        dst: 0 (valid) 0x164-0x164.7 (1)
0x160|               04                              |     .          |        idx: 4 (valid) 0x165-0x165.7 (1)
     |                                               |                |    time_zone_designations[0:3]: 0x166-0x171.7 (12)
0x160|                  4c 4d 54 00                  |      LMT.      |      [0]: "LMT" time_zone_designation 0x166-0x169.7 (4)
0x160|                              43 53 54 00      |          CST.  |      [1]: "CST" time_zone_designation 0x16a-0x16d.7 (4)
0x160|                                          43 44|              CD|      [2]: "CDT" time_zone_designation 0x16e-0x171.7 (4)
0x170|54 00                                          |T.              |
     |                                               |                |    leap_second_records[0:27]: 0x172-0x249.7 (216)
     |                                               |                |      [0]{}: leap_second_record 0x172-0x179.7 (8)
0x170|      04 b2 58 00                              |  ..X.          |        occur: "1972-07-01T00:00:00Z" (78796800) 0x172-0x175.7 (4)
0x170|                  00 00 00 01                  |      ....      |        corr: 1 0x176-0x179.7 (4)
     |                                               |                |      [1]{}: leap_second_record 0x17a-0x181.7 (8)
0x170|                              05 a4 ec 01      |          ....  |        occur: "1973-01-01T00:00:01Z" (94694401) 0x17a-0x17d.7 (4)
0x170|                                          00 00|              ..|        corr: 2 0x17e-0x181.7 (4)
0x180|00 02                                          |..              |
     |                                               |                |      [2]{}: leap_second_record 0x182-0x189.7 (8)
0x180|      07 86 1f 82                              |  ....          |        occur: "1974-01-01T00:00:02Z" (126230402) 0x182-0x185.7 (4)
0x180|                  00 00 00 03                  |      ....      |        corr: 3 0x186-0x189.7 (4)
     |                                               |                |      [3]{}: leap_second_record 0x18a-0x191.7 (8)
0x180|                              09 67 53 03      |          .gS.  |        occur: "1975-01-01T00:00:03Z" (157766403) 0x18a-0x18d.7 (4)
0x180|                                          00 00|              ..|        corr: 4 0x18e-0x191.7 (4)
0x190|00 04                                          |..              |
     |                                               |                |      [4]{}: leap_second_record 0x192-0x199.7 (8)
0x190|      0b 48 86 84                              |  .H..          |        occur: "1976-01-01T00:00:04Z" (189302404) 0x192-0x195.7 (4)
0x190|                  00 00 00 05                  |      ....      |        corr: 5 0x196-0x199.7 (4)
     |                                               |                |      [5]{}: leap_second_record 0x19a-0x1a1.7 (8)
0x190|                              0d 2b 0b 85      |          .+..  |        occur: "1977-01-01T00:00:05Z" (220924805) 0x19a-0x19d.7 (4)
0x190|                                          00 00|              ..|        corr: 6 0x19e-0x1a1.7 (4)
0x1a0|00 06                                          |..              |
     |                                               |                |      [6]{}: leap_second_record 0x1a2-0x1a9.7 (8)
0x1a0|      0f 0c 3f 06                              |  ..?.          |        occur: "1978-01-01T00:00:06Z" (252460806) 0x1a2-0x1a5.7 (4)
0x1a0|                  00 00 00 07                  |      ....      |        corr: 7 0x1a6-0x1a9.7 (4)
     |                                               |                |      [7]{}: leap_second_record 0x1aa-0x1b1.7 (8)
0x1a0|                              10 ed 72 87      |          ..r.  |        occur: "1979-01-01T00:00:07Z" (283996807) 0x1aa-0x1ad.7 (4)
0x1a0|                                          00 00|              ..|        corr: 8 0x1ae-0x1b1.7 (4)
0x1b0|00 08                                          |..              |
     |                                               |                |      [8]{}: leap_second_record 0x1b2-0x1b9.7 (8)
0x1b0|      12 ce a6 08                              |  ....          |        occur: "1980-01-01T00:00:08Z" (315532808) 0x1b2-0x1b5.7 (4)
0x1b0|                  00 00 00 09                  |      ....      |        corr: 9 0x1b6-0x1b9.7 (4)
     |                                               |                |      [9]{}: leap_second_record 0x1ba-0x1c1.7 (8)
0x1b0|                              15 9f ca 89      |          ....  |        occur: "1981-07-01T00:00:09Z" (362793609) 0x1ba-0x1bd.7 (4)
0x1b0|                                          00 00|              ..|        corr: 10 0x1be-0x1c1.7 (4)
0x1c0|00 0a                                          |..              |
     |                                               |                |      [10]{}: leap_second_record 0x1c2-0x1c9.7 (8)
0x1c0|      17 80 fe 0a                              |  ....          |        occur: "1982-07-01T00:00:10Z" (394329610) 0x1c2-0x1c5.7 (4)
0x1c0|                  00 00 00 0b                  |      ....      |        corr: 11 0x1c6-0x1c9.7 (4)
     |                                               |                |      [11]{}: leap_second_record 0x1ca-0x1d1.7 (8)
0x1c0|                              19 62 31 8b      |          .b1.  |        occur: "1983-07-01T00:00:11Z" (425865611) 0x1ca-0x1cd.7 (4)
0x1c0|                                          00 00|              ..|        corr: 12 0x1ce-0x1d1.7 (4)
0x1d0|00 0c                                          |..              |
     |                                               |                |      [12]{}: leap_second_record 0x1d2-0x1d9.7 (8)
0x1d0|      1d 25 ea 0c                              |  .%..          |        occur: "1985-07-01T00:00:12Z" (489024012) 0x1d2-0x1d5.7 (4)
0x1d0|                  00 00 00 0d                  |      ....      |        corr: 13 0x1d6-0x1d9.7 (4)
     |                                               |                |      [13]{}: leap_second_record 0x1da-0x1e1.7 (8)
0x1d0|                              21 da e5 0d      |          !...  |        occur: "1988-01-01T00:00:13Z" (567993613) 0x1da-0x1dd.7 (4)
0x1d0|                                          00 00|              ..|        corr: 14 0x1de-0x1e1.7 (4)
0x1e0|00 0e                                          |..              |
     |                                               |                |      [14]{}: leap_second_record 0x1e2-0x1e9.7 (8)
0x1e0|      25 9e 9d 8e                              |  %...          |        occur: "1990-01-01T00:00:14Z" (631152014) 0x1e2-0x1e5.7 (4)
0x1e0|                  00 00 00 0f                  |      ....      |        corr: 15 0x1e6-0x1e9.7 (4)
     |                                               |                |      [15]{}: leap_second_record 0x1ea-0x1f1.7 (8)
0x1e0|                              27 7f d1 0f      |          '...  |        occur: "1991-01-01T00:00:15Z" (662688015) 0x1ea-0x1ed.7 (4)
0x1e0|                                          00 00|              ..|        corr: 16 0x1ee-0x1f1.7 (4)
0x1f0|00 10                                          |..              |
     |                                               |                |      [16]{}: leap_second_record 0x1f2-0x1f9.7 (8)
0x1f0|      2a 50 f5 90                              |  *P..          |        occur: "1992-07-01T00:00:16Z" (709948816) 0x1f2-0x1f5.7 (4)
0x1f0|                  00 00 00 11                  |      ....      |        corr: 17 0x1f6-0x1f9.7 (4)
     |                                               |                |      [17]{}: leap_second_record 0x1fa-0x201.7 (8)
0x1f0|                              2c 32 29 11      |          ,2).  |        occur: "1993-07-01T00:00:17Z" (741484817) 0x1fa-0x1fd.7 (4)
0x1f0|                                          00 00|              ..|        corr: 18 0x1fe-0x201.7 (4)
0x200|00 12                                          |..              |
     |                                               |                |      [18]{}: leap_second_record 0x202-0x209.7 (8)
0x200|      2e 13 5c 92                              |  ..\.          |        occur: "1994-07-01T00:00:18Z" (773020818) 0x202-0x205.7 (4)
0x200|                  00 00 00 13                  |      ....      |        corr: 19 0x206-0x209.7 (4)
     |                                               |                |      [19]{}: leap_second_record 0x20a-0x211.7 (8)
0x200|                              30 e7 24 13      |          0.$.  |        occur: "1996-01-01T00:00:19Z" (820454419) 0x20a-0x20d.7 (4)
0x200|                                          00 00|              ..|        corr: 20 0x20e-0x211.7 (4)
0x210|00 14                                          |..              |
     |                                               |                |      [20]{}: leap_second_record 0x212-0x219.7 (8)
0x210|      33 b8 48 94                              |  3.H.          |        occur: "1997-07-01T00:00:20Z" (867715220) 0x212-0x215.7 (4)
0x210|                  00 00 00 15                  |      ....      |        corr: 21 0x216-0x219.7 (4)
     |                                               |                |      [21]{}: leap_second_record 0x21a-0x221.7 (8)
0x210|                              36 8c 10 15      |          6...  |        occur: "1999-01-01T00:00:21Z" (915148821) 0x21a-0x21d.7 (4)
0x210|                                          00 00|              ..|        corr: 22 0x21e-0x221.7 (4)
0x220|00 16                                          |..              |
     |                                               |                |      [22]{}: leap_second_record 0x222-0x229.7 (8)
0x220|      43 b7 1b 96                              |  C...          |        occur: "2006-01-01T00:00:22Z" (1136073622) 0x222-0x225.7 (4)
0x220|                  00 00 00 17                  |      ....      |        corr: 23 0x226-0x229.7 (4)
     |                                               |                |      [23]{}: leap_second_record 0x22a-0x231.7 (8)
0x220|                              49 5c 07 97      |          I\..  |        occur: "2009-01-01T00:00:23Z" (1230768023) 0x22a-0x22d.7 (4)
0x220|                                          00 00|              ..|        corr: 24 0x22e-0x231.7 (4)
0x230|00 18                                          |..              |
     |                                               |                |      [24]{}: leap_second_record 0x232-0x239.7 (8)
0x230|      4f ef 93 18                              |  O...          |        occur: "2012-07-01T00:00:24Z" (1341100824) 0x232-0x235.7 (4)
0x230|                  00 00 00 19                  |      ....      |        corr: 25 0x236-0x239.7 (4)
     |                                               |                |      [25]{}: leap_second_record 0x23a-0x241.7 (8)
0x230|                              55 93 2d 99      |          U.-.  |        occur: "2015-07-01T00:00:25Z" (1435708825) 0x23a-0x23d.7 (4)
0x230|                                          00 00|              ..|        corr: 26 0x23e-0x241.7 (4)
0x240|00 1a                                          |..              |
     |                                               |                |      [26]{}: leap_second_record 0x242-0x249.7 (8)
0x240|      58 68 46 9a                              |  XhF.          |        occur: "2017-01-01T00:00:26Z" (1483228826) 0x242-0x245.7 (4)
0x240|                  00 00 00 1b                  |      ....      |        corr: 27 0x246-0x249.7 (4)
     |                                               |                |    standard_wall_indicators[0:4]: 0x24a-0x24d.7 (4)
0x240|                              00               |          .     |      [0]: 0 standard_wall_indicator (valid) 0x24a-0x24a.7 (1)
0x240|                                 01            |           .    |      [1]: 1 standard_wall_indicator (valid) 0x24b-0x24b.7 (1)
0x240|                                    00         |            .   |      [2]: 0 standard_wall_indicator (valid) 0x24c-0x24c.7 (1)
0x240|                                       00      |             .  |      [3]: 0 standard_wall_indicator (valid) 0x24d-0x24d.7 (1)
     |                                               |                |    ut_local_indicators[0:4]: 0x24e-0x251.7 (4)
0x240|                                          00   |              . |      [0]: 0 ut_local_indicator (valid) 0x24e-0x24e.7 (1)
0x240|                                             01|               .|      [1]: 1 ut_local_indicator (valid) 0x24f-0x24f.7 (1)
0x250|00                                             |.               |      [2]: 0 ut_local_indicator (valid) 0x250-0x250.7 (1)
0x250|   00                                          | .              |      [3]: 0 ut_local_indicator (valid) 0x251-0x251.7 (1)
     |                                               |                |  v2plusheader{}: 0x252-0x27d.7 (44)
0x250|      54 5a 69 66                              |  TZif          |    magic: 0x545a6966 (valid) 0x252-0x255.7 (4)
0x250|                  32                           |      2         |    ver: "2" (0x32) (valid) 0x256-0x256.7 (1)
0x250|                     00 00 00 00 00 00 00 00 00|       .........|    reserved: raw bits 0x257-0x265.7 (15)
0x260|00 00 00 00 00 00                              |......          |
0x260|                  00 00 00 04                  |      ....      |    isutcnt: 4 0x266-0x269.7 (4)
0x260|                              00 00 00 04      |          ....  |    isstdcnt: 4 0x26a-0x26d.7 (4)
0x260|                                          00 00|              ..|    leapcnt: 27 0x26e-0x271.7 (4)
0x270|00 1b                                          |..              |
0x270|      00 00 00 3a                              |  ...:          |    timecnt: 58 0x272-0x275.7 (4)
0x270|                  00 00 00 04                  |      ....      |    typecnt: 4 0x276-0x279.7 (4)
0x270|                              00 00 00 0c      |          ....  |    charcnt: 12 0x27a-0x27d.7 (4)
     |                                               |                |  v2plusdatablock{}: 0x27e-0x5f7.7 (890)
     |                                               |                |    transition_times[0:58]: 0x27e-0x44d.7 (464)
0x270|                                          ff ff|              ..|      [0]: "1922-01-01T06:00:00Z" (-1514743200) transition_time 0x27e-0x285.7 (8)
0x280|ff ff a5 b6 da 60                              |.....`          |
0x280|                  00 00 00 00 22 55 f1 0e      |      ...."U..  |      [1]: "1988-04-03T08:00:14Z" (576057614) transition_time 0x286-0x28d.7 (8)
0x280|                                          00 00|              ..|      [2]: "1988-10-30T07:00:14Z" (594198014) transition_time 0x28e-0x295.7 (8)
0x290|00 00 23 6a bd fe                              |..#j..          |
0x290|                  00 00 00 00 31 67 76 14      |      ....1gv.  |      [3]: "1996-04-07T08:00:20Z" (828864020) transition_time 0x296-0x29d.7 (8)
0x290|                                          00 00|              ..|      [4]: "1996-10-27T07:00:20Z" (846399620) transition_time 0x29e-0x2a5.7 (8)
0x2a0|00 00 32 73 08 84                              |..2s..          |
0x2a0|                  00 00 00 00 33 47 58 14      |      ....3GX.  |      [5]: "1997-04-06T08:00:20Z" (860313620) transition_time 0x2a6-0x2ad.7 (8)
0x2a0|                                          00 00|              ..|      [6]: "1997-10-26T07:00:21Z" (877849221) transition_time 0x2ae-0x2b5.7 (8)
0x2b0|00 00 34 52 ea 85                              |..4R..          |
0x2b0|                  00 00 00 00 35 27 3a 15      |      ....5':.  |      [7]: "1998-04-05T08:00:21Z" (891763221) transition_time 0x2b6-0x2bd.7 (8)
0x2b0|                                          00 00|              ..|      [8]: "1998-10-25T07:00:21Z" (909298821) transition_time 0x2be-0x2c5.7 (8)
0x2c0|00 00 36 32 cc 85                              |..62..          |
0x2c0|                  00 00 00 00 37 07 1c 16      |      ....7...  |      [9]: "1999-04-04T08:00:22Z" (923212822) transition_time 0x2c6-0x2cd.7 (8)
0x2c0|                                          00 00|              ..|      [10]: "1999-10-31T07:00:22Z" (941353222) transition_time 0x2ce-0x2d5.7 (8)
0x2d0|00 00 38 1b e9 06                              |..8...          |
0x2d0|                  00 00 00 00 38 e6 fe 16      |      ....8...  |      [11]: "2000-04-02T08:00:22Z" (954662422) transition_time 0x2d6-0x2dd.7 (8)
0x2d0|                                          00 00|              ..|      [12]: "2000-10-29T07:00:22Z" (972802822) transition_time 0x2de-0x2e5.7 (8)
0x2e0|00 00 39 fb cb 06                              |..9...          |
0x2e0|                  00 00 00 00 3a f5 04 96      |      ....:...  |      [13]: "2001-05-06T08:00:22Z" (989136022) transition_time 0x2e6-0x2ed.7 (8)
0x2e0|                                          00 00|              ..|      [14]: "2001-09-30T07:00:22Z" (1001833222) transition_time 0x2ee-0x2f5.7 (8)
0x2f0|00 00 3b b6 c3 06                              |..;...          |
0x2f0|                  00 00 00 00 3c af fc 96      |      ....<...  |      [15]: "2002-04-07T08:00:22Z" (1018166422) transition_time 0x2f6-0x2fd.7 (8)
0x2f0|                                          00 00|              ..|      [16]: "2002-10-27T07:00:22Z" (1035702022) transition_time 0x2fe-0x305.7 (8)
0x300|00 00 3d bb 8f 06                              |..=...          |
0x300|                  00 00 00 00 3e 8f de 96      |      ....>...  |      [17]: "2003-04-06T08:00:22Z" (1049616022) transition_time 0x306-0x30d.7 (8)
0x300|                                          00 00|              ..|      [18]: "2003-10-26T07:00:22Z" (1067151622) transition_time 0x30e-0x315.7 (8)
0x310|00 00 3f 9b 71 06                              |..?.q.          |
0x310|                  00 00 00 00 40 6f c0 96      |      ....@o..  |      [19]: "2004-04-04T08:00:22Z" (1081065622) transition_time 0x316-0x31d.7 (8)
0x310|                                          00 00|              ..|      [20]: "2004-10-31T07:00:22Z" (1099206022) transition_time 0x31e-0x325.7 (8)
0x320|00 00 41 84 8d 86                              |..A...          |
0x320|                  00 00 00 00 42 4f a2 96      |      ....BO..  |      [21]: "2005-04-03T08:00:22Z" (1112515222) transition_time 0x326-0x32d.7 (8)
0x320|                                          00 00|              ..|      [22]: "2005-10-30T07:00:22Z" (1130655622) transition_time 0x32e-0x335.7 (8)
0x330|00 00 43 64 6f 86                              |..Cdo.          |
0x330|                  00 00 00 00 44 2f 84 97      |      ....D/..  |      [23]: "2006-04-02T08:00:23Z" (1143964823) transition_time 0x336-0x33d.7 (8)
0x330|                                          00 00|              ..|      [24]: "2006-10-29T07:00:23Z" (1162105223) transition_time 0x33e-0x345.7 (8)
0x340|00 00 45 44 51 87                              |..EDQ.          |
0x340|                  00 00 00 00 46 0f 66 97      |      ....F.f.  |      [25]: "2007-04-01T08:00:23Z" (1175414423) transition_time 0x346-0x34d.7 (8)
0x340|                                          00 00|              ..|      [26]: "2007-10-28T07:00:23Z" (1193554823) transition_time 0x34e-0x355.7 (8)
0x350|00 00 47 24 33 87                              |..G$3.          |
0x350|                  00 00 00 00 47 f8 83 17      |      ....G...  |      [27]: "2008-04-06T08:00:23Z" (1207468823) transition_time 0x356-0x35d.7 (8)
0x350|                                          00 00|              ..|      [28]: "2008-10-26T07:00:23Z" (1225004423) transition_time 0x35e-0x365.7 (8)
0x360|00 00 49 04 15 87                              |..I...          |
0x360|                  00 00 00 00 49 d8 65 18      |      ....I.e.  |      [29]: "2009-04-05T08:00:24Z" (1238918424) transition_time 0x366-0x36d.7 (8)
0x360|                                          00 00|              ..|      [30]: "2009-10-25T07:00:24Z" (1256454024) transition_time 0x36e-0x375.7 (8)
0x370|00 00 4a e3 f7 88                              |..J...          |
0x370|                  00 00 00 00 4b b8 47 18      |      ....K.G.  |      [31]: "2010-04-04T08:00:24Z" (1270368024) transition_time 0x376-0x37d.7 (8)
0x370|                                          00 00|              ..|      [32]: "2010-10-31T07:00:24Z" (1288508424) transition_time 0x37e-0x385.7 (8)
0x380|00 00 4c cd 14 08                              |..L...          |
0x380|                  00 00 00 00 4d 98 29 18      |      ....M.).  |      [33]: "2011-04-03T08:00:24Z" (1301817624) transition_time 0x386-0x38d.7 (8)
0x380|                                          00 00|              ..|      [34]: "2011-10-30T07:00:24Z" (1319958024) transition_time 0x38e-0x395.7 (8)
0x390|00 00 4e ac f6 08                              |..N...          |
0x390|                  00 00 00 00 4f 78 0b 18      |      ....Ox..  |      [35]: "2012-04-01T08:00:24Z" (1333267224) transition_time 0x396-0x39d.7 (8)
0x390|                                          00 00|              ..|      [36]: "2012-10-28T07:00:25Z" (1351407625) transition_time 0x39e-0x3a5.7 (8)
0x3a0|00 00 50 8c d8 09                              |..P...          |
0x3a0|                  00 00 00 00 51 61 27 99      |      ....Qa'.  |      [37]: "2013-04-07T08:00:25Z" (1365321625) transition_time 0x3a6-0x3ad.7 (8)
0x3a0|                                          00 00|              ..|      [38]: "2013-10-27T07:00:25Z" (1382857225) transition_time 0x3ae-0x3b5.7 (8)
0x3b0|00 00 52 6c ba 09                              |..Rl..          |
0x3b0|                  00 00 00 00 53 41 09 99      |      ....SA..  |      [39]: "2014-04-06T08:00:25Z" (1396771225) transition_time 0x3b6-0x3bd.7 (8)
0x3b0|                                          00 00|              ..|      [40]: "2014-10-26T07:00:25Z" (1414306825) transition_time 0x3be-0x3c5.7 (8)
0x3c0|00 00 54 4c 9c 09                              |..TL..          |
0x3c0|                  00 00 00 00 55 20 eb 99      |      ....U ..  |      [41]: "2015-04-05T08:00:25Z" (1428220825) transition_time 0x3c6-0x3cd.7 (8)
0x3c0|                                          00 00|              ..|      [42]: "2015-10-25T07:00:26Z" (1445756426) transition_time 0x3ce-0x3d5.7 (8)
0x3d0|00 00 56 2c 7e 0a                              |..V,~.          |
0x3d0|                  00 00 00 00 57 00 cd 9a      |      ....W...  |      [43]: "2016-04-03T08:00:26Z" (1459670426) transition_time 0x3d6-0x3dd.7 (8)
0x3d0|                                          00 00|              ..|      [44]: "2016-10-30T07:00:26Z" (1477810826) transition_time 0x3de-0x3e5.7 (8)
0x3e0|00 00 58 15 9a 8a                              |..X...          |
0x3e0|                  00 00 00 00 58 e0 af 9b      |      ....X...  |      [45]: "2017-04-02T08:00:27Z" (1491120027) transition_time 0x3e6-0x3ed.7 (8)
0x3e0|                                          00 00|              ..|      [46]: "2017-10-29T07:00:27Z" (1509260427) transition_time 0x3ee-0x3f5.7 (8)
0x3f0|00 00 59 f5 7c 8b                              |..Y.|.          |
0x3f0|                  00 00 00 00 5a c0 91 9b      |      ....Z...  |      [47]: "2018-04-01T08:00:27Z" (1522569627) transition_time 0x3f6-0x3fd.7 (8)
0x3f0|                                          00 00|              ..|      [48]: "2018-10-28T07:00:27Z" (1540710027) transition_time 0x3fe-0x405.7 (8)
0x400|00 00 5b d5 5e 8b                              |..[.^.          |
0x400|                  00 00 00 00 5c a9 ae 1b      |      ....\...  |      [49]: "2019-04-07T08:00:27Z" (1554624027) transition_time 0x406-0x40d.7 (8)
0x400|                                          00 00|              ..|      [50]: "2019-10-27T07:00:27Z" (1572159627) transition_time 0x40e-0x415.7 (8)
0x410|00 00 5d b5 40 8b                              |..].@.          |
0x410|                  00 00 00 00 5e 89 90 1b      |      ....^...  |      [51]: "2020-04-05T08:00:27Z" (1586073627) transition_time 0x416-0x41d.7 (8)
0x410|                                          00 00|              ..|      [52]: "2020-10-25T07:00:27Z" (1603609227) transition_time 0x41e-0x425.7 (8)
0x420|00 00 5f 95 22 8b                              |.._.".          |
0x420|                  00 00 00 00 60 69 72 1b      |      ....`ir.  |      [53]: "2021-04-04T08:00:27Z" (1617523227) transition_time 0x426-0x42d.7 (8)
0x420|                                          00 00|              ..|      [54]: "2021-10-31T07:00:27Z" (1635663627) transition_time 0x42e-0x435.7 (8)
0x430|00 00 61 7e 3f 0b                              |..a~?.          |
0x430|                  00 00 00 00 62 49 54 1b      |      ....bIT.  |      [55]: "2022-04-03T08:00:27Z" (1648972827) transition_time 0x436-0x43d.7 (8)
0x430|                                          00 00|              ..|      [56]: "2022-10-30T07:00:27Z" (1667113227) transition_time 0x43e-0x445.7 (8)
0x440|00 00 63 5e 21 0b                              |..c^!.          |
0x440|                  00 00 00 00 64 9b 78 1b      |      ....d.x.  |      [57]: "2023-06-28T00:00:27Z" (1687910427) transition_time 0x446-0x44d.7 (8)
     |                                               |                |    transition_types[0:58]: 0x44e-0x487.7 (58)
0x440|                                          01   |              . |      [0]: 1 transition_type 0x44e-0x44e.7 (1)
0x440|                                             02|               .|      [1]: 2 transition_type 0x44f-0x44f.7 (1)
0x450|03                                             |.               |      [2]: 3 transition_type 0x450-0x450.7 (1)
0x450|   02                                          | .              |      [3]: 2 transition_type 0x451-0x451.7 (1)
0x450|      03                                       |  .             |      [4]: 3 transition_type 0x452-0x452.7 (1)
0x450|         02                                    |   .            |      [5]: 2 transition_type 0x453-0x453.7 (1)
0x450|            03                                 |    .           |      [6]: 3 transition_type 0x454-0x454.7 (1)
0x450|               02                              |     .          |      [7]: 2 transition_type 0x455-0x455.7 (1)
0x450|                  03                           |      .         |      [8]: 3 transition_type 0x456-0x456.7 (1)
0x450|                     02                        |       .        |      [9]: 2 transition_type 0x457-0x457.7 (1)
0x450|                        03                     |        .       |      [10]: 3 transition_type 0x458-0x458.7 (1)
0x450|                           02                  |         .      |      [11]: 2 transition_type 0x459-0x459.7 (1)
0x450|                              03               |          .     |      [12]: 3 transition_type 0x45a-0x45a.7 (1)
0x450|                                 02            |           .    |      [13]: 2 transition_type 0x45b-0x45b.7 (1)
0x450|                                    03         |            .   |      [14]: 3 transition_type 0x45c-0x45c.7 (1)
0x450|                                       02      |             .  |      [15]: 2 transition_type 0x45d-0x45d.7 (1)
0x450|                                          03   |              . |      [16]: 3 transition_type 0x45e-0x45e.7 (1)
0x450|                                             02|               .|      [17]: 2 transition_type 0x45f-0x45f.7 (1)
0x460|03                                             |.               |      [18]: 3 transition_type 0x460-0x460.7 (1)
0x460|   02                                          | .              |      [19]: 2 transition_type 0x461-0x461.7 (1)
0x460|      03                                       |  .             |      [20]: 3 transition_type 0x462-0x462.7 (1)
0x460|         02                                    |   .            |      [21]: 2 transition_type 0x463-0x463.7 (1)
0x460|            03                                 |    .           |      [22]: 3 transition_type 0x464-0x464.7 (1)
0x460|               02                              |     .          |      [23]: 2 transition_type 0x465-0x465.7 (1)
0x460|                  03                           |      .         |      [24]: 3 transition_type 0x466-0x466.7 (1)
0x460|                     02                        |       .        |      [25]: 2 transition_type 0x467-0x467.7 (1)
0x460|                        03                     |        .       |      [26]: 3 transition_type 0x468-0x468.7 (1)
0x460|                           02                  |         .      |      [27]: 2 transition_type 0x469-0x469.7 (1)
0x460|                              03               |          .     |      [28]: 3 transition_type 0x46a-0x46a.7 (1)
0x460|                                 02            |           .    |      [29]: 2 transition_type 0x46b-0x46b.7 (1)
0x460|                                    03         |            .   |      [30]: 3 transition_type 0x46c-0x46c.7 (1)
0x460|                                       02      |             .  |      [31]: 2 transition_type 0x46d-0x46d.7 (1)
0x460|                                          03   |              . |      [32]: 3 transition_type 0x46e-0x46e.7 (1)
0x460|                                             02|               .|      [33]: 2 transition_type 0x46f-0x46f.7 (1)
0x470|03                                             |.               |      [34]: 3 transition_type 0x470-0x470.7 (1)
0x470|   02                                          | .              |      [35]: 2 transition_type 0x471-0x471.7 (1)
0x470|      03                                       |  .             |      [36]: 3 transition_type 0x472-0x472.7 (1)
0x470|         02                                    |   .            |      [37]: 2 transition_type 0x473-0x473.7 (1)
0x470|            03                                 |    .           |      [38]: 3 transition_type 0x474-0x474.7 (1)
0x470|               02                              |     .          |      [39]: 2 transition_type 0x475-0x475.7 (1)
0x470|                  03                           |      .         |      [40]: 3 transition_type 0x476-0x476.7 (1)
0x470|                     02                        |       .        |      [41]: 2 transition_type 0x477-0x477.7 (1)
0x470|                        03                     |        .       |      [42]: 3 transition_type 0x478-0x478.7 (1)
0x470|                           02                  |         .      |      [43]: 2 transition_type 0x479-0x479.7 (1)
0x470|                              03               |          .     |      [44]: 3 transition_type 0x47a-0x47a.7 (1)
0x470|                                 02            |           .    |      [45]: 2 transition_type 0x47b-0x47b.7 (1)
0x470|                                    03         |            .   |      [46]: 3 transition_type 0x47c-0x47c.7 (1)
0x470|                                       02      |             .  |      [47]: 2 transition_type 0x47d-0x47d.7 (1)
0x470|                                          03   |              . |      [48]: 3 transition_type 0x47e-0x47e.7 (1)
0x470|                                             02|               .|      [49]: 2 transition_type 0x47f-0x47f.7 (1)
0x480|03                                             |.               |      [50]: 3 transition_type 0x480-0x480.7 (1)
0x480|   02                                          | .              |      [51]: 2 transition_type 0x481-0x481.7 (1)
0x480|      03                                       |  .             |      [52]: 3 transition_type 0x482-0x482.7 (1)
0x480|         02                                    |   .            |      [53]: 2 transition_type 0x483-0x483.7 (1)
0x480|            03                                 |    .           |      [54]: 3 transition_type 0x484-0x484.7 (1)
0x480|               02                              |     .          |      [55]: 2 transition_type 0x485-0x485.7 (1)
0x480|                  03                           |      .         |      [56]: 3 transition_type 0x486-0x486.7 (1)
0x480|                     03                        |       .        |      [57]: 3 transition_type 0x487-0x487.7 (1)
     |                                               |                |    local_time_type_records[0:4]: 0x488-0x49f.7 (24)
     |                                               |                |      [0]{}: local_time_type 0x488-0x48d.7 (6)
0x480|                        ff ff a1 f4            |        ....    |        utoff: -24076 (valid) 0x488-0x48b.7 (4)
0x480|                                    00         |            .   |        dst: 0 (valid) 0x48c-0x48c.7 (1)
0x480|                                       00      |             .  |        idx: 0 (valid) 0x48d-0x48d.7 (1)
     |                                               |                |      [1]{}: local_time_type 0x48e-0x493.7 (6)
0x480|                                          ff ff|              ..|        utoff: -21600 (valid) 0x48e-0x491.7 (4)
0x490|ab a0                                          |..              |
0x490|      00                                       |  .             |        dst: 0 (valid) 0x492-0x492.7 (1)
0x490|         04                                    |   .            |        idx: 4 (valid) 0x493-0x493.7 (1)
     |                                               |                |      [2]{}: local_time_type 0x494-0x499.7 (6)
0x490|            ff ff b9 b0                        |    ....        |        utoff: -18000 (valid) 0x494-0x497.7 (4)
0x490|                        01                     |        .       |        dst: 1 (valid) 0x498-0x498.7 (1)
0x490|                           08                  |         .      |        idx: 8 (valid) 0x499-0x499.7 (1)
     |                                               |                |      [3]{}: local_time_type 0x49a-0x49f.7 (6)
0x490|                              ff ff ab a0      |          ....  |        utoff: -21600 (valid) 0x49a-0x49d.7 (4)
0x490|                                          00   |              . |        dst: 0 (valid) 0x49e-0x49e.7 (1)
0x490|                                             04|               .|        idx: 4 (valid) 0x49f-0x49f.7 (1)
     |                                               |                |    time_zone_designations[0:3]: 0x4a0-0x4ab.7 (12)
0x4a0|4c 4d 54 00                                    |LMT.            |      [0]: "LMT" time_zone_designation 0x4a0-0x4a3.7 (4)
0x4a0|            43 53 54 00                        |    CST.        |      [1]: "CST" time_zone_designation 0x4a4-0x4a7.7 (4)
0x4a0|                        43 44 54 00            |        CDT.    |      [2]: "CDT" time_zone_designation 0x4a8-0x4ab.7 (4)
     |                                               |                |    leap_second_records[0:27]: 0x4ac-0x5ef.7 (324)
     |                                               |                |      [0]{}: leap_second_record 0x4ac-0x4b7.7 (12)
0x4a0|                                    00 00 00 00|            ....|        occur: "1972-07-01T00:00:00Z" (78796800) 0x4ac-0x4b3.7 (8)
0x4b0|04 b2 58 00                                    |..X.            |
0x4b0|            00 00 00 01                        |    ....        |        corr: 1 0x4b4-0x4b7.7 (4)
     |                                               |                |      [1]{}: leap_second_record 0x4b8-0x4c3.7 (12)
0x4b0|                        00 00 00 00 05 a4 ec 01|        ........|        occur: "1973-01-01T00:00:01Z" (94694401) 0x4b8-0x4bf.7 (8)
0x4c0|00 00 00 02                                    |....            |        corr: 2 0x4c0-0x4c3.7 (4)
     |                                               |                |      [2]{}: leap_second_record 0x4c4-0x4cf.7 (12)
0x4c0|            00 00 00 00 07 86 1f 82            |    ........    |        occur: "1974-01-01T00:00:02Z" (126230402) 0x4c4-0x4cb.7 (8)
0x4c0|                                    00 00 00 03|            ....|        corr: 3 0x4cc-0x4cf.7 (4)
     |                                               |                |      [3]{}: leap_second_record 0x4d0-0x4db.7 (12)
0x4d0|00 00 00 00 09 67 53 03                        |.....gS.        |        occur: "1975-01-01T00:00:03Z" (157766403) 0x4d0-0x4d7.7 (8)
0x4d0|                        00 00 00 04            |        ....    |        corr: 4 0x4d8-0x4db.7 (4)
     |                                               |                |      [4]{}: leap_second_record 0x4dc-0x4e7.7 (12)
0x4d0|                                    00 00 00 00|            ....|        occur: "1976-01-01T00:00:04Z" (189302404) 0x4dc-0x4e3.7 (8)
0x4e0|0b 48 86 84                                    |.H..            |
0x4e0|            00 00 00 05                        |    ....        |        corr: 5 0x4e4-0x4e7.7 (4)
     |                                               |                |      [5]{}: leap_second_record 0x4e8-0x4f3.7 (12)
0x4e0|                        00 00 00 00 0d 2b 0b 85|        .....+..|        occur: "1977-01-01T00:00:05Z" (220924805) 0x4e8-0x4ef.7 (8)
0x4f0|00 00 00 06                                    |....            |        corr: 6 0x4f0-0x4f3.7 (4)
     |                                               |                |      [6]{}: leap_second_record 0x4f4-0x4ff.7 (12)
0x4f0|            00 00 00 00 0f 0c 3f 06            |    ......?.    |        occur: "1978-01-01T00:00:06Z" (252460806) 0x4f4-0x4fb.7 (8)
0x4f0|                                    00 00 00 07|            ....|        corr: 7 0x4fc-0x4ff.7 (4)
     |                                               |                |      [7]{}: leap_second_record 0x500-0x50b.7 (12)
0x500|00 00 00 00 10 ed 72 87                        |......r.        |        occur: "1979-01-01T00:00:07Z" (283996807) 0x500-0x507.7 (8)
0x500|                        00 00 00 08            |        ....    |        corr: 8 0x508-0x50b.7 (4)
     |                                               |                |      [8]{}: leap_second_record 0x50c-0x517.7 (12)
0x500|                                    00 00 00 00|            ....|        occur: "1980-01-01T00:00:08Z" (315532808) 0x50c-0x513.7 (8)
0x510|12 ce a6 08                                    |....            |
0x510|            00 00 00 09                        |    ....        |        corr: 9 0x514-0x517.7 (4)
     |                                               |                |      [9]{}: leap_second_record 0x518-0x523.7 (12)
0x510|                        00 00 00 00 15 9f ca 89|        ........|        occur: "1981-07-01T00:00:09Z" (362793609) 0x518-0x51f.7 (8)
0x520|00 00 00 0a                                    |....            |        corr: 10 0x520-0x523.7 (4)
     |                                               |                |      [10]{}: leap_second_record 0x524-0x52f.7 (12)
0x520|            00 00 00 00 17 80 fe 0a            |    ........    |        occur: "1982-07-01T00:00:10Z" (394329610) 0x524-0x52b.7 (8)
0x520|                                    00 00 00 0b|            ....|        corr: 11 0x52c-0x52f.7 (4)
     |                                               |                |      [11]{}: leap_second_record 0x530-0x53b.7 (12)
0x530|00 00 00 00 19 62 31 8b                        |.....b1.        |        occur: "1983-07-01T00:00:11Z" (425865611) 0x530-0x537.7 (8)
0x530|                        00 00 00 0c            |        ....    |        corr: 12 0x538-0x53b.7 (4)
     |                                               |                |      [12]{}: leap_second_record 0x53c-0x547.7 (12)
0x530|                                    00 00 00 00|            ....|        occur: "1985-07-01T00:00:12Z" (489024012) 0x53c-0x543.7 (8)
0x540|1d 25 ea 0c                                    |.%..            |
0x540|            00 00 00 0d                        |    ....        |        corr: 13 0x544-0x547.7 (4)
     |                                               |                |      [13]{}: leap_second_record 0x548-0x553.7 (12)
0x540|                        00 00 00 00 21 da e5 0d|        ....!...|        occur: "1988-01-01T00:00:13Z" (567993613) 0x548-0x54f.7 (8)
0x550|00 00 00 0e                                    |....            |        corr: 14 0x550-0x553.7 (4)
     |                                               |                |      [14]{}: leap_second_record 0x554-0x55f.7 (12)
0x550|            00 00 00 00 25 9e 9d 8e            |    ....%...    |        occur: "1990-01-01T00:00:14Z" (631152014) 0x554-0x55b.7 (8)
0x550|                                    00 00 00 0f|            ....|        corr: 15 0x55c-0x55f.7 (4)
     |                                               |                |      [15]{}: leap_second_record 0x560-0x56b.7 (12)
0x560|00 00 00 00 27 7f d1 0f                        |....'...        |        occur: "1991-01-01T00:00:15Z" (662688015) 0x560-0x567.7 (8)
0x560|                        00 00 00 10            |        ....    |        corr: 16 0x568-0x56b.7 (4)
     |                                               |                |      [16]{}: leap_second_record 0x56c-0x577.7 (12)
0x560|                                    00 00 00 00|            ....|        occur: "1992-07-01T00:00:16Z" (709948816) 0x56c-0x573.7 (8)
0x570|2a 50 f5 90                                    |*P..            |
0x570|            00 00 00 11                        |    ....        |        corr: 17 0x574-0x577.7 (4)
     |                                               |                |      [17]{}: leap_second_record 0x578-0x583.7 (12)
0x570|                        00 00 00 00 2c 32 29 11|        ....,2).|        occur: "1993-07-01T00:00:17Z" (741484817) 0x578-0x57f.7 (8)
0x580|00 00 00 12                                    |....            |        corr: 18 0x580-0x583.7 (4)
     |                                               |                |      [18]{}: leap_second_record 0x584-0x58f.7 (12)
0x580|            00 00 00 00 2e 13 5c 92            |    ......\.    |        occur: "1994-07-01T00:00:18Z" (773020818) 0x584-0x58b.7 (8)
0x580|                                    00 00 00 13|            ....|        corr: 19 0x58c-0x58f.7 (4)
     |                                               |                |      [19]{}: leap_second_record 0x590-0x59b.7 (12)
0x590|00 00 00 00 30 e7 24 13                        |....0.$.        |        occur: "1996-01-01T00:00:19Z" (820454419) 0x590-0x597.7 (8)
0x590|                        00 00 00 14            |        ....    |        corr: 20 0x598-0x59b.7 (4)
     |                                               |                |      [20]{}: leap_second_record 0x59c-0x5a7.7 (12)
0x590|                                    00 00 00 00|            ....|        occur: "1997-07-01T00:00:20Z" (867715220) 0x59c-0x5a3.7 (8)
0x5a0|33 b8 48 94                                    |3.H.            |
0x5a0|            00 00 00 15                        |    ....        |        corr: 21 0x5a4-0x5a7.7 (4)
     |                                               |                |      [21]{}: leap_second_record 0x5a8-0x5b3.7 (12)
0x5a0|                        00 00 00 00 36 8c 10 15|        ....6...|        occur: "1999-01-01T00:00:21Z" (915148821) 0x5a8-0x5af.7 (8)
0x5b0|00 00 00 16                                    |....            |        corr: 22 0x5b0-0x5b3.7 (4)
     |                                               |                |      [22]{}: leap_second_record 0x5b4-0x5bf.7 (12)
0x5b0|            00 00 00 00 43 b7 1b 96            |    ....C...    |        occur: "2006-01-01T00:00:22Z" (1136073622) 0x5b4-0x5bb.7 (8)
0x5b0|                                    00 00 00 17|            ....|        corr: 23 0x5bc-0x5bf.7 (4)
     |                                               |                |      [23]{}: leap_second_record 0x5c0-0x5cb.7 (12)
0x5c0|00 00 00 00 49 5c 07 97                        |....I\..        |        occur: "2009-01-01T00:00:23Z" (1230768023) 0x5c0-0x5c7.7 (8)
0x5c0|                        00 00 00 18            |        ....    |        corr: 24 0x5c8-0x5cb.7 (4)
     |                                               |                |      [24]{}: leap_second_record 0x5cc-0x5d7.7 (12)
0x5c0|                                    00 00 00 00|            ....|        occur: "2012-07-01T00:00:24Z" (1341100824) 0x5cc-0x5d3.7 (8)
0x5d0|4f ef 93 18                                    |O...            |
0x5d0|            00 00 00 19                        |    ....        |        corr: 25 0x5d4-0x5d7.7 (4)
     |                                               |                |      [25]{}: leap_second_record 0x5d8-0x5e3.7 (12)
0x5d0|                        00 00 00 00 55 93 2d 99|        ....U.-.|        occur: "2015-07-01T00:00:25Z" (1435708825) 0x5d8-0x5df.7 (8)
0x5e0|00 00 00 1a                                    |....            |        corr: 26 0x5e0-0x5e3.7 (4)
     |                                               |                |      [26]{}: leap_second_record 0x5e4-0x5ef.7 (12)
0x5e0|            00 00 00 00 58 68 46 9a            |    ....XhF.    |        occur: "2017-01-01T00:00:26Z" (1483228826) 0x5e4-0x5eb.7 (8)
0x5e0|                                    00 00 00 1b|            ....|        corr: 27 0x5ec-0x5ef.7 (4)
     |                                               |                |    standard_wall_indicators[0:4]: 0x5f0-0x5f3.7 (4)
0x5f0|00                                             |.               |      [0]: 0 standard_wall_indicator (valid) 0x5f0-0x5f0.7 (1)
0x5f0|   01                                          | .              |      [1]: 1 standard_wall_indicator (valid) 0x5f1-0x5f1.7 (1)
0x5f0|      00                                       |  .             |      [2]: 0 standard_wall_indicator (valid) 0x5f2-0x5f2.7 (1)
0x5f0|         00                                    |   .            |      [3]: 0 standard_wall_indicator (valid) 0x5f3-0x5f3.7 (1)
     |                                               |                |    ut_local_indicators[0:4]: 0x5f4-0x5f7.7 (4)
0x5f0|            00                                 |    .           |      [0]: 0 ut_local_indicator (valid) 0x5f4-0x5f4.7 (1)
0x5f0|               01                              |     .          |      [1]: 1 ut_local_indicator (valid) 0x5f5-0x5f5.7 (1)
0x5f0|                  00                           |      .         |      [2]: 0 ut_local_indicator (valid) 0x5f6-0x5f6.7 (1)
0x5f0|                     00                        |       .        |      [3]: 0 ut_local_indicator (valid) 0x5f7-0x5f7.7 (1)
     |                                               |                |  footer{}: 0x5f8-0x5f9.7 (2)
0x5f0|                        0a                     |        .       |    nl1: 10 (valid) 0x5f8-0x5f8.7 (1)
     |                                               |                |    tz_string: "" 0x5f9-NA (0)
0x5f0|                           0a|                 |         .|     |    nl2: 10 (valid) 0x5f9-0x5f9.7 (1)
