$ fq -d tzif dv Monticello
     |00 01 02 03 04 05 06 07 08 09 0a 0b 0c 0d 0e 0f|0123456789abcdef|.{}: Monticello (tzif) 0x0-0x9be (2494)
     |                                               |                |  v1header{}: 0x0-0x2c (44)
0x000|54 5a 69 66                                    |TZif            |    magic: 0x545a6966 (valid) 0x0-0x4 (4)
0x000|            32                                 |    2           |    ver: "2" (0x32) (valid) 0x4-0x5 (1)
0x000|               00 00 00 00 00 00 00 00 00 00 00|     ...........|    reserved: raw bits 0x5-0x14 (15)
0x010|00 00 00 00                                    |....            |
0x010|            00 00 00 08                        |    ....        |    isutcnt: 8 0x14-0x18 (4)
0x010|                        00 00 00 08            |        ....    |    isstdcnt: 8 0x18-0x1c (4)
0x010|                                    00 00 00 1b|            ....|    leapcnt: 27 0x1c-0x20 (4)
0x020|00 00 00 78                                    |...x            |    timecnt: 120 0x20-0x24 (4)
0x020|            00 00 00 08                        |    ....        |    typecnt: 8 0x24-0x28 (4)
0x020|                        00 00 00 1c            |        ....    |    charcnt: 28 0x28-0x2c (4)
     |                                               |                |  v1datablock{}: 0x2c-0x3b8 (908)
     |                                               |                |    transition_times[0:120]: 0x2c-0x20c (480)
0x020|                                    80 00 00 00|            ....|      [0]: "1901-12-13T20:45:52Z" (-2147483648) transition_time 0x2c-0x30 (4)
0x030|9e a6 2c 80                                    |..,.            |      [1]: "1918-03-31T08:00:00Z" (-1633276800) transition_time 0x30-0x34 (4)
0x030|            9f ba f9 70                        |    ...p        |      [2]: "1918-10-27T07:00:00Z" (-1615136400) transition_time 0x34-0x38 (4)
0x030|                        a0 86 0e 80            |        ....    |      [3]: "1919-03-30T08:00:00Z" (-1601827200) transition_time 0x38-0x3c (4)
0x030|                                    a1 9a db 70|            ...p|      [4]: "1919-10-26T07:00:00Z" (-1583686800) transition_time 0x3c-0x40 (4)
0x040|cb 88 fe 80                                    |....            |      [5]: "1942-02-09T08:00:00Z" (-880214400) transition_time 0x40-0x44 (4)
0x040|            d2 23 f4 70                        |    .#.p        |      [6]: "1945-08-14T23:00:00Z" (-769395600) transition_time 0x44-0x48 (4)
0x040|                        d2 61 09 f0            |        .a..    |      [7]: "1945-09-30T07:00:00Z" (-765392400) transition_time 0x48-0x4c (4)
0x040|                                    fc d8 49 00|            ..I.|      [8]: "1968-04-28T08:00:00Z" (-52934400) transition_time 0x4c-0x50 (4)
0x050|fd c8 2b f0                                    |..+.            |      [9]: "1968-10-27T07:00:00Z" (-37213200) transition_time 0x50-0x54 (4)
0x050|            fe b8 2b 00                        |    ..+.        |      [10]: "1969-04-27T08:00:00Z" (-21484800) transition_time 0x54-0x58 (4)
0x050|                        ff a8 0d f0            |        ....    |      [11]: "1969-10-26T07:00:00Z" (-5763600) transition_time 0x58-0x5c (4)
0x050|                                    00 98 0d 00|            ....|      [12]: "1970-04-26T08:00:00Z" (9964800) transition_time 0x5c-0x60 (4)
0x060|01 87 ef f0                                    |....            |      [13]: "1970-10-25T07:00:00Z" (25686000) transition_time 0x60-0x64 (4)
0x060|            02 77 ef 00                        |    .w..        |      [14]: "1971-04-25T08:00:00Z" (41414400) transition_time 0x64-0x68 (4)
0x060|                        03 71 0c 70            |        .q.p    |      [15]: "1971-10-31T07:00:00Z" (57740400) transition_time 0x68-0x6c (4)
0x060|                                    04 61 0b 80|            .a..|      [16]: "1972-04-30T08:00:00Z" (73468800) transition_time 0x6c-0x70 (4)
0x070|05 50 ee 71                                    |.P.q            |      [17]: "1972-10-29T07:00:01Z" (89190001) transition_time 0x70-0x74 (4)
0x070|            06 40 ed 82                        |    .@..        |      [18]: "1973-04-29T08:00:02Z" (104918402) transition_time 0x74-0x78 (4)
0x070|                        07 30 d0 72            |        .0.r    |      [19]: "1973-10-28T07:00:02Z" (120639602) transition_time 0x78-0x7c (4)
0x070|                                    07 8d 27 83|            ..'.|      [20]: "1974-01-06T08:00:03Z" (126691203) transition_time 0x7c-0x80 (4)
0x080|09 10 b2 73                                    |...s            |      [21]: "1974-10-27T07:00:03Z" (152089203) transition_time 0x80-0x84 (4)
0x080|            09 ad a3 04                        |    ....        |      [22]: "1975-02-23T08:00:04Z" (162374404) transition_time 0x84-0x88 (4)
0x080|                        0a f0 94 74            |        ...t    |      [23]: "1975-10-26T07:00:04Z" (183538804) transition_time 0x88-0x8c (4)
0x080|                                    0b e0 93 85|            ....|      [24]: "1976-04-25T08:00:05Z" (199267205) transition_time 0x8c-0x90 (4)
0x090|0c d9 b0 f5                                    |....            |      [25]: "1976-10-31T07:00:05Z" (215593205) transition_time 0x90-0x94 (4)
0x090|            0d c0 75 86                        |    ..u.        |      [26]: "1977-04-24T08:00:06Z" (230716806) transition_time 0x94-0x98 (4)
0x090|                        0e b9 92 f6            |        ....    |      [27]: "1977-10-30T07:00:06Z" (247042806) transition_time 0x98-0x9c (4)
0x090|                                    0f a9 92 07|            ....|      [28]: "1978-04-30T08:00:07Z" (262771207) transition_time 0x9c-0xa0 (4)
0x0a0|10 99 74 f7                                    |..t.            |      [29]: "1978-10-29T07:00:07Z" (278492407) transition_time 0xa0-0xa4 (4)
0x0a0|            11 89 74 08                        |    ..t.        |      [30]: "1979-04-29T08:00:08Z" (294220808) transition_time 0xa4-0xa8 (4)
0x0a0|                        12 79 56 f8            |        .yV.    |      [31]: "1979-10-28T07:00:08Z" (309942008) transition_time 0xa8-0xac (4)
0x0a0|                                    13 69 56 09|            .iV.|      [32]: "1980-04-27T08:00:09Z" (325670409) transition_time 0xac-0xb0 (4)
0x0b0|14 59 38 f9                                    |.Y8.            |      [33]: "1980-10-26T07:00:09Z" (341391609) transition_time 0xb0-0xb4 (4)
0x0b0|            15 49 38 09                        |    .I8.        |      [34]: "1981-04-26T08:00:09Z" (357120009) transition_time 0xb4-0xb8 (4)
0x0b0|                        16 39 1a fa            |        .9..    |      [35]: "1981-10-25T07:00:10Z" (372841210) transition_time 0xb8-0xbc (4)
0x0b0|                                    17 29 1a 0a|            .)..|      [36]: "1982-04-25T08:00:10Z" (388569610) transition_time 0xbc-0xc0 (4)
0x0c0|18 22 37 7b                                    |."7{            |      [37]: "1982-10-31T07:00:11Z" (404895611) transition_time 0xc0-0xc4 (4)
0x0c0|            19 08 fc 0b                        |    ....        |      [38]: "1983-04-24T08:00:11Z" (420019211) transition_time 0xc4-0xc8 (4)
0x0c0|                        1a 02 19 7c            |        ...|    |      [39]: "1983-10-30T07:00:12Z" (436345212) transition_time 0xc8-0xcc (4)
0x0c0|                                    1a f2 18 8c|            ....|      [40]: "1984-04-29T08:00:12Z" (452073612) transition_time 0xcc-0xd0 (4)
0x0d0|1b e1 fb 7c                                    |...|            |      [41]: "1984-10-28T07:00:12Z" (467794812) transition_time 0xd0-0xd4 (4)
0x0d0|            1c d1 fa 8c                        |    ....        |      [42]: "1985-04-28T08:00:12Z" (483523212) transition_time 0xd4-0xd8 (4)
0x0d0|                        1d c1 dd 7d            |        ...}    |      [43]: "1985-10-27T07:00:13Z" (499244413) transition_time 0xd8-0xdc (4)
0x0d0|                                    1e b1 dc 8d|            ....|      [44]: "1986-04-27T08:00:13Z" (514972813) transition_time 0xdc-0xe0 (4)
0x0e0|1f a1 bf 7d                                    |...}            |      [45]: "1986-10-26T07:00:13Z" (530694013) transition_time 0xe0-0xe4 (4)
0x0e0|            20 76 0f 0d                        |     v..        |      [46]: "1987-04-05T08:00:13Z" (544608013) transition_time 0xe4-0xe8 (4)
0x0e0|                        21 81 a1 7d            |        !..}    |      [47]: "1987-10-25T07:00:13Z" (562143613) transition_time 0xe8-0xec (4)
0x0e0|                                    22 55 f1 0e|            "U..|      [48]: "1988-04-03T08:00:14Z" (576057614) transition_time 0xec-0xf0 (4)
0x0f0|23 6a bd fe                                    |#j..            |      [49]: "1988-10-30T07:00:14Z" (594198014) transition_time 0xf0-0xf4 (4)
0x0f0|            24 35 d3 0e                        |    $5..        |      [50]: "1989-04-02T08:00:14Z" (607507214) transition_time 0xf4-0xf8 (4)
0x0f0|                        25 4a 9f fe            |        %J..    |      [51]: "1989-10-29T07:00:14Z" (625647614) transition_time 0xf8-0xfc (4)
0x0f0|                                    26 15 b5 0f|            &...|      [52]: "1990-04-01T08:00:15Z" (638956815) transition_time 0xfc-0x100 (4)
0x100|27 2a 81 ff                                    |'*..            |      [53]: "1990-10-28T07:00:15Z" (657097215) transition_time 0x100-0x104 (4)
0x100|            27 fe d1 90                        |    '...        |      [54]: "1991-04-07T08:00:16Z" (671011216) transition_time 0x104-0x108 (4)
0x100|                        29 0a 64 00            |        ).d.    |      [55]: "1991-10-27T07:00:16Z" (688546816) transition_time 0x108-0x10c (4)
0x100|                                    29 de b3 90|            )...|      [56]: "1992-04-05T08:00:16Z" (702460816) transition_time 0x10c-0x110 (4)
0x110|2a ea 46 01                                    |*.F.            |      [57]: "1992-10-25T07:00:17Z" (719996417) transition_time 0x110-0x114 (4)
0x110|            2b be 95 91                        |    +...        |      [58]: "1993-04-04T08:00:17Z" (733910417) transition_time 0x114-0x118 (4)
0x110|                        2c d3 62 82            |        ,.b.    |      [59]: "1993-10-31T07:00:18Z" (752050818) transition_time 0x118-0x11c (4)
0x110|                                    2d 9e 77 92|            -.w.|      [60]: "1994-04-03T08:00:18Z" (765360018) transition_time 0x11c-0x120 (4)
0x120|2e b3 44 83                                    |..D.            |      [61]: "1994-10-30T07:00:19Z" (783500419) transition_time 0x120-0x124 (4)
0x120|            2f 7e 59 93                        |    /~Y.        |      [62]: "1995-04-02T08:00:19Z" (796809619) transition_time 0x124-0x128 (4)
0x120|                        30 93 26 83            |        0.&.    |      [63]: "1995-10-29T07:00:19Z" (814950019) transition_time 0x128-0x12c (4)
0x120|                                    31 67 76 14|            1gv.|      [64]: "1996-04-07T08:00:20Z" (828864020) transition_time 0x12c-0x130 (4)
0x130|32 73 08 84                                    |2s..            |      [65]: "1996-10-27T07:00:20Z" (846399620) transition_time 0x130-0x134 (4)
0x130|            33 47 58 14                        |    3GX.        |      [66]: "1997-04-06T08:00:20Z" (860313620) transition_time 0x134-0x138 (4)
0x130|                        34 52 ea 85            |        4R..    |      [67]: "1997-10-26T07:00:21Z" (877849221) transition_time 0x138-0x13c (4)
0x130|                                    35 27 3a 15|            5':.|      [68]: "1998-04-05T08:00:21Z" (891763221) transition_time 0x13c-0x140 (4)
0x140|36 32 cc 85                                    |62..            |      [69]: "1998-10-25T07:00:21Z" (909298821) transition_time 0x140-0x144 (4)
0x140|            37 07 1c 16                        |    7...        |      [70]: "1999-04-04T08:00:22Z" (923212822) transition_time 0x144-0x148 (4)
0x140|                        38 1b e9 06            |        8...    |      [71]: "1999-10-31T07:00:22Z" (941353222) transition_time 0x148-0x14c (4)
0x140|                                    38 e6 fe 16|            8...|      [72]: "2000-04-02T08:00:22Z" (954662422) transition_time 0x14c-0x150 (4)
0x150|39 fb cb 06                                    |9...            |      [73]: "2000-10-29T07:00:22Z" (972802822) transition_time 0x150-0x154 (4)
0x150|            3a c6 d2 06                        |    :...        |      [74]: "2001-04-01T07:00:22Z" (986108422) transition_time 0x154-0x158 (4)
0x150|                        3b db 9e f6            |        ;...    |      [75]: "2001-10-28T06:00:22Z" (1004248822) transition_time 0x158-0x15c (4)
0x150|                                    3c af ee 86|            <...|      [76]: "2002-04-07T07:00:22Z" (1018162822) transition_time 0x15c-0x160 (4)
0x160|3d bb 80 f6                                    |=...            |      [77]: "2002-10-27T06:00:22Z" (1035698422) transition_time 0x160-0x164 (4)
0x160|            3e 8f d0 86                        |    >...        |      [78]: "2003-04-06T07:00:22Z" (1049612422) transition_time 0x164-0x168 (4)
0x160|                        3f 9b 62 f6            |        ?.b.    |      [79]: "2003-10-26T06:00:22Z" (1067148022) transition_time 0x168-0x16c (4)
0x160|                                    40 6f b2 86|            @o..|      [80]: "2004-04-04T07:00:22Z" (1081062022) transition_time 0x16c-0x170 (4)
0x170|41 84 7f 76                                    |A..v            |      [81]: "2004-10-31T06:00:22Z" (1099202422) transition_time 0x170-0x174 (4)
0x170|            42 4f 94 86                        |    BO..        |      [82]: "2005-04-03T07:00:22Z" (1112511622) transition_time 0x174-0x178 (4)
0x170|                        43 64 61 76            |        Cdav    |      [83]: "2005-10-30T06:00:22Z" (1130652022) transition_time 0x178-0x17c (4)
0x170|                                    44 2f 76 87|            D/v.|      [84]: "2006-04-02T07:00:23Z" (1143961223) transition_time 0x17c-0x180 (4)
0x180|45 44 43 77                                    |EDCw            |      [85]: "2006-10-29T06:00:23Z" (1162101623) transition_time 0x180-0x184 (4)
0x180|            45 f3 a9 07                        |    E...        |      [86]: "2007-03-11T07:00:23Z" (1173596423) transition_time 0x184-0x188 (4)
0x180|                        47 2d 5f f7            |        G-_.    |      [87]: "2007-11-04T06:00:23Z" (1194156023) transition_time 0x188-0x18c (4)
0x180|                                    47 d3 8b 07|            G...|      [88]: "2008-03-09T07:00:23Z" (1205046023) transition_time 0x18c-0x190 (4)
0x190|49 0d 41 f7                                    |I.A.            |      [89]: "2008-11-02T06:00:23Z" (1225605623) transition_time 0x190-0x194 (4)
0x190|            49 b3 6d 08                        |    I.m.        |      [90]: "2009-03-08T07:00:24Z" (1236495624) transition_time 0x194-0x198 (4)
0x190|                        4a ed 23 f8            |        J.#.    |      [91]: "2009-11-01T06:00:24Z" (1257055224) transition_time 0x198-0x19c (4)
0x190|                                    4b 9c 89 88|            K...|      [92]: "2010-03-14T07:00:24Z" (1268550024) transition_time 0x19c-0x1a0 (4)
0x1a0|4c d6 40 78                                    |L.@x            |      [93]: "2010-11-07T06:00:24Z" (1289109624) transition_time 0x1a0-0x1a4 (4)
0x1a0|            4d 7c 6b 88                        |    M|k.        |      [94]: "2011-03-13T07:00:24Z" (1299999624) transition_time 0x1a4-0x1a8 (4)
0x1a0|                        4e b6 22 78            |        N."x    |      [95]: "2011-11-06T06:00:24Z" (1320559224) transition_time 0x1a8-0x1ac (4)
0x1a0|                                    4f 5c 4d 88|            O\M.|      [96]: "2012-03-11T07:00:24Z" (1331449224) transition_time 0x1ac-0x1b0 (4)
0x1b0|50 96 04 79                                    |P..y            |      [97]: "2012-11-04T06:00:25Z" (1352008825) transition_time 0x1b0-0x1b4 (4)
0x1b0|            51 3c 2f 89                        |    Q</.        |      [98]: "2013-03-10T07:00:25Z" (1362898825) transition_time 0x1b4-0x1b8 (4)
0x1b0|                        52 75 e6 79            |        Ru.y    |      [99]: "2013-11-03T06:00:25Z" (1383458425) transition_time 0x1b8-0x1bc (4)
0x1b0|                                    53 1c 11 89|            S...|      [100]: "2014-03-09T07:00:25Z" (1394348425) transition_time 0x1bc-0x1c0 (4)
0x1c0|54 55 c8 79                                    |TU.y            |      [101]: "2014-11-02T06:00:25Z" (1414908025) transition_time 0x1c0-0x1c4 (4)
0x1c0|            54 fb f3 89                        |    T...        |      [102]: "2015-03-08T07:00:25Z" (1425798025) transition_time 0x1c4-0x1c8 (4)
0x1c0|                        56 35 aa 7a            |        V5.z    |      [103]: "2015-11-01T06:00:26Z" (1446357626) transition_time 0x1c8-0x1cc (4)
0x1c0|                                    56 e5 10 0a|            V...|      [104]: "2016-03-13T07:00:26Z" (1457852426) transition_time 0x1cc-0x1d0 (4)
0x1d0|58 1e c6 fa                                    |X...            |      [105]: "2016-11-06T06:00:26Z" (1478412026) transition_time 0x1d0-0x1d4 (4)
0x1d0|            58 c4 f2 0b                        |    X...        |      [106]: "2017-03-12T07:00:27Z" (1489302027) transition_time 0x1d4-0x1d8 (4)
0x1d0|                        59 fe a8 fb            |        Y...    |      [107]: "2017-11-05T06:00:27Z" (1509861627) transition_time 0x1d8-0x1dc (4)
0x1d0|                                    5a a4 d4 0b|            Z...|      [108]: "2018-03-11T07:00:27Z" (1520751627) transition_time 0x1dc-0x1e0 (4)
0x1e0|5b de 8a fb                                    |[...            |      [109]: "2018-11-04T06:00:27Z" (1541311227) transition_time 0x1e0-0x1e4 (4)
0x1e0|            5c 84 b6 0b                        |    \...        |      [110]: "2019-03-10T07:00:27Z" (1552201227) transition_time 0x1e4-0x1e8 (4)
0x1e0|                        5d be 6c fb            |        ].l.    |      [111]: "2019-11-03T06:00:27Z" (1572760827) transition_time 0x1e8-0x1ec (4)
0x1e0|                                    5e 64 98 0b|            ^d..|      [112]: "2020-03-08T07:00:27Z" (1583650827) transition_time 0x1ec-0x1f0 (4)
0x1f0|5f 9e 4e fb                                    |_.N.            |      [113]: "2020-11-01T06:00:27Z" (1604210427) transition_time 0x1f0-0x1f4 (4)
0x1f0|            60 4d b4 8b                        |    `M..        |      [114]: "2021-03-14T07:00:27Z" (1615705227) transition_time 0x1f4-0x1f8 (4)
0x1f0|                        61 87 6b 7b            |        a.k{    |      [115]: "2021-11-07T06:00:27Z" (1636264827) transition_time 0x1f8-0x1fc (4)
0x1f0|                                    62 2d 96 8b|            b-..|      [116]: "2022-03-13T07:00:27Z" (1647154827) transition_time 0x1fc-0x200 (4)
0x200|63 67 4d 7b                                    |cgM{            |      [117]: "2022-11-06T06:00:27Z" (1667714427) transition_time 0x200-0x204 (4)
0x200|            64 0d 78 8b                        |    d.x.        |      [118]: "2023-03-12T07:00:27Z" (1678604427) transition_time 0x204-0x208 (4)
0x200|                        64 9b 78 1b            |        d.x.    |      [119]: "2023-06-28T00:00:27Z" (1687910427) transition_time 0x208-0x20c (4)
     |                                               |                |    transition_types[0:120]: 0x20c-0x284 (120)
0x200|                                    05         |            .   |      [0]: 5 transition_type 0x20c-0x20d (1)
0x200|                                       01      |             .  |      [1]: 1 transition_type 0x20d-0x20e (1)
0x200|                                          02   |              . |      [2]: 2 transition_type 0x20e-0x20f (1)
0x200|                                             01|               .|      [3]: 1 transition_type 0x20f-0x210 (1)
0x210|02                                             |.               |      [4]: 2 transition_type 0x210-0x211 (1)
0x210|   03                                          | .              |      [5]: 3 transition_type 0x211-0x212 (1)
0x210|      04                                       |  .             |      [6]: 4 transition_type 0x212-0x213 (1)
0x210|         02                                    |   .            |      [7]: 2 transition_type 0x213-0x214 (1)
0x210|            01                                 |    .           |      [8]: 1 transition_type 0x214-0x215 (1)
0x210|               02                              |     .          |      [9]: 2 transition_type 0x215-0x216 (1)
0x210|                  01                           |      .         |      [10]: 1 transition_type 0x216-0x217 (1)
0x210|                     02                        |       .        |      [11]: 2 transition_type 0x217-0x218 (1)
0x210|                        01                     |        .       |      [12]: 1 transition_type 0x218-0x219 (1)
0x210|                           02                  |         .      |      [13]: 2 transition_type 0x219-0x21a (1)
0x210|                              01               |          .     |      [14]: 1 transition_type 0x21a-0x21b (1)
0x210|                                 02            |           .    |      [15]: 2 transition_type 0x21b-0x21c (1)
0x210|                                    01         |            .   |      [16]: 1 transition_type 0x21c-0x21d (1)
0x210|                                       02      |             .  |      [17]: 2 transition_type 0x21d-0x21e (1)
0x210|                                          01   |              . |      [18]: 1 transition_type 0x21e-0x21f (1)
0x210|                                             02|               .|      [19]: 2 transition_type 0x21f-0x220 (1)
0x220|01                                             |.               |      [20]: 1 transition_type 0x220-0x221 (1)
0x220|   02                                          | .              |      [21]: 2 transition_type 0x221-0x222 (1)
0x220|      01                                       |  .             |      [22]: 1 transition_type 0x222-0x223 (1)
0x220|         02                                    |   .            |      [23]: 2 transition_type 0x223-0x224 (1)
0x220|            01                                 |    .           |      [24]: 1 transition_type 0x224-0x225 (1)
0x220|               02                              |     .          |      [25]: 2 transition_type 0x225-0x226 (1)
0x220|                  01                           |      .         |      [26]: 1 transition_type 0x226-0x227 (1)
0x220|                     02                        |       .        |      [27]: 2 transition_type 0x227-0x228 (1)
0x220|                        01                     |        .       |      [28]: 1 transition_type 0x228-0x229 (1)
0x220|                           02                  |         .      |      [29]: 2 transition_type 0x229-0x22a (1)
0x220|                              01               |          .     |      [30]: 1 transition_type 0x22a-0x22b (1)
0x220|                                 02            |           .    |      [31]: 2 transition_type 0x22b-0x22c (1)
0x220|                                    01         |            .   |      [32]: 1 transition_type 0x22c-0x22d (1)
0x220|                                       02      |             .  |      [33]: 2 transition_type 0x22d-0x22e (1)
0x220|                                          01   |              . |      [34]: 1 transition_type 0x22e-0x22f (1)
0x220|                                             02|               .|      [35]: 2 transition_type 0x22f-0x230 (1)
0x230|01                                             |.               |      [36]: 1 transition_type 0x230-0x231 (1)
0x230|   02                                          | .              |      [37]: 2 transition_type 0x231-0x232 (1)
0x230|      01                                       |  .             |      [38]: 1 transition_type 0x232-0x233 (1)
0x230|         02                                    |   .            |      [39]: 2 transition_type 0x233-0x234 (1)
0x230|            01                                 |    .           |      [40]: 1 transition_type 0x234-0x235 (1)
0x230|               02                              |     .          |      [41]: 2 transition_type 0x235-0x236 (1)
0x230|                  01                           |      .         |      [42]: 1 transition_type 0x236-0x237 (1)
0x230|                     02                        |       .        |      [43]: 2 transition_type 0x237-0x238 (1)
0x230|                        01                     |        .       |      [44]: 1 transition_type 0x238-0x239 (1)
0x230|                           02                  |         .      |      [45]: 2 transition_type 0x239-0x23a (1)
0x230|                              01               |          .     |      [46]: 1 transition_type 0x23a-0x23b (1)
0x230|                                 02            |           .    |      [47]: 2 transition_type 0x23b-0x23c (1)
0x230|                                    01         |            .   |      [48]: 1 transition_type 0x23c-0x23d (1)
0x230|                                       02      |             .  |      [49]: 2 transition_type 0x23d-0x23e (1)
0x230|                                          01   |              . |      [50]: 1 transition_type 0x23e-0x23f (1)
0x230|                                             02|               .|      [51]: 2 transition_type 0x23f-0x240 (1)
0x240|01                                             |.               |      [52]: 1 transition_type 0x240-0x241 (1)
0x240|   02                                          | .              |      [53]: 2 transition_type 0x241-0x242 (1)
0x240|      01                                       |  .             |      [54]: 1 transition_type 0x242-0x243 (1)
0x240|         02                                    |   .            |      [55]: 2 transition_type 0x243-0x244 (1)
0x240|            01                                 |    .           |      [56]: 1 transition_type 0x244-0x245 (1)
0x240|               02                              |     .          |      [57]: 2 transition_type 0x245-0x246 (1)
0x240|                  01                           |      .         |      [58]: 1 transition_type 0x246-0x247 (1)
0x240|                     02                        |       .        |      [59]: 2 transition_type 0x247-0x248 (1)
0x240|                        01                     |        .       |      [60]: 1 transition_type 0x248-0x249 (1)
0x240|                           02                  |         .      |      [61]: 2 transition_type 0x249-0x24a (1)
0x240|                              01               |          .     |      [62]: 1 transition_type 0x24a-0x24b (1)
0x240|                                 02            |           .    |      [63]: 2 transition_type 0x24b-0x24c (1)
0x240|                                    01         |            .   |      [64]: 1 transition_type 0x24c-0x24d (1)
0x240|                                       02      |             .  |      [65]: 2 transition_type 0x24d-0x24e (1)
0x240|                                          01   |              . |      [66]: 1 transition_type 0x24e-0x24f (1)
0x240|                                             02|               .|      [67]: 2 transition_type 0x24f-0x250 (1)
0x250|01                                             |.               |      [68]: 1 transition_type 0x250-0x251 (1)
0x250|   02                                          | .              |      [69]: 2 transition_type 0x251-0x252 (1)
0x250|      01                                       |  .             |      [70]: 1 transition_type 0x252-0x253 (1)
0x250|         02                                    |   .            |      [71]: 2 transition_type 0x253-0x254 (1)
0x250|            01                                 |    .           |      [72]: 1 transition_type 0x254-0x255 (1)
0x250|               07                              |     .          |      [73]: 7 transition_type 0x255-0x256 (1)
0x250|                  06                           |      .         |      [74]: 6 transition_type 0x256-0x257 (1)
0x250|                     07                        |       .        |      [75]: 7 transition_type 0x257-0x258 (1)
0x250|                        06                     |        .       |      [76]: 6 transition_type 0x258-0x259 (1)
0x250|                           07                  |         .      |      [77]: 7 transition_type 0x259-0x25a (1)
0x250|                              06               |          .     |      [78]: 6 transition_type 0x25a-0x25b (1)
0x250|                                 07            |           .    |      [79]: 7 transition_type 0x25b-0x25c (1)
0x250|                                    06         |            .   |      [80]: 6 transition_type 0x25c-0x25d (1)
0x250|                                       07      |             .  |      [81]: 7 transition_type 0x25d-0x25e (1)
0x250|                                          06   |              . |      [82]: 6 transition_type 0x25e-0x25f (1)
0x250|                                             07|               .|      [83]: 7 transition_type 0x25f-0x260 (1)
0x260|06                                             |.               |      [84]: 6 transition_type 0x260-0x261 (1)
0x260|   07                                          | .              |      [85]: 7 transition_type 0x261-0x262 (1)
0x260|      06                                       |  .             |      [86]: 6 transition_type 0x262-0x263 (1)
0x260|         07                                    |   .            |      [87]: 7 transition_type 0x263-0x264 (1)
0x260|            06                                 |    .           |      [88]: 6 transition_type 0x264-0x265 (1)
0x260|               07                              |     .          |      [89]: 7 transition_type 0x265-0x266 (1)
0x260|                  06                           |      .         |      [90]: 6 transition_type 0x266-0x267 (1)
0x260|                     07                        |       .        |      [91]: 7 transition_type 0x267-0x268 (1)
0x260|                        06                     |        .       |      [92]: 6 transition_type 0x268-0x269 (1)
0x260|                           07                  |         .      |      [93]: 7 transition_type 0x269-0x26a (1)
0x260|                              06               |          .     |      [94]: 6 transition_type 0x26a-0x26b (1)
0x260|                                 07            |           .    |      [95]: 7 transition_type 0x26b-0x26c (1)
0x260|                                    06         |            .   |      [96]: 6 transition_type 0x26c-0x26d (1)
0x260|                                       07      |             .  |      [97]: 7 transition_type 0x26d-0x26e (1)
0x260|                                          06   |              . |      [98]: 6 transition_type 0x26e-0x26f (1)
0x260|                                             07|               .|      [99]: 7 transition_type 0x26f-0x270 (1)
0x270|06                                             |.               |      [100]: 6 transition_type 0x270-0x271 (1)
0x270|   07                                          | .              |      [101]: 7 transition_type 0x271-0x272 (1)
0x270|      06                                       |  .             |      [102]: 6 transition_type 0x272-0x273 (1)
0x270|         07                                    |   .            |      [103]: 7 transition_type 0x273-0x274 (1)
0x270|            06                                 |    .           |      [104]: 6 transition_type 0x274-0x275 (1)
0x270|               07                              |     .          |      [105]: 7 transition_type 0x275-0x276 (1)
0x270|                  06                           |      .         |      [106]: 6 transition_type 0x276-0x277 (1)
0x270|                     07                        |       .        |      [107]: 7 transition_type 0x277-0x278 (1)
0x270|                        06                     |        .       |      [108]: 6 transition_type 0x278-0x279 (1)
0x270|                           07                  |         .      |      [109]: 7 transition_type 0x279-0x27a (1)
0x270|                              06               |          .     |      [110]: 6 transition_type 0x27a-0x27b (1)
0x270|                                 07            |           .    |      [111]: 7 transition_type 0x27b-0x27c (1)
0x270|                                    06         |            .   |      [112]: 6 transition_type 0x27c-0x27d (1)
0x270|                                       07      |             .  |      [113]: 7 transition_type 0x27d-0x27e (1)
0x270|                                          06   |              . |      [114]: 6 transition_type 0x27e-0x27f (1)
0x270|                                             07|               .|      [115]: 7 transition_type 0x27f-0x280 (1)
0x280|06                                             |.               |      [116]: 6 transition_type 0x280-0x281 (1)
0x280|   07                                          | .              |      [117]: 7 transition_type 0x281-0x282 (1)
0x280|      06                                       |  .             |      [118]: 6 transition_type 0x282-0x283 (1)
0x280|         06                                    |   .            |      [119]: 6 transition_type 0x283-0x284 (1)
     |                                               |                |    local_time_type_records[0:8]: 0x284-0x2b4 (48)
     |                                               |                |      [0]{}: local_time_type 0x284-0x28a (6)
0x280|            ff ff b0 74                        |    ...t        |        utoff: -20364 (valid) 0x284-0x288 (4)
0x280|                        00                     |        .       |        dst: 0 (valid) 0x288-0x289 (1)
0x280|                           00                  |         .      |        idx: 0 (valid) 0x289-0x28a (1)
     |                                               |                |      [1]{}: local_time_type 0x28a-0x290 (6)
0x280|                              ff ff b9 b0      |          ....  |        utoff: -18000 (valid) 0x28a-0x28e (4)
0x280|                                          01   |              . |        dst: 1 (valid) 0x28e-0x28f (1)
0x280|                                             04|               .|        idx: 4 (valid) 0x28f-0x290 (1)
     |                                               |                |      [2]{}: local_time_type 0x290-0x296 (6)
0x290|ff ff ab a0                                    |....            |        utoff: -21600 (valid) 0x290-0x294 (4)
0x290|            00                                 |    .           |        dst: 0 (valid) 0x294-0x295 (1)
0x290|               08                              |     .          |        idx: 8 (valid) 0x295-0x296 (1)
     |                                               |                |      [3]{}: local_time_type 0x296-0x29c (6)
0x290|                  ff ff b9 b0                  |      ....      |        utoff: -18000 (valid) 0x296-0x29a (4)
0x290|                              01               |          .     |        dst: 1 (valid) 0x29a-0x29b (1)
0x290|                                 0c            |           .    |        idx: 12 (valid) 0x29b-0x29c (1)
     |                                               |                |      [4]{}: local_time_type 0x29c-0x2a2 (6)
0x290|                                    ff ff b9 b0|            ....|        utoff: -18000 (valid) 0x29c-0x2a0 (4)
0x2a0|01                                             |.               |        dst: 1 (valid) 0x2a0-0x2a1 (1)
0x2a0|   10                                          | .              |        idx: 16 (valid) 0x2a1-0x2a2 (1)
     |                                               |                |      [5]{}: local_time_type 0x2a2-0x2a8 (6)
0x2a0|      ff ff ab a0                              |  ....          |        utoff: -21600 (valid) 0x2a2-0x2a6 (4)
0x2a0|                  00                           |      .         |        dst: 0 (valid) 0x2a6-0x2a7 (1)
0x2a0|                     08                        |       .        |        idx: 8 (valid) 0x2a7-0x2a8 (1)
     |                                               |                |      [6]{}: local_time_type 0x2a8-0x2ae (6)
0x2a0|                        ff ff c7 c0            |        ....    |        utoff: -14400 (valid) 0x2a8-0x2ac (4)
0x2a0|                                    01         |            .   |        dst: 1 (valid) 0x2ac-0x2ad (1)
0x2a0|                                       14      |             .  |        idx: 20 (valid) 0x2ad-0x2ae (1)
     |                                               |                |      [7]{}: local_time_type 0x2ae-0x2b4 (6)
0x2a0|                                          ff ff|              ..|        utoff: -18000 (valid) 0x2ae-0x2b2 (4)
0x2b0|b9 b0                                          |..              |
0x2b0|      00                                       |  .             |        dst: 0 (valid) 0x2b2-0x2b3 (1)
0x2b0|         18                                    |   .            |        idx: 24 (valid) 0x2b3-0x2b4 (1)
     |                                               |                |    time_zone_designations[0:7]: 0x2b4-0x2d0 (28)
0x2b0|            4c 4d 54 00                        |    LMT.        |      [0]: "LMT" time_zone_designation 0x2b4-0x2b8 (4)
0x2b0|                        43 44 54 00            |        CDT.    |      [1]: "CDT" time_zone_designation 0x2b8-0x2bc (4)
0x2b0|                                    43 53 54 00|            CST.|      [2]: "CST" time_zone_designation 0x2bc-0x2c0 (4)
0x2c0|43 57 54 00                                    |CWT.            |      [3]: "CWT" time_zone_designation 0x2c0-0x2c4 (4)
0x2c0|            43 50 54 00                        |    CPT.        |      [4]: "CPT" time_zone_designation 0x2c4-0x2c8 (4)
0x2c0|                        45 44 54 00            |        EDT.    |      [5]: "EDT" time_zone_designation 0x2c8-0x2cc (4)
0x2c0|                                    45 53 54 00|            EST.|      [6]: "EST" time_zone_designation 0x2cc-0x2d0 (4)
     |                                               |                |    leap_second_records[0:27]: 0x2d0-0x3a8 (216)
     |                                               |                |      [0]{}: leap_second_record 0x2d0-0x2d8 (8)
0x2d0|04 b2 58 00                                    |..X.            |        occur: "1972-07-01T00:00:00Z" (78796800) 0x2d0-0x2d4 (4)
0x2d0|            00 00 00 01                        |    ....        |        corr: 1 0x2d4-0x2d8 (4)
     |                                               |                |      [1]{}: leap_second_record 0x2d8-0x2e0 (8)
0x2d0|                        05 a4 ec 01            |        ....    |        occur: "1973-01-01T00:00:01Z" (94694401) 0x2d8-0x2dc (4)
0x2d0|                                    00 00 00 02|            ....|        corr: 2 0x2dc-0x2e0 (4)
     |                                               |                |      [2]{}: leap_second_record 0x2e0-0x2e8 (8)
0x2e0|07 86 1f 82                                    |....            |        occur: "1974-01-01T00:00:02Z" (126230402) 0x2e0-0x2e4 (4)
0x2e0|            00 00 00 03                        |    ....        |        corr: 3 0x2e4-0x2e8 (4)
     |                                               |                |      [3]{}: leap_second_record 0x2e8-0x2f0 (8)
0x2e0|                        09 67 53 03            |        .gS.    |        occur: "1975-01-01T00:00:03Z" (157766403) 0x2e8-0x2ec (4)
0x2e0|                                    00 00 00 04|            ....|        corr: 4 0x2ec-0x2f0 (4)
     |                                               |                |      [4]{}: leap_second_record 0x2f0-0x2f8 (8)
0x2f0|0b 48 86 84                                    |.H..            |        occur: "1976-01-01T00:00:04Z" (189302404) 0x2f0-0x2f4 (4)
0x2f0|            00 00 00 05                        |    ....        |        corr: 5 0x2f4-0x2f8 (4)
     |                                               |                |      [5]{}: leap_second_record 0x2f8-0x300 (8)
0x2f0|                        0d 2b 0b 85            |        .+..    |        occur: "1977-01-01T00:00:05Z" (220924805) 0x2f8-0x2fc (4)
0x2f0|                                    00 00 00 06|            ....|        corr: 6 0x2fc-0x300 (4)
     |                                               |                |      [6]{}: leap_second_record 0x300-0x308 (8)
0x300|0f 0c 3f 06                                    |..?.            |        occur: "1978-01-01T00:00:06Z" (252460806) 0x300-0x304 (4)
0x300|            00 00 00 07                        |    ....        |        corr: 7 0x304-0x308 (4)
     |                                               |                |      [7]{}: leap_second_record 0x308-0x310 (8)
0x300|                        10 ed 72 87            |        ..r.    |        occur: "1979-01-01T00:00:07Z" (283996807) 0x308-0x30c (4)
0x300|                                    00 00 00 08|            ....|        corr: 8 0x30c-0x310 (4)
     |                                               |                |      [8]{}: leap_second_record 0x310-0x318 (8)
0x310|12 ce a6 08                                    |....            |        occur: "1980-01-01T00:00:08Z" (315532808) 0x310-0x314 (4)
0x310|            00 00 00 09                        |    ....        |        corr: 9 0x314-0x318 (4)
     |                                               |                |      [9]{}: leap_second_record 0x318-0x320 (8)
0x310|                        15 9f ca 89            |        ....    |        occur: "1981-07-01T00:00:09Z" (362793609) 0x318-0x31c (4)
0x310|                                    00 00 00 0a|            ....|        corr: 10 0x31c-0x320 (4)
     |                                               |                |      [10]{}: leap_second_record 0x320-0x328 (8)
0x320|17 80 fe 0a                                    |....            |        occur: "1982-07-01T00:00:10Z" (394329610) 0x320-0x324 (4)
0x320|            00 00 00 0b                        |    ....        |        corr: 11 0x324-0x328 (4)
     |                                               |                |      [11]{}: leap_second_record 0x328-0x330 (8)
0x320|                        19 62 31 8b            |        .b1.    |        occur: "1983-07-01T00:00:11Z" (425865611) 0x328-0x32c (4)
0x320|                                    00 00 00 0c|            ....|        corr: 12 0x32c-0x330 (4)
     |                                               |                |      [12]{}: leap_second_record 0x330-0x338 (8)
0x330|1d 25 ea 0c                                    |.%..            |        occur: "1985-07-01T00:00:12Z" (489024012) 0x330-0x334 (4)
0x330|            00 00 00 0d                        |    ....        |        corr: 13 0x334-0x338 (4)
     |                                               |                |      [13]{}: leap_second_record 0x338-0x340 (8)
0x330|                        21 da e5 0d            |        !...    |        occur: "1988-01-01T00:00:13Z" (567993613) 0x338-0x33c (4)
0x330|                                    00 00 00 0e|            ....|        corr: 14 0x33c-0x340 (4)
     |                                               |                |      [14]{}: leap_second_record 0x340-0x348 (8)
0x340|25 9e 9d 8e                                    |%...            |        occur: "1990-01-01T00:00:14Z" (631152014) 0x340-0x344 (4)
0x340|            00 00 00 0f                        |    ....        |        corr: 15 0x344-0x348 (4)
     |                                               |                |      [15]{}: leap_second_record 0x348-0x350 (8)
0x340|                        27 7f d1 0f            |        '...    |        occur: "1991-01-01T00:00:15Z" (662688015) 0x348-0x34c (4)
0x340|                                    00 00 00 10|            ....|        corr: 16 0x34c-0x350 (4)
     |                                               |                |      [16]{}: leap_second_record 0x350-0x358 (8)
0x350|2a 50 f5 90                                    |*P..            |        occur: "1992-07-01T00:00:16Z" (709948816) 0x350-0x354 (4)
0x350|            00 00 00 11                        |    ....        |        corr: 17 0x354-0x358 (4)
     |                                               |                |      [17]{}: leap_second_record 0x358-0x360 (8)
0x350|                        2c 32 29 11            |        ,2).    |        occur: "1993-07-01T00:00:17Z" (741484817) 0x358-0x35c (4)
0x350|                                    00 00 00 12|            ....|        corr: 18 0x35c-0x360 (4)
     |                                               |                |      [18]{}: leap_second_record 0x360-0x368 (8)
0x360|2e 13 5c 92                                    |..\.            |        occur: "1994-07-01T00:00:18Z" (773020818) 0x360-0x364 (4)
0x360|            00 00 00 13                        |    ....        |        corr: 19 0x364-0x368 (4)
     |                                               |                |      [19]{}: leap_second_record 0x368-0x370 (8)
0x360|                        30 e7 24 13            |        0.$.    |        occur: "1996-01-01T00:00:19Z" (820454419) 0x368-0x36c (4)
0x360|                                    00 00 00 14|            ....|        corr: 20 0x36c-0x370 (4)
     |                                               |                |      [20]{}: leap_second_record 0x370-0x378 (8)
0x370|33 b8 48 94                                    |3.H.            |        occur: "1997-07-01T00:00:20Z" (867715220) 0x370-0x374 (4)
0x370|            00 00 00 15                        |    ....        |        corr: 21 0x374-0x378 (4)
     |                                               |                |      [21]{}: leap_second_record 0x378-0x380 (8)
0x370|                        36 8c 10 15            |        6...    |        occur: "1999-01-01T00:00:21Z" (915148821) 0x378-0x37c (4)
0x370|                                    00 00 00 16|            ....|        corr: 22 0x37c-0x380 (4)
     |                                               |                |      [22]{}: leap_second_record 0x380-0x388 (8)
0x380|43 b7 1b 96                                    |C...            |        occur: "2006-01-01T00:00:22Z" (1136073622) 0x380-0x384 (4)
0x380|            00 00 00 17                        |    ....        |        corr: 23 0x384-0x388 (4)
     |                                               |                |      [23]{}: leap_second_record 0x388-0x390 (8)
0x380|                        49 5c 07 97            |        I\..    |        occur: "2009-01-01T00:00:23Z" (1230768023) 0x388-0x38c (4)
0x380|                                    00 00 00 18|            ....|        corr: 24 0x38c-0x390 (4)
     |                                               |                |      [24]{}: leap_second_record 0x390-0x398 (8)
0x390|4f ef 93 18                                    |O...            |        occur: "2012-07-01T00:00:24Z" (1341100824) 0x390-0x394 (4)
0x390|            00 00 00 19                        |    ....        |        corr: 25 0x394-0x398 (4)
     |                                               |                |      [25]{}: leap_second_record 0x398-0x3a0 (8)
0x390|                        55 93 2d 99            |        U.-.    |        occur: "2015-07-01T00:00:25Z" (1435708825) 0x398-0x39c (4)
0x390|                                    00 00 00 1a|            ....|        corr: 26 0x39c-0x3a0 (4)
     |                                               |                |      [26]{}: leap_second_record 0x3a0-0x3a8 (8)
0x3a0|58 68 46 9a                                    |XhF.            |        occur: "2017-01-01T00:00:26Z" (1483228826) 0x3a0-0x3a4 (4)
0x3a0|            00 00 00 1b                        |    ....        |        corr: 27 0x3a4-0x3a8 (4)
     |                                               |                |    standard_wall_indicators[0:8]: 0x3a8-0x3b0 (8)
0x3a0|                        00                     |        .       |      [0]: 0 standard_wall_indicator (valid) 0x3a8-0x3a9 (1)
0x3a0|                           00                  |         .      |      [1]: 0 standard_wall_indicator (valid) 0x3a9-0x3aa (1)
0x3a0|                              00               |          .     |      [2]: 0 standard_wall_indicator (valid) 0x3aa-0x3ab (1)
0x3a0|                                 00            |           .    |      [3]: 0 standard_wall_indicator (valid) 0x3ab-0x3ac (1)
0x3a0|                                    01         |            .   |      [4]: 1 standard_wall_indicator (valid) 0x3ac-0x3ad (1)
0x3a0|                                       01      |             .  |      [5]: 1 standard_wall_indicator (valid) 0x3ad-0x3ae (1)
0x3a0|                                          00   |              . |      [6]: 0 standard_wall_indicator (valid) 0x3ae-0x3af (1)
0x3a0|                                             00|               .|      [7]: 0 standard_wall_indicator (valid) 0x3af-0x3b0 (1)
     |                                               |                |    ut_local_indicators[0:8]: 0x3b0-0x3b8 (8)
0x3b0|00                                             |.               |      [0]: 0 ut_local_indicator (valid) 0x3b0-0x3b1 (1)
0x3b0|   00                                          | .              |      [1]: 0 ut_local_indicator (valid) 0x3b1-0x3b2 (1)
0x3b0|      00                                       |  .             |      [2]: 0 ut_local_indicator (valid) 0x3b2-0x3b3 (1)
0x3b0|         00                                    |   .            |      [3]: 0 ut_local_indicator (valid) 0x3b3-0x3b4 (1)
0x3b0|            01                                 |    .           |      [4]: 1 ut_local_indicator (valid) 0x3b4-0x3b5 (1)
0x3b0|               01                              |     .          |      [5]: 1 ut_local_indicator (valid) 0x3b5-0x3b6 (1)
0x3b0|                  00                           |      .         |      [6]: 0 ut_local_indicator (valid) 0x3b6-0x3b7 (1)
0x3b0|                     00                        |       .        |      [7]: 0 ut_local_indicator (valid) 0x3b7-0x3b8 (1)
     |                                               |                |  v2plusheader{}: 0x3b8-0x3e4 (44)
0x3b0|                        54 5a 69 66            |        TZif    |    magic: 0x545a6966 (valid) 0x3b8-0x3bc (4)
0x3b0|                                    32         |            2   |    ver: "2" (0x32) (valid) 0x3bc-0x3bd (1)
0x3b0|                                       00 00 00|             ...|    reserved: raw bits 0x3bd-0x3cc (15)
0x3c0|00 00 00 00 00 00 00 00 00 00 00 00            |............    |
0x3c0|                                    00 00 00 08|            ....|    isutcnt: 8 0x3cc-0x3d0 (4)
0x3d0|00 00 00 08                                    |....            |    isstdcnt: 8 0x3d0-0x3d4 (4)
0x3d0|            00 00 00 1b                        |    ....        |    leapcnt: 27 0x3d4-0x3d8 (4)
0x3d0|                        00 00 00 78            |        ...x    |    timecnt: 120 0x3d8-0x3dc (4)
0x3d0|                                    00 00 00 08|            ....|    typecnt: 8 0x3dc-0x3e0 (4)
0x3e0|00 00 00 1c                                    |....            |    charcnt: 28 0x3e0-0x3e4 (4)
     |                                               |                |  v2plusdatablock{}: 0x3e4-0x9bc (1496)
     |                                               |                |    transition_times[0:120]: 0x3e4-0x7a4 (960)
0x3e0|            ff ff ff ff 5e 03 fe a0            |    ....^...    |      [0]: "1883-11-18T18:00:00Z" (-2717647200) transition_time 0x3e4-0x3ec (8)
0x3e0|                                    ff ff ff ff|            ....|      [1]: "1918-03-31T08:00:00Z" (-1633276800) transition_time 0x3ec-0x3f4 (8)
0x3f0|9e a6 2c 80                                    |..,.            |
0x3f0|            ff ff ff ff 9f ba f9 70            |    .......p    |      [2]: "1918-10-27T07:00:00Z" (-1615136400) transition_time 0x3f4-0x3fc (8)
0x3f0|                                    ff ff ff ff|            ....|      [3]: "1919-03-30T08:00:00Z" (-1601827200) transition_time 0x3fc-0x404 (8)
0x400|a0 86 0e 80                                    |....            |
0x400|            ff ff ff ff a1 9a db 70            |    .......p    |      [4]: "1919-10-26T07:00:00Z" (-1583686800) transition_time 0x404-0x40c (8)
0x400|                                    ff ff ff ff|            ....|      [5]: "1942-02-09T08:00:00Z" (-880214400) transition_time 0x40c-0x414 (8)
0x410|cb 88 fe 80                                    |....            |
0x410|            ff ff ff ff d2 23 f4 70            |    .....#.p    |      [6]: "1945-08-14T23:00:00Z" (-769395600) transition_time 0x414-0x41c (8)
0x410|                                    ff ff ff ff|            ....|      [7]: "1945-09-30T07:00:00Z" (-765392400) transition_time 0x41c-0x424 (8)
0x420|d2 61 09 f0                                    |.a..            |
0x420|            ff ff ff ff fc d8 49 00            |    ......I.    |      [8]: "1968-04-28T08:00:00Z" (-52934400) transition_time 0x424-0x42c (8)
0x420|                                    ff ff ff ff|            ....|      [9]: "1968-10-27T07:00:00Z" (-37213200) transition_time 0x42c-0x434 (8)
0x430|fd c8 2b f0                                    |..+.            |
0x430|            ff ff ff ff fe b8 2b 00            |    ......+.    |      [10]: "1969-04-27T08:00:00Z" (-21484800) transition_time 0x434-0x43c (8)
0x430|                                    ff ff ff ff|            ....|      [11]: "1969-10-26T07:00:00Z" (-5763600) transition_time 0x43c-0x444 (8)
0x440|ff a8 0d f0                                    |....            |
0x440|            00 00 00 00 00 98 0d 00            |    ........    |      [12]: "1970-04-26T08:00:00Z" (9964800) transition_time 0x444-0x44c (8)
0x440|                                    00 00 00 00|            ....|      [13]: "1970-10-25T07:00:00Z" (25686000) transition_time 0x44c-0x454 (8)
0x450|01 87 ef f0                                    |....            |
0x450|            00 00 00 00 02 77 ef 00            |    .....w..    |      [14]: "1971-04-25T08:00:00Z" (41414400) transition_time 0x454-0x45c (8)
0x450|                                    00 00 00 00|            ....|      [15]: "1971-10-31T07:00:00Z" (57740400) transition_time 0x45c-0x464 (8)
0x460|03 71 0c 70                                    |.q.p            |
0x460|            00 00 00 00 04 61 0b 80            |    .....a..    |      [16]: "1972-04-30T08:00:00Z" (73468800) transition_time 0x464-0x46c (8)
0x460|                                    00 00 00 00|            ....|      [17]: "1972-10-29T07:00:01Z" (89190001) transition_time 0x46c-0x474 (8)
0x470|05 50 ee 71                                    |.P.q            |
0x470|            00 00 00 00 06 40 ed 82            |    .....@..    |      [18]: "1973-04-29T08:00:02Z" (104918402) transition_time 0x474-0x47c (8)
0x470|                                    00 00 00 00|            ....|      [19]: "1973-10-28T07:00:02Z" (120639602) transition_time 0x47c-0x484 (8)
0x480|07 30 d0 72                                    |.0.r            |
0x480|            00 00 00 00 07 8d 27 83            |    ......'.    |      [20]: "1974-01-06T08:00:03Z" (126691203) transition_time 0x484-0x48c (8)
0x480|                                    00 00 00 00|            ....|      [21]: "1974-10-27T07:00:03Z" (152089203) transition_time 0x48c-0x494 (8)
0x490|09 10 b2 73                                    |...s            |
0x490|            00 00 00 00 09 ad a3 04            |    ........    |      [22]: "1975-02-23T08:00:04Z" (162374404) transition_time 0x494-0x49c (8)
0x490|                                    00 00 00 00|            ....|      [23]: "1975-10-26T07:00:04Z" (183538804) transition_time 0x49c-0x4a4 (8)
0x4a0|0a f0 94 74                                    |...t            |
0x4a0|            00 00 00 00 0b e0 93 85            |    ........    |      [24]: "1976-04-25T08:00:05Z" (199267205) transition_time 0x4a4-0x4ac (8)
0x4a0|                                    00 00 00 00|            ....|      [25]: "1976-10-31T07:00:05Z" (215593205) transition_time 0x4ac-0x4b4 (8)
0x4b0|0c d9 b0 f5                                    |....            |
0x4b0|            00 00 00 00 0d c0 75 86            |    ......u.    |      [26]: "1977-04-24T08:00:06Z" (230716806) transition_time 0x4b4-0x4bc (8)
0x4b0|                                    00 00 00 00|            ....|      [27]: "1977-10-30T07:00:06Z" (247042806) transition_time 0x4bc-0x4c4 (8)
0x4c0|0e b9 92 f6                                    |....            |
0x4c0|            00 00 00 00 0f a9 92 07            |    ........    |      [28]: "1978-04-30T08:00:07Z" (262771207) transition_time 0x4c4-0x4cc (8)
0x4c0|                                    00 00 00 00|            ....|      [29]: "1978-10-29T07:00:07Z" (278492407) transition_time 0x4cc-0x4d4 (8)
0x4d0|10 99 74 f7                                    |..t.            |
0x4d0|            00 00 00 00 11 89 74 08            |    ......t.    |      [30]: "1979-04-29T08:00:08Z" (294220808) transition_time 0x4d4-0x4dc (8)
0x4d0|                                    00 00 00 00|            ....|      [31]: "1979-10-28T07:00:08Z" (309942008) transition_time 0x4dc-0x4e4 (8)
0x4e0|12 79 56 f8                                    |.yV.            |
0x4e0|            00 00 00 00 13 69 56 09            |    .....iV.    |      [32]: "1980-04-27T08:00:09Z" (325670409) transition_time 0x4e4-0x4ec (8)
0x4e0|                                    00 00 00 00|            ....|      [33]: "1980-10-26T07:00:09Z" (341391609) transition_time 0x4ec-0x4f4 (8)
0x4f0|14 59 38 f9                                    |.Y8.            |
0x4f0|            00 00 00 00 15 49 38 09            |    .....I8.    |      [34]: "1981-04-26T08:00:09Z" (357120009) transition_time 0x4f4-0x4fc (8)
0x4f0|                                    00 00 00 00|            ....|      [35]: "1981-10-25T07:00:10Z" (372841210) transition_time 0x4fc-0x504 (8)
0x500|16 39 1a fa                                    |.9..            |
0x500|            00 00 00 00 17 29 1a 0a            |    .....)..    |      [36]: "1982-04-25T08:00:10Z" (388569610) transition_time 0x504-0x50c (8)
0x500|                                    00 00 00 00|            ....|      [37]: "1982-10-31T07:00:11Z" (404895611) transition_time 0x50c-0x514 (8)
0x510|18 22 37 7b                                    |."7{            |
0x510|            00 00 00 00 19 08 fc 0b            |    ........    |      [38]: "1983-04-24T08:00:11Z" (420019211) transition_time 0x514-0x51c (8)
0x510|                                    00 00 00 00|            ....|      [39]: "1983-10-30T07:00:12Z" (436345212) transition_time 0x51c-0x524 (8)
0x520|1a 02 19 7c                                    |...|            |
0x520|            00 00 00 00 1a f2 18 8c            |    ........    |      [40]: "1984-04-29T08:00:12Z" (452073612) transition_time 0x524-0x52c (8)
0x520|                                    00 00 00 00|            ....|      [41]: "1984-10-28T07:00:12Z" (467794812) transition_time 0x52c-0x534 (8)
0x530|1b e1 fb 7c                                    |...|            |
0x530|            00 00 00 00 1c d1 fa 8c            |    ........    |      [42]: "1985-04-28T08:00:12Z" (483523212) transition_time 0x534-0x53c (8)
0x530|                                    00 00 00 00|            ....|      [43]: "1985-10-27T07:00:13Z" (499244413) transition_time 0x53c-0x544 (8)
0x540|1d c1 dd 7d                                    |...}            |
0x540|            00 00 00 00 1e b1 dc 8d            |    ........    |      [44]: "1986-04-27T08:00:13Z" (514972813) transition_time 0x544-0x54c (8)
0x540|                                    00 00 00 00|            ....|      [45]: "1986-10-26T07:00:13Z" (530694013) transition_time 0x54c-0x554 (8)
0x550|1f a1 bf 7d                                    |...}            |
0x550|            00 00 00 00 20 76 0f 0d            |    .... v..    |      [46]: "1987-04-05T08:00:13Z" (544608013) transition_time 0x554-0x55c (8)
0x550|                                    00 00 00 00|            ....|      [47]: "1987-10-25T07:00:13Z" (562143613) transition_time 0x55c-0x564 (8)
0x560|21 81 a1 7d                                    |!..}            |
0x560|            00 00 00 00 22 55 f1 0e            |    ...."U..    |      [48]: "1988-04-03T08:00:14Z" (576057614) transition_time 0x564-0x56c (8)
0x560|                                    00 00 00 00|            ....|      [49]: "1988-10-30T07:00:14Z" (594198014) transition_time 0x56c-0x574 (8)
0x570|23 6a bd fe                                    |#j..            |
0x570|            00 00 00 00 24 35 d3 0e            |    ....$5..    |      [50]: "1989-04-02T08:00:14Z" (607507214) transition_time 0x574-0x57c (8)
0x570|                                    00 00 00 00|            ....|      [51]: "1989-10-29T07:00:14Z" (625647614) transition_time 0x57c-0x584 (8)
0x580|25 4a 9f fe                                    |%J..            |
0x580|            00 00 00 00 26 15 b5 0f            |    ....&...    |      [52]: "1990-04-01T08:00:15Z" (638956815) transition_time 0x584-0x58c (8)
0x580|                                    00 00 00 00|            ....|      [53]: "1990-10-28T07:00:15Z" (657097215) transition_time 0x58c-0x594 (8)
0x590|27 2a 81 ff                                    |'*..            |
0x590|            00 00 00 00 27 fe d1 90            |    ....'...    |      [54]: "1991-04-07T08:00:16Z" (671011216) transition_time 0x594-0x59c (8)
0x590|                                    00 00 00 00|            ....|      [55]: "1991-10-27T07:00:16Z" (688546816) transition_time 0x59c-0x5a4 (8)
0x5a0|29 0a 64 00                                    |).d.            |
0x5a0|            00 00 00 00 29 de b3 90            |    ....)...    |      [56]: "1992-04-05T08:00:16Z" (702460816) transition_time 0x5a4-0x5ac (8)
0x5a0|                                    00 00 00 00|            ....|      [57]: "1992-10-25T07:00:17Z" (719996417) transition_time 0x5ac-0x5b4 (8)
0x5b0|2a ea 46 01                                    |*.F.            |
0x5b0|            00 00 00 00 2b be 95 91            |    ....+...    |      [58]: "1993-04-04T08:00:17Z" (733910417) transition_time 0x5b4-0x5bc (8)
0x5b0|                                    00 00 00 00|            ....|      [59]: "1993-10-31T07:00:18Z" (752050818) transition_time 0x5bc-0x5c4 (8)
0x5c0|2c d3 62 82                                    |,.b.            |
0x5c0|            00 00 00 00 2d 9e 77 92            |    ....-.w.    |      [60]: "1994-04-03T08:00:18Z" (765360018) transition_time 0x5c4-0x5cc (8)
0x5c0|                                    00 00 00 00|            ....|      [61]: "1994-10-30T07:00:19Z" (783500419) transition_time 0x5cc-0x5d4 (8)
0x5d0|2e b3 44 83                                    |..D.            |
0x5d0|            00 00 00 00 2f 7e 59 93            |    ..../~Y.    |      [62]: "1995-04-02T08:00:19Z" (796809619) transition_time 0x5d4-0x5dc (8)
0x5d0|                                    00 00 00 00|            ....|      [63]: "1995-10-29T07:00:19Z" (814950019) transition_time 0x5dc-0x5e4 (8)
0x5e0|30 93 26 83                                    |0.&.            |
0x5e0|            00 00 00 00 31 67 76 14            |    ....1gv.    |      [64]: "1996-04-07T08:00:20Z" (828864020) transition_time 0x5e4-0x5ec (8)
0x5e0|                                    00 00 00 00|            ....|      [65]: "1996-10-27T07:00:20Z" (846399620) transition_time 0x5ec-0x5f4 (8)
0x5f0|32 73 08 84                                    |2s..            |
0x5f0|            00 00 00 00 33 47 58 14            |    ....3GX.    |      [66]: "1997-04-06T08:00:20Z" (860313620) transition_time 0x5f4-0x5fc (8)
0x5f0|                                    00 00 00 00|            ....|      [67]: "1997-10-26T07:00:21Z" (877849221) transition_time 0x5fc-0x604 (8)
0x600|34 52 ea 85                                    |4R..            |
0x600|            00 00 00 00 35 27 3a 15            |    ....5':.    |      [68]: "1998-04-05T08:00:21Z" (891763221) transition_time 0x604-0x60c (8)
0x600|                                    00 00 00 00|            ....|      [69]: "1998-10-25T07:00:21Z" (909298821) transition_time 0x60c-0x614 (8)
0x610|36 32 cc 85                                    |62..            |
0x610|            00 00 00 00 37 07 1c 16            |    ....7...    |      [70]: "1999-04-04T08:00:22Z" (923212822) transition_time 0x614-0x61c (8)
0x610|                                    00 00 00 00|            ....|      [71]: "1999-10-31T07:00:22Z" (941353222) transition_time 0x61c-0x624 (8)
0x620|38 1b e9 06                                    |8...            |
0x620|            00 00 00 00 38 e6 fe 16            |    ....8...    |      [72]: "2000-04-02T08:00:22Z" (954662422) transition_time 0x624-0x62c (8)
0x620|                                    00 00 00 00|            ....|      [73]: "2000-10-29T07:00:22Z" (972802822) transition_time 0x62c-0x634 (8)
0x630|39 fb cb 06                                    |9...            |
0x630|            00 00 00 00 3a c6 d2 06            |    ....:...    |      [74]: "2001-04-01T07:00:22Z" (986108422) transition_time 0x634-0x63c (8)
0x630|                                    00 00 00 00|            ....|      [75]: "2001-10-28T06:00:22Z" (1004248822) transition_time 0x63c-0x644 (8)
0x640|3b db 9e f6                                    |;...            |
0x640|            00 00 00 00 3c af ee 86            |    ....<...    |      [76]: "2002-04-07T07:00:22Z" (1018162822) transition_time 0x644-0x64c (8)
0x640|                                    00 00 00 00|            ....|      [77]: "2002-10-27T06:00:22Z" (1035698422) transition_time 0x64c-0x654 (8)
0x650|3d bb 80 f6                                    |=...            |
0x650|            00 00 00 00 3e 8f d0 86            |    ....>...    |      [78]: "2003-04-06T07:00:22Z" (1049612422) transition_time 0x654-0x65c (8)
0x650|                                    00 00 00 00|            ....|      [79]: "2003-10-26T06:00:22Z" (1067148022) transition_time 0x65c-0x664 (8)
0x660|3f 9b 62 f6                                    |?.b.            |
0x660|            00 00 00 00 40 6f b2 86            |    ....@o..    |      [80]: "2004-04-04T07:00:22Z" (1081062022) transition_time 0x664-0x66c (8)
0x660|                                    00 00 00 00|            ....|      [81]: "2004-10-31T06:00:22Z" (1099202422) transition_time 0x66c-0x674 (8)
0x670|41 84 7f 76                                    |A..v            |
0x670|            00 00 00 00 42 4f 94 86            |    ....BO..    |      [82]: "2005-04-03T07:00:22Z" (1112511622) transition_time 0x674-0x67c (8)
0x670|                                    00 00 00 00|            ....|      [83]: "2005-10-30T06:00:22Z" (1130652022) transition_time 0x67c-0x684 (8)
0x680|43 64 61 76                                    |Cdav            |
0x680|            00 00 00 00 44 2f 76 87            |    ....D/v.    |      [84]: "2006-04-02T07:00:23Z" (1143961223) transition_time 0x684-0x68c (8)
0x680|                                    00 00 00 00|            ....|      [85]: "2006-10-29T06:00:23Z" (1162101623) transition_time 0x68c-0x694 (8)
0x690|45 44 43 77                                    |EDCw            |
0x690|            00 00 00 00 45 f3 a9 07            |    ....E...    |      [86]: "2007-03-11T07:00:23Z" (1173596423) transition_time 0x694-0x69c (8)
0x690|                                    00 00 00 00|            ....|      [87]: "2007-11-04T06:00:23Z" (1194156023) transition_time 0x69c-0x6a4 (8)
0x6a0|47 2d 5f f7                                    |G-_.            |
0x6a0|            00 00 00 00 47 d3 8b 07            |    ....G...    |      [88]: "2008-03-09T07:00:23Z" (1205046023) transition_time 0x6a4-0x6ac (8)
0x6a0|                                    00 00 00 00|            ....|      [89]: "2008-11-02T06:00:23Z" (1225605623) transition_time 0x6ac-0x6b4 (8)
0x6b0|49 0d 41 f7                                    |I.A.            |
0x6b0|            00 00 00 00 49 b3 6d 08            |    ....I.m.    |      [90]: "2009-03-08T07:00:24Z" (1236495624) transition_time 0x6b4-0x6bc (8)
0x6b0|                                    00 00 00 00|            ....|      [91]: "2009-11-01T06:00:24Z" (1257055224) transition_time 0x6bc-0x6c4 (8)
0x6c0|4a ed 23 f8                                    |J.#.            |
0x6c0|            00 00 00 00 4b 9c 89 88            |    ....K...    |      [92]: "2010-03-14T07:00:24Z" (1268550024) transition_time 0x6c4-0x6cc (8)
0x6c0|                                    00 00 00 00|            ....|      [93]: "2010-11-07T06:00:24Z" (1289109624) transition_time 0x6cc-0x6d4 (8)
0x6d0|4c d6 40 78                                    |L.@x            |
0x6d0|            00 00 00 00 4d 7c 6b 88            |    ....M|k.    |      [94]: "2011-03-13T07:00:24Z" (1299999624) transition_time 0x6d4-0x6dc (8)
0x6d0|                                    00 00 00 00|            ....|      [95]: "2011-11-06T06:00:24Z" (1320559224) transition_time 0x6dc-0x6e4 (8)
0x6e0|4e b6 22 78                                    |N."x            |
0x6e0|            00 00 00 00 4f 5c 4d 88            |    ....O\M.    |      [96]: "2012-03-11T07:00:24Z" (1331449224) transition_time 0x6e4-0x6ec (8)
0x6e0|                                    00 00 00 00|            ....|      [97]: "2012-11-04T06:00:25Z" (1352008825) transition_time 0x6ec-0x6f4 (8)
0x6f0|50 96 04 79                                    |P..y            |
0x6f0|            00 00 00 00 51 3c 2f 89            |    ....Q</.    |      [98]: "2013-03-10T07:00:25Z" (1362898825) transition_time 0x6f4-0x6fc (8)
0x6f0|                                    00 00 00 00|            ....|      [99]: "2013-11-03T06:00:25Z" (1383458425) transition_time 0x6fc-0x704 (8)
0x700|52 75 e6 79                                    |Ru.y            |
0x700|            00 00 00 00 53 1c 11 89            |    ....S...    |      [100]: "2014-03-09T07:00:25Z" (1394348425) transition_time 0x704-0x70c (8)
0x700|                                    00 00 00 00|            ....|      [101]: "2014-11-02T06:00:25Z" (1414908025) transition_time 0x70c-0x714 (8)
0x710|54 55 c8 79                                    |TU.y            |
0x710|            00 00 00 00 54 fb f3 89            |    ....T...    |      [102]: "2015-03-08T07:00:25Z" (1425798025) transition_time 0x714-0x71c (8)
0x710|                                    00 00 00 00|            ....|      [103]: "2015-11-01T06:00:26Z" (1446357626) transition_time 0x71c-0x724 (8)
0x720|56 35 aa 7a                                    |V5.z            |
0x720|            00 00 00 00 56 e5 10 0a            |    ....V...    |      [104]: "2016-03-13T07:00:26Z" (1457852426) transition_time 0x724-0x72c (8)
0x720|                                    00 00 00 00|            ....|      [105]: "2016-11-06T06:00:26Z" (1478412026) transition_time 0x72c-0x734 (8)
0x730|58 1e c6 fa                                    |X...            |
0x730|            00 00 00 00 58 c4 f2 0b            |    ....X...    |      [106]: "2017-03-12T07:00:27Z" (1489302027) transition_time 0x734-0x73c (8)
0x730|                                    00 00 00 00|            ....|      [107]: "2017-11-05T06:00:27Z" (1509861627) transition_time 0x73c-0x744 (8)
0x740|59 fe a8 fb                                    |Y...            |
0x740|            00 00 00 00 5a a4 d4 0b            |    ....Z...    |      [108]: "2018-03-11T07:00:27Z" (1520751627) transition_time 0x744-0x74c (8)
0x740|                                    00 00 00 00|            ....|      [109]: "2018-11-04T06:00:27Z" (1541311227) transition_time 0x74c-0x754 (8)
0x750|5b de 8a fb                                    |[...            |
0x750|            00 00 00 00 5c 84 b6 0b            |    ....\...    |      [110]: "2019-03-10T07:00:27Z" (1552201227) transition_time 0x754-0x75c (8)
0x750|                                    00 00 00 00|            ....|      [111]: "2019-11-03T06:00:27Z" (1572760827) transition_time 0x75c-0x764 (8)
0x760|5d be 6c fb                                    |].l.            |
0x760|            00 00 00 00 5e 64 98 0b            |    ....^d..    |      [112]: "2020-03-08T07:00:27Z" (1583650827) transition_time 0x764-0x76c (8)
0x760|                                    00 00 00 00|            ....|      [113]: "2020-11-01T06:00:27Z" (1604210427) transition_time 0x76c-0x774 (8)
0x770|5f 9e 4e fb                                    |_.N.            |
0x770|            00 00 00 00 60 4d b4 8b            |    ....`M..    |      [114]: "2021-03-14T07:00:27Z" (1615705227) transition_time 0x774-0x77c (8)
0x770|                                    00 00 00 00|            ....|      [115]: "2021-11-07T06:00:27Z" (1636264827) transition_time 0x77c-0x784 (8)
0x780|61 87 6b 7b                                    |a.k{            |
0x780|            00 00 00 00 62 2d 96 8b            |    ....b-..    |      [116]: "2022-03-13T07:00:27Z" (1647154827) transition_time 0x784-0x78c (8)
0x780|                                    00 00 00 00|            ....|      [117]: "2022-11-06T06:00:27Z" (1667714427) transition_time 0x78c-0x794 (8)
0x790|63 67 4d 7b                                    |cgM{            |
0x790|            00 00 00 00 64 0d 78 8b            |    ....d.x.    |      [118]: "2023-03-12T07:00:27Z" (1678604427) transition_time 0x794-0x79c (8)
0x790|                                    00 00 00 00|            ....|      [119]: "2023-06-28T00:00:27Z" (1687910427) transition_time 0x79c-0x7a4 (8)
0x7a0|64 9b 78 1b                                    |d.x.            |
     |                                               |                |    transition_types[0:120]: 0x7a4-0x81c (120)
0x7a0|            05                                 |    .           |      [0]: 5 transition_type 0x7a4-0x7a5 (1)
0x7a0|               01                              |     .          |      [1]: 1 transition_type 0x7a5-0x7a6 (1)
0x7a0|                  02                           |      .         |      [2]: 2 transition_type 0x7a6-0x7a7 (1)
0x7a0|                     01                        |       .        |      [3]: 1 transition_type 0x7a7-0x7a8 (1)
0x7a0|                        02                     |        .       |      [4]: 2 transition_type 0x7a8-0x7a9 (1)
0x7a0|                           03                  |         .      |      [5]: 3 transition_type 0x7a9-0x7aa (1)
0x7a0|                              04               |          .     |      [6]: 4 transition_type 0x7aa-0x7ab (1)
0x7a0|                                 02            |           .    |      [7]: 2 transition_type 0x7ab-0x7ac (1)
0x7a0|                                    01         |            .   |      [8]: 1 transition_type 0x7ac-0x7ad (1)
0x7a0|                                       02      |             .  |      [9]: 2 transition_type 0x7ad-0x7ae (1)
0x7a0|                                          01   |              . |      [10]: 1 transition_type 0x7ae-0x7af (1)
0x7a0|                                             02|               .|      [11]: 2 transition_type 0x7af-0x7b0 (1)
0x7b0|01                                             |.               |      [12]: 1 transition_type 0x7b0-0x7b1 (1)
0x7b0|   02                                          | .              |      [13]: 2 transition_type 0x7b1-0x7b2 (1)
0x7b0|      01                                       |  .             |      [14]: 1 transition_type 0x7b2-0x7b3 (1)
0x7b0|         02                                    |   .            |      [15]: 2 transition_type 0x7b3-0x7b4 (1)
0x7b0|            01                                 |    .           |      [16]: 1 transition_type 0x7b4-0x7b5 (1)
0x7b0|               02                              |     .          |      [17]: 2 transition_type 0x7b5-0x7b6 (1)
0x7b0|                  01                           |      .         |      [18]: 1 transition_type 0x7b6-0x7b7 (1)
0x7b0|                     02                        |       .        |      [19]: 2 transition_type 0x7b7-0x7b8 (1)
0x7b0|                        01                     |        .       |      [20]: 1 transition_type 0x7b8-0x7b9 (1)
0x7b0|                           02                  |         .      |      [21]: 2 transition_type 0x7b9-0x7ba (1)
0x7b0|                              01               |          .     |      [22]: 1 transition_type 0x7ba-0x7bb (1)
0x7b0|                                 02            |           .    |      [23]: 2 transition_type 0x7bb-0x7bc (1)
0x7b0|                                    01         |            .   |      [24]: 1 transition_type 0x7bc-0x7bd (1)
0x7b0|                                       02      |             .  |      [25]: 2 transition_type 0x7bd-0x7be (1)
0x7b0|                                          01   |              . |      [26]: 1 transition_type 0x7be-0x7bf (1)
0x7b0|                                             02|               .|      [27]: 2 transition_type 0x7bf-0x7c0 (1)
0x7c0|01                                             |.               |      [28]: 1 transition_type 0x7c0-0x7c1 (1)
0x7c0|   02                                          | .              |      [29]: 2 transition_type 0x7c1-0x7c2 (1)
0x7c0|      01                                       |  .             |      [30]: 1 transition_type 0x7c2-0x7c3 (1)
0x7c0|         02                                    |   .            |      [31]: 2 transition_type 0x7c3-0x7c4 (1)
0x7c0|            01                                 |    .           |      [32]: 1 transition_type 0x7c4-0x7c5 (1)
0x7c0|               02                              |     .          |      [33]: 2 transition_type 0x7c5-0x7c6 (1)
0x7c0|                  01                           |      .         |      [34]: 1 transition_type 0x7c6-0x7c7 (1)
0x7c0|                     02                        |       .        |      [35]: 2 transition_type 0x7c7-0x7c8 (1)
0x7c0|                        01                     |        .       |      [36]: 1 transition_type 0x7c8-0x7c9 (1)
0x7c0|                           02                  |         .      |      [37]: 2 transition_type 0x7c9-0x7ca (1)
0x7c0|                              01               |          .     |      [38]: 1 transition_type 0x7ca-0x7cb (1)
0x7c0|                                 02            |           .    |      [39]: 2 transition_type 0x7cb-0x7cc (1)
0x7c0|                                    01         |            .   |      [40]: 1 transition_type 0x7cc-0x7cd (1)
0x7c0|                                       02      |             .  |      [41]: 2 transition_type 0x7cd-0x7ce (1)
0x7c0|                                          01   |              . |      [42]: 1 transition_type 0x7ce-0x7cf (1)
0x7c0|                                             02|               .|      [43]: 2 transition_type 0x7cf-0x7d0 (1)
0x7d0|01                                             |.               |      [44]: 1 transition_type 0x7d0-0x7d1 (1)
0x7d0|   02                                          | .              |      [45]: 2 transition_type 0x7d1-0x7d2 (1)
0x7d0|      01                                       |  .             |      [46]: 1 transition_type 0x7d2-0x7d3 (1)
0x7d0|         02                                    |   .            |      [47]: 2 transition_type 0x7d3-0x7d4 (1)
0x7d0|            01                                 |    .           |      [48]: 1 transition_type 0x7d4-0x7d5 (1)
0x7d0|               02                              |     .          |      [49]: 2 transition_type 0x7d5-0x7d6 (1)
0x7d0|                  01                           |      .         |      [50]: 1 transition_type 0x7d6-0x7d7 (1)
0x7d0|                     02                        |       .        |      [51]: 2 transition_type 0x7d7-0x7d8 (1)
0x7d0|                        01                     |        .       |      [52]: 1 transition_type 0x7d8-0x7d9 (1)
0x7d0|                           02                  |         .      |      [53]: 2 transition_type 0x7d9-0x7da (1)
0x7d0|                              01               |          .     |      [54]: 1 transition_type 0x7da-0x7db (1)
0x7d0|                                 02            |           .    |      [55]: 2 transition_type 0x7db-0x7dc (1)
0x7d0|                                    01         |            .   |      [56]: 1 transition_type 0x7dc-0x7dd (1)
0x7d0|                                       02      |             .  |      [57]: 2 transition_type 0x7dd-0x7de (1)
0x7d0|                                          01   |              . |      [58]: 1 transition_type 0x7de-0x7df (1)
0x7d0|                                             02|               .|      [59]: 2 transition_type 0x7df-0x7e0 (1)
0x7e0|01                                             |.               |      [60]: 1 transition_type 0x7e0-0x7e1 (1)
0x7e0|   02                                          | .              |      [61]: 2 transition_type 0x7e1-0x7e2 (1)
0x7e0|      01                                       |  .             |      [62]: 1 transition_type 0x7e2-0x7e3 (1)
0x7e0|         02                                    |   .            |      [63]: 2 transition_type 0x7e3-0x7e4 (1)
0x7e0|            01                                 |    .           |      [64]: 1 transition_type 0x7e4-0x7e5 (1)
0x7e0|               02                              |     .          |      [65]: 2 transition_type 0x7e5-0x7e6 (1)
0x7e0|                  01                           |      .         |      [66]: 1 transition_type 0x7e6-0x7e7 (1)
0x7e0|                     02                        |       .        |      [67]: 2 transition_type 0x7e7-0x7e8 (1)
0x7e0|                        01                     |        .       |      [68]: 1 transition_type 0x7e8-0x7e9 (1)
0x7e0|                           02                  |         .      |      [69]: 2 transition_type 0x7e9-0x7ea (1)
0x7e0|                              01               |          .     |      [70]: 1 transition_type 0x7ea-0x7eb (1)
0x7e0|                                 02            |           .    |      [71]: 2 transition_type 0x7eb-0x7ec (1)
0x7e0|                                    01         |            .   |      [72]: 1 transition_type 0x7ec-0x7ed (1)
0x7e0|                                       07      |             .  |      [73]: 7 transition_type 0x7ed-0x7ee (1)
0x7e0|                                          06   |              . |      [74]: 6 transition_type 0x7ee-0x7ef (1)
0x7e0|                                             07|               .|      [75]: 7 transition_type 0x7ef-0x7f0 (1)
0x7f0|06                                             |.               |      [76]: 6 transition_type 0x7f0-0x7f1 (1)
0x7f0|   07                                          | .              |      [77]: 7 transition_type 0x7f1-0x7f2 (1)
0x7f0|      06                                       |  .             |      [78]: 6 transition_type 0x7f2-0x7f3 (1)
0x7f0|         07                                    |   .            |      [79]: 7 transition_type 0x7f3-0x7f4 (1)
0x7f0|            06                                 |    .           |      [80]: 6 transition_type 0x7f4-0x7f5 (1)
0x7f0|               07                              |     .          |      [81]: 7 transition_type 0x7f5-0x7f6 (1)
0x7f0|                  06                           |      .         |      [82]: 6 transition_type 0x7f6-0x7f7 (1)
0x7f0|                     07                        |       .        |      [83]: 7 transition_type 0x7f7-0x7f8 (1)
0x7f0|                        06                     |        .       |      [84]: 6 transition_type 0x7f8-0x7f9 (1)
0x7f0|                           07                  |         .      |      [85]: 7 transition_type 0x7f9-0x7fa (1)
0x7f0|                              06               |          .     |      [86]: 6 transition_type 0x7fa-0x7fb (1)
0x7f0|                                 07            |           .    |      [87]: 7 transition_type 0x7fb-0x7fc (1)
0x7f0|                                    06         |            .   |      [88]: 6 transition_type 0x7fc-0x7fd (1)
0x7f0|                                       07      |             .  |      [89]: 7 transition_type 0x7fd-0x7fe (1)
0x7f0|                                          06   |              . |      [90]: 6 transition_type 0x7fe-0x7ff (1)
0x7f0|                                             07|               .|      [91]: 7 transition_type 0x7ff-0x800 (1)
0x800|06                                             |.               |      [92]: 6 transition_type 0x800-0x801 (1)
0x800|   07                                          | .              |      [93]: 7 transition_type 0x801-0x802 (1)
0x800|      06                                       |  .             |      [94]: 6 transition_type 0x802-0x803 (1)
0x800|         07                                    |   .            |      [95]: 7 transition_type 0x803-0x804 (1)
0x800|            06                                 |    .           |      [96]: 6 transition_type 0x804-0x805 (1)
0x800|               07                              |     .          |      [97]: 7 transition_type 0x805-0x806 (1)
0x800|                  06                           |      .         |      [98]: 6 transition_type 0x806-0x807 (1)
0x800|                     07                        |       .        |      [99]: 7 transition_type 0x807-0x808 (1)
0x800|                        06                     |        .       |      [100]: 6 transition_type 0x808-0x809 (1)
0x800|                           07                  |         .      |      [101]: 7 transition_type 0x809-0x80a (1)
0x800|                              06               |          .     |      [102]: 6 transition_type 0x80a-0x80b (1)
0x800|                                 07            |           .    |      [103]: 7 transition_type 0x80b-0x80c (1)
0x800|                                    06         |            .   |      [104]: 6 transition_type 0x80c-0x80d (1)
0x800|                                       07      |             .  |      [105]: 7 transition_type 0x80d-0x80e (1)
0x800|                                          06   |              . |      [106]: 6 transition_type 0x80e-0x80f (1)
0x800|                                             07|               .|      [107]: 7 transition_type 0x80f-0x810 (1)
0x810|06                                             |.               |      [108]: 6 transition_type 0x810-0x811 (1)
0x810|   07                                          | .              |      [109]: 7 transition_type 0x811-0x812 (1)
0x810|      06                                       |  .             |      [110]: 6 transition_type 0x812-0x813 (1)
0x810|         07                                    |   .            |      [111]: 7 transition_type 0x813-0x814 (1)
0x810|            06                                 |    .           |      [112]: 6 transition_type 0x814-0x815 (1)
0x810|               07                              |     .          |      [113]: 7 transition_type 0x815-0x816 (1)
0x810|                  06                           |      .         |      [114]: 6 transition_type 0x816-0x817 (1)
0x810|                     07                        |       .        |      [115]: 7 transition_type 0x817-0x818 (1)
0x810|                        06                     |        .       |      [116]: 6 transition_type 0x818-0x819 (1)
0x810|                           07                  |         .      |      [117]: 7 transition_type 0x819-0x81a (1)
0x810|                              06               |          .     |      [118]: 6 transition_type 0x81a-0x81b (1)
0x810|                                 06            |           .    |      [119]: 6 transition_type 0x81b-0x81c (1)
     |                                               |                |    local_time_type_records[0:8]: 0x81c-0x84c (48)
     |                                               |                |      [0]{}: local_time_type 0x81c-0x822 (6)
0x810|                                    ff ff b0 74|            ...t|        utoff: -20364 (valid) 0x81c-0x820 (4)
0x820|00                                             |.               |        dst: 0 (valid) 0x820-0x821 (1)
0x820|   00                                          | .              |        idx: 0 (valid) 0x821-0x822 (1)
     |                                               |                |      [1]{}: local_time_type 0x822-0x828 (6)
0x820|      ff ff b9 b0                              |  ....          |        utoff: -18000 (valid) 0x822-0x826 (4)
0x820|                  01                           |      .         |        dst: 1 (valid) 0x826-0x827 (1)
0x820|                     04                        |       .        |        idx: 4 (valid) 0x827-0x828 (1)
     |                                               |                |      [2]{}: local_time_type 0x828-0x82e (6)
0x820|                        ff ff ab a0            |        ....    |        utoff: -21600 (valid) 0x828-0x82c (4)
0x820|                                    00         |            .   |        dst: 0 (valid) 0x82c-0x82d (1)
0x820|                                       08      |             .  |        idx: 8 (valid) 0x82d-0x82e (1)
     |                                               |                |      [3]{}: local_time_type 0x82e-0x834 (6)
0x820|                                          ff ff|              ..|        utoff: -18000 (valid) 0x82e-0x832 (4)
0x830|b9 b0                                          |..              |
0x830|      01                                       |  .             |        dst: 1 (valid) 0x832-0x833 (1)
0x830|         0c                                    |   .            |        idx: 12 (valid) 0x833-0x834 (1)
     |                                               |                |      [4]{}: local_time_type 0x834-0x83a (6)
0x830|            ff ff b9 b0                        |    ....        |        utoff: -18000 (valid) 0x834-0x838 (4)
0x830|                        01                     |        .       |        dst: 1 (valid) 0x838-0x839 (1)
0x830|                           10                  |         .      |        idx: 16 (valid) 0x839-0x83a (1)
     |                                               |                |      [5]{}: local_time_type 0x83a-0x840 (6)
0x830|                              ff ff ab a0      |          ....  |        utoff: -21600 (valid) 0x83a-0x83e (4)
0x830|                                          00   |              . |        dst: 0 (valid) 0x83e-0x83f (1)
0x830|                                             08|               .|        idx: 8 (valid) 0x83f-0x840 (1)
     |                                               |                |      [6]{}: local_time_type 0x840-0x846 (6)
0x840|ff ff c7 c0                                    |....            |        utoff: -14400 (valid) 0x840-0x844 (4)
0x840|            01                                 |    .           |        dst: 1 (valid) 0x844-0x845 (1)
0x840|               14                              |     .          |        idx: 20 (valid) 0x845-0x846 (1)
     |                                               |                |      [7]{}: local_time_type 0x846-0x84c (6)
0x840|                  ff ff b9 b0                  |      ....      |        utoff: -18000 (valid) 0x846-0x84a (4)
0x840|                              00               |          .     |        dst: 0 (valid) 0x84a-0x84b (1)
0x840|                                 18            |           .    |        idx: 24 (valid) 0x84b-0x84c (1)
     |                                               |                |    time_zone_designations[0:7]: 0x84c-0x868 (28)
0x840|                                    4c 4d 54 00|            LMT.|      [0]: "LMT" time_zone_designation 0x84c-0x850 (4)
0x850|43 44 54 00                                    |CDT.            |      [1]: "CDT" time_zone_designation 0x850-0x854 (4)
0x850|            43 53 54 00                        |    CST.        |      [2]: "CST" time_zone_designation 0x854-0x858 (4)
0x850|                        43 57 54 00            |        CWT.    |      [3]: "CWT" time_zone_designation 0x858-0x85c (4)
0x850|                                    43 50 54 00|            CPT.|      [4]: "CPT" time_zone_designation 0x85c-0x860 (4)
0x860|45 44 54 00                                    |EDT.            |      [5]: "EDT" time_zone_designation 0x860-0x864 (4)
0x860|            45 53 54 00                        |    EST.        |      [6]: "EST" time_zone_designation 0x864-0x868 (4)
     |                                               |                |    leap_second_records[0:27]: 0x868-0x9ac (324)
     |                                               |                |      [0]{}: leap_second_record 0x868-0x874 (12)
0x860|                        00 00 00 00 04 b2 58 00|        ......X.|        occur: "1972-07-01T00:00:00Z" (78796800) 0x868-0x870 (8)
0x870|00 00 00 01                                    |....            |        corr: 1 0x870-0x874 (4)
     |                                               |                |      [1]{}: leap_second_record 0x874-0x880 (12)
0x870|            00 00 00 00 05 a4 ec 01            |    ........    |        occur: "1973-01-01T00:00:01Z" (94694401) 0x874-0x87c (8)
0x870|                                    00 00 00 02|            ....|        corr: 2 0x87c-0x880 (4)
     |                                               |                |      [2]{}: leap_second_record 0x880-0x88c (12)
0x880|00 00 00 00 07 86 1f 82                        |........        |        occur: "1974-01-01T00:00:02Z" (126230402) 0x880-0x888 (8)
0x880|                        00 00 00 03            |        ....    |        corr: 3 0x888-0x88c (4)
     |                                               |                |      [3]{}: leap_second_record 0x88c-0x898 (12)
0x880|                                    00 00 00 00|            ....|        occur: "1975-01-01T00:00:03Z" (157766403) 0x88c-0x894 (8)
0x890|09 67 53 03                                    |.gS.            |
0x890|            00 00 00 04                        |    ....        |        corr: 4 0x894-0x898 (4)
     |                                               |                |      [4]{}: leap_second_record 0x898-0x8a4 (12)
0x890|                        00 00 00 00 0b 48 86 84|        .....H..|        occur: "1976-01-01T00:00:04Z" (189302404) 0x898-0x8a0 (8)
0x8a0|00 00 00 05                                    |....            |        corr: 5 0x8a0-0x8a4 (4)
     |                                               |                |      [5]{}: leap_second_record 0x8a4-0x8b0 (12)
0x8a0|            00 00 00 00 0d 2b 0b 85            |    .....+..    |        occur: "1977-01-01T00:00:05Z" (220924805) 0x8a4-0x8ac (8)
0x8a0|                                    00 00 00 06|            ....|        corr: 6 0x8ac-0x8b0 (4)
     |                                               |                |      [6]{}: leap_second_record 0x8b0-0x8bc (12)
0x8b0|00 00 00 00 0f 0c 3f 06                        |......?.        |        occur: "1978-01-01T00:00:06Z" (252460806) 0x8b0-0x8b8 (8)
0x8b0|                        00 00 00 07            |        ....    |        corr: 7 0x8b8-0x8bc (4)
     |                                               |                |      [7]{}: leap_second_record 0x8bc-0x8c8 (12)
0x8b0|                                    00 00 00 00|            ....|        occur: "1979-01-01T00:00:07Z" (283996807) 0x8bc-0x8c4 (8)
0x8c0|10 ed 72 87                                    |..r.            |
0x8c0|            00 00 00 08                        |    ....        |        corr: 8 0x8c4-0x8c8 (4)
     |                                               |                |      [8]{}: leap_second_record 0x8c8-0x8d4 (12)
0x8c0|                        00 00 00 00 12 ce a6 08|        ........|        occur: "1980-01-01T00:00:08Z" (315532808) 0x8c8-0x8d0 (8)
0x8d0|00 00 00 09                                    |....            |        corr: 9 0x8d0-0x8d4 (4)
     |                                               |                |      [9]{}: leap_second_record 0x8d4-0x8e0 (12)
0x8d0|            00 00 00 00 15 9f ca 89            |    ........    |        occur: "1981-07-01T00:00:09Z" (362793609) 0x8d4-0x8dc (8)
0x8d0|                                    00 00 00 0a|            ....|        corr: 10 0x8dc-0x8e0 (4)
     |                                               |                |      [10]{}: leap_second_record 0x8e0-0x8ec (12)
0x8e0|00 00 00 00 17 80 fe 0a                        |........        |        occur: "1982-07-01T00:00:10Z" (394329610) 0x8e0-0x8e8 (8)
0x8e0|                        00 00 00 0b            |        ....    |        corr: 11 0x8e8-0x8ec (4)
     |                                               |                |      [11]{}: leap_second_record 0x8ec-0x8f8 (12)
0x8e0|                                    00 00 00 00|            ....|        occur: "1983-07-01T00:00:11Z" (425865611) 0x8ec-0x8f4 (8)
0x8f0|19 62 31 8b                                    |.b1.            |
0x8f0|            00 00 00 0c                        |    ....        |        corr: 12 0x8f4-0x8f8 (4)
     |                                               |                |      [12]{}: leap_second_record 0x8f8-0x904 (12)
0x8f0|                        00 00 00 00 1d 25 ea 0c|        .....%..|        occur: "1985-07-01T00:00:12Z" (489024012) 0x8f8-0x900 (8)
0x900|00 00 00 0d                                    |....            |        corr: 13 0x900-0x904 (4)
     |                                               |                |      [13]{}: leap_second_record 0x904-0x910 (12)
0x900|            00 00 00 00 21 da e5 0d            |    ....!...    |        occur: "1988-01-01T00:00:13Z" (567993613) 0x904-0x90c (8)
0x900|                                    00 00 00 0e|            ....|        corr: 14 0x90c-0x910 (4)
     |                                               |                |      [14]{}: leap_second_record 0x910-0x91c (12)
0x910|00 00 00 00 25 9e 9d 8e                        |....%...        |        occur: "1990-01-01T00:00:14Z" (631152014) 0x910-0x918 (8)
0x910|                        00 00 00 0f            |        ....    |        corr: 15 0x918-0x91c (4)
     |                                               |                |      [15]{}: leap_second_record 0x91c-0x928 (12)
0x910|                                    00 00 00 00|            ....|        occur: "1991-01-01T00:00:15Z" (662688015) 0x91c-0x924 (8)
0x920|27 7f d1 0f                                    |'...            |
0x920|            00 00 00 10                        |    ....        |        corr: 16 0x924-0x928 (4)
     |                                               |                |      [16]{}: leap_second_record 0x928-0x934 (12)
0x920|                        00 00 00 00 2a 50 f5 90|        ....*P..|        occur: "1992-07-01T00:00:16Z" (709948816) 0x928-0x930 (8)
0x930|00 00 00 11                                    |....            |        corr: 17 0x930-0x934 (4)
     |                                               |                |      [17]{}: leap_second_record 0x934-0x940 (12)
0x930|            00 00 00 00 2c 32 29 11            |    ....,2).    |        occur: "1993-07-01T00:00:17Z" (741484817) 0x934-0x93c (8)
0x930|                                    00 00 00 12|            ....|        corr: 18 0x93c-0x940 (4)
     |                                               |                |      [18]{}: leap_second_record 0x940-0x94c (12)
0x940|00 00 00 00 2e 13 5c 92                        |......\.        |        occur: "1994-07-01T00:00:18Z" (773020818) 0x940-0x948 (8)
0x940|                        00 00 00 13            |        ....    |        corr: 19 0x948-0x94c (4)
     |                                               |                |      [19]{}: leap_second_record 0x94c-0x958 (12)
0x940|                                    00 00 00 00|            ....|        occur: "1996-01-01T00:00:19Z" (820454419) 0x94c-0x954 (8)
0x950|30 e7 24 13                                    |0.$.            |
0x950|            00 00 00 14                        |    ....        |        corr: 20 0x954-0x958 (4)
     |                                               |                |      [20]{}: leap_second_record 0x958-0x964 (12)
0x950|                        00 00 00 00 33 b8 48 94|        ....3.H.|        occur: "1997-07-01T00:00:20Z" (867715220) 0x958-0x960 (8)
0x960|00 00 00 15                                    |....            |        corr: 21 0x960-0x964 (4)
     |                                               |                |      [21]{}: leap_second_record 0x964-0x970 (12)
0x960|            00 00 00 00 36 8c 10 15            |    ....6...    |        occur: "1999-01-01T00:00:21Z" (915148821) 0x964-0x96c (8)
0x960|                                    00 00 00 16|            ....|        corr: 22 0x96c-0x970 (4)
     |                                               |                |      [22]{}: leap_second_record 0x970-0x97c (12)
0x970|00 00 00 00 43 b7 1b 96                        |....C...        |        occur: "2006-01-01T00:00:22Z" (1136073622) 0x970-0x978 (8)
0x970|                        00 00 00 17            |        ....    |        corr: 23 0x978-0x97c (4)
     |                                               |                |      [23]{}: leap_second_record 0x97c-0x988 (12)
0x970|                                    00 00 00 00|            ....|        occur: "2009-01-01T00:00:23Z" (1230768023) 0x97c-0x984 (8)
0x980|49 5c 07 97                                    |I\..            |
0x980|            00 00 00 18                        |    ....        |        corr: 24 0x984-0x988 (4)
     |                                               |                |      [24]{}: leap_second_record 0x988-0x994 (12)
0x980|                        00 00 00 00 4f ef 93 18|        ....O...|        occur: "2012-07-01T00:00:24Z" (1341100824) 0x988-0x990 (8)
0x990|00 00 00 19                                    |....            |        corr: 25 0x990-0x994 (4)
     |                                               |                |      [25]{}: leap_second_record 0x994-0x9a0 (12)
0x990|            00 00 00 00 55 93 2d 99            |    ....U.-.    |        occur: "2015-07-01T00:00:25Z" (1435708825) 0x994-0x99c (8)
0x990|                                    00 00 00 1a|            ....|        corr: 26 0x99c-0x9a0 (4)
     |                                               |                |      [26]{}: leap_second_record 0x9a0-0x9ac (12)
0x9a0|00 00 00 00 58 68 46 9a                        |....XhF.        |        occur: "2017-01-01T00:00:26Z" (1483228826) 0x9a0-0x9a8 (8)
0x9a0|                        00 00 00 1b            |        ....    |        corr: 27 0x9a8-0x9ac (4)
     |                                               |                |    standard_wall_indicators[0:8]: 0x9ac-0x9b4 (8)
0x9a0|                                    00         |            .   |      [0]: 0 standard_wall_indicator (valid) 0x9ac-0x9ad (1)
0x9a0|                                       00      |             .  |      [1]: 0 standard_wall_indicator (valid) 0x9ad-0x9ae (1)
0x9a0|                                          00   |              . |      [2]: 0 standard_wall_indicator (valid) 0x9ae-0x9af (1)
0x9a0|                                             00|               .|      [3]: 0 standard_wall_indicator (valid) 0x9af-0x9b0 (1)
0x9b0|01                                             |.               |      [4]: 1 standard_wall_indicator (valid) 0x9b0-0x9b1 (1)
0x9b0|   01                                          | .              |      [5]: 1 standard_wall_indicator (valid) 0x9b1-0x9b2 (1)
0x9b0|      00                                       |  .             |      [6]: 0 standard_wall_indicator (valid) 0x9b2-0x9b3 (1)
0x9b0|         00                                    |   .            |      [7]: 0 standard_wall_indicator (valid) 0x9b3-0x9b4 (1)
     |                                               |                |    ut_local_indicators[0:8]: 0x9b4-0x9bc (8)
0x9b0|            00                                 |    .           |      [0]: 0 ut_local_indicator (valid) 0x9b4-0x9b5 (1)
0x9b0|               00                              |     .          |      [1]: 0 ut_local_indicator (valid) 0x9b5-0x9b6 (1)
0x9b0|                  00                           |      .         |      [2]: 0 ut_local_indicator (valid) 0x9b6-0x9b7 (1)
0x9b0|                     00                        |       .        |      [3]: 0 ut_local_indicator (valid) 0x9b7-0x9b8 (1)
0x9b0|                        01                     |        .       |      [4]: 1 ut_local_indicator (valid) 0x9b8-0x9b9 (1)
0x9b0|                           01                  |         .      |      [5]: 1 ut_local_indicator (valid) 0x9b9-0x9ba (1)
0x9b0|                              00               |          .     |      [6]: 0 ut_local_indicator (valid) 0x9ba-0x9bb (1)
0x9b0|                                 00            |           .    |      [7]: 0 ut_local_indicator (valid) 0x9bb-0x9bc (1)
     |                                               |                |  footer{}: 0x9bc-0x9be (2)
0x9b0|                                    0a         |            .   |    nl1: 10 (valid) 0x9bc-0x9bd (1)
     |                                               |                |    tz_string: "" 0x9bd-0x9bd (0)
0x9b0|                                       0a|     |             .| |    nl2: 10 (valid) 0x9bd-0x9be (1)
