$ fq -d tzif dv Montevideo
     |00 01 02 03 04 05 06 07 08 09 0a 0b 0c 0d 0e 0f|0123456789abcdef|.{}: Montevideo (tzif) 0x0-0x7fb.7 (2044)
     |                                               |                |  v1header{}: 0x0-0x2b.7 (44)
0x000|54 5a 69 66                                    |TZif            |    magic: 0x545a6966 (valid) 0x0-0x3.7 (4)
0x000|            32                                 |    2           |    ver: "2" (0x32) (valid) 0x4-0x4.7 (1)
0x000|               00 00 00 00 00 00 00 00 00 00 00|     ...........|    reserved: raw bits 0x5-0x13.7 (15)
0x010|00 00 00 00                                    |....            |
0x010|            00 00 00 00                        |    ....        |    isutcnt: 0 0x14-0x17.7 (4)
0x010|                        00 00 00 00            |        ....    |    isstdcnt: 0 0x18-0x1b.7 (4)
0x010|                                    00 00 00 1b|            ....|    leapcnt: 27 0x1c-0x1f.7 (4)
0x020|00 00 00 57                                    |...W            |    timecnt: 87 0x20-0x23.7 (4)
0x020|            00 00 00 0a                        |    ....        |    typecnt: 10 0x24-0x27.7 (4)
0x020|                        00 00 00 26            |        ...&    |    charcnt: 38 0x28-0x2b.7 (4)
     |                                               |                |  v1datablock{}: 0x2c-0x318.7 (749)
     |                                               |                |    transition_times[0:87]: 0x2c-0x187.7 (348)
0x020|                                    8c 34 e5 33|            .4.3|      [0]: "1908-06-10T03:44:51Z" (-1942690509) transition_time 0x2c-0x2f.7 (4)
0x030|a2 92 87 b3                                    |....            |      [1]: "1920-05-01T03:44:51Z" (-1567455309) transition_time 0x30-0x33.7 (4)
0x030|            a8 ff db 40                        |    ...@        |      [2]: "1923-10-01T04:00:00Z" (-1459627200) transition_time 0x34-0x37.7 (4)
0x030|                        a9 f1 0f b0            |        ....    |      [3]: "1924-04-01T03:00:00Z" (-1443819600) transition_time 0x38-0x3b.7 (4)
0x030|                                    aa e2 59 38|            ..Y8|      [4]: "1924-10-01T03:30:00Z" (-1428006600) transition_time 0x3c-0x3f.7 (4)
0x040|ab d2 43 30                                    |..C0            |      [5]: "1925-04-01T03:00:00Z" (-1412283600) transition_time 0x40-0x43.7 (4)
0x040|            ac c3 8c b8                        |    ....        |      [6]: "1925-10-01T03:30:00Z" (-1396470600) transition_time 0x44-0x47.7 (4)
0x040|                        ad b3 76 b0            |        ..v.    |      [7]: "1926-04-01T03:00:00Z" (-1380747600) transition_time 0x48-0x4b.7 (4)
0x040|                                    bb f4 b5 b8|            ....|      [8]: "1933-10-29T03:30:00Z" (-1141590600) transition_time 0x4c-0x4f.7 (4)
0x050|bc bf b5 b0                                    |....            |      [9]: "1934-04-01T03:00:00Z" (-1128286800) transition_time 0x50-0x53.7 (4)
0x050|            bd d4 97 b8                        |    ....        |      [10]: "1934-10-28T03:30:00Z" (-1110141000) transition_time 0x54-0x57.7 (4)
0x050|                        be 9f 97 b0            |        ....    |      [11]: "1935-03-31T03:00:00Z" (-1096837200) transition_time 0x58-0x5b.7 (4)
0x050|                                    bf b4 79 b8|            ..y.|      [12]: "1935-10-27T03:30:00Z" (-1078691400) transition_time 0x5c-0x5f.7 (4)
0x060|c0 7f 79 b0                                    |..y.            |      [13]: "1936-03-29T03:00:00Z" (-1065387600) transition_time 0x60-0x63.7 (4)
0x060|            c1 94 5b b8                        |    ..[.        |      [14]: "1936-10-25T03:30:00Z" (-1047241800) transition_time 0x64-0x67.7 (4)
0x060|                        c2 5f 5b b0            |        ._[.    |      [15]: "1937-03-28T03:00:00Z" (-1033938000) transition_time 0x68-0x6b.7 (4)
0x060|                                    c3 7d 78 38|            .}x8|      [16]: "1937-10-31T03:30:00Z" (-1015187400) transition_time 0x6c-0x6f.7 (4)
0x070|c4 3f 3d b0                                    |.?=.            |      [17]: "1938-03-27T03:00:00Z" (-1002488400) transition_time 0x70-0x73.7 (4)
0x070|            c5 5d 5a 38                        |    .]Z8        |      [18]: "1938-10-30T03:30:00Z" (-983737800) transition_time 0x74-0x77.7 (4)
0x070|                        c6 1f 1f b0            |        ....    |      [19]: "1939-03-26T03:00:00Z" (-971038800) transition_time 0x78-0x7b.7 (4)
0x070|                                    c7 18 52 38|            ..R8|      [20]: "1939-10-01T03:30:00Z" (-954707400) transition_time 0x7c-0x7f.7 (4)
0x080|c8 08 3c 30                                    |..<0            |      [21]: "1940-03-31T03:00:00Z" (-938984400) transition_time 0x80-0x83.7 (4)
0x080|            c9 1d 1e 38                        |    ...8        |      [22]: "1940-10-27T03:30:00Z" (-920838600) transition_time 0x84-0x87.7 (4)
0x080|                        c9 e8 1e 30            |        ...0    |      [23]: "1941-03-30T03:00:00Z" (-907534800) transition_time 0x88-0x8b.7 (4)
0x080|                                    ca 8b 9f 38|            ...8|      [24]: "1941-08-01T03:30:00Z" (-896819400) transition_time 0x8c-0x8f.7 (4)
0x090|cd 1e c6 30                                    |...0            |      [25]: "1942-12-14T03:00:00Z" (-853621200) transition_time 0x90-0x93.7 (4)
0x090|            cd 95 66 28                        |    ..f(        |      [26]: "1943-03-14T02:30:00Z" (-845847000) transition_time 0x94-0x97.7 (4)
0x090|                        ec 0b 85 b0            |        ....    |      [27]: "1959-05-24T03:00:00Z" (-334789200) transition_time 0x98-0x9b.7 (4)
0x090|                                    ec f2 35 28|            ..5(|      [28]: "1959-11-15T02:30:00Z" (-319671000) transition_time 0x9c-0x9f.7 (4)
0x0a0|ed 45 4a b0                                    |.EJ.            |      [29]: "1960-01-17T03:00:00Z" (-314226000) transition_time 0xa0-0xa3.7 (4)
0x0a0|            ed 85 d6 20                        |    ...         |      [30]: "1960-03-06T02:00:00Z" (-309996000) transition_time 0xa4-0xa7.7 (4)
0x0a0|                        f7 13 72 b0            |        ..r.    |      [31]: "1965-04-04T03:00:00Z" (-149720400) transition_time 0xa8-0xab.7 (4)
0x0a0|                                    f7 fa 1b 20|            ... |      [32]: "1965-09-26T02:00:00Z" (-134604000) transition_time 0xac-0xaf.7 (4)
0x0b0|fc fe 3e 30                                    |..>0            |      [33]: "1968-05-27T03:00:00Z" (-50446800) transition_time 0xb0-0xb3.7 (4)
0x0b0|            fd f6 11 28                        |    ...(        |      [34]: "1968-12-01T02:30:00Z" (-34205400) transition_time 0xb4-0xb7.7 (4)
0x0b0|                        00 96 75 30            |        ..u0    |      [35]: "1970-04-25T03:00:00Z" (9860400) transition_time 0xb8-0xbb.7 (4)
0x0b0|                                    00 d8 52 20|            ..R |      [36]: "1970-06-14T02:00:00Z" (14176800) transition_time 0xbc-0xbf.7 (4)
0x0c0|04 57 8a b0                                    |.W..            |      [37]: "1972-04-23T03:00:00Z" (72846000) transition_time 0xc0-0xc3.7 (4)
0x0c0|            04 c6 3a a1                        |    ..:.        |      [38]: "1972-07-16T02:00:01Z" (80100001) transition_time 0xc4-0xc7.7 (4)
0x0c0|                        07 96 1b b3            |        ....    |      [39]: "1974-01-13T03:00:03Z" (127278003) transition_time 0xc8-0xcb.7 (4)
0x0c0|                                    07 df da 9b|            ....|      [40]: "1974-03-10T01:30:03Z" (132111003) transition_time 0xcc-0xcf.7 (4)
0x0d0|08 c6 9f 2b                                    |...+            |      [41]: "1974-09-01T02:30:03Z" (147234603) transition_time 0xd0-0xd3.7 (4)
0x0d0|            09 5a 4e 33                        |    .ZN3        |      [42]: "1974-12-22T03:00:03Z" (156913203) transition_time 0xd4-0xd7.7 (4)
0x0d0|                        09 db 73 24            |        ..s$    |      [43]: "1975-03-30T02:00:04Z" (165376804) transition_time 0xd8-0xdb.7 (4)
0x0d0|                                    0d 1a 12 35|            ...5|      [44]: "1976-12-19T03:00:05Z" (219812405) transition_time 0xdc-0xdf.7 (4)
0x0e0|0d 7f 87 a6                                    |....            |      [45]: "1977-03-06T02:00:06Z" (226461606) transition_time 0xe0-0xe3.7 (4)
0x0e0|            0e e7 7f 36                        |    ...6        |      [46]: "1977-12-04T03:00:06Z" (250052406) transition_time 0xe4-0xe7.7 (4)
0x0e0|                        0f 5f 69 a7            |        ._i.    |      [47]: "1978-03-05T02:00:07Z" (257911207) transition_time 0xe8-0xeb.7 (4)
0x0e0|                                    10 d9 d6 37|            ...7|      [48]: "1978-12-17T03:00:07Z" (282711607) transition_time 0xec-0xef.7 (4)
0x0f0|11 3f 4b a8                                    |.?K.            |      [49]: "1979-03-04T02:00:08Z" (289360808) transition_time 0xf0-0xf3.7 (4)
0x0f0|            11 89 2d b8                        |    ..-.        |      [50]: "1979-04-29T03:00:08Z" (294202808) transition_time 0xf4-0xf7.7 (4)
0x0f0|                        13 31 a2 a9            |        .1..    |      [51]: "1980-03-16T02:00:09Z" (322020009) transition_time 0xf8-0xfb.7 (4)
0x0f0|                                    21 c3 54 3d|            !.T=|      [52]: "1987-12-14T03:00:13Z" (566449213) transition_time 0xfc-0xff.7 (4)
0x100|22 27 78 2e                                    |"'x.            |      [53]: "1988-02-28T02:00:14Z" (573012014) transition_time 0x100-0x103.7 (4)
0x100|            23 a1 e4 be                        |    #...        |      [54]: "1988-12-11T03:00:14Z" (597812414) transition_time 0x104-0x107.7 (4)
0x100|                        24 10 94 ae            |        $...    |      [55]: "1989-03-05T02:00:14Z" (605066414) transition_time 0x108-0x10b.7 (4)
0x100|                                    25 4a 67 be|            %Jg.|      [56]: "1989-10-29T03:00:14Z" (625633214) transition_time 0x10c-0x10f.7 (4)
0x110|25 e7 3c 2f                                    |%.</            |      [57]: "1990-02-25T02:00:15Z" (635911215) transition_time 0x110-0x113.7 (4)
0x110|            27 21 0f 3f                        |    '!.?        |      [58]: "1990-10-21T03:00:15Z" (656478015) transition_time 0x114-0x117.7 (4)
0x110|                        27 d0 58 b0            |        '.X.    |      [59]: "1991-03-03T02:00:16Z" (667965616) transition_time 0x118-0x11b.7 (4)
0x110|                                    29 0a 2b c0|            ).+.|      [60]: "1991-10-27T03:00:16Z" (688532416) transition_time 0x11c-0x11f.7 (4)
0x120|29 b0 3a b0                                    |).:.            |      [61]: "1992-03-01T02:00:16Z" (699415216) transition_time 0x120-0x123.7 (4)
0x120|            2a e0 d3 41                        |    *..A        |      [62]: "1992-10-18T03:00:17Z" (719377217) transition_time 0x124-0x127.7 (4)
0x120|                        2b 90 1c b1            |        +...    |      [63]: "1993-02-28T02:00:17Z" (730864817) transition_time 0x128-0x12b.7 (4)
0x120|                                    41 4c f6 46|            AL.F|      [64]: "2004-09-19T03:00:22Z" (1095562822) transition_time 0x12c-0x12f.7 (4)
0x130|42 46 2f d6                                    |BF/.            |      [65]: "2005-03-27T04:00:22Z" (1111896022) transition_time 0x130-0x133.7 (4)
0x130|            43 48 a3 e6                        |    CH..        |      [66]: "2005-10-09T05:00:22Z" (1128834022) transition_time 0x134-0x137.7 (4)
0x130|                        44 13 9c d7            |        D...    |      [67]: "2006-03-12T04:00:23Z" (1142136023) transition_time 0x138-0x13b.7 (4)
0x130|                                    45 1f 4b 67|            E.Kg|      [68]: "2006-10-01T05:00:23Z" (1159678823) transition_time 0x13c-0x13f.7 (4)
0x140|45 f3 7e d7                                    |E.~.            |      [69]: "2007-03-11T04:00:23Z" (1173585623) transition_time 0x140-0x143.7 (4)
0x140|            47 08 67 e7                        |    G.g.        |      [70]: "2007-10-07T05:00:23Z" (1191733223) transition_time 0x144-0x147.7 (4)
0x140|                        47 d3 60 d7            |        G.`.    |      [71]: "2008-03-09T04:00:23Z" (1205035223) transition_time 0x148-0x14b.7 (4)
0x140|                                    48 e8 49 e7|            H.I.|      [72]: "2008-10-05T05:00:23Z" (1223182823) transition_time 0x14c-0x14f.7 (4)
0x150|49 b3 42 d8                                    |I.B.            |      [73]: "2009-03-08T04:00:24Z" (1236484824) transition_time 0x150-0x153.7 (4)
0x150|            4a c8 2b e8                        |    J.+.        |      [74]: "2009-10-04T05:00:24Z" (1254632424) transition_time 0x154-0x157.7 (4)
0x150|                        4b 9c 5f 58            |        K._X    |      [75]: "2010-03-14T04:00:24Z" (1268539224) transition_time 0x158-0x15b.7 (4)
0x150|                                    4c a8 0d e8|            L...|      [76]: "2010-10-03T05:00:24Z" (1286082024) transition_time 0x15c-0x15f.7 (4)
0x160|4d 7c 41 58                                    |M|AX            |      [77]: "2011-03-13T04:00:24Z" (1299988824) transition_time 0x160-0x163.7 (4)
0x160|            4e 87 ef e8                        |    N...        |      [78]: "2011-10-02T05:00:24Z" (1317531624) transition_time 0x164-0x167.7 (4)
0x160|                        4f 5c 23 58            |        O\#X    |      [79]: "2012-03-11T04:00:24Z" (1331438424) transition_time 0x168-0x16b.7 (4)
0x160|                                    50 71 0c 69|            Pq.i|      [80]: "2012-10-07T05:00:25Z" (1349586025) transition_time 0x16c-0x16f.7 (4)
0x170|51 3c 05 59                                    |Q<.Y            |      [81]: "2013-03-10T04:00:25Z" (1362888025) transition_time 0x170-0x173.7 (4)
0x170|            52 50 ee 69                        |    RP.i        |      [82]: "2013-10-06T05:00:25Z" (1381035625) transition_time 0x174-0x177.7 (4)
0x170|                        53 1b e7 59            |        S..Y    |      [83]: "2014-03-09T04:00:25Z" (1394337625) transition_time 0x178-0x17b.7 (4)
0x170|                                    54 30 d0 69|            T0.i|      [84]: "2014-10-05T05:00:25Z" (1412485225) transition_time 0x17c-0x17f.7 (4)
0x180|54 fb c9 59                                    |T..Y            |      [85]: "2015-03-08T04:00:25Z" (1425787225) transition_time 0x180-0x183.7 (4)
0x180|            64 9b 78 1b                        |    d.x.        |      [86]: "2023-06-28T00:00:27Z" (1687910427) transition_time 0x184-0x187.7 (4)
     |                                               |                |    transition_types[0:87]: 0x188-0x1de.7 (87)
0x180|                        01                     |        .       |      [0]: 1 transition_type 0x188-0x188.7 (1)
0x180|                           02                  |         .      |      [1]: 2 transition_type 0x189-0x189.7 (1)
0x180|                              04               |          .     |      [2]: 4 transition_type 0x18a-0x18a.7 (1)
0x180|                                 03            |           .    |      [3]: 3 transition_type 0x18b-0x18b.7 (1)
0x180|                                    04         |            .   |      [4]: 4 transition_type 0x18c-0x18c.7 (1)
0x180|                                       03      |             .  |      [5]: 3 transition_type 0x18d-0x18d.7 (1)
0x180|                                          04   |              . |      [6]: 4 transition_type 0x18e-0x18e.7 (1)
0x180|                                             03|               .|      [7]: 3 transition_type 0x18f-0x18f.7 (1)
0x190|04                                             |.               |      [8]: 4 transition_type 0x190-0x190.7 (1)
0x190|   03                                          | .              |      [9]: 3 transition_type 0x191-0x191.7 (1)
0x190|      04                                       |  .             |      [10]: 4 transition_type 0x192-0x192.7 (1)
0x190|         03                                    |   .            |      [11]: 3 transition_type 0x193-0x193.7 (1)
0x190|            04                                 |    .           |      [12]: 4 transition_type 0x194-0x194.7 (1)
0x190|               03                              |     .          |      [13]: 3 transition_type 0x195-0x195.7 (1)
0x190|                  04                           |      .         |      [14]: 4 transition_type 0x196-0x196.7 (1)
0x190|                     03                        |       .        |      [15]: 3 transition_type 0x197-0x197.7 (1)
0x190|                        04                     |        .       |      [16]: 4 transition_type 0x198-0x198.7 (1)
0x190|                           03                  |         .      |      [17]: 3 transition_type 0x199-0x199.7 (1)
0x190|                              04               |          .     |      [18]: 4 transition_type 0x19a-0x19a.7 (1)
0x190|                                 03            |           .    |      [19]: 3 transition_type 0x19b-0x19b.7 (1)
0x190|                                    04         |            .   |      [20]: 4 transition_type 0x19c-0x19c.7 (1)
0x190|                                       03      |             .  |      [21]: 3 transition_type 0x19d-0x19d.7 (1)
0x190|                                          04   |              . |      [22]: 4 transition_type 0x19e-0x19e.7 (1)
0x190|                                             03|               .|      [23]: 3 transition_type 0x19f-0x19f.7 (1)
0x1a0|04                                             |.               |      [24]: 4 transition_type 0x1a0-0x1a0.7 (1)
0x1a0|   06                                          | .              |      [25]: 6 transition_type 0x1a1-0x1a1.7 (1)
0x1a0|      05                                       |  .             |      [26]: 5 transition_type 0x1a2-0x1a2.7 (1)
0x1a0|         06                                    |   .            |      [27]: 6 transition_type 0x1a3-0x1a3.7 (1)
0x1a0|            05                                 |    .           |      [28]: 5 transition_type 0x1a4-0x1a4.7 (1)
0x1a0|               07                              |     .          |      [29]: 7 transition_type 0x1a5-0x1a5.7 (1)
0x1a0|                  05                           |      .         |      [30]: 5 transition_type 0x1a6-0x1a6.7 (1)
0x1a0|                     07                        |       .        |      [31]: 7 transition_type 0x1a7-0x1a7.7 (1)
0x1a0|                        05                     |        .       |      [32]: 5 transition_type 0x1a8-0x1a8.7 (1)
0x1a0|                           06                  |         .      |      [33]: 6 transition_type 0x1a9-0x1a9.7 (1)
0x1a0|                              05               |          .     |      [34]: 5 transition_type 0x1aa-0x1aa.7 (1)
0x1a0|                                 07            |           .    |      [35]: 7 transition_type 0x1ab-0x1ab.7 (1)
0x1a0|                                    05         |            .   |      [36]: 5 transition_type 0x1ac-0x1ac.7 (1)
0x1a0|                                       07      |             .  |      [37]: 7 transition_type 0x1ad-0x1ad.7 (1)
0x1a0|                                          05   |              . |      [38]: 5 transition_type 0x1ae-0x1ae.7 (1)
0x1a0|                                             08|               .|      [39]: 8 transition_type 0x1af-0x1af.7 (1)
0x1b0|06                                             |.               |      [40]: 6 transition_type 0x1b0-0x1b0.7 (1)
0x1b0|   05                                          | .              |      [41]: 5 transition_type 0x1b1-0x1b1.7 (1)
0x1b0|      07                                       |  .             |      [42]: 7 transition_type 0x1b2-0x1b2.7 (1)
0x1b0|         05                                    |   .            |      [43]: 5 transition_type 0x1b3-0x1b3.7 (1)
0x1b0|            07                                 |    .           |      [44]: 7 transition_type 0x1b4-0x1b4.7 (1)
0x1b0|               05                              |     .          |      [45]: 5 transition_type 0x1b5-0x1b5.7 (1)
0x1b0|                  07                           |      .         |      [46]: 7 transition_type 0x1b6-0x1b6.7 (1)
0x1b0|                     05                        |       .        |      [47]: 5 transition_type 0x1b7-0x1b7.7 (1)
0x1b0|                        07                     |        .       |      [48]: 7 transition_type 0x1b8-0x1b8.7 (1)
0x1b0|                           05                  |         .      |      [49]: 5 transition_type 0x1b9-0x1b9.7 (1)
0x1b0|                              07               |          .     |      [50]: 7 transition_type 0x1ba-0x1ba.7 (1)
0x1b0|                                 05            |           .    |      [51]: 5 transition_type 0x1bb-0x1bb.7 (1)
0x1b0|                                    07         |            .   |      [52]: 7 transition_type 0x1bc-0x1bc.7 (1)
0x1b0|                                       05      |             .  |      [53]: 5 transition_type 0x1bd-0x1bd.7 (1)
0x1b0|                                          07   |              . |      [54]: 7 transition_type 0x1be-0x1be.7 (1)
0x1b0|                                             05|               .|      [55]: 5 transition_type 0x1bf-0x1bf.7 (1)
0x1c0|07                                             |.               |      [56]: 7 transition_type 0x1c0-0x1c0.7 (1)
0x1c0|   05                                          | .              |      [57]: 5 transition_type 0x1c1-0x1c1.7 (1)
0x1c0|      07                                       |  .             |      [58]: 7 transition_type 0x1c2-0x1c2.7 (1)
0x1c0|         05                                    |   .            |      [59]: 5 transition_type 0x1c3-0x1c3.7 (1)
0x1c0|            07                                 |    .           |      [60]: 7 transition_type 0x1c4-0x1c4.7 (1)
0x1c0|               05                              |     .          |      [61]: 5 transition_type 0x1c5-0x1c5.7 (1)
0x1c0|                  07                           |      .         |      [62]: 7 transition_type 0x1c6-0x1c6.7 (1)
0x1c0|                     05                        |       .        |      [63]: 5 transition_type 0x1c7-0x1c7.7 (1)
0x1c0|                        07                     |        .       |      [64]: 7 transition_type 0x1c8-0x1c8.7 (1)
0x1c0|                           05                  |         .      |      [65]: 5 transition_type 0x1c9-0x1c9.7 (1)
0x1c0|                              07               |          .     |      [66]: 7 transition_type 0x1ca-0x1ca.7 (1)
0x1c0|                                 05            |           .    |      [67]: 5 transition_type 0x1cb-0x1cb.7 (1)
0x1c0|                                    07         |            .   |      [68]: 7 transition_type 0x1cc-0x1cc.7 (1)
0x1c0|                                       05      |             .  |      [69]: 5 transition_type 0x1cd-0x1cd.7 (1)
0x1c0|                                          07   |              . |      [70]: 7 transition_type 0x1ce-0x1ce.7 (1)
0x1c0|                                             05|               .|      [71]: 5 transition_type 0x1cf-0x1cf.7 (1)
0x1d0|07                                             |.               |      [72]: 7 transition_type 0x1d0-0x1d0.7 (1)
0x1d0|   05                                          | .              |      [73]: 5 transition_type 0x1d1-0x1d1.7 (1)
0x1d0|      07                                       |  .             |      [74]: 7 transition_type 0x1d2-0x1d2.7 (1)
0x1d0|         05                                    |   .            |      [75]: 5 transition_type 0x1d3-0x1d3.7 (1)
0x1d0|            07                                 |    .           |      [76]: 7 transition_type 0x1d4-0x1d4.7 (1)
0x1d0|               05                              |     .          |      [77]: 5 transition_type 0x1d5-0x1d5.7 (1)
0x1d0|                  07                           |      .         |      [78]: 7 transition_type 0x1d6-0x1d6.7 (1)
0x1d0|                     05                        |       .        |      [79]: 5 transition_type 0x1d7-0x1d7.7 (1)
0x1d0|                        07                     |        .       |      [80]: 7 transition_type 0x1d8-0x1d8.7 (1)
0x1d0|                           05                  |         .      |      [81]: 5 transition_type 0x1d9-0x1d9.7 (1)
0x1d0|                              07               |          .     |      [82]: 7 transition_type 0x1da-0x1da.7 (1)
0x1d0|                                 05            |           .    |      [83]: 5 transition_type 0x1db-0x1db.7 (1)
0x1d0|                                    07         |            .   |      [84]: 7 transition_type 0x1dc-0x1dc.7 (1)
0x1d0|                                       05      |             .  |      [85]: 5 transition_type 0x1dd-0x1dd.7 (1)
0x1d0|                                          05   |              . |      [86]: 5 transition_type 0x1de-0x1de.7 (1)
     |                                               |                |    local_time_type_records[0:10]: 0x1df-0x21a.7 (60)
     |                                               |                |      [0]{}: local_time_type 0x1df-0x1e4.7 (6)
0x1d0|                                             ff|               .|        utoff: -13491 (valid) 0x1df-0x1e2.7 (4)
0x1e0|ff cb 4d                                       |..M             |
0x1e0|         00                                    |   .            |        dst: 0 (valid) 0x1e3-0x1e3.7 (1)
0x1e0|            00                                 |    .           |        idx: 0 (valid) 0x1e4-0x1e4.7 (1)
     |                                               |                |      [1]{}: local_time_type 0x1e5-0x1ea.7 (6)
0x1e0|               ff ff cb 4d                     |     ...M       |        utoff: -13491 (valid) 0x1e5-0x1e8.7 (4)
0x1e0|                           00                  |         .      |        dst: 0 (valid) 0x1e9-0x1e9.7 (1)
0x1e0|                              04               |          .     |        idx: 4 (valid) 0x1ea-0x1ea.7 (1)
     |                                               |                |      [2]{}: local_time_type 0x1eb-0x1f0.7 (6)
0x1e0|                                 ff ff c7 c0   |           .... |        utoff: -14400 (valid) 0x1eb-0x1ee.7 (4)
0x1e0|                                             00|               .|        dst: 0 (valid) 0x1ef-0x1ef.7 (1)
0x1f0|08                                             |.               |        idx: 8 (valid) 0x1f0-0x1f0.7 (1)
     |                                               |                |      [3]{}: local_time_type 0x1f1-0x1f6.7 (6)
0x1f0|   ff ff ce c8                                 | ....           |        utoff: -12600 (valid) 0x1f1-0x1f4.7 (4)
0x1f0|               00                              |     .          |        dst: 0 (valid) 0x1f5-0x1f5.7 (1)
0x1f0|                  0c                           |      .         |        idx: 12 (valid) 0x1f6-0x1f6.7 (1)
     |                                               |                |      [4]{}: local_time_type 0x1f7-0x1fc.7 (6)
0x1f0|                     ff ff d5 d0               |       ....     |        utoff: -10800 (valid) 0x1f7-0x1fa.7 (4)
0x1f0|                                 01            |           .    |        dst: 1 (valid) 0x1fb-0x1fb.7 (1)
0x1f0|                                    12         |            .   |        idx: 18 (valid) 0x1fc-0x1fc.7 (1)
     |                                               |                |      [5]{}: local_time_type 0x1fd-0x202.7 (6)
0x1f0|                                       ff ff d5|             ...|        utoff: -10800 (valid) 0x1fd-0x200.7 (4)
0x200|d0                                             |.               |
0x200|   00                                          | .              |        dst: 0 (valid) 0x201-0x201.7 (1)
0x200|      12                                       |  .             |        idx: 18 (valid) 0x202-0x202.7 (1)
     |                                               |                |      [6]{}: local_time_type 0x203-0x208.7 (6)
0x200|         ff ff dc d8                           |   ....         |        utoff: -9000 (valid) 0x203-0x206.7 (4)
0x200|                     01                        |       .        |        dst: 1 (valid) 0x207-0x207.7 (1)
0x200|                        16                     |        .       |        idx: 22 (valid) 0x208-0x208.7 (1)
     |                                               |                |      [7]{}: local_time_type 0x209-0x20e.7 (6)
0x200|                           ff ff e3 e0         |         ....   |        utoff: -7200 (valid) 0x209-0x20c.7 (4)
0x200|                                       01      |             .  |        dst: 1 (valid) 0x20d-0x20d.7 (1)
0x200|                                          1c   |              . |        idx: 28 (valid) 0x20e-0x20e.7 (1)
     |                                               |                |      [8]{}: local_time_type 0x20f-0x214.7 (6)
0x200|                                             ff|               .|        utoff: -5400 (valid) 0x20f-0x212.7 (4)
0x210|ff ea e8                                       |...             |
0x210|         01                                    |   .            |        dst: 1 (valid) 0x213-0x213.7 (1)
0x210|            20                                 |                |        idx: 32 (valid) 0x214-0x214.7 (1)
     |                                               |                |      [9]{}: local_time_type 0x215-0x21a.7 (6)
0x210|               ff ff e3 e0                     |     ....       |        utoff: -7200 (valid) 0x215-0x218.7 (4)
0x210|                           01                  |         .      |        dst: 1 (valid) 0x219-0x219.7 (1)
0x210|                              1c               |          .     |        idx: 28 (valid) 0x21a-0x21a.7 (1)
     |                                               |                |    time_zone_designations[0:8]: 0x21b-0x240.7 (38)
0x210|                                 4c 4d 54 00   |           LMT. |      [0]: "LMT" time_zone_designation 0x21b-0x21e.7 (4)
0x210|                                             4d|               M|      [1]: "MMT" time_zone_designation 0x21f-0x222.7 (4)
0x220|4d 54 00                                       |MT.             |
0x220|         2d 30 34 00                           |   -04.         |      [2]: "-04" time_zone_designation 0x223-0x226.7 (4)
0x220|                     2d 30 33 33 30 00         |       -0330.   |      [3]: "-0330" time_zone_designation 0x227-0x22c.7 (6)
0x220|                                       2d 30 33|             -03|      [4]: "-03" time_zone_designation 0x22d-0x230.7 (4)
0x230|00                                             |.               |
0x230|   2d 30 32 33 30 00                           | -0230.         |      [5]: "-0230" time_zone_designation 0x231-0x236.7 (6)
0x230|                     2d 30 32 00               |       -02.     |      [6]: "-02" time_zone_designation 0x237-0x23a.7 (4)
0x230|                                 2d 30 31 33 30|           -0130|      [7]: "-0130" time_zone_designation 0x23b-0x240.7 (6)
0x240|00                                             |.               |
     |                                               |                |    leap_second_records[0:27]: 0x241-0x318.7 (216)
     |                                               |                |      [0]{}: leap_second_record 0x241-0x248.7 (8)
0x240|   04 b2 58 00                                 | ..X.           |        occur: "1972-07-01T00:00:00Z" (78796800) 0x241-0x244.7 (4)
0x240|               00 00 00 01                     |     ....       |        corr: 1 0x245-0x248.7 (4)
     |                                               |                |      [1]{}: leap_second_record 0x249-0x250.7 (8)
0x240|                           05 a4 ec 01         |         ....   |        occur: "1973-01-01T00:00:01Z" (94694401) 0x249-0x24c.7 (4)
0x240|                                       00 00 00|             ...|        corr: 2 0x24d-0x250.7 (4)
0x250|02                                             |.               |
     |                                               |                |      [2]{}: leap_second_record 0x251-0x258.7 (8)
0x250|   07 86 1f 82                                 | ....           |        occur: "1974-01-01T00:00:02Z" (126230402) 0x251-0x254.7 (4)
0x250|               00 00 00 03                     |     ....       |        corr: 3 0x255-0x258.7 (4)
     |                                               |                |      [3]{}: leap_second_record 0x259-0x260.7 (8)
0x250|                           09 67 53 03         |         .gS.   |        occur: "1975-01-01T00:00:03Z" (157766403) 0x259-0x25c.7 (4)
0x250|                                       00 00 00|             ...|        corr: 4 0x25d-0x260.7 (4)
0x260|04                                             |.               |
     |                                               |                |      [4]{}: leap_second_record 0x261-0x268.7 (8)
0x260|   0b 48 86 84                                 | .H..           |        occur: "1976-01-01T00:00:04Z" (189302404) 0x261-0x264.7 (4)
0x260|               00 00 00 05                     |     ....       |        corr: 5 0x265-0x268.7 (4)
     |                                               |                |      [5]{}: leap_second_record 0x269-0x270.7 (8)
0x260|                           0d 2b 0b 85         |         .+..   |        occur: "1977-01-01T00:00:05Z" (220924805) 0x269-0x26c.7 (4)
0x260|                                       00 00 00|             ...|        corr: 6 0x26d-0x270.7 (4)
0x270|06                                             |.               |
     |                                               |                |      [6]{}: leap_second_record 0x271-0x278.7 (8)
0x270|   0f 0c 3f 06                                 | ..?.           |        occur: "1978-01-01T00:00:06Z" (252460806) 0x271-0x274.7 (4)
0x270|               00 00 00 07                     |     ....       |        corr: 7 0x275-0x278.7 (4)
     |                                               |                |      [7]{}: leap_second_record 0x279-0x280.7 (8)
0x270|                           10 ed 72 87         |         ..r.   |        occur: "1979-01-01T00:00:07Z" (283996807) 0x279-0x27c.7 (4)
0x270|                                       00 00 00|             ...|        corr: 8 0x27d-0x280.7 (4)
0x280|08                                             |.               |
     |                                               |                |      [8]{}: leap_second_record 0x281-0x288.7 (8)
0x280|   12 ce a6 08                                 | ....           |        occur: "1980-01-01T00:00:08Z" (315532808) 0x281-0x284.7 (4)
0x280|               00 00 00 09                     |     ....       |        corr: 9 0x285-0x288.7 (4)
     |                                               |                |      [9]{}: leap_second_record 0x289-0x290.7 (8)
0x280|                           15 9f ca 89         |         ....   |        occur: "1981-07-01T00:00:09Z" (362793609) 0x289-0x28c.7 (4)
0x280|                                       00 00 00|             ...|        corr: 10 0x28d-0x290.7 (4)
0x290|0a                                             |.               |
     |                                               |                |      [10]{}: leap_second_record 0x291-0x298.7 (8)
0x290|   17 80 fe 0a                                 | ....           |        occur: "1982-07-01T00:00:10Z" (394329610) 0x291-0x294.7 (4)
0x290|               00 00 00 0b                     |     ....       |        corr: 11 0x295-0x298.7 (4)
     |                                               |                |      [11]{}: leap_second_record 0x299-0x2a0.7 (8)
0x290|                           19 62 31 8b         |         .b1.   |        occur: "1983-07-01T00:00:11Z" (425865611) 0x299-0x29c.7 (4)
0x290|                                       00 00 00|             ...|        corr: 12 0x29d-0x2a0.7 (4)
0x2a0|0c                                             |.               |
     |                                               |                |      [12]{}: leap_second_record 0x2a1-0x2a8.7 (8)
0x2a0|   1d 25 ea 0c                                 | .%..           |        occur: "1985-07-01T00:00:12Z" (489024012) 0x2a1-0x2a4.7 (4)
0x2a0|               00 00 00 0d                     |     ....       |        corr: 13 0x2a5-0x2a8.7 (4)
     |                                               |                |      [13]{}: leap_second_record 0x2a9-0x2b0.7 (8)
0x2a0|                           21 da e5 0d         |         !...   |        occur: "1988-01-01T00:00:13Z" (567993613) 0x2a9-0x2ac.7 (4)
0x2a0|                                       00 00 00|             ...|        corr: 14 0x2ad-0x2b0.7 (4)
0x2b0|0e                                             |.               |
     |                                               |                |      [14]{}: leap_second_record 0x2b1-0x2b8.7 (8)
0x2b0|   25 9e 9d 8e                                 | %...           |        occur: "1990-01-01T00:00:14Z" (631152014) 0x2b1-0x2b4.7 (4)
0x2b0|               00 00 00 0f                     |     ....       |        corr: 15 0x2b5-0x2b8.7 (4)
     |                                               |                |      [15]{}: leap_second_record 0x2b9-0x2c0.7 (8)
0x2b0|                           27 7f d1 0f         |         '...   |        occur: "1991-01-01T00:00:15Z" (662688015) 0x2b9-0x2bc.7 (4)
0x2b0|                                       00 00 00|             ...|        corr: 16 0x2bd-0x2c0.7 (4)
0x2c0|10                                             |.               |
     |                                               |                |      [16]{}: leap_second_record 0x2c1-0x2c8.7 (8)
0x2c0|   2a 50 f5 90                                 | *P..           |        occur: "1992-07-01T00:00:16Z" (709948816) 0x2c1-0x2c4.7 (4)
0x2c0|               00 00 00 11                     |     ....       |        corr: 17 0x2c5-0x2c8.7 (4)
     |                                               |                |      [17]{}: leap_second_record 0x2c9-0x2d0.7 (8)
0x2c0|                           2c 32 29 11         |         ,2).   |        occur: "1993-07-01T00:00:17Z" (741484817) 0x2c9-0x2cc.7 (4)
0x2c0|                                       00 00 00|             ...|        corr: 18 0x2cd-0x2d0.7 (4)
0x2d0|12                                             |.               |
     |                                               |                |      [18]{}: leap_second_record 0x2d1-0x2d8.7 (8)
0x2d0|   2e 13 5c 92                                 | ..\.           |        occur: "1994-07-01T00:00:18Z" (773020818) 0x2d1-0x2d4.7 (4)
0x2d0|               00 00 00 13                     |     ....       |        corr: 19 0x2d5-0x2d8.7 (4)
     |                                               |                |      [19]{}: leap_second_record 0x2d9-0x2e0.7 (8)
0x2d0|                           30 e7 24 13         |         0.$.   |        occur: "1996-01-01T00:00:19Z" (820454419) 0x2d9-0x2dc.7 (4)
0x2d0|                                       00 00 00|             ...|        corr: 20 0x2dd-0x2e0.7 (4)
0x2e0|14                                             |.               |
     |                                               |                |      [20]{}: leap_second_record 0x2e1-0x2e8.7 (8)
0x2e0|   33 b8 48 94                                 | 3.H.           |        occur: "1997-07-01T00:00:20Z" (867715220) 0x2e1-0x2e4.7 (4)
0x2e0|               00 00 00 15                     |     ....       |        corr: 21 0x2e5-0x2e8.7 (4)
     |                                               |                |      [21]{}: leap_second_record 0x2e9-0x2f0.7 (8)
0x2e0|                           36 8c 10 15         |         6...   |        occur: "1999-01-01T00:00:21Z" (915148821) 0x2e9-0x2ec.7 (4)
0x2e0|                                       00 00 00|             ...|        corr: 22 0x2ed-0x2f0.7 (4)
0x2f0|16                                             |.               |
     |                                               |                |      [22]{}: leap_second_record 0x2f1-0x2f8.7 (8)
0x2f0|   43 b7 1b 96                                 | C...           |        occur: "2006-01-01T00:00:22Z" (1136073622) 0x2f1-0x2f4.7 (4)
0x2f0|               00 00 00 17                     |     ....       |        corr: 23 0x2f5-0x2f8.7 (4)
     |                                               |                |      [23]{}: leap_second_record 0x2f9-0x300.7 (8)
0x2f0|                           49 5c 07 97         |         I\..   |        occur: "2009-01-01T00:00:23Z" (1230768023) 0x2f9-0x2fc.7 (4)
0x2f0|                                       00 00 00|             ...|        corr: 24 0x2fd-0x300.7 (4)
0x300|18                                             |.               |
     |                                               |                |      [24]{}: leap_second_record 0x301-0x308.7 (8)
0x300|   4f ef 93 18                                 | O...           |        occur: "2012-07-01T00:00:24Z" (1341100824) 0x301-0x304.7 (4)
0x300|               00 00 00 19                     |     ....       |        corr: 25 0x305-0x308.7 (4)
     |                                               |                |      [25]{}: leap_second_record 0x309-0x310.7 (8)
0x300|                           55 93 2d 99         |         U.-.   |        occur: "2015-07-01T00:00:25Z" (1435708825) 0x309-0x30c.7 (4)
0x300|                                       00 00 00|             ...|        corr: 26 0x30d-0x310.7 (4)
0x310|1a                                             |.               |
     |                                               |                |      [26]{}: leap_second_record 0x311-0x318.7 (8)
0x310|   58 68 46 9a                                 | XhF.           |        occur: "2017-01-01T00:00:26Z" (1483228826) 0x311-0x314.7 (4)
0x310|               00 00 00 1b                     |     ....       |        corr: 27 0x315-0x318.7 (4)
     |                                               |                |    standard_wall_indicators[0:0]: 0x319-NA (0)
     |                                               |                |    ut_local_indicators[0:0]: 0x319-NA (0)
     |                                               |                |  v2plusheader{}: 0x319-0x344.7 (44)
0x310|                           54 5a 69 66         |         TZif   |    magic: 0x545a6966 (valid) 0x319-0x31c.7 (4)
0x310|                                       32      |             2  |    ver: "2" (0x32) (valid) 0x31d-0x31d.7 (1)
0x310|                                          00 00|              ..|    reserved: raw bits 0x31e-0x32c.7 (15)
0x320|00 00 00 00 00 00 00 00 00 00 00 00 00         |.............   |
0x320|                                       00 00 00|             ...|    isutcnt: 0 0x32d-0x330.7 (4)
0x330|00                                             |.               |
0x330|   00 00 00 00                                 | ....           |    isstdcnt: 0 0x331-0x334.7 (4)
0x330|               00 00 00 1b                     |     ....       |    leapcnt: 27 0x335-0x338.7 (4)
0x330|                           00 00 00 57         |         ...W   |    timecnt: 87 0x339-0x33c.7 (4)
0x330|                                       00 00 00|             ...|    typecnt: 10 0x33d-0x340.7 (4)
0x340|0a                                             |.               |
0x340|   00 00 00 26                                 | ...&           |    charcnt: 38 0x341-0x344.7 (4)
     |                                               |                |  v2plusdatablock{}: 0x345-0x7f9.7 (1205)
     |                                               |                |    transition_times[0:87]: 0x345-0x5fc.7 (696)
0x340|               ff ff ff ff 8c 34 e5 33         |     .....4.3   |      [0]: "1908-06-10T03:44:51Z" (-1942690509) transition_time 0x345-0x34c.7 (8)
0x340|                                       ff ff ff|             ...|      [1]: "1920-05-01T03:44:51Z" (-1567455309) transition_time 0x34d-0x354.7 (8)
0x350|ff a2 92 87 b3                                 |.....           |
0x350|               ff ff ff ff a8 ff db 40         |     .......@   |      [2]: "1923-10-01T04:00:00Z" (-1459627200) transition_time 0x355-0x35c.7 (8)
0x350|                                       ff ff ff|             ...|      [3]: "1924-04-01T03:00:00Z" (-1443819600) transition_time 0x35d-0x364.7 (8)
0x360|ff a9 f1 0f b0                                 |.....           |
0x360|               ff ff ff ff aa e2 59 38         |     ......Y8   |      [4]: "1924-10-01T03:30:00Z" (-1428006600) transition_time 0x365-0x36c.7 (8)
0x360|                                       ff ff ff|             ...|      [5]: "1925-04-01T03:00:00Z" (-1412283600) transition_time 0x36d-0x374.7 (8)
0x370|ff ab d2 43 30                                 |...C0           |
0x370|               ff ff ff ff ac c3 8c b8         |     ........   |      [6]: "1925-10-01T03:30:00Z" (-1396470600) transition_time 0x375-0x37c.7 (8)
0x370|                                       ff ff ff|             ...|      [7]: "1926-04-01T03:00:00Z" (-1380747600) transition_time 0x37d-0x384.7 (8)
0x380|ff ad b3 76 b0                                 |...v.           |
0x380|               ff ff ff ff bb f4 b5 b8         |     ........   |      [8]: "1933-10-29T03:30:00Z" (-1141590600) transition_time 0x385-0x38c.7 (8)
0x380|                                       ff ff ff|             ...|      [9]: "1934-04-01T03:00:00Z" (-1128286800) transition_time 0x38d-0x394.7 (8)
0x390|ff bc bf b5 b0                                 |.....           |
0x390|               ff ff ff ff bd d4 97 b8         |     ........   |      [10]: "1934-10-28T03:30:00Z" (-1110141000) transition_time 0x395-0x39c.7 (8)
0x390|                                       ff ff ff|             ...|      [11]: "1935-03-31T03:00:00Z" (-1096837200) transition_time 0x39d-0x3a4.7 (8)
0x3a0|ff be 9f 97 b0                                 |.....           |
0x3a0|               ff ff ff ff bf b4 79 b8         |     ......y.   |      [12]: "1935-10-27T03:30:00Z" (-1078691400) transition_time 0x3a5-0x3ac.7 (8)
0x3a0|                                       ff ff ff|             ...|      [13]: "1936-03-29T03:00:00Z" (-1065387600) transition_time 0x3ad-0x3b4.7 (8)
0x3b0|ff c0 7f 79 b0                                 |...y.           |
0x3b0|               ff ff ff ff c1 94 5b b8         |     ......[.   |      [14]: "1936-10-25T03:30:00Z" (-1047241800) transition_time 0x3b5-0x3bc.7 (8)
0x3b0|                                       ff ff ff|             ...|      [15]: "1937-03-28T03:00:00Z" (-1033938000) transition_time 0x3bd-0x3c4.7 (8)
0x3c0|ff c2 5f 5b b0                                 |.._[.           |
0x3c0|               ff ff ff ff c3 7d 78 38         |     .....}x8   |      [16]: "1937-10-31T03:30:00Z" (-1015187400) transition_time 0x3c5-0x3cc.7 (8)
0x3c0|                                       ff ff ff|             ...|      [17]: "1938-03-27T03:00:00Z" (-1002488400) transition_time 0x3cd-0x3d4.7 (8)
0x3d0|ff c4 3f 3d b0                                 |..?=.           |
0x3d0|               ff ff ff ff c5 5d 5a 38         |     .....]Z8   |      [18]: "1938-10-30T03:30:00Z" (-983737800) transition_time 0x3d5-0x3dc.7 (8)
0x3d0|                                       ff ff ff|             ...|      [19]: "1939-03-26T03:00:00Z" (-971038800) transition_time 0x3dd-0x3e4.7 (8)
0x3e0|ff c6 1f 1f b0                                 |.....           |
0x3e0|               ff ff ff ff c7 18 52 38         |     ......R8   |      [20]: "1939-10-01T03:30:00Z" (-954707400) transition_time 0x3e5-0x3ec.7 (8)
0x3e0|                                       ff ff ff|             ...|      [21]: "1940-03-31T03:00:00Z" (-938984400) transition_time 0x3ed-0x3f4.7 (8)
0x3f0|ff c8 08 3c 30                                 |...<0           |
0x3f0|               ff ff ff ff c9 1d 1e 38         |     .......8   |      [22]: "1940-10-27T03:30:00Z" (-920838600) transition_time 0x3f5-0x3fc.7 (8)
0x3f0|                                       ff ff ff|             ...|      [23]: "1941-03-30T03:00:00Z" (-907534800) transition_time 0x3fd-0x404.7 (8)
0x400|ff c9 e8 1e 30                                 |....0           |
0x400|               ff ff ff ff ca 8b 9f 38         |     .......8   |      [24]: "1941-08-01T03:30:00Z" (-896819400) transition_time 0x405-0x40c.7 (8)
0x400|                                       ff ff ff|             ...|      [25]: "1942-12-14T03:00:00Z" (-853621200) transition_time 0x40d-0x414.7 (8)
0x410|ff cd 1e c6 30                                 |....0           |
0x410|               ff ff ff ff cd 95 66 28         |     ......f(   |      [26]: "1943-03-14T02:30:00Z" (-845847000) transition_time 0x415-0x41c.7 (8)
0x410|                                       ff ff ff|             ...|      [27]: "1959-05-24T03:00:00Z" (-334789200) transition_time 0x41d-0x424.7 (8)
0x420|ff ec 0b 85 b0                                 |.....           |
0x420|               ff ff ff ff ec f2 35 28         |     ......5(   |      [28]: "1959-11-15T02:30:00Z" (-319671000) transition_time 0x425-0x42c.7 (8)
0x420|                                       ff ff ff|             ...|      [29]: "1960-01-17T03:00:00Z" (-314226000) transition_time 0x42d-0x434.7 (8)
0x430|ff ed 45 4a b0                                 |..EJ.           |
0x430|               ff ff ff ff ed 85 d6 20         |     .......    |      [30]: "1960-03-06T02:00:00Z" (-309996000) transition_time 0x435-0x43c.7 (8)
0x430|                                       ff ff ff|             ...|      [31]: "1965-04-04T03:00:00Z" (-149720400) transition_time 0x43d-0x444.7 (8)
0x440|ff f7 13 72 b0                                 |...r.           |
0x440|               ff ff ff ff f7 fa 1b 20         |     .......    |      [32]: "1965-09-26T02:00:00Z" (-134604000) transition_time 0x445-0x44c.7 (8)
0x440|                                       ff ff ff|             ...|      [33]: "1968-05-27T03:00:00Z" (-50446800) transition_time 0x44d-0x454.7 (8)
0x450|ff fc fe 3e 30                                 |...>0           |
0x450|               ff ff ff ff fd f6 11 28         |     .......(   |      [34]: "1968-12-01T02:30:00Z" (-34205400) transition_time 0x455-0x45c.7 (8)
0x450|                                       00 00 00|             ...|      [35]: "1970-04-25T03:00:00Z" (9860400) transition_time 0x45d-0x464.7 (8)
0x460|00 00 96 75 30                                 |...u0           |
0x460|               00 00 00 00 00 d8 52 20         |     ......R    |      [36]: "1970-06-14T02:00:00Z" (14176800) transition_time 0x465-0x46c.7 (8)
0x460|                                       00 00 00|             ...|      [37]: "1972-04-23T03:00:00Z" (72846000) transition_time 0x46d-0x474.7 (8)
0x470|00 04 57 8a b0                                 |..W..           |
0x470|               00 00 00 00 04 c6 3a a1         |     ......:.   |      [38]: "1972-07-16T02:00:01Z" (80100001) transition_time 0x475-0x47c.7 (8)
0x470|                                       00 00 00|             ...|      [39]: "1974-01-13T03:00:03Z" (127278003) transition_time 0x47d-0x484.7 (8)
0x480|00 07 96 1b b3                                 |.....           |
0x480|               00 00 00 00 07 df da 9b         |     ........   |      [40]: "1974-03-10T01:30:03Z" (132111003) transition_time 0x485-0x48c.7 (8)
0x480|                                       00 00 00|             ...|      [41]: "1974-09-01T02:30:03Z" (147234603) transition_time 0x48d-0x494.7 (8)
0x490|00 08 c6 9f 2b                                 |....+           |
0x490|               00 00 00 00 09 5a 4e 33         |     .....ZN3   |      [42]: "1974-12-22T03:00:03Z" (156913203) transition_time 0x495-0x49c.7 (8)
0x490|                                       00 00 00|             ...|      [43]: "1975-03-30T02:00:04Z" (165376804) transition_time 0x49d-0x4a4.7 (8)
0x4a0|00 09 db 73 24                                 |...s$           |
0x4a0|               00 00 00 00 0d 1a 12 35         |     .......5   |      [44]: "1976-12-19T03:00:05Z" (219812405) transition_time 0x4a5-0x4ac.7 (8)
0x4a0|                                       00 00 00|             ...|      [45]: "1977-03-06T02:00:06Z" (226461606) transition_time 0x4ad-0x4b4.7 (8)
0x4b0|00 0d 7f 87 a6                                 |.....           |
0x4b0|               00 00 00 00 0e e7 7f 36         |     .......6   |      [46]: "1977-12-04T03:00:06Z" (250052406) transition_time 0x4b5-0x4bc.7 (8)
0x4b0|                                       00 00 00|             ...|      [47]: "1978-03-05T02:00:07Z" (257911207) transition_time 0x4bd-0x4c4.7 (8)
0x4c0|00 0f 5f 69 a7                                 |.._i.           |
0x4c0|               00 00 00 00 10 d9 d6 37         |     .......7   |      [48]: "1978-12-17T03:00:07Z" (282711607) transition_time 0x4c5-0x4cc.7 (8)
0x4c0|                                       00 00 00|             ...|      [49]: "1979-03-04T02:00:08Z" (289360808) transition_time 0x4cd-0x4d4.7 (8)
0x4d0|00 11 3f 4b a8                                 |..?K.           |
0x4d0|               00 00 00 00 11 89 2d b8         |     ......-.   |      [50]: "1979-04-29T03:00:08Z" (294202808) transition_time 0x4d5-0x4dc.7 (8)
0x4d0|                                       00 00 00|             ...|      [51]: "1980-03-16T02:00:09Z" (322020009) transition_time 0x4dd-0x4e4.7 (8)
0x4e0|00 13 31 a2 a9                                 |..1..           |
0x4e0|               00 00 00 00 21 c3 54 3d         |     ....!.T=   |      [52]: "1987-12-14T03:00:13Z" (566449213) transition_time 0x4e5-0x4ec.7 (8)
0x4e0|                                       00 00 00|             ...|      [53]: "1988-02-28T02:00:14Z" (573012014) transition_time 0x4ed-0x4f4.7 (8)
0x4f0|00 22 27 78 2e                                 |."'x.           |
0x4f0|               00 00 00 00 23 a1 e4 be         |     ....#...   |      [54]: "1988-12-11T03:00:14Z" (597812414) transition_time 0x4f5-0x4fc.7 (8)
0x4f0|                                       00 00 00|             ...|      [55]: "1989-03-05T02:00:14Z" (605066414) transition_time 0x4fd-0x504.7 (8)
0x500|00 24 10 94 ae                                 |.$...           |
0x500|               00 00 00 00 25 4a 67 be         |     ....%Jg.   |      [56]: "1989-10-29T03:00:14Z" (625633214) transition_time 0x505-0x50c.7 (8)
0x500|                                       00 00 00|             ...|      [57]: "1990-02-25T02:00:15Z" (635911215) transition_time 0x50d-0x514.7 (8)
0x510|00 25 e7 3c 2f                                 |.%.</           |
0x510|               00 00 00 00 27 21 0f 3f         |     ....'!.?   |      [58]: "1990-10-21T03:00:15Z" (656478015) transition_time 0x515-0x51c.7 (8)
0x510|                                       00 00 00|             ...|      [59]: "1991-03-03T02:00:16Z" (667965616) transition_time 0x51d-0x524.7 (8)
0x520|00 27 d0 58 b0                                 |.'.X.           |
0x520|               00 00 00 00 29 0a 2b c0         |     ....).+.   |      [60]: "1991-10-27T03:00:16Z" (688532416) transition_time 0x525-0x52c.7 (8)
0x520|                                       00 00 00|             ...|      [61]: "1992-03-01T02:00:16Z" (699415216) transition_time 0x52d-0x534.7 (8)
0x530|00 29 b0 3a b0                                 |.).:.           |
0x530|               00 00 00 00 2a e0 d3 41         |     ....*..A   |      [62]: "1992-10-18T03:00:17Z" (719377217) transition_time 0x535-0x53c.7 (8)
0x530|                                       00 00 00|             ...|      [63]: "1993-02-28T02:00:17Z" (730864817) transition_time 0x53d-0x544.7 (8)
0x540|00 2b 90 1c b1                                 |.+...           |
0x540|               00 00 00 00 41 4c f6 46         |     ....AL.F   |      [64]: "2004-09-19T03:00:22Z" (1095562822) transition_time 0x545-0x54c.7 (8)
0x540|                                       00 00 00|             ...|      [65]: "2005-03-27T04:00:22Z" (1111896022) transition_time 0x54d-0x554.7 (8)
0x550|00 42 46 2f d6                                 |.BF/.           |
0x550|               00 00 00 00 43 48 a3 e6         |     ....CH..   |      [66]: "2005-10-09T05:00:22Z" (1128834022) transition_time 0x555-0x55c.7 (8)
0x550|                                       00 00 00|             ...|      [67]: "2006-03-12T04:00:23Z" (1142136023) transition_time 0x55d-0x564.7 (8)
0x560|00 44 13 9c d7                                 |.D...           |
0x560|               00 00 00 00 45 1f 4b 67         |     ....E.Kg   |      [68]: "2006-10-01T05:00:23Z" (1159678823) transition_time 0x565-0x56c.7 (8)
0x560|                                       00 00 00|             ...|      [69]: "2007-03-11T04:00:23Z" (1173585623) transition_time 0x56d-0x574.7 (8)
0x570|00 45 f3 7e d7                                 |.E.~.           |
0x570|               00 00 00 00 47 08 67 e7         |     ....G.g.   |      [70]: "2007-10-07T05:00:23Z" (1191733223) transition_time 0x575-0x57c.7 (8)
0x570|                                       00 00 00|             ...|      [71]: "2008-03-09T04:00:23Z" (1205035223) transition_time 0x57d-0x584.7 (8)
0x580|00 47 d3 60 d7                                 |.G.`.           |
0x580|               00 00 00 00 48 e8 49 e7         |     ....H.I.   |      [72]: "2008-10-05T05:00:23Z" (1223182823) transition_time 0x585-0x58c.7 (8)
0x580|                                       00 00 00|             ...|      [73]: "2009-03-08T04:00:24Z" (1236484824) transition_time 0x58d-0x594.7 (8)
0x590|00 49 b3 42 d8                                 |.I.B.           |
0x590|               00 00 00 00 4a c8 2b e8         |     ....J.+.   |      [74]: "2009-10-04T05:00:24Z" (1254632424) transition_time 0x595-0x59c.7 (8)
0x590|                                       00 00 00|             ...|      [75]: "2010-03-14T04:00:24Z" (1268539224) transition_time 0x59d-0x5a4.7 (8)
0x5a0|00 4b 9c 5f 58                                 |.K._X           |
0x5a0|               00 00 00 00 4c a8 0d e8         |     ....L...   |      [76]: "2010-10-03T05:00:24Z" (1286082024) transition_time 0x5a5-0x5ac.7 (8)
0x5a0|                                       00 00 00|             ...|      [77]: "2011-03-13T04:00:24Z" (1299988824) transition_time 0x5ad-0x5b4.7 (8)
0x5b0|00 4d 7c 41 58                                 |.M|AX           |
0x5b0|               00 00 00 00 4e 87 ef e8         |     ....N...   |      [78]: "2011-10-02T05:00:24Z" (1317531624) transition_time 0x5b5-0x5bc.7 (8)
0x5b0|                                       00 00 00|             ...|      [79]: "2012-03-11T04:00:24Z" (1331438424) transition_time 0x5bd-0x5c4.7 (8)
0x5c0|00 4f 5c 23 58                                 |.O\#X           |
0x5c0|               00 00 00 00 50 71 0c 69         |     ....Pq.i   |      [80]: "2012-10-07T05:00:25Z" (1349586025) transition_time 0x5c5-0x5cc.7 (8)
0x5c0|                                       00 00 00|             ...|      [81]: "2013-03-10T04:00:25Z" (1362888025) transition_time 0x5cd-0x5d4.7 (8)
0x5d0|00 51 3c 05 59                                 |.Q<.Y           |
0x5d0|               00 00 00 00 52 50 ee 69         |     ....RP.i   |      [82]: "2013-10-06T05:00:25Z" (1381035625) transition_time 0x5d5-0x5dc.7 (8)
0x5d0|                                       00 00 00|             ...|      [83]: "2014-03-09T04:00:25Z" (1394337625) transition_time 0x5dd-0x5e4.7 (8)
0x5e0|00 53 1b e7 59                                 |.S..Y           |
0x5e0|               00 00 00 00 54 30 d0 69         |     ....T0.i   |      [84]: "2014-10-05T05:00:25Z" (1412485225) transition_time 0x5e5-0x5ec.7 (8)
0x5e0|                                       00 00 00|             ...|      [85]: "2015-03-08T04:00:25Z" (1425787225) transition_time 0x5ed-0x5f4.7 (8)
0x5f0|00 54 fb c9 59                                 |.T..Y           |
0x5f0|               00 00 00 00 64 9b 78 1b         |     ....d.x.   |      [86]: "2023-06-28T00:00:27Z" (1687910427) transition_time 0x5f5-0x5fc.7 (8)
     |                                               |                |    transition_types[0:87]: 0x5fd-0x653.7 (87)
0x5f0|                                       01      |             .  |      [0]: 1 transition_type 0x5fd-0x5fd.7 (1)
0x5f0|                                          02   |              . |      [1]: 2 transition_type 0x5fe-0x5fe.7 (1)
0x5f0|                                             04|               .|      [2]: 4 transition_type 0x5ff-0x5ff.7 (1)
0x600|03                                             |.               |      [3]: 3 transition_type 0x600-0x600.7 (1)
0x600|   04                                          | .              |      [4]: 4 transition_type 0x601-0x601.7 (1)
0x600|      03                                       |  .             |      [5]: 3 transition_type 0x602-0x602.7 (1)
0x600|         04                                    |   .            |      [6]: 4 transition_type 0x603-0x603.7 (1)
0x600|            03                                 |    .           |      [7]: 3 transition_type 0x604-0x604.7 (1)
0x600|               04                              |     .          |      [8]: 4 transition_type 0x605-0x605.7 (1)
0x600|                  03                           |      .         |      [9]: 3 transition_type 0x606-0x606.7 (1)
0x600|                     04                        |       .        |      [10]: 4 transition_type 0x607-0x607.7 (1)
0x600|                        03                     |        .       |      [11]: 3 transition_type 0x608-0x608.7 (1)
0x600|                           04                  |         .      |      [12]: 4 transition_type 0x609-0x609.7 (1)
0x600|                              03               |          .     |      [13]: 3 transition_type 0x60a-0x60a.7 (1)
0x600|                                 04            |           .    |      [14]: 4 transition_type 0x60b-0x60b.7 (1)
0x600|                                    03         |            .   |      [15]: 3 transition_type 0x60c-0x60c.7 (1)
0x600|                                       04      |             .  |      [16]: 4 transition_type 0x60d-0x60d.7 (1)
0x600|                                          03   |              . |      [17]: 3 transition_type 0x60e-0x60e.7 (1)
0x600|                                             04|               .|      [18]: 4 transition_type 0x60f-0x60f.7 (1)
0x610|03                                             |.               |      [19]: 3 transition_type 0x610-0x610.7 (1)
0x610|   04                                          | .              |      [20]: 4 transition_type 0x611-0x611.7 (1)
0x610|      03                                       |  .             |      [21]: 3 transition_type 0x612-0x612.7 (1)
0x610|         04                                    |   .            |      [22]: 4 transition_type 0x613-0x613.7 (1)
0x610|            03                                 |    .           |      [23]: 3 transition_type 0x614-0x614.7 (1)
0x610|               04                              |     .          |      [24]: 4 transition_type 0x615-0x615.7 (1)
0x610|                  06                           |      .         |      [25]: 6 transition_type 0x616-0x616.7 (1)
0x610|                     05                        |       .        |      [26]: 5 transition_type 0x617-0x617.7 (1)
0x610|                        06                     |        .       |      [27]: 6 transition_type 0x618-0x618.7 (1)
0x610|                           05                  |         .      |      [28]: 5 transition_type 0x619-0x619.7 (1)
0x610|                              07               |          .     |      [29]: 7 transition_type 0x61a-0x61a.7 (1)
0x610|                                 05            |           .    |      [30]: 5 transition_type 0x61b-0x61b.7 (1)
0x610|                                    07         |            .   |      [31]: 7 transition_type 0x61c-0x61c.7 (1)
0x610|                                       05      |             .  |      [32]: 5 transition_type 0x61d-0x61d.7 (1)
0x610|                                          06   |              . |      [33]: 6 transition_type 0x61e-0x61e.7 (1)
0x610|                                             05|               .|      [34]: 5 transition_type 0x61f-0x61f.7 (1)
0x620|07                                             |.               |      [35]: 7 transition_type 0x620-0x620.7 (1)
0x620|   05                                          | .              |      [36]: 5 transition_type 0x621-0x621.7 (1)
0x620|      07                                       |  .             |      [37]: 7 transition_type 0x622-0x622.7 (1)
0x620|         05                                    |   .            |      [38]: 5 transition_type 0x623-0x623.7 (1)
0x620|            08                                 |    .           |      [39]: 8 transition_type 0x624-0x624.7 (1)
0x620|               06                              |     .          |      [40]: 6 transition_type 0x625-0x625.7 (1)
0x620|                  05                           |      .         |      [41]: 5 transition_type 0x626-0x626.7 (1)
0x620|                     07                        |       .        |      [42]: 7 transition_type 0x627-0x627.7 (1)
0x620|                        05                     |        .       |      [43]: 5 transition_type 0x628-0x628.7 (1)
0x620|                           07                  |         .      |      [44]: 7 transition_type 0x629-0x629.7 (1)
0x620|                              05               |          .     |      [45]: 5 transition_type 0x62a-0x62a.7 (1)
0x620|                                 07            |           .    |      [46]: 7 transition_type 0x62b-0x62b.7 (1)
0x620|                                    05         |            .   |      [47]: 5 transition_type 0x62c-0x62c.7 (1)
0x620|                                       07      |             .  |      [48]: 7 transition_type 0x62d-0x62d.7 (1)
0x620|                                          05   |              . |      [49]: 5 transition_type 0x62e-0x62e.7 (1)
0x620|                                             07|               .|      [50]: 7 transition_type 0x62f-0x62f.7 (1)
0x630|05                                             |.               |      [51]: 5 transition_type 0x630-0x630.7 (1)
0x630|   07                                          | .              |      [52]: 7 transition_type 0x631-0x631.7 (1)
0x630|      05                                       |  .             |      [53]: 5 transition_type 0x632-0x632.7 (1)
0x630|         07                                    |   .            |      [54]: 7 transition_type 0x633-0x633.7 (1)
0x630|            05                                 |    .           |      [55]: 5 transition_type 0x634-0x634.7 (1)
0x630|               07                              |     .          |      [56]: 7 transition_type 0x635-0x635.7 (1)
0x630|                  05                           |      .         |      [57]: 5 transition_type 0x636-0x636.7 (1)
0x630|                     07                        |       .        |      [58]: 7 transition_type 0x637-0x637.7 (1)
0x630|                        05                     |        .       |      [59]: 5 transition_type 0x638-0x638.7 (1)
0x630|                           07                  |         .      |      [60]: 7 transition_type 0x639-0x639.7 (1)
0x630|                              05               |          .     |      [61]: 5 transition_type 0x63a-0x63a.7 (1)
0x630|                                 07            |           .    |      [62]: 7 transition_type 0x63b-0x63b.7 (1)
0x630|                                    05         |            .   |      [63]: 5 transition_type 0x63c-0x63c.7 (1)
0x630|                                       07      |             .  |      [64]: 7 transition_type 0x63d-0x63d.7 (1)
0x630|                                          05   |              . |      [65]: 5 transition_type 0x63e-0x63e.7 (1)
0x630|                                             07|               .|      [66]: 7 transition_type 0x63f-0x63f.7 (1)
0x640|05                                             |.               |      [67]: 5 transition_type 0x640-0x640.7 (1)
0x640|   07                                          | .              |      [68]: 7 transition_type 0x641-0x641.7 (1)
0x640|      05                                       |  .             |      [69]: 5 transition_type 0x642-0x642.7 (1)
0x640|         07                                    |   .            |      [70]: 7 transition_type 0x643-0x643.7 (1)
0x640|            05                                 |    .           |      [71]: 5 transition_type 0x644-0x644.7 (1)
0x640|               07                              |     .          |      [72]: 7 transition_type 0x645-0x645.7 (1)
0x640|                  05                           |      .         |      [73]: 5 transition_type 0x646-0x646.7 (1)
0x640|                     07                        |       .        |      [74]: 7 transition_type 0x647-0x647.7 (1)
0x640|                        05                     |        .       |      [75]: 5 transition_type 0x648-0x648.7 (1)
0x640|                           07                  |         .      |      [76]: 7 transition_type 0x649-0x649.7 (1)
0x640|                              05               |          .     |      [77]: 5 transition_type 0x64a-0x64a.7 (1)
0x640|                                 07            |           .    |      [78]: 7 transition_type 0x64b-0x64b.7 (1)
0x640|                                    05         |            .   |      [79]: 5 transition_type 0x64c-0x64c.7 (1)
0x640|                                       07      |             .  |      [80]: 7 transition_type 0x64d-0x64d.7 (1)
0x640|                                          05   |              . |      [81]: 5 transition_type 0x64e-0x64e.7 (1)
0x640|                                             07|               .|      [82]: 7 transition_type 0x64f-0x64f.7 (1)
0x650|05                                             |.               |      [83]: 5 transition_type 0x650-0x650.7 (1)
0x650|   07                                          | .              |      [84]: 7 transition_type 0x651-0x651.7 (1)
0x650|      05                                       |  .             |      [85]: 5 transition_type 0x652-0x652.7 (1)
0x650|         05                                    |   .            |      [86]: 5 transition_type 0x653-0x653.7 (1)
     |                                               |                |    local_time_type_records[0:10]: 0x654-0x68f.7 (60)
     |                                               |                |      [0]{}: local_time_type 0x654-0x659.7 (6)
0x650|            ff ff cb 4d                        |    ...M        |        utoff: -13491 (valid) 0x654-0x657.7 (4)
0x650|                        00                     |        .       |        dst: 0 (valid) 0x658-0x658.7 (1)
0x650|                           00                  |         .      |        idx: 0 (valid) 0x659-0x659.7 (1)
     |                                               |                |      [1]{}: local_time_type 0x65a-0x65f.7 (6)
0x650|                              ff ff cb 4d      |          ...M  |        utoff: -13491 (valid) 0x65a-0x65d.7 (4)
0x650|                                          00   |              . |        dst: 0 (valid) 0x65e-0x65e.7 (1)
0x650|                                             04|               .|        idx: 4 (valid) 0x65f-0x65f.7 (1)
     |                                               |                |      [2]{}: local_time_type 0x660-0x665.7 (6)
0x660|ff ff c7 c0                                    |....            |        utoff: -14400 (valid) 0x660-0x663.7 (4)
0x660|            00                                 |    .           |        dst: 0 (valid) 0x664-0x664.7 (1)
0x660|               08                              |     .          |        idx: 8 (valid) 0x665-0x665.7 (1)
     |                                               |                |      [3]{}: local_time_type 0x666-0x66b.7 (6)
0x660|                  ff ff ce c8                  |      ....      |        utoff: -12600 (valid) 0x666-0x669.7 (4)
0x660|                              00               |          .     |        dst: 0 (valid) 0x66a-0x66a.7 (1)
0x660|                                 0c            |           .    |        idx: 12 (valid) 0x66b-0x66b.7 (1)
     |                                               |                |      [4]{}: local_time_type 0x66c-0x671.7 (6)
0x660|                                    ff ff d5 d0|            ....|        utoff: -10800 (valid) 0x66c-0x66f.7 (4)
0x670|01                                             |.               |        dst: 1 (valid) 0x670-0x670.7 (1)
0x670|   12                                          | .              |        idx: 18 (valid) 0x671-0x671.7 (1)
     |                                               |                |      [5]{}: local_time_type 0x672-0x677.7 (6)
0x670|      ff ff d5 d0                              |  ....          |        utoff: -10800 (valid) 0x672-0x675.7 (4)
0x670|                  00                           |      .         |        dst: 0 (valid) 0x676-0x676.7 (1)
0x670|                     12                        |       .        |        idx: 18 (valid) 0x677-0x677.7 (1)
     |                                               |                |      [6]{}: local_time_type 0x678-0x67d.7 (6)
0x670|                        ff ff dc d8            |        ....    |        utoff: -9000 (valid) 0x678-0x67b.7 (4)
0x670|                                    01         |            .   |        dst: 1 (valid) 0x67c-0x67c.7 (1)
0x670|                                       16      |             .  |        idx: 22 (valid) 0x67d-0x67d.7 (1)
     |                                               |                |      [7]{}: local_time_type 0x67e-0x683.7 (6)
0x670|                                          ff ff|              ..|        utoff: -7200 (valid) 0x67e-0x681.7 (4)
0x680|e3 e0                                          |..              |
0x680|      01                                       |  .             |        dst: 1 (valid) 0x682-0x682.7 (1)
0x680|         1c                                    |   .            |        idx: 28 (valid) 0x683-0x683.7 (1)
     |                                               |                |      [8]{}: local_time_type 0x684-0x689.7 (6)
0x680|            ff ff ea e8                        |    ....        |        utoff: -5400 (valid) 0x684-0x687.7 (4)
0x680|                        01                     |        .       |        dst: 1 (valid) 0x688-0x688.7 (1)
0x680|                           20                  |                |        idx: 32 (valid) 0x689-0x689.7 (1)
     |                                               |                |      [9]{}: local_time_type 0x68a-0x68f.7 (6)
0x680|                              ff ff e3 e0      |          ....  |        utoff: -7200 (valid) 0x68a-0x68d.7 (4)
0x680|                                          01   |              . |        dst: 1 (valid) 0x68e-0x68e.7 (1)
0x680|                                             1c|               .|        idx: 28 (valid) 0x68f-0x68f.7 (1)
     |                                               |                |    time_zone_designations[0:8]: 0x690-0x6b5.7 (38)
0x690|4c 4d 54 00                                    |LMT.            |      [0]: "LMT" time_zone_designation 0x690-0x693.7 (4)
0x690|            4d 4d 54 00                        |    MMT.        |      [1]: "MMT" time_zone_designation 0x694-0x697.7 (4)
0x690|                        2d 30 34 00            |        -04.    |      [2]: "-04" time_zone_designation 0x698-0x69b.7 (4)
0x690|                                    2d 30 33 33|            -033|      [3]: "-0330" time_zone_designation 0x69c-0x6a1.7 (6)
0x6a0|30 00                                          |0.              |
0x6a0|      2d 30 33 00                              |  -03.          |      [4]: "-03" time_zone_designation 0x6a2-0x6a5.7 (4)
0x6a0|                  2d 30 32 33 30 00            |      -0230.    |      [5]: "-0230" time_zone_designation 0x6a6-0x6ab.7 (6)
0x6a0|                                    2d 30 32 00|            -02.|      [6]: "-02" time_zone_designation 0x6ac-0x6af.7 (4)
0x6b0|2d 30 31 33 30 00                              |-0130.          |      [7]: "-0130" time_zone_designation 0x6b0-0x6b5.7 (6)
     |                                               |                |    leap_second_records[0:27]: 0x6b6-0x7f9.7 (324)
     |                                               |                |      [0]{}: leap_second_record 0x6b6-0x6c1.7 (12)
0x6b0|                  00 00 00 00 04 b2 58 00      |      ......X.  |        occur: "1972-07-01T00:00:00Z" (78796800) 0x6b6-0x6bd.7 (8)
0x6b0|                                          00 00|              ..|        corr: 1 0x6be-0x6c1.7 (4)
0x6c0|00 01                                          |..              |
     |                                               |                |      [1]{}: leap_second_record 0x6c2-0x6cd.7 (12)
0x6c0|      00 00 00 00 05 a4 ec 01                  |  ........      |        occur: "1973-01-01T00:00:01Z" (94694401) 0x6c2-0x6c9.7 (8)
0x6c0|                              00 00 00 02      |          ....  |        corr: 2 0x6ca-0x6cd.7 (4)
     |                                               |                |      [2]{}: leap_second_record 0x6ce-0x6d9.7 (12)
0x6c0|                                          00 00|              ..|        occur: "1974-01-01T00:00:02Z" (126230402) 0x6ce-0x6d5.7 (8)
0x6d0|00 00 07 86 1f 82                              |......          |
0x6d0|                  00 00 00 03                  |      ....      |        corr: 3 0x6d6-0x6d9.7 (4)
     |                                               |                |      [3]{}: leap_second_record 0x6da-0x6e5.7 (12)
0x6d0|                              00 00 00 00 09 67|          .....g|        occur: "1975-01-01T00:00:03Z" (157766403) 0x6da-0x6e1.7 (8)
0x6e0|53 03                                          |S.              |
0x6e0|      00 00 00 04                              |  ....          |        corr: 4 0x6e2-0x6e5.7 (4)
     |                                               |                |      [4]{}: leap_second_record 0x6e6-0x6f1.7 (12)
0x6e0|                  00 00 00 00 0b 48 86 84      |      .....H..  |        occur: "1976-01-01T00:00:04Z" (189302404) 0x6e6-0x6ed.7 (8)
0x6e0|                                          00 00|              ..|        corr: 5 0x6ee-0x6f1.7 (4)
0x6f0|00 05                                          |..              |
     |                                               |                |      [5]{}: leap_second_record 0x6f2-0x6fd.7 (12)
0x6f0|      00 00 00 00 0d 2b 0b 85                  |  .....+..      |        occur: "1977-01-01T00:00:05Z" (220924805) 0x6f2-0x6f9.7 (8)
0x6f0|                              00 00 00 06      |          ....  |        corr: 6 0x6fa-0x6fd.7 (4)
     |                                               |                |      [6]{}: leap_second_record 0x6fe-0x709.7 (12)
0x6f0|                                          00 00|              ..|        occur: "1978-01-01T00:00:06Z" (252460806) 0x6fe-0x705.7 (8)
0x700|00 00 0f 0c 3f 06                              |....?.          |
0x700|                  00 00 00 07                  |      ....      |        corr: 7 0x706-0x709.7 (4)
     |                                               |                |      [7]{}: leap_second_record 0x70a-0x715.7 (12)
0x700|                              00 00 00 00 10 ed|          ......|        occur: "1979-01-01T00:00:07Z" (283996807) 0x70a-0x711.7 (8)
0x710|72 87                                          |r.              |
0x710|      00 00 00 08                              |  ....          |        corr: 8 0x712-0x715.7 (4)
     |                                               |                |      [8]{}: leap_second_record 0x716-0x721.7 (12)
0x710|                  00 00 00 00 12 ce a6 08      |      ........  |        occur: "1980-01-01T00:00:08Z" (315532808) 0x716-0x71d.7 (8)
0x710|                                          00 00|              ..|        corr: 9 0x71e-0x721.7 (4)
0x720|00 09                                          |..              |
     |                                               |                |      [9]{}: leap_second_record 0x722-0x72d.7 (12)
0x720|      00 00 00 00 15 9f ca 89                  |  ........      |        occur: "1981-07-01T00:00:09Z" (362793609) 0x722-0x729.7 (8)
0x720|                              00 00 00 0a      |          ....  |        corr: 10 0x72a-0x72d.7 (4)
     |                                               |                |      [10]{}: leap_second_record 0x72e-0x739.7 (12)
0x720|                                          00 00|              ..|        occur: "1982-07-01T00:00:10Z" (394329610) 0x72e-0x735.7 (8)
0x730|00 00 17 80 fe 0a                              |......          |
0x730|                  00 00 00 0b                  |      ....      |        corr: 11 0x736-0x739.7 (4)
     |                                               |                |      [11]{}: leap_second_record 0x73a-0x745.7 (12)
0x730|                              00 00 00 00 19 62|          .....b|        occur: "1983-07-01T00:00:11Z" (425865611) 0x73a-0x741.7 (8)
0x740|31 8b                                          |1.              |
0x740|      00 00 00 0c                              |  ....          |        corr: 12 0x742-0x745.7 (4)
     |                                               |                |      [12]{}: leap_second_record 0x746-0x751.7 (12)
0x740|                  00 00 00 00 1d 25 ea 0c      |      .....%..  |        occur: "1985-07-01T00:00:12Z" (489024012) 0x746-0x74d.7 (8)
0x740|                                          00 00|              ..|        corr: 13 0x74e-0x751.7 (4)
0x750|00 0d                                          |..              |
     |                                               |                |      [13]{}: leap_second_record 0x752-0x75d.7 (12)
0x750|      00 00 00 00 21 da e5 0d                  |  ....!...      |        occur: "1988-01-01T00:00:13Z" (567993613) 0x752-0x759.7 (8)
0x750|                              00 00 00 0e      |          ....  |        corr: 14 0x75a-0x75d.7 (4)
     |                                               |                |      [14]{}: leap_second_record 0x75e-0x769.7 (12)
0x750|                                          00 00|              ..|        occur: "1990-01-01T00:00:14Z" (631152014) 0x75e-0x765.7 (8)
0x760|00 00 25 9e 9d 8e                              |..%...          |
0x760|                  00 00 00 0f                  |      ....      |        corr: 15 0x766-0x769.7 (4)
     |                                               |                |      [15]{}: leap_second_record 0x76a-0x775.7 (12)
0x760|                              00 00 00 00 27 7f|          ....'.|        occur: "1991-01-01T00:00:15Z" (662688015) 0x76a-0x771.7 (8)
0x770|d1 0f                                          |..              |
0x770|      00 00 00 10                              |  ....          |        corr: 16 0x772-0x775.7 (4)
     |                                               |                |      [16]{}: leap_second_record 0x776-0x781.7 (12)
0x770|                  00 00 00 00 2a 50 f5 90      |      ....*P..  |        occur: "1992-07-01T00:00:16Z" (709948816) 0x776-0x77d.7 (8)
0x770|                                          00 00|              ..|        corr: 17 0x77e-0x781.7 (4)
0x780|00 11                                          |..              |
     |                                               |                |      [17]{}: leap_second_record 0x782-0x78d.7 (12)
0x780|      00 00 00 00 2c 32 29 11                  |  ....,2).      |        occur: "1993-07-01T00:00:17Z" (741484817) 0x782-0x789.7 (8)
0x780|                              00 00 00 12      |          ....  |        corr: 18 0x78a-0x78d.7 (4)
     |                                               |                |      [18]{}: leap_second_record 0x78e-0x799.7 (12)
0x780|                                          00 00|              ..|        occur: "1994-07-01T00:00:18Z" (773020818) 0x78e-0x795.7 (8)
0x790|00 00 2e 13 5c 92                              |....\.          |
0x790|                  00 00 00 13                  |      ....      |        corr: 19 0x796-0x799.7 (4)
     |                                               |                |      [19]{}: leap_second_record 0x79a-0x7a5.7 (12)
0x790|                              00 00 00 00 30 e7|          ....0.|        occur: "1996-01-01T00:00:19Z" (820454419) 0x79a-0x7a1.7 (8)
0x7a0|24 13                                          |$.              |
0x7a0|      00 00 00 14                              |  ....          |        corr: 20 0x7a2-0x7a5.7 (4)
     |                                               |                |      [20]{}: leap_second_record 0x7a6-0x7b1.7 (12)
0x7a0|                  00 00 00 00 33 b8 48 94      |      ....3.H.  |        occur: "1997-07-01T00:00:20Z" (867715220) 0x7a6-0x7ad.7 (8)
0x7a0|                                          00 00|              ..|        corr: 21 0x7ae-0x7b1.7 (4)
0x7b0|00 15                                          |..              |
     |                                               |                |      [21]{}: leap_second_record 0x7b2-0x7bd.7 (12)
0x7b0|      00 00 00 00 36 8c 10 15                  |  ....6...      |        occur: "1999-01-01T00:00:21Z" (915148821) 0x7b2-0x7b9.7 (8)
0x7b0|                              00 00 00 16      |          ....  |        corr: 22 0x7ba-0x7bd.7 (4)
     |                                               |                |      [22]{}: leap_second_record 0x7be-0x7c9.7 (12)
0x7b0|                                          00 00|              ..|        occur: "2006-01-01T00:00:22Z" (1136073622) 0x7be-0x7c5.7 (8)
0x7c0|00 00 43 b7 1b 96                              |..C...          |
0x7c0|                  00 00 00 17                  |      ....      |        corr: 23 0x7c6-0x7c9.7 (4)
     |                                               |                |      [23]{}: leap_second_record 0x7ca-0x7d5.7 (12)
0x7c0|                              00 00 00 00 49 5c|          ....I\|        occur: "2009-01-01T00:00:23Z" (1230768023) 0x7ca-0x7d1.7 (8)
0x7d0|07 97                                          |..              |
0x7d0|      00 00 00 18                              |  ....          |        corr: 24 0x7d2-0x7d5.7 (4)
     |                                               |                |      [24]{}: leap_second_record 0x7d6-0x7e1.7 (12)
0x7d0|                  00 00 00 00 4f ef 93 18      |      ....O...  |        occur: "2012-07-01T00:00:24Z" (1341100824) 0x7d6-0x7dd.7 (8)
0x7d0|                                          00 00|              ..|        corr: 25 0x7de-0x7e1.7 (4)
0x7e0|00 19                                          |..              |
     |                                               |                |      [25]{}: leap_second_record 0x7e2-0x7ed.7 (12)
0x7e0|      00 00 00 00 55 93 2d 99                  |  ....U.-.      |        occur: "2015-07-01T00:00:25Z" (1435708825) 0x7e2-0x7e9.7 (8)
0x7e0|                              00 00 00 1a      |          ....  |        corr: 26 0x7ea-0x7ed.7 (4)
     |                                               |                |      [26]{}: leap_second_record 0x7ee-0x7f9.7 (12)
0x7e0|                                          00 00|              ..|        occur: "2017-01-01T00:00:26Z" (1483228826) 0x7ee-0x7f5.7 (8)
0x7f0|00 00 58 68 46 9a                              |..XhF.          |
0x7f0|                  00 00 00 1b                  |      ....      |        corr: 27 0x7f6-0x7f9.7 (4)
     |                                               |                |    standard_wall_indicators[0:0]: 0x7fa-NA (0)
     |                                               |                |    ut_local_indicators[0:0]: 0x7fa-NA (0)
     |                                               |                |  footer{}: 0x7fa-0x7fb.7 (2)
0x7f0|                              0a               |          .     |    nl1: 10 (valid) 0x7fa-0x7fa.7 (1)
     |                                               |                |    tz_string: "" 0x7fb-NA (0)
0x7f0|                                 0a|           |           .|   |    nl2: 10 (valid) 0x7fb-0x7fb.7 (1)
