$ fq -d tzif dv Moscow
     |00 01 02 03 04 05 06 07 08 09 0a 0b 0c 0d 0e 0f|0123456789abcdef|.{}: Moscow (tzif) 0x0-0x5ff (1535)
     |                                               |                |  v1header{}: 0x0-0x2c (44)
0x000|54 5a 69 66                                    |TZif            |    magic: 0x545a6966 (valid) 0x0-0x4 (4)
0x000|            32                                 |    2           |    ver: "2" (0x32) (valid) 0x4-0x5 (1)
0x000|               00 00 00 00 00 00 00 00 00 00 00|     ...........|    reserved: raw bits 0x5-0x14 (15)
0x010|00 00 00 00                                    |....            |
0x010|            00 00 00 11                        |    ....        |    isutcnt: 17 0x14-0x18 (4)
0x010|                        00 00 00 11            |        ....    |    isstdcnt: 17 0x18-0x1c (4)
0x010|                                    00 00 00 00|            ....|    leapcnt: 0 0x1c-0x20 (4)
0x020|00 00 00 4e                                    |...N            |    timecnt: 78 0x20-0x24 (4)
0x020|            00 00 00 11                        |    ....        |    typecnt: 17 0x24-0x28 (4)
0x020|                        00 00 00 26            |        ...&    |    charcnt: 38 0x28-0x2c (4)
     |                                               |                |  v1datablock{}: 0x2c-0x260 (564)
     |                                               |                |    transition_times[0:78]: 0x2c-0x164 (312)
0x020|                                    80 00 00 00|            ....|      [0]: "1901-12-13T20:45:52Z" (-2147483648) transition_time 0x2c-0x30 (4)
0x030|9b 5f 1e c7                                    |._..            |      [1]: "1916-07-02T21:29:43Z" (-1688265017) transition_time 0x30-0x34 (4)
0x030|            9d 3e f2 79                        |    .>.y        |      [2]: "1917-07-01T20:28:41Z" (-1656819079) transition_time 0x34-0x38 (4)
0x030|                        9e 2a ee f9            |        .*..    |      [3]: "1917-12-27T20:28:41Z" (-1641353479) transition_time 0x38-0x3c (4)
0x030|                                    9e f7 39 69|            ..9i|      [4]: "1918-05-31T19:28:41Z" (-1627965079) transition_time 0x3c-0x40 (4)
0x040|9f 84 57 f9                                    |..W.            |      [5]: "1918-09-15T20:28:41Z" (-1618716679) transition_time 0x40-0x44 (4)
0x040|            a0 d8 6c e9                        |    ..l.        |      [6]: "1919-05-31T19:28:41Z" (-1596429079) transition_time 0x44-0x48 (4)
0x040|                        a1 00 39 80            |        ..9.    |      [7]: "1919-07-01T00:00:00Z" (-1593820800) transition_time 0x48-0x4c (4)
0x040|                                    a1 3c a6 40|            .<.@|      [8]: "1919-08-15T20:00:00Z" (-1589860800) transition_time 0x4c-0x50 (4)
0x050|a4 10 6d c0                                    |..m.            |      [9]: "1921-02-14T20:00:00Z" (-1542427200) transition_time 0x50-0x54 (4)
0x050|            a4 3d 32 b0                        |    .=2.        |      [10]: "1921-03-20T19:00:00Z" (-1539493200) transition_time 0x54-0x58 (4)
0x050|                        a5 15 68 b0            |        ..h.    |      [11]: "1921-08-31T19:00:00Z" (-1525323600) transition_time 0x58-0x5c (4)
0x050|                                    a5 3d 03 c0|            .=..|      [12]: "1921-09-30T20:00:00Z" (-1522728000) transition_time 0x5c-0x60 (4)
0x060|a7 1e 45 50                                    |..EP            |      [13]: "1922-09-30T21:00:00Z" (-1491188400) transition_time 0x60-0x64 (4)
0x060|            b5 a4 19 60                        |    ...`        |      [14]: "1930-06-20T22:00:00Z" (-1247536800) transition_time 0x64-0x68 (4)
0x060|                        15 27 a7 d0            |        .'..    |      [15]: "1981-03-31T21:00:00Z" (354920400) transition_time 0x68-0x6c (4)
0x060|                                    16 18 dc 40|            ...@|      [16]: "1981-09-30T20:00:00Z" (370728000) transition_time 0x6c-0x70 (4)
0x070|17 08 db 50                                    |...P            |      [17]: "1982-03-31T21:00:00Z" (386456400) transition_time 0x70-0x74 (4)
0x070|            17 fa 0f c0                        |    ....        |      [18]: "1982-09-30T20:00:00Z" (402264000) transition_time 0x74-0x78 (4)
0x070|                        18 ea 0e d0            |        ....    |      [19]: "1983-03-31T21:00:00Z" (417992400) transition_time 0x78-0x7c (4)
0x070|                                    19 db 43 40|            ..C@|      [20]: "1983-09-30T20:00:00Z" (433800000) transition_time 0x7c-0x80 (4)
0x080|1a cc 93 d0                                    |....            |      [21]: "1984-03-31T21:00:00Z" (449614800) transition_time 0x80-0x84 (4)
0x080|            1b bc a0 f0                        |    ....        |      [22]: "1984-09-29T23:00:00Z" (465346800) transition_time 0x84-0x88 (4)
0x080|                        1c ac 91 f0            |        ....    |      [23]: "1985-03-30T23:00:00Z" (481071600) transition_time 0x88-0x8c (4)
0x080|                                    1d 9c 82 f0|            ....|      [24]: "1985-09-28T23:00:00Z" (496796400) transition_time 0x8c-0x90 (4)
0x090|1e 8c 73 f0                                    |..s.            |      [25]: "1986-03-29T23:00:00Z" (512521200) transition_time 0x90-0x94 (4)
0x090|            1f 7c 64 f0                        |    .|d.        |      [26]: "1986-09-27T23:00:00Z" (528246000) transition_time 0x94-0x98 (4)
0x090|                        20 6c 55 f0            |         lU.    |      [27]: "1987-03-28T23:00:00Z" (543970800) transition_time 0x98-0x9c (4)
0x090|                                    21 5c 46 f0|            !\F.|      [28]: "1987-09-26T23:00:00Z" (559695600) transition_time 0x9c-0xa0 (4)
0x0a0|22 4c 37 f0                                    |"L7.            |      [29]: "1988-03-26T23:00:00Z" (575420400) transition_time 0xa0-0xa4 (4)
0x0a0|            23 3c 28 f0                        |    #<(.        |      [30]: "1988-09-24T23:00:00Z" (591145200) transition_time 0xa4-0xa8 (4)
0x0a0|                        24 2c 19 f0            |        $,..    |      [31]: "1989-03-25T23:00:00Z" (606870000) transition_time 0xa8-0xac (4)
0x0a0|                                    25 1c 0a f0|            %...|      [32]: "1989-09-23T23:00:00Z" (622594800) transition_time 0xac-0xb0 (4)
0x0b0|26 0b fb f0                                    |&...            |      [33]: "1990-03-24T23:00:00Z" (638319600) transition_time 0xb0-0xb4 (4)
0x0b0|            27 05 27 70                        |    '.'p        |      [34]: "1990-09-29T23:00:00Z" (654649200) transition_time 0xb4-0xb8 (4)
0x0b0|                        27 f5 18 70            |        '..p    |      [35]: "1991-03-30T23:00:00Z" (670374000) transition_time 0xb8-0xbc (4)
0x0b0|                                    28 e5 17 80|            (...|      [36]: "1991-09-29T00:00:00Z" (686102400) transition_time 0xbc-0xc0 (4)
0x0c0|29 78 bf 80                                    |)x..            |      [37]: "1992-01-19T00:00:00Z" (695779200) transition_time 0xc0-0xc4 (4)
0x0c0|            29 d4 fa 70                        |    )..p        |      [38]: "1992-03-28T23:00:00Z" (701823600) transition_time 0xc4-0xc8 (4)
0x0c0|                        2a c4 eb 70            |        *..p    |      [39]: "1992-09-26T23:00:00Z" (717548400) transition_time 0xc8-0xcc (4)
0x0c0|                                    2b b4 dc 70|            +..p|      [40]: "1993-03-27T23:00:00Z" (733273200) transition_time 0xcc-0xd0 (4)
0x0d0|2c a4 cd 70                                    |,..p            |      [41]: "1993-09-25T23:00:00Z" (748998000) transition_time 0xd0-0xd4 (4)
0x0d0|            2d 94 be 70                        |    -..p        |      [42]: "1994-03-26T23:00:00Z" (764722800) transition_time 0xd4-0xd8 (4)
0x0d0|                        2e 84 af 70            |        ...p    |      [43]: "1994-09-24T23:00:00Z" (780447600) transition_time 0xd8-0xdc (4)
0x0d0|                                    2f 74 a0 70|            /t.p|      [44]: "1995-03-25T23:00:00Z" (796172400) transition_time 0xdc-0xe0 (4)
0x0e0|30 64 91 70                                    |0d.p            |      [45]: "1995-09-23T23:00:00Z" (811897200) transition_time 0xe0-0xe4 (4)
0x0e0|            31 5d bc f0                        |    1]..        |      [46]: "1996-03-30T23:00:00Z" (828226800) transition_time 0xe4-0xe8 (4)
0x0e0|                        32 72 97 f0            |        2r..    |      [47]: "1996-10-26T23:00:00Z" (846370800) transition_time 0xe8-0xec (4)
0x0e0|                                    33 3d 9e f0|            3=..|      [48]: "1997-03-29T23:00:00Z" (859676400) transition_time 0xec-0xf0 (4)
0x0f0|34 52 79 f0                                    |4Ry.            |      [49]: "1997-10-25T23:00:00Z" (877820400) transition_time 0xf0-0xf4 (4)
0x0f0|            35 1d 80 f0                        |    5...        |      [50]: "1998-03-28T23:00:00Z" (891126000) transition_time 0xf4-0xf8 (4)
0x0f0|                        36 32 5b f0            |        62[.    |      [51]: "1998-10-24T23:00:00Z" (909270000) transition_time 0xf8-0xfc (4)
0x0f0|                                    36 fd 62 f0|            6.b.|      [52]: "1999-03-27T23:00:00Z" (922575600) transition_time 0xfc-0x100 (4)
0x100|38 1b 78 70                                    |8.xp            |      [53]: "1999-10-30T23:00:00Z" (941324400) transition_time 0x100-0x104 (4)
0x100|            38 dd 44 f0                        |    8.D.        |      [54]: "2000-03-25T23:00:00Z" (954025200) transition_time 0x104-0x108 (4)
0x100|                        39 fb 5a 70            |        9.Zp    |      [55]: "2000-10-28T23:00:00Z" (972774000) transition_time 0x108-0x10c (4)
0x100|                                    3a bd 26 f0|            :.&.|      [56]: "2001-03-24T23:00:00Z" (985474800) transition_time 0x10c-0x110 (4)
0x110|3b db 3c 70                                    |;.<p            |      [57]: "2001-10-27T23:00:00Z" (1004223600) transition_time 0x110-0x114 (4)
0x110|            3c a6 43 70                        |    <.Cp        |      [58]: "2002-03-30T23:00:00Z" (1017529200) transition_time 0x114-0x118 (4)
0x110|                        3d bb 1e 70            |        =..p    |      [59]: "2002-10-26T23:00:00Z" (1035673200) transition_time 0x118-0x11c (4)
0x110|                                    3e 86 25 70|            >.%p|      [60]: "2003-03-29T23:00:00Z" (1048978800) transition_time 0x11c-0x120 (4)
0x120|3f 9b 00 70                                    |?..p            |      [61]: "2003-10-25T23:00:00Z" (1067122800) transition_time 0x120-0x124 (4)
0x120|            40 66 07 70                        |    @f.p        |      [62]: "2004-03-27T23:00:00Z" (1080428400) transition_time 0x124-0x128 (4)
0x120|                        41 84 1c f0            |        A...    |      [63]: "2004-10-30T23:00:00Z" (1099177200) transition_time 0x128-0x12c (4)
0x120|                                    42 45 e9 70|            BE.p|      [64]: "2005-03-26T23:00:00Z" (1111878000) transition_time 0x12c-0x130 (4)
0x130|43 63 fe f0                                    |Cc..            |      [65]: "2005-10-29T23:00:00Z" (1130626800) transition_time 0x130-0x134 (4)
0x130|            44 25 cb 70                        |    D%.p        |      [66]: "2006-03-25T23:00:00Z" (1143327600) transition_time 0x134-0x138 (4)
0x130|                        45 43 e0 f0            |        EC..    |      [67]: "2006-10-28T23:00:00Z" (1162076400) transition_time 0x138-0x13c (4)
0x130|                                    46 05 ad 70|            F..p|      [68]: "2007-03-24T23:00:00Z" (1174777200) transition_time 0x13c-0x140 (4)
0x140|47 23 c2 f0                                    |G#..            |      [69]: "2007-10-27T23:00:00Z" (1193526000) transition_time 0x140-0x144 (4)
0x140|            47 ee c9 f0                        |    G...        |      [70]: "2008-03-29T23:00:00Z" (1206831600) transition_time 0x144-0x148 (4)
0x140|                        49 03 a4 f0            |        I...    |      [71]: "2008-10-25T23:00:00Z" (1224975600) transition_time 0x148-0x14c (4)
0x140|                                    49 ce ab f0|            I...|      [72]: "2009-03-28T23:00:00Z" (1238281200) transition_time 0x14c-0x150 (4)
0x150|4a e3 86 f0                                    |J...            |      [73]: "2009-10-24T23:00:00Z" (1256425200) transition_time 0x150-0x154 (4)
0x150|            4b ae 8d f0                        |    K...        |      [74]: "2010-03-27T23:00:00Z" (1269730800) transition_time 0x154-0x158 (4)
0x150|                        4c cc a3 70            |        L..p    |      [75]: "2010-10-30T23:00:00Z" (1288479600) transition_time 0x158-0x15c (4)
0x150|                                    4d 8e 6f f0|            M.o.|      [76]: "2011-03-26T23:00:00Z" (1301180400) transition_time 0x15c-0x160 (4)
0x160|54 4c 1d 60                                    |TL.`            |      [77]: "2014-10-25T22:00:00Z" (1414274400) transition_time 0x160-0x164 (4)
     |                                               |                |    transition_types[0:78]: 0x164-0x1b2 (78)
0x160|            01                                 |    .           |      [0]: 1 transition_type 0x164-0x165 (1)
0x160|               03                              |     .          |      [1]: 3 transition_type 0x165-0x166 (1)
0x160|                  02                           |      .         |      [2]: 2 transition_type 0x166-0x167 (1)
0x160|                     03                        |       .        |      [3]: 3 transition_type 0x167-0x168 (1)
0x160|                        04                     |        .       |      [4]: 4 transition_type 0x168-0x169 (1)
0x160|                           02                  |         .      |      [5]: 2 transition_type 0x169-0x16a (1)
0x160|                              04               |          .     |      [6]: 4 transition_type 0x16a-0x16b (1)
0x160|                                 05            |           .    |      [7]: 5 transition_type 0x16b-0x16c (1)
0x160|                                    06         |            .   |      [8]: 6 transition_type 0x16c-0x16d (1)
0x160|                                       07      |             .  |      [9]: 7 transition_type 0x16d-0x16e (1)
0x160|                                          08   |              . |      [10]: 8 transition_type 0x16e-0x16f (1)
0x160|                                             07|               .|      [11]: 7 transition_type 0x16f-0x170 (1)
0x170|06                                             |.               |      [12]: 6 transition_type 0x170-0x171 (1)
0x170|   09                                          | .              |      [13]: 9 transition_type 0x171-0x172 (1)
0x170|      06                                       |  .             |      [14]: 6 transition_type 0x172-0x173 (1)
0x170|         07                                    |   .            |      [15]: 7 transition_type 0x173-0x174 (1)
0x170|            06                                 |    .           |      [16]: 6 transition_type 0x174-0x175 (1)
0x170|               07                              |     .          |      [17]: 7 transition_type 0x175-0x176 (1)
0x170|                  06                           |      .         |      [18]: 6 transition_type 0x176-0x177 (1)
0x170|                     07                        |       .        |      [19]: 7 transition_type 0x177-0x178 (1)
0x170|                        06                     |        .       |      [20]: 6 transition_type 0x178-0x179 (1)
0x170|                           07                  |         .      |      [21]: 7 transition_type 0x179-0x17a (1)
0x170|                              0a               |          .     |      [22]: 10 transition_type 0x17a-0x17b (1)
0x170|                                 0b            |           .    |      [23]: 11 transition_type 0x17b-0x17c (1)
0x170|                                    0a         |            .   |      [24]: 10 transition_type 0x17c-0x17d (1)
0x170|                                       0b      |             .  |      [25]: 11 transition_type 0x17d-0x17e (1)
0x170|                                          0a   |              . |      [26]: 10 transition_type 0x17e-0x17f (1)
0x170|                                             0b|               .|      [27]: 11 transition_type 0x17f-0x180 (1)
0x180|0a                                             |.               |      [28]: 10 transition_type 0x180-0x181 (1)
0x180|   0b                                          | .              |      [29]: 11 transition_type 0x181-0x182 (1)
0x180|      0a                                       |  .             |      [30]: 10 transition_type 0x182-0x183 (1)
0x180|         0b                                    |   .            |      [31]: 11 transition_type 0x183-0x184 (1)
0x180|            0a                                 |    .           |      [32]: 10 transition_type 0x184-0x185 (1)
0x180|               0b                              |     .          |      [33]: 11 transition_type 0x185-0x186 (1)
0x180|                  0a                           |      .         |      [34]: 10 transition_type 0x186-0x187 (1)
0x180|                     0c                        |       .        |      [35]: 12 transition_type 0x187-0x188 (1)
0x180|                        0d                     |        .       |      [36]: 13 transition_type 0x188-0x189 (1)
0x180|                           0a                  |         .      |      [37]: 10 transition_type 0x189-0x18a (1)
0x180|                              0b               |          .     |      [38]: 11 transition_type 0x18a-0x18b (1)
0x180|                                 0a            |           .    |      [39]: 10 transition_type 0x18b-0x18c (1)
0x180|                                    0b         |            .   |      [40]: 11 transition_type 0x18c-0x18d (1)
0x180|                                       0a      |             .  |      [41]: 10 transition_type 0x18d-0x18e (1)
0x180|                                          0b   |              . |      [42]: 11 transition_type 0x18e-0x18f (1)
0x180|                                             0a|               .|      [43]: 10 transition_type 0x18f-0x190 (1)
0x190|0b                                             |.               |      [44]: 11 transition_type 0x190-0x191 (1)
0x190|   0a                                          | .              |      [45]: 10 transition_type 0x191-0x192 (1)
0x190|      0b                                       |  .             |      [46]: 11 transition_type 0x192-0x193 (1)
0x190|         0a                                    |   .            |      [47]: 10 transition_type 0x193-0x194 (1)
0x190|            0b                                 |    .           |      [48]: 11 transition_type 0x194-0x195 (1)
0x190|               0a                              |     .          |      [49]: 10 transition_type 0x195-0x196 (1)
0x190|                  0b                           |      .         |      [50]: 11 transition_type 0x196-0x197 (1)
0x190|                     0a                        |       .        |      [51]: 10 transition_type 0x197-0x198 (1)
0x190|                        0b                     |        .       |      [52]: 11 transition_type 0x198-0x199 (1)
0x190|                           0a                  |         .      |      [53]: 10 transition_type 0x199-0x19a (1)
0x190|                              0b               |          .     |      [54]: 11 transition_type 0x19a-0x19b (1)
0x190|                                 0a            |           .    |      [55]: 10 transition_type 0x19b-0x19c (1)
0x190|                                    0b         |            .   |      [56]: 11 transition_type 0x19c-0x19d (1)
0x190|                                       0a      |             .  |      [57]: 10 transition_type 0x19d-0x19e (1)
0x190|                                          0b   |              . |      [58]: 11 transition_type 0x19e-0x19f (1)
0x190|                                             0a|               .|      [59]: 10 transition_type 0x19f-0x1a0 (1)
0x1a0|0b                                             |.               |      [60]: 11 transition_type 0x1a0-0x1a1 (1)
0x1a0|   0a                                          | .              |      [61]: 10 transition_type 0x1a1-0x1a2 (1)
0x1a0|      0b                                       |  .             |      [62]: 11 transition_type 0x1a2-0x1a3 (1)
0x1a0|         0a                                    |   .            |      [63]: 10 transition_type 0x1a3-0x1a4 (1)
0x1a0|            0b                                 |    .           |      [64]: 11 transition_type 0x1a4-0x1a5 (1)
0x1a0|               0a                              |     .          |      [65]: 10 transition_type 0x1a5-0x1a6 (1)
0x1a0|                  0b                           |      .         |      [66]: 11 transition_type 0x1a6-0x1a7 (1)
0x1a0|                     0a                        |       .        |      [67]: 10 transition_type 0x1a7-0x1a8 (1)
0x1a0|                        0b                     |        .       |      [68]: 11 transition_type 0x1a8-0x1a9 (1)
0x1a0|                           0a                  |         .      |      [69]: 10 transition_type 0x1a9-0x1aa (1)
0x1a0|                              0b               |          .     |      [70]: 11 transition_type 0x1aa-0x1ab (1)
0x1a0|                                 0a            |           .    |      [71]: 10 transition_type 0x1ab-0x1ac (1)
0x1a0|                                    0b         |            .   |      [72]: 11 transition_type 0x1ac-0x1ad (1)
0x1a0|                                       0a      |             .  |      [73]: 10 transition_type 0x1ad-0x1ae (1)
0x1a0|                                          0b   |              . |      [74]: 11 transition_type 0x1ae-0x1af (1)
0x1a0|                                             0a|               .|      [75]: 10 transition_type 0x1af-0x1b0 (1)
0x1b0|0e                                             |.               |      [76]: 14 transition_type 0x1b0-0x1b1 (1)
0x1b0|   0a                                          | .              |      [77]: 10 transition_type 0x1b1-0x1b2 (1)
     |                                               |                |    local_time_type_records[0:17]: 0x1b2-0x218 (102)
     |                                               |                |      [0]{}: local_time_type 0x1b2-0x1b8 (6)
0x1b0|      00 00 23 39                              |  ..#9          |        utoff: 9017 (valid) 0x1b2-0x1b6 (4)
0x1b0|                  00                           |      .         |        dst: 0 (valid) 0x1b6-0x1b7 (1)
0x1b0|                     00                        |       .        |        idx: 0 (valid) 0x1b7-0x1b8 (1)
     |                                               |                |      [1]{}: local_time_type 0x1b8-0x1be (6)
0x1b0|                        00 00 23 39            |        ..#9    |        utoff: 9017 (valid) 0x1b8-0x1bc (4)
0x1b0|                                    00         |            .   |        dst: 0 (valid) 0x1bc-0x1bd (1)
0x1b0|                                       04      |             .  |        idx: 4 (valid) 0x1bd-0x1be (1)
     |                                               |                |      [2]{}: local_time_type 0x1be-0x1c4 (6)
0x1b0|                                          00 00|              ..|        utoff: 12679 (valid) 0x1be-0x1c2 (4)
0x1c0|31 87                                          |1.              |
0x1c0|      01                                       |  .             |        dst: 1 (valid) 0x1c2-0x1c3 (1)
0x1c0|         08                                    |   .            |        idx: 8 (valid) 0x1c3-0x1c4 (1)
     |                                               |                |      [3]{}: local_time_type 0x1c4-0x1ca (6)
0x1c0|            00 00 23 77                        |    ..#w        |        utoff: 9079 (valid) 0x1c4-0x1c8 (4)
0x1c0|                        00                     |        .       |        dst: 0 (valid) 0x1c8-0x1c9 (1)
0x1c0|                           04                  |         .      |        idx: 4 (valid) 0x1c9-0x1ca (1)
     |                                               |                |      [4]{}: local_time_type 0x1ca-0x1d0 (6)
0x1c0|                              00 00 3f 97      |          ..?.  |        utoff: 16279 (valid) 0x1ca-0x1ce (4)
0x1c0|                                          01   |              . |        dst: 1 (valid) 0x1ce-0x1cf (1)
0x1c0|                                             0c|               .|        idx: 12 (valid) 0x1cf-0x1d0 (1)
     |                                               |                |      [5]{}: local_time_type 0x1d0-0x1d6 (6)
0x1d0|00 00 38 40                                    |..8@            |        utoff: 14400 (valid) 0x1d0-0x1d4 (4)
0x1d0|            01                                 |    .           |        dst: 1 (valid) 0x1d4-0x1d5 (1)
0x1d0|               11                              |     .          |        idx: 17 (valid) 0x1d5-0x1d6 (1)
     |                                               |                |      [6]{}: local_time_type 0x1d6-0x1dc (6)
0x1d0|                  00 00 2a 30                  |      ..*0      |        utoff: 10800 (valid) 0x1d6-0x1da (4)
0x1d0|                              00               |          .     |        dst: 0 (valid) 0x1da-0x1db (1)
0x1d0|                                 15            |           .    |        idx: 21 (valid) 0x1db-0x1dc (1)
     |                                               |                |      [7]{}: local_time_type 0x1dc-0x1e2 (6)
0x1d0|                                    00 00 38 40|            ..8@|        utoff: 14400 (valid) 0x1dc-0x1e0 (4)
0x1e0|01                                             |.               |        dst: 1 (valid) 0x1e0-0x1e1 (1)
0x1e0|   11                                          | .              |        idx: 17 (valid) 0x1e1-0x1e2 (1)
     |                                               |                |      [8]{}: local_time_type 0x1e2-0x1e8 (6)
0x1e0|      00 00 46 50                              |  ..FP          |        utoff: 18000 (valid) 0x1e2-0x1e6 (4)
0x1e0|                  01                           |      .         |        dst: 1 (valid) 0x1e6-0x1e7 (1)
0x1e0|                     19                        |       .        |        idx: 25 (valid) 0x1e7-0x1e8 (1)
     |                                               |                |      [9]{}: local_time_type 0x1e8-0x1ee (6)
0x1e0|                        00 00 1c 20            |        ...     |        utoff: 7200 (valid) 0x1e8-0x1ec (4)
0x1e0|                                    00         |            .   |        dst: 0 (valid) 0x1ec-0x1ed (1)
0x1e0|                                       1d      |             .  |        idx: 29 (valid) 0x1ed-0x1ee (1)
     |                                               |                |      [10]{}: local_time_type 0x1ee-0x1f4 (6)
0x1e0|                                          00 00|              ..|        utoff: 10800 (valid) 0x1ee-0x1f2 (4)
0x1f0|2a 30                                          |*0              |
0x1f0|      00                                       |  .             |        dst: 0 (valid) 0x1f2-0x1f3 (1)
0x1f0|         15                                    |   .            |        idx: 21 (valid) 0x1f3-0x1f4 (1)
     |                                               |                |      [11]{}: local_time_type 0x1f4-0x1fa (6)
0x1f0|            00 00 38 40                        |    ..8@        |        utoff: 14400 (valid) 0x1f4-0x1f8 (4)
0x1f0|                        01                     |        .       |        dst: 1 (valid) 0x1f8-0x1f9 (1)
0x1f0|                           11                  |         .      |        idx: 17 (valid) 0x1f9-0x1fa (1)
     |                                               |                |      [12]{}: local_time_type 0x1fa-0x200 (6)
0x1f0|                              00 00 2a 30      |          ..*0  |        utoff: 10800 (valid) 0x1fa-0x1fe (4)
0x1f0|                                          01   |              . |        dst: 1 (valid) 0x1fe-0x1ff (1)
0x1f0|                                             21|               !|        idx: 33 (valid) 0x1ff-0x200 (1)
     |                                               |                |      [13]{}: local_time_type 0x200-0x206 (6)
0x200|00 00 1c 20                                    |...             |        utoff: 7200 (valid) 0x200-0x204 (4)
0x200|            00                                 |    .           |        dst: 0 (valid) 0x204-0x205 (1)
0x200|               1d                              |     .          |        idx: 29 (valid) 0x205-0x206 (1)
     |                                               |                |      [14]{}: local_time_type 0x206-0x20c (6)
0x200|                  00 00 38 40                  |      ..8@      |        utoff: 14400 (valid) 0x206-0x20a (4)
0x200|                              00               |          .     |        dst: 0 (valid) 0x20a-0x20b (1)
0x200|                                 15            |           .    |        idx: 21 (valid) 0x20b-0x20c (1)
     |                                               |                |      [15]{}: local_time_type 0x20c-0x212 (6)
0x200|                                    00 00 38 40|            ..8@|        utoff: 14400 (valid) 0x20c-0x210 (4)
0x210|01                                             |.               |        dst: 1 (valid) 0x210-0x211 (1)
0x210|   11                                          | .              |        idx: 17 (valid) 0x211-0x212 (1)
     |                                               |                |      [16]{}: local_time_type 0x212-0x218 (6)
0x210|      00 00 2a 30                              |  ..*0          |        utoff: 10800 (valid) 0x212-0x216 (4)
0x210|                  00                           |      .         |        dst: 0 (valid) 0x216-0x217 (1)
0x210|                     15                        |       .        |        idx: 21 (valid) 0x217-0x218 (1)
     |                                               |                |    time_zone_designations[0:9]: 0x218-0x23e (38)
0x210|                        4c 4d 54 00            |        LMT.    |      [0]: "LMT" time_zone_designation 0x218-0x21c (4)
0x210|                                    4d 4d 54 00|            MMT.|      [1]: "MMT" time_zone_designation 0x21c-0x220 (4)
0x220|4d 53 54 00                                    |MST.            |      [2]: "MST" time_zone_designation 0x220-0x224 (4)
0x220|            4d 44 53 54 00                     |    MDST.       |      [3]: "MDST" time_zone_designation 0x224-0x229 (5)
0x220|                           4d 53 44 00         |         MSD.   |      [4]: "MSD" time_zone_designation 0x229-0x22d (4)
0x220|                                       4d 53 4b|             MSK|      [5]: "MSK" time_zone_designation 0x22d-0x231 (4)
0x230|00                                             |.               |
0x230|   2b 30 35 00                                 | +05.           |      [6]: "+05" time_zone_designation 0x231-0x235 (4)
0x230|               45 45 54 00                     |     EET.       |      [7]: "EET" time_zone_designation 0x235-0x239 (4)
0x230|                           45 45 53 54 00      |         EEST.  |      [8]: "EEST" time_zone_designation 0x239-0x23e (5)
     |                                               |                |    leap_second_records[0:0]: 0x23e-0x23e (0)
     |                                               |                |    standard_wall_indicators[0:17]: 0x23e-0x24f (17)
0x230|                                          00   |              . |      [0]: 0 standard_wall_indicator (valid) 0x23e-0x23f (1)
0x230|                                             00|               .|      [1]: 0 standard_wall_indicator (valid) 0x23f-0x240 (1)
0x240|00                                             |.               |      [2]: 0 standard_wall_indicator (valid) 0x240-0x241 (1)
0x240|   00                                          | .              |      [3]: 0 standard_wall_indicator (valid) 0x241-0x242 (1)
0x240|      00                                       |  .             |      [4]: 0 standard_wall_indicator (valid) 0x242-0x243 (1)
0x240|         01                                    |   .            |      [5]: 1 standard_wall_indicator (valid) 0x243-0x244 (1)
0x240|            00                                 |    .           |      [6]: 0 standard_wall_indicator (valid) 0x244-0x245 (1)
0x240|               00                              |     .          |      [7]: 0 standard_wall_indicator (valid) 0x245-0x246 (1)
0x240|                  00                           |      .         |      [8]: 0 standard_wall_indicator (valid) 0x246-0x247 (1)
0x240|                     00                        |       .        |      [9]: 0 standard_wall_indicator (valid) 0x247-0x248 (1)
0x240|                        01                     |        .       |      [10]: 1 standard_wall_indicator (valid) 0x248-0x249 (1)
0x240|                           01                  |         .      |      [11]: 1 standard_wall_indicator (valid) 0x249-0x24a (1)
0x240|                              01               |          .     |      [12]: 1 standard_wall_indicator (valid) 0x24a-0x24b (1)
0x240|                                 01            |           .    |      [13]: 1 standard_wall_indicator (valid) 0x24b-0x24c (1)
0x240|                                    01         |            .   |      [14]: 1 standard_wall_indicator (valid) 0x24c-0x24d (1)
0x240|                                       01      |             .  |      [15]: 1 standard_wall_indicator (valid) 0x24d-0x24e (1)
0x240|                                          01   |              . |      [16]: 1 standard_wall_indicator (valid) 0x24e-0x24f (1)
     |                                               |                |    ut_local_indicators[0:17]: 0x24f-0x260 (17)
0x240|                                             00|               .|      [0]: 0 ut_local_indicator (valid) 0x24f-0x250 (1)
0x250|00                                             |.               |      [1]: 0 ut_local_indicator (valid) 0x250-0x251 (1)
0x250|   00                                          | .              |      [2]: 0 ut_local_indicator (valid) 0x251-0x252 (1)
0x250|      00                                       |  .             |      [3]: 0 ut_local_indicator (valid) 0x252-0x253 (1)
0x250|         00                                    |   .            |      [4]: 0 ut_local_indicator (valid) 0x253-0x254 (1)
0x250|            01                                 |    .           |      [5]: 1 ut_local_indicator (valid) 0x254-0x255 (1)
0x250|               00                              |     .          |      [6]: 0 ut_local_indicator (valid) 0x255-0x256 (1)
0x250|                  00                           |      .         |      [7]: 0 ut_local_indicator (valid) 0x256-0x257 (1)
0x250|                     00                        |       .        |      [8]: 0 ut_local_indicator (valid) 0x257-0x258 (1)
0x250|                        00                     |        .       |      [9]: 0 ut_local_indicator (valid) 0x258-0x259 (1)
0x250|                           00                  |         .      |      [10]: 0 ut_local_indicator (valid) 0x259-0x25a (1)
0x250|                              00               |          .     |      [11]: 0 ut_local_indicator (valid) 0x25a-0x25b (1)
0x250|                                 00            |           .    |      [12]: 0 ut_local_indicator (valid) 0x25b-0x25c (1)
0x250|                                    00         |            .   |      [13]: 0 ut_local_indicator (valid) 0x25c-0x25d (1)
0x250|                                       00      |             .  |      [14]: 0 ut_local_indicator (valid) 0x25d-0x25e (1)
0x250|                                          00   |              . |      [15]: 0 ut_local_indicator (valid) 0x25e-0x25f (1)
0x250|                                             00|               .|      [16]: 0 ut_local_indicator (valid) 0x25f-0x260 (1)
     |                                               |                |  v2plusheader{}: 0x260-0x28c (44)
0x260|54 5a 69 66                                    |TZif            |    magic: 0x545a6966 (valid) 0x260-0x264 (4)
0x260|            32                                 |    2           |    ver: "2" (0x32) (valid) 0x264-0x265 (1)
0x260|               00 00 00 00 00 00 00 00 00 00 00|     ...........|    reserved: raw bits 0x265-0x274 (15)
0x270|00 00 00 00                                    |....            |
0x270|            00 00 00 11                        |    ....        |    isutcnt: 17 0x274-0x278 (4)
0x270|                        00 00 00 11            |        ....    |    isstdcnt: 17 0x278-0x27c (4)
0x270|                                    00 00 00 00|            ....|    leapcnt: 0 0x27c-0x280 (4)
0x280|00 00 00 4e                                    |...N            |    timecnt: 78 0x280-0x284 (4)
0x280|            00 00 00 11                        |    ....        |    typecnt: 17 0x284-0x288 (4)
0x280|                        00 00 00 26            |        ...&    |    charcnt: 38 0x288-0x28c (4)
     |                                               |                |  v2plusdatablock{}: 0x28c-0x5f8 (876)
     |                                               |                |    transition_times[0:78]: 0x28c-0x4fc (624)
0x280|                                    ff ff ff ff|            ....|      [0]: "1879-12-31T21:29:43Z" (-2840149817) transition_time 0x28c-0x294 (8)
0x290|56 b6 c0 c7                                    |V...            |
0x290|            ff ff ff ff 9b 5f 1e c7            |    ....._..    |      [1]: "1916-07-02T21:29:43Z" (-1688265017) transition_time 0x294-0x29c (8)
0x290|                                    ff ff ff ff|            ....|      [2]: "1917-07-01T20:28:41Z" (-1656819079) transition_time 0x29c-0x2a4 (8)
0x2a0|9d 3e f2 79                                    |.>.y            |
0x2a0|            ff ff ff ff 9e 2a ee f9            |    .....*..    |      [3]: "1917-12-27T20:28:41Z" (-1641353479) transition_time 0x2a4-0x2ac (8)
0x2a0|                                    ff ff ff ff|            ....|      [4]: "1918-05-31T19:28:41Z" (-1627965079) transition_time 0x2ac-0x2b4 (8)
0x2b0|9e f7 39 69                                    |..9i            |
0x2b0|            ff ff ff ff 9f 84 57 f9            |    ......W.    |      [5]: "1918-09-15T20:28:41Z" (-1618716679) transition_time 0x2b4-0x2bc (8)
0x2b0|                                    ff ff ff ff|            ....|      [6]: "1919-05-31T19:28:41Z" (-1596429079) transition_time 0x2bc-0x2c4 (8)
0x2c0|a0 d8 6c e9                                    |..l.            |
0x2c0|            ff ff ff ff a1 00 39 80            |    ......9.    |      [7]: "1919-07-01T00:00:00Z" (-1593820800) transition_time 0x2c4-0x2cc (8)
0x2c0|                                    ff ff ff ff|            ....|      [8]: "1919-08-15T20:00:00Z" (-1589860800) transition_time 0x2cc-0x2d4 (8)
0x2d0|a1 3c a6 40                                    |.<.@            |
0x2d0|            ff ff ff ff a4 10 6d c0            |    ......m.    |      [9]: "1921-02-14T20:00:00Z" (-1542427200) transition_time 0x2d4-0x2dc (8)
0x2d0|                                    ff ff ff ff|            ....|      [10]: "1921-03-20T19:00:00Z" (-1539493200) transition_time 0x2dc-0x2e4 (8)
0x2e0|a4 3d 32 b0                                    |.=2.            |
0x2e0|            ff ff ff ff a5 15 68 b0            |    ......h.    |      [11]: "1921-08-31T19:00:00Z" (-1525323600) transition_time 0x2e4-0x2ec (8)
0x2e0|                                    ff ff ff ff|            ....|      [12]: "1921-09-30T20:00:00Z" (-1522728000) transition_time 0x2ec-0x2f4 (8)
0x2f0|a5 3d 03 c0                                    |.=..            |
0x2f0|            ff ff ff ff a7 1e 45 50            |    ......EP    |      [13]: "1922-09-30T21:00:00Z" (-1491188400) transition_time 0x2f4-0x2fc (8)
0x2f0|                                    ff ff ff ff|            ....|      [14]: "1930-06-20T22:00:00Z" (-1247536800) transition_time 0x2fc-0x304 (8)
0x300|b5 a4 19 60                                    |...`            |
0x300|            00 00 00 00 15 27 a7 d0            |    .....'..    |      [15]: "1981-03-31T21:00:00Z" (354920400) transition_time 0x304-0x30c (8)
0x300|                                    00 00 00 00|            ....|      [16]: "1981-09-30T20:00:00Z" (370728000) transition_time 0x30c-0x314 (8)
0x310|16 18 dc 40                                    |...@            |
0x310|            00 00 00 00 17 08 db 50            |    .......P    |      [17]: "1982-03-31T21:00:00Z" (386456400) transition_time 0x314-0x31c (8)
0x310|                                    00 00 00 00|            ....|      [18]: "1982-09-30T20:00:00Z" (402264000) transition_time 0x31c-0x324 (8)
0x320|17 fa 0f c0                                    |....            |
0x320|            00 00 00 00 18 ea 0e d0            |    ........    |      [19]: "1983-03-31T21:00:00Z" (417992400) transition_time 0x324-0x32c (8)
0x320|                                    00 00 00 00|            ....|      [20]: "1983-09-30T20:00:00Z" (433800000) transition_time 0x32c-0x334 (8)
0x330|19 db 43 40                                    |..C@            |
0x330|            00 00 00 00 1a cc 93 d0            |    ........    |      [21]: "1984-03-31T21:00:00Z" (449614800) transition_time 0x334-0x33c (8)
0x330|                                    00 00 00 00|            ....|      [22]: "1984-09-29T23:00:00Z" (465346800) transition_time 0x33c-0x344 (8)
0x340|1b bc a0 f0                                    |....            |
0x340|            00 00 00 00 1c ac 91 f0            |    ........    |      [23]: "1985-03-30T23:00:00Z" (481071600) transition_time 0x344-0x34c (8)
0x340|                                    00 00 00 00|            ....|      [24]: "1985-09-28T23:00:00Z" (496796400) transition_time 0x34c-0x354 (8)
0x350|1d 9c 82 f0                                    |....            |
0x350|            00 00 00 00 1e 8c 73 f0            |    ......s.    |      [25]: "1986-03-29T23:00:00Z" (512521200) transition_time 0x354-0x35c (8)
0x350|                                    00 00 00 00|            ....|      [26]: "1986-09-27T23:00:00Z" (528246000) transition_time 0x35c-0x364 (8)
0x360|1f 7c 64 f0                                    |.|d.            |
0x360|            00 00 00 00 20 6c 55 f0            |    .... lU.    |      [27]: "1987-03-28T23:00:00Z" (543970800) transition_time 0x364-0x36c (8)
0x360|                                    00 00 00 00|            ....|      [28]: "1987-09-26T23:00:00Z" (559695600) transition_time 0x36c-0x374 (8)
0x370|21 5c 46 f0                                    |!\F.            |
0x370|            00 00 00 00 22 4c 37 f0            |    ...."L7.    |      [29]: "1988-03-26T23:00:00Z" (575420400) transition_time 0x374-0x37c (8)
0x370|                                    00 00 00 00|            ....|      [30]: "1988-09-24T23:00:00Z" (591145200) transition_time 0x37c-0x384 (8)
0x380|23 3c 28 f0                                    |#<(.            |
0x380|            00 00 00 00 24 2c 19 f0            |    ....$,..    |      [31]: "1989-03-25T23:00:00Z" (606870000) transition_time 0x384-0x38c (8)
0x380|                                    00 00 00 00|            ....|      [32]: "1989-09-23T23:00:00Z" (622594800) transition_time 0x38c-0x394 (8)
0x390|25 1c 0a f0                                    |%...            |
0x390|            00 00 00 00 26 0b fb f0            |    ....&...    |      [33]: "1990-03-24T23:00:00Z" (638319600) transition_time 0x394-0x39c (8)
0x390|                                    00 00 00 00|            ....|      [34]: "1990-09-29T23:00:00Z" (654649200) transition_time 0x39c-0x3a4 (8)
0x3a0|27 05 27 70                                    |'.'p            |
0x3a0|            00 00 00 00 27 f5 18 70            |    ....'..p    |      [35]: "1991-03-30T23:00:00Z" (670374000) transition_time 0x3a4-0x3ac (8)
0x3a0|                                    00 00 00 00|            ....|      [36]: "1991-09-29T00:00:00Z" (686102400) transition_time 0x3ac-0x3b4 (8)
0x3b0|28 e5 17 80                                    |(...            |
0x3b0|            00 00 00 00 29 78 bf 80            |    ....)x..    |      [37]: "1992-01-19T00:00:00Z" (695779200) transition_time 0x3b4-0x3bc (8)
0x3b0|                                    00 00 00 00|            ....|      [38]: "1992-03-28T23:00:00Z" (701823600) transition_time 0x3bc-0x3c4 (8)
0x3c0|29 d4 fa 70                                    |)..p            |
0x3c0|            00 00 00 00 2a c4 eb 70            |    ....*..p    |      [39]: "1992-09-26T23:00:00Z" (717548400) transition_time 0x3c4-0x3cc (8)
0x3c0|                                    00 00 00 00|            ....|      [40]: "1993-03-27T23:00:00Z" (733273200) transition_time 0x3cc-0x3d4 (8)
0x3d0|2b b4 dc 70                                    |+..p            |
0x3d0|            00 00 00 00 2c a4 cd 70            |    ....,..p    |      [41]: "1993-09-25T23:00:00Z" (748998000) transition_time 0x3d4-0x3dc (8)
0x3d0|                                    00 00 00 00|            ....|      [42]: "1994-03-26T23:00:00Z" (764722800) transition_time 0x3dc-0x3e4 (8)
0x3e0|2d 94 be 70                                    |-..p            |
0x3e0|            00 00 00 00 2e 84 af 70            |    .......p    |      [43]: "1994-09-24T23:00:00Z" (780447600) transition_time 0x3e4-0x3ec (8)
0x3e0|                                    00 00 00 00|            ....|      [44]: "1995-03-25T23:00:00Z" (796172400) transition_time 0x3ec-0x3f4 (8)
0x3f0|2f 74 a0 70                                    |/t.p            |
0x3f0|            00 00 00 00 30 64 91 70            |    ....0d.p    |      [45]: "1995-09-23T23:00:00Z" (811897200) transition_time 0x3f4-0x3fc (8)
0x3f0|                                    00 00 00 00|            ....|      [46]: "1996-03-30T23:00:00Z" (828226800) transition_time 0x3fc-0x404 (8)
0x400|31 5d bc f0                                    |1]..            |
0x400|            00 00 00 00 32 72 97 f0            |    ....2r..    |      [47]: "1996-10-26T23:00:00Z" (846370800) transition_time 0x404-0x40c (8)
0x400|                                    00 00 00 00|            ....|      [48]: "1997-03-29T23:00:00Z" (859676400) transition_time 0x40c-0x414 (8)
0x410|33 3d 9e f0                                    |3=..            |
0x410|            00 00 00 00 34 52 79 f0            |    ....4Ry.    |      [49]: "1997-10-25T23:00:00Z" (877820400) transition_time 0x414-0x41c (8)
0x410|                                    00 00 00 00|            ....|      [50]: "1998-03-28T23:00:00Z" (891126000) transition_time 0x41c-0x424 (8)
0x420|35 1d 80 f0                                    |5...            |
0x420|            00 00 00 00 36 32 5b f0            |    ....62[.    |      [51]: "1998-10-24T23:00:00Z" (909270000) transition_time 0x424-0x42c (8)
0x420|                                    00 00 00 00|            ....|      [52]: "1999-03-27T23:00:00Z" (922575600) transition_time 0x42c-0x434 (8)
0x430|36 fd 62 f0                                    |6.b.            |
0x430|            00 00 00 00 38 1b 78 70            |    ....8.xp    |      [53]: "1999-10-30T23:00:00Z" (941324400) transition_time 0x434-0x43c (8)
0x430|                                    00 00 00 00|            ....|      [54]: "2000-03-25T23:00:00Z" (954025200) transition_time 0x43c-0x444 (8)
0x440|38 dd 44 f0                                    |8.D.            |
0x440|            00 00 00 00 39 fb 5a 70            |    ....9.Zp    |      [55]: "2000-10-28T23:00:00Z" (972774000) transition_time 0x444-0x44c (8)
0x440|                                    00 00 00 00|            ....|      [56]: "2001-03-24T23:00:00Z" (985474800) transition_time 0x44c-0x454 (8)
0x450|3a bd 26 f0                                    |:.&.            |
0x450|            00 00 00 00 3b db 3c 70            |    ....;.<p    |      [57]: "2001-10-27T23:00:00Z" (1004223600) transition_time 0x454-0x45c (8)
0x450|                                    00 00 00 00|            ....|      [58]: "2002-03-30T23:00:00Z" (1017529200) transition_time 0x45c-0x464 (8)
0x460|3c a6 43 70                                    |<.Cp            |
0x460|            00 00 00 00 3d bb 1e 70            |    ....=..p    |      [59]: "2002-10-26T23:00:00Z" (1035673200) transition_time 0x464-0x46c (8)
0x460|                                    00 00 00 00|            ....|      [60]: "2003-03-29T23:00:00Z" (1048978800) transition_time 0x46c-0x474 (8)
0x470|3e 86 25 70                                    |>.%p            |
0x470|            00 00 00 00 3f 9b 00 70            |    ....?..p    |      [61]: "2003-10-25T23:00:00Z" (1067122800) transition_time 0x474-0x47c (8)
0x470|                                    00 00 00 00|            ....|      [62]: "2004-03-27T23:00:00Z" (1080428400) transition_time 0x47c-0x484 (8)
0x480|40 66 07 70                                    |@f.p            |
0x480|            00 00 00 00 41 84 1c f0            |    ....A...    |      [63]: "2004-10-30T23:00:00Z" (1099177200) transition_time 0x484-0x48c (8)
0x480|                                    00 00 00 00|            ....|      [64]: "2005-03-26T23:00:00Z" (1111878000) transition_time 0x48c-0x494 (8)
0x490|42 45 e9 70                                    |BE.p            |
0x490|            00 00 00 00 43 63 fe f0            |    ....Cc..    |      [65]: "2005-10-29T23:00:00Z" (1130626800) transition_time 0x494-0x49c (8)
0x490|                                    00 00 00 00|            ....|      [66]: "2006-03-25T23:00:00Z" (1143327600) transition_time 0x49c-0x4a4 (8)
0x4a0|44 25 cb 70                                    |D%.p            |
0x4a0|            00 00 00 00 45 43 e0 f0            |    ....EC..    |      [67]: "2006-10-28T23:00:00Z" (1162076400) transition_time 0x4a4-0x4ac (8)
0x4a0|                                    00 00 00 00|            ....|      [68]: "2007-03-24T23:00:00Z" (1174777200) transition_time 0x4ac-0x4b4 (8)
0x4b0|46 05 ad 70                                    |F..p            |
0x4b0|            00 00 00 00 47 23 c2 f0            |    ....G#..    |      [69]: "2007-10-27T23:00:00Z" (1193526000) transition_time 0x4b4-0x4bc (8)
0x4b0|                                    00 00 00 00|            ....|      [70]: "2008-03-29T23:00:00Z" (1206831600) transition_time 0x4bc-0x4c4 (8)
0x4c0|47 ee c9 f0                                    |G...            |
0x4c0|            00 00 00 00 49 03 a4 f0            |    ....I...    |      [71]: "2008-10-25T23:00:00Z" (1224975600) transition_time 0x4c4-0x4cc (8)
0x4c0|                                    00 00 00 00|            ....|      [72]: "2009-03-28T23:00:00Z" (1238281200) transition_time 0x4cc-0x4d4 (8)
0x4d0|49 ce ab f0                                    |I...            |
0x4d0|            00 00 00 00 4a e3 86 f0            |    ....J...    |      [73]: "2009-10-24T23:00:00Z" (1256425200) transition_time 0x4d4-0x4dc (8)
0x4d0|                                    00 00 00 00|            ....|      [74]: "2010-03-27T23:00:00Z" (1269730800) transition_time 0x4dc-0x4e4 (8)
0x4e0|4b ae 8d f0                                    |K...            |
0x4e0|            00 00 00 00 4c cc a3 70            |    ....L..p    |      [75]: "2010-10-30T23:00:00Z" (1288479600) transition_time 0x4e4-0x4ec (8)
0x4e0|                                    00 00 00 00|            ....|      [76]: "2011-03-26T23:00:00Z" (1301180400) transition_time 0x4ec-0x4f4 (8)
0x4f0|4d 8e 6f f0                                    |M.o.            |
0x4f0|            00 00 00 00 54 4c 1d 60            |    ....TL.`    |      [77]: "2014-10-25T22:00:00Z" (1414274400) transition_time 0x4f4-0x4fc (8)
     |                                               |                |    transition_types[0:78]: 0x4fc-0x54a (78)
0x4f0|                                    01         |            .   |      [0]: 1 transition_type 0x4fc-0x4fd (1)
0x4f0|                                       03      |             .  |      [1]: 3 transition_type 0x4fd-0x4fe (1)
0x4f0|                                          02   |              . |      [2]: 2 transition_type 0x4fe-0x4ff (1)
0x4f0|                                             03|               .|      [3]: 3 transition_type 0x4ff-0x500 (1)
0x500|04                                             |.               |      [4]: 4 transition_type 0x500-0x501 (1)
0x500|   02                                          | .              |      [5]: 2 transition_type 0x501-0x502 (1)
0x500|      04                                       |  .             |      [6]: 4 transition_type 0x502-0x503 (1)
0x500|         05                                    |   .            |      [7]: 5 transition_type 0x503-0x504 (1)
0x500|            06                                 |    .           |      [8]: 6 transition_type 0x504-0x505 (1)
0x500|               07                              |     .          |      [9]: 7 transition_type 0x505-0x506 (1)
0x500|                  08                           |      .         |      [10]: 8 transition_type 0x506-0x507 (1)
0x500|                     07                        |       .        |      [11]: 7 transition_type 0x507-0x508 (1)
0x500|                        06                     |        .       |      [12]: 6 transition_type 0x508-0x509 (1)
0x500|                           09                  |         .      |      [13]: 9 transition_type 0x509-0x50a (1)
0x500|                              06               |          .     |      [14]: 6 transition_type 0x50a-0x50b (1)
0x500|                                 07            |           .    |      [15]: 7 transition_type 0x50b-0x50c (1)
0x500|                                    06         |            .   |      [16]: 6 transition_type 0x50c-0x50d (1)
0x500|                                       07      |             .  |      [17]: 7 transition_type 0x50d-0x50e (1)
0x500|                                          06   |              . |      [18]: 6 transition_type 0x50e-0x50f (1)
0x500|                                             07|               .|      [19]: 7 transition_type 0x50f-0x510 (1)
0x510|06                                             |.               |      [20]: 6 transition_type 0x510-0x511 (1)
0x510|   07                                          | .              |      [21]: 7 transition_type 0x511-0x512 (1)
0x510|      0a                                       |  .             |      [22]: 10 transition_type 0x512-0x513 (1)
0x510|         0b                                    |   .            |      [23]: 11 transition_type 0x513-0x514 (1)
0x510|            0a                                 |    .           |      [24]: 10 transition_type 0x514-0x515 (1)
0x510|               0b                              |     .          |      [25]: 11 transition_type 0x515-0x516 (1)
0x510|                  0a                           |      .         |      [26]: 10 transition_type 0x516-0x517 (1)
0x510|                     0b                        |       .        |      [27]: 11 transition_type 0x517-0x518 (1)
0x510|                        0a                     |        .       |      [28]: 10 transition_type 0x518-0x519 (1)
0x510|                           0b                  |         .      |      [29]: 11 transition_type 0x519-0x51a (1)
0x510|                              0a               |          .     |      [30]: 10 transition_type 0x51a-0x51b (1)
0x510|                                 0b            |           .    |      [31]: 11 transition_type 0x51b-0x51c (1)
0x510|                                    0a         |            .   |      [32]: 10 transition_type 0x51c-0x51d (1)
0x510|                                       0b      |             .  |      [33]: 11 transition_type 0x51d-0x51e (1)
0x510|                                          0a   |              . |      [34]: 10 transition_type 0x51e-0x51f (1)
0x510|                                             0c|               .|      [35]: 12 transition_type 0x51f-0x520 (1)
0x520|0d                                             |.               |      [36]: 13 transition_type 0x520-0x521 (1)
0x520|   0a                                          | .              |      [37]: 10 transition_type 0x521-0x522 (1)
0x520|      0b                                       |  .             |      [38]: 11 transition_type 0x522-0x523 (1)
0x520|         0a                                    |   .            |      [39]: 10 transition_type 0x523-0x524 (1)
0x520|            0b                                 |    .           |      [40]: 11 transition_type 0x524-0x525 (1)
0x520|               0a                              |     .          |      [41]: 10 transition_type 0x525-0x526 (1)
0x520|                  0b                           |      .         |      [42]: 11 transition_type 0x526-0x527 (1)
0x520|                     0a                        |       .        |      [43]: 10 transition_type 0x527-0x528 (1)
0x520|                        0b                     |        .       |      [44]: 11 transition_type 0x528-0x529 (1)
0x520|                           0a                  |         .      |      [45]: 10 transition_type 0x529-0x52a (1)
0x520|                              0b               |          .     |      [46]: 11 transition_type 0x52a-0x52b (1)
0x520|                                 0a            |           .    |      [47]: 10 transition_type 0x52b-0x52c (1)
0x520|                                    0b         |            .   |      [48]: 11 transition_type 0x52c-0x52d (1)
0x520|                                       0a      |             .  |      [49]: 10 transition_type 0x52d-0x52e (1)
0x520|                                          0b   |              . |      [50]: 11 transition_type 0x52e-0x52f (1)
0x520|                                             0a|               .|      [51]: 10 transition_type 0x52f-0x530 (1)
0x530|0b                                             |.               |      [52]: 11 transition_type 0x530-0x531 (1)
0x530|   0a                                          | .              |      [53]: 10 transition_type 0x531-0x532 (1)
0x530|      0b                                       |  .             |      [54]: 11 transition_type 0x532-0x533 (1)
0x530|         0a                                    |   .            |      [55]: 10 transition_type 0x533-0x534 (1)
0x530|            0b                                 |    .           |      [56]: 11 transition_type 0x534-0x535 (1)
0x530|               0a                              |     .          |      [57]: 10 transition_type 0x535-0x536 (1)
0x530|                  0b                           |      .         |      [58]: 11 transition_type 0x536-0x537 (1)
0x530|                     0a                        |       .        |      [59]: 10 transition_type 0x537-0x538 (1)
0x530|                        0b                     |        .       |      [60]: 11 transition_type 0x538-0x539 (1)
0x530|                           0a                  |         .      |      [61]: 10 transition_type 0x539-0x53a (1)
0x530|                              0b               |          .     |      [62]: 11 transition_type 0x53a-0x53b (1)
0x530|                                 0a            |           .    |      [63]: 10 transition_type 0x53b-0x53c (1)
0x530|                                    0b         |            .   |      [64]: 11 transition_type 0x53c-0x53d (1)
0x530|                                       0a      |             .  |      [65]: 10 transition_type 0x53d-0x53e (1)
0x530|                                          0b   |              . |      [66]: 11 transition_type 0x53e-0x53f (1)
0x530|                                             0a|               .|      [67]: 10 transition_type 0x53f-0x540 (1)
0x540|0b                                             |.               |      [68]: 11 transition_type 0x540-0x541 (1)
0x540|   0a                                          | .              |      [69]: 10 transition_type 0x541-0x542 (1)
0x540|      0b                                       |  .             |      [70]: 11 transition_type 0x542-0x543 (1)
0x540|         0a                                    |   .            |      [71]: 10 transition_type 0x543-0x544 (1)
0x540|            0b                                 |    .           |      [72]: 11 transition_type 0x544-0x545 (1)
0x540|               0a                              |     .          |      [73]: 10 transition_type 0x545-0x546 (1)
0x540|                  0b                           |      .         |      [74]: 11 transition_type 0x546-0x547 (1)
0x540|                     0a                        |       .        |      [75]: 10 transition_type 0x547-0x548 (1)
0x540|                        0e                     |        .       |      [76]: 14 transition_type 0x548-0x549 (1)
0x540|                           0a                  |         .      |      [77]: 10 transition_type 0x549-0x54a (1)
     |                                               |                |    local_time_type_records[0:17]: 0x54a-0x5b0 (102)
     |                                               |                |      [0]{}: local_time_type 0x54a-0x550 (6)
0x540|                              00 00 23 39      |          ..#9  |        utoff: 9017 (valid) 0x54a-0x54e (4)
0x540|                                          00   |              . |        dst: 0 (valid) 0x54e-0x54f (1)
0x540|                                             00|               .|        idx: 0 (valid) 0x54f-0x550 (1)
     |                                               |                |      [1]{}: local_time_type 0x550-0x556 (6)
0x550|00 00 23 39                                    |..#9            |        utoff: 9017 (valid) 0x550-0x554 (4)
0x550|            00                                 |    .           |        dst: 0 (valid) 0x554-0x555 (1)
0x550|               04                              |     .          |        idx: 4 (valid) 0x555-0x556 (1)
     |                                               |                |      [2]{}: local_time_type 0x556-0x55c (6)
0x550|                  00 00 31 87                  |      ..1.      |        utoff: 12679 (valid) 0x556-0x55a (4)
0x550|                              01               |          .     |        dst: 1 (valid) 0x55a-0x55b (1)
0x550|                                 08            |           .    |        idx: 8 (valid) 0x55b-0x55c (1)
     |                                               |                |      [3]{}: local_time_type 0x55c-0x562 (6)
0x550|                                    00 00 23 77|            ..#w|        utoff: 9079 (valid) 0x55c-0x560 (4)
0x560|00                                             |.               |        dst: 0 (valid) 0x560-0x561 (1)
0x560|   04                                          | .              |        idx: 4 (valid) 0x561-0x562 (1)
     |                                               |                |      [4]{}: local_time_type 0x562-0x568 (6)
0x560|      00 00 3f 97                              |  ..?.          |        utoff: 16279 (valid) 0x562-0x566 (4)
0x560|                  01                           |      .         |        dst: 1 (valid) 0x566-0x567 (1)
0x560|                     0c                        |       .        |        idx: 12 (valid) 0x567-0x568 (1)
     |                                               |                |      [5]{}: local_time_type 0x568-0x56e (6)
0x560|                        00 00 38 40            |        ..8@    |        utoff: 14400 (valid) 0x568-0x56c (4)
0x560|                                    01         |            .   |        dst: 1 (valid) 0x56c-0x56d (1)
0x560|                                       11      |             .  |        idx: 17 (valid) 0x56d-0x56e (1)
     |                                               |                |      [6]{}: local_time_type 0x56e-0x574 (6)
0x560|                                          00 00|              ..|        utoff: 10800 (valid) 0x56e-0x572 (4)
0x570|2a 30                                          |*0              |
0x570|      00                                       |  .             |        dst: 0 (valid) 0x572-0x573 (1)
0x570|         15                                    |   .            |        idx: 21 (valid) 0x573-0x574 (1)
     |                                               |                |      [7]{}: local_time_type 0x574-0x57a (6)
0x570|            00 00 38 40                        |    ..8@        |        utoff: 14400 (valid) 0x574-0x578 (4)
0x570|                        01                     |        .       |        dst: 1 (valid) 0x578-0x579 (1)
0x570|                           11                  |         .      |        idx: 17 (valid) 0x579-0x57a (1)
     |                                               |                |      [8]{}: local_time_type 0x57a-0x580 (6)
0x570|                              00 00 46 50      |          ..FP  |        utoff: 18000 (valid) 0x57a-0x57e (4)
0x570|                                          01   |              . |        dst: 1 (valid) 0x57e-0x57f (1)
0x570|                                             19|               .|        idx: 25 (valid) 0x57f-0x580 (1)
     |                                               |                |      [9]{}: local_time_type 0x580-0x586 (6)
0x580|00 00 1c 20                                    |...             |        utoff: 7200 (valid) 0x580-0x584 (4)
0x580|            00                                 |    .           |        dst: 0 (valid) 0x584-0x585 (1)
0x580|               1d                              |     .          |        idx: 29 (valid) 0x585-0x586 (1)
     |                                               |                |      [10]{}: local_time_type 0x586-0x58c (6)
0x580|                  00 00 2a 30                  |      ..*0      |        utoff: 10800 (valid) 0x586-0x58a (4)
0x580|                              00               |          .     |        dst: 0 (valid) 0x58a-0x58b (1)
0x580|                                 15            |           .    |        idx: 21 (valid) 0x58b-0x58c (1)
     |                                               |                |      [11]{}: local_time_type 0x58c-0x592 (6)
0x580|                                    00 00 38 40|            ..8@|        utoff: 14400 (valid) 0x58c-0x590 (4)
0x590|01                                             |.               |        dst: 1 (valid) 0x590-0x591 (1)
0x590|   11                                          | .              |        idx: 17 (valid) 0x591-0x592 (1)
     |                                               |                |      [12]{}: local_time_type 0x592-0x598 (6)
0x590|      00 00 2a 30                              |  ..*0          |        utoff: 10800 (valid) 0x592-0x596 (4)
0x590|                  01                           |      .         |        dst: 1 (valid) 0x596-0x597 (1)
0x590|                     21                        |       !        |        idx: 33 (valid) 0x597-0x598 (1)
     |                                               |                |      [13]{}: local_time_type 0x598-0x59e (6)
0x590|                        00 00 1c 20            |        ...     |        utoff: 7200 (valid) 0x598-0x59c (4)
0x590|                                    00         |            .   |        dst: 0 (valid) 0x59c-0x59d (1)
0x590|                                       1d      |             .  |        idx: 29 (valid) 0x59d-0x59e (1)
     |                                               |                |      [14]{}: local_time_type 0x59e-0x5a4 (6)
0x590|                                          00 00|              ..|        utoff: 14400 (valid) 0x59e-0x5a2 (4)
0x5a0|38 40                                          |8@              |
0x5a0|      00                                       |  .             |        dst: 0 (valid) 0x5a2-0x5a3 (1)
0x5a0|         15                                    |   .            |        idx: 21 (valid) 0x5a3-0x5a4 (1)
     |                                               |                |      [15]{}: local_time_type 0x5a4-0x5aa (6)
0x5a0|            00 00 38 40                        |    ..8@        |        utoff: 14400 (valid) 0x5a4-0x5a8 (4)
0x5a0|                        01                     |        .       |        dst: 1 (valid) 0x5a8-0x5a9 (1)
0x5a0|                           11                  |         .      |        idx: 17 (valid) 0x5a9-0x5aa (1)
     |                                               |                |      [16]{}: local_time_type 0x5aa-0x5b0 (6)
0x5a0|                              00 00 2a 30      |          ..*0  |        utoff: 10800 (valid) 0x5aa-0x5ae (4)
0x5a0|                                          00   |              . |        dst: 0 (valid) 0x5ae-0x5af (1)
0x5a0|                                             15|               .|        idx: 21 (valid) 0x5af-0x5b0 (1)
     |                                               |                |    time_zone_designations[0:9]: 0x5b0-0x5d6 (38)
0x5b0|4c 4d 54 00                                    |LMT.            |      [0]: "LMT" time_zone_designation 0x5b0-0x5b4 (4)
0x5b0|            4d 4d 54 00                        |    MMT.        |      [1]: "MMT" time_zone_designation 0x5b4-0x5b8 (4)
0x5b0|                        4d 53 54 00            |        MST.    |      [2]: "MST" time_zone_designation 0x5b8-0x5bc (4)
0x5b0|                                    4d 44 53 54|            MDST|      [3]: "MDST" time_zone_designation 0x5bc-0x5c1 (5)
0x5c0|00                                             |.               |
0x5c0|   4d 53 44 00                                 | MSD.           |      [4]: "MSD" time_zone_designation 0x5c1-0x5c5 (4)
0x5c0|               4d 53 4b 00                     |     MSK.       |      [5]: "MSK" time_zone_designation 0x5c5-0x5c9 (4)
0x5c0|                           2b 30 35 00         |         +05.   |      [6]: "+05" time_zone_designation 0x5c9-0x5cd (4)
0x5c0|                                       45 45 54|             EET|      [7]: "EET" time_zone_designation 0x5cd-0x5d1 (4)
0x5d0|00                                             |.               |
0x5d0|   45 45 53 54 00                              | EEST.          |      [8]: "EEST" time_zone_designation 0x5d1-0x5d6 (5)
     |                                               |                |    leap_second_records[0:0]: 0x5d6-0x5d6 (0)
     |                                               |                |    standard_wall_indicators[0:17]: 0x5d6-0x5e7 (17)
0x5d0|                  00                           |      .         |      [0]: 0 standard_wall_indicator (valid) 0x5d6-0x5d7 (1)
0x5d0|                     00                        |       .        |      [1]: 0 standard_wall_indicator (valid) 0x5d7-0x5d8 (1)
0x5d0|                        00                     |        .       |      [2]: 0 standard_wall_indicator (valid) 0x5d8-0x5d9 (1)
0x5d0|                           00                  |         .      |      [3]: 0 standard_wall_indicator (valid) 0x5d9-0x5da (1)
0x5d0|                              00               |          .     |      [4]: 0 standard_wall_indicator (valid) 0x5da-0x5db (1)
0x5d0|                                 01            |           .    |      [5]: 1 standard_wall_indicator (valid) 0x5db-0x5dc (1)
0x5d0|                                    00         |            .   |      [6]: 0 standard_wall_indicator (valid) 0x5dc-0x5dd (1)
0x5d0|                                       00      |             .  |      [7]: 0 standard_wall_indicator (valid) 0x5dd-0x5de (1)
0x5d0|                                          00   |              . |      [8]: 0 standard_wall_indicator (valid) 0x5de-0x5df (1)
0x5d0|                                             00|               .|      [9]: 0 standard_wall_indicator (valid) 0x5df-0x5e0 (1)
0x5e0|01                                             |.               |      [10]: 1 standard_wall_indicator (valid) 0x5e0-0x5e1 (1)
0x5e0|   01                                          | .              |      [11]: 1 standard_wall_indicator (valid) 0x5e1-0x5e2 (1)
0x5e0|      01                                       |  .             |      [12]: 1 standard_wall_indicator (valid) 0x5e2-0x5e3 (1)
0x5e0|         01                                    |   .            |      [13]: 1 standard_wall_indicator (valid) 0x5e3-0x5e4 (1)
0x5e0|            01                                 |    .           |      [14]: 1 standard_wall_indicator (valid) 0x5e4-0x5e5 (1)
0x5e0|               01                              |     .          |      [15]: 1 standard_wall_indicator (valid) 0x5e5-0x5e6 (1)
0x5e0|                  01                           |      .         |      [16]: 1 standard_wall_indicator (valid) 0x5e6-0x5e7 (1)
     |                                               |                |    ut_local_indicators[0:17]: 0x5e7-0x5f8 (17)
0x5e0|                     00                        |       .        |      [0]: 0 ut_local_indicator (valid) 0x5e7-0x5e8 (1)
0x5e0|                        00                     |        .       |      [1]: 0 ut_local_indicator (valid) 0x5e8-0x5e9 (1)
0x5e0|                           00                  |         .      |      [2]: 0 ut_local_indicator (valid) 0x5e9-0x5ea (1)
0x5e0|                              00               |          .     |      [3]: 0 ut_local_indicator (valid) 0x5ea-0x5eb (1)
0x5e0|                                 00            |           .    |      [4]: 0 ut_local_indicator (valid) 0x5eb-0x5ec (1)
0x5e0|                                    01         |            .   |      [5]: 1 ut_local_indicator (valid) 0x5ec-0x5ed (1)
0x5e0|                                       00      |             .  |      [6]: 0 ut_local_indicator (valid) 0x5ed-0x5ee (1)
0x5e0|                                          00   |              . |      [7]: 0 ut_local_indicator (valid) 0x5ee-0x5ef (1)
0x5e0|                                             00|               .|      [8]: 0 ut_local_indicator (valid) 0x5ef-0x5f0 (1)
0x5f0|00                                             |.               |      [9]: 0 ut_local_indicator (valid) 0x5f0-0x5f1 (1)
0x5f0|   00                                          | .              |      [10]: 0 ut_local_indicator (valid) 0x5f1-0x5f2 (1)
0x5f0|      00                                       |  .             |      [11]: 0 ut_local_indicator (valid) 0x5f2-0x5f3 (1)
0x5f0|         00                                    |   .            |      [12]: 0 ut_local_indicator (valid) 0x5f3-0x5f4 (1)
0x5f0|            00                                 |    .           |      [13]: 0 ut_local_indicator (valid) 0x5f4-0x5f5 (1)
0x5f0|               00                              |     .          |      [14]: 0 ut_local_indicator (valid) 0x5f5-0x5f6 (1)
0x5f0|                  00                           |      .         |      [15]: 0 ut_local_indicator (valid) 0x5f6-0x5f7 (1)
0x5f0|                     00                        |       .        |      [16]: 0 ut_local_indicator (valid) 0x5f7-0x5f8 (1)
     |                                               |                |  footer{}: 0x5f8-0x5ff (7)
0x5f0|                        0a                     |        .       |    nl1: 10 (valid) 0x5f8-0x5f9 (1)
0x5f0|                           4d 53 4b 2d 33      |         MSK-3  |    tz_string: "MSK-3" 0x5f9-0x5fe (5)
0x5f0|                                          0a|  |              .||    nl2: 10 (valid) 0x5fe-0x5ff (1)
