$ fq -d tzif dv MST7MDT
     |00 01 02 03 04 05 06 07 08 09 0a 0b 0c 0d 0e 0f|0123456789abcdef|.{}: MST7MDT (tzif) 0x0-0x905.7 (2310)
     |                                               |                |  v1header{}: 0x0-0x2b.7 (44)
0x000|54 5a 69 66                                    |TZif            |    magic: 0x545a6966 (valid) 0x0-0x3.7 (4)
0x000|            32                                 |    2           |    ver: "2" (0x32) (valid) 0x4-0x4.7 (1)
0x000|               00 00 00 00 00 00 00 00 00 00 00|     ...........|    reserved: raw bits 0x5-0x13.7 (15)
0x010|00 00 00 00                                    |....            |
0x010|            00 00 00 05                        |    ....        |    isutcnt: 5 0x14-0x17.7 (4)
0x010|                        00 00 00 05            |        ....    |    isstdcnt: 5 0x18-0x1b.7 (4)
0x010|                                    00 00 00 00|            ....|    leapcnt: 0 0x1c-0x1f.7 (4)
0x020|00 00 00 95                                    |....            |    timecnt: 149 0x20-0x23.7 (4)
0x020|            00 00 00 05                        |    ....        |    typecnt: 5 0x24-0x27.7 (4)
0x020|                        00 00 00 10            |        ....    |    charcnt: 16 0x28-0x2b.7 (4)
     |                                               |                |  v1datablock{}: 0x2c-0x34c.7 (801)
     |                                               |                |    transition_times[0:149]: 0x2c-0x27f.7 (596)
0x020|                                    9e a6 3a 90|            ..:.|      [0]: "1918-03-31T09:00:00Z" (-1633273200) transition_time 0x2c-0x2f.7 (4)
0x030|9f bb 07 80                                    |....            |      [1]: "1918-10-27T08:00:00Z" (-1615132800) transition_time 0x30-0x33.7 (4)
0x030|            a0 86 1c 90                        |    ....        |      [2]: "1919-03-30T09:00:00Z" (-1601823600) transition_time 0x34-0x37.7 (4)
0x030|                        a1 9a e9 80            |        ....    |      [3]: "1919-10-26T08:00:00Z" (-1583683200) transition_time 0x38-0x3b.7 (4)
0x030|                                    cb 89 0c 90|            ....|      [4]: "1942-02-09T09:00:00Z" (-880210800) transition_time 0x3c-0x3f.7 (4)
0x040|d2 23 f4 70                                    |.#.p            |      [5]: "1945-08-14T23:00:00Z" (-769395600) transition_time 0x40-0x43.7 (4)
0x040|            d2 61 18 00                        |    .a..        |      [6]: "1945-09-30T08:00:00Z" (-765388800) transition_time 0x44-0x47.7 (4)
0x040|                        fa f8 75 10            |        ..u.    |      [7]: "1967-04-30T09:00:00Z" (-84380400) transition_time 0x48-0x4b.7 (4)
0x040|                                    fb e8 58 00|            ..X.|      [8]: "1967-10-29T08:00:00Z" (-68659200) transition_time 0x4c-0x4f.7 (4)
0x050|fc d8 57 10                                    |..W.            |      [9]: "1968-04-28T09:00:00Z" (-52930800) transition_time 0x50-0x53.7 (4)
0x050|            fd c8 3a 00                        |    ..:.        |      [10]: "1968-10-27T08:00:00Z" (-37209600) transition_time 0x54-0x57.7 (4)
0x050|                        fe b8 39 10            |        ..9.    |      [11]: "1969-04-27T09:00:00Z" (-21481200) transition_time 0x58-0x5b.7 (4)
0x050|                                    ff a8 1c 00|            ....|      [12]: "1969-10-26T08:00:00Z" (-5760000) transition_time 0x5c-0x5f.7 (4)
0x060|00 98 1b 10                                    |....            |      [13]: "1970-04-26T09:00:00Z" (9968400) transition_time 0x60-0x63.7 (4)
0x060|            01 87 fe 00                        |    ....        |      [14]: "1970-10-25T08:00:00Z" (25689600) transition_time 0x64-0x67.7 (4)
0x060|                        02 77 fd 10            |        .w..    |      [15]: "1971-04-25T09:00:00Z" (41418000) transition_time 0x68-0x6b.7 (4)
0x060|                                    03 71 1a 80|            .q..|      [16]: "1971-10-31T08:00:00Z" (57744000) transition_time 0x6c-0x6f.7 (4)
0x070|04 61 19 90                                    |.a..            |      [17]: "1972-04-30T09:00:00Z" (73472400) transition_time 0x70-0x73.7 (4)
0x070|            05 50 fc 80                        |    .P..        |      [18]: "1972-10-29T08:00:00Z" (89193600) transition_time 0x74-0x77.7 (4)
0x070|                        06 40 fb 90            |        .@..    |      [19]: "1973-04-29T09:00:00Z" (104922000) transition_time 0x78-0x7b.7 (4)
0x070|                                    07 30 de 80|            .0..|      [20]: "1973-10-28T08:00:00Z" (120643200) transition_time 0x7c-0x7f.7 (4)
0x080|07 8d 35 90                                    |..5.            |      [21]: "1974-01-06T09:00:00Z" (126694800) transition_time 0x80-0x83.7 (4)
0x080|            09 10 c0 80                        |    ....        |      [22]: "1974-10-27T08:00:00Z" (152092800) transition_time 0x84-0x87.7 (4)
0x080|                        09 ad b1 10            |        ....    |      [23]: "1975-02-23T09:00:00Z" (162378000) transition_time 0x88-0x8b.7 (4)
0x080|                                    0a f0 a2 80|            ....|      [24]: "1975-10-26T08:00:00Z" (183542400) transition_time 0x8c-0x8f.7 (4)
0x090|0b e0 a1 90                                    |....            |      [25]: "1976-04-25T09:00:00Z" (199270800) transition_time 0x90-0x93.7 (4)
0x090|            0c d9 bf 00                        |    ....        |      [26]: "1976-10-31T08:00:00Z" (215596800) transition_time 0x94-0x97.7 (4)
0x090|                        0d c0 83 90            |        ....    |      [27]: "1977-04-24T09:00:00Z" (230720400) transition_time 0x98-0x9b.7 (4)
0x090|                                    0e b9 a1 00|            ....|      [28]: "1977-10-30T08:00:00Z" (247046400) transition_time 0x9c-0x9f.7 (4)
0x0a0|0f a9 a0 10                                    |....            |      [29]: "1978-04-30T09:00:00Z" (262774800) transition_time 0xa0-0xa3.7 (4)
0x0a0|            10 99 83 00                        |    ....        |      [30]: "1978-10-29T08:00:00Z" (278496000) transition_time 0xa4-0xa7.7 (4)
0x0a0|                        11 89 82 10            |        ....    |      [31]: "1979-04-29T09:00:00Z" (294224400) transition_time 0xa8-0xab.7 (4)
0x0a0|                                    12 79 65 00|            .ye.|      [32]: "1979-10-28T08:00:00Z" (309945600) transition_time 0xac-0xaf.7 (4)
0x0b0|13 69 64 10                                    |.id.            |      [33]: "1980-04-27T09:00:00Z" (325674000) transition_time 0xb0-0xb3.7 (4)
0x0b0|            14 59 47 00                        |    .YG.        |      [34]: "1980-10-26T08:00:00Z" (341395200) transition_time 0xb4-0xb7.7 (4)
0x0b0|                        15 49 46 10            |        .IF.    |      [35]: "1981-04-26T09:00:00Z" (357123600) transition_time 0xb8-0xbb.7 (4)
0x0b0|                                    16 39 29 00|            .9).|      [36]: "1981-10-25T08:00:00Z" (372844800) transition_time 0xbc-0xbf.7 (4)
0x0c0|17 29 28 10                                    |.)(.            |      [37]: "1982-04-25T09:00:00Z" (388573200) transition_time 0xc0-0xc3.7 (4)
0x0c0|            18 22 45 80                        |    ."E.        |      [38]: "1982-10-31T08:00:00Z" (404899200) transition_time 0xc4-0xc7.7 (4)
0x0c0|                        19 09 0a 10            |        ....    |      [39]: "1983-04-24T09:00:00Z" (420022800) transition_time 0xc8-0xcb.7 (4)
0x0c0|                                    1a 02 27 80|            ..'.|      [40]: "1983-10-30T08:00:00Z" (436348800) transition_time 0xcc-0xcf.7 (4)
0x0d0|1a f2 26 90                                    |..&.            |      [41]: "1984-04-29T09:00:00Z" (452077200) transition_time 0xd0-0xd3.7 (4)
0x0d0|            1b e2 09 80                        |    ....        |      [42]: "1984-10-28T08:00:00Z" (467798400) transition_time 0xd4-0xd7.7 (4)
0x0d0|                        1c d2 08 90            |        ....    |      [43]: "1985-04-28T09:00:00Z" (483526800) transition_time 0xd8-0xdb.7 (4)
0x0d0|                                    1d c1 eb 80|            ....|      [44]: "1985-10-27T08:00:00Z" (499248000) transition_time 0xdc-0xdf.7 (4)
0x0e0|1e b1 ea 90                                    |....            |      [45]: "1986-04-27T09:00:00Z" (514976400) transition_time 0xe0-0xe3.7 (4)
0x0e0|            1f a1 cd 80                        |    ....        |      [46]: "1986-10-26T08:00:00Z" (530697600) transition_time 0xe4-0xe7.7 (4)
0x0e0|                        20 76 1d 10            |         v..    |      [47]: "1987-04-05T09:00:00Z" (544611600) transition_time 0xe8-0xeb.7 (4)
0x0e0|                                    21 81 af 80|            !...|      [48]: "1987-10-25T08:00:00Z" (562147200) transition_time 0xec-0xef.7 (4)
0x0f0|22 55 ff 10                                    |"U..            |      [49]: "1988-04-03T09:00:00Z" (576061200) transition_time 0xf0-0xf3.7 (4)
0x0f0|            23 6a cc 00                        |    #j..        |      [50]: "1988-10-30T08:00:00Z" (594201600) transition_time 0xf4-0xf7.7 (4)
0x0f0|                        24 35 e1 10            |        $5..    |      [51]: "1989-04-02T09:00:00Z" (607510800) transition_time 0xf8-0xfb.7 (4)
0x0f0|                                    25 4a ae 00|            %J..|      [52]: "1989-10-29T08:00:00Z" (625651200) transition_time 0xfc-0xff.7 (4)
0x100|26 15 c3 10                                    |&...            |      [53]: "1990-04-01T09:00:00Z" (638960400) transition_time 0x100-0x103.7 (4)
0x100|            27 2a 90 00                        |    '*..        |      [54]: "1990-10-28T08:00:00Z" (657100800) transition_time 0x104-0x107.7 (4)
0x100|                        27 fe df 90            |        '...    |      [55]: "1991-04-07T09:00:00Z" (671014800) transition_time 0x108-0x10b.7 (4)
0x100|                                    29 0a 72 00|            ).r.|      [56]: "1991-10-27T08:00:00Z" (688550400) transition_time 0x10c-0x10f.7 (4)
0x110|29 de c1 90                                    |)...            |      [57]: "1992-04-05T09:00:00Z" (702464400) transition_time 0x110-0x113.7 (4)
0x110|            2a ea 54 00                        |    *.T.        |      [58]: "1992-10-25T08:00:00Z" (720000000) transition_time 0x114-0x117.7 (4)
0x110|                        2b be a3 90            |        +...    |      [59]: "1993-04-04T09:00:00Z" (733914000) transition_time 0x118-0x11b.7 (4)
0x110|                                    2c d3 70 80|            ,.p.|      [60]: "1993-10-31T08:00:00Z" (752054400) transition_time 0x11c-0x11f.7 (4)
0x120|2d 9e 85 90                                    |-...            |      [61]: "1994-04-03T09:00:00Z" (765363600) transition_time 0x120-0x123.7 (4)
0x120|            2e b3 52 80                        |    ..R.        |      [62]: "1994-10-30T08:00:00Z" (783504000) transition_time 0x124-0x127.7 (4)
0x120|                        2f 7e 67 90            |        /~g.    |      [63]: "1995-04-02T09:00:00Z" (796813200) transition_time 0x128-0x12b.7 (4)
0x120|                                    30 93 34 80|            0.4.|      [64]: "1995-10-29T08:00:00Z" (814953600) transition_time 0x12c-0x12f.7 (4)
0x130|31 67 84 10                                    |1g..            |      [65]: "1996-04-07T09:00:00Z" (828867600) transition_time 0x130-0x133.7 (4)
0x130|            32 73 16 80                        |    2s..        |      [66]: "1996-10-27T08:00:00Z" (846403200) transition_time 0x134-0x137.7 (4)
0x130|                        33 47 66 10            |        3Gf.    |      [67]: "1997-04-06T09:00:00Z" (860317200) transition_time 0x138-0x13b.7 (4)
0x130|                                    34 52 f8 80|            4R..|      [68]: "1997-10-26T08:00:00Z" (877852800) transition_time 0x13c-0x13f.7 (4)
0x140|35 27 48 10                                    |5'H.            |      [69]: "1998-04-05T09:00:00Z" (891766800) transition_time 0x140-0x143.7 (4)
0x140|            36 32 da 80                        |    62..        |      [70]: "1998-10-25T08:00:00Z" (909302400) transition_time 0x144-0x147.7 (4)
0x140|                        37 07 2a 10            |        7.*.    |      [71]: "1999-04-04T09:00:00Z" (923216400) transition_time 0x148-0x14b.7 (4)
0x140|                                    38 1b f7 00|            8...|      [72]: "1999-10-31T08:00:00Z" (941356800) transition_time 0x14c-0x14f.7 (4)
0x150|38 e7 0c 10                                    |8...            |      [73]: "2000-04-02T09:00:00Z" (954666000) transition_time 0x150-0x153.7 (4)
0x150|            39 fb d9 00                        |    9...        |      [74]: "2000-10-29T08:00:00Z" (972806400) transition_time 0x154-0x157.7 (4)
0x150|                        3a c6 ee 10            |        :...    |      [75]: "2001-04-01T09:00:00Z" (986115600) transition_time 0x158-0x15b.7 (4)
0x150|                                    3b db bb 00|            ;...|      [76]: "2001-10-28T08:00:00Z" (1004256000) transition_time 0x15c-0x15f.7 (4)
0x160|3c b0 0a 90                                    |<...            |      [77]: "2002-04-07T09:00:00Z" (1018170000) transition_time 0x160-0x163.7 (4)
0x160|            3d bb 9d 00                        |    =...        |      [78]: "2002-10-27T08:00:00Z" (1035705600) transition_time 0x164-0x167.7 (4)
0x160|                        3e 8f ec 90            |        >...    |      [79]: "2003-04-06T09:00:00Z" (1049619600) transition_time 0x168-0x16b.7 (4)
0x160|                                    3f 9b 7f 00|            ?...|      [80]: "2003-10-26T08:00:00Z" (1067155200) transition_time 0x16c-0x16f.7 (4)
0x170|40 6f ce 90                                    |@o..            |      [81]: "2004-04-04T09:00:00Z" (1081069200) transition_time 0x170-0x173.7 (4)
0x170|            41 84 9b 80                        |    A...        |      [82]: "2004-10-31T08:00:00Z" (1099209600) transition_time 0x174-0x177.7 (4)
0x170|                        42 4f b0 90            |        BO..    |      [83]: "2005-04-03T09:00:00Z" (1112518800) transition_time 0x178-0x17b.7 (4)
0x170|                                    43 64 7d 80|            Cd}.|      [84]: "2005-10-30T08:00:00Z" (1130659200) transition_time 0x17c-0x17f.7 (4)
0x180|44 2f 92 90                                    |D/..            |      [85]: "2006-04-02T09:00:00Z" (1143968400) transition_time 0x180-0x183.7 (4)
0x180|            45 44 5f 80                        |    ED_.        |      [86]: "2006-10-29T08:00:00Z" (1162108800) transition_time 0x184-0x187.7 (4)
0x180|                        45 f3 c5 10            |        E...    |      [87]: "2007-03-11T09:00:00Z" (1173603600) transition_time 0x188-0x18b.7 (4)
0x180|                                    47 2d 7c 00|            G-|.|      [88]: "2007-11-04T08:00:00Z" (1194163200) transition_time 0x18c-0x18f.7 (4)
0x190|47 d3 a7 10                                    |G...            |      [89]: "2008-03-09T09:00:00Z" (1205053200) transition_time 0x190-0x193.7 (4)
0x190|            49 0d 5e 00                        |    I.^.        |      [90]: "2008-11-02T08:00:00Z" (1225612800) transition_time 0x194-0x197.7 (4)
0x190|                        49 b3 89 10            |        I...    |      [91]: "2009-03-08T09:00:00Z" (1236502800) transition_time 0x198-0x19b.7 (4)
0x190|                                    4a ed 40 00|            J.@.|      [92]: "2009-11-01T08:00:00Z" (1257062400) transition_time 0x19c-0x19f.7 (4)
0x1a0|4b 9c a5 90                                    |K...            |      [93]: "2010-03-14T09:00:00Z" (1268557200) transition_time 0x1a0-0x1a3.7 (4)
0x1a0|            4c d6 5c 80                        |    L.\.        |      [94]: "2010-11-07T08:00:00Z" (1289116800) transition_time 0x1a4-0x1a7.7 (4)
0x1a0|                        4d 7c 87 90            |        M|..    |      [95]: "2011-03-13T09:00:00Z" (1300006800) transition_time 0x1a8-0x1ab.7 (4)
0x1a0|                                    4e b6 3e 80|            N.>.|      [96]: "2011-11-06T08:00:00Z" (1320566400) transition_time 0x1ac-0x1af.7 (4)
0x1b0|4f 5c 69 90                                    |O\i.            |      [97]: "2012-03-11T09:00:00Z" (1331456400) transition_time 0x1b0-0x1b3.7 (4)
0x1b0|            50 96 20 80                        |    P. .        |      [98]: "2012-11-04T08:00:00Z" (1352016000) transition_time 0x1b4-0x1b7.7 (4)
0x1b0|                        51 3c 4b 90            |        Q<K.    |      [99]: "2013-03-10T09:00:00Z" (1362906000) transition_time 0x1b8-0x1bb.7 (4)
0x1b0|                                    52 76 02 80|            Rv..|      [100]: "2013-11-03T08:00:00Z" (1383465600) transition_time 0x1bc-0x1bf.7 (4)
0x1c0|53 1c 2d 90                                    |S.-.            |      [101]: "2014-03-09T09:00:00Z" (1394355600) transition_time 0x1c0-0x1c3.7 (4)
0x1c0|            54 55 e4 80                        |    TU..        |      [102]: "2014-11-02T08:00:00Z" (1414915200) transition_time 0x1c4-0x1c7.7 (4)
0x1c0|                        54 fc 0f 90            |        T...    |      [103]: "2015-03-08T09:00:00Z" (1425805200) transition_time 0x1c8-0x1cb.7 (4)
0x1c0|                                    56 35 c6 80|            V5..|      [104]: "2015-11-01T08:00:00Z" (1446364800) transition_time 0x1cc-0x1cf.7 (4)
0x1d0|56 e5 2c 10                                    |V.,.            |      [105]: "2016-03-13T09:00:00Z" (1457859600) transition_time 0x1d0-0x1d3.7 (4)
0x1d0|            58 1e e3 00                        |    X...        |      [106]: "2016-11-06T08:00:00Z" (1478419200) transition_time 0x1d4-0x1d7.7 (4)
0x1d0|                        58 c5 0e 10            |        X...    |      [107]: "2017-03-12T09:00:00Z" (1489309200) transition_time 0x1d8-0x1db.7 (4)
0x1d0|                                    59 fe c5 00|            Y...|      [108]: "2017-11-05T08:00:00Z" (1509868800) transition_time 0x1dc-0x1df.7 (4)
0x1e0|5a a4 f0 10                                    |Z...            |      [109]: "2018-03-11T09:00:00Z" (1520758800) transition_time 0x1e0-0x1e3.7 (4)
0x1e0|            5b de a7 00                        |    [...        |      [110]: "2018-11-04T08:00:00Z" (1541318400) transition_time 0x1e4-0x1e7.7 (4)
0x1e0|                        5c 84 d2 10            |        \...    |      [111]: "2019-03-10T09:00:00Z" (1552208400) transition_time 0x1e8-0x1eb.7 (4)
0x1e0|                                    5d be 89 00|            ]...|      [112]: "2019-11-03T08:00:00Z" (1572768000) transition_time 0x1ec-0x1ef.7 (4)
0x1f0|5e 64 b4 10                                    |^d..            |      [113]: "2020-03-08T09:00:00Z" (1583658000) transition_time 0x1f0-0x1f3.7 (4)
0x1f0|            5f 9e 6b 00                        |    _.k.        |      [114]: "2020-11-01T08:00:00Z" (1604217600) transition_time 0x1f4-0x1f7.7 (4)
0x1f0|                        60 4d d0 90            |        `M..    |      [115]: "2021-03-14T09:00:00Z" (1615712400) transition_time 0x1f8-0x1fb.7 (4)
0x1f0|                                    61 87 87 80|            a...|      [116]: "2021-11-07T08:00:00Z" (1636272000) transition_time 0x1fc-0x1ff.7 (4)
0x200|62 2d b2 90                                    |b-..            |      [117]: "2022-03-13T09:00:00Z" (1647162000) transition_time 0x200-0x203.7 (4)
0x200|            63 67 69 80                        |    cgi.        |      [118]: "2022-11-06T08:00:00Z" (1667721600) transition_time 0x204-0x207.7 (4)
0x200|                        64 0d 94 90            |        d...    |      [119]: "2023-03-12T09:00:00Z" (1678611600) transition_time 0x208-0x20b.7 (4)
0x200|                                    65 47 4b 80|            eGK.|      [120]: "2023-11-05T08:00:00Z" (1699171200) transition_time 0x20c-0x20f.7 (4)
0x210|65 ed 76 90                                    |e.v.            |      [121]: "2024-03-10T09:00:00Z" (1710061200) transition_time 0x210-0x213.7 (4)
0x210|            67 27 2d 80                        |    g'-.        |      [122]: "2024-11-03T08:00:00Z" (1730620800) transition_time 0x214-0x217.7 (4)
0x210|                        67 cd 58 90            |        g.X.    |      [123]: "2025-03-09T09:00:00Z" (1741510800) transition_time 0x218-0x21b.7 (4)
0x210|                                    69 07 0f 80|            i...|      [124]: "2025-11-02T08:00:00Z" (1762070400) transition_time 0x21c-0x21f.7 (4)
0x220|69 ad 3a 90                                    |i.:.            |      [125]: "2026-03-08T09:00:00Z" (1772960400) transition_time 0x220-0x223.7 (4)
0x220|            6a e6 f1 80                        |    j...        |      [126]: "2026-11-01T08:00:00Z" (1793520000) transition_time 0x224-0x227.7 (4)
0x220|                        6b 96 57 10            |        k.W.    |      [127]: "2027-03-14T09:00:00Z" (1805014800) transition_time 0x228-0x22b.7 (4)
0x220|                                    6c d0 0e 00|            l...|      [128]: "2027-11-07T08:00:00Z" (1825574400) transition_time 0x22c-0x22f.7 (4)
0x230|6d 76 39 10                                    |mv9.            |      [129]: "2028-03-12T09:00:00Z" (1836464400) transition_time 0x230-0x233.7 (4)
0x230|            6e af f0 00                        |    n...        |      [130]: "2028-11-05T08:00:00Z" (1857024000) transition_time 0x234-0x237.7 (4)
0x230|                        6f 56 1b 10            |        oV..    |      [131]: "2029-03-11T09:00:00Z" (1867914000) transition_time 0x238-0x23b.7 (4)
0x230|                                    70 8f d2 00|            p...|      [132]: "2029-11-04T08:00:00Z" (1888473600) transition_time 0x23c-0x23f.7 (4)
0x240|71 35 fd 10                                    |q5..            |      [133]: "2030-03-10T09:00:00Z" (1899363600) transition_time 0x240-0x243.7 (4)
0x240|            72 6f b4 00                        |    ro..        |      [134]: "2030-11-03T08:00:00Z" (1919923200) transition_time 0x244-0x247.7 (4)
0x240|                        73 15 df 10            |        s...    |      [135]: "2031-03-09T09:00:00Z" (1930813200) transition_time 0x248-0x24b.7 (4)
0x240|                                    74 4f 96 00|            tO..|      [136]: "2031-11-02T08:00:00Z" (1951372800) transition_time 0x24c-0x24f.7 (4)
0x250|74 fe fb 90                                    |t...            |      [137]: "2032-03-14T09:00:00Z" (1962867600) transition_time 0x250-0x253.7 (4)
0x250|            76 38 b2 80                        |    v8..        |      [138]: "2032-11-07T08:00:00Z" (1983427200) transition_time 0x254-0x257.7 (4)
0x250|                        76 de dd 90            |        v...    |      [139]: "2033-03-13T09:00:00Z" (1994317200) transition_time 0x258-0x25b.7 (4)
0x250|                                    78 18 94 80|            x...|      [140]: "2033-11-06T08:00:00Z" (2014876800) transition_time 0x25c-0x25f.7 (4)
0x260|78 be bf 90                                    |x...            |      [141]: "2034-03-12T09:00:00Z" (2025766800) transition_time 0x260-0x263.7 (4)
0x260|            79 f8 76 80                        |    y.v.        |      [142]: "2034-11-05T08:00:00Z" (2046326400) transition_time 0x264-0x267.7 (4)
0x260|                        7a 9e a1 90            |        z...    |      [143]: "2035-03-11T09:00:00Z" (2057216400) transition_time 0x268-0x26b.7 (4)
0x260|                                    7b d8 58 80|            {.X.|      [144]: "2035-11-04T08:00:00Z" (2077776000) transition_time 0x26c-0x26f.7 (4)
0x270|7c 7e 83 90                                    ||~..            |      [145]: "2036-03-09T09:00:00Z" (2088666000) transition_time 0x270-0x273.7 (4)
0x270|            7d b8 3a 80                        |    }.:.        |      [146]: "2036-11-02T08:00:00Z" (2109225600) transition_time 0x274-0x277.7 (4)
0x270|                        7e 5e 65 90            |        ~^e.    |      [147]: "2037-03-08T09:00:00Z" (2120115600) transition_time 0x278-0x27b.7 (4)
0x270|                                    7f 98 1c 80|            ....|      [148]: "2037-11-01T08:00:00Z" (2140675200) transition_time 0x27c-0x27f.7 (4)
     |                                               |                |    transition_types[0:149]: 0x280-0x314.7 (149)
0x280|01                                             |.               |      [0]: 1 transition_type 0x280-0x280.7 (1)
0x280|   00                                          | .              |      [1]: 0 transition_type 0x281-0x281.7 (1)
0x280|      01                                       |  .             |      [2]: 1 transition_type 0x282-0x282.7 (1)
0x280|         00                                    |   .            |      [3]: 0 transition_type 0x283-0x283.7 (1)
0x280|            02                                 |    .           |      [4]: 2 transition_type 0x284-0x284.7 (1)
0x280|               03                              |     .          |      [5]: 3 transition_type 0x285-0x285.7 (1)
0x280|                  00                           |      .         |      [6]: 0 transition_type 0x286-0x286.7 (1)
0x280|                     01                        |       .        |      [7]: 1 transition_type 0x287-0x287.7 (1)
0x280|                        00                     |        .       |      [8]: 0 transition_type 0x288-0x288.7 (1)
0x280|                           01                  |         .      |      [9]: 1 transition_type 0x289-0x289.7 (1)
0x280|                              00               |          .     |      [10]: 0 transition_type 0x28a-0x28a.7 (1)
0x280|                                 01            |           .    |      [11]: 1 transition_type 0x28b-0x28b.7 (1)
0x280|                                    00         |            .   |      [12]: 0 transition_type 0x28c-0x28c.7 (1)
0x280|                                       01      |             .  |      [13]: 1 transition_type 0x28d-0x28d.7 (1)
0x280|                                          00   |              . |      [14]: 0 transition_type 0x28e-0x28e.7 (1)
0x280|                                             01|               .|      [15]: 1 transition_type 0x28f-0x28f.7 (1)
0x290|00                                             |.               |      [16]: 0 transition_type 0x290-0x290.7 (1)
0x290|   01                                          | .              |      [17]: 1 transition_type 0x291-0x291.7 (1)
0x290|      00                                       |  .             |      [18]: 0 transition_type 0x292-0x292.7 (1)
0x290|         01                                    |   .            |      [19]: 1 transition_type 0x293-0x293.7 (1)
0x290|            00                                 |    .           |      [20]: 0 transition_type 0x294-0x294.7 (1)
0x290|               01                              |     .          |      [21]: 1 transition_type 0x295-0x295.7 (1)
0x290|                  00                           |      .         |      [22]: 0 transition_type 0x296-0x296.7 (1)
0x290|                     01                        |       .        |      [23]: 1 transition_type 0x297-0x297.7 (1)
0x290|                        00                     |        .       |      [24]: 0 transition_type 0x298-0x298.7 (1)
0x290|                           01                  |         .      |      [25]: 1 transition_type 0x299-0x299.7 (1)
0x290|                              00               |          .     |      [26]: 0 transition_type 0x29a-0x29a.7 (1)
0x290|                                 01            |           .    |      [27]: 1 transition_type 0x29b-0x29b.7 (1)
0x290|                                    00         |            .   |      [28]: 0 transition_type 0x29c-0x29c.7 (1)
0x290|                                       01      |             .  |      [29]: 1 transition_type 0x29d-0x29d.7 (1)
0x290|                                          00   |              . |      [30]: 0 transition_type 0x29e-0x29e.7 (1)
0x290|                                             01|               .|      [31]: 1 transition_type 0x29f-0x29f.7 (1)
0x2a0|00                                             |.               |      [32]: 0 transition_type 0x2a0-0x2a0.7 (1)
0x2a0|   01                                          | .              |      [33]: 1 transition_type 0x2a1-0x2a1.7 (1)
0x2a0|      00                                       |  .             |      [34]: 0 transition_type 0x2a2-0x2a2.7 (1)
0x2a0|         01                                    |   .            |      [35]: 1 transition_type 0x2a3-0x2a3.7 (1)
0x2a0|            00                                 |    .           |      [36]: 0 transition_type 0x2a4-0x2a4.7 (1)
0x2a0|               01                              |     .          |      [37]: 1 transition_type 0x2a5-0x2a5.7 (1)
0x2a0|                  00                           |      .         |      [38]: 0 transition_type 0x2a6-0x2a6.7 (1)
0x2a0|                     01                        |       .        |      [39]: 1 transition_type 0x2a7-0x2a7.7 (1)
0x2a0|                        00                     |        .       |      [40]: 0 transition_type 0x2a8-0x2a8.7 (1)
0x2a0|                           01                  |         .      |      [41]: 1 transition_type 0x2a9-0x2a9.7 (1)
0x2a0|                              00               |          .     |      [42]: 0 transition_type 0x2aa-0x2aa.7 (1)
0x2a0|                                 01            |           .    |      [43]: 1 transition_type 0x2ab-0x2ab.7 (1)
0x2a0|                                    00         |            .   |      [44]: 0 transition_type 0x2ac-0x2ac.7 (1)
0x2a0|                                       01      |             .  |      [45]: 1 transition_type 0x2ad-0x2ad.7 (1)
0x2a0|                                          00   |              . |      [46]: 0 transition_type 0x2ae-0x2ae.7 (1)
0x2a0|                                             01|               .|      [47]: 1 transition_type 0x2af-0x2af.7 (1)
0x2b0|00                                             |.               |      [48]: 0 transition_type 0x2b0-0x2b0.7 (1)
0x2b0|   01                                          | .              |      [49]: 1 transition_type 0x2b1-0x2b1.7 (1)
0x2b0|      00                                       |  .             |      [50]: 0 transition_type 0x2b2-0x2b2.7 (1)
0x2b0|         01                                    |   .            |      [51]: 1 transition_type 0x2b3-0x2b3.7 (1)
0x2b0|            00                                 |    .           |      [52]: 0 transition_type 0x2b4-0x2b4.7 (1)
0x2b0|               01                              |     .          |      [53]: 1 transition_type 0x2b5-0x2b5.7 (1)
0x2b0|                  00                           |      .         |      [54]: 0 transition_type 0x2b6-0x2b6.7 (1)
0x2b0|                     01                        |       .        |      [55]: 1 transition_type 0x2b7-0x2b7.7 (1)
0x2b0|                        00                     |        .       |      [56]: 0 transition_type 0x2b8-0x2b8.7 (1)
0x2b0|                           01                  |         .      |      [57]: 1 transition_type 0x2b9-0x2b9.7 (1)
0x2b0|                              00               |          .     |      [58]: 0 transition_type 0x2ba-0x2ba.7 (1)
0x2b0|                                 01            |           .    |      [59]: 1 transition_type 0x2bb-0x2bb.7 (1)
0x2b0|                                    00         |            .   |      [60]: 0 transition_type 0x2bc-0x2bc.7 (1)
0x2b0|                                       01      |             .  |      [61]: 1 transition_type 0x2bd-0x2bd.7 (1)
0x2b0|                                          00   |              . |      [62]: 0 transition_type 0x2be-0x2be.7 (1)
0x2b0|                                             01|               .|      [63]: 1 transition_type 0x2bf-0x2bf.7 (1)
0x2c0|00                                             |.               |      [64]: 0 transition_type 0x2c0-0x2c0.7 (1)
0x2c0|   01                                          | .              |      [65]: 1 transition_type 0x2c1-0x2c1.7 (1)
0x2c0|      00                                       |  .             |      [66]: 0 transition_type 0x2c2-0x2c2.7 (1)
0x2c0|         01                                    |   .            |      [67]: 1 transition_type 0x2c3-0x2c3.7 (1)
0x2c0|            00                                 |    .           |      [68]: 0 transition_type 0x2c4-0x2c4.7 (1)
0x2c0|               01                              |     .          |      [69]: 1 transition_type 0x2c5-0x2c5.7 (1)
0x2c0|                  00                           |      .         |      [70]: 0 transition_type 0x2c6-0x2c6.7 (1)
0x2c0|                     01                        |       .        |      [71]: 1 transition_type 0x2c7-0x2c7.7 (1)
0x2c0|                        00                     |        .       |      [72]: 0 transition_type 0x2c8-0x2c8.7 (1)
0x2c0|                           01                  |         .      |      [73]: 1 transition_type 0x2c9-0x2c9.7 (1)
0x2c0|                              00               |          .     |      [74]: 0 transition_type 0x2ca-0x2ca.7 (1)
0x2c0|                                 01            |           .    |      [75]: 1 transition_type 0x2cb-0x2cb.7 (1)
0x2c0|                                    00         |            .   |      [76]: 0 transition_type 0x2cc-0x2cc.7 (1)
0x2c0|                                       01      |             .  |      [77]: 1 transition_type 0x2cd-0x2cd.7 (1)
0x2c0|                                          00   |              . |      [78]: 0 transition_type 0x2ce-0x2ce.7 (1)
0x2c0|                                             01|               .|      [79]: 1 transition_type 0x2cf-0x2cf.7 (1)
0x2d0|00                                             |.               |      [80]: 0 transition_type 0x2d0-0x2d0.7 (1)
0x2d0|   01                                          | .              |      [81]: 1 transition_type 0x2d1-0x2d1.7 (1)
0x2d0|      00                                       |  .             |      [82]: 0 transition_type 0x2d2-0x2d2.7 (1)
0x2d0|         01                                    |   .            |      [83]: 1 transition_type 0x2d3-0x2d3.7 (1)
0x2d0|            00                                 |    .           |      [84]: 0 transition_type 0x2d4-0x2d4.7 (1)
0x2d0|               01                              |     .          |      [85]: 1 transition_type 0x2d5-0x2d5.7 (1)
0x2d0|                  00                           |      .         |      [86]: 0 transition_type 0x2d6-0x2d6.7 (1)
0x2d0|                     01                        |       .        |      [87]: 1 transition_type 0x2d7-0x2d7.7 (1)
0x2d0|                        00                     |        .       |      [88]: 0 transition_type 0x2d8-0x2d8.7 (1)
0x2d0|                           01                  |         .      |      [89]: 1 transition_type 0x2d9-0x2d9.7 (1)
0x2d0|                              00               |          .     |      [90]: 0 transition_type 0x2da-0x2da.7 (1)
0x2d0|                                 01            |           .    |      [91]: 1 transition_type 0x2db-0x2db.7 (1)
0x2d0|                                    00         |            .   |      [92]: 0 transition_type 0x2dc-0x2dc.7 (1)
0x2d0|                                       01      |             .  |      [93]: 1 transition_type 0x2dd-0x2dd.7 (1)
0x2d0|                                          00   |              . |      [94]: 0 transition_type 0x2de-0x2de.7 (1)
0x2d0|                                             01|               .|      [95]: 1 transition_type 0x2df-0x2df.7 (1)
0x2e0|00                                             |.               |      [96]: 0 transition_type 0x2e0-0x2e0.7 (1)
0x2e0|   01                                          | .              |      [97]: 1 transition_type 0x2e1-0x2e1.7 (1)
0x2e0|      00                                       |  .             |      [98]: 0 transition_type 0x2e2-0x2e2.7 (1)
0x2e0|         01                                    |   .            |      [99]: 1 transition_type 0x2e3-0x2e3.7 (1)
0x2e0|            00                                 |    .           |      [100]: 0 transition_type 0x2e4-0x2e4.7 (1)
0x2e0|               01                              |     .          |      [101]: 1 transition_type 0x2e5-0x2e5.7 (1)
0x2e0|                  00                           |      .         |      [102]: 0 transition_type 0x2e6-0x2e6.7 (1)
0x2e0|                     01                        |       .        |      [103]: 1 transition_type 0x2e7-0x2e7.7 (1)
0x2e0|                        00                     |        .       |      [104]: 0 transition_type 0x2e8-0x2e8.7 (1)
0x2e0|                           01                  |         .      |      [105]: 1 transition_type 0x2e9-0x2e9.7 (1)
0x2e0|                              00               |          .     |      [106]: 0 transition_type 0x2ea-0x2ea.7 (1)
0x2e0|                                 01            |           .    |      [107]: 1 transition_type 0x2eb-0x2eb.7 (1)
0x2e0|                                    00         |            .   |      [108]: 0 transition_type 0x2ec-0x2ec.7 (1)
0x2e0|                                       01      |             .  |      [109]: 1 transition_type 0x2ed-0x2ed.7 (1)
0x2e0|                                          00   |              . |      [110]: 0 transition_type 0x2ee-0x2ee.7 (1)
0x2e0|                                             01|               .|      [111]: 1 transition_type 0x2ef-0x2ef.7 (1)
0x2f0|00                                             |.               |      [112]: 0 transition_type 0x2f0-0x2f0.7 (1)
0x2f0|   01                                          | .              |      [113]: 1 transition_type 0x2f1-0x2f1.7 (1)
0x2f0|      00                                       |  .             |      [114]: 0 transition_type 0x2f2-0x2f2.7 (1)
0x2f0|         01                                    |   .            |      [115]: 1 transition_type 0x2f3-0x2f3.7 (1)
0x2f0|            00                                 |    .           |      [116]: 0 transition_type 0x2f4-0x2f4.7 (1)
0x2f0|               01                              |     .          |      [117]: 1 transition_type 0x2f5-0x2f5.7 (1)
0x2f0|                  00                           |      .         |      [118]: 0 transition_type 0x2f6-0x2f6.7 (1)
0x2f0|                     01                        |       .        |      [119]: 1 transition_type 0x2f7-0x2f7.7 (1)
0x2f0|                        00                     |        .       |      [120]: 0 transition_type 0x2f8-0x2f8.7 (1)
0x2f0|                           01                  |         .      |      [121]: 1 transition_type 0x2f9-0x2f9.7 (1)
0x2f0|                              00               |          .     |      [122]: 0 transition_type 0x2fa-0x2fa.7 (1)
0x2f0|                                 01            |           .    |      [123]: 1 transition_type 0x2fb-0x2fb.7 (1)
0x2f0|                                    00         |            .   |      [124]: 0 transition_type 0x2fc-0x2fc.7 (1)
0x2f0|                                       01      |             .  |      [125]: 1 transition_type 0x2fd-0x2fd.7 (1)
0x2f0|                                          00   |              . |      [126]: 0 transition_type 0x2fe-0x2fe.7 (1)
0x2f0|                                             01|               .|      [127]: 1 transition_type 0x2ff-0x2ff.7 (1)
0x300|00                                             |.               |      [128]: 0 transition_type 0x300-0x300.7 (1)
0x300|   01                                          | .              |      [129]: 1 transition_type 0x301-0x301.7 (1)
0x300|      00                                       |  .             |      [130]: 0 transition_type 0x302-0x302.7 (1)
0x300|         01                                    |   .            |      [131]: 1 transition_type 0x303-0x303.7 (1)
0x300|            00                                 |    .           |      [132]: 0 transition_type 0x304-0x304.7 (1)
0x300|               01                              |     .          |      [133]: 1 transition_type 0x305-0x305.7 (1)
0x300|                  00                           |      .         |      [134]: 0 transition_type 0x306-0x306.7 (1)
0x300|                     01                        |       .        |      [135]: 1 transition_type 0x307-0x307.7 (1)
0x300|                        00                     |        .       |      [136]: 0 transition_type 0x308-0x308.7 (1)
0x300|                           01                  |         .      |      [137]: 1 transition_type 0x309-0x309.7 (1)
0x300|                              00               |          .     |      [138]: 0 transition_type 0x30a-0x30a.7 (1)
0x300|                                 01            |           .    |      [139]: 1 transition_type 0x30b-0x30b.7 (1)
0x300|                                    00         |            .   |      [140]: 0 transition_type 0x30c-0x30c.7 (1)
0x300|                                       01      |             .  |      [141]: 1 transition_type 0x30d-0x30d.7 (1)
0x300|                                          00   |              . |      [142]: 0 transition_type 0x30e-0x30e.7 (1)
0x300|                                             01|               .|      [143]: 1 transition_type 0x30f-0x30f.7 (1)
0x310|00                                             |.               |      [144]: 0 transition_type 0x310-0x310.7 (1)
0x310|   01                                          | .              |      [145]: 1 transition_type 0x311-0x311.7 (1)
0x310|      00                                       |  .             |      [146]: 0 transition_type 0x312-0x312.7 (1)
0x310|         01                                    |   .            |      [147]: 1 transition_type 0x313-0x313.7 (1)
0x310|            00                                 |    .           |      [148]: 0 transition_type 0x314-0x314.7 (1)
     |                                               |                |    local_time_type_records[0:5]: 0x315-0x332.7 (30)
     |                                               |                |      [0]{}: local_time_type 0x315-0x31a.7 (6)
0x310|               ff ff 9d 90                     |     ....       |        utoff: -25200 (valid) 0x315-0x318.7 (4)
0x310|                           00                  |         .      |        dst: 0 (valid) 0x319-0x319.7 (1)
0x310|                              04               |          .     |        idx: 4 (valid) 0x31a-0x31a.7 (1)
     |                                               |                |      [1]{}: local_time_type 0x31b-0x320.7 (6)
0x310|                                 ff ff ab a0   |           .... |        utoff: -21600 (valid) 0x31b-0x31e.7 (4)
0x310|                                             01|               .|        dst: 1 (valid) 0x31f-0x31f.7 (1)
0x320|00                                             |.               |        idx: 0 (valid) 0x320-0x320.7 (1)
     |                                               |                |      [2]{}: local_time_type 0x321-0x326.7 (6)
0x320|   ff ff ab a0                                 | ....           |        utoff: -21600 (valid) 0x321-0x324.7 (4)
0x320|               01                              |     .          |        dst: 1 (valid) 0x325-0x325.7 (1)
0x320|                  08                           |      .         |        idx: 8 (valid) 0x326-0x326.7 (1)
     |                                               |                |      [3]{}: local_time_type 0x327-0x32c.7 (6)
0x320|                     ff ff ab a0               |       ....     |        utoff: -21600 (valid) 0x327-0x32a.7 (4)
0x320|                                 01            |           .    |        dst: 1 (valid) 0x32b-0x32b.7 (1)
0x320|                                    0c         |            .   |        idx: 12 (valid) 0x32c-0x32c.7 (1)
     |                                               |                |      [4]{}: local_time_type 0x32d-0x332.7 (6)
0x320|                                       ff ff 9d|             ...|        utoff: -25200 (valid) 0x32d-0x330.7 (4)
0x330|90                                             |.               |
0x330|   00                                          | .              |        dst: 0 (valid) 0x331-0x331.7 (1)
0x330|      04                                       |  .             |        idx: 4 (valid) 0x332-0x332.7 (1)
     |                                               |                |    time_zone_designations[0:4]: 0x333-0x342.7 (16)
0x330|         4d 44 54 00                           |   MDT.         |      [0]: "MDT" time_zone_designation 0x333-0x336.7 (4)
0x330|                     4d 53 54 00               |       MST.     |      [1]: "MST" time_zone_designation 0x337-0x33a.7 (4)
0x330|                                 4d 57 54 00   |           MWT. |      [2]: "MWT" time_zone_designation 0x33b-0x33e.7 (4)
0x330|                                             4d|               M|      [3]: "MPT" time_zone_designation 0x33f-0x342.7 (4)
0x340|50 54 00                                       |PT.             |
     |                                               |                |    leap_second_records[0:0]: 0x343-NA (0)
     |                                               |                |    standard_wall_indicators[0:5]: 0x343-0x347.7 (5)
0x340|         00                                    |   .            |      [0]: 0 standard_wall_indicator (valid) 0x343-0x343.7 (1)
0x340|            00                                 |    .           |      [1]: 0 standard_wall_indicator (valid) 0x344-0x344.7 (1)
0x340|               00                              |     .          |      [2]: 0 standard_wall_indicator (valid) 0x345-0x345.7 (1)
0x340|                  01                           |      .         |      [3]: 1 standard_wall_indicator (valid) 0x346-0x346.7 (1)
0x340|                     00                        |       .        |      [4]: 0 standard_wall_indicator (valid) 0x347-0x347.7 (1)
     |                                               |                |    ut_local_indicators[0:5]: 0x348-0x34c.7 (5)
0x340|                        00                     |        .       |      [0]: 0 ut_local_indicator (valid) 0x348-0x348.7 (1)
0x340|                           00                  |         .      |      [1]: 0 ut_local_indicator (valid) 0x349-0x349.7 (1)
0x340|                              00               |          .     |      [2]: 0 ut_local_indicator (valid) 0x34a-0x34a.7 (1)
0x340|                                 01            |           .    |      [3]: 1 ut_local_indicator (valid) 0x34b-0x34b.7 (1)
0x340|                                    00         |            .   |      [4]: 0 ut_local_indicator (valid) 0x34c-0x34c.7 (1)
     |                                               |                |  v2plusheader{}: 0x34d-0x378.7 (44)
0x340|                                       54 5a 69|             TZi|    magic: 0x545a6966 (valid) 0x34d-0x350.7 (4)
0x350|66                                             |f               |
0x350|   32                                          | 2              |    ver: "2" (0x32) (valid) 0x351-0x351.7 (1)
0x350|      00 00 00 00 00 00 00 00 00 00 00 00 00 00|  ..............|    reserved: raw bits 0x352-0x360.7 (15)
0x360|00                                             |.               |
0x360|   00 00 00 05                                 | ....           |    isutcnt: 5 0x361-0x364.7 (4)
0x360|               00 00 00 05                     |     ....       |    isstdcnt: 5 0x365-0x368.7 (4)
0x360|                           00 00 00 00         |         ....   |    leapcnt: 0 0x369-0x36c.7 (4)
0x360|                                       00 00 00|             ...|    timecnt: 149 0x36d-0x370.7 (4)
0x370|95                                             |.               |
0x370|   00 00 00 05                                 | ....           |    typecnt: 5 0x371-0x374.7 (4)
0x370|               00 00 00 10                     |     ....       |    charcnt: 16 0x375-0x378.7 (4)
     |                                               |                |  v2plusdatablock{}: 0x379-0x8ed.7 (1397)
     |                                               |                |    transition_times[0:149]: 0x379-0x820.7 (1192)
0x370|                           ff ff ff ff 9e a6 3a|         ......:|      [0]: "1918-03-31T09:00:00Z" (-1633273200) transition_time 0x379-0x380.7 (8)
0x380|90                                             |.               |
0x380|   ff ff ff ff 9f bb 07 80                     | ........       |      [1]: "1918-10-27T08:00:00Z" (-1615132800) transition_time 0x381-0x388.7 (8)
0x380|                           ff ff ff ff a0 86 1c|         .......|      [2]: "1919-03-30T09:00:00Z" (-1601823600) transition_time 0x389-0x390.7 (8)
0x390|90                                             |.               |
0x390|   ff ff ff ff a1 9a e9 80                     | ........       |      [3]: "1919-10-26T08:00:00Z" (-1583683200) transition_time 0x391-0x398.7 (8)
0x390|                           ff ff ff ff cb 89 0c|         .......|      [4]: "1942-02-09T09:00:00Z" (-880210800) transition_time 0x399-0x3a0.7 (8)
0x3a0|90                                             |.               |
0x3a0|   ff ff ff ff d2 23 f4 70                     | .....#.p       |      [5]: "1945-08-14T23:00:00Z" (-769395600) transition_time 0x3a1-0x3a8.7 (8)
0x3a0|                           ff ff ff ff d2 61 18|         .....a.|      [6]: "1945-09-30T08:00:00Z" (-765388800) transition_time 0x3a9-0x3b0.7 (8)
0x3b0|00                                             |.               |
0x3b0|   ff ff ff ff fa f8 75 10                     | ......u.       |      [7]: "1967-04-30T09:00:00Z" (-84380400) transition_time 0x3b1-0x3b8.7 (8)
0x3b0|                           ff ff ff ff fb e8 58|         ......X|      [8]: "1967-10-29T08:00:00Z" (-68659200) transition_time 0x3b9-0x3c0.7 (8)
0x3c0|00                                             |.               |
0x3c0|   ff ff ff ff fc d8 57 10                     | ......W.       |      [9]: "1968-04-28T09:00:00Z" (-52930800) transition_time 0x3c1-0x3c8.7 (8)
0x3c0|                           ff ff ff ff fd c8 3a|         ......:|      [10]: "1968-10-27T08:00:00Z" (-37209600) transition_time 0x3c9-0x3d0.7 (8)
0x3d0|00                                             |.               |
0x3d0|   ff ff ff ff fe b8 39 10                     | ......9.       |      [11]: "1969-04-27T09:00:00Z" (-21481200) transition_time 0x3d1-0x3d8.7 (8)
0x3d0|                           ff ff ff ff ff a8 1c|         .......|      [12]: "1969-10-26T08:00:00Z" (-5760000) transition_time 0x3d9-0x3e0.7 (8)
0x3e0|00                                             |.               |
0x3e0|   00 00 00 00 00 98 1b 10                     | ........       |      [13]: "1970-04-26T09:00:00Z" (9968400) transition_time 0x3e1-0x3e8.7 (8)
0x3e0|                           00 00 00 00 01 87 fe|         .......|      [14]: "1970-10-25T08:00:00Z" (25689600) transition_time 0x3e9-0x3f0.7 (8)
0x3f0|00                                             |.               |
0x3f0|   00 00 00 00 02 77 fd 10                     | .....w..       |      [15]: "1971-04-25T09:00:00Z" (41418000) transition_time 0x3f1-0x3f8.7 (8)
0x3f0|                           00 00 00 00 03 71 1a|         .....q.|      [16]: "1971-10-31T08:00:00Z" (57744000) transition_time 0x3f9-0x400.7 (8)
0x400|80                                             |.               |
0x400|   00 00 00 00 04 61 19 90                     | .....a..       |      [17]: "1972-04-30T09:00:00Z" (73472400) transition_time 0x401-0x408.7 (8)
0x400|                           00 00 00 00 05 50 fc|         .....P.|      [18]: "1972-10-29T08:00:00Z" (89193600) transition_time 0x409-0x410.7 (8)
0x410|80                                             |.               |
0x410|   00 00 00 00 06 40 fb 90                     | .....@..       |      [19]: "1973-04-29T09:00:00Z" (104922000) transition_time 0x411-0x418.7 (8)
0x410|                           00 00 00 00 07 30 de|         .....0.|      [20]: "1973-10-28T08:00:00Z" (120643200) transition_time 0x419-0x420.7 (8)
0x420|80                                             |.               |
0x420|   00 00 00 00 07 8d 35 90                     | ......5.       |      [21]: "1974-01-06T09:00:00Z" (126694800) transition_time 0x421-0x428.7 (8)
0x420|                           00 00 00 00 09 10 c0|         .......|      [22]: "1974-10-27T08:00:00Z" (152092800) transition_time 0x429-0x430.7 (8)
0x430|80                                             |.               |
0x430|   00 00 00 00 09 ad b1 10                     | ........       |      [23]: "1975-02-23T09:00:00Z" (162378000) transition_time 0x431-0x438.7 (8)
0x430|                           00 00 00 00 0a f0 a2|         .......|      [24]: "1975-10-26T08:00:00Z" (183542400) transition_time 0x439-0x440.7 (8)
0x440|80                                             |.               |
0x440|   00 00 00 00 0b e0 a1 90                     | ........       |      [25]: "1976-04-25T09:00:00Z" (199270800) transition_time 0x441-0x448.7 (8)
0x440|                           00 00 00 00 0c d9 bf|         .......|      [26]: "1976-10-31T08:00:00Z" (215596800) transition_time 0x449-0x450.7 (8)
0x450|00                                             |.               |
0x450|   00 00 00 00 0d c0 83 90                     | ........       |      [27]: "1977-04-24T09:00:00Z" (230720400) transition_time 0x451-0x458.7 (8)
0x450|                           00 00 00 00 0e b9 a1|         .......|      [28]: "1977-10-30T08:00:00Z" (247046400) transition_time 0x459-0x460.7 (8)
0x460|00                                             |.               |
0x460|   00 00 00 00 0f a9 a0 10                     | ........       |      [29]: "1978-04-30T09:00:00Z" (262774800) transition_time 0x461-0x468.7 (8)
0x460|                           00 00 00 00 10 99 83|         .......|      [30]: "1978-10-29T08:00:00Z" (278496000) transition_time 0x469-0x470.7 (8)
0x470|00                                             |.               |
0x470|   00 00 00 00 11 89 82 10                     | ........       |      [31]: "1979-04-29T09:00:00Z" (294224400) transition_time 0x471-0x478.7 (8)
0x470|                           00 00 00 00 12 79 65|         .....ye|      [32]: "1979-10-28T08:00:00Z" (309945600) transition_time 0x479-0x480.7 (8)
0x480|00                                             |.               |
0x480|   00 00 00 00 13 69 64 10                     | .....id.       |      [33]: "1980-04-27T09:00:00Z" (325674000) transition_time 0x481-0x488.7 (8)
0x480|                           00 00 00 00 14 59 47|         .....YG|      [34]: "1980-10-26T08:00:00Z" (341395200) transition_time 0x489-0x490.7 (8)
0x490|00                                             |.               |
0x490|   00 00 00 00 15 49 46 10                     | .....IF.       |      [35]: "1981-04-26T09:00:00Z" (357123600) transition_time 0x491-0x498.7 (8)
0x490|                           00 00 00 00 16 39 29|         .....9)|      [36]: "1981-10-25T08:00:00Z" (372844800) transition_time 0x499-0x4a0.7 (8)
0x4a0|00                                             |.               |
0x4a0|   00 00 00 00 17 29 28 10                     | .....)(.       |      [37]: "1982-04-25T09:00:00Z" (388573200) transition_time 0x4a1-0x4a8.7 (8)
0x4a0|                           00 00 00 00 18 22 45|         ....."E|      [38]: "1982-10-31T08:00:00Z" (404899200) transition_time 0x4a9-0x4b0.7 (8)
0x4b0|80                                             |.               |
0x4b0|   00 00 00 00 19 09 0a 10                     | ........       |      [39]: "1983-04-24T09:00:00Z" (420022800) transition_time 0x4b1-0x4b8.7 (8)
0x4b0|                           00 00 00 00 1a 02 27|         ......'|      [40]: "1983-10-30T08:00:00Z" (436348800) transition_time 0x4b9-0x4c0.7 (8)
0x4c0|80                                             |.               |
0x4c0|   00 00 00 00 1a f2 26 90                     | ......&.       |      [41]: "1984-04-29T09:00:00Z" (452077200) transition_time 0x4c1-0x4c8.7 (8)
0x4c0|                           00 00 00 00 1b e2 09|         .......|      [42]: "1984-10-28T08:00:00Z" (467798400) transition_time 0x4c9-0x4d0.7 (8)
0x4d0|80                                             |.               |
0x4d0|   00 00 00 00 1c d2 08 90                     | ........       |      [43]: "1985-04-28T09:00:00Z" (483526800) transition_time 0x4d1-0x4d8.7 (8)
0x4d0|                           00 00 00 00 1d c1 eb|         .......|      [44]: "1985-10-27T08:00:00Z" (499248000) transition_time 0x4d9-0x4e0.7 (8)
0x4e0|80                                             |.               |
0x4e0|   00 00 00 00 1e b1 ea 90                     | ........       |      [45]: "1986-04-27T09:00:00Z" (514976400) transition_time 0x4e1-0x4e8.7 (8)
0x4e0|                           00 00 00 00 1f a1 cd|         .......|      [46]: "1986-10-26T08:00:00Z" (530697600) transition_time 0x4e9-0x4f0.7 (8)
0x4f0|80                                             |.               |
0x4f0|   00 00 00 00 20 76 1d 10                     | .... v..       |      [47]: "1987-04-05T09:00:00Z" (544611600) transition_time 0x4f1-0x4f8.7 (8)
0x4f0|                           00 00 00 00 21 81 af|         ....!..|      [48]: "1987-10-25T08:00:00Z" (562147200) transition_time 0x4f9-0x500.7 (8)
0x500|80                                             |.               |
0x500|   00 00 00 00 22 55 ff 10                     | ...."U..       |      [49]: "1988-04-03T09:00:00Z" (576061200) transition_time 0x501-0x508.7 (8)
0x500|                           00 00 00 00 23 6a cc|         ....#j.|      [50]: "1988-10-30T08:00:00Z" (594201600) transition_time 0x509-0x510.7 (8)
0x510|00                                             |.               |
0x510|   00 00 00 00 24 35 e1 10                     | ....$5..       |      [51]: "1989-04-02T09:00:00Z" (607510800) transition_time 0x511-0x518.7 (8)
0x510|                           00 00 00 00 25 4a ae|         ....%J.|      [52]: "1989-10-29T08:00:00Z" (625651200) transition_time 0x519-0x520.7 (8)
0x520|00                                             |.               |
0x520|   00 00 00 00 26 15 c3 10                     | ....&...       |      [53]: "1990-04-01T09:00:00Z" (638960400) transition_time 0x521-0x528.7 (8)
0x520|                           00 00 00 00 27 2a 90|         ....'*.|      [54]: "1990-10-28T08:00:00Z" (657100800) transition_time 0x529-0x530.7 (8)
0x530|00                                             |.               |
0x530|   00 00 00 00 27 fe df 90                     | ....'...       |      [55]: "1991-04-07T09:00:00Z" (671014800) transition_time 0x531-0x538.7 (8)
0x530|                           00 00 00 00 29 0a 72|         ....).r|      [56]: "1991-10-27T08:00:00Z" (688550400) transition_time 0x539-0x540.7 (8)
0x540|00                                             |.               |
0x540|   00 00 00 00 29 de c1 90                     | ....)...       |      [57]: "1992-04-05T09:00:00Z" (702464400) transition_time 0x541-0x548.7 (8)
0x540|                           00 00 00 00 2a ea 54|         ....*.T|      [58]: "1992-10-25T08:00:00Z" (720000000) transition_time 0x549-0x550.7 (8)
0x550|00                                             |.               |
0x550|   00 00 00 00 2b be a3 90                     | ....+...       |      [59]: "1993-04-04T09:00:00Z" (733914000) transition_time 0x551-0x558.7 (8)
0x550|                           00 00 00 00 2c d3 70|         ....,.p|      [60]: "1993-10-31T08:00:00Z" (752054400) transition_time 0x559-0x560.7 (8)
0x560|80                                             |.               |
0x560|   00 00 00 00 2d 9e 85 90                     | ....-...       |      [61]: "1994-04-03T09:00:00Z" (765363600) transition_time 0x561-0x568.7 (8)
0x560|                           00 00 00 00 2e b3 52|         ......R|      [62]: "1994-10-30T08:00:00Z" (783504000) transition_time 0x569-0x570.7 (8)
0x570|80                                             |.               |
0x570|   00 00 00 00 2f 7e 67 90                     | ..../~g.       |      [63]: "1995-04-02T09:00:00Z" (796813200) transition_time 0x571-0x578.7 (8)
0x570|                           00 00 00 00 30 93 34|         ....0.4|      [64]: "1995-10-29T08:00:00Z" (814953600) transition_time 0x579-0x580.7 (8)
0x580|80                                             |.               |
0x580|   00 00 00 00 31 67 84 10                     | ....1g..       |      [65]: "1996-04-07T09:00:00Z" (828867600) transition_time 0x581-0x588.7 (8)
0x580|                           00 00 00 00 32 73 16|         ....2s.|      [66]: "1996-10-27T08:00:00Z" (846403200) transition_time 0x589-0x590.7 (8)
0x590|80                                             |.               |
0x590|   00 00 00 00 33 47 66 10                     | ....3Gf.       |      [67]: "1997-04-06T09:00:00Z" (860317200) transition_time 0x591-0x598.7 (8)
0x590|                           00 00 00 00 34 52 f8|         ....4R.|      [68]: "1997-10-26T08:00:00Z" (877852800) transition_time 0x599-0x5a0.7 (8)
0x5a0|80                                             |.               |
0x5a0|   00 00 00 00 35 27 48 10                     | ....5'H.       |      [69]: "1998-04-05T09:00:00Z" (891766800) transition_time 0x5a1-0x5a8.7 (8)
0x5a0|                           00 00 00 00 36 32 da|         ....62.|      [70]: "1998-10-25T08:00:00Z" (909302400) transition_time 0x5a9-0x5b0.7 (8)
0x5b0|80                                             |.               |
0x5b0|   00 00 00 00 37 07 2a 10                     | ....7.*.       |      [71]: "1999-04-04T09:00:00Z" (923216400) transition_time 0x5b1-0x5b8.7 (8)
0x5b0|                           00 00 00 00 38 1b f7|         ....8..|      [72]: "1999-10-31T08:00:00Z" (941356800) transition_time 0x5b9-0x5c0.7 (8)
0x5c0|00                                             |.               |
0x5c0|   00 00 00 00 38 e7 0c 10                     | ....8...       |      [73]: "2000-04-02T09:00:00Z" (954666000) transition_time 0x5c1-0x5c8.7 (8)
0x5c0|                           00 00 00 00 39 fb d9|         ....9..|      [74]: "2000-10-29T08:00:00Z" (972806400) transition_time 0x5c9-0x5d0.7 (8)
0x5d0|00                                             |.               |
0x5d0|   00 00 00 00 3a c6 ee 10                     | ....:...       |      [75]: "2001-04-01T09:00:00Z" (986115600) transition_time 0x5d1-0x5d8.7 (8)
0x5d0|                           00 00 00 00 3b db bb|         ....;..|      [76]: "2001-10-28T08:00:00Z" (1004256000) transition_time 0x5d9-0x5e0.7 (8)
0x5e0|00                                             |.               |
0x5e0|   00 00 00 00 3c b0 0a 90                     | ....<...       |      [77]: "2002-04-07T09:00:00Z" (1018170000) transition_time 0x5e1-0x5e8.7 (8)
0x5e0|                           00 00 00 00 3d bb 9d|         ....=..|      [78]: "2002-10-27T08:00:00Z" (1035705600) transition_time 0x5e9-0x5f0.7 (8)
0x5f0|00                                             |.               |
0x5f0|   00 00 00 00 3e 8f ec 90                     | ....>...       |      [79]: "2003-04-06T09:00:00Z" (1049619600) transition_time 0x5f1-0x5f8.7 (8)
0x5f0|                           00 00 00 00 3f 9b 7f|         ....?..|      [80]: "2003-10-26T08:00:00Z" (1067155200) transition_time 0x5f9-0x600.7 (8)
0x600|00                                             |.               |
0x600|   00 00 00 00 40 6f ce 90                     | ....@o..       |      [81]: "2004-04-04T09:00:00Z" (1081069200) transition_time 0x601-0x608.7 (8)
0x600|                           00 00 00 00 41 84 9b|         ....A..|      [82]: "2004-10-31T08:00:00Z" (1099209600) transition_time 0x609-0x610.7 (8)
0x610|80                                             |.               |
0x610|   00 00 00 00 42 4f b0 90                     | ....BO..       |      [83]: "2005-04-03T09:00:00Z" (1112518800) transition_time 0x611-0x618.7 (8)
0x610|                           00 00 00 00 43 64 7d|         ....Cd}|      [84]: "2005-10-30T08:00:00Z" (1130659200) transition_time 0x619-0x620.7 (8)
0x620|80                                             |.               |
0x620|   00 00 00 00 44 2f 92 90                     | ....D/..       |      [85]: "2006-04-02T09:00:00Z" (1143968400) transition_time 0x621-0x628.7 (8)
0x620|                           00 00 00 00 45 44 5f|         ....ED_|      [86]: "2006-10-29T08:00:00Z" (1162108800) transition_time 0x629-0x630.7 (8)
0x630|80                                             |.               |
0x630|   00 00 00 00 45 f3 c5 10                     | ....E...       |      [87]: "2007-03-11T09:00:00Z" (1173603600) transition_time 0x631-0x638.7 (8)
0x630|                           00 00 00 00 47 2d 7c|         ....G-||      [88]: "2007-11-04T08:00:00Z" (1194163200) transition_time 0x639-0x640.7 (8)
0x640|00                                             |.               |
0x640|   00 00 00 00 47 d3 a7 10                     | ....G...       |      [89]: "2008-03-09T09:00:00Z" (1205053200) transition_time 0x641-0x648.7 (8)
0x640|                           00 00 00 00 49 0d 5e|         ....I.^|      [90]: "2008-11-02T08:00:00Z" (1225612800) transition_time 0x649-0x650.7 (8)
0x650|00                                             |.               |
0x650|   00 00 00 00 49 b3 89 10                     | ....I...       |      [91]: "2009-03-08T09:00:00Z" (1236502800) transition_time 0x651-0x658.7 (8)
0x650|                           00 00 00 00 4a ed 40|         ....J.@|      [92]: "2009-11-01T08:00:00Z" (1257062400) transition_time 0x659-0x660.7 (8)
0x660|00                                             |.               |
0x660|   00 00 00 00 4b 9c a5 90                     | ....K...       |      [93]: "2010-03-14T09:00:00Z" (1268557200) transition_time 0x661-0x668.7 (8)
0x660|                           00 00 00 00 4c d6 5c|         ....L.\|      [94]: "2010-11-07T08:00:00Z" (1289116800) transition_time 0x669-0x670.7 (8)
0x670|80                                             |.               |
0x670|   00 00 00 00 4d 7c 87 90                     | ....M|..       |      [95]: "2011-03-13T09:00:00Z" (1300006800) transition_time 0x671-0x678.7 (8)
0x670|                           00 00 00 00 4e b6 3e|         ....N.>|      [96]: "2011-11-06T08:00:00Z" (1320566400) transition_time 0x679-0x680.7 (8)
0x680|80                                             |.               |
0x680|   00 00 00 00 4f 5c 69 90                     | ....O\i.       |      [97]: "2012-03-11T09:00:00Z" (1331456400) transition_time 0x681-0x688.7 (8)
0x680|                           00 00 00 00 50 96 20|         ....P. |      [98]: "2012-11-04T08:00:00Z" (1352016000) transition_time 0x689-0x690.7 (8)
0x690|80                                             |.               |
0x690|   00 00 00 00 51 3c 4b 90                     | ....Q<K.       |      [99]: "2013-03-10T09:00:00Z" (1362906000) transition_time 0x691-0x698.7 (8)
0x690|                           00 00 00 00 52 76 02|         ....Rv.|      [100]: "2013-11-03T08:00:00Z" (1383465600) transition_time 0x699-0x6a0.7 (8)
0x6a0|80                                             |.               |
0x6a0|   00 00 00 00 53 1c 2d 90                     | ....S.-.       |      [101]: "2014-03-09T09:00:00Z" (1394355600) transition_time 0x6a1-0x6a8.7 (8)
0x6a0|                           00 00 00 00 54 55 e4|         ....TU.|      [102]: "2014-11-02T08:00:00Z" (1414915200) transition_time 0x6a9-0x6b0.7 (8)
0x6b0|80                                             |.               |
0x6b0|   00 00 00 00 54 fc 0f 90                     | ....T...       |      [103]: "2015-03-08T09:00:00Z" (1425805200) transition_time 0x6b1-0x6b8.7 (8)
0x6b0|                           00 00 00 00 56 35 c6|         ....V5.|      [104]: "2015-11-01T08:00:00Z" (1446364800) transition_time 0x6b9-0x6c0.7 (8)
0x6c0|80                                             |.               |
0x6c0|   00 00 00 00 56 e5 2c 10                     | ....V.,.       |      [105]: "2016-03-13T09:00:00Z" (1457859600) transition_time 0x6c1-0x6c8.7 (8)
0x6c0|                           00 00 00 00 58 1e e3|         ....X..|      [106]: "2016-11-06T08:00:00Z" (1478419200) transition_time 0x6c9-0x6d0.7 (8)
0x6d0|00                                             |.               |
0x6d0|   00 00 00 00 58 c5 0e 10                     | ....X...       |      [107]: "2017-03-12T09:00:00Z" (1489309200) transition_time 0x6d1-0x6d8.7 (8)
0x6d0|                           00 00 00 00 59 fe c5|         ....Y..|      [108]: "2017-11-05T08:00:00Z" (1509868800) transition_time 0x6d9-0x6e0.7 (8)
0x6e0|00                                             |.               |
0x6e0|   00 00 00 00 5a a4 f0 10                     | ....Z...       |      [109]: "2018-03-11T09:00:00Z" (1520758800) transition_time 0x6e1-0x6e8.7 (8)
0x6e0|                           00 00 00 00 5b de a7|         ....[..|      [110]: "2018-11-04T08:00:00Z" (1541318400) transition_time 0x6e9-0x6f0.7 (8)
0x6f0|00                                             |.               |
0x6f0|   00 00 00 00 5c 84 d2 10                     | ....\...       |      [111]: "2019-03-10T09:00:00Z" (1552208400) transition_time 0x6f1-0x6f8.7 (8)
0x6f0|                           00 00 00 00 5d be 89|         ....]..|      [112]: "2019-11-03T08:00:00Z" (1572768000) transition_time 0x6f9-0x700.7 (8)
0x700|00                                             |.               |
0x700|   00 00 00 00 5e 64 b4 10                     | ....^d..       |      [113]: "2020-03-08T09:00:00Z" (1583658000) transition_time 0x701-0x708.7 (8)
0x700|                           00 00 00 00 5f 9e 6b|         ...._.k|      [114]: "2020-11-01T08:00:00Z" (1604217600) transition_time 0x709-0x710.7 (8)
0x710|00                                             |.               |
0x710|   00 00 00 00 60 4d d0 90                     | ....`M..       |      [115]: "2021-03-14T09:00:00Z" (1615712400) transition_time 0x711-0x718.7 (8)
0x710|                           00 00 00 00 61 87 87|         ....a..|      [116]: "2021-11-07T08:00:00Z" (1636272000) transition_time 0x719-0x720.7 (8)
0x720|80                                             |.               |
0x720|   00 00 00 00 62 2d b2 90                     | ....b-..       |      [117]: "2022-03-13T09:00:00Z" (1647162000) transition_time 0x721-0x728.7 (8)
0x720|                           00 00 00 00 63 67 69|         ....cgi|      [118]: "2022-11-06T08:00:00Z" (1667721600) transition_time 0x729-0x730.7 (8)
0x730|80                                             |.               |
0x730|   00 00 00 00 64 0d 94 90                     | ....d...       |      [119]: "2023-03-12T09:00:00Z" (1678611600) transition_time 0x731-0x738.7 (8)
0x730|                           00 00 00 00 65 47 4b|         ....eGK|      [120]: "2023-11-05T08:00:00Z" (1699171200) transition_time 0x739-0x740.7 (8)
0x740|80                                             |.               |
0x740|   00 00 00 00 65 ed 76 90                     | ....e.v.       |      [121]: "2024-03-10T09:00:00Z" (1710061200) transition_time 0x741-0x748.7 (8)
0x740|                           00 00 00 00 67 27 2d|         ....g'-|      [122]: "2024-11-03T08:00:00Z" (1730620800) transition_time 0x749-0x750.7 (8)
0x750|80                                             |.               |
0x750|   00 00 00 00 67 cd 58 90                     | ....g.X.       |      [123]: "2025-03-09T09:00:00Z" (1741510800) transition_time 0x751-0x758.7 (8)
0x750|                           00 00 00 00 69 07 0f|         ....i..|      [124]: "2025-11-02T08:00:00Z" (1762070400) transition_time 0x759-0x760.7 (8)
0x760|80                                             |.               |
0x760|   00 00 00 00 69 ad 3a 90                     | ....i.:.       |      [125]: "2026-03-08T09:00:00Z" (1772960400) transition_time 0x761-0x768.7 (8)
0x760|                           00 00 00 00 6a e6 f1|         ....j..|      [126]: "2026-11-01T08:00:00Z" (1793520000) transition_time 0x769-0x770.7 (8)
0x770|80                                             |.               |
0x770|   00 00 00 00 6b 96 57 10                     | ....k.W.       |      [127]: "2027-03-14T09:00:00Z" (1805014800) transition_time 0x771-0x778.7 (8)
0x770|                           00 00 00 00 6c d0 0e|         ....l..|      [128]: "2027-11-07T08:00:00Z" (1825574400) transition_time 0x779-0x780.7 (8)
0x780|00                                             |.               |
0x780|   00 00 00 00 6d 76 39 10                     | ....mv9.       |      [129]: "2028-03-12T09:00:00Z" (1836464400) transition_time 0x781-0x788.7 (8)
0x780|                           00 00 00 00 6e af f0|         ....n..|      [130]: "2028-11-05T08:00:00Z" (1857024000) transition_time 0x789-0x790.7 (8)
0x790|00                                             |.               |
0x790|   00 00 00 00 6f 56 1b 10                     | ....oV..       |      [131]: "2029-03-11T09:00:00Z" (1867914000) transition_time 0x791-0x798.7 (8)
0x790|                           00 00 00 00 70 8f d2|         ....p..|      [132]: "2029-11-04T08:00:00Z" (1888473600) transition_time 0x799-0x7a0.7 (8)
0x7a0|00                                             |.               |
0x7a0|   00 00 00 00 71 35 fd 10                     | ....q5..       |      [133]: "2030-03-10T09:00:00Z" (1899363600) transition_time 0x7a1-0x7a8.7 (8)
0x7a0|                           00 00 00 00 72 6f b4|         ....ro.|      [134]: "2030-11-03T08:00:00Z" (1919923200) transition_time 0x7a9-0x7b0.7 (8)
0x7b0|00                                             |.               |
0x7b0|   00 00 00 00 73 15 df 10                     | ....s...       |      [135]: "2031-03-09T09:00:00Z" (1930813200) transition_time 0x7b1-0x7b8.7 (8)
0x7b0|                           00 00 00 00 74 4f 96|         ....tO.|      [136]: "2031-11-02T08:00:00Z" (1951372800) transition_time 0x7b9-0x7c0.7 (8)
0x7c0|00                                             |.               |
0x7c0|   00 00 00 00 74 fe fb 90                     | ....t...       |      [137]: "2032-03-14T09:00:00Z" (1962867600) transition_time 0x7c1-0x7c8.7 (8)
0x7c0|                           00 00 00 00 76 38 b2|         ....v8.|      [138]: "2032-11-07T08:00:00Z" (1983427200) transition_time 0x7c9-0x7d0.7 (8)
0x7d0|80                                             |.               |
0x7d0|   00 00 00 00 76 de dd 90                     | ....v...       |      [139]: "2033-03-13T09:00:00Z" (1994317200) transition_time 0x7d1-0x7d8.7 (8)
0x7d0|                           00 00 00 00 78 18 94|         ....x..|      [140]: "2033-11-06T08:00:00Z" (2014876800) transition_time 0x7d9-0x7e0.7 (8)
0x7e0|80                                             |.               |
0x7e0|   00 00 00 00 78 be bf 90                     | ....x...       |      [141]: "2034-03-12T09:00:00Z" (2025766800) transition_time 0x7e1-0x7e8.7 (8)
0x7e0|                           00 00 00 00 79 f8 76|         ....y.v|      [142]: "2034-11-05T08:00:00Z" (2046326400) transition_time 0x7e9-0x7f0.7 (8)
0x7f0|80                                             |.               |
0x7f0|   00 00 00 00 7a 9e a1 90                     | ....z...       |      [143]: "2035-03-11T09:00:00Z" (2057216400) transition_time 0x7f1-0x7f8.7 (8)
0x7f0|                           00 00 00 00 7b d8 58|         ....{.X|      [144]: "2035-11-04T08:00:00Z" (2077776000) transition_time 0x7f9-0x800.7 (8)
0x800|80                                             |.               |
0x800|   00 00 00 00 7c 7e 83 90                     | ....|~..       |      [145]: "2036-03-09T09:00:00Z" (2088666000) transition_time 0x801-0x808.7 (8)
0x800|                           00 00 00 00 7d b8 3a|         ....}.:|      [146]: "2036-11-02T08:00:00Z" (2109225600) transition_time 0x809-0x810.7 (8)
0x810|80                                             |.               |
0x810|   00 00 00 00 7e 5e 65 90                     | ....~^e.       |      [147]: "2037-03-08T09:00:00Z" (2120115600) transition_time 0x811-0x818.7 (8)
0x810|                           00 00 00 00 7f 98 1c|         .......|      [148]: "2037-11-01T08:00:00Z" (2140675200) transition_time 0x819-0x820.7 (8)
0x820|80                                             |.               |
     |                                               |                |    transition_types[0:149]: 0x821-0x8b5.7 (149)
0x820|   01                                          | .              |      [0]: 1 transition_type 0x821-0x821.7 (1)
0x820|      00                                       |  .             |      [1]: 0 transition_type 0x822-0x822.7 (1)
0x820|         01                                    |   .            |      [2]: 1 transition_type 0x823-0x823.7 (1)
0x820|            00                                 |    .           |      [3]: 0 transition_type 0x824-0x824.7 (1)
0x820|               02                              |     .          |      [4]: 2 transition_type 0x825-0x825.7 (1)
0x820|                  03                           |      .         |      [5]: 3 transition_type 0x826-0x826.7 (1)
0x820|                     00                        |       .        |      [6]: 0 transition_type 0x827-0x827.7 (1)
0x820|                        01                     |        .       |      [7]: 1 transition_type 0x828-0x828.7 (1)
0x820|                           00                  |         .      |      [8]: 0 transition_type 0x829-0x829.7 (1)
0x820|                              01               |          .     |      [9]: 1 transition_type 0x82a-0x82a.7 (1)
0x820|                                 00            |           .    |      [10]: 0 transition_type 0x82b-0x82b.7 (1)
0x820|                                    01         |            .   |      [11]: 1 transition_type 0x82c-0x82c.7 (1)
0x820|                                       00      |             .  |      [12]: 0 transition_type 0x82d-0x82d.7 (1)
0x820|                                          01   |              . |      [13]: 1 transition_type 0x82e-0x82e.7 (1)
0x820|                                             00|               .|      [14]: 0 transition_type 0x82f-0x82f.7 (1)
0x830|01                                             |.               |      [15]: 1 transition_type 0x830-0x830.7 (1)
0x830|   00                                          | .              |      [16]: 0 transition_type 0x831-0x831.7 (1)
0x830|      01                                       |  .             |      [17]: 1 transition_type 0x832-0x832.7 (1)
0x830|         00                                    |   .            |      [18]: 0 transition_type 0x833-0x833.7 (1)
0x830|            01                                 |    .           |      [19]: 1 transition_type 0x834-0x834.7 (1)
0x830|               00                              |     .          |      [20]: 0 transition_type 0x835-0x835.7 (1)
0x830|                  01                           |      .         |      [21]: 1 transition_type 0x836-0x836.7 (1)
0x830|                     00                        |       .        |      [22]: 0 transition_type 0x837-0x837.7 (1)
0x830|                        01                     |        .       |      [23]: 1 transition_type 0x838-0x838.7 (1)
0x830|                           00                  |         .      |      [24]: 0 transition_type 0x839-0x839.7 (1)
0x830|                              01               |          .     |      [25]: 1 transition_type 0x83a-0x83a.7 (1)
0x830|                                 00            |           .    |      [26]: 0 transition_type 0x83b-0x83b.7 (1)
0x830|                                    01         |            .   |      [27]: 1 transition_type 0x83c-0x83c.7 (1)
0x830|                                       00      |             .  |      [28]: 0 transition_type 0x83d-0x83d.7 (1)
0x830|                                          01   |              . |      [29]: 1 transition_type 0x83e-0x83e.7 (1)
0x830|                                             00|               .|      [30]: 0 transition_type 0x83f-0x83f.7 (1)
0x840|01                                             |.               |      [31]: 1 transition_type 0x840-0x840.7 (1)
0x840|   00                                          | .              |      [32]: 0 transition_type 0x841-0x841.7 (1)
0x840|      01                                       |  .             |      [33]: 1 transition_type 0x842-0x842.7 (1)
0x840|         00                                    |   .            |      [34]: 0 transition_type 0x843-0x843.7 (1)
0x840|            01                                 |    .           |      [35]: 1 transition_type 0x844-0x844.7 (1)
0x840|               00                              |     .          |      [36]: 0 transition_type 0x845-0x845.7 (1)
0x840|                  01                           |      .         |      [37]: 1 transition_type 0x846-0x846.7 (1)
0x840|                     00                        |       .        |      [38]: 0 transition_type 0x847-0x847.7 (1)
0x840|                        01                     |        .       |      [39]: 1 transition_type 0x848-0x848.7 (1)
0x840|                           00                  |         .      |      [40]: 0 transition_type 0x849-0x849.7 (1)
0x840|                              01               |          .     |      [41]: 1 transition_type 0x84a-0x84a.7 (1)
0x840|                                 00            |           .    |      [42]: 0 transition_type 0x84b-0x84b.7 (1)
0x840|                                    01         |            .   |      [43]: 1 transition_type 0x84c-0x84c.7 (1)
0x840|                                       00      |             .  |      [44]: 0 transition_type 0x84d-0x84d.7 (1)
0x840|                                          01   |              . |      [45]: 1 transition_type 0x84e-0x84e.7 (1)
0x840|                                             00|               .|      [46]: 0 transition_type 0x84f-0x84f.7 (1)
0x850|01                                             |.               |      [47]: 1 transition_type 0x850-0x850.7 (1)
0x850|   00                                          | .              |      [48]: 0 transition_type 0x851-0x851.7 (1)
0x850|      01                                       |  .             |      [49]: 1 transition_type 0x852-0x852.7 (1)
0x850|         00                                    |   .            |      [50]: 0 transition_type 0x853-0x853.7 (1)
0x850|            01                                 |    .           |      [51]: 1 transition_type 0x854-0x854.7 (1)
0x850|               00                              |     .          |      [52]: 0 transition_type 0x855-0x855.7 (1)
0x850|                  01                           |      .         |      [53]: 1 transition_type 0x856-0x856.7 (1)
0x850|                     00                        |       .        |      [54]: 0 transition_type 0x857-0x857.7 (1)
0x850|                        01                     |        .       |      [55]: 1 transition_type 0x858-0x858.7 (1)
0x850|                           00                  |         .      |      [56]: 0 transition_type 0x859-0x859.7 (1)
0x850|                              01               |          .     |      [57]: 1 transition_type 0x85a-0x85a.7 (1)
0x850|                                 00            |           .    |      [58]: 0 transition_type 0x85b-0x85b.7 (1)
0x850|                                    01         |            .   |      [59]: 1 transition_type 0x85c-0x85c.7 (1)
0x850|                                       00      |             .  |      [60]: 0 transition_type 0x85d-0x85d.7 (1)
0x850|                                          01   |              . |      [61]: 1 transition_type 0x85e-0x85e.7 (1)
0x850|                                             00|               .|      [62]: 0 transition_type 0x85f-0x85f.7 (1)
0x860|01                                             |.               |      [63]: 1 transition_type 0x860-0x860.7 (1)
0x860|   00                                          | .              |      [64]: 0 transition_type 0x861-0x861.7 (1)
0x860|      01                                       |  .             |      [65]: 1 transition_type 0x862-0x862.7 (1)
0x860|         00                                    |   .            |      [66]: 0 transition_type 0x863-0x863.7 (1)
0x860|            01                                 |    .           |      [67]: 1 transition_type 0x864-0x864.7 (1)
0x860|               00                              |     .          |      [68]: 0 transition_type 0x865-0x865.7 (1)
0x860|                  01                           |      .         |      [69]: 1 transition_type 0x866-0x866.7 (1)
0x860|                     00                        |       .        |      [70]: 0 transition_type 0x867-0x867.7 (1)
0x860|                        01                     |        .       |      [71]: 1 transition_type 0x868-0x868.7 (1)
0x860|                           00                  |         .      |      [72]: 0 transition_type 0x869-0x869.7 (1)
0x860|                              01               |          .     |      [73]: 1 transition_type 0x86a-0x86a.7 (1)
0x860|                                 00            |           .    |      [74]: 0 transition_type 0x86b-0x86b.7 (1)
0x860|                                    01         |            .   |      [75]: 1 transition_type 0x86c-0x86c.7 (1)
0x860|                                       00      |             .  |      [76]: 0 transition_type 0x86d-0x86d.7 (1)
0x860|                                          01   |              . |      [77]: 1 transition_type 0x86e-0x86e.7 (1)
0x860|                                             00|               .|      [78]: 0 transition_type 0x86f-0x86f.7 (1)
0x870|01                                             |.               |      [79]: 1 transition_type 0x870-0x870.7 (1)
0x870|   00                                          | .              |      [80]: 0 transition_type 0x871-0x871.7 (1)
0x870|      01                                       |  .             |      [81]: 1 transition_type 0x872-0x872.7 (1)
0x870|         00                                    |   .            |      [82]: 0 transition_type 0x873-0x873.7 (1)
0x870|            01                                 |    .           |      [83]: 1 transition_type 0x874-0x874.7 (1)
0x870|               00                              |     .          |      [84]: 0 transition_type 0x875-0x875.7 (1)
0x870|                  01                           |      .         |      [85]: 1 transition_type 0x876-0x876.7 (1)
0x870|                     00                        |       .        |      [86]: 0 transition_type 0x877-0x877.7 (1)
0x870|                        01                     |        .       |      [87]: 1 transition_type 0x878-0x878.7 (1)
0x870|                           00                  |         .      |      [88]: 0 transition_type 0x879-0x879.7 (1)
0x870|                              01               |          .     |      [89]: 1 transition_type 0x87a-0x87a.7 (1)
0x870|                                 00            |           .    |      [90]: 0 transition_type 0x87b-0x87b.7 (1)
0x870|                                    01         |            .   |      [91]: 1 transition_type 0x87c-0x87c.7 (1)
0x870|                                       00      |             .  |      [92]: 0 transition_type 0x87d-0x87d.7 (1)
0x870|                                          01   |              . |      [93]: 1 transition_type 0x87e-0x87e.7 (1)
0x870|                                             00|               .|      [94]: 0 transition_type 0x87f-0x87f.7 (1)
0x880|01                                             |.               |      [95]: 1 transition_type 0x880-0x880.7 (1)
0x880|   00                                          | .              |      [96]: 0 transition_type 0x881-0x881.7 (1)
0x880|      01                                       |  .             |      [97]: 1 transition_type 0x882-0x882.7 (1)
0x880|         00                                    |   .            |      [98]: 0 transition_type 0x883-0x883.7 (1)
0x880|            01                                 |    .           |      [99]: 1 transition_type 0x884-0x884.7 (1)
0x880|               00                              |     .          |      [100]: 0 transition_type 0x885-0x885.7 (1)
0x880|                  01                           |      .         |      [101]: 1 transition_type 0x886-0x886.7 (1)
0x880|                     00                        |       .        |      [102]: 0 transition_type 0x887-0x887.7 (1)
0x880|                        01                     |        .       |      [103]: 1 transition_type 0x888-0x888.7 (1)
0x880|                           00                  |         .      |      [104]: 0 transition_type 0x889-0x889.7 (1)
0x880|                              01               |          .     |      [105]: 1 transition_type 0x88a-0x88a.7 (1)
0x880|                                 00            |           .    |      [106]: 0 transition_type 0x88b-0x88b.7 (1)
0x880|                                    01         |            .   |      [107]: 1 transition_type 0x88c-0x88c.7 (1)
0x880|                                       00      |             .  |      [108]: 0 transition_type 0x88d-0x88d.7 (1)
0x880|                                          01   |              . |      [109]: 1 transition_type 0x88e-0x88e.7 (1)
0x880|                                             00|               .|      [110]: 0 transition_type 0x88f-0x88f.7 (1)
0x890|01                                             |.               |      [111]: 1 transition_type 0x890-0x890.7 (1)
0x890|   00                                          | .              |      [112]: 0 transition_type 0x891-0x891.7 (1)
0x890|      01                                       |  .             |      [113]: 1 transition_type 0x892-0x892.7 (1)
0x890|         00                                    |   .            |      [114]: 0 transition_type 0x893-0x893.7 (1)
0x890|            01                                 |    .           |      [115]: 1 transition_type 0x894-0x894.7 (1)
0x890|               00                              |     .          |      [116]: 0 transition_type 0x895-0x895.7 (1)
0x890|                  01                           |      .         |      [117]: 1 transition_type 0x896-0x896.7 (1)
0x890|                     00                        |       .        |      [118]: 0 transition_type 0x897-0x897.7 (1)
0x890|                        01                     |        .       |      [119]: 1 transition_type 0x898-0x898.7 (1)
0x890|                           00                  |         .      |      [120]: 0 transition_type 0x899-0x899.7 (1)
0x890|                              01               |          .     |      [121]: 1 transition_type 0x89a-0x89a.7 (1)
0x890|                                 00            |           .    |      [122]: 0 transition_type 0x89b-0x89b.7 (1)
0x890|                                    01         |            .   |      [123]: 1 transition_type 0x89c-0x89c.7 (1)
0x890|                                       00      |             .  |      [124]: 0 transition_type 0x89d-0x89d.7 (1)
0x890|                                          01   |              . |      [125]: 1 transition_type 0x89e-0x89e.7 (1)
0x890|                                             00|               .|      [126]: 0 transition_type 0x89f-0x89f.7 (1)
0x8a0|01                                             |.               |      [127]: 1 transition_type 0x8a0-0x8a0.7 (1)
0x8a0|   00                                          | .              |      [128]: 0 transition_type 0x8a1-0x8a1.7 (1)
0x8a0|      01                                       |  .             |      [129]: 1 transition_type 0x8a2-0x8a2.7 (1)
0x8a0|         00                                    |   .            |      [130]: 0 transition_type 0x8a3-0x8a3.7 (1)
0x8a0|            01                                 |    .           |      [131]: 1 transition_type 0x8a4-0x8a4.7 (1)
0x8a0|               00                              |     .          |      [132]: 0 transition_type 0x8a5-0x8a5.7 (1)
0x8a0|                  01                           |      .         |      [133]: 1 transition_type 0x8a6-0x8a6.7 (1)
0x8a0|                     00                        |       .        |      [134]: 0 transition_type 0x8a7-0x8a7.7 (1)
0x8a0|                        01                     |        .       |      [135]: 1 transition_type 0x8a8-0x8a8.7 (1)
0x8a0|                           00                  |         .      |      [136]: 0 transition_type 0x8a9-0x8a9.7 (1)
0x8a0|                              01               |          .     |      [137]: 1 transition_type 0x8aa-0x8aa.7 (1)
0x8a0|                                 00            |           .    |      [138]: 0 transition_type 0x8ab-0x8ab.7 (1)
0x8a0|                                    01         |            .   |      [139]: 1 transition_type 0x8ac-0x8ac.7 (1)
0x8a0|                                       00      |             .  |      [140]: 0 transition_type 0x8ad-0x8ad.7 (1)
0x8a0|                                          01   |              . |      [141]: 1 transition_type 0x8ae-0x8ae.7 (1)
0x8a0|                                             00|               .|      [142]: 0 transition_type 0x8af-0x8af.7 (1)
0x8b0|01                                             |.               |      [143]: 1 transition_type 0x8b0-0x8b0.7 (1)
0x8b0|   00                                          | .              |      [144]: 0 transition_type 0x8b1-0x8b1.7 (1)
0x8b0|      01                                       |  .             |      [145]: 1 transition_type 0x8b2-0x8b2.7 (1)
0x8b0|         00                                    |   .            |      [146]: 0 transition_type 0x8b3-0x8b3.7 (1)
0x8b0|            01                                 |    .           |      [147]: 1 transition_type 0x8b4-0x8b4.7 (1)
0x8b0|               00                              |     .          |      [148]: 0 transition_type 0x8b5-0x8b5.7 (1)
     |                                               |                |    local_time_type_records[0:5]: 0x8b6-0x8d3.7 (30)
     |                                               |                |      [0]{}: local_time_type 0x8b6-0x8bb.7 (6)
0x8b0|                  ff ff 9d 90                  |      ....      |        utoff: -25200 (valid) 0x8b6-0x8b9.7 (4)
0x8b0|                              00               |          .     |        dst: 0 (valid) 0x8ba-0x8ba.7 (1)
0x8b0|                                 04            |           .    |        idx: 4 (valid) 0x8bb-0x8bb.7 (1)
     |                                               |                |      [1]{}: local_time_type 0x8bc-0x8c1.7 (6)
0x8b0|                                    ff ff ab a0|            ....|        utoff: -21600 (valid) 0x8bc-0x8bf.7 (4)
0x8c0|01                                             |.               |        dst: 1 (valid) 0x8c0-0x8c0.7 (1)
0x8c0|   00                                          | .              |        idx: 0 (valid) 0x8c1-0x8c1.7 (1)
     |                                               |                |      [2]{}: local_time_type 0x8c2-0x8c7.7 (6)
0x8c0|      ff ff ab a0                              |  ....          |        utoff: -21600 (valid) 0x8c2-0x8c5.7 (4)
0x8c0|                  01                           |      .         |        dst: 1 (valid) 0x8c6-0x8c6.7 (1)
0x8c0|                     08                        |       .        |        idx: 8 (valid) 0x8c7-0x8c7.7 (1)
     |                                               |                |      [3]{}: local_time_type 0x8c8-0x8cd.7 (6)
0x8c0|                        ff ff ab a0            |        ....    |        utoff: -21600 (valid) 0x8c8-0x8cb.7 (4)
0x8c0|                                    01         |            .   |        dst: 1 (valid) 0x8cc-0x8cc.7 (1)
0x8c0|                                       0c      |             .  |        idx: 12 (valid) 0x8cd-0x8cd.7 (1)
     |                                               |                |      [4]{}: local_time_type 0x8ce-0x8d3.7 (6)
0x8c0|                                          ff ff|              ..|        utoff: -25200 (valid) 0x8ce-0x8d1.7 (4)
0x8d0|9d 90                                          |..              |
0x8d0|      00                                       |  .             |        dst: 0 (valid) 0x8d2-0x8d2.7 (1)
0x8d0|         04                                    |   .            |        idx: 4 (valid) 0x8d3-0x8d3.7 (1)
     |                                               |                |    time_zone_designations[0:4]: 0x8d4-0x8e3.7 (16)
0x8d0|            4d 44 54 00                        |    MDT.        |      [0]: "MDT" time_zone_designation 0x8d4-0x8d7.7 (4)
0x8d0|                        4d 53 54 00            |        MST.    |      [1]: "MST" time_zone_designation 0x8d8-0x8db.7 (4)
0x8d0|                                    4d 57 54 00|            MWT.|      [2]: "MWT" time_zone_designation 0x8dc-0x8df.7 (4)
0x8e0|4d 50 54 00                                    |MPT.            |      [3]: "MPT" time_zone_designation 0x8e0-0x8e3.7 (4)
     |                                               |                |    leap_second_records[0:0]: 0x8e4-NA (0)
     |                                               |                |    standard_wall_indicators[0:5]: 0x8e4-0x8e8.7 (5)
0x8e0|            00                                 |    .           |      [0]: 0 standard_wall_indicator (valid) 0x8e4-0x8e4.7 (1)
0x8e0|               00                              |     .          |      [1]: 0 standard_wall_indicator (valid) 0x8e5-0x8e5.7 (1)
0x8e0|                  00                           |      .         |      [2]: 0 standard_wall_indicator (valid) 0x8e6-0x8e6.7 (1)
0x8e0|                     01                        |       .        |      [3]: 1 standard_wall_indicator (valid) 0x8e7-0x8e7.7 (1)
0x8e0|                        00                     |        .       |      [4]: 0 standard_wall_indicator (valid) 0x8e8-0x8e8.7 (1)
     |                                               |                |    ut_local_indicators[0:5]: 0x8e9-0x8ed.7 (5)
0x8e0|                           00                  |         .      |      [0]: 0 ut_local_indicator (valid) 0x8e9-0x8e9.7 (1)
0x8e0|                              00               |          .     |      [1]: 0 ut_local_indicator (valid) 0x8ea-0x8ea.7 (1)
0x8e0|                                 00            |           .    |      [2]: 0 ut_local_indicator (valid) 0x8eb-0x8eb.7 (1)
0x8e0|                                    01         |            .   |      [3]: 1 ut_local_indicator (valid) 0x8ec-0x8ec.7 (1)
0x8e0|                                       00      |             .  |      [4]: 0 ut_local_indicator (valid) 0x8ed-0x8ed.7 (1)
     |                                               |                |  footer{}: 0x8ee-0x905.7 (24)
0x8e0|                                          0a   |              . |    nl1: 10 (valid) 0x8ee-0x8ee.7 (1)
0x8e0|                                             4d|               M|    tz_string: "MST7MDT,M3.2.0,M11.1.0" 0x8ef-0x904.7 (22)
0x8f0|53 54 37 4d 44 54 2c 4d 33 2e 32 2e 30 2c 4d 31|ST7MDT,M3.2.0,M1|
0x900|31 2e 31 2e 30                                 |1.1.0           |
0x900|               0a|                             |     .|         |    nl2: 10 (valid) 0x905-0x905.7 (1)
