$ fq -d tzif dv Nairobi
     |00 01 02 03 04 05 06 07 08 09 0a 0b 0c 0d 0e 0f|0123456789abcdef|.{}: Nairobi (tzif) 0x0-0x108.7 (265)
     |                                               |                |  v1header{}: 0x0-0x2b.7 (44)
0x000|54 5a 69 66                                    |TZif            |    magic: 0x545a6966 (valid) 0x0-0x3.7 (4)
0x000|            32                                 |    2           |    ver: "2" (0x32) (valid) 0x4-0x4.7 (1)
0x000|               00 00 00 00 00 00 00 00 00 00 00|     ...........|    reserved: raw bits 0x5-0x13.7 (15)
0x010|00 00 00 00                                    |....            |
0x010|            00 00 00 00                        |    ....        |    isutcnt: 0 0x14-0x17.7 (4)
0x010|                        00 00 00 00            |        ....    |    isstdcnt: 0 0x18-0x1b.7 (4)
0x010|                                    00 00 00 00|            ....|    leapcnt: 0 0x1c-0x1f.7 (4)
0x020|00 00 00 05                                    |....            |    timecnt: 5 0x20-0x23.7 (4)
0x020|            00 00 00 05                        |    ....        |    typecnt: 5 0x24-0x27.7 (4)
0x020|                        00 00 00 14            |        ....    |    charcnt: 20 0x28-0x2b.7 (4)
     |                                               |                |  v1datablock{}: 0x2c-0x76.7 (75)
     |                                               |                |    transition_times[0:5]: 0x2c-0x3f.7 (20)
0x020|                                    8b ff d1 fc|            ....|      [0]: "1908-04-30T21:32:44Z" (-1946168836) transition_time 0x2c-0x2f.7 (4)
0x030|b1 ee da 58                                    |...X            |      [1]: "1928-06-30T21:30:00Z" (-1309746600) transition_time 0x30-0x33.7 (4)
0x030|            b4 c7 e0 d0                        |    ....        |      [2]: "1930-01-04T21:00:00Z" (-1261969200) transition_time 0x34-0x37.7 (4)
0x030|                        c1 ed ad 58            |        ...X    |      [3]: "1936-12-31T21:30:00Z" (-1041388200) transition_time 0x38-0x3b.7 (4)
0x030|                                    cc 6c 7a d4|            .lz.|      [4]: "1942-07-31T21:15:00Z" (-865305900) transition_time 0x3c-0x3f.7 (4)
     |                                               |                |    transition_types[0:5]: 0x40-0x44.7 (5)
0x040|01                                             |.               |      [0]: 1 transition_type 0x40-0x40.7 (1)
0x040|   02                                          | .              |      [1]: 2 transition_type 0x41-0x41.7 (1)
0x040|      01                                       |  .             |      [2]: 1 transition_type 0x42-0x42.7 (1)
0x040|         03                                    |   .            |      [3]: 3 transition_type 0x43-0x43.7 (1)
0x040|            02                                 |    .           |      [4]: 2 transition_type 0x44-0x44.7 (1)
     |                                               |                |    local_time_type_records[0:5]: 0x45-0x62.7 (30)
     |                                               |                |      [0]{}: local_time_type 0x45-0x4a.7 (6)
0x040|               00 00 22 84                     |     ..".       |        utoff: 8836 (valid) 0x45-0x48.7 (4)
0x040|                           00                  |         .      |        dst: 0 (valid) 0x49-0x49.7 (1)
0x040|                              00               |          .     |        idx: 0 (valid) 0x4a-0x4a.7 (1)
     |                                               |                |      [1]{}: local_time_type 0x4b-0x50.7 (6)
0x040|                                 00 00 23 28   |           ..#( |        utoff: 9000 (valid) 0x4b-0x4e.7 (4)
0x040|                                             00|               .|        dst: 0 (valid) 0x4f-0x4f.7 (1)
0x050|04                                             |.               |        idx: 4 (valid) 0x50-0x50.7 (1)
     |                                               |                |      [2]{}: local_time_type 0x51-0x56.7 (6)
0x050|   00 00 2a 30                                 | ..*0           |        utoff: 10800 (valid) 0x51-0x54.7 (4)
0x050|               00                              |     .          |        dst: 0 (valid) 0x55-0x55.7 (1)
0x050|                  0a                           |      .         |        idx: 10 (valid) 0x56-0x56.7 (1)
     |                                               |                |      [3]{}: local_time_type 0x57-0x5c.7 (6)
0x050|                     00 00 26 ac               |       ..&.     |        utoff: 9900 (valid) 0x57-0x5a.7 (4)
0x050|                                 00            |           .    |        dst: 0 (valid) 0x5b-0x5b.7 (1)
0x050|                                    0e         |            .   |        idx: 14 (valid) 0x5c-0x5c.7 (1)
     |                                               |                |      [4]{}: local_time_type 0x5d-0x62.7 (6)
0x050|                                       00 00 2a|             ..*|        utoff: 10800 (valid) 0x5d-0x60.7 (4)
0x060|30                                             |0               |
0x060|   00                                          | .              |        dst: 0 (valid) 0x61-0x61.7 (1)
0x060|      0a                                       |  .             |        idx: 10 (valid) 0x62-0x62.7 (1)
     |                                               |                |    time_zone_designations[0:4]: 0x63-0x76.7 (20)
0x060|         4c 4d 54 00                           |   LMT.         |      [0]: "LMT" time_zone_designation 0x63-0x66.7 (4)
0x060|                     2b 30 32 33 30 00         |       +0230.   |      [1]: "+0230" time_zone_designation 0x67-0x6c.7 (6)
0x060|                                       45 41 54|             EAT|      [2]: "EAT" time_zone_designation 0x6d-0x70.7 (4)
0x070|00                                             |.               |
0x070|   2b 30 32 34 35 00                           | +0245.         |      [3]: "+0245" time_zone_designation 0x71-0x76.7 (6)
     |                                               |                |    leap_second_records[0:0]: 0x77-NA (0)
     |                                               |                |    standard_wall_indicators[0:0]: 0x77-NA (0)
     |                                               |                |    ut_local_indicators[0:0]: 0x77-NA (0)
     |                                               |                |  v2plusheader{}: 0x77-0xa2.7 (44)
0x070|                     54 5a 69 66               |       TZif     |    magic: 0x545a6966 (valid) 0x77-0x7a.7 (4)
0x070|                                 32            |           2    |    ver: "2" (0x32) (valid) 0x7b-0x7b.7 (1)
0x070|                                    00 00 00 00|            ....|    reserved: raw bits 0x7c-0x8a.7 (15)
0x080|00 00 00 00 00 00 00 00 00 00 00               |...........     |
0x080|                                 00 00 00 00   |           .... |    isutcnt: 0 0x8b-0x8e.7 (4)
0x080|                                             00|               .|    isstdcnt: 0 0x8f-0x92.7 (4)
0x090|00 00 00                                       |...             |
0x090|         00 00 00 00                           |   ....         |    leapcnt: 0 0x93-0x96.7 (4)
0x090|                     00 00 00 05               |       ....     |    timecnt: 5 0x97-0x9a.7 (4)
0x090|                                 00 00 00 05   |           .... |    typecnt: 5 0x9b-0x9e.7 (4)
0x090|                                             00|               .|    charcnt: 20 0x9f-0xa2.7 (4)
0x0a0|00 00 14                                       |...             |
     |                                               |                |  v2plusdatablock{}: 0xa3-0x101.7 (95)
     |                                               |                |    transition_times[0:5]: 0xa3-0xca.7 (40)
0x0a0|         ff ff ff ff 8b ff d1 fc               |   ........     |      [0]: "1908-04-30T21:32:44Z" (-1946168836) transition_time 0xa3-0xaa.7 (8)
0x0a0|                                 ff ff ff ff b1|           .....|      [1]: "1928-06-30T21:30:00Z" (-1309746600) transition_time 0xab-0xb2.7 (8)
0x0b0|ee da 58                                       |..X             |
0x0b0|         ff ff ff ff b4 c7 e0 d0               |   ........     |      [2]: "1930-01-04T21:00:00Z" (-1261969200) transition_time 0xb3-0xba.7 (8)
0x0b0|                                 ff ff ff ff c1|           .....|      [3]: "1936-12-31T21:30:00Z" (-1041388200) transition_time 0xbb-0xc2.7 (8)
0x0c0|ed ad 58                                       |..X             |
0x0c0|         ff ff ff ff cc 6c 7a d4               |   .....lz.     |      [4]: "1942-07-31T21:15:00Z" (-865305900) transition_time 0xc3-0xca.7 (8)
     |                                               |                |    transition_types[0:5]: 0xcb-0xcf.7 (5)
0x0c0|                                 01            |           .    |      [0]: 1 transition_type 0xcb-0xcb.7 (1)
0x0c0|                                    02         |            .   |      [1]: 2 transition_type 0xcc-0xcc.7 (1)
0x0c0|                                       01      |             .  |      [2]: 1 transition_type 0xcd-0xcd.7 (1)
0x0c0|                                          03   |              . |      [3]: 3 transition_type 0xce-0xce.7 (1)
0x0c0|                                             02|               .|      [4]: 2 transition_type 0xcf-0xcf.7 (1)
     |                                               |                |    local_time_type_records[0:5]: 0xd0-0xed.7 (30)
     |                                               |                |      [0]{}: local_time_type 0xd0-0xd5.7 (6)
0x0d0|00 00 22 84                                    |..".            |        utoff: 8836 (valid) 0xd0-0xd3.7 (4)
0x0d0|            00                                 |    .           |        dst: 0 (valid) 0xd4-0xd4.7 (1)
0x0d0|               00                              |     .          |        idx: 0 (valid) 0xd5-0xd5.7 (1)
     |                                               |                |      [1]{}: local_time_type 0xd6-0xdb.7 (6)
0x0d0|                  00 00 23 28                  |      ..#(      |        utoff: 9000 (valid) 0xd6-0xd9.7 (4)
0x0d0|                              00               |          .     |        dst: 0 (valid) 0xda-0xda.7 (1)
0x0d0|                                 04            |           .    |        idx: 4 (valid) 0xdb-0xdb.7 (1)
     |                                               |                |      [2]{}: local_time_type 0xdc-0xe1.7 (6)
0x0d0|                                    00 00 2a 30|            ..*0|        utoff: 10800 (valid) 0xdc-0xdf.7 (4)
0x0e0|00                                             |.               |        dst: 0 (valid) 0xe0-0xe0.7 (1)
0x0e0|   0a                                          | .              |        idx: 10 (valid) 0xe1-0xe1.7 (1)
     |                                               |                |      [3]{}: local_time_type 0xe2-0xe7.7 (6)
0x0e0|      00 00 26 ac                              |  ..&.          |        utoff: 9900 (valid) 0xe2-0xe5.7 (4)
0x0e0|                  00                           |      .         |        dst: 0 (valid) 0xe6-0xe6.7 (1)
0x0e0|                     0e                        |       .        |        idx: 14 (valid) 0xe7-0xe7.7 (1)
     |                                               |                |      [4]{}: local_time_type 0xe8-0xed.7 (6)
0x0e0|                        00 00 2a 30            |        ..*0    |        utoff: 10800 (valid) 0xe8-0xeb.7 (4)
0x0e0|                                    00         |            .   |        dst: 0 (valid) 0xec-0xec.7 (1)
0x0e0|                                       0a      |             .  |        idx: 10 (valid) 0xed-0xed.7 (1)
     |                                               |                |    time_zone_designations[0:4]: 0xee-0x101.7 (20)
0x0e0|                                          4c 4d|              LM|      [0]: "LMT" time_zone_designation 0xee-0xf1.7 (4)
0x0f0|54 00                                          |T.              |
0x0f0|      2b 30 32 33 30 00                        |  +0230.        |      [1]: "+0230" time_zone_designation 0xf2-0xf7.7 (6)
0x0f0|                        45 41 54 00            |        EAT.    |      [2]: "EAT" time_zone_designation 0xf8-0xfb.7 (4)
0x0f0|                                    2b 30 32 34|            +024|      [3]: "+0245" time_zone_designation 0xfc-0x101.7 (6)
0x100|35 00                                          |5.              |
     |                                               |                |    leap_second_records[0:0]: 0x102-NA (0)
     |                                               |                |    standard_wall_indicators[0:0]: 0x102-NA (0)
     |                                               |                |    ut_local_indicators[0:0]: 0x102-NA (0)
     |                                               |                |  footer{}: 0x102-0x108.7 (7)
0x100|      0a                                       |  .             |    nl1: 10 (valid) 0x102-0x102.7 (1)
0x100|         45 41 54 2d 33                        |   EAT-3        |    tz_string: "EAT-3" 0x103-0x107.7 (5)
0x100|                        0a|                    |        .|      |    nl2: 10 (valid) 0x108-0x108.7 (1)
