$ fq -d tzif dv Nairobi
     |00 01 02 03 04 05 06 07 08 09 0a 0b 0c 0d 0e 0f|0123456789abcdef|.{}: Nairobi (tzif) 0x0-0x109 (265)
     |                                               |                |  v1header{}: 0x0-0x2c (44)
0x000|54 5a 69 66                                    |TZif            |    magic: 0x545a6966 (valid) 0x0-0x4 (4)
0x000|            32                                 |    2           |    ver: "2" (0x32) (valid) 0x4-0x5 (1)
0x000|               00 00 00 00 00 00 00 00 00 00 00|     ...........|    reserved: raw bits 0x5-0x14 (15)
0x010|00 00 00 00                                    |....            |
0x010|            00 00 00 00                        |    ....        |    isutcnt: 0 0x14-0x18 (4)
0x010|                        00 00 00 00            |        ....    |    isstdcnt: 0 0x18-0x1c (4)
0x010|                                    00 00 00 00|            ....|    leapcnt: 0 0x1c-0x20 (4)
0x020|00 00 00 05                                    |....            |    timecnt: 5 0x20-0x24 (4)
0x020|            00 00 00 05                        |    ....        |    typecnt: 5 0x24-0x28 (4)
0x020|                        00 00 00 14            |        ....    |    charcnt: 20 0x28-0x2c (4)
     |                                               |                |  v1datablock{}: 0x2c-0x77 (75)
     |                                               |                |    transition_times[0:5]: 0x2c-0x40 (20)
0x020|                                    8b ff d1 fc|            ....|      [0]: "1908-04-30T21:32:44Z" (-1946168836) transition_time 0x2c-0x30 (4)
0x030|b1 ee da 58                                    |...X            |      [1]: "1928-06-30T21:30:00Z" (-1309746600) transition_time 0x30-0x34 (4)
0x030|            b4 c7 e0 d0                        |    ....        |      [2]: "1930-01-04T21:00:00Z" (-1261969200) transition_time 0x34-0x38 (4)
0x030|                        c1 ed ad 58            |        ...X    |      [3]: "1936-12-31T21:30:00Z" (-1041388200) transition_time 0x38-0x3c (4)
0x030|                                    cc 6c 7a d4|            .lz.|      [4]: "1942-07-31T21:15:00Z" (-865305900) transition_time 0x3c-0x40 (4)
     |                                               |                |    transition_types[0:5]: 0x40-0x45 (5)
0x040|01                                             |.               |      [0]: 1 transition_type 0x40-0x41 (1)
0x040|   02                                          | .              |      [1]: 2 transition_type 0x41-0x42 (1)
0x040|      01                                       |  .             |      [2]: 1 transition_type 0x42-0x43 (1)
0x040|         03                                    |   .            |      [3]: 3 transition_type 0x43-0x44 (1)
0x040|            02                                 |    .           |      [4]: 2 transition_type 0x44-0x45 (1)
     |                                               |                |    local_time_type_records[0:5]: 0x45-0x63 (30)
     |                                               |                |      [0]{}: local_time_type 0x45-0x4b (6)
0x040|               00 00 22 84                     |     ..".       |        utoff: 8836 (valid) 0x45-0x49 (4)
0x040|                           00                  |         .      |        dst: 0 (valid) 0x49-0x4a (1)
0x040|                              00               |          .     |        idx: 0 (valid) 0x4a-0x4b (1)
     |                                               |                |      [1]{}: local_time_type 0x4b-0x51 (6)
0x040|                                 00 00 23 28   |           ..#( |        utoff: 9000 (valid) 0x4b-0x4f (4)
0x040|                                             00|               .|        dst: 0 (valid) 0x4f-0x50 (1)
0x050|04                                             |.               |        idx: 4 (valid) 0x50-0x51 (1)
     |                                               |                |      [2]{}: local_time_type 0x51-0x57 (6)
0x050|   00 00 2a 30                                 | ..*0           |        utoff: 10800 (valid) 0x51-0x55 (4)
0x050|               00                              |     .          |        dst: 0 (valid) 0x55-0x56 (1)
0x050|                  0a                           |      .         |        idx: 10 (valid) 0x56-0x57 (1)
     |                                               |                |      [3]{}: local_time_type 0x57-0x5d (6)
0x050|                     00 00 26 ac               |       ..&.     |        utoff: 9900 (valid) 0x57-0x5b (4)
0x050|                                 00            |           .    |        dst: 0 (valid) 0x5b-0x5c (1)
0x050|                                    0e         |            .   |        idx: 14 (valid) 0x5c-0x5d (1)
     |                                               |                |      [4]{}: local_time_type 0x5d-0x63 (6)
0x050|                                       00 00 2a|             ..*|        utoff: 10800 (valid) 0x5d-0x61 (4)
0x060|30                                             |0               |
0x060|   00                                          | .              |        dst: 0 (valid) 0x61-0x62 (1)
0x060|      0a                                       |  .             |        idx: 10 (valid) 0x62-0x63 (1)
     |                                               |                |    time_zone_designations[0:4]: 0x63-0x77 (20)
0x060|         4c 4d 54 00                           |   LMT.         |      [0]: "LMT" time_zone_designation 0x63-0x67 (4)
0x060|                     2b 30 32 33 30 00         |       +0230.   |      [1]: "+0230" time_zone_designation 0x67-0x6d (6)
0x060|                                       45 41 54|             EAT|      [2]: "EAT" time_zone_designation 0x6d-0x71 (4)
0x070|00                                             |.               |
0x070|   2b 30 32 34 35 00                           | +0245.         |      [3]: "+0245" time_zone_designation 0x71-0x77 (6)
     |                                               |                |    leap_second_records[0:0]: 0x77-0x77 (0)
     |                                               |                |    standard_wall_indicators[0:0]: 0x77-0x77 (0)
     |                                               |                |    ut_local_indicators[0:0]: 0x77-0x77 (0)
     |                                               |                |  v2plusheader{}: 0x77-0xa3 (44)
0x070|                     54 5a 69 66               |       TZif     |    magic: 0x545a6966 (valid) 0x77-0x7b (4)
0x070|                                 32            |           2    |    ver: "2" (0x32) (valid) 0x7b-0x7c (1)
0x070|                                    00 00 00 00|            ....|    reserved: raw bits 0x7c-0x8b (15)
0x080|00 00 00 00 00 00 00 00 00 00 00               |...........     |
0x080|                                 00 00 00 00   |           .... |    isutcnt: 0 0x8b-0x8f (4)
0x080|                                             00|               .|    isstdcnt: 0 0x8f-0x93 (4)
0x090|00 00 00                                       |...             |
0x090|         00 00 00 00                           |   ....         |    leapcnt: 0 0x93-0x97 (4)
0x090|                     00 00 00 05               |       ....     |    timecnt: 5 0x97-0x9b (4)
0x090|                                 00 00 00 05   |           .... |    typecnt: 5 0x9b-0x9f (4)
0x090|                                             00|               .|    charcnt: 20 0x9f-0xa3 (4)
0x0a0|00 00 14                                       |...             |
     |                                               |                |  v2plusdatablock{}: 0xa3-0x102 (95)
     |                                               |                |    transition_times[0:5]: 0xa3-0xcb (40)
0x0a0|         ff ff ff ff 8b ff d1 fc               |   ........     |      [0]: "1908-04-30T21:32:44Z" (-1946168836) transition_time 0xa3-0xab (8)
0x0a0|                                 ff ff ff ff b1|           .....|      [1]: "1928-06-30T21:30:00Z" (-1309746600) transition_time 0xab-0xb3 (8)
0x0b0|ee da 58                                       |..X             |
0x0b0|         ff ff ff ff b4 c7 e0 d0               |   ........     |      [2]: "1930-01-04T21:00:00Z" (-1261969200) transition_time 0xb3-0xbb (8)
0x0b0|                                 ff ff ff ff c1|           .....|      [3]: "1936-12-31T21:30:00Z" (-1041388200) transition_time 0xbb-0xc3 (8)
0x0c0|ed ad 58                                       |..X             |
0x0c0|         ff ff ff ff cc 6c 7a d4               |   .....lz.     |      [4]: "1942-07-31T21:15:00Z" (-865305900) transition_time 0xc3-0xcb (8)
     |                                               |                |    transition_types[0:5]: 0xcb-0xd0 (5)
0x0c0|                                 01            |           .    |      [0]: 1 transition_type 0xcb-0xcc (1)
0x0c0|                                    02         |            .   |      [1]: 2 transition_type 0xcc-0xcd (1)
0x0c0|                                       01      |             .  |      [2]: 1 transition_type 0xcd-0xce (1)
0x0c0|                                          03   |              . |      [3]: 3 transition_type 0xce-0xcf (1)
0x0c0|                                             02|               .|      [4]: 2 transition_type 0xcf-0xd0 (1)
     |                                               |                |    local_time_type_records[0:5]: 0xd0-0xee (30)
     |                                               |                |      [0]{}: local_time_type 0xd0-0xd6 (6)
0x0d0|00 00 22 84                                    |..".            |        utoff: 8836 (valid) 0xd0-0xd4 (4)
0x0d0|            00                                 |    .           |        dst: 0 (valid) 0xd4-0xd5 (1)
0x0d0|               00                              |     .          |        idx: 0 (valid) 0xd5-0xd6 (1)
     |                                               |                |      [1]{}: local_time_type 0xd6-0xdc (6)
0x0d0|                  00 00 23 28                  |      ..#(      |        utoff: 9000 (valid) 0xd6-0xda (4)
0x0d0|                              00               |          .     |        dst: 0 (valid) 0xda-0xdb (1)
0x0d0|                                 04            |           .    |        idx: 4 (valid) 0xdb-0xdc (1)
     |                                               |                |      [2]{}: local_time_type 0xdc-0xe2 (6)
0x0d0|                                    00 00 2a 30|            ..*0|        utoff: 10800 (valid) 0xdc-0xe0 (4)
0x0e0|00                                             |.               |        dst: 0 (valid) 0xe0-0xe1 (1)
0x0e0|   0a                                          | .              |        idx: 10 (valid) 0xe1-0xe2 (1)
     |                                               |                |      [3]{}: local_time_type 0xe2-0xe8 (6)
0x0e0|      00 00 26 ac                              |  ..&.          |        utoff: 9900 (valid) 0xe2-0xe6 (4)
0x0e0|                  00                           |      .         |        dst: 0 (valid) 0xe6-0xe7 (1)
0x0e0|                     0e                        |       .        |        idx: 14 (valid) 0xe7-0xe8 (1)
     |                                               |                |      [4]{}: local_time_type 0xe8-0xee (6)
0x0e0|                        00 00 2a 30            |        ..*0    |        utoff: 10800 (valid) 0xe8-0xec (4)
0x0e0|                                    00         |            .   |        dst: 0 (valid) 0xec-0xed (1)
0x0e0|                                       0a      |             .  |        idx: 10 (valid) 0xed-0xee (1)
     |                                               |                |    time_zone_designations[0:4]: 0xee-0x102 (20)
0x0e0|                                          4c 4d|              LM|      [0]: "LMT" time_zone_designation 0xee-0xf2 (4)
0x0f0|54 00                                          |T.              |
0x0f0|      2b 30 32 33 30 00                        |  +0230.        |      [1]: "+0230" time_zone_designation 0xf2-0xf8 (6)
0x0f0|                        45 41 54 00            |        EAT.    |      [2]: "EAT" time_zone_designation 0xf8-0xfc (4)
0x0f0|                                    2b 30 32 34|            +024|      [3]: "+0245" time_zone_designation 0xfc-0x102 (6)
0x100|35 00                                          |5.              |
     |                                               |                |    leap_second_records[0:0]: 0x102-0x102 (0)
     |                                               |                |    standard_wall_indicators[0:0]: 0x102-0x102 (0)
     |                                               |                |    ut_local_indicators[0:0]: 0x102-0x102 (0)
     |                                               |                |  footer{}: 0x102-0x109 (7)
0x100|      0a                                       |  .             |    nl1: 10 (valid) 0x102-0x103 (1)
0x100|         45 41 54 2d 33                        |   EAT-3        |    tz_string: "EAT-3" 0x103-0x108 (5)
0x100|                        0a|                    |        .|      |    nl2: 10 (valid) 0x108-0x109 (1)
