$ fq -d tzif dv Nauru
    |00 01 02 03 04 05 06 07 08 09 0a 0b 0c 0d 0e 0f|0123456789abcdef|.{}: Nauru (tzif) 0x0-0xfc (252)
    |                                               |                |  v1header{}: 0x0-0x2c (44)
0x00|54 5a 69 66                                    |TZif            |    magic: 0x545a6966 (valid) 0x0-0x4 (4)
0x00|            32                                 |    2           |    ver: "2" (0x32) (valid) 0x4-0x5 (1)
0x00|               00 00 00 00 00 00 00 00 00 00 00|     ...........|    reserved: raw bits 0x5-0x14 (15)
0x10|00 00 00 00                                    |....            |
0x10|            00 00 00 00                        |    ....        |    isutcnt: 0 0x14-0x18 (4)
0x10|                        00 00 00 00            |        ....    |    isstdcnt: 0 0x18-0x1c (4)
0x10|                                    00 00 00 00|            ....|    leapcnt: 0 0x1c-0x20 (4)
0x20|00 00 00 05                                    |....            |    timecnt: 5 0x20-0x24 (4)
0x20|            00 00 00 04                        |    ....        |    typecnt: 4 0x24-0x28 (4)
0x20|                        00 00 00 12            |        ....    |    charcnt: 18 0x28-0x2c (4)
    |                                               |                |  v1datablock{}: 0x2c-0x6f (67)
    |                                               |                |    transition_times[0:5]: 0x2c-0x40 (20)
0x20|                                    a3 e7 2b 04|            ..+.|      [0]: "1921-01-14T12:52:20Z" (-1545131260) transition_time 0x2c-0x30 (4)
0x30|cc 90 e9 c8                                    |....            |      [1]: "1942-08-28T12:30:00Z" (-862918200) transition_time 0x30-0x34 (4)
0x30|            d2 43 27 f0                        |    .C'.        |      [2]: "1945-09-07T15:00:00Z" (-767350800) transition_time 0x34-0x38 (4)
0x30|                        11 21 a8 e8            |        .!..    |      [3]: "1979-02-09T14:30:00Z" (287418600) transition_time 0x38-0x3c (4)
0x30|                                    7f ff ff ff|            ....|      [4]: "2038-01-19T03:14:07Z" (2147483647) transition_time 0x3c-0x40 (4)
    |                                               |                |    transition_types[0:5]: 0x40-0x45 (5)
0x40|01                                             |.               |      [0]: 1 transition_type 0x40-0x41 (1)
0x40|   02                                          | .              |      [1]: 2 transition_type 0x41-0x42 (1)
0x40|      01                                       |  .             |      [2]: 1 transition_type 0x42-0x43 (1)
0x40|         03                                    |   .            |      [3]: 3 transition_type 0x43-0x44 (1)
0x40|            03                                 |    .           |      [4]: 3 transition_type 0x44-0x45 (1)
    |                                               |                |    local_time_type_records[0:4]: 0x45-0x5d (24)
    |                                               |                |      [0]{}: local_time_type 0x45-0x4b (6)
0x40|               00 00 9c 7c                     |     ...|       |        utoff: 40060 (valid) 0x45-0x49 (4)
0x40|                           00                  |         .      |        dst: 0 (valid) 0x49-0x4a (1)
0x40|                              00               |          .     |        idx: 0 (valid) 0x4a-0x4b (1)
    |                                               |                |      [1]{}: local_time_type 0x4b-0x51 (6)
0x40|                                 00 00 a1 b8   |           .... |        utoff: 41400 (valid) 0x4b-0x4f (4)
0x40|                                             00|               .|        dst: 0 (valid) 0x4f-0x50 (1)
0x50|04                                             |.               |        idx: 4 (valid) 0x50-0x51 (1)
    |                                               |                |      [2]{}: local_time_type 0x51-0x57 (6)
0x50|   00 00 7e 90                                 | ..~.           |        utoff: 32400 (valid) 0x51-0x55 (4)
0x50|               00                              |     .          |        dst: 0 (valid) 0x55-0x56 (1)
0x50|                  0a                           |      .         |        idx: 10 (valid) 0x56-0x57 (1)
    |                                               |                |      [3]{}: local_time_type 0x57-0x5d (6)
0x50|                     00 00 a8 c0               |       ....     |        utoff: 43200 (valid) 0x57-0x5b (4)
0x50|                                 00            |           .    |        dst: 0 (valid) 0x5b-0x5c (1)
0x50|                                    0e         |            .   |        idx: 14 (valid) 0x5c-0x5d (1)
    |                                               |                |    time_zone_designations[0:4]: 0x5d-0x6f (18)
0x50|                                       4c 4d 54|             LMT|      [0]: "LMT" time_zone_designation 0x5d-0x61 (4)
0x60|00                                             |.               |
0x60|   2b 31 31 33 30 00                           | +1130.         |      [1]: "+1130" time_zone_designation 0x61-0x67 (6)
0x60|                     2b 30 39 00               |       +09.     |      [2]: "+09" time_zone_designation 0x67-0x6b (4)
0x60|                                 2b 31 32 00   |           +12. |      [3]: "+12" time_zone_designation 0x6b-0x6f (4)
    |                                               |                |    leap_second_records[0:0]: 0x6f-0x6f (0)
    |                                               |                |    standard_wall_indicators[0:0]: 0x6f-0x6f (0)
    |                                               |                |    ut_local_indicators[0:0]: 0x6f-0x6f (0)
    |                                               |                |  v2plusheader{}: 0x6f-0x9b (44)
0x60|                                             54|               T|    magic: 0x545a6966 (valid) 0x6f-0x73 (4)
0x70|5a 69 66                                       |Zif             |
0x70|         32                                    |   2            |    ver: "2" (0x32) (valid) 0x73-0x74 (1)
0x70|            00 00 00 00 00 00 00 00 00 00 00 00|    ............|    reserved: raw bits 0x74-0x83 (15)
0x80|00 00 00                                       |...             |
0x80|         00 00 00 00                           |   ....         |    isutcnt: 0 0x83-0x87 (4)
0x80|                     00 00 00 00               |       ....     |    isstdcnt: 0 0x87-0x8b (4)
0x80|                                 00 00 00 00   |           .... |    leapcnt: 0 0x8b-0x8f (4)
0x80|                                             00|               .|    timecnt: 5 0x8f-0x93 (4)
0x90|00 00 05                                       |...             |
0x90|         00 00 00 04                           |   ....         |    typecnt: 4 0x93-0x97 (4)
0x90|                     00 00 00 12               |       ....     |    charcnt: 18 0x97-0x9b (4)
    |                                               |                |  v2plusdatablock{}: 0x9b-0xf2 (87)
    |                                               |                |    transition_times[0:5]: 0x9b-0xc3 (40)
0x90|                                 ff ff ff ff a3|           .....|      [0]: "1921-01-14T12:52:20Z" (-1545131260) transition_time 0x9b-0xa3 (8)
0xa0|e7 2b 04                                       |.+.             |
0xa0|         ff ff ff ff cc 90 e9 c8               |   ........     |      [1]: "1942-08-28T12:30:00Z" (-862918200) transition_time 0xa3-0xab (8)
0xa0|                                 ff ff ff ff d2|           .....|      [2]: "1945-09-07T15:00:00Z" (-767350800) transition_time 0xab-0xb3 (8)
0xb0|43 27 f0                                       |C'.             |
0xb0|         00 00 00 00 11 21 a8 e8               |   .....!..     |      [3]: "1979-02-09T14:30:00Z" (287418600) transition_time 0xb3-0xbb (8)
0xb0|                                 00 00 00 00 7f|           .....|      [4]: "2038-01-19T03:14:07Z" (2147483647) transition_time 0xbb-0xc3 (8)
0xc0|ff ff ff                                       |...             |
    |                                               |                |    transition_types[0:5]: 0xc3-0xc8 (5)
0xc0|         01                                    |   .            |      [0]: 1 transition_type 0xc3-0xc4 (1)
0xc0|            02                                 |    .           |      [1]: 2 transition_type 0xc4-0xc5 (1)
0xc0|               01                              |     .          |      [2]: 1 transition_type 0xc5-0xc6 (1)
0xc0|                  03                           |      .         |      [3]: 3 transition_type 0xc6-0xc7 (1)
0xc0|                     03                        |       .        |      [4]: 3 transition_type 0xc7-0xc8 (1)
    |                                               |                |    local_time_type_records[0:4]: 0xc8-0xe0 (24)
    |                                               |                |      [0]{}: local_time_type 0xc8-0xce (6)
0xc0|                        00 00 9c 7c            |        ...|    |        utoff: 40060 (valid) 0xc8-0xcc (4)
0xc0|                                    00         |            .   |        dst: 0 (valid) 0xcc-0xcd (1)
0xc0|                                       00      |             .  |        idx: 0 (valid) 0xcd-0xce (1)
    |                                               |                |      [1]{}: local_time_type 0xce-0xd4 (6)
0xc0|                                          00 00|              ..|        utoff: 41400 (valid) 0xce-0xd2 (4)
0xd0|a1 b8                                          |..              |
0xd0|      00                                       |  .             |        dst: 0 (valid) 0xd2-0xd3 (1)
0xd0|         04                                    |   .            |        idx: 4 (valid) 0xd3-0xd4 (1)
    |                                               |                |      [2]{}: local_time_type 0xd4-0xda (6)
0xd0|            00 00 7e 90                        |    ..~.        |        utoff: 32400 (valid) 0xd4-0xd8 (4)
0xd0|                        00                     |        .       |        dst: 0 (valid) 0xd8-0xd9 (1)
0xd0|                           0a                  |         .      |        idx: 10 (valid) 0xd9-0xda (1)
    |                                               |                |      [3]{}: local_time_type 0xda-0xe0 (6)
0xd0|                              00 00 a8 c0      |          ....  |        utoff: 43200 (valid) 0xda-0xde (4)
0xd0|                                          00   |              . |        dst: 0 (valid) 0xde-0xdf (1)
0xd0|                                             0e|               .|        idx: 14 (valid) 0xdf-0xe0 (1)
    |                                               |                |    time_zone_designations[0:4]: 0xe0-0xf2 (18)
0xe0|4c 4d 54 00                                    |LMT.            |      [0]: "LMT" time_zone_designation 0xe0-0xe4 (4)
0xe0|            2b 31 31 33 30 00                  |    +1130.      |      [1]: "+1130" time_zone_designation 0xe4-0xea (6)
0xe0|                              2b 30 39 00      |          +09.  |      [2]: "+09" time_zone_designation 0xea-0xee (4)
0xe0|                                          2b 31|              +1|      [3]: "+12" time_zone_designation 0xee-0xf2 (4)
0xf0|32 00                                          |2.              |
    |                                               |                |    leap_second_records[0:0]: 0xf2-0xf2 (0)
    |                                               |                |    standard_wall_indicators[0:0]: 0xf2-0xf2 (0)
    |                                               |                |    ut_local_indicators[0:0]: 0xf2-0xf2 (0)
    |                                               |                |  footer{}: 0xf2-0xfc (10)
0xf0|      0a                                       |  .             |    nl1: 10 (valid) 0xf2-0xf3 (1)
0xf0|         3c 2b 31 32 3e 2d 31 32               |   <+12>-12     |    tz_string: "<+12>-12" 0xf3-0xfb (8)
0xf0|                                 0a|           |           .|   |    nl2: 10 (valid) 0xfb-0xfc (1)
