$ fq -d tzif dv Ndjamena
    |00 01 02 03 04 05 06 07 08 09 0a 0b 0c 0d 0e 0f|0123456789abcdef|.{}: Ndjamena (tzif) 0x0-0xc7 (199)
    |                                               |                |  v1header{}: 0x0-0x2c (44)
0x00|54 5a 69 66                                    |TZif            |    magic: 0x545a6966 (valid) 0x0-0x4 (4)
0x00|            32                                 |    2           |    ver: "2" (0x32) (valid) 0x4-0x5 (1)
0x00|               00 00 00 00 00 00 00 00 00 00 00|     ...........|    reserved: raw bits 0x5-0x14 (15)
0x10|00 00 00 00                                    |....            |
0x10|            00 00 00 00                        |    ....        |    isutcnt: 0 0x14-0x18 (4)
0x10|                        00 00 00 00            |        ....    |    isstdcnt: 0 0x18-0x1c (4)
0x10|                                    00 00 00 00|            ....|    leapcnt: 0 0x1c-0x20 (4)
0x20|00 00 00 03                                    |....            |    timecnt: 3 0x20-0x24 (4)
0x20|            00 00 00 03                        |    ....        |    typecnt: 3 0x24-0x28 (4)
0x20|                        00 00 00 0d            |        ....    |    charcnt: 13 0x28-0x2c (4)
    |                                               |                |  v1datablock{}: 0x2c-0x5a (46)
    |                                               |                |    transition_times[0:3]: 0x2c-0x38 (12)
0x20|                                    92 e6 80 64|            ...d|      [0]: "1911-12-31T22:59:48Z" (-1830387612) transition_time 0x2c-0x30 (4)
0x30|12 66 71 70                                    |.fqp            |      [1]: "1979-10-13T23:00:00Z" (308703600) transition_time 0x30-0x34 (4)
0x30|            13 26 de 60                        |    .&.`        |      [2]: "1980-03-07T22:00:00Z" (321314400) transition_time 0x34-0x38 (4)
    |                                               |                |    transition_types[0:3]: 0x38-0x3b (3)
0x30|                        01                     |        .       |      [0]: 1 transition_type 0x38-0x39 (1)
0x30|                           02                  |         .      |      [1]: 2 transition_type 0x39-0x3a (1)
0x30|                              01               |          .     |      [2]: 1 transition_type 0x3a-0x3b (1)
    |                                               |                |    local_time_type_records[0:3]: 0x3b-0x4d (18)
    |                                               |                |      [0]{}: local_time_type 0x3b-0x41 (6)
0x30|                                 00 00 0e 1c   |           .... |        utoff: 3612 (valid) 0x3b-0x3f (4)
0x30|                                             00|               .|        dst: 0 (valid) 0x3f-0x40 (1)
0x40|00                                             |.               |        idx: 0 (valid) 0x40-0x41 (1)
    |                                               |                |      [1]{}: local_time_type 0x41-0x47 (6)
0x40|   00 00 0e 10                                 | ....           |        utoff: 3600 (valid) 0x41-0x45 (4)
0x40|               00                              |     .          |        dst: 0 (valid) 0x45-0x46 (1)
0x40|                  04                           |      .         |        idx: 4 (valid) 0x46-0x47 (1)
    |                                               |                |      [2]{}: local_time_type 0x47-0x4d (6)
0x40|                     00 00 1c 20               |       ...      |        utoff: 7200 (valid) 0x47-0x4b (4)
0x40|                                 01            |           .    |        dst: 1 (valid) 0x4b-0x4c (1)
0x40|                                    08         |            .   |        idx: 8 (valid) 0x4c-0x4d (1)
    |                                               |                |    time_zone_designations[0:3]: 0x4d-0x5a (13)
0x40|                                       4c 4d 54|             LMT|      [0]: "LMT" time_zone_designation 0x4d-0x51 (4)
0x50|00                                             |.               |
0x50|   57 41 54 00                                 | WAT.           |      [1]: "WAT" time_zone_designation 0x51-0x55 (4)
0x50|               57 41 53 54 00                  |     WAST.      |      [2]: "WAST" time_zone_designation 0x55-0x5a (5)
    |                                               |                |    leap_second_records[0:0]: 0x5a-0x5a (0)
    |                                               |                |    standard_wall_indicators[0:0]: 0x5a-0x5a (0)
    |                                               |                |    ut_local_indicators[0:0]: 0x5a-0x5a (0)
    |                                               |                |  v2plusheader{}: 0x5a-0x86 (44)
0x50|                              54 5a 69 66      |          TZif  |    magic: 0x545a6966 (valid) 0x5a-0x5e (4)
0x50|                                          32   |              2 |    ver: "2" (0x32) (valid) 0x5e-0x5f (1)
0x50|                                             00|               .|    reserved: raw bits 0x5f-0x6e (15)
0x60|00 00 00 00 00 00 00 00 00 00 00 00 00 00      |..............  |
0x60|                                          00 00|              ..|    isutcnt: 0 0x6e-0x72 (4)
0x70|00 00                                          |..              |
0x70|      00 00 00 00                              |  ....          |    isstdcnt: 0 0x72-0x76 (4)
0x70|                  00 00 00 00                  |      ....      |    leapcnt: 0 0x76-0x7a (4)
0x70|                              00 00 00 03      |          ....  |    timecnt: 3 0x7a-0x7e (4)
0x70|                                          00 00|              ..|    typecnt: 3 0x7e-0x82 (4)
0x80|00 03                                          |..              |
0x80|      00 00 00 0d                              |  ....          |    charcnt: 13 0x82-0x86 (4)
    |                                               |                |  v2plusdatablock{}: 0x86-0xc0 (58)
    |                                               |                |    transition_times[0:3]: 0x86-0x9e (24)
0x80|                  ff ff ff ff 92 e6 80 64      |      .......d  |      [0]: "1911-12-31T22:59:48Z" (-1830387612) transition_time 0x86-0x8e (8)
0x80|                                          00 00|              ..|      [1]: "1979-10-13T23:00:00Z" (308703600) transition_time 0x8e-0x96 (8)
0x90|00 00 12 66 71 70                              |...fqp          |
0x90|                  00 00 00 00 13 26 de 60      |      .....&.`  |      [2]: "1980-03-07T22:00:00Z" (321314400) transition_time 0x96-0x9e (8)
    |                                               |                |    transition_types[0:3]: 0x9e-0xa1 (3)
0x90|                                          01   |              . |      [0]: 1 transition_type 0x9e-0x9f (1)
0x90|                                             02|               .|      [1]: 2 transition_type 0x9f-0xa0 (1)
0xa0|01                                             |.               |      [2]: 1 transition_type 0xa0-0xa1 (1)
    |                                               |                |    local_time_type_records[0:3]: 0xa1-0xb3 (18)
    |                                               |                |      [0]{}: local_time_type 0xa1-0xa7 (6)
0xa0|   00 00 0e 1c                                 | ....           |        utoff: 3612 (valid) 0xa1-0xa5 (4)
0xa0|               00                              |     .          |        dst: 0 (valid) 0xa5-0xa6 (1)
0xa0|                  00                           |      .         |        idx: 0 (valid) 0xa6-0xa7 (1)
    |                                               |                |      [1]{}: local_time_type 0xa7-0xad (6)
0xa0|                     00 00 0e 10               |       ....     |        utoff: 3600 (valid) 0xa7-0xab (4)
0xa0|                                 00            |           .    |        dst: 0 (valid) 0xab-0xac (1)
0xa0|                                    04         |            .   |        idx: 4 (valid) 0xac-0xad (1)
    |                                               |                |      [2]{}: local_time_type 0xad-0xb3 (6)
0xa0|                                       00 00 1c|             ...|        utoff: 7200 (valid) 0xad-0xb1 (4)
0xb0|20                                             |                |
0xb0|   01                                          | .              |        dst: 1 (valid) 0xb1-0xb2 (1)
0xb0|      08                                       |  .             |        idx: 8 (valid) 0xb2-0xb3 (1)
    |                                               |                |    time_zone_designations[0:3]: 0xb3-0xc0 (13)
0xb0|         4c 4d 54 00                           |   LMT.         |      [0]: "LMT" time_zone_designation 0xb3-0xb7 (4)
0xb0|                     57 41 54 00               |       WAT.     |      [1]: "WAT" time_zone_designation 0xb7-0xbb (4)
0xb0|                                 57 41 53 54 00|           WAST.|      [2]: "WAST" time_zone_designation 0xbb-0xc0 (5)
    |                                               |                |    leap_second_records[0:0]: 0xc0-0xc0 (0)
    |                                               |                |    standard_wall_indicators[0:0]: 0xc0-0xc0 (0)
    |                                               |                |    ut_local_indicators[0:0]: 0xc0-0xc0 (0)
    |                                               |                |  footer{}: 0xc0-0xc7 (7)
0xc0|0a                                             |.               |    nl1: 10 (valid) 0xc0-0xc1 (1)
0xc0|   57 41 54 2d 31                              | WAT-1          |    tz_string: "WAT-1" 0xc1-0xc6 (5)
0xc0|                  0a|                          |      .|        |    nl2: 10 (valid) 0xc6-0xc7 (1)
