$ fq -d tzif dv New_York
     |00 01 02 03 04 05 06 07 08 09 0a 0b 0c 0d 0e 0f|0123456789abcdef|.{}: New_York (tzif) 0x0-0xe5d.7 (3678)
     |                                               |                |  v1header{}: 0x0-0x2b.7 (44)
0x000|54 5a 69 66                                    |TZif            |    magic: 0x545a6966 (valid) 0x0-0x3.7 (4)
0x000|            32                                 |    2           |    ver: "2" (0x32) (valid) 0x4-0x4.7 (1)
0x000|               00 00 00 00 00 00 00 00 00 00 00|     ...........|    reserved: raw bits 0x5-0x13.7 (15)
0x010|00 00 00 00                                    |....            |
0x010|            00 00 00 06                        |    ....        |    isutcnt: 6 0x14-0x17.7 (4)
0x010|                        00 00 00 06            |        ....    |    isstdcnt: 6 0x18-0x1b.7 (4)
0x010|                                    00 00 00 1b|            ....|    leapcnt: 27 0x1c-0x1f.7 (4)
0x020|00 00 00 d0                                    |....            |    timecnt: 208 0x20-0x23.7 (4)
0x020|            00 00 00 06                        |    ....        |    typecnt: 6 0x24-0x27.7 (4)
0x020|                        00 00 00 14            |        ....    |    charcnt: 20 0x28-0x2b.7 (4)
     |                                               |                |  v1datablock{}: 0x2c-0x557.7 (1324)
     |                                               |                |    transition_times[0:208]: 0x2c-0x36b.7 (832)
0x020|                                    80 00 00 00|            ....|      [0]: "1901-12-13T20:45:52Z" (-2147483648) transition_time 0x2c-0x2f.7 (4)
0x030|9e a6 1e 70                                    |...p            |      [1]: "1918-03-31T07:00:00Z" (-1633280400) transition_time 0x30-0x33.7 (4)
0x030|            9f ba eb 60                        |    ...`        |      [2]: "1918-10-27T06:00:00Z" (-1615140000) transition_time 0x34-0x37.7 (4)
0x030|                        a0 86 00 70            |        ...p    |      [3]: "1919-03-30T07:00:00Z" (-1601830800) transition_time 0x38-0x3b.7 (4)
0x030|                                    a1 9a cd 60|            ...`|      [4]: "1919-10-26T06:00:00Z" (-1583690400) transition_time 0x3c-0x3f.7 (4)
0x040|a2 65 e2 70                                    |.e.p            |      [5]: "1920-03-28T07:00:00Z" (-1570381200) transition_time 0x40-0x43.7 (4)
0x040|            a3 83 e9 e0                        |    ....        |      [6]: "1920-10-31T06:00:00Z" (-1551636000) transition_time 0x44-0x47.7 (4)
0x040|                        a4 6a ae 70            |        .j.p    |      [7]: "1921-04-24T07:00:00Z" (-1536512400) transition_time 0x48-0x4b.7 (4)
0x040|                                    a5 35 a7 60|            .5.`|      [8]: "1921-09-25T06:00:00Z" (-1523210400) transition_time 0x4c-0x4f.7 (4)
0x050|a6 53 ca f0                                    |.S..            |      [9]: "1922-04-30T07:00:00Z" (-1504458000) transition_time 0x50-0x53.7 (4)
0x050|            a7 15 89 60                        |    ...`        |      [10]: "1922-09-24T06:00:00Z" (-1491760800) transition_time 0x54-0x57.7 (4)
0x050|                        a8 33 ac f0            |        .3..    |      [11]: "1923-04-29T07:00:00Z" (-1473008400) transition_time 0x58-0x5b.7 (4)
0x050|                                    a8 fe a5 e0|            ....|      [12]: "1923-09-30T06:00:00Z" (-1459706400) transition_time 0x5c-0x5f.7 (4)
0x060|aa 13 8e f0                                    |....            |      [13]: "1924-04-27T07:00:00Z" (-1441558800) transition_time 0x60-0x63.7 (4)
0x060|            aa de 87 e0                        |    ....        |      [14]: "1924-09-28T06:00:00Z" (-1428256800) transition_time 0x64-0x67.7 (4)
0x060|                        ab f3 70 f0            |        ..p.    |      [15]: "1925-04-26T07:00:00Z" (-1410109200) transition_time 0x68-0x6b.7 (4)
0x060|                                    ac be 69 e0|            ..i.|      [16]: "1925-09-27T06:00:00Z" (-1396807200) transition_time 0x6c-0x6f.7 (4)
0x070|ad d3 52 f0                                    |..R.            |      [17]: "1926-04-25T07:00:00Z" (-1378659600) transition_time 0x70-0x73.7 (4)
0x070|            ae 9e 4b e0                        |    ..K.        |      [18]: "1926-09-26T06:00:00Z" (-1365357600) transition_time 0x74-0x77.7 (4)
0x070|                        af b3 34 f0            |        ..4.    |      [19]: "1927-04-24T07:00:00Z" (-1347210000) transition_time 0x78-0x7b.7 (4)
0x070|                                    b0 7e 2d e0|            .~-.|      [20]: "1927-09-25T06:00:00Z" (-1333908000) transition_time 0x7c-0x7f.7 (4)
0x080|b1 9c 51 70                                    |..Qp            |      [21]: "1928-04-29T07:00:00Z" (-1315155600) transition_time 0x80-0x83.7 (4)
0x080|            b2 67 4a 60                        |    .gJ`        |      [22]: "1928-09-30T06:00:00Z" (-1301853600) transition_time 0x84-0x87.7 (4)
0x080|                        b3 7c 33 70            |        .|3p    |      [23]: "1929-04-28T07:00:00Z" (-1283706000) transition_time 0x88-0x8b.7 (4)
0x080|                                    b4 47 2c 60|            .G,`|      [24]: "1929-09-29T06:00:00Z" (-1270404000) transition_time 0x8c-0x8f.7 (4)
0x090|b5 5c 15 70                                    |.\.p            |      [25]: "1930-04-27T07:00:00Z" (-1252256400) transition_time 0x90-0x93.7 (4)
0x090|            b6 27 0e 60                        |    .'.`        |      [26]: "1930-09-28T06:00:00Z" (-1238954400) transition_time 0x94-0x97.7 (4)
0x090|                        b7 3b f7 70            |        .;.p    |      [27]: "1931-04-26T07:00:00Z" (-1220806800) transition_time 0x98-0x9b.7 (4)
0x090|                                    b8 06 f0 60|            ...`|      [28]: "1931-09-27T06:00:00Z" (-1207504800) transition_time 0x9c-0x9f.7 (4)
0x0a0|b9 1b d9 70                                    |...p            |      [29]: "1932-04-24T07:00:00Z" (-1189357200) transition_time 0xa0-0xa3.7 (4)
0x0a0|            b9 e6 d2 60                        |    ...`        |      [30]: "1932-09-25T06:00:00Z" (-1176055200) transition_time 0xa4-0xa7.7 (4)
0x0a0|                        bb 04 f5 f0            |        ....    |      [31]: "1933-04-30T07:00:00Z" (-1157302800) transition_time 0xa8-0xab.7 (4)
0x0a0|                                    bb c6 b4 60|            ...`|      [32]: "1933-09-24T06:00:00Z" (-1144605600) transition_time 0xac-0xaf.7 (4)
0x0b0|bc e4 d7 f0                                    |....            |      [33]: "1934-04-29T07:00:00Z" (-1125853200) transition_time 0xb0-0xb3.7 (4)
0x0b0|            bd af d0 e0                        |    ....        |      [34]: "1934-09-30T06:00:00Z" (-1112551200) transition_time 0xb4-0xb7.7 (4)
0x0b0|                        be c4 b9 f0            |        ....    |      [35]: "1935-04-28T07:00:00Z" (-1094403600) transition_time 0xb8-0xbb.7 (4)
0x0b0|                                    bf 8f b2 e0|            ....|      [36]: "1935-09-29T06:00:00Z" (-1081101600) transition_time 0xbc-0xbf.7 (4)
0x0c0|c0 a4 9b f0                                    |....            |      [37]: "1936-04-26T07:00:00Z" (-1062954000) transition_time 0xc0-0xc3.7 (4)
0x0c0|            c1 6f 94 e0                        |    .o..        |      [38]: "1936-09-27T06:00:00Z" (-1049652000) transition_time 0xc4-0xc7.7 (4)
0x0c0|                        c2 84 7d f0            |        ..}.    |      [39]: "1937-04-25T07:00:00Z" (-1031504400) transition_time 0xc8-0xcb.7 (4)
0x0c0|                                    c3 4f 76 e0|            .Ov.|      [40]: "1937-09-26T06:00:00Z" (-1018202400) transition_time 0xcc-0xcf.7 (4)
0x0d0|c4 64 5f f0                                    |.d_.            |      [41]: "1938-04-24T07:00:00Z" (-1000054800) transition_time 0xd0-0xd3.7 (4)
0x0d0|            c5 2f 58 e0                        |    ./X.        |      [42]: "1938-09-25T06:00:00Z" (-986752800) transition_time 0xd4-0xd7.7 (4)
0x0d0|                        c6 4d 7c 70            |        .M|p    |      [43]: "1939-04-30T07:00:00Z" (-968000400) transition_time 0xd8-0xdb.7 (4)
0x0d0|                                    c7 0f 3a e0|            ..:.|      [44]: "1939-09-24T06:00:00Z" (-955303200) transition_time 0xdc-0xdf.7 (4)
0x0e0|c8 2d 5e 70                                    |.-^p            |      [45]: "1940-04-28T07:00:00Z" (-936550800) transition_time 0xe0-0xe3.7 (4)
0x0e0|            c8 f8 57 60                        |    ..W`        |      [46]: "1940-09-29T06:00:00Z" (-923248800) transition_time 0xe4-0xe7.7 (4)
0x0e0|                        ca 0d 40 70            |        ..@p    |      [47]: "1941-04-27T07:00:00Z" (-905101200) transition_time 0xe8-0xeb.7 (4)
0x0e0|                                    ca d8 39 60|            ..9`|      [48]: "1941-09-28T06:00:00Z" (-891799200) transition_time 0xec-0xef.7 (4)
0x0f0|cb 88 f0 70                                    |...p            |      [49]: "1942-02-09T07:00:00Z" (-880218000) transition_time 0xf0-0xf3.7 (4)
0x0f0|            d2 23 f4 70                        |    .#.p        |      [50]: "1945-08-14T23:00:00Z" (-769395600) transition_time 0xf4-0xf7.7 (4)
0x0f0|                        d2 60 fb e0            |        .`..    |      [51]: "1945-09-30T06:00:00Z" (-765396000) transition_time 0xf8-0xfb.7 (4)
0x0f0|                                    d3 75 e4 f0|            .u..|      [52]: "1946-04-28T07:00:00Z" (-747248400) transition_time 0xfc-0xff.7 (4)
0x100|d4 40 dd e0                                    |.@..            |      [53]: "1946-09-29T06:00:00Z" (-733946400) transition_time 0x100-0x103.7 (4)
0x100|            d5 55 c6 f0                        |    .U..        |      [54]: "1947-04-27T07:00:00Z" (-715798800) transition_time 0x104-0x107.7 (4)
0x100|                        d6 20 bf e0            |        . ..    |      [55]: "1947-09-28T06:00:00Z" (-702496800) transition_time 0x108-0x10b.7 (4)
0x100|                                    d7 35 a8 f0|            .5..|      [56]: "1948-04-25T07:00:00Z" (-684349200) transition_time 0x10c-0x10f.7 (4)
0x110|d8 00 a1 e0                                    |....            |      [57]: "1948-09-26T06:00:00Z" (-671047200) transition_time 0x110-0x113.7 (4)
0x110|            d9 15 8a f0                        |    ....        |      [58]: "1949-04-24T07:00:00Z" (-652899600) transition_time 0x114-0x117.7 (4)
0x110|                        d9 e0 83 e0            |        ....    |      [59]: "1949-09-25T06:00:00Z" (-639597600) transition_time 0x118-0x11b.7 (4)
0x110|                                    da fe a7 70|            ...p|      [60]: "1950-04-30T07:00:00Z" (-620845200) transition_time 0x11c-0x11f.7 (4)
0x120|db c0 65 e0                                    |..e.            |      [61]: "1950-09-24T06:00:00Z" (-608148000) transition_time 0x120-0x123.7 (4)
0x120|            dc de 89 70                        |    ...p        |      [62]: "1951-04-29T07:00:00Z" (-589395600) transition_time 0x124-0x127.7 (4)
0x120|                        dd a9 82 60            |        ...`    |      [63]: "1951-09-30T06:00:00Z" (-576093600) transition_time 0x128-0x12b.7 (4)
0x120|                                    de be 6b 70|            ..kp|      [64]: "1952-04-27T07:00:00Z" (-557946000) transition_time 0x12c-0x12f.7 (4)
0x130|df 89 64 60                                    |..d`            |      [65]: "1952-09-28T06:00:00Z" (-544644000) transition_time 0x130-0x133.7 (4)
0x130|            e0 9e 4d 70                        |    ..Mp        |      [66]: "1953-04-26T07:00:00Z" (-526496400) transition_time 0x134-0x137.7 (4)
0x130|                        e1 69 46 60            |        .iF`    |      [67]: "1953-09-27T06:00:00Z" (-513194400) transition_time 0x138-0x13b.7 (4)
0x130|                                    e2 7e 2f 70|            .~/p|      [68]: "1954-04-25T07:00:00Z" (-495046800) transition_time 0x13c-0x13f.7 (4)
0x140|e3 49 28 60                                    |.I(`            |      [69]: "1954-09-26T06:00:00Z" (-481744800) transition_time 0x140-0x143.7 (4)
0x140|            e4 5e 11 70                        |    .^.p        |      [70]: "1955-04-24T07:00:00Z" (-463597200) transition_time 0x144-0x147.7 (4)
0x140|                        e5 57 2e e0            |        .W..    |      [71]: "1955-10-30T06:00:00Z" (-447271200) transition_time 0x148-0x14b.7 (4)
0x140|                                    e6 47 2d f0|            .G-.|      [72]: "1956-04-29T07:00:00Z" (-431542800) transition_time 0x14c-0x14f.7 (4)
0x150|e7 37 10 e0                                    |.7..            |      [73]: "1956-10-28T06:00:00Z" (-415821600) transition_time 0x150-0x153.7 (4)
0x150|            e8 27 0f f0                        |    .'..        |      [74]: "1957-04-28T07:00:00Z" (-400093200) transition_time 0x154-0x157.7 (4)
0x150|                        e9 16 f2 e0            |        ....    |      [75]: "1957-10-27T06:00:00Z" (-384372000) transition_time 0x158-0x15b.7 (4)
0x150|                                    ea 06 f1 f0|            ....|      [76]: "1958-04-27T07:00:00Z" (-368643600) transition_time 0x15c-0x15f.7 (4)
0x160|ea f6 d4 e0                                    |....            |      [77]: "1958-10-26T06:00:00Z" (-352922400) transition_time 0x160-0x163.7 (4)
0x160|            eb e6 d3 f0                        |    ....        |      [78]: "1959-04-26T07:00:00Z" (-337194000) transition_time 0x164-0x167.7 (4)
0x160|                        ec d6 b6 e0            |        ....    |      [79]: "1959-10-25T06:00:00Z" (-321472800) transition_time 0x168-0x16b.7 (4)
0x160|                                    ed c6 b5 f0|            ....|      [80]: "1960-04-24T07:00:00Z" (-305744400) transition_time 0x16c-0x16f.7 (4)
0x170|ee bf d3 60                                    |...`            |      [81]: "1960-10-30T06:00:00Z" (-289418400) transition_time 0x170-0x173.7 (4)
0x170|            ef af d2 70                        |    ...p        |      [82]: "1961-04-30T07:00:00Z" (-273690000) transition_time 0x174-0x177.7 (4)
0x170|                        f0 9f b5 60            |        ...`    |      [83]: "1961-10-29T06:00:00Z" (-257968800) transition_time 0x178-0x17b.7 (4)
0x170|                                    f1 8f b4 70|            ...p|      [84]: "1962-04-29T07:00:00Z" (-242240400) transition_time 0x17c-0x17f.7 (4)
0x180|f2 7f 97 60                                    |...`            |      [85]: "1962-10-28T06:00:00Z" (-226519200) transition_time 0x180-0x183.7 (4)
0x180|            f3 6f 96 70                        |    .o.p        |      [86]: "1963-04-28T07:00:00Z" (-210790800) transition_time 0x184-0x187.7 (4)
0x180|                        f4 5f 79 60            |        ._y`    |      [87]: "1963-10-27T06:00:00Z" (-195069600) transition_time 0x188-0x18b.7 (4)
0x180|                                    f5 4f 78 70|            .Oxp|      [88]: "1964-04-26T07:00:00Z" (-179341200) transition_time 0x18c-0x18f.7 (4)
0x190|f6 3f 5b 60                                    |.?[`            |      [89]: "1964-10-25T06:00:00Z" (-163620000) transition_time 0x190-0x193.7 (4)
0x190|            f7 2f 5a 70                        |    ./Zp        |      [90]: "1965-04-25T07:00:00Z" (-147891600) transition_time 0x194-0x197.7 (4)
0x190|                        f8 28 77 e0            |        .(w.    |      [91]: "1965-10-31T06:00:00Z" (-131565600) transition_time 0x198-0x19b.7 (4)
0x190|                                    f9 0f 3c 70|            ..<p|      [92]: "1966-04-24T07:00:00Z" (-116442000) transition_time 0x19c-0x19f.7 (4)
0x1a0|fa 08 59 e0                                    |..Y.            |      [93]: "1966-10-30T06:00:00Z" (-100116000) transition_time 0x1a0-0x1a3.7 (4)
0x1a0|            fa f8 58 f0                        |    ..X.        |      [94]: "1967-04-30T07:00:00Z" (-84387600) transition_time 0x1a4-0x1a7.7 (4)
0x1a0|                        fb e8 3b e0            |        ..;.    |      [95]: "1967-10-29T06:00:00Z" (-68666400) transition_time 0x1a8-0x1ab.7 (4)
0x1a0|                                    fc d8 3a f0|            ..:.|      [96]: "1968-04-28T07:00:00Z" (-52938000) transition_time 0x1ac-0x1af.7 (4)
0x1b0|fd c8 1d e0                                    |....            |      [97]: "1968-10-27T06:00:00Z" (-37216800) transition_time 0x1b0-0x1b3.7 (4)
0x1b0|            fe b8 1c f0                        |    ....        |      [98]: "1969-04-27T07:00:00Z" (-21488400) transition_time 0x1b4-0x1b7.7 (4)
0x1b0|                        ff a7 ff e0            |        ....    |      [99]: "1969-10-26T06:00:00Z" (-5767200) transition_time 0x1b8-0x1bb.7 (4)
0x1b0|                                    00 97 fe f0|            ....|      [100]: "1970-04-26T07:00:00Z" (9961200) transition_time 0x1bc-0x1bf.7 (4)
0x1c0|01 87 e1 e0                                    |....            |      [101]: "1970-10-25T06:00:00Z" (25682400) transition_time 0x1c0-0x1c3.7 (4)
0x1c0|            02 77 e0 f0                        |    .w..        |      [102]: "1971-04-25T07:00:00Z" (41410800) transition_time 0x1c4-0x1c7.7 (4)
0x1c0|                        03 70 fe 60            |        .p.`    |      [103]: "1971-10-31T06:00:00Z" (57736800) transition_time 0x1c8-0x1cb.7 (4)
0x1c0|                                    04 60 fd 70|            .`.p|      [104]: "1972-04-30T07:00:00Z" (73465200) transition_time 0x1cc-0x1cf.7 (4)
0x1d0|05 50 e0 61                                    |.P.a            |      [105]: "1972-10-29T06:00:01Z" (89186401) transition_time 0x1d0-0x1d3.7 (4)
0x1d0|            06 40 df 72                        |    .@.r        |      [106]: "1973-04-29T07:00:02Z" (104914802) transition_time 0x1d4-0x1d7.7 (4)
0x1d0|                        07 30 c2 62            |        .0.b    |      [107]: "1973-10-28T06:00:02Z" (120636002) transition_time 0x1d8-0x1db.7 (4)
0x1d0|                                    07 8d 19 73|            ...s|      [108]: "1974-01-06T07:00:03Z" (126687603) transition_time 0x1dc-0x1df.7 (4)
0x1e0|09 10 a4 63                                    |...c            |      [109]: "1974-10-27T06:00:03Z" (152085603) transition_time 0x1e0-0x1e3.7 (4)
0x1e0|            09 ad 94 f4                        |    ....        |      [110]: "1975-02-23T07:00:04Z" (162370804) transition_time 0x1e4-0x1e7.7 (4)
0x1e0|                        0a f0 86 64            |        ...d    |      [111]: "1975-10-26T06:00:04Z" (183535204) transition_time 0x1e8-0x1eb.7 (4)
0x1e0|                                    0b e0 85 75|            ...u|      [112]: "1976-04-25T07:00:05Z" (199263605) transition_time 0x1ec-0x1ef.7 (4)
0x1f0|0c d9 a2 e5                                    |....            |      [113]: "1976-10-31T06:00:05Z" (215589605) transition_time 0x1f0-0x1f3.7 (4)
0x1f0|            0d c0 67 76                        |    ..gv        |      [114]: "1977-04-24T07:00:06Z" (230713206) transition_time 0x1f4-0x1f7.7 (4)
0x1f0|                        0e b9 84 e6            |        ....    |      [115]: "1977-10-30T06:00:06Z" (247039206) transition_time 0x1f8-0x1fb.7 (4)
0x1f0|                                    0f a9 83 f7|            ....|      [116]: "1978-04-30T07:00:07Z" (262767607) transition_time 0x1fc-0x1ff.7 (4)
0x200|10 99 66 e7                                    |..f.            |      [117]: "1978-10-29T06:00:07Z" (278488807) transition_time 0x200-0x203.7 (4)
0x200|            11 89 65 f8                        |    ..e.        |      [118]: "1979-04-29T07:00:08Z" (294217208) transition_time 0x204-0x207.7 (4)
0x200|                        12 79 48 e8            |        .yH.    |      [119]: "1979-10-28T06:00:08Z" (309938408) transition_time 0x208-0x20b.7 (4)
0x200|                                    13 69 47 f9|            .iG.|      [120]: "1980-04-27T07:00:09Z" (325666809) transition_time 0x20c-0x20f.7 (4)
0x210|14 59 2a e9                                    |.Y*.            |      [121]: "1980-10-26T06:00:09Z" (341388009) transition_time 0x210-0x213.7 (4)
0x210|            15 49 29 f9                        |    .I).        |      [122]: "1981-04-26T07:00:09Z" (357116409) transition_time 0x214-0x217.7 (4)
0x210|                        16 39 0c ea            |        .9..    |      [123]: "1981-10-25T06:00:10Z" (372837610) transition_time 0x218-0x21b.7 (4)
0x210|                                    17 29 0b fa|            .)..|      [124]: "1982-04-25T07:00:10Z" (388566010) transition_time 0x21c-0x21f.7 (4)
0x220|18 22 29 6b                                    |.")k            |      [125]: "1982-10-31T06:00:11Z" (404892011) transition_time 0x220-0x223.7 (4)
0x220|            19 08 ed fb                        |    ....        |      [126]: "1983-04-24T07:00:11Z" (420015611) transition_time 0x224-0x227.7 (4)
0x220|                        1a 02 0b 6c            |        ...l    |      [127]: "1983-10-30T06:00:12Z" (436341612) transition_time 0x228-0x22b.7 (4)
0x220|                                    1a f2 0a 7c|            ...||      [128]: "1984-04-29T07:00:12Z" (452070012) transition_time 0x22c-0x22f.7 (4)
0x230|1b e1 ed 6c                                    |...l            |      [129]: "1984-10-28T06:00:12Z" (467791212) transition_time 0x230-0x233.7 (4)
0x230|            1c d1 ec 7c                        |    ...|        |      [130]: "1985-04-28T07:00:12Z" (483519612) transition_time 0x234-0x237.7 (4)
0x230|                        1d c1 cf 6d            |        ...m    |      [131]: "1985-10-27T06:00:13Z" (499240813) transition_time 0x238-0x23b.7 (4)
0x230|                                    1e b1 ce 7d|            ...}|      [132]: "1986-04-27T07:00:13Z" (514969213) transition_time 0x23c-0x23f.7 (4)
0x240|1f a1 b1 6d                                    |...m            |      [133]: "1986-10-26T06:00:13Z" (530690413) transition_time 0x240-0x243.7 (4)
0x240|            20 76 00 fd                        |     v..        |      [134]: "1987-04-05T07:00:13Z" (544604413) transition_time 0x244-0x247.7 (4)
0x240|                        21 81 93 6d            |        !..m    |      [135]: "1987-10-25T06:00:13Z" (562140013) transition_time 0x248-0x24b.7 (4)
0x240|                                    22 55 e2 fe|            "U..|      [136]: "1988-04-03T07:00:14Z" (576054014) transition_time 0x24c-0x24f.7 (4)
0x250|23 6a af ee                                    |#j..            |      [137]: "1988-10-30T06:00:14Z" (594194414) transition_time 0x250-0x253.7 (4)
0x250|            24 35 c4 fe                        |    $5..        |      [138]: "1989-04-02T07:00:14Z" (607503614) transition_time 0x254-0x257.7 (4)
0x250|                        25 4a 91 ee            |        %J..    |      [139]: "1989-10-29T06:00:14Z" (625644014) transition_time 0x258-0x25b.7 (4)
0x250|                                    26 15 a6 ff|            &...|      [140]: "1990-04-01T07:00:15Z" (638953215) transition_time 0x25c-0x25f.7 (4)
0x260|27 2a 73 ef                                    |'*s.            |      [141]: "1990-10-28T06:00:15Z" (657093615) transition_time 0x260-0x263.7 (4)
0x260|            27 fe c3 80                        |    '...        |      [142]: "1991-04-07T07:00:16Z" (671007616) transition_time 0x264-0x267.7 (4)
0x260|                        29 0a 55 f0            |        ).U.    |      [143]: "1991-10-27T06:00:16Z" (688543216) transition_time 0x268-0x26b.7 (4)
0x260|                                    29 de a5 80|            )...|      [144]: "1992-04-05T07:00:16Z" (702457216) transition_time 0x26c-0x26f.7 (4)
0x270|2a ea 37 f1                                    |*.7.            |      [145]: "1992-10-25T06:00:17Z" (719992817) transition_time 0x270-0x273.7 (4)
0x270|            2b be 87 81                        |    +...        |      [146]: "1993-04-04T07:00:17Z" (733906817) transition_time 0x274-0x277.7 (4)
0x270|                        2c d3 54 72            |        ,.Tr    |      [147]: "1993-10-31T06:00:18Z" (752047218) transition_time 0x278-0x27b.7 (4)
0x270|                                    2d 9e 69 82|            -.i.|      [148]: "1994-04-03T07:00:18Z" (765356418) transition_time 0x27c-0x27f.7 (4)
0x280|2e b3 36 73                                    |..6s            |      [149]: "1994-10-30T06:00:19Z" (783496819) transition_time 0x280-0x283.7 (4)
0x280|            2f 7e 4b 83                        |    /~K.        |      [150]: "1995-04-02T07:00:19Z" (796806019) transition_time 0x284-0x287.7 (4)
0x280|                        30 93 18 73            |        0..s    |      [151]: "1995-10-29T06:00:19Z" (814946419) transition_time 0x288-0x28b.7 (4)
0x280|                                    31 67 68 04|            1gh.|      [152]: "1996-04-07T07:00:20Z" (828860420) transition_time 0x28c-0x28f.7 (4)
0x290|32 72 fa 74                                    |2r.t            |      [153]: "1996-10-27T06:00:20Z" (846396020) transition_time 0x290-0x293.7 (4)
0x290|            33 47 4a 04                        |    3GJ.        |      [154]: "1997-04-06T07:00:20Z" (860310020) transition_time 0x294-0x297.7 (4)
0x290|                        34 52 dc 75            |        4R.u    |      [155]: "1997-10-26T06:00:21Z" (877845621) transition_time 0x298-0x29b.7 (4)
0x290|                                    35 27 2c 05|            5',.|      [156]: "1998-04-05T07:00:21Z" (891759621) transition_time 0x29c-0x29f.7 (4)
0x2a0|36 32 be 75                                    |62.u            |      [157]: "1998-10-25T06:00:21Z" (909295221) transition_time 0x2a0-0x2a3.7 (4)
0x2a0|            37 07 0e 06                        |    7...        |      [158]: "1999-04-04T07:00:22Z" (923209222) transition_time 0x2a4-0x2a7.7 (4)
0x2a0|                        38 1b da f6            |        8...    |      [159]: "1999-10-31T06:00:22Z" (941349622) transition_time 0x2a8-0x2ab.7 (4)
0x2a0|                                    38 e6 f0 06|            8...|      [160]: "2000-04-02T07:00:22Z" (954658822) transition_time 0x2ac-0x2af.7 (4)
0x2b0|39 fb bc f6                                    |9...            |      [161]: "2000-10-29T06:00:22Z" (972799222) transition_time 0x2b0-0x2b3.7 (4)
0x2b0|            3a c6 d2 06                        |    :...        |      [162]: "2001-04-01T07:00:22Z" (986108422) transition_time 0x2b4-0x2b7.7 (4)
0x2b0|                        3b db 9e f6            |        ;...    |      [163]: "2001-10-28T06:00:22Z" (1004248822) transition_time 0x2b8-0x2bb.7 (4)
0x2b0|                                    3c af ee 86|            <...|      [164]: "2002-04-07T07:00:22Z" (1018162822) transition_time 0x2bc-0x2bf.7 (4)
0x2c0|3d bb 80 f6                                    |=...            |      [165]: "2002-10-27T06:00:22Z" (1035698422) transition_time 0x2c0-0x2c3.7 (4)
0x2c0|            3e 8f d0 86                        |    >...        |      [166]: "2003-04-06T07:00:22Z" (1049612422) transition_time 0x2c4-0x2c7.7 (4)
0x2c0|                        3f 9b 62 f6            |        ?.b.    |      [167]: "2003-10-26T06:00:22Z" (1067148022) transition_time 0x2c8-0x2cb.7 (4)
0x2c0|                                    40 6f b2 86|            @o..|      [168]: "2004-04-04T07:00:22Z" (1081062022) transition_time 0x2cc-0x2cf.7 (4)
0x2d0|41 84 7f 76                                    |A..v            |      [169]: "2004-10-31T06:00:22Z" (1099202422) transition_time 0x2d0-0x2d3.7 (4)
0x2d0|            42 4f 94 86                        |    BO..        |      [170]: "2005-04-03T07:00:22Z" (1112511622) transition_time 0x2d4-0x2d7.7 (4)
0x2d0|                        43 64 61 76            |        Cdav    |      [171]: "2005-10-30T06:00:22Z" (1130652022) transition_time 0x2d8-0x2db.7 (4)
0x2d0|                                    44 2f 76 87|            D/v.|      [172]: "2006-04-02T07:00:23Z" (1143961223) transition_time 0x2dc-0x2df.7 (4)
0x2e0|45 44 43 77                                    |EDCw            |      [173]: "2006-10-29T06:00:23Z" (1162101623) transition_time 0x2e0-0x2e3.7 (4)
0x2e0|            45 f3 a9 07                        |    E...        |      [174]: "2007-03-11T07:00:23Z" (1173596423) transition_time 0x2e4-0x2e7.7 (4)
0x2e0|                        47 2d 5f f7            |        G-_.    |      [175]: "2007-11-04T06:00:23Z" (1194156023) transition_time 0x2e8-0x2eb.7 (4)
0x2e0|                                    47 d3 8b 07|            G...|      [176]: "2008-03-09T07:00:23Z" (1205046023) transition_time 0x2ec-0x2ef.7 (4)
0x2f0|49 0d 41 f7                                    |I.A.            |      [177]: "2008-11-02T06:00:23Z" (1225605623) transition_time 0x2f0-0x2f3.7 (4)
0x2f0|            49 b3 6d 08                        |    I.m.        |      [178]: "2009-03-08T07:00:24Z" (1236495624) transition_time 0x2f4-0x2f7.7 (4)
0x2f0|                        4a ed 23 f8            |        J.#.    |      [179]: "2009-11-01T06:00:24Z" (1257055224) transition_time 0x2f8-0x2fb.7 (4)
0x2f0|                                    4b 9c 89 88|            K...|      [180]: "2010-03-14T07:00:24Z" (1268550024) transition_time 0x2fc-0x2ff.7 (4)
0x300|4c d6 40 78                                    |L.@x            |      [181]: "2010-11-07T06:00:24Z" (1289109624) transition_time 0x300-0x303.7 (4)
0x300|            4d 7c 6b 88                        |    M|k.        |      [182]: "2011-03-13T07:00:24Z" (1299999624) transition_time 0x304-0x307.7 (4)
0x300|                        4e b6 22 78            |        N."x    |      [183]: "2011-11-06T06:00:24Z" (1320559224) transition_time 0x308-0x30b.7 (4)
0x300|                                    4f 5c 4d 88|            O\M.|      [184]: "2012-03-11T07:00:24Z" (1331449224) transition_time 0x30c-0x30f.7 (4)
0x310|50 96 04 79                                    |P..y            |      [185]: "2012-11-04T06:00:25Z" (1352008825) transition_time 0x310-0x313.7 (4)
0x310|            51 3c 2f 89                        |    Q</.        |      [186]: "2013-03-10T07:00:25Z" (1362898825) transition_time 0x314-0x317.7 (4)
0x310|                        52 75 e6 79            |        Ru.y    |      [187]: "2013-11-03T06:00:25Z" (1383458425) transition_time 0x318-0x31b.7 (4)
0x310|                                    53 1c 11 89|            S...|      [188]: "2014-03-09T07:00:25Z" (1394348425) transition_time 0x31c-0x31f.7 (4)
0x320|54 55 c8 79                                    |TU.y            |      [189]: "2014-11-02T06:00:25Z" (1414908025) transition_time 0x320-0x323.7 (4)
0x320|            54 fb f3 89                        |    T...        |      [190]: "2015-03-08T07:00:25Z" (1425798025) transition_time 0x324-0x327.7 (4)
0x320|                        56 35 aa 7a            |        V5.z    |      [191]: "2015-11-01T06:00:26Z" (1446357626) transition_time 0x328-0x32b.7 (4)
0x320|                                    56 e5 10 0a|            V...|      [192]: "2016-03-13T07:00:26Z" (1457852426) transition_time 0x32c-0x32f.7 (4)
0x330|58 1e c6 fa                                    |X...            |      [193]: "2016-11-06T06:00:26Z" (1478412026) transition_time 0x330-0x333.7 (4)
0x330|            58 c4 f2 0b                        |    X...        |      [194]: "2017-03-12T07:00:27Z" (1489302027) transition_time 0x334-0x337.7 (4)
0x330|                        59 fe a8 fb            |        Y...    |      [195]: "2017-11-05T06:00:27Z" (1509861627) transition_time 0x338-0x33b.7 (4)
0x330|                                    5a a4 d4 0b|            Z...|      [196]: "2018-03-11T07:00:27Z" (1520751627) transition_time 0x33c-0x33f.7 (4)
0x340|5b de 8a fb                                    |[...            |      [197]: "2018-11-04T06:00:27Z" (1541311227) transition_time 0x340-0x343.7 (4)
0x340|            5c 84 b6 0b                        |    \...        |      [198]: "2019-03-10T07:00:27Z" (1552201227) transition_time 0x344-0x347.7 (4)
0x340|                        5d be 6c fb            |        ].l.    |      [199]: "2019-11-03T06:00:27Z" (1572760827) transition_time 0x348-0x34b.7 (4)
0x340|                                    5e 64 98 0b|            ^d..|      [200]: "2020-03-08T07:00:27Z" (1583650827) transition_time 0x34c-0x34f.7 (4)
0x350|5f 9e 4e fb                                    |_.N.            |      [201]: "2020-11-01T06:00:27Z" (1604210427) transition_time 0x350-0x353.7 (4)
0x350|            60 4d b4 8b                        |    `M..        |      [202]: "2021-03-14T07:00:27Z" (1615705227) transition_time 0x354-0x357.7 (4)
0x350|                        61 87 6b 7b            |        a.k{    |      [203]: "2021-11-07T06:00:27Z" (1636264827) transition_time 0x358-0x35b.7 (4)
0x350|                                    62 2d 96 8b|            b-..|      [204]: "2022-03-13T07:00:27Z" (1647154827) transition_time 0x35c-0x35f.7 (4)
0x360|63 67 4d 7b                                    |cgM{            |      [205]: "2022-11-06T06:00:27Z" (1667714427) transition_time 0x360-0x363.7 (4)
0x360|            64 0d 78 8b                        |    d.x.        |      [206]: "2023-03-12T07:00:27Z" (1678604427) transition_time 0x364-0x367.7 (4)
0x360|                        64 9b 78 1b            |        d.x.    |      [207]: "2023-06-28T00:00:27Z" (1687910427) transition_time 0x368-0x36b.7 (4)
     |                                               |                |    transition_types[0:208]: 0x36c-0x43b.7 (208)
0x360|                                    03         |            .   |      [0]: 3 transition_type 0x36c-0x36c.7 (1)
0x360|                                       01      |             .  |      [1]: 1 transition_type 0x36d-0x36d.7 (1)
0x360|                                          02   |              . |      [2]: 2 transition_type 0x36e-0x36e.7 (1)
0x360|                                             01|               .|      [3]: 1 transition_type 0x36f-0x36f.7 (1)
0x370|02                                             |.               |      [4]: 2 transition_type 0x370-0x370.7 (1)
0x370|   01                                          | .              |      [5]: 1 transition_type 0x371-0x371.7 (1)
0x370|      02                                       |  .             |      [6]: 2 transition_type 0x372-0x372.7 (1)
0x370|         01                                    |   .            |      [7]: 1 transition_type 0x373-0x373.7 (1)
0x370|            02                                 |    .           |      [8]: 2 transition_type 0x374-0x374.7 (1)
0x370|               01                              |     .          |      [9]: 1 transition_type 0x375-0x375.7 (1)
0x370|                  02                           |      .         |      [10]: 2 transition_type 0x376-0x376.7 (1)
0x370|                     01                        |       .        |      [11]: 1 transition_type 0x377-0x377.7 (1)
0x370|                        02                     |        .       |      [12]: 2 transition_type 0x378-0x378.7 (1)
0x370|                           01                  |         .      |      [13]: 1 transition_type 0x379-0x379.7 (1)
0x370|                              02               |          .     |      [14]: 2 transition_type 0x37a-0x37a.7 (1)
0x370|                                 01            |           .    |      [15]: 1 transition_type 0x37b-0x37b.7 (1)
0x370|                                    02         |            .   |      [16]: 2 transition_type 0x37c-0x37c.7 (1)
0x370|                                       01      |             .  |      [17]: 1 transition_type 0x37d-0x37d.7 (1)
0x370|                                          02   |              . |      [18]: 2 transition_type 0x37e-0x37e.7 (1)
0x370|                                             01|               .|      [19]: 1 transition_type 0x37f-0x37f.7 (1)
0x380|02                                             |.               |      [20]: 2 transition_type 0x380-0x380.7 (1)
0x380|   01                                          | .              |      [21]: 1 transition_type 0x381-0x381.7 (1)
0x380|      02                                       |  .             |      [22]: 2 transition_type 0x382-0x382.7 (1)
0x380|         01                                    |   .            |      [23]: 1 transition_type 0x383-0x383.7 (1)
0x380|            02                                 |    .           |      [24]: 2 transition_type 0x384-0x384.7 (1)
0x380|               01                              |     .          |      [25]: 1 transition_type 0x385-0x385.7 (1)
0x380|                  02                           |      .         |      [26]: 2 transition_type 0x386-0x386.7 (1)
0x380|                     01                        |       .        |      [27]: 1 transition_type 0x387-0x387.7 (1)
0x380|                        02                     |        .       |      [28]: 2 transition_type 0x388-0x388.7 (1)
0x380|                           01                  |         .      |      [29]: 1 transition_type 0x389-0x389.7 (1)
0x380|                              02               |          .     |      [30]: 2 transition_type 0x38a-0x38a.7 (1)
0x380|                                 01            |           .    |      [31]: 1 transition_type 0x38b-0x38b.7 (1)
0x380|                                    02         |            .   |      [32]: 2 transition_type 0x38c-0x38c.7 (1)
0x380|                                       01      |             .  |      [33]: 1 transition_type 0x38d-0x38d.7 (1)
0x380|                                          02   |              . |      [34]: 2 transition_type 0x38e-0x38e.7 (1)
0x380|                                             01|               .|      [35]: 1 transition_type 0x38f-0x38f.7 (1)
0x390|02                                             |.               |      [36]: 2 transition_type 0x390-0x390.7 (1)
0x390|   01                                          | .              |      [37]: 1 transition_type 0x391-0x391.7 (1)
0x390|      02                                       |  .             |      [38]: 2 transition_type 0x392-0x392.7 (1)
0x390|         01                                    |   .            |      [39]: 1 transition_type 0x393-0x393.7 (1)
0x390|            02                                 |    .           |      [40]: 2 transition_type 0x394-0x394.7 (1)
0x390|               01                              |     .          |      [41]: 1 transition_type 0x395-0x395.7 (1)
0x390|                  02                           |      .         |      [42]: 2 transition_type 0x396-0x396.7 (1)
0x390|                     01                        |       .        |      [43]: 1 transition_type 0x397-0x397.7 (1)
0x390|                        02                     |        .       |      [44]: 2 transition_type 0x398-0x398.7 (1)
0x390|                           01                  |         .      |      [45]: 1 transition_type 0x399-0x399.7 (1)
0x390|                              02               |          .     |      [46]: 2 transition_type 0x39a-0x39a.7 (1)
0x390|                                 01            |           .    |      [47]: 1 transition_type 0x39b-0x39b.7 (1)
0x390|                                    02         |            .   |      [48]: 2 transition_type 0x39c-0x39c.7 (1)
0x390|                                       04      |             .  |      [49]: 4 transition_type 0x39d-0x39d.7 (1)
0x390|                                          05   |              . |      [50]: 5 transition_type 0x39e-0x39e.7 (1)
0x390|                                             02|               .|      [51]: 2 transition_type 0x39f-0x39f.7 (1)
0x3a0|01                                             |.               |      [52]: 1 transition_type 0x3a0-0x3a0.7 (1)
0x3a0|   02                                          | .              |      [53]: 2 transition_type 0x3a1-0x3a1.7 (1)
0x3a0|      01                                       |  .             |      [54]: 1 transition_type 0x3a2-0x3a2.7 (1)
0x3a0|         02                                    |   .            |      [55]: 2 transition_type 0x3a3-0x3a3.7 (1)
0x3a0|            01                                 |    .           |      [56]: 1 transition_type 0x3a4-0x3a4.7 (1)
0x3a0|               02                              |     .          |      [57]: 2 transition_type 0x3a5-0x3a5.7 (1)
0x3a0|                  01                           |      .         |      [58]: 1 transition_type 0x3a6-0x3a6.7 (1)
0x3a0|                     02                        |       .        |      [59]: 2 transition_type 0x3a7-0x3a7.7 (1)
0x3a0|                        01                     |        .       |      [60]: 1 transition_type 0x3a8-0x3a8.7 (1)
0x3a0|                           02                  |         .      |      [61]: 2 transition_type 0x3a9-0x3a9.7 (1)
0x3a0|                              01               |          .     |      [62]: 1 transition_type 0x3aa-0x3aa.7 (1)
0x3a0|                                 02            |           .    |      [63]: 2 transition_type 0x3ab-0x3ab.7 (1)
0x3a0|                                    01         |            .   |      [64]: 1 transition_type 0x3ac-0x3ac.7 (1)
0x3a0|                                       02      |             .  |      [65]: 2 transition_type 0x3ad-0x3ad.7 (1)
0x3a0|                                          01   |              . |      [66]: 1 transition_type 0x3ae-0x3ae.7 (1)
0x3a0|                                             02|               .|      [67]: 2 transition_type 0x3af-0x3af.7 (1)
0x3b0|01                                             |.               |      [68]: 1 transition_type 0x3b0-0x3b0.7 (1)
0x3b0|   02                                          | .              |      [69]: 2 transition_type 0x3b1-0x3b1.7 (1)
0x3b0|      01                                       |  .             |      [70]: 1 transition_type 0x3b2-0x3b2.7 (1)
0x3b0|         02                                    |   .            |      [71]: 2 transition_type 0x3b3-0x3b3.7 (1)
0x3b0|            01                                 |    .           |      [72]: 1 transition_type 0x3b4-0x3b4.7 (1)
0x3b0|               02                              |     .          |      [73]: 2 transition_type 0x3b5-0x3b5.7 (1)
0x3b0|                  01                           |      .         |      [74]: 1 transition_type 0x3b6-0x3b6.7 (1)
0x3b0|                     02                        |       .        |      [75]: 2 transition_type 0x3b7-0x3b7.7 (1)
0x3b0|                        01                     |        .       |      [76]: 1 transition_type 0x3b8-0x3b8.7 (1)
0x3b0|                           02                  |         .      |      [77]: 2 transition_type 0x3b9-0x3b9.7 (1)
0x3b0|                              01               |          .     |      [78]: 1 transition_type 0x3ba-0x3ba.7 (1)
0x3b0|                                 02            |           .    |      [79]: 2 transition_type 0x3bb-0x3bb.7 (1)
0x3b0|                                    01         |            .   |      [80]: 1 transition_type 0x3bc-0x3bc.7 (1)
0x3b0|                                       02      |             .  |      [81]: 2 transition_type 0x3bd-0x3bd.7 (1)
0x3b0|                                          01   |              . |      [82]: 1 transition_type 0x3be-0x3be.7 (1)
0x3b0|                                             02|               .|      [83]: 2 transition_type 0x3bf-0x3bf.7 (1)
0x3c0|01                                             |.               |      [84]: 1 transition_type 0x3c0-0x3c0.7 (1)
0x3c0|   02                                          | .              |      [85]: 2 transition_type 0x3c1-0x3c1.7 (1)
0x3c0|      01                                       |  .             |      [86]: 1 transition_type 0x3c2-0x3c2.7 (1)
0x3c0|         02                                    |   .            |      [87]: 2 transition_type 0x3c3-0x3c3.7 (1)
0x3c0|            01                                 |    .           |      [88]: 1 transition_type 0x3c4-0x3c4.7 (1)
0x3c0|               02                              |     .          |      [89]: 2 transition_type 0x3c5-0x3c5.7 (1)
0x3c0|                  01                           |      .         |      [90]: 1 transition_type 0x3c6-0x3c6.7 (1)
0x3c0|                     02                        |       .        |      [91]: 2 transition_type 0x3c7-0x3c7.7 (1)
0x3c0|                        01                     |        .       |      [92]: 1 transition_type 0x3c8-0x3c8.7 (1)
0x3c0|                           02                  |         .      |      [93]: 2 transition_type 0x3c9-0x3c9.7 (1)
0x3c0|                              01               |          .     |      [94]: 1 transition_type 0x3ca-0x3ca.7 (1)
0x3c0|                                 02            |           .    |      [95]: 2 transition_type 0x3cb-0x3cb.7 (1)
0x3c0|                                    01         |            .   |      [96]: 1 transition_type 0x3cc-0x3cc.7 (1)
0x3c0|                                       02      |             .  |      [97]: 2 transition_type 0x3cd-0x3cd.7 (1)
0x3c0|                                          01   |              . |      [98]: 1 transition_type 0x3ce-0x3ce.7 (1)
0x3c0|                                             02|               .|      [99]: 2 transition_type 0x3cf-0x3cf.7 (1)
0x3d0|01                                             |.               |      [100]: 1 transition_type 0x3d0-0x3d0.7 (1)
0x3d0|   02                                          | .              |      [101]: 2 transition_type 0x3d1-0x3d1.7 (1)
0x3d0|      01                                       |  .             |      [102]: 1 transition_type 0x3d2-0x3d2.7 (1)
0x3d0|         02                                    |   .            |      [103]: 2 transition_type 0x3d3-0x3d3.7 (1)
0x3d0|            01                                 |    .           |      [104]: 1 transition_type 0x3d4-0x3d4.7 (1)
0x3d0|               02                              |     .          |      [105]: 2 transition_type 0x3d5-0x3d5.7 (1)
0x3d0|                  01                           |      .         |      [106]: 1 transition_type 0x3d6-0x3d6.7 (1)
0x3d0|                     02                        |       .        |      [107]: 2 transition_type 0x3d7-0x3d7.7 (1)
0x3d0|                        01                     |        .       |      [108]: 1 transition_type 0x3d8-0x3d8.7 (1)
0x3d0|                           02                  |         .      |      [109]: 2 transition_type 0x3d9-0x3d9.7 (1)
0x3d0|                              01               |          .     |      [110]: 1 transition_type 0x3da-0x3da.7 (1)
0x3d0|                                 02            |           .    |      [111]: 2 transition_type 0x3db-0x3db.7 (1)
0x3d0|                                    01         |            .   |      [112]: 1 transition_type 0x3dc-0x3dc.7 (1)
0x3d0|                                       02      |             .  |      [113]: 2 transition_type 0x3dd-0x3dd.7 (1)
0x3d0|                                          01   |              . |      [114]: 1 transition_type 0x3de-0x3de.7 (1)
0x3d0|                                             02|               .|      [115]: 2 transition_type 0x3df-0x3df.7 (1)
0x3e0|01                                             |.               |      [116]: 1 transition_type 0x3e0-0x3e0.7 (1)
0x3e0|   02                                          | .              |      [117]: 2 transition_type 0x3e1-0x3e1.7 (1)
0x3e0|      01                                       |  .             |      [118]: 1 transition_type 0x3e2-0x3e2.7 (1)
0x3e0|         02                                    |   .            |      [119]: 2 transition_type 0x3e3-0x3e3.7 (1)
0x3e0|            01                                 |    .           |      [120]: 1 transition_type 0x3e4-0x3e4.7 (1)
0x3e0|               02                              |     .          |      [121]: 2 transition_type 0x3e5-0x3e5.7 (1)
0x3e0|                  01                           |      .         |      [122]: 1 transition_type 0x3e6-0x3e6.7 (1)
0x3e0|                     02                        |       .        |      [123]: 2 transition_type 0x3e7-0x3e7.7 (1)
0x3e0|                        01                     |        .       |      [124]: 1 transition_type 0x3e8-0x3e8.7 (1)
0x3e0|                           02                  |         .      |      [125]: 2 transition_type 0x3e9-0x3e9.7 (1)
0x3e0|                              01               |          .     |      [126]: 1 transition_type 0x3ea-0x3ea.7 (1)
0x3e0|                                 02            |           .    |      [127]: 2 transition_type 0x3eb-0x3eb.7 (1)
0x3e0|                                    01         |            .   |      [128]: 1 transition_type 0x3ec-0x3ec.7 (1)
0x3e0|                                       02      |             .  |      [129]: 2 transition_type 0x3ed-0x3ed.7 (1)
0x3e0|                                          01   |              . |      [130]: 1 transition_type 0x3ee-0x3ee.7 (1)
0x3e0|                                             02|               .|      [131]: 2 transition_type 0x3ef-0x3ef.7 (1)
0x3f0|01                                             |.               |      [132]: 1 transition_type 0x3f0-0x3f0.7 (1)
0x3f0|   02                                          | .              |      [133]: 2 transition_type 0x3f1-0x3f1.7 (1)
0x3f0|      01                                       |  .             |      [134]: 1 transition_type 0x3f2-0x3f2.7 (1)
0x3f0|         02                                    |   .            |      [135]: 2 transition_type 0x3f3-0x3f3.7 (1)
0x3f0|            01                                 |    .           |      [136]: 1 transition_type 0x3f4-0x3f4.7 (1)
0x3f0|               02                              |     .          |      [137]: 2 transition_type 0x3f5-0x3f5.7 (1)
0x3f0|                  01                           |      .         |      [138]: 1 transition_type 0x3f6-0x3f6.7 (1)
0x3f0|                     02                        |       .        |      [139]: 2 transition_type 0x3f7-0x3f7.7 (1)
0x3f0|                        01                     |        .       |      [140]: 1 transition_type 0x3f8-0x3f8.7 (1)
0x3f0|                           02                  |         .      |      [141]: 2 transition_type 0x3f9-0x3f9.7 (1)
0x3f0|                              01               |          .     |      [142]: 1 transition_type 0x3fa-0x3fa.7 (1)
0x3f0|                                 02            |           .    |      [143]: 2 transition_type 0x3fb-0x3fb.7 (1)
0x3f0|                                    01         |            .   |      [144]: 1 transition_type 0x3fc-0x3fc.7 (1)
0x3f0|                                       02      |             .  |      [145]: 2 transition_type 0x3fd-0x3fd.7 (1)
0x3f0|                                          01   |              . |      [146]: 1 transition_type 0x3fe-0x3fe.7 (1)
0x3f0|                                             02|               .|      [147]: 2 transition_type 0x3ff-0x3ff.7 (1)
0x400|01                                             |.               |      [148]: 1 transition_type 0x400-0x400.7 (1)
0x400|   02                                          | .              |      [149]: 2 transition_type 0x401-0x401.7 (1)
0x400|      01                                       |  .             |      [150]: 1 transition_type 0x402-0x402.7 (1)
0x400|         02                                    |   .            |      [151]: 2 transition_type 0x403-0x403.7 (1)
0x400|            01                                 |    .           |      [152]: 1 transition_type 0x404-0x404.7 (1)
0x400|               02                              |     .          |      [153]: 2 transition_type 0x405-0x405.7 (1)
0x400|                  01                           |      .         |      [154]: 1 transition_type 0x406-0x406.7 (1)
0x400|                     02                        |       .        |      [155]: 2 transition_type 0x407-0x407.7 (1)
0x400|                        01                     |        .       |      [156]: 1 transition_type 0x408-0x408.7 (1)
0x400|                           02                  |         .      |      [157]: 2 transition_type 0x409-0x409.7 (1)
0x400|                              01               |          .     |      [158]: 1 transition_type 0x40a-0x40a.7 (1)
0x400|                                 02            |           .    |      [159]: 2 transition_type 0x40b-0x40b.7 (1)
0x400|                                    01         |            .   |      [160]: 1 transition_type 0x40c-0x40c.7 (1)
0x400|                                       02      |             .  |      [161]: 2 transition_type 0x40d-0x40d.7 (1)
0x400|                                          01   |              . |      [162]: 1 transition_type 0x40e-0x40e.7 (1)
0x400|                                             02|               .|      [163]: 2 transition_type 0x40f-0x40f.7 (1)
0x410|01                                             |.               |      [164]: 1 transition_type 0x410-0x410.7 (1)
0x410|   02                                          | .              |      [165]: 2 transition_type 0x411-0x411.7 (1)
0x410|      01                                       |  .             |      [166]: 1 transition_type 0x412-0x412.7 (1)
0x410|         02                                    |   .            |      [167]: 2 transition_type 0x413-0x413.7 (1)
0x410|            01                                 |    .           |      [168]: 1 transition_type 0x414-0x414.7 (1)
0x410|               02                              |     .          |      [169]: 2 transition_type 0x415-0x415.7 (1)
0x410|                  01                           |      .         |      [170]: 1 transition_type 0x416-0x416.7 (1)
0x410|                     02                        |       .        |      [171]: 2 transition_type 0x417-0x417.7 (1)
0x410|                        01                     |        .       |      [172]: 1 transition_type 0x418-0x418.7 (1)
0x410|                           02                  |         .      |      [173]: 2 transition_type 0x419-0x419.7 (1)
0x410|                              01               |          .     |      [174]: 1 transition_type 0x41a-0x41a.7 (1)
0x410|                                 02            |           .    |      [175]: 2 transition_type 0x41b-0x41b.7 (1)
0x410|                                    01         |            .   |      [176]: 1 transition_type 0x41c-0x41c.7 (1)
0x410|                                       02      |             .  |      [177]: 2 transition_type 0x41d-0x41d.7 (1)
0x410|                                          01   |              . |      [178]: 1 transition_type 0x41e-0x41e.7 (1)
0x410|                                             02|               .|      [179]: 2 transition_type 0x41f-0x41f.7 (1)
0x420|01                                             |.               |      [180]: 1 transition_type 0x420-0x420.7 (1)
0x420|   02                                          | .              |      [181]: 2 transition_type 0x421-0x421.7 (1)
0x420|      01                                       |  .             |      [182]: 1 transition_type 0x422-0x422.7 (1)
0x420|         02                                    |   .            |      [183]: 2 transition_type 0x423-0x423.7 (1)
0x420|            01                                 |    .           |      [184]: 1 transition_type 0x424-0x424.7 (1)
0x420|               02                              |     .          |      [185]: 2 transition_type 0x425-0x425.7 (1)
0x420|                  01                           |      .         |      [186]: 1 transition_type 0x426-0x426.7 (1)
0x420|                     02                        |       .        |      [187]: 2 transition_type 0x427-0x427.7 (1)
0x420|                        01                     |        .       |      [188]: 1 transition_type 0x428-0x428.7 (1)
0x420|                           02                  |         .      |      [189]: 2 transition_type 0x429-0x429.7 (1)
0x420|                              01               |          .     |      [190]: 1 transition_type 0x42a-0x42a.7 (1)
0x420|                                 02            |           .    |      [191]: 2 transition_type 0x42b-0x42b.7 (1)
0x420|                                    01         |            .   |      [192]: 1 transition_type 0x42c-0x42c.7 (1)
0x420|                                       02      |             .  |      [193]: 2 transition_type 0x42d-0x42d.7 (1)
0x420|                                          01   |              . |      [194]: 1 transition_type 0x42e-0x42e.7 (1)
0x420|                                             02|               .|      [195]: 2 transition_type 0x42f-0x42f.7 (1)
0x430|01                                             |.               |      [196]: 1 transition_type 0x430-0x430.7 (1)
0x430|   02                                          | .              |      [197]: 2 transition_type 0x431-0x431.7 (1)
0x430|      01                                       |  .             |      [198]: 1 transition_type 0x432-0x432.7 (1)
0x430|         02                                    |   .            |      [199]: 2 transition_type 0x433-0x433.7 (1)
0x430|            01                                 |    .           |      [200]: 1 transition_type 0x434-0x434.7 (1)
0x430|               02                              |     .          |      [201]: 2 transition_type 0x435-0x435.7 (1)
0x430|                  01                           |      .         |      [202]: 1 transition_type 0x436-0x436.7 (1)
0x430|                     02                        |       .        |      [203]: 2 transition_type 0x437-0x437.7 (1)
0x430|                        01                     |        .       |      [204]: 1 transition_type 0x438-0x438.7 (1)
0x430|                           02                  |         .      |      [205]: 2 transition_type 0x439-0x439.7 (1)
0x430|                              01               |          .     |      [206]: 1 transition_type 0x43a-0x43a.7 (1)
0x430|                                 01            |           .    |      [207]: 1 transition_type 0x43b-0x43b.7 (1)
     |                                               |                |    local_time_type_records[0:6]: 0x43c-0x45f.7 (36)
     |                                               |                |      [0]{}: local_time_type 0x43c-0x441.7 (6)
0x430|                                    ff ff ba 9e|            ....|        utoff: -17762 (valid) 0x43c-0x43f.7 (4)
0x440|00                                             |.               |        dst: 0 (valid) 0x440-0x440.7 (1)
0x440|   00                                          | .              |        idx: 0 (valid) 0x441-0x441.7 (1)
     |                                               |                |      [1]{}: local_time_type 0x442-0x447.7 (6)
0x440|      ff ff c7 c0                              |  ....          |        utoff: -14400 (valid) 0x442-0x445.7 (4)
0x440|                  01                           |      .         |        dst: 1 (valid) 0x446-0x446.7 (1)
0x440|                     04                        |       .        |        idx: 4 (valid) 0x447-0x447.7 (1)
     |                                               |                |      [2]{}: local_time_type 0x448-0x44d.7 (6)
0x440|                        ff ff b9 b0            |        ....    |        utoff: -18000 (valid) 0x448-0x44b.7 (4)
0x440|                                    00         |            .   |        dst: 0 (valid) 0x44c-0x44c.7 (1)
0x440|                                       08      |             .  |        idx: 8 (valid) 0x44d-0x44d.7 (1)
     |                                               |                |      [3]{}: local_time_type 0x44e-0x453.7 (6)
0x440|                                          ff ff|              ..|        utoff: -18000 (valid) 0x44e-0x451.7 (4)
0x450|b9 b0                                          |..              |
0x450|      00                                       |  .             |        dst: 0 (valid) 0x452-0x452.7 (1)
0x450|         08                                    |   .            |        idx: 8 (valid) 0x453-0x453.7 (1)
     |                                               |                |      [4]{}: local_time_type 0x454-0x459.7 (6)
0x450|            ff ff c7 c0                        |    ....        |        utoff: -14400 (valid) 0x454-0x457.7 (4)
0x450|                        01                     |        .       |        dst: 1 (valid) 0x458-0x458.7 (1)
0x450|                           0c                  |         .      |        idx: 12 (valid) 0x459-0x459.7 (1)
     |                                               |                |      [5]{}: local_time_type 0x45a-0x45f.7 (6)
0x450|                              ff ff c7 c0      |          ....  |        utoff: -14400 (valid) 0x45a-0x45d.7 (4)
0x450|                                          01   |              . |        dst: 1 (valid) 0x45e-0x45e.7 (1)
0x450|                                             10|               .|        idx: 16 (valid) 0x45f-0x45f.7 (1)
     |                                               |                |    time_zone_designations[0:5]: 0x460-0x473.7 (20)
0x460|4c 4d 54 00                                    |LMT.            |      [0]: "LMT" time_zone_designation 0x460-0x463.7 (4)
0x460|            45 44 54 00                        |    EDT.        |      [1]: "EDT" time_zone_designation 0x464-0x467.7 (4)
0x460|                        45 53 54 00            |        EST.    |      [2]: "EST" time_zone_designation 0x468-0x46b.7 (4)
0x460|                                    45 57 54 00|            EWT.|      [3]: "EWT" time_zone_designation 0x46c-0x46f.7 (4)
0x470|45 50 54 00                                    |EPT.            |      [4]: "EPT" time_zone_designation 0x470-0x473.7 (4)
     |                                               |                |    leap_second_records[0:27]: 0x474-0x54b.7 (216)
     |                                               |                |      [0]{}: leap_second_record 0x474-0x47b.7 (8)
0x470|            04 b2 58 00                        |    ..X.        |        occur: "1972-07-01T00:00:00Z" (78796800) 0x474-0x477.7 (4)
0x470|                        00 00 00 01            |        ....    |        corr: 1 0x478-0x47b.7 (4)
     |                                               |                |      [1]{}: leap_second_record 0x47c-0x483.7 (8)
0x470|                                    05 a4 ec 01|            ....|        occur: "1973-01-01T00:00:01Z" (94694401) 0x47c-0x47f.7 (4)
0x480|00 00 00 02                                    |....            |        corr: 2 0x480-0x483.7 (4)
     |                                               |                |      [2]{}: leap_second_record 0x484-0x48b.7 (8)
0x480|            07 86 1f 82                        |    ....        |        occur: "1974-01-01T00:00:02Z" (126230402) 0x484-0x487.7 (4)
0x480|                        00 00 00 03            |        ....    |        corr: 3 0x488-0x48b.7 (4)
     |                                               |                |      [3]{}: leap_second_record 0x48c-0x493.7 (8)
0x480|                                    09 67 53 03|            .gS.|        occur: "1975-01-01T00:00:03Z" (157766403) 0x48c-0x48f.7 (4)
0x490|00 00 00 04                                    |....            |        corr: 4 0x490-0x493.7 (4)
     |                                               |                |      [4]{}: leap_second_record 0x494-0x49b.7 (8)
0x490|            0b 48 86 84                        |    .H..        |        occur: "1976-01-01T00:00:04Z" (189302404) 0x494-0x497.7 (4)
0x490|                        00 00 00 05            |        ....    |        corr: 5 0x498-0x49b.7 (4)
     |                                               |                |      [5]{}: leap_second_record 0x49c-0x4a3.7 (8)
0x490|                                    0d 2b 0b 85|            .+..|        occur: "1977-01-01T00:00:05Z" (220924805) 0x49c-0x49f.7 (4)
0x4a0|00 00 00 06                                    |....            |        corr: 6 0x4a0-0x4a3.7 (4)
     |                                               |                |      [6]{}: leap_second_record 0x4a4-0x4ab.7 (8)
0x4a0|            0f 0c 3f 06                        |    ..?.        |        occur: "1978-01-01T00:00:06Z" (252460806) 0x4a4-0x4a7.7 (4)
0x4a0|                        00 00 00 07            |        ....    |        corr: 7 0x4a8-0x4ab.7 (4)
     |                                               |                |      [7]{}: leap_second_record 0x4ac-0x4b3.7 (8)
0x4a0|                                    10 ed 72 87|            ..r.|        occur: "1979-01-01T00:00:07Z" (283996807) 0x4ac-0x4af.7 (4)
0x4b0|00 00 00 08                                    |....            |        corr: 8 0x4b0-0x4b3.7 (4)
     |                                               |                |      [8]{}: leap_second_record 0x4b4-0x4bb.7 (8)
0x4b0|            12 ce a6 08                        |    ....        |        occur: "1980-01-01T00:00:08Z" (315532808) 0x4b4-0x4b7.7 (4)
0x4b0|                        00 00 00 09            |        ....    |        corr: 9 0x4b8-0x4bb.7 (4)
     |                                               |                |      [9]{}: leap_second_record 0x4bc-0x4c3.7 (8)
0x4b0|                                    15 9f ca 89|            ....|        occur: "1981-07-01T00:00:09Z" (362793609) 0x4bc-0x4bf.7 (4)
0x4c0|00 00 00 0a                                    |....            |        corr: 10 0x4c0-0x4c3.7 (4)
     |                                               |                |      [10]{}: leap_second_record 0x4c4-0x4cb.7 (8)
0x4c0|            17 80 fe 0a                        |    ....        |        occur: "1982-07-01T00:00:10Z" (394329610) 0x4c4-0x4c7.7 (4)
0x4c0|                        00 00 00 0b            |        ....    |        corr: 11 0x4c8-0x4cb.7 (4)
     |                                               |                |      [11]{}: leap_second_record 0x4cc-0x4d3.7 (8)
0x4c0|                                    19 62 31 8b|            .b1.|        occur: "1983-07-01T00:00:11Z" (425865611) 0x4cc-0x4cf.7 (4)
0x4d0|00 00 00 0c                                    |....            |        corr: 12 0x4d0-0x4d3.7 (4)
     |                                               |                |      [12]{}: leap_second_record 0x4d4-0x4db.7 (8)
0x4d0|            1d 25 ea 0c                        |    .%..        |        occur: "1985-07-01T00:00:12Z" (489024012) 0x4d4-0x4d7.7 (4)
0x4d0|                        00 00 00 0d            |        ....    |        corr: 13 0x4d8-0x4db.7 (4)
     |                                               |                |      [13]{}: leap_second_record 0x4dc-0x4e3.7 (8)
0x4d0|                                    21 da e5 0d|            !...|        occur: "1988-01-01T00:00:13Z" (567993613) 0x4dc-0x4df.7 (4)
0x4e0|00 00 00 0e                                    |....            |        corr: 14 0x4e0-0x4e3.7 (4)
     |                                               |                |      [14]{}: leap_second_record 0x4e4-0x4eb.7 (8)
0x4e0|            25 9e 9d 8e                        |    %...        |        occur: "1990-01-01T00:00:14Z" (631152014) 0x4e4-0x4e7.7 (4)
0x4e0|                        00 00 00 0f            |        ....    |        corr: 15 0x4e8-0x4eb.7 (4)
     |                                               |                |      [15]{}: leap_second_record 0x4ec-0x4f3.7 (8)
0x4e0|                                    27 7f d1 0f|            '...|        occur: "1991-01-01T00:00:15Z" (662688015) 0x4ec-0x4ef.7 (4)
0x4f0|00 00 00 10                                    |....            |        corr: 16 0x4f0-0x4f3.7 (4)
     |                                               |                |      [16]{}: leap_second_record 0x4f4-0x4fb.7 (8)
0x4f0|            2a 50 f5 90                        |    *P..        |        occur: "1992-07-01T00:00:16Z" (709948816) 0x4f4-0x4f7.7 (4)
0x4f0|                        00 00 00 11            |        ....    |        corr: 17 0x4f8-0x4fb.7 (4)
     |                                               |                |      [17]{}: leap_second_record 0x4fc-0x503.7 (8)
0x4f0|                                    2c 32 29 11|            ,2).|        occur: "1993-07-01T00:00:17Z" (741484817) 0x4fc-0x4ff.7 (4)
0x500|00 00 00 12                                    |....            |        corr: 18 0x500-0x503.7 (4)
     |                                               |                |      [18]{}: leap_second_record 0x504-0x50b.7 (8)
0x500|            2e 13 5c 92                        |    ..\.        |        occur: "1994-07-01T00:00:18Z" (773020818) 0x504-0x507.7 (4)
0x500|                        00 00 00 13            |        ....    |        corr: 19 0x508-0x50b.7 (4)
     |                                               |                |      [19]{}: leap_second_record 0x50c-0x513.7 (8)
0x500|                                    30 e7 24 13|            0.$.|        occur: "1996-01-01T00:00:19Z" (820454419) 0x50c-0x50f.7 (4)
0x510|00 00 00 14                                    |....            |        corr: 20 0x510-0x513.7 (4)
     |                                               |                |      [20]{}: leap_second_record 0x514-0x51b.7 (8)
0x510|            33 b8 48 94                        |    3.H.        |        occur: "1997-07-01T00:00:20Z" (867715220) 0x514-0x517.7 (4)
0x510|                        00 00 00 15            |        ....    |        corr: 21 0x518-0x51b.7 (4)
     |                                               |                |      [21]{}: leap_second_record 0x51c-0x523.7 (8)
0x510|                                    36 8c 10 15|            6...|        occur: "1999-01-01T00:00:21Z" (915148821) 0x51c-0x51f.7 (4)
0x520|00 00 00 16                                    |....            |        corr: 22 0x520-0x523.7 (4)
     |                                               |                |      [22]{}: leap_second_record 0x524-0x52b.7 (8)
0x520|            43 b7 1b 96                        |    C...        |        occur: "2006-01-01T00:00:22Z" (1136073622) 0x524-0x527.7 (4)
0x520|                        00 00 00 17            |        ....    |        corr: 23 0x528-0x52b.7 (4)
     |                                               |                |      [23]{}: leap_second_record 0x52c-0x533.7 (8)
0x520|                                    49 5c 07 97|            I\..|        occur: "2009-01-01T00:00:23Z" (1230768023) 0x52c-0x52f.7 (4)
0x530|00 00 00 18                                    |....            |        corr: 24 0x530-0x533.7 (4)
     |                                               |                |      [24]{}: leap_second_record 0x534-0x53b.7 (8)
0x530|            4f ef 93 18                        |    O...        |        occur: "2012-07-01T00:00:24Z" (1341100824) 0x534-0x537.7 (4)
0x530|                        00 00 00 19            |        ....    |        corr: 25 0x538-0x53b.7 (4)
     |                                               |                |      [25]{}: leap_second_record 0x53c-0x543.7 (8)
0x530|                                    55 93 2d 99|            U.-.|        occur: "2015-07-01T00:00:25Z" (1435708825) 0x53c-0x53f.7 (4)
0x540|00 00 00 1a                                    |....            |        corr: 26 0x540-0x543.7 (4)
     |                                               |                |      [26]{}: leap_second_record 0x544-0x54b.7 (8)
0x540|            58 68 46 9a                        |    XhF.        |        occur: "2017-01-01T00:00:26Z" (1483228826) 0x544-0x547.7 (4)
0x540|                        00 00 00 1b            |        ....    |        corr: 27 0x548-0x54b.7 (4)
     |                                               |                |    standard_wall_indicators[0:6]: 0x54c-0x551.7 (6)
0x540|                                    00         |            .   |      [0]: 0 standard_wall_indicator (valid) 0x54c-0x54c.7 (1)
0x540|                                       00      |             .  |      [1]: 0 standard_wall_indicator (valid) 0x54d-0x54d.7 (1)
0x540|                                          00   |              . |      [2]: 0 standard_wall_indicator (valid) 0x54e-0x54e.7 (1)
0x540|                                             01|               .|      [3]: 1 standard_wall_indicator (valid) 0x54f-0x54f.7 (1)
0x550|00                                             |.               |      [4]: 0 standard_wall_indicator (valid) 0x550-0x550.7 (1)
0x550|   01                                          | .              |      [5]: 1 standard_wall_indicator (valid) 0x551-0x551.7 (1)
     |                                               |                |    ut_local_indicators[0:6]: 0x552-0x557.7 (6)
0x550|      00                                       |  .             |      [0]: 0 ut_local_indicator (valid) 0x552-0x552.7 (1)
0x550|         00                                    |   .            |      [1]: 0 ut_local_indicator (valid) 0x553-0x553.7 (1)
0x550|            00                                 |    .           |      [2]: 0 ut_local_indicator (valid) 0x554-0x554.7 (1)
0x550|               01                              |     .          |      [3]: 1 ut_local_indicator (valid) 0x555-0x555.7 (1)
0x550|                  00                           |      .         |      [4]: 0 ut_local_indicator (valid) 0x556-0x556.7 (1)
0x550|                     01                        |       .        |      [5]: 1 ut_local_indicator (valid) 0x557-0x557.7 (1)
     |                                               |                |  v2plusheader{}: 0x558-0x583.7 (44)
0x550|                        54 5a 69 66            |        TZif    |    magic: 0x545a6966 (valid) 0x558-0x55b.7 (4)
0x550|                                    32         |            2   |    ver: "2" (0x32) (valid) 0x55c-0x55c.7 (1)
0x550|                                       00 00 00|             ...|    reserved: raw bits 0x55d-0x56b.7 (15)
0x560|00 00 00 00 00 00 00 00 00 00 00 00            |............    |
0x560|                                    00 00 00 06|            ....|    isutcnt: 6 0x56c-0x56f.7 (4)
0x570|00 00 00 06                                    |....            |    isstdcnt: 6 0x570-0x573.7 (4)
0x570|            00 00 00 1b                        |    ....        |    leapcnt: 27 0x574-0x577.7 (4)
0x570|                        00 00 00 d0            |        ....    |    timecnt: 208 0x578-0x57b.7 (4)
0x570|                                    00 00 00 06|            ....|    typecnt: 6 0x57c-0x57f.7 (4)
0x580|00 00 00 14                                    |....            |    charcnt: 20 0x580-0x583.7 (4)
     |                                               |                |  v2plusdatablock{}: 0x584-0xe5b.7 (2264)
     |                                               |                |    transition_times[0:208]: 0x584-0xc03.7 (1664)
0x580|            ff ff ff ff 5e 03 f0 90            |    ....^...    |      [0]: "1883-11-18T17:00:00Z" (-2717650800) transition_time 0x584-0x58b.7 (8)
0x580|                                    ff ff ff ff|            ....|      [1]: "1918-03-31T07:00:00Z" (-1633280400) transition_time 0x58c-0x593.7 (8)
0x590|9e a6 1e 70                                    |...p            |
0x590|            ff ff ff ff 9f ba eb 60            |    .......`    |      [2]: "1918-10-27T06:00:00Z" (-1615140000) transition_time 0x594-0x59b.7 (8)
0x590|                                    ff ff ff ff|            ....|      [3]: "1919-03-30T07:00:00Z" (-1601830800) transition_time 0x59c-0x5a3.7 (8)
0x5a0|a0 86 00 70                                    |...p            |
0x5a0|            ff ff ff ff a1 9a cd 60            |    .......`    |      [4]: "1919-10-26T06:00:00Z" (-1583690400) transition_time 0x5a4-0x5ab.7 (8)
0x5a0|                                    ff ff ff ff|            ....|      [5]: "1920-03-28T07:00:00Z" (-1570381200) transition_time 0x5ac-0x5b3.7 (8)
0x5b0|a2 65 e2 70                                    |.e.p            |
0x5b0|            ff ff ff ff a3 83 e9 e0            |    ........    |      [6]: "1920-10-31T06:00:00Z" (-1551636000) transition_time 0x5b4-0x5bb.7 (8)
0x5b0|                                    ff ff ff ff|            ....|      [7]: "1921-04-24T07:00:00Z" (-1536512400) transition_time 0x5bc-0x5c3.7 (8)
0x5c0|a4 6a ae 70                                    |.j.p            |
0x5c0|            ff ff ff ff a5 35 a7 60            |    .....5.`    |      [8]: "1921-09-25T06:00:00Z" (-1523210400) transition_time 0x5c4-0x5cb.7 (8)
0x5c0|                                    ff ff ff ff|            ....|      [9]: "1922-04-30T07:00:00Z" (-1504458000) transition_time 0x5cc-0x5d3.7 (8)
0x5d0|a6 53 ca f0                                    |.S..            |
0x5d0|            ff ff ff ff a7 15 89 60            |    .......`    |      [10]: "1922-09-24T06:00:00Z" (-1491760800) transition_time 0x5d4-0x5db.7 (8)
0x5d0|                                    ff ff ff ff|            ....|      [11]: "1923-04-29T07:00:00Z" (-1473008400) transition_time 0x5dc-0x5e3.7 (8)
0x5e0|a8 33 ac f0                                    |.3..            |
0x5e0|            ff ff ff ff a8 fe a5 e0            |    ........    |      [12]: "1923-09-30T06:00:00Z" (-1459706400) transition_time 0x5e4-0x5eb.7 (8)
0x5e0|                                    ff ff ff ff|            ....|      [13]: "1924-04-27T07:00:00Z" (-1441558800) transition_time 0x5ec-0x5f3.7 (8)
0x5f0|aa 13 8e f0                                    |....            |
0x5f0|            ff ff ff ff aa de 87 e0            |    ........    |      [14]: "1924-09-28T06:00:00Z" (-1428256800) transition_time 0x5f4-0x5fb.7 (8)
0x5f0|                                    ff ff ff ff|            ....|      [15]: "1925-04-26T07:00:00Z" (-1410109200) transition_time 0x5fc-0x603.7 (8)
0x600|ab f3 70 f0                                    |..p.            |
0x600|            ff ff ff ff ac be 69 e0            |    ......i.    |      [16]: "1925-09-27T06:00:00Z" (-1396807200) transition_time 0x604-0x60b.7 (8)
0x600|                                    ff ff ff ff|            ....|      [17]: "1926-04-25T07:00:00Z" (-1378659600) transition_time 0x60c-0x613.7 (8)
0x610|ad d3 52 f0                                    |..R.            |
0x610|            ff ff ff ff ae 9e 4b e0            |    ......K.    |      [18]: "1926-09-26T06:00:00Z" (-1365357600) transition_time 0x614-0x61b.7 (8)
0x610|                                    ff ff ff ff|            ....|      [19]: "1927-04-24T07:00:00Z" (-1347210000) transition_time 0x61c-0x623.7 (8)
0x620|af b3 34 f0                                    |..4.            |
0x620|            ff ff ff ff b0 7e 2d e0            |    .....~-.    |      [20]: "1927-09-25T06:00:00Z" (-1333908000) transition_time 0x624-0x62b.7 (8)
0x620|                                    ff ff ff ff|            ....|      [21]: "1928-04-29T07:00:00Z" (-1315155600) transition_time 0x62c-0x633.7 (8)
0x630|b1 9c 51 70                                    |..Qp            |
0x630|            ff ff ff ff b2 67 4a 60            |    .....gJ`    |      [22]: "1928-09-30T06:00:00Z" (-1301853600) transition_time 0x634-0x63b.7 (8)
0x630|                                    ff ff ff ff|            ....|      [23]: "1929-04-28T07:00:00Z" (-1283706000) transition_time 0x63c-0x643.7 (8)
0x640|b3 7c 33 70                                    |.|3p            |
0x640|            ff ff ff ff b4 47 2c 60            |    .....G,`    |      [24]: "1929-09-29T06:00:00Z" (-1270404000) transition_time 0x644-0x64b.7 (8)
0x640|                                    ff ff ff ff|            ....|      [25]: "1930-04-27T07:00:00Z" (-1252256400) transition_time 0x64c-0x653.7 (8)
0x650|b5 5c 15 70                                    |.\.p            |
0x650|            ff ff ff ff b6 27 0e 60            |    .....'.`    |      [26]: "1930-09-28T06:00:00Z" (-1238954400) transition_time 0x654-0x65b.7 (8)
0x650|                                    ff ff ff ff|            ....|      [27]: "1931-04-26T07:00:00Z" (-1220806800) transition_time 0x65c-0x663.7 (8)
0x660|b7 3b f7 70                                    |.;.p            |
0x660|            ff ff ff ff b8 06 f0 60            |    .......`    |      [28]: "1931-09-27T06:00:00Z" (-1207504800) transition_time 0x664-0x66b.7 (8)
0x660|                                    ff ff ff ff|            ....|      [29]: "1932-04-24T07:00:00Z" (-1189357200) transition_time 0x66c-0x673.7 (8)
0x670|b9 1b d9 70                                    |...p            |
0x670|            ff ff ff ff b9 e6 d2 60            |    .......`    |      [30]: "1932-09-25T06:00:00Z" (-1176055200) transition_time 0x674-0x67b.7 (8)
0x670|                                    ff ff ff ff|            ....|      [31]: "1933-04-30T07:00:00Z" (-1157302800) transition_time 0x67c-0x683.7 (8)
0x680|bb 04 f5 f0                                    |....            |
0x680|            ff ff ff ff bb c6 b4 60            |    .......`    |      [32]: "1933-09-24T06:00:00Z" (-1144605600) transition_time 0x684-0x68b.7 (8)
0x680|                                    ff ff ff ff|            ....|      [33]: "1934-04-29T07:00:00Z" (-1125853200) transition_time 0x68c-0x693.7 (8)
0x690|bc e4 d7 f0                                    |....            |
0x690|            ff ff ff ff bd af d0 e0            |    ........    |      [34]: "1934-09-30T06:00:00Z" (-1112551200) transition_time 0x694-0x69b.7 (8)
0x690|                                    ff ff ff ff|            ....|      [35]: "1935-04-28T07:00:00Z" (-1094403600) transition_time 0x69c-0x6a3.7 (8)
0x6a0|be c4 b9 f0                                    |....            |
0x6a0|            ff ff ff ff bf 8f b2 e0            |    ........    |      [36]: "1935-09-29T06:00:00Z" (-1081101600) transition_time 0x6a4-0x6ab.7 (8)
0x6a0|                                    ff ff ff ff|            ....|      [37]: "1936-04-26T07:00:00Z" (-1062954000) transition_time 0x6ac-0x6b3.7 (8)
0x6b0|c0 a4 9b f0                                    |....            |
0x6b0|            ff ff ff ff c1 6f 94 e0            |    .....o..    |      [38]: "1936-09-27T06:00:00Z" (-1049652000) transition_time 0x6b4-0x6bb.7 (8)
0x6b0|                                    ff ff ff ff|            ....|      [39]: "1937-04-25T07:00:00Z" (-1031504400) transition_time 0x6bc-0x6c3.7 (8)
0x6c0|c2 84 7d f0                                    |..}.            |
0x6c0|            ff ff ff ff c3 4f 76 e0            |    .....Ov.    |      [40]: "1937-09-26T06:00:00Z" (-1018202400) transition_time 0x6c4-0x6cb.7 (8)
0x6c0|                                    ff ff ff ff|            ....|      [41]: "1938-04-24T07:00:00Z" (-1000054800) transition_time 0x6cc-0x6d3.7 (8)
0x6d0|c4 64 5f f0                                    |.d_.            |
0x6d0|            ff ff ff ff c5 2f 58 e0            |    ...../X.    |      [42]: "1938-09-25T06:00:00Z" (-986752800) transition_time 0x6d4-0x6db.7 (8)
0x6d0|                                    ff ff ff ff|            ....|      [43]: "1939-04-30T07:00:00Z" (-968000400) transition_time 0x6dc-0x6e3.7 (8)
0x6e0|c6 4d 7c 70                                    |.M|p            |
0x6e0|            ff ff ff ff c7 0f 3a e0            |    ......:.    |      [44]: "1939-09-24T06:00:00Z" (-955303200) transition_time 0x6e4-0x6eb.7 (8)
0x6e0|                                    ff ff ff ff|            ....|      [45]: "1940-04-28T07:00:00Z" (-936550800) transition_time 0x6ec-0x6f3.7 (8)
0x6f0|c8 2d 5e 70                                    |.-^p            |
0x6f0|            ff ff ff ff c8 f8 57 60            |    ......W`    |      [46]: "1940-09-29T06:00:00Z" (-923248800) transition_time 0x6f4-0x6fb.7 (8)
0x6f0|                                    ff ff ff ff|            ....|      [47]: "1941-04-27T07:00:00Z" (-905101200) transition_time 0x6fc-0x703.7 (8)
0x700|ca 0d 40 70                                    |..@p            |
0x700|            ff ff ff ff ca d8 39 60            |    ......9`    |      [48]: "1941-09-28T06:00:00Z" (-891799200) transition_time 0x704-0x70b.7 (8)
0x700|                                    ff ff ff ff|            ....|      [49]: "1942-02-09T07:00:00Z" (-880218000) transition_time 0x70c-0x713.7 (8)
0x710|cb 88 f0 70                                    |...p            |
0x710|            ff ff ff ff d2 23 f4 70            |    .....#.p    |      [50]: "1945-08-14T23:00:00Z" (-769395600) transition_time 0x714-0x71b.7 (8)
0x710|                                    ff ff ff ff|            ....|      [51]: "1945-09-30T06:00:00Z" (-765396000) transition_time 0x71c-0x723.7 (8)
0x720|d2 60 fb e0                                    |.`..            |
0x720|            ff ff ff ff d3 75 e4 f0            |    .....u..    |      [52]: "1946-04-28T07:00:00Z" (-747248400) transition_time 0x724-0x72b.7 (8)
0x720|                                    ff ff ff ff|            ....|      [53]: "1946-09-29T06:00:00Z" (-733946400) transition_time 0x72c-0x733.7 (8)
0x730|d4 40 dd e0                                    |.@..            |
0x730|            ff ff ff ff d5 55 c6 f0            |    .....U..    |      [54]: "1947-04-27T07:00:00Z" (-715798800) transition_time 0x734-0x73b.7 (8)
0x730|                                    ff ff ff ff|            ....|      [55]: "1947-09-28T06:00:00Z" (-702496800) transition_time 0x73c-0x743.7 (8)
0x740|d6 20 bf e0                                    |. ..            |
0x740|            ff ff ff ff d7 35 a8 f0            |    .....5..    |      [56]: "1948-04-25T07:00:00Z" (-684349200) transition_time 0x744-0x74b.7 (8)
0x740|                                    ff ff ff ff|            ....|      [57]: "1948-09-26T06:00:00Z" (-671047200) transition_time 0x74c-0x753.7 (8)
0x750|d8 00 a1 e0                                    |....            |
0x750|            ff ff ff ff d9 15 8a f0            |    ........    |      [58]: "1949-04-24T07:00:00Z" (-652899600) transition_time 0x754-0x75b.7 (8)
0x750|                                    ff ff ff ff|            ....|      [59]: "1949-09-25T06:00:00Z" (-639597600) transition_time 0x75c-0x763.7 (8)
0x760|d9 e0 83 e0                                    |....            |
0x760|            ff ff ff ff da fe a7 70            |    .......p    |      [60]: "1950-04-30T07:00:00Z" (-620845200) transition_time 0x764-0x76b.7 (8)
0x760|                                    ff ff ff ff|            ....|      [61]: "1950-09-24T06:00:00Z" (-608148000) transition_time 0x76c-0x773.7 (8)
0x770|db c0 65 e0                                    |..e.            |
0x770|            ff ff ff ff dc de 89 70            |    .......p    |      [62]: "1951-04-29T07:00:00Z" (-589395600) transition_time 0x774-0x77b.7 (8)
0x770|                                    ff ff ff ff|            ....|      [63]: "1951-09-30T06:00:00Z" (-576093600) transition_time 0x77c-0x783.7 (8)
0x780|dd a9 82 60                                    |...`            |
0x780|            ff ff ff ff de be 6b 70            |    ......kp    |      [64]: "1952-04-27T07:00:00Z" (-557946000) transition_time 0x784-0x78b.7 (8)
0x780|                                    ff ff ff ff|            ....|      [65]: "1952-09-28T06:00:00Z" (-544644000) transition_time 0x78c-0x793.7 (8)
0x790|df 89 64 60                                    |..d`            |
0x790|            ff ff ff ff e0 9e 4d 70            |    ......Mp    |      [66]: "1953-04-26T07:00:00Z" (-526496400) transition_time 0x794-0x79b.7 (8)
0x790|                                    ff ff ff ff|            ....|      [67]: "1953-09-27T06:00:00Z" (-513194400) transition_time 0x79c-0x7a3.7 (8)
0x7a0|e1 69 46 60                                    |.iF`            |
0x7a0|            ff ff ff ff e2 7e 2f 70            |    .....~/p    |      [68]: "1954-04-25T07:00:00Z" (-495046800) transition_time 0x7a4-0x7ab.7 (8)
0x7a0|                                    ff ff ff ff|            ....|      [69]: "1954-09-26T06:00:00Z" (-481744800) transition_time 0x7ac-0x7b3.7 (8)
0x7b0|e3 49 28 60                                    |.I(`            |
0x7b0|            ff ff ff ff e4 5e 11 70            |    .....^.p    |      [70]: "1955-04-24T07:00:00Z" (-463597200) transition_time 0x7b4-0x7bb.7 (8)
0x7b0|                                    ff ff ff ff|            ....|      [71]: "1955-10-30T06:00:00Z" (-447271200) transition_time 0x7bc-0x7c3.7 (8)
0x7c0|e5 57 2e e0                                    |.W..            |
0x7c0|            ff ff ff ff e6 47 2d f0            |    .....G-.    |      [72]: "1956-04-29T07:00:00Z" (-431542800) transition_time 0x7c4-0x7cb.7 (8)
0x7c0|                                    ff ff ff ff|            ....|      [73]: "1956-10-28T06:00:00Z" (-415821600) transition_time 0x7cc-0x7d3.7 (8)
0x7d0|e7 37 10 e0                                    |.7..            |
0x7d0|            ff ff ff ff e8 27 0f f0            |    .....'..    |      [74]: "1957-04-28T07:00:00Z" (-400093200) transition_time 0x7d4-0x7db.7 (8)
0x7d0|                                    ff ff ff ff|            ....|      [75]: "1957-10-27T06:00:00Z" (-384372000) transition_time 0x7dc-0x7e3.7 (8)
0x7e0|e9 16 f2 e0                                    |....            |
0x7e0|            ff ff ff ff ea 06 f1 f0            |    ........    |      [76]: "1958-04-27T07:00:00Z" (-368643600) transition_time 0x7e4-0x7eb.7 (8)
0x7e0|                                    ff ff ff ff|            ....|      [77]: "1958-10-26T06:00:00Z" (-352922400) transition_time 0x7ec-0x7f3.7 (8)
0x7f0|ea f6 d4 e0                                    |....            |
0x7f0|            ff ff ff ff eb e6 d3 f0            |    ........    |      [78]: "1959-04-26T07:00:00Z" (-337194000) transition_time 0x7f4-0x7fb.7 (8)
0x7f0|                                    ff ff ff ff|            ....|      [79]: "1959-10-25T06:00:00Z" (-321472800) transition_time 0x7fc-0x803.7 (8)
0x800|ec d6 b6 e0                                    |....            |
0x800|            ff ff ff ff ed c6 b5 f0            |    ........    |      [80]: "1960-04-24T07:00:00Z" (-305744400) transition_time 0x804-0x80b.7 (8)
0x800|                                    ff ff ff ff|            ....|      [81]: "1960-10-30T06:00:00Z" (-289418400) transition_time 0x80c-0x813.7 (8)
0x810|ee bf d3 60                                    |...`            |
0x810|            ff ff ff ff ef af d2 70            |    .......p    |      [82]: "1961-04-30T07:00:00Z" (-273690000) transition_time 0x814-0x81b.7 (8)
0x810|                                    ff ff ff ff|            ....|      [83]: "1961-10-29T06:00:00Z" (-257968800) transition_time 0x81c-0x823.7 (8)
0x820|f0 9f b5 60                                    |...`            |
0x820|            ff ff ff ff f1 8f b4 70            |    .......p    |      [84]: "1962-04-29T07:00:00Z" (-242240400) transition_time 0x824-0x82b.7 (8)
0x820|                                    ff ff ff ff|            ....|      [85]: "1962-10-28T06:00:00Z" (-226519200) transition_time 0x82c-0x833.7 (8)
0x830|f2 7f 97 60                                    |...`            |
0x830|            ff ff ff ff f3 6f 96 70            |    .....o.p    |      [86]: "1963-04-28T07:00:00Z" (-210790800) transition_time 0x834-0x83b.7 (8)
0x830|                                    ff ff ff ff|            ....|      [87]: "1963-10-27T06:00:00Z" (-195069600) transition_time 0x83c-0x843.7 (8)
0x840|f4 5f 79 60                                    |._y`            |
0x840|            ff ff ff ff f5 4f 78 70            |    .....Oxp    |      [88]: "1964-04-26T07:00:00Z" (-179341200) transition_time 0x844-0x84b.7 (8)
0x840|                                    ff ff ff ff|            ....|      [89]: "1964-10-25T06:00:00Z" (-163620000) transition_time 0x84c-0x853.7 (8)
0x850|f6 3f 5b 60                                    |.?[`            |
0x850|            ff ff ff ff f7 2f 5a 70            |    ...../Zp    |      [90]: "1965-04-25T07:00:00Z" (-147891600) transition_time 0x854-0x85b.7 (8)
0x850|                                    ff ff ff ff|            ....|      [91]: "1965-10-31T06:00:00Z" (-131565600) transition_time 0x85c-0x863.7 (8)
0x860|f8 28 77 e0                                    |.(w.            |
0x860|            ff ff ff ff f9 0f 3c 70            |    ......<p    |      [92]: "1966-04-24T07:00:00Z" (-116442000) transition_time 0x864-0x86b.7 (8)
0x860|                                    ff ff ff ff|            ....|      [93]: "1966-10-30T06:00:00Z" (-100116000) transition_time 0x86c-0x873.7 (8)
0x870|fa 08 59 e0                                    |..Y.            |
0x870|            ff ff ff ff fa f8 58 f0            |    ......X.    |      [94]: "1967-04-30T07:00:00Z" (-84387600) transition_time 0x874-0x87b.7 (8)
0x870|                                    ff ff ff ff|            ....|      [95]: "1967-10-29T06:00:00Z" (-68666400) transition_time 0x87c-0x883.7 (8)
0x880|fb e8 3b e0                                    |..;.            |
0x880|            ff ff ff ff fc d8 3a f0            |    ......:.    |      [96]: "1968-04-28T07:00:00Z" (-52938000) transition_time 0x884-0x88b.7 (8)
0x880|                                    ff ff ff ff|            ....|      [97]: "1968-10-27T06:00:00Z" (-37216800) transition_time 0x88c-0x893.7 (8)
0x890|fd c8 1d e0                                    |....            |
0x890|            ff ff ff ff fe b8 1c f0            |    ........    |      [98]: "1969-04-27T07:00:00Z" (-21488400) transition_time 0x894-0x89b.7 (8)
0x890|                                    ff ff ff ff|            ....|      [99]: "1969-10-26T06:00:00Z" (-5767200) transition_time 0x89c-0x8a3.7 (8)
0x8a0|ff a7 ff e0                                    |....            |
0x8a0|            00 00 00 00 00 97 fe f0            |    ........    |      [100]: "1970-04-26T07:00:00Z" (9961200) transition_time 0x8a4-0x8ab.7 (8)
0x8a0|                                    00 00 00 00|            ....|      [101]: "1970-10-25T06:00:00Z" (25682400) transition_time 0x8ac-0x8b3.7 (8)
0x8b0|01 87 e1 e0                                    |....            |
0x8b0|            00 00 00 00 02 77 e0 f0            |    .....w..    |      [102]: "1971-04-25T07:00:00Z" (41410800) transition_time 0x8b4-0x8bb.7 (8)
0x8b0|                                    00 00 00 00|            ....|      [103]: "1971-10-31T06:00:00Z" (57736800) transition_time 0x8bc-0x8c3.7 (8)
0x8c0|03 70 fe 60                                    |.p.`            |
0x8c0|            00 00 00 00 04 60 fd 70            |    .....`.p    |      [104]: "1972-04-30T07:00:00Z" (73465200) transition_time 0x8c4-0x8cb.7 (8)
0x8c0|                                    00 00 00 00|            ....|      [105]: "1972-10-29T06:00:01Z" (89186401) transition_time 0x8cc-0x8d3.7 (8)
0x8d0|05 50 e0 61                                    |.P.a            |
0x8d0|            00 00 00 00 06 40 df 72            |    .....@.r    |      [106]: "1973-04-29T07:00:02Z" (104914802) transition_time 0x8d4-0x8db.7 (8)
0x8d0|                                    00 00 00 00|            ....|      [107]: "1973-10-28T06:00:02Z" (120636002) transition_time 0x8dc-0x8e3.7 (8)
0x8e0|07 30 c2 62                                    |.0.b            |
0x8e0|            00 00 00 00 07 8d 19 73            |    .......s    |      [108]: "1974-01-06T07:00:03Z" (126687603) transition_time 0x8e4-0x8eb.7 (8)
0x8e0|                                    00 00 00 00|            ....|      [109]: "1974-10-27T06:00:03Z" (152085603) transition_time 0x8ec-0x8f3.7 (8)
0x8f0|09 10 a4 63                                    |...c            |
0x8f0|            00 00 00 00 09 ad 94 f4            |    ........    |      [110]: "1975-02-23T07:00:04Z" (162370804) transition_time 0x8f4-0x8fb.7 (8)
0x8f0|                                    00 00 00 00|            ....|      [111]: "1975-10-26T06:00:04Z" (183535204) transition_time 0x8fc-0x903.7 (8)
0x900|0a f0 86 64                                    |...d            |
0x900|            00 00 00 00 0b e0 85 75            |    .......u    |      [112]: "1976-04-25T07:00:05Z" (199263605) transition_time 0x904-0x90b.7 (8)
0x900|                                    00 00 00 00|            ....|      [113]: "1976-10-31T06:00:05Z" (215589605) transition_time 0x90c-0x913.7 (8)
0x910|0c d9 a2 e5                                    |....            |
0x910|            00 00 00 00 0d c0 67 76            |    ......gv    |      [114]: "1977-04-24T07:00:06Z" (230713206) transition_time 0x914-0x91b.7 (8)
0x910|                                    00 00 00 00|            ....|      [115]: "1977-10-30T06:00:06Z" (247039206) transition_time 0x91c-0x923.7 (8)
0x920|0e b9 84 e6                                    |....            |
0x920|            00 00 00 00 0f a9 83 f7            |    ........    |      [116]: "1978-04-30T07:00:07Z" (262767607) transition_time 0x924-0x92b.7 (8)
0x920|                                    00 00 00 00|            ....|      [117]: "1978-10-29T06:00:07Z" (278488807) transition_time 0x92c-0x933.7 (8)
0x930|10 99 66 e7                                    |..f.            |
0x930|            00 00 00 00 11 89 65 f8            |    ......e.    |      [118]: "1979-04-29T07:00:08Z" (294217208) transition_time 0x934-0x93b.7 (8)
0x930|                                    00 00 00 00|            ....|      [119]: "1979-10-28T06:00:08Z" (309938408) transition_time 0x93c-0x943.7 (8)
0x940|12 79 48 e8                                    |.yH.            |
0x940|            00 00 00 00 13 69 47 f9            |    .....iG.    |      [120]: "1980-04-27T07:00:09Z" (325666809) transition_time 0x944-0x94b.7 (8)
0x940|                                    00 00 00 00|            ....|      [121]: "1980-10-26T06:00:09Z" (341388009) transition_time 0x94c-0x953.7 (8)
0x950|14 59 2a e9                                    |.Y*.            |
0x950|            00 00 00 00 15 49 29 f9            |    .....I).    |      [122]: "1981-04-26T07:00:09Z" (357116409) transition_time 0x954-0x95b.7 (8)
0x950|                                    00 00 00 00|            ....|      [123]: "1981-10-25T06:00:10Z" (372837610) transition_time 0x95c-0x963.7 (8)
0x960|16 39 0c ea                                    |.9..            |
0x960|            00 00 00 00 17 29 0b fa            |    .....)..    |      [124]: "1982-04-25T07:00:10Z" (388566010) transition_time 0x964-0x96b.7 (8)
0x960|                                    00 00 00 00|            ....|      [125]: "1982-10-31T06:00:11Z" (404892011) transition_time 0x96c-0x973.7 (8)
0x970|18 22 29 6b                                    |.")k            |
0x970|            00 00 00 00 19 08 ed fb            |    ........    |      [126]: "1983-04-24T07:00:11Z" (420015611) transition_time 0x974-0x97b.7 (8)
0x970|                                    00 00 00 00|            ....|      [127]: "1983-10-30T06:00:12Z" (436341612) transition_time 0x97c-0x983.7 (8)
0x980|1a 02 0b 6c                                    |...l            |
0x980|            00 00 00 00 1a f2 0a 7c            |    .......|    |      [128]: "1984-04-29T07:00:12Z" (452070012) transition_time 0x984-0x98b.7 (8)
0x980|                                    00 00 00 00|            ....|      [129]: "1984-10-28T06:00:12Z" (467791212) transition_time 0x98c-0x993.7 (8)
0x990|1b e1 ed 6c                                    |...l            |
0x990|            00 00 00 00 1c d1 ec 7c            |    .......|    |      [130]: "1985-04-28T07:00:12Z" (483519612) transition_time 0x994-0x99b.7 (8)
0x990|                                    00 00 00 00|            ....|      [131]: "1985-10-27T06:00:13Z" (499240813) transition_time 0x99c-0x9a3.7 (8)
0x9a0|1d c1 cf 6d                                    |...m            |
0x9a0|            00 00 00 00 1e b1 ce 7d            |    .......}    |      [132]: "1986-04-27T07:00:13Z" (514969213) transition_time 0x9a4-0x9ab.7 (8)
0x9a0|                                    00 00 00 00|            ....|      [133]: "1986-10-26T06:00:13Z" (530690413) transition_time 0x9ac-0x9b3.7 (8)
0x9b0|1f a1 b1 6d                                    |...m            |
0x9b0|            00 00 00 00 20 76 00 fd            |    .... v..    |      [134]: "1987-04-05T07:00:13Z" (544604413) transition_time 0x9b4-0x9bb.7 (8)
0x9b0|                                    00 00 00 00|            ....|      [135]: "1987-10-25T06:00:13Z" (562140013) transition_time 0x9bc-0x9c3.7 (8)
0x9c0|21 81 93 6d                                    |!..m            |
0x9c0|            00 00 00 00 22 55 e2 fe            |    ...."U..    |      [136]: "1988-04-03T07:00:14Z" (576054014) transition_time 0x9c4-0x9cb.7 (8)
0x9c0|                                    00 00 00 00|            ....|      [137]: "1988-10-30T06:00:14Z" (594194414) transition_time 0x9cc-0x9d3.7 (8)
0x9d0|23 6a af ee                                    |#j..            |
0x9d0|            00 00 00 00 24 35 c4 fe            |    ....$5..    |      [138]: "1989-04-02T07:00:14Z" (607503614) transition_time 0x9d4-0x9db.7 (8)
0x9d0|                                    00 00 00 00|            ....|      [139]: "1989-10-29T06:00:14Z" (625644014) transition_time 0x9dc-0x9e3.7 (8)
0x9e0|25 4a 91 ee                                    |%J..            |
0x9e0|            00 00 00 00 26 15 a6 ff            |    ....&...    |      [140]: "1990-04-01T07:00:15Z" (638953215) transition_time 0x9e4-0x9eb.7 (8)
0x9e0|                                    00 00 00 00|            ....|      [141]: "1990-10-28T06:00:15Z" (657093615) transition_time 0x9ec-0x9f3.7 (8)
0x9f0|27 2a 73 ef                                    |'*s.            |
0x9f0|            00 00 00 00 27 fe c3 80            |    ....'...    |      [142]: "1991-04-07T07:00:16Z" (671007616) transition_time 0x9f4-0x9fb.7 (8)
0x9f0|                                    00 00 00 00|            ....|      [143]: "1991-10-27T06:00:16Z" (688543216) transition_time 0x9fc-0xa03.7 (8)
0xa00|29 0a 55 f0                                    |).U.            |
0xa00|            00 00 00 00 29 de a5 80            |    ....)...    |      [144]: "1992-04-05T07:00:16Z" (702457216) transition_time 0xa04-0xa0b.7 (8)
0xa00|                                    00 00 00 00|            ....|      [145]: "1992-10-25T06:00:17Z" (719992817) transition_time 0xa0c-0xa13.7 (8)
0xa10|2a ea 37 f1                                    |*.7.            |
0xa10|            00 00 00 00 2b be 87 81            |    ....+...    |      [146]: "1993-04-04T07:00:17Z" (733906817) transition_time 0xa14-0xa1b.7 (8)
0xa10|                                    00 00 00 00|            ....|      [147]: "1993-10-31T06:00:18Z" (752047218) transition_time 0xa1c-0xa23.7 (8)
0xa20|2c d3 54 72                                    |,.Tr            |
0xa20|            00 00 00 00 2d 9e 69 82            |    ....-.i.    |      [148]: "1994-04-03T07:00:18Z" (765356418) transition_time 0xa24-0xa2b.7 (8)
0xa20|                                    00 00 00 00|            ....|      [149]: "1994-10-30T06:00:19Z" (783496819) transition_time 0xa2c-0xa33.7 (8)
0xa30|2e b3 36 73                                    |..6s            |
0xa30|            00 00 00 00 2f 7e 4b 83            |    ..../~K.    |      [150]: "1995-04-02T07:00:19Z" (796806019) transition_time 0xa34-0xa3b.7 (8)
0xa30|                                    00 00 00 00|            ....|      [151]: "1995-10-29T06:00:19Z" (814946419) transition_time 0xa3c-0xa43.7 (8)
0xa40|30 93 18 73                                    |0..s            |
0xa40|            00 00 00 00 31 67 68 04            |    ....1gh.    |      [152]: "1996-04-07T07:00:20Z" (828860420) transition_time 0xa44-0xa4b.7 (8)
0xa40|                                    00 00 00 00|            ....|      [153]: "1996-10-27T06:00:20Z" (846396020) transition_time 0xa4c-0xa53.7 (8)
0xa50|32 72 fa 74                                    |2r.t            |
0xa50|            00 00 00 00 33 47 4a 04            |    ....3GJ.    |      [154]: "1997-04-06T07:00:20Z" (860310020) transition_time 0xa54-0xa5b.7 (8)
0xa50|                                    00 00 00 00|            ....|      [155]: "1997-10-26T06:00:21Z" (877845621) transition_time 0xa5c-0xa63.7 (8)
0xa60|34 52 dc 75                                    |4R.u            |
0xa60|            00 00 00 00 35 27 2c 05            |    ....5',.    |      [156]: "1998-04-05T07:00:21Z" (891759621) transition_time 0xa64-0xa6b.7 (8)
0xa60|                                    00 00 00 00|            ....|      [157]: "1998-10-25T06:00:21Z" (909295221) transition_time 0xa6c-0xa73.7 (8)
0xa70|36 32 be 75                                    |62.u            |
0xa70|            00 00 00 00 37 07 0e 06            |    ....7...    |      [158]: "1999-04-04T07:00:22Z" (923209222) transition_time 0xa74-0xa7b.7 (8)
0xa70|                                    00 00 00 00|            ....|      [159]: "1999-10-31T06:00:22Z" (941349622) transition_time 0xa7c-0xa83.7 (8)
0xa80|38 1b da f6                                    |8...            |
0xa80|            00 00 00 00 38 e6 f0 06            |    ....8...    |      [160]: "2000-04-02T07:00:22Z" (954658822) transition_time 0xa84-0xa8b.7 (8)
0xa80|                                    00 00 00 00|            ....|      [161]: "2000-10-29T06:00:22Z" (972799222) transition_time 0xa8c-0xa93.7 (8)
0xa90|39 fb bc f6                                    |9...            |
0xa90|            00 00 00 00 3a c6 d2 06            |    ....:...    |      [162]: "2001-04-01T07:00:22Z" (986108422) transition_time 0xa94-0xa9b.7 (8)
0xa90|                                    00 00 00 00|            ....|      [163]: "2001-10-28T06:00:22Z" (1004248822) transition_time 0xa9c-0xaa3.7 (8)
0xaa0|3b db 9e f6                                    |;...            |
0xaa0|            00 00 00 00 3c af ee 86            |    ....<...    |      [164]: "2002-04-07T07:00:22Z" (1018162822) transition_time 0xaa4-0xaab.7 (8)
0xaa0|                                    00 00 00 00|            ....|      [165]: "2002-10-27T06:00:22Z" (1035698422) transition_time 0xaac-0xab3.7 (8)
0xab0|3d bb 80 f6                                    |=...            |
0xab0|            00 00 00 00 3e 8f d0 86            |    ....>...    |      [166]: "2003-04-06T07:00:22Z" (1049612422) transition_time 0xab4-0xabb.7 (8)
0xab0|                                    00 00 00 00|            ....|      [167]: "2003-10-26T06:00:22Z" (1067148022) transition_time 0xabc-0xac3.7 (8)
0xac0|3f 9b 62 f6                                    |?.b.            |
0xac0|            00 00 00 00 40 6f b2 86            |    ....@o..    |      [168]: "2004-04-04T07:00:22Z" (1081062022) transition_time 0xac4-0xacb.7 (8)
0xac0|                                    00 00 00 00|            ....|      [169]: "2004-10-31T06:00:22Z" (1099202422) transition_time 0xacc-0xad3.7 (8)
0xad0|41 84 7f 76                                    |A..v            |
0xad0|            00 00 00 00 42 4f 94 86            |    ....BO..    |      [170]: "2005-04-03T07:00:22Z" (1112511622) transition_time 0xad4-0xadb.7 (8)
0xad0|                                    00 00 00 00|            ....|      [171]: "2005-10-30T06:00:22Z" (1130652022) transition_time 0xadc-0xae3.7 (8)
0xae0|43 64 61 76                                    |Cdav            |
0xae0|            00 00 00 00 44 2f 76 87            |    ....D/v.    |      [172]: "2006-04-02T07:00:23Z" (1143961223) transition_time 0xae4-0xaeb.7 (8)
0xae0|                                    00 00 00 00|            ....|      [173]: "2006-10-29T06:00:23Z" (1162101623) transition_time 0xaec-0xaf3.7 (8)
0xaf0|45 44 43 77                                    |EDCw            |
0xaf0|            00 00 00 00 45 f3 a9 07            |    ....E...    |      [174]: "2007-03-11T07:00:23Z" (1173596423) transition_time 0xaf4-0xafb.7 (8)
0xaf0|                                    00 00 00 00|            ....|      [175]: "2007-11-04T06:00:23Z" (1194156023) transition_time 0xafc-0xb03.7 (8)
0xb00|47 2d 5f f7                                    |G-_.            |
0xb00|            00 00 00 00 47 d3 8b 07            |    ....G...    |      [176]: "2008-03-09T07:00:23Z" (1205046023) transition_time 0xb04-0xb0b.7 (8)
0xb00|                                    00 00 00 00|            ....|      [177]: "2008-11-02T06:00:23Z" (1225605623) transition_time 0xb0c-0xb13.7 (8)
0xb10|49 0d 41 f7                                    |I.A.            |
0xb10|            00 00 00 00 49 b3 6d 08            |    ....I.m.    |      [178]: "2009-03-08T07:00:24Z" (1236495624) transition_time 0xb14-0xb1b.7 (8)
0xb10|                                    00 00 00 00|            ....|      [179]: "2009-11-01T06:00:24Z" (1257055224) transition_time 0xb1c-0xb23.7 (8)
0xb20|4a ed 23 f8                                    |J.#.            |
0xb20|            00 00 00 00 4b 9c 89 88            |    ....K...    |      [180]: "2010-03-14T07:00:24Z" (1268550024) transition_time 0xb24-0xb2b.7 (8)
0xb20|                                    00 00 00 00|            ....|      [181]: "2010-11-07T06:00:24Z" (1289109624) transition_time 0xb2c-0xb33.7 (8)
0xb30|4c d6 40 78                                    |L.@x            |
0xb30|            00 00 00 00 4d 7c 6b 88            |    ....M|k.    |      [182]: "2011-03-13T07:00:24Z" (1299999624) transition_time 0xb34-0xb3b.7 (8)
0xb30|                                    00 00 00 00|            ....|      [183]: "2011-11-06T06:00:24Z" (1320559224) transition_time 0xb3c-0xb43.7 (8)
0xb40|4e b6 22 78                                    |N."x            |
0xb40|            00 00 00 00 4f 5c 4d 88            |    ....O\M.    |      [184]: "2012-03-11T07:00:24Z" (1331449224) transition_time 0xb44-0xb4b.7 (8)
0xb40|                                    00 00 00 00|            ....|      [185]: "2012-11-04T06:00:25Z" (1352008825) transition_time 0xb4c-0xb53.7 (8)
0xb50|50 96 04 79                                    |P..y            |
0xb50|            00 00 00 00 51 3c 2f 89            |    ....Q</.    |      [186]: "2013-03-10T07:00:25Z" (1362898825) transition_time 0xb54-0xb5b.7 (8)
0xb50|                                    00 00 00 00|            ....|      [187]: "2013-11-03T06:00:25Z" (1383458425) transition_time 0xb5c-0xb63.7 (8)
0xb60|52 75 e6 79                                    |Ru.y            |
0xb60|            00 00 00 00 53 1c 11 89            |    ....S...    |      [188]: "2014-03-09T07:00:25Z" (1394348425) transition_time 0xb64-0xb6b.7 (8)
0xb60|                                    00 00 00 00|            ....|      [189]: "2014-11-02T06:00:25Z" (1414908025) transition_time 0xb6c-0xb73.7 (8)
0xb70|54 55 c8 79                                    |TU.y            |
0xb70|            00 00 00 00 54 fb f3 89            |    ....T...    |      [190]: "2015-03-08T07:00:25Z" (1425798025) transition_time 0xb74-0xb7b.7 (8)
0xb70|                                    00 00 00 00|            ....|      [191]: "2015-11-01T06:00:26Z" (1446357626) transition_time 0xb7c-0xb83.7 (8)
0xb80|56 35 aa 7a                                    |V5.z            |
0xb80|            00 00 00 00 56 e5 10 0a            |    ....V...    |      [192]: "2016-03-13T07:00:26Z" (1457852426) transition_time 0xb84-0xb8b.7 (8)
0xb80|                                    00 00 00 00|            ....|      [193]: "2016-11-06T06:00:26Z" (1478412026) transition_time 0xb8c-0xb93.7 (8)
0xb90|58 1e c6 fa                                    |X...            |
0xb90|            00 00 00 00 58 c4 f2 0b            |    ....X...    |      [194]: "2017-03-12T07:00:27Z" (1489302027) transition_time 0xb94-0xb9b.7 (8)
0xb90|                                    00 00 00 00|            ....|      [195]: "2017-11-05T06:00:27Z" (1509861627) transition_time 0xb9c-0xba3.7 (8)
0xba0|59 fe a8 fb                                    |Y...            |
0xba0|            00 00 00 00 5a a4 d4 0b            |    ....Z...    |      [196]: "2018-03-11T07:00:27Z" (1520751627) transition_time 0xba4-0xbab.7 (8)
0xba0|                                    00 00 00 00|            ....|      [197]: "2018-11-04T06:00:27Z" (1541311227) transition_time 0xbac-0xbb3.7 (8)
0xbb0|5b de 8a fb                                    |[...            |
0xbb0|            00 00 00 00 5c 84 b6 0b            |    ....\...    |      [198]: "2019-03-10T07:00:27Z" (1552201227) transition_time 0xbb4-0xbbb.7 (8)
0xbb0|                                    00 00 00 00|            ....|      [199]: "2019-11-03T06:00:27Z" (1572760827) transition_time 0xbbc-0xbc3.7 (8)
0xbc0|5d be 6c fb                                    |].l.            |
0xbc0|            00 00 00 00 5e 64 98 0b            |    ....^d..    |      [200]: "2020-03-08T07:00:27Z" (1583650827) transition_time 0xbc4-0xbcb.7 (8)
0xbc0|                                    00 00 00 00|            ....|      [201]: "2020-11-01T06:00:27Z" (1604210427) transition_time 0xbcc-0xbd3.7 (8)
0xbd0|5f 9e 4e fb                                    |_.N.            |
0xbd0|            00 00 00 00 60 4d b4 8b            |    ....`M..    |      [202]: "2021-03-14T07:00:27Z" (1615705227) transition_time 0xbd4-0xbdb.7 (8)
0xbd0|                                    00 00 00 00|            ....|      [203]: "2021-11-07T06:00:27Z" (1636264827) transition_time 0xbdc-0xbe3.7 (8)
0xbe0|61 87 6b 7b                                    |a.k{            |
0xbe0|            00 00 00 00 62 2d 96 8b            |    ....b-..    |      [204]: "2022-03-13T07:00:27Z" (1647154827) transition_time 0xbe4-0xbeb.7 (8)
0xbe0|                                    00 00 00 00|            ....|      [205]: "2022-11-06T06:00:27Z" (1667714427) transition_time 0xbec-0xbf3.7 (8)
0xbf0|63 67 4d 7b                                    |cgM{            |
0xbf0|            00 00 00 00 64 0d 78 8b            |    ....d.x.    |      [206]: "2023-03-12T07:00:27Z" (1678604427) transition_time 0xbf4-0xbfb.7 (8)
0xbf0|                                    00 00 00 00|            ....|      [207]: "2023-06-28T00:00:27Z" (1687910427) transition_time 0xbfc-0xc03.7 (8)
0xc00|64 9b 78 1b                                    |d.x.            |
     |                                               |                |    transition_types[0:208]: 0xc04-0xcd3.7 (208)
0xc00|            03                                 |    .           |      [0]: 3 transition_type 0xc04-0xc04.7 (1)
0xc00|               01                              |     .          |      [1]: 1 transition_type 0xc05-0xc05.7 (1)
0xc00|                  02                           |      .         |      [2]: 2 transition_type 0xc06-0xc06.7 (1)
0xc00|                     01                        |       .        |      [3]: 1 transition_type 0xc07-0xc07.7 (1)
0xc00|                        02                     |        .       |      [4]: 2 transition_type 0xc08-0xc08.7 (1)
0xc00|                           01                  |         .      |      [5]: 1 transition_type 0xc09-0xc09.7 (1)
0xc00|                              02               |          .     |      [6]: 2 transition_type 0xc0a-0xc0a.7 (1)
0xc00|                                 01            |           .    |      [7]: 1 transition_type 0xc0b-0xc0b.7 (1)
0xc00|                                    02         |            .   |      [8]: 2 transition_type 0xc0c-0xc0c.7 (1)
0xc00|                                       01      |             .  |      [9]: 1 transition_type 0xc0d-0xc0d.7 (1)
0xc00|                                          02   |              . |      [10]: 2 transition_type 0xc0e-0xc0e.7 (1)
0xc00|                                             01|               .|      [11]: 1 transition_type 0xc0f-0xc0f.7 (1)
0xc10|02                                             |.               |      [12]: 2 transition_type 0xc10-0xc10.7 (1)
0xc10|   01                                          | .              |      [13]: 1 transition_type 0xc11-0xc11.7 (1)
0xc10|      02                                       |  .             |      [14]: 2 transition_type 0xc12-0xc12.7 (1)
0xc10|         01                                    |   .            |      [15]: 1 transition_type 0xc13-0xc13.7 (1)
0xc10|            02                                 |    .           |      [16]: 2 transition_type 0xc14-0xc14.7 (1)
0xc10|               01                              |     .          |      [17]: 1 transition_type 0xc15-0xc15.7 (1)
0xc10|                  02                           |      .         |      [18]: 2 transition_type 0xc16-0xc16.7 (1)
0xc10|                     01                        |       .        |      [19]: 1 transition_type 0xc17-0xc17.7 (1)
0xc10|                        02                     |        .       |      [20]: 2 transition_type 0xc18-0xc18.7 (1)
0xc10|                           01                  |         .      |      [21]: 1 transition_type 0xc19-0xc19.7 (1)
0xc10|                              02               |          .     |      [22]: 2 transition_type 0xc1a-0xc1a.7 (1)
0xc10|                                 01            |           .    |      [23]: 1 transition_type 0xc1b-0xc1b.7 (1)
0xc10|                                    02         |            .   |      [24]: 2 transition_type 0xc1c-0xc1c.7 (1)
0xc10|                                       01      |             .  |      [25]: 1 transition_type 0xc1d-0xc1d.7 (1)
0xc10|                                          02   |              . |      [26]: 2 transition_type 0xc1e-0xc1e.7 (1)
0xc10|                                             01|               .|      [27]: 1 transition_type 0xc1f-0xc1f.7 (1)
0xc20|02                                             |.               |      [28]: 2 transition_type 0xc20-0xc20.7 (1)
0xc20|   01                                          | .              |      [29]: 1 transition_type 0xc21-0xc21.7 (1)
0xc20|      02                                       |  .             |      [30]: 2 transition_type 0xc22-0xc22.7 (1)
0xc20|         01                                    |   .            |      [31]: 1 transition_type 0xc23-0xc23.7 (1)
0xc20|            02                                 |    .           |      [32]: 2 transition_type 0xc24-0xc24.7 (1)
0xc20|               01                              |     .          |      [33]: 1 transition_type 0xc25-0xc25.7 (1)
0xc20|                  02                           |      .         |      [34]: 2 transition_type 0xc26-0xc26.7 (1)
0xc20|                     01                        |       .        |      [35]: 1 transition_type 0xc27-0xc27.7 (1)
0xc20|                        02                     |        .       |      [36]: 2 transition_type 0xc28-0xc28.7 (1)
0xc20|                           01                  |         .      |      [37]: 1 transition_type 0xc29-0xc29.7 (1)
0xc20|                              02               |          .     |      [38]: 2 transition_type 0xc2a-0xc2a.7 (1)
0xc20|                                 01            |           .    |      [39]: 1 transition_type 0xc2b-0xc2b.7 (1)
0xc20|                                    02         |            .   |      [40]: 2 transition_type 0xc2c-0xc2c.7 (1)
0xc20|                                       01      |             .  |      [41]: 1 transition_type 0xc2d-0xc2d.7 (1)
0xc20|                                          02   |              . |      [42]: 2 transition_type 0xc2e-0xc2e.7 (1)
0xc20|                                             01|               .|      [43]: 1 transition_type 0xc2f-0xc2f.7 (1)
0xc30|02                                             |.               |      [44]: 2 transition_type 0xc30-0xc30.7 (1)
0xc30|   01                                          | .              |      [45]: 1 transition_type 0xc31-0xc31.7 (1)
0xc30|      02                                       |  .             |      [46]: 2 transition_type 0xc32-0xc32.7 (1)
0xc30|         01                                    |   .            |      [47]: 1 transition_type 0xc33-0xc33.7 (1)
0xc30|            02                                 |    .           |      [48]: 2 transition_type 0xc34-0xc34.7 (1)
0xc30|               04                              |     .          |      [49]: 4 transition_type 0xc35-0xc35.7 (1)
0xc30|                  05                           |      .         |      [50]: 5 transition_type 0xc36-0xc36.7 (1)
0xc30|                     02                        |       .        |      [51]: 2 transition_type 0xc37-0xc37.7 (1)
0xc30|                        01                     |        .       |      [52]: 1 transition_type 0xc38-0xc38.7 (1)
0xc30|                           02                  |         .      |      [53]: 2 transition_type 0xc39-0xc39.7 (1)
0xc30|                              01               |          .     |      [54]: 1 transition_type 0xc3a-0xc3a.7 (1)
0xc30|                                 02            |           .    |      [55]: 2 transition_type 0xc3b-0xc3b.7 (1)
0xc30|                                    01         |            .   |      [56]: 1 transition_type 0xc3c-0xc3c.7 (1)
0xc30|                                       02      |             .  |      [57]: 2 transition_type 0xc3d-0xc3d.7 (1)
0xc30|                                          01   |              . |      [58]: 1 transition_type 0xc3e-0xc3e.7 (1)
0xc30|                                             02|               .|      [59]: 2 transition_type 0xc3f-0xc3f.7 (1)
0xc40|01                                             |.               |      [60]: 1 transition_type 0xc40-0xc40.7 (1)
0xc40|   02                                          | .              |      [61]: 2 transition_type 0xc41-0xc41.7 (1)
0xc40|      01                                       |  .             |      [62]: 1 transition_type 0xc42-0xc42.7 (1)
0xc40|         02                                    |   .            |      [63]: 2 transition_type 0xc43-0xc43.7 (1)
0xc40|            01                                 |    .           |      [64]: 1 transition_type 0xc44-0xc44.7 (1)
0xc40|               02                              |     .          |      [65]: 2 transition_type 0xc45-0xc45.7 (1)
0xc40|                  01                           |      .         |      [66]: 1 transition_type 0xc46-0xc46.7 (1)
0xc40|                     02                        |       .        |      [67]: 2 transition_type 0xc47-0xc47.7 (1)
0xc40|                        01                     |        .       |      [68]: 1 transition_type 0xc48-0xc48.7 (1)
0xc40|                           02                  |         .      |      [69]: 2 transition_type 0xc49-0xc49.7 (1)
0xc40|                              01               |          .     |      [70]: 1 transition_type 0xc4a-0xc4a.7 (1)
0xc40|                                 02            |           .    |      [71]: 2 transition_type 0xc4b-0xc4b.7 (1)
0xc40|                                    01         |            .   |      [72]: 1 transition_type 0xc4c-0xc4c.7 (1)
0xc40|                                       02      |             .  |      [73]: 2 transition_type 0xc4d-0xc4d.7 (1)
0xc40|                                          01   |              . |      [74]: 1 transition_type 0xc4e-0xc4e.7 (1)
0xc40|                                             02|               .|      [75]: 2 transition_type 0xc4f-0xc4f.7 (1)
0xc50|01                                             |.               |      [76]: 1 transition_type 0xc50-0xc50.7 (1)
0xc50|   02                                          | .              |      [77]: 2 transition_type 0xc51-0xc51.7 (1)
0xc50|      01                                       |  .             |      [78]: 1 transition_type 0xc52-0xc52.7 (1)
0xc50|         02                                    |   .            |      [79]: 2 transition_type 0xc53-0xc53.7 (1)
0xc50|            01                                 |    .           |      [80]: 1 transition_type 0xc54-0xc54.7 (1)
0xc50|               02                              |     .          |      [81]: 2 transition_type 0xc55-0xc55.7 (1)
0xc50|                  01                           |      .         |      [82]: 1 transition_type 0xc56-0xc56.7 (1)
0xc50|                     02                        |       .        |      [83]: 2 transition_type 0xc57-0xc57.7 (1)
0xc50|                        01                     |        .       |      [84]: 1 transition_type 0xc58-0xc58.7 (1)
0xc50|                           02                  |         .      |      [85]: 2 transition_type 0xc59-0xc59.7 (1)
0xc50|                              01               |          .     |      [86]: 1 transition_type 0xc5a-0xc5a.7 (1)
0xc50|                                 02            |           .    |      [87]: 2 transition_type 0xc5b-0xc5b.7 (1)
0xc50|                                    01         |            .   |      [88]: 1 transition_type 0xc5c-0xc5c.7 (1)
0xc50|                                       02      |             .  |      [89]: 2 transition_type 0xc5d-0xc5d.7 (1)
0xc50|                                          01   |              . |      [90]: 1 transition_type 0xc5e-0xc5e.7 (1)
0xc50|                                             02|               .|      [91]: 2 transition_type 0xc5f-0xc5f.7 (1)
0xc60|01                                             |.               |      [92]: 1 transition_type 0xc60-0xc60.7 (1)
0xc60|   02                                          | .              |      [93]: 2 transition_type 0xc61-0xc61.7 (1)
0xc60|      01                                       |  .             |      [94]: 1 transition_type 0xc62-0xc62.7 (1)
0xc60|         02                                    |   .            |      [95]: 2 transition_type 0xc63-0xc63.7 (1)
0xc60|            01                                 |    .           |      [96]: 1 transition_type 0xc64-0xc64.7 (1)
0xc60|               02                              |     .          |      [97]: 2 transition_type 0xc65-0xc65.7 (1)
0xc60|                  01                           |      .         |      [98]: 1 transition_type 0xc66-0xc66.7 (1)
0xc60|                     02                        |       .        |      [99]: 2 transition_type 0xc67-0xc67.7 (1)
0xc60|                        01                     |        .       |      [100]: 1 transition_type 0xc68-0xc68.7 (1)
0xc60|                           02                  |         .      |      [101]: 2 transition_type 0xc69-0xc69.7 (1)
0xc60|                              01               |          .     |      [102]: 1 transition_type 0xc6a-0xc6a.7 (1)
0xc60|                                 02            |           .    |      [103]: 2 transition_type 0xc6b-0xc6b.7 (1)
0xc60|                                    01         |            .   |      [104]: 1 transition_type 0xc6c-0xc6c.7 (1)
0xc60|                                       02      |             .  |      [105]: 2 transition_type 0xc6d-0xc6d.7 (1)
0xc60|                                          01   |              . |      [106]: 1 transition_type 0xc6e-0xc6e.7 (1)
0xc60|                                             02|               .|      [107]: 2 transition_type 0xc6f-0xc6f.7 (1)
0xc70|01                                             |.               |      [108]: 1 transition_type 0xc70-0xc70.7 (1)
0xc70|   02                                          | .              |      [109]: 2 transition_type 0xc71-0xc71.7 (1)
0xc70|      01                                       |  .             |      [110]: 1 transition_type 0xc72-0xc72.7 (1)
0xc70|         02                                    |   .            |      [111]: 2 transition_type 0xc73-0xc73.7 (1)
0xc70|            01                                 |    .           |      [112]: 1 transition_type 0xc74-0xc74.7 (1)
0xc70|               02                              |     .          |      [113]: 2 transition_type 0xc75-0xc75.7 (1)
0xc70|                  01                           |      .         |      [114]: 1 transition_type 0xc76-0xc76.7 (1)
0xc70|                     02                        |       .        |      [115]: 2 transition_type 0xc77-0xc77.7 (1)
0xc70|                        01                     |        .       |      [116]: 1 transition_type 0xc78-0xc78.7 (1)
0xc70|                           02                  |         .      |      [117]: 2 transition_type 0xc79-0xc79.7 (1)
0xc70|                              01               |          .     |      [118]: 1 transition_type 0xc7a-0xc7a.7 (1)
0xc70|                                 02            |           .    |      [119]: 2 transition_type 0xc7b-0xc7b.7 (1)
0xc70|                                    01         |            .   |      [120]: 1 transition_type 0xc7c-0xc7c.7 (1)
0xc70|                                       02      |             .  |      [121]: 2 transition_type 0xc7d-0xc7d.7 (1)
0xc70|                                          01   |              . |      [122]: 1 transition_type 0xc7e-0xc7e.7 (1)
0xc70|                                             02|               .|      [123]: 2 transition_type 0xc7f-0xc7f.7 (1)
0xc80|01                                             |.               |      [124]: 1 transition_type 0xc80-0xc80.7 (1)
0xc80|   02                                          | .              |      [125]: 2 transition_type 0xc81-0xc81.7 (1)
0xc80|      01                                       |  .             |      [126]: 1 transition_type 0xc82-0xc82.7 (1)
0xc80|         02                                    |   .            |      [127]: 2 transition_type 0xc83-0xc83.7 (1)
0xc80|            01                                 |    .           |      [128]: 1 transition_type 0xc84-0xc84.7 (1)
0xc80|               02                              |     .          |      [129]: 2 transition_type 0xc85-0xc85.7 (1)
0xc80|                  01                           |      .         |      [130]: 1 transition_type 0xc86-0xc86.7 (1)
0xc80|                     02                        |       .        |      [131]: 2 transition_type 0xc87-0xc87.7 (1)
0xc80|                        01                     |        .       |      [132]: 1 transition_type 0xc88-0xc88.7 (1)
0xc80|                           02                  |         .      |      [133]: 2 transition_type 0xc89-0xc89.7 (1)
0xc80|                              01               |          .     |      [134]: 1 transition_type 0xc8a-0xc8a.7 (1)
0xc80|                                 02            |           .    |      [135]: 2 transition_type 0xc8b-0xc8b.7 (1)
0xc80|                                    01         |            .   |      [136]: 1 transition_type 0xc8c-0xc8c.7 (1)
0xc80|                                       02      |             .  |      [137]: 2 transition_type 0xc8d-0xc8d.7 (1)
0xc80|                                          01   |              . |      [138]: 1 transition_type 0xc8e-0xc8e.7 (1)
0xc80|                                             02|               .|      [139]: 2 transition_type 0xc8f-0xc8f.7 (1)
0xc90|01                                             |.               |      [140]: 1 transition_type 0xc90-0xc90.7 (1)
0xc90|   02                                          | .              |      [141]: 2 transition_type 0xc91-0xc91.7 (1)
0xc90|      01                                       |  .             |      [142]: 1 transition_type 0xc92-0xc92.7 (1)
0xc90|         02                                    |   .            |      [143]: 2 transition_type 0xc93-0xc93.7 (1)
0xc90|            01                                 |    .           |      [144]: 1 transition_type 0xc94-0xc94.7 (1)
0xc90|               02                              |     .          |      [145]: 2 transition_type 0xc95-0xc95.7 (1)
0xc90|                  01                           |      .         |      [146]: 1 transition_type 0xc96-0xc96.7 (1)
0xc90|                     02                        |       .        |      [147]: 2 transition_type 0xc97-0xc97.7 (1)
0xc90|                        01                     |        .       |      [148]: 1 transition_type 0xc98-0xc98.7 (1)
0xc90|                           02                  |         .      |      [149]: 2 transition_type 0xc99-0xc99.7 (1)
0xc90|                              01               |          .     |      [150]: 1 transition_type 0xc9a-0xc9a.7 (1)
0xc90|                                 02            |           .    |      [151]: 2 transition_type 0xc9b-0xc9b.7 (1)
0xc90|                                    01         |            .   |      [152]: 1 transition_type 0xc9c-0xc9c.7 (1)
0xc90|                                       02      |             .  |      [153]: 2 transition_type 0xc9d-0xc9d.7 (1)
0xc90|                                          01   |              . |      [154]: 1 transition_type 0xc9e-0xc9e.7 (1)
0xc90|                                             02|               .|      [155]: 2 transition_type 0xc9f-0xc9f.7 (1)
0xca0|01                                             |.               |      [156]: 1 transition_type 0xca0-0xca0.7 (1)
0xca0|   02                                          | .              |      [157]: 2 transition_type 0xca1-0xca1.7 (1)
0xca0|      01                                       |  .             |      [158]: 1 transition_type 0xca2-0xca2.7 (1)
0xca0|         02                                    |   .            |      [159]: 2 transition_type 0xca3-0xca3.7 (1)
0xca0|            01                                 |    .           |      [160]: 1 transition_type 0xca4-0xca4.7 (1)
0xca0|               02                              |     .          |      [161]: 2 transition_type 0xca5-0xca5.7 (1)
0xca0|                  01                           |      .         |      [162]: 1 transition_type 0xca6-0xca6.7 (1)
0xca0|                     02                        |       .        |      [163]: 2 transition_type 0xca7-0xca7.7 (1)
0xca0|                        01                     |        .       |      [164]: 1 transition_type 0xca8-0xca8.7 (1)
0xca0|                           02                  |         .      |      [165]: 2 transition_type 0xca9-0xca9.7 (1)
0xca0|                              01               |          .     |      [166]: 1 transition_type 0xcaa-0xcaa.7 (1)
0xca0|                                 02            |           .    |      [167]: 2 transition_type 0xcab-0xcab.7 (1)
0xca0|                                    01         |            .   |      [168]: 1 transition_type 0xcac-0xcac.7 (1)
0xca0|                                       02      |             .  |      [169]: 2 transition_type 0xcad-0xcad.7 (1)
0xca0|                                          01   |              . |      [170]: 1 transition_type 0xcae-0xcae.7 (1)
0xca0|                                             02|               .|      [171]: 2 transition_type 0xcaf-0xcaf.7 (1)
0xcb0|01                                             |.               |      [172]: 1 transition_type 0xcb0-0xcb0.7 (1)
0xcb0|   02                                          | .              |      [173]: 2 transition_type 0xcb1-0xcb1.7 (1)
0xcb0|      01                                       |  .             |      [174]: 1 transition_type 0xcb2-0xcb2.7 (1)
0xcb0|         02                                    |   .            |      [175]: 2 transition_type 0xcb3-0xcb3.7 (1)
0xcb0|            01                                 |    .           |      [176]: 1 transition_type 0xcb4-0xcb4.7 (1)
0xcb0|               02                              |     .          |      [177]: 2 transition_type 0xcb5-0xcb5.7 (1)
0xcb0|                  01                           |      .         |      [178]: 1 transition_type 0xcb6-0xcb6.7 (1)
0xcb0|                     02                        |       .        |      [179]: 2 transition_type 0xcb7-0xcb7.7 (1)
0xcb0|                        01                     |        .       |      [180]: 1 transition_type 0xcb8-0xcb8.7 (1)
0xcb0|                           02                  |         .      |      [181]: 2 transition_type 0xcb9-0xcb9.7 (1)
0xcb0|                              01               |          .     |      [182]: 1 transition_type 0xcba-0xcba.7 (1)
0xcb0|                                 02            |           .    |      [183]: 2 transition_type 0xcbb-0xcbb.7 (1)
0xcb0|                                    01         |            .   |      [184]: 1 transition_type 0xcbc-0xcbc.7 (1)
0xcb0|                                       02      |             .  |      [185]: 2 transition_type 0xcbd-0xcbd.7 (1)
0xcb0|                                          01   |              . |      [186]: 1 transition_type 0xcbe-0xcbe.7 (1)
0xcb0|                                             02|               .|      [187]: 2 transition_type 0xcbf-0xcbf.7 (1)
0xcc0|01                                             |.               |      [188]: 1 transition_type 0xcc0-0xcc0.7 (1)
0xcc0|   02                                          | .              |      [189]: 2 transition_type 0xcc1-0xcc1.7 (1)
0xcc0|      01                                       |  .             |      [190]: 1 transition_type 0xcc2-0xcc2.7 (1)
0xcc0|         02                                    |   .            |      [191]: 2 transition_type 0xcc3-0xcc3.7 (1)
0xcc0|            01                                 |    .           |      [192]: 1 transition_type 0xcc4-0xcc4.7 (1)
0xcc0|               02                              |     .          |      [193]: 2 transition_type 0xcc5-0xcc5.7 (1)
0xcc0|                  01                           |      .         |      [194]: 1 transition_type 0xcc6-0xcc6.7 (1)
0xcc0|                     02                        |       .        |      [195]: 2 transition_type 0xcc7-0xcc7.7 (1)
0xcc0|                        01                     |        .       |      [196]: 1 transition_type 0xcc8-0xcc8.7 (1)
0xcc0|                           02                  |         .      |      [197]: 2 transition_type 0xcc9-0xcc9.7 (1)
0xcc0|                              01               |          .     |      [198]: 1 transition_type 0xcca-0xcca.7 (1)
0xcc0|                                 02            |           .    |      [199]: 2 transition_type 0xccb-0xccb.7 (1)
0xcc0|                                    01         |            .   |      [200]: 1 transition_type 0xccc-0xccc.7 (1)
0xcc0|                                       02      |             .  |      [201]: 2 transition_type 0xccd-0xccd.7 (1)
0xcc0|                                          01   |              . |      [202]: 1 transition_type 0xcce-0xcce.7 (1)
0xcc0|                                             02|               .|      [203]: 2 transition_type 0xccf-0xccf.7 (1)
0xcd0|01                                             |.               |      [204]: 1 transition_type 0xcd0-0xcd0.7 (1)
0xcd0|   02                                          | .              |      [205]: 2 transition_type 0xcd1-0xcd1.7 (1)
0xcd0|      01                                       |  .             |      [206]: 1 transition_type 0xcd2-0xcd2.7 (1)
0xcd0|         01                                    |   .            |      [207]: 1 transition_type 0xcd3-0xcd3.7 (1)
     |                                               |                |    local_time_type_records[0:6]: 0xcd4-0xcf7.7 (36)
     |                                               |                |      [0]{}: local_time_type 0xcd4-0xcd9.7 (6)
0xcd0|            ff ff ba 9e                        |    ....        |        utoff: -17762 (valid) 0xcd4-0xcd7.7 (4)
0xcd0|                        00                     |        .       |        dst: 0 (valid) 0xcd8-0xcd8.7 (1)
0xcd0|                           00                  |         .      |        idx: 0 (valid) 0xcd9-0xcd9.7 (1)
     |                                               |                |      [1]{}: local_time_type 0xcda-0xcdf.7 (6)
0xcd0|                              ff ff c7 c0      |          ....  |        utoff: -14400 (valid) 0xcda-0xcdd.7 (4)
0xcd0|                                          01   |              . |        dst: 1 (valid) 0xcde-0xcde.7 (1)
0xcd0|                                             04|               .|        idx: 4 (valid) 0xcdf-0xcdf.7 (1)
     |                                               |                |      [2]{}: local_time_type 0xce0-0xce5.7 (6)
0xce0|ff ff b9 b0                                    |....            |        utoff: -18000 (valid) 0xce0-0xce3.7 (4)
0xce0|            00                                 |    .           |        dst: 0 (valid) 0xce4-0xce4.7 (1)
0xce0|               08                              |     .          |        idx: 8 (valid) 0xce5-0xce5.7 (1)
     |                                               |                |      [3]{}: local_time_type 0xce6-0xceb.7 (6)
0xce0|                  ff ff b9 b0                  |      ....      |        utoff: -18000 (valid) 0xce6-0xce9.7 (4)
0xce0|                              00               |          .     |        dst: 0 (valid) 0xcea-0xcea.7 (1)
0xce0|                                 08            |           .    |        idx: 8 (valid) 0xceb-0xceb.7 (1)
     |                                               |                |      [4]{}: local_time_type 0xcec-0xcf1.7 (6)
0xce0|                                    ff ff c7 c0|            ....|        utoff: -14400 (valid) 0xcec-0xcef.7 (4)
0xcf0|01                                             |.               |        dst: 1 (valid) 0xcf0-0xcf0.7 (1)
0xcf0|   0c                                          | .              |        idx: 12 (valid) 0xcf1-0xcf1.7 (1)
     |                                               |                |      [5]{}: local_time_type 0xcf2-0xcf7.7 (6)
0xcf0|      ff ff c7 c0                              |  ....          |        utoff: -14400 (valid) 0xcf2-0xcf5.7 (4)
0xcf0|                  01                           |      .         |        dst: 1 (valid) 0xcf6-0xcf6.7 (1)
0xcf0|                     10                        |       .        |        idx: 16 (valid) 0xcf7-0xcf7.7 (1)
     |                                               |                |    time_zone_designations[0:5]: 0xcf8-0xd0b.7 (20)
0xcf0|                        4c 4d 54 00            |        LMT.    |      [0]: "LMT" time_zone_designation 0xcf8-0xcfb.7 (4)
0xcf0|                                    45 44 54 00|            EDT.|      [1]: "EDT" time_zone_designation 0xcfc-0xcff.7 (4)
0xd00|45 53 54 00                                    |EST.            |      [2]: "EST" time_zone_designation 0xd00-0xd03.7 (4)
0xd00|            45 57 54 00                        |    EWT.        |      [3]: "EWT" time_zone_designation 0xd04-0xd07.7 (4)
0xd00|                        45 50 54 00            |        EPT.    |      [4]: "EPT" time_zone_designation 0xd08-0xd0b.7 (4)
     |                                               |                |    leap_second_records[0:27]: 0xd0c-0xe4f.7 (324)
     |                                               |                |      [0]{}: leap_second_record 0xd0c-0xd17.7 (12)
0xd00|                                    00 00 00 00|            ....|        occur: "1972-07-01T00:00:00Z" (78796800) 0xd0c-0xd13.7 (8)
0xd10|04 b2 58 00                                    |..X.            |
0xd10|            00 00 00 01                        |    ....        |        corr: 1 0xd14-0xd17.7 (4)
     |                                               |                |      [1]{}: leap_second_record 0xd18-0xd23.7 (12)
0xd10|                        00 00 00 00 05 a4 ec 01|        ........|        occur: "1973-01-01T00:00:01Z" (94694401) 0xd18-0xd1f.7 (8)
0xd20|00 00 00 02                                    |....            |        corr: 2 0xd20-0xd23.7 (4)
     |                                               |                |      [2]{}: leap_second_record 0xd24-0xd2f.7 (12)
0xd20|            00 00 00 00 07 86 1f 82            |    ........    |        occur: "1974-01-01T00:00:02Z" (126230402) 0xd24-0xd2b.7 (8)
0xd20|                                    00 00 00 03|            ....|        corr: 3 0xd2c-0xd2f.7 (4)
     |                                               |                |      [3]{}: leap_second_record 0xd30-0xd3b.7 (12)
0xd30|00 00 00 00 09 67 53 03                        |.....gS.        |        occur: "1975-01-01T00:00:03Z" (157766403) 0xd30-0xd37.7 (8)
0xd30|                        00 00 00 04            |        ....    |        corr: 4 0xd38-0xd3b.7 (4)
     |                                               |                |      [4]{}: leap_second_record 0xd3c-0xd47.7 (12)
0xd30|                                    00 00 00 00|            ....|        occur: "1976-01-01T00:00:04Z" (189302404) 0xd3c-0xd43.7 (8)
0xd40|0b 48 86 84                                    |.H..            |
0xd40|            00 00 00 05                        |    ....        |        corr: 5 0xd44-0xd47.7 (4)
     |                                               |                |      [5]{}: leap_second_record 0xd48-0xd53.7 (12)
0xd40|                        00 00 00 00 0d 2b 0b 85|        .....+..|        occur: "1977-01-01T00:00:05Z" (220924805) 0xd48-0xd4f.7 (8)
0xd50|00 00 00 06                                    |....            |        corr: 6 0xd50-0xd53.7 (4)
     |                                               |                |      [6]{}: leap_second_record 0xd54-0xd5f.7 (12)
0xd50|            00 00 00 00 0f 0c 3f 06            |    ......?.    |        occur: "1978-01-01T00:00:06Z" (252460806) 0xd54-0xd5b.7 (8)
0xd50|                                    00 00 00 07|            ....|        corr: 7 0xd5c-0xd5f.7 (4)
     |                                               |                |      [7]{}: leap_second_record 0xd60-0xd6b.7 (12)
0xd60|00 00 00 00 10 ed 72 87                        |......r.        |        occur: "1979-01-01T00:00:07Z" (283996807) 0xd60-0xd67.7 (8)
0xd60|                        00 00 00 08            |        ....    |        corr: 8 0xd68-0xd6b.7 (4)
     |                                               |                |      [8]{}: leap_second_record 0xd6c-0xd77.7 (12)
0xd60|                                    00 00 00 00|            ....|        occur: "1980-01-01T00:00:08Z" (315532808) 0xd6c-0xd73.7 (8)
0xd70|12 ce a6 08                                    |....            |
0xd70|            00 00 00 09                        |    ....        |        corr: 9 0xd74-0xd77.7 (4)
     |                                               |                |      [9]{}: leap_second_record 0xd78-0xd83.7 (12)
0xd70|                        00 00 00 00 15 9f ca 89|        ........|        occur: "1981-07-01T00:00:09Z" (362793609) 0xd78-0xd7f.7 (8)
0xd80|00 00 00 0a                                    |....            |        corr: 10 0xd80-0xd83.7 (4)
     |                                               |                |      [10]{}: leap_second_record 0xd84-0xd8f.7 (12)
0xd80|            00 00 00 00 17 80 fe 0a            |    ........    |        occur: "1982-07-01T00:00:10Z" (394329610) 0xd84-0xd8b.7 (8)
0xd80|                                    00 00 00 0b|            ....|        corr: 11 0xd8c-0xd8f.7 (4)
     |                                               |                |      [11]{}: leap_second_record 0xd90-0xd9b.7 (12)
0xd90|00 00 00 00 19 62 31 8b                        |.....b1.        |        occur: "1983-07-01T00:00:11Z" (425865611) 0xd90-0xd97.7 (8)
0xd90|                        00 00 00 0c            |        ....    |        corr: 12 0xd98-0xd9b.7 (4)
     |                                               |                |      [12]{}: leap_second_record 0xd9c-0xda7.7 (12)
0xd90|                                    00 00 00 00|            ....|        occur: "1985-07-01T00:00:12Z" (489024012) 0xd9c-0xda3.7 (8)
0xda0|1d 25 ea 0c                                    |.%..            |
0xda0|            00 00 00 0d                        |    ....        |        corr: 13 0xda4-0xda7.7 (4)
     |                                               |                |      [13]{}: leap_second_record 0xda8-0xdb3.7 (12)
0xda0|                        00 00 00 00 21 da e5 0d|        ....!...|        occur: "1988-01-01T00:00:13Z" (567993613) 0xda8-0xdaf.7 (8)
0xdb0|00 00 00 0e                                    |....            |        corr: 14 0xdb0-0xdb3.7 (4)
     |                                               |                |      [14]{}: leap_second_record 0xdb4-0xdbf.7 (12)
0xdb0|            00 00 00 00 25 9e 9d 8e            |    ....%...    |        occur: "1990-01-01T00:00:14Z" (631152014) 0xdb4-0xdbb.7 (8)
0xdb0|                                    00 00 00 0f|            ....|        corr: 15 0xdbc-0xdbf.7 (4)
     |                                               |                |      [15]{}: leap_second_record 0xdc0-0xdcb.7 (12)
0xdc0|00 00 00 00 27 7f d1 0f                        |....'...        |        occur: "1991-01-01T00:00:15Z" (662688015) 0xdc0-0xdc7.7 (8)
0xdc0|                        00 00 00 10            |        ....    |        corr: 16 0xdc8-0xdcb.7 (4)
     |                                               |                |      [16]{}: leap_second_record 0xdcc-0xdd7.7 (12)
0xdc0|                                    00 00 00 00|            ....|        occur: "1992-07-01T00:00:16Z" (709948816) 0xdcc-0xdd3.7 (8)
0xdd0|2a 50 f5 90                                    |*P..            |
0xdd0|            00 00 00 11                        |    ....        |        corr: 17 0xdd4-0xdd7.7 (4)
     |                                               |                |      [17]{}: leap_second_record 0xdd8-0xde3.7 (12)
0xdd0|                        00 00 00 00 2c 32 29 11|        ....,2).|        occur: "1993-07-01T00:00:17Z" (741484817) 0xdd8-0xddf.7 (8)
0xde0|00 00 00 12                                    |....            |        corr: 18 0xde0-0xde3.7 (4)
     |                                               |                |      [18]{}: leap_second_record 0xde4-0xdef.7 (12)
0xde0|            00 00 00 00 2e 13 5c 92            |    ......\.    |        occur: "1994-07-01T00:00:18Z" (773020818) 0xde4-0xdeb.7 (8)
0xde0|                                    00 00 00 13|            ....|        corr: 19 0xdec-0xdef.7 (4)
     |                                               |                |      [19]{}: leap_second_record 0xdf0-0xdfb.7 (12)
0xdf0|00 00 00 00 30 e7 24 13                        |....0.$.        |        occur: "1996-01-01T00:00:19Z" (820454419) 0xdf0-0xdf7.7 (8)
0xdf0|                        00 00 00 14            |        ....    |        corr: 20 0xdf8-0xdfb.7 (4)
     |                                               |                |      [20]{}: leap_second_record 0xdfc-0xe07.7 (12)
0xdf0|                                    00 00 00 00|            ....|        occur: "1997-07-01T00:00:20Z" (867715220) 0xdfc-0xe03.7 (8)
0xe00|33 b8 48 94                                    |3.H.            |
0xe00|            00 00 00 15                        |    ....        |        corr: 21 0xe04-0xe07.7 (4)
     |                                               |                |      [21]{}: leap_second_record 0xe08-0xe13.7 (12)
0xe00|                        00 00 00 00 36 8c 10 15|        ....6...|        occur: "1999-01-01T00:00:21Z" (915148821) 0xe08-0xe0f.7 (8)
0xe10|00 00 00 16                                    |....            |        corr: 22 0xe10-0xe13.7 (4)
     |                                               |                |      [22]{}: leap_second_record 0xe14-0xe1f.7 (12)
0xe10|            00 00 00 00 43 b7 1b 96            |    ....C...    |        occur: "2006-01-01T00:00:22Z" (1136073622) 0xe14-0xe1b.7 (8)
0xe10|                                    00 00 00 17|            ....|        corr: 23 0xe1c-0xe1f.7 (4)
     |                                               |                |      [23]{}: leap_second_record 0xe20-0xe2b.7 (12)
0xe20|00 00 00 00 49 5c 07 97                        |....I\..        |        occur: "2009-01-01T00:00:23Z" (1230768023) 0xe20-0xe27.7 (8)
0xe20|                        00 00 00 18            |        ....    |        corr: 24 0xe28-0xe2b.7 (4)
     |                                               |                |      [24]{}: leap_second_record 0xe2c-0xe37.7 (12)
0xe20|                                    00 00 00 00|            ....|        occur: "2012-07-01T00:00:24Z" (1341100824) 0xe2c-0xe33.7 (8)
0xe30|4f ef 93 18                                    |O...            |
0xe30|            00 00 00 19                        |    ....        |        corr: 25 0xe34-0xe37.7 (4)
     |                                               |                |      [25]{}: leap_second_record 0xe38-0xe43.7 (12)
0xe30|                        00 00 00 00 55 93 2d 99|        ....U.-.|        occur: "2015-07-01T00:00:25Z" (1435708825) 0xe38-0xe3f.7 (8)
0xe40|00 00 00 1a                                    |....            |        corr: 26 0xe40-0xe43.7 (4)
     |                                               |                |      [26]{}: leap_second_record 0xe44-0xe4f.7 (12)
0xe40|            00 00 00 00 58 68 46 9a            |    ....XhF.    |        occur: "2017-01-01T00:00:26Z" (1483228826) 0xe44-0xe4b.7 (8)
0xe40|                                    00 00 00 1b|            ....|        corr: 27 0xe4c-0xe4f.7 (4)
     |                                               |                |    standard_wall_indicators[0:6]: 0xe50-0xe55.7 (6)
0xe50|00                                             |.               |      [0]: 0 standard_wall_indicator (valid) 0xe50-0xe50.7 (1)
0xe50|   00                                          | .              |      [1]: 0 standard_wall_indicator (valid) 0xe51-0xe51.7 (1)
0xe50|      00                                       |  .             |      [2]: 0 standard_wall_indicator (valid) 0xe52-0xe52.7 (1)
0xe50|         01                                    |   .            |      [3]: 1 standard_wall_indicator (valid) 0xe53-0xe53.7 (1)
0xe50|            00                                 |    .           |      [4]: 0 standard_wall_indicator (valid) 0xe54-0xe54.7 (1)
0xe50|               01                              |     .          |      [5]: 1 standard_wall_indicator (valid) 0xe55-0xe55.7 (1)
     |                                               |                |    ut_local_indicators[0:6]: 0xe56-0xe5b.7 (6)
0xe50|                  00                           |      .         |      [0]: 0 ut_local_indicator (valid) 0xe56-0xe56.7 (1)
0xe50|                     00                        |       .        |      [1]: 0 ut_local_indicator (valid) 0xe57-0xe57.7 (1)
0xe50|                        00                     |        .       |      [2]: 0 ut_local_indicator (valid) 0xe58-0xe58.7 (1)
0xe50|                           01                  |         .      |      [3]: 1 ut_local_indicator (valid) 0xe59-0xe59.7 (1)
0xe50|                              00               |          .     |      [4]: 0 ut_local_indicator (valid) 0xe5a-0xe5a.7 (1)
0xe50|                                 01            |           .    |      [5]: 1 ut_local_indicator (valid) 0xe5b-0xe5b.7 (1)
     |                                               |                |  footer{}: 0xe5c-0xe5d.7 (2)
0xe50|                                    0a         |            .   |    nl1: 10 (valid) 0xe5c-0xe5c.7 (1)
     |                                               |                |    tz_string: "" 0xe5d-NA (0)
0xe50|                                       0a|     |             .| |    nl2: 10 (valid) 0xe5d-0xe5d.7 (1)
