$ fq -d tzif dv Nicosia
     |00 01 02 03 04 05 06 07 08 09 0a 0b 0c 0d 0e 0f|0123456789abcdef|.{}: Nicosia (tzif) 0x0-0x849.7 (2122)
     |                                               |                |  v1header{}: 0x0-0x2b.7 (44)
0x000|54 5a 69 66                                    |TZif            |    magic: 0x545a6966 (valid) 0x0-0x3.7 (4)
0x000|            32                                 |    2           |    ver: "2" (0x32) (valid) 0x4-0x4.7 (1)
0x000|               00 00 00 00 00 00 00 00 00 00 00|     ...........|    reserved: raw bits 0x5-0x13.7 (15)
0x010|00 00 00 00                                    |....            |
0x010|            00 00 00 05                        |    ....        |    isutcnt: 5 0x14-0x17.7 (4)
0x010|                        00 00 00 05            |        ....    |    isstdcnt: 5 0x18-0x1b.7 (4)
0x010|                                    00 00 00 1b|            ....|    leapcnt: 27 0x1c-0x1f.7 (4)
0x020|00 00 00 63                                    |...c            |    timecnt: 99 0x20-0x23.7 (4)
0x020|            00 00 00 05                        |    ....        |    typecnt: 5 0x24-0x27.7 (4)
0x020|                        00 00 00 0d            |        ....    |    charcnt: 13 0x28-0x2b.7 (4)
     |                                               |                |  v1datablock{}: 0x2c-0x327.7 (764)
     |                                               |                |    transition_times[0:99]: 0x2c-0x1b7.7 (396)
0x020|                                    a5 77 1e b8|            .w..|      [0]: "1921-11-13T21:46:32Z" (-1518920008) transition_time 0x2c-0x2f.7 (4)
0x030|09 ed af e4                                    |....            |      [1]: "1975-04-12T22:00:04Z" (166572004) transition_time 0x30-0x33.7 (4)
0x030|            0a dd 92 d4                        |    ....        |      [2]: "1975-10-11T21:00:04Z" (182293204) transition_time 0x34-0x37.7 (4)
0x030|                        0b fa 64 e5            |        ..d.    |      [3]: "1976-05-14T22:00:05Z" (200959205) transition_time 0x38-0x3b.7 (4)
0x030|                                    0c be c6 55|            ...U|      [4]: "1976-10-10T21:00:05Z" (213829205) transition_time 0x3c-0x3f.7 (4)
0x040|0d a4 39 66                                    |..9f            |      [5]: "1977-04-02T22:00:06Z" (228866406) transition_time 0x40-0x43.7 (4)
0x040|            0e 8a e1 d6                        |    ....        |      [6]: "1977-09-24T21:00:06Z" (243982806) transition_time 0x44-0x47.7 (4)
0x040|                        0f 84 1b 67            |        ...g    |      [7]: "1978-04-01T22:00:07Z" (260316007) transition_time 0x48-0x4b.7 (4)
0x040|                                    10 75 4f d7|            .uO.|      [8]: "1978-10-01T21:00:07Z" (276123607) transition_time 0x4c-0x4f.7 (4)
0x050|11 63 fd 68                                    |.c.h            |      [9]: "1979-03-31T22:00:08Z" (291765608) transition_time 0x50-0x53.7 (4)
0x050|            12 53 e0 58                        |    .S.X        |      [10]: "1979-09-29T21:00:08Z" (307486808) transition_time 0x54-0x57.7 (4)
0x050|                        13 4d 19 e9            |        .M..    |      [11]: "1980-04-05T22:00:09Z" (323820009) transition_time 0x58-0x5b.7 (4)
0x050|                                    14 33 c2 59|            .3.Y|      [12]: "1980-09-27T21:00:09Z" (338936409) transition_time 0x5c-0x5f.7 (4)
0x060|15 23 c1 69                                    |.#.i            |      [13]: "1981-03-28T22:00:09Z" (354664809) transition_time 0x60-0x63.7 (4)
0x060|            16 13 a4 5a                        |    ...Z        |      [14]: "1981-09-26T21:00:10Z" (370386010) transition_time 0x64-0x67.7 (4)
0x060|                        17 03 a3 6a            |        ...j    |      [15]: "1982-03-27T22:00:10Z" (386114410) transition_time 0x68-0x6b.7 (4)
0x060|                                    17 f3 86 5b|            ...[|      [16]: "1982-09-25T21:00:11Z" (401835611) transition_time 0x6c-0x6f.7 (4)
0x070|18 e3 85 6b                                    |...k            |      [17]: "1983-03-26T22:00:11Z" (417564011) transition_time 0x70-0x73.7 (4)
0x070|            19 d3 68 5c                        |    ..h\        |      [18]: "1983-09-24T21:00:12Z" (433285212) transition_time 0x74-0x77.7 (4)
0x070|                        1a c3 67 6c            |        ..gl    |      [19]: "1984-03-24T22:00:12Z" (449013612) transition_time 0x78-0x7b.7 (4)
0x070|                                    1b bc 84 dc|            ....|      [20]: "1984-09-29T21:00:12Z" (465339612) transition_time 0x7c-0x7f.7 (4)
0x080|1c ac 83 ec                                    |....            |      [21]: "1985-03-30T22:00:12Z" (481068012) transition_time 0x80-0x83.7 (4)
0x080|            1d 9c 66 dd                        |    ..f.        |      [22]: "1985-09-28T21:00:13Z" (496789213) transition_time 0x84-0x87.7 (4)
0x080|                        1e 8c 65 ed            |        ..e.    |      [23]: "1986-03-29T22:00:13Z" (512517613) transition_time 0x88-0x8b.7 (4)
0x080|                                    1f 7c 48 dd|            .|H.|      [24]: "1986-09-27T21:00:13Z" (528238813) transition_time 0x8c-0x8f.7 (4)
0x090|20 6c 47 ed                                    | lG.            |      [25]: "1987-03-28T22:00:13Z" (543967213) transition_time 0x90-0x93.7 (4)
0x090|            21 5c 2a dd                        |    !\*.        |      [26]: "1987-09-26T21:00:13Z" (559688413) transition_time 0x94-0x97.7 (4)
0x090|                        22 4c 29 ee            |        "L).    |      [27]: "1988-03-26T22:00:14Z" (575416814) transition_time 0x98-0x9b.7 (4)
0x090|                                    23 3c 0c de|            #<..|      [28]: "1988-09-24T21:00:14Z" (591138014) transition_time 0x9c-0x9f.7 (4)
0x0a0|24 2c 0b ee                                    |$,..            |      [29]: "1989-03-25T22:00:14Z" (606866414) transition_time 0xa0-0xa3.7 (4)
0x0a0|            25 1b ee de                        |    %...        |      [30]: "1989-09-23T21:00:14Z" (622587614) transition_time 0xa4-0xa7.7 (4)
0x0a0|                        26 0b ed ef            |        &...    |      [31]: "1990-03-24T22:00:15Z" (638316015) transition_time 0xa8-0xab.7 (4)
0x0a0|                                    27 05 0b 5f|            '.._|      [32]: "1990-09-29T21:00:15Z" (654642015) transition_time 0xac-0xaf.7 (4)
0x0b0|27 f5 0a 70                                    |'..p            |      [33]: "1991-03-30T22:00:16Z" (670370416) transition_time 0xb0-0xb3.7 (4)
0x0b0|            28 e4 ed 60                        |    (..`        |      [34]: "1991-09-28T21:00:16Z" (686091616) transition_time 0xb4-0xb7.7 (4)
0x0b0|                        29 d4 ec 70            |        )..p    |      [35]: "1992-03-28T22:00:16Z" (701820016) transition_time 0xb8-0xbb.7 (4)
0x0b0|                                    2a c4 cf 61|            *..a|      [36]: "1992-09-26T21:00:17Z" (717541217) transition_time 0xbc-0xbf.7 (4)
0x0c0|2b b4 ce 71                                    |+..q            |      [37]: "1993-03-27T22:00:17Z" (733269617) transition_time 0xc0-0xc3.7 (4)
0x0c0|            2c a4 b1 62                        |    ,..b        |      [38]: "1993-09-25T21:00:18Z" (748990818) transition_time 0xc4-0xc7.7 (4)
0x0c0|                        2d 94 b0 72            |        -..r    |      [39]: "1994-03-26T22:00:18Z" (764719218) transition_time 0xc8-0xcb.7 (4)
0x0c0|                                    2e 84 93 63|            ...c|      [40]: "1994-09-24T21:00:19Z" (780440419) transition_time 0xcc-0xcf.7 (4)
0x0d0|2f 74 92 73                                    |/t.s            |      [41]: "1995-03-25T22:00:19Z" (796168819) transition_time 0xd0-0xd3.7 (4)
0x0d0|            30 64 75 63                        |    0duc        |      [42]: "1995-09-23T21:00:19Z" (811890019) transition_time 0xd4-0xd7.7 (4)
0x0d0|                        31 5d ae f4            |        1]..    |      [43]: "1996-03-30T22:00:20Z" (828223220) transition_time 0xd8-0xdb.7 (4)
0x0d0|                                    32 4d 91 e4|            2M..|      [44]: "1996-09-28T21:00:20Z" (843944420) transition_time 0xdc-0xdf.7 (4)
0x0e0|33 3d 90 f4                                    |3=..            |      [45]: "1997-03-29T22:00:20Z" (859672820) transition_time 0xe0-0xe3.7 (4)
0x0e0|            34 2d 73 e5                        |    4-s.        |      [46]: "1997-09-27T21:00:21Z" (875394021) transition_time 0xe4-0xe7.7 (4)
0x0e0|                        35 1d 72 f5            |        5.r.    |      [47]: "1998-03-28T22:00:21Z" (891122421) transition_time 0xe8-0xeb.7 (4)
0x0e0|                                    36 32 78 25|            62x%|      [48]: "1998-10-25T01:00:21Z" (909277221) transition_time 0xec-0xef.7 (4)
0x0f0|36 fd 7f 26                                    |6..&            |      [49]: "1999-03-28T01:00:22Z" (922582822) transition_time 0xf0-0xf3.7 (4)
0x0f0|            38 1b 94 a6                        |    8...        |      [50]: "1999-10-31T01:00:22Z" (941331622) transition_time 0xf4-0xf7.7 (4)
0x0f0|                        38 dd 61 26            |        8.a&    |      [51]: "2000-03-26T01:00:22Z" (954032422) transition_time 0xf8-0xfb.7 (4)
0x0f0|                                    39 fb 76 a6|            9.v.|      [52]: "2000-10-29T01:00:22Z" (972781222) transition_time 0xfc-0xff.7 (4)
0x100|3a bd 43 26                                    |:.C&            |      [53]: "2001-03-25T01:00:22Z" (985482022) transition_time 0x100-0x103.7 (4)
0x100|            3b db 58 a6                        |    ;.X.        |      [54]: "2001-10-28T01:00:22Z" (1004230822) transition_time 0x104-0x107.7 (4)
0x100|                        3c a6 5f a6            |        <._.    |      [55]: "2002-03-31T01:00:22Z" (1017536422) transition_time 0x108-0x10b.7 (4)
0x100|                                    3d bb 3a a6|            =.:.|      [56]: "2002-10-27T01:00:22Z" (1035680422) transition_time 0x10c-0x10f.7 (4)
0x110|3e 86 41 a6                                    |>.A.            |      [57]: "2003-03-30T01:00:22Z" (1048986022) transition_time 0x110-0x113.7 (4)
0x110|            3f 9b 1c a6                        |    ?...        |      [58]: "2003-10-26T01:00:22Z" (1067130022) transition_time 0x114-0x117.7 (4)
0x110|                        40 66 23 a6            |        @f#.    |      [59]: "2004-03-28T01:00:22Z" (1080435622) transition_time 0x118-0x11b.7 (4)
0x110|                                    41 84 39 26|            A.9&|      [60]: "2004-10-31T01:00:22Z" (1099184422) transition_time 0x11c-0x11f.7 (4)
0x120|42 46 05 a6                                    |BF..            |      [61]: "2005-03-27T01:00:22Z" (1111885222) transition_time 0x120-0x123.7 (4)
0x120|            43 64 1b 26                        |    Cd.&        |      [62]: "2005-10-30T01:00:22Z" (1130634022) transition_time 0x124-0x127.7 (4)
0x120|                        44 25 e7 a7            |        D%..    |      [63]: "2006-03-26T01:00:23Z" (1143334823) transition_time 0x128-0x12b.7 (4)
0x120|                                    45 43 fd 27|            EC.'|      [64]: "2006-10-29T01:00:23Z" (1162083623) transition_time 0x12c-0x12f.7 (4)
0x130|46 05 c9 a7                                    |F...            |      [65]: "2007-03-25T01:00:23Z" (1174784423) transition_time 0x130-0x133.7 (4)
0x130|            47 23 df 27                        |    G#.'        |      [66]: "2007-10-28T01:00:23Z" (1193533223) transition_time 0x134-0x137.7 (4)
0x130|                        47 ee e6 27            |        G..'    |      [67]: "2008-03-30T01:00:23Z" (1206838823) transition_time 0x138-0x13b.7 (4)
0x130|                                    49 03 c1 27|            I..'|      [68]: "2008-10-26T01:00:23Z" (1224982823) transition_time 0x13c-0x13f.7 (4)
0x140|49 ce c8 28                                    |I..(            |      [69]: "2009-03-29T01:00:24Z" (1238288424) transition_time 0x140-0x143.7 (4)
0x140|            4a e3 a3 28                        |    J..(        |      [70]: "2009-10-25T01:00:24Z" (1256432424) transition_time 0x144-0x147.7 (4)
0x140|                        4b ae aa 28            |        K..(    |      [71]: "2010-03-28T01:00:24Z" (1269738024) transition_time 0x148-0x14b.7 (4)
0x140|                                    4c cc bf a8|            L...|      [72]: "2010-10-31T01:00:24Z" (1288486824) transition_time 0x14c-0x14f.7 (4)
0x150|4d 8e 8c 28                                    |M..(            |      [73]: "2011-03-27T01:00:24Z" (1301187624) transition_time 0x150-0x153.7 (4)
0x150|            4e ac a1 a8                        |    N...        |      [74]: "2011-10-30T01:00:24Z" (1319936424) transition_time 0x154-0x157.7 (4)
0x150|                        4f 6e 6e 28            |        Onn(    |      [75]: "2012-03-25T01:00:24Z" (1332637224) transition_time 0x158-0x15b.7 (4)
0x150|                                    50 8c 83 a9|            P...|      [76]: "2012-10-28T01:00:25Z" (1351386025) transition_time 0x15c-0x15f.7 (4)
0x160|51 57 8a a9                                    |QW..            |      [77]: "2013-03-31T01:00:25Z" (1364691625) transition_time 0x160-0x163.7 (4)
0x160|            52 6c 65 a9                        |    Rle.        |      [78]: "2013-10-27T01:00:25Z" (1382835625) transition_time 0x164-0x167.7 (4)
0x160|                        53 37 6c a9            |        S7l.    |      [79]: "2014-03-30T01:00:25Z" (1396141225) transition_time 0x168-0x16b.7 (4)
0x160|                                    54 4c 47 a9|            TLG.|      [80]: "2014-10-26T01:00:25Z" (1414285225) transition_time 0x16c-0x16f.7 (4)
0x170|55 17 4e a9                                    |U.N.            |      [81]: "2015-03-29T01:00:25Z" (1427590825) transition_time 0x170-0x173.7 (4)
0x170|            56 2c 29 aa                        |    V,).        |      [82]: "2015-10-25T01:00:26Z" (1445734826) transition_time 0x174-0x177.7 (4)
0x170|                        56 f7 30 aa            |        V.0.    |      [83]: "2016-03-27T01:00:26Z" (1459040426) transition_time 0x178-0x17b.7 (4)
0x170|                                    58 15 46 2a|            X.F*|      [84]: "2016-10-30T01:00:26Z" (1477789226) transition_time 0x17c-0x17f.7 (4)
0x180|58 d7 12 ab                                    |X...            |      [85]: "2017-03-26T01:00:27Z" (1490490027) transition_time 0x180-0x183.7 (4)
0x180|            59 f5 28 2b                        |    Y.(+        |      [86]: "2017-10-29T01:00:27Z" (1509238827) transition_time 0x184-0x187.7 (4)
0x180|                        5a b6 f4 ab            |        Z...    |      [87]: "2018-03-25T01:00:27Z" (1521939627) transition_time 0x188-0x18b.7 (4)
0x180|                                    5b d5 0a 2b|            [..+|      [88]: "2018-10-28T01:00:27Z" (1540688427) transition_time 0x18c-0x18f.7 (4)
0x190|5c a0 11 2b                                    |\..+            |      [89]: "2019-03-31T01:00:27Z" (1553994027) transition_time 0x190-0x193.7 (4)
0x190|            5d b4 ec 2b                        |    ]..+        |      [90]: "2019-10-27T01:00:27Z" (1572138027) transition_time 0x194-0x197.7 (4)
0x190|                        5e 7f f3 2b            |        ^..+    |      [91]: "2020-03-29T01:00:27Z" (1585443627) transition_time 0x198-0x19b.7 (4)
0x190|                                    5f 94 ce 2b|            _..+|      [92]: "2020-10-25T01:00:27Z" (1603587627) transition_time 0x19c-0x19f.7 (4)
0x1a0|60 5f d5 2b                                    |`_.+            |      [93]: "2021-03-28T01:00:27Z" (1616893227) transition_time 0x1a0-0x1a3.7 (4)
0x1a0|            61 7d ea ab                        |    a}..        |      [94]: "2021-10-31T01:00:27Z" (1635642027) transition_time 0x1a4-0x1a7.7 (4)
0x1a0|                        62 3f b7 2b            |        b?.+    |      [95]: "2022-03-27T01:00:27Z" (1648342827) transition_time 0x1a8-0x1ab.7 (4)
0x1a0|                                    63 5d cc ab|            c]..|      [96]: "2022-10-30T01:00:27Z" (1667091627) transition_time 0x1ac-0x1af.7 (4)
0x1b0|64 1f 99 2b                                    |d..+            |      [97]: "2023-03-26T01:00:27Z" (1679792427) transition_time 0x1b0-0x1b3.7 (4)
0x1b0|            64 9b 78 1b                        |    d.x.        |      [98]: "2023-06-28T00:00:27Z" (1687910427) transition_time 0x1b4-0x1b7.7 (4)
     |                                               |                |    transition_types[0:99]: 0x1b8-0x21a.7 (99)
0x1b0|                        02                     |        .       |      [0]: 2 transition_type 0x1b8-0x1b8.7 (1)
0x1b0|                           01                  |         .      |      [1]: 1 transition_type 0x1b9-0x1b9.7 (1)
0x1b0|                              02               |          .     |      [2]: 2 transition_type 0x1ba-0x1ba.7 (1)
0x1b0|                                 01            |           .    |      [3]: 1 transition_type 0x1bb-0x1bb.7 (1)
0x1b0|                                    02         |            .   |      [4]: 2 transition_type 0x1bc-0x1bc.7 (1)
0x1b0|                                       01      |             .  |      [5]: 1 transition_type 0x1bd-0x1bd.7 (1)
0x1b0|                                          02   |              . |      [6]: 2 transition_type 0x1be-0x1be.7 (1)
0x1b0|                                             01|               .|      [7]: 1 transition_type 0x1bf-0x1bf.7 (1)
0x1c0|02                                             |.               |      [8]: 2 transition_type 0x1c0-0x1c0.7 (1)
0x1c0|   01                                          | .              |      [9]: 1 transition_type 0x1c1-0x1c1.7 (1)
0x1c0|      02                                       |  .             |      [10]: 2 transition_type 0x1c2-0x1c2.7 (1)
0x1c0|         01                                    |   .            |      [11]: 1 transition_type 0x1c3-0x1c3.7 (1)
0x1c0|            02                                 |    .           |      [12]: 2 transition_type 0x1c4-0x1c4.7 (1)
0x1c0|               01                              |     .          |      [13]: 1 transition_type 0x1c5-0x1c5.7 (1)
0x1c0|                  02                           |      .         |      [14]: 2 transition_type 0x1c6-0x1c6.7 (1)
0x1c0|                     01                        |       .        |      [15]: 1 transition_type 0x1c7-0x1c7.7 (1)
0x1c0|                        02                     |        .       |      [16]: 2 transition_type 0x1c8-0x1c8.7 (1)
0x1c0|                           01                  |         .      |      [17]: 1 transition_type 0x1c9-0x1c9.7 (1)
0x1c0|                              02               |          .     |      [18]: 2 transition_type 0x1ca-0x1ca.7 (1)
0x1c0|                                 01            |           .    |      [19]: 1 transition_type 0x1cb-0x1cb.7 (1)
0x1c0|                                    02         |            .   |      [20]: 2 transition_type 0x1cc-0x1cc.7 (1)
0x1c0|                                       01      |             .  |      [21]: 1 transition_type 0x1cd-0x1cd.7 (1)
0x1c0|                                          02   |              . |      [22]: 2 transition_type 0x1ce-0x1ce.7 (1)
0x1c0|                                             01|               .|      [23]: 1 transition_type 0x1cf-0x1cf.7 (1)
0x1d0|02                                             |.               |      [24]: 2 transition_type 0x1d0-0x1d0.7 (1)
0x1d0|   01                                          | .              |      [25]: 1 transition_type 0x1d1-0x1d1.7 (1)
0x1d0|      02                                       |  .             |      [26]: 2 transition_type 0x1d2-0x1d2.7 (1)
0x1d0|         01                                    |   .            |      [27]: 1 transition_type 0x1d3-0x1d3.7 (1)
0x1d0|            02                                 |    .           |      [28]: 2 transition_type 0x1d4-0x1d4.7 (1)
0x1d0|               01                              |     .          |      [29]: 1 transition_type 0x1d5-0x1d5.7 (1)
0x1d0|                  02                           |      .         |      [30]: 2 transition_type 0x1d6-0x1d6.7 (1)
0x1d0|                     01                        |       .        |      [31]: 1 transition_type 0x1d7-0x1d7.7 (1)
0x1d0|                        02                     |        .       |      [32]: 2 transition_type 0x1d8-0x1d8.7 (1)
0x1d0|                           01                  |         .      |      [33]: 1 transition_type 0x1d9-0x1d9.7 (1)
0x1d0|                              02               |          .     |      [34]: 2 transition_type 0x1da-0x1da.7 (1)
0x1d0|                                 01            |           .    |      [35]: 1 transition_type 0x1db-0x1db.7 (1)
0x1d0|                                    02         |            .   |      [36]: 2 transition_type 0x1dc-0x1dc.7 (1)
0x1d0|                                       01      |             .  |      [37]: 1 transition_type 0x1dd-0x1dd.7 (1)
0x1d0|                                          02   |              . |      [38]: 2 transition_type 0x1de-0x1de.7 (1)
0x1d0|                                             01|               .|      [39]: 1 transition_type 0x1df-0x1df.7 (1)
0x1e0|02                                             |.               |      [40]: 2 transition_type 0x1e0-0x1e0.7 (1)
0x1e0|   01                                          | .              |      [41]: 1 transition_type 0x1e1-0x1e1.7 (1)
0x1e0|      02                                       |  .             |      [42]: 2 transition_type 0x1e2-0x1e2.7 (1)
0x1e0|         01                                    |   .            |      [43]: 1 transition_type 0x1e3-0x1e3.7 (1)
0x1e0|            02                                 |    .           |      [44]: 2 transition_type 0x1e4-0x1e4.7 (1)
0x1e0|               01                              |     .          |      [45]: 1 transition_type 0x1e5-0x1e5.7 (1)
0x1e0|                  02                           |      .         |      [46]: 2 transition_type 0x1e6-0x1e6.7 (1)
0x1e0|                     01                        |       .        |      [47]: 1 transition_type 0x1e7-0x1e7.7 (1)
0x1e0|                        03                     |        .       |      [48]: 3 transition_type 0x1e8-0x1e8.7 (1)
0x1e0|                           04                  |         .      |      [49]: 4 transition_type 0x1e9-0x1e9.7 (1)
0x1e0|                              03               |          .     |      [50]: 3 transition_type 0x1ea-0x1ea.7 (1)
0x1e0|                                 04            |           .    |      [51]: 4 transition_type 0x1eb-0x1eb.7 (1)
0x1e0|                                    03         |            .   |      [52]: 3 transition_type 0x1ec-0x1ec.7 (1)
0x1e0|                                       04      |             .  |      [53]: 4 transition_type 0x1ed-0x1ed.7 (1)
0x1e0|                                          03   |              . |      [54]: 3 transition_type 0x1ee-0x1ee.7 (1)
0x1e0|                                             04|               .|      [55]: 4 transition_type 0x1ef-0x1ef.7 (1)
0x1f0|03                                             |.               |      [56]: 3 transition_type 0x1f0-0x1f0.7 (1)
0x1f0|   04                                          | .              |      [57]: 4 transition_type 0x1f1-0x1f1.7 (1)
0x1f0|      03                                       |  .             |      [58]: 3 transition_type 0x1f2-0x1f2.7 (1)
0x1f0|         04                                    |   .            |      [59]: 4 transition_type 0x1f3-0x1f3.7 (1)
0x1f0|            03                                 |    .           |      [60]: 3 transition_type 0x1f4-0x1f4.7 (1)
0x1f0|               04                              |     .          |      [61]: 4 transition_type 0x1f5-0x1f5.7 (1)
0x1f0|                  03                           |      .         |      [62]: 3 transition_type 0x1f6-0x1f6.7 (1)
0x1f0|                     04                        |       .        |      [63]: 4 transition_type 0x1f7-0x1f7.7 (1)
0x1f0|                        03                     |        .       |      [64]: 3 transition_type 0x1f8-0x1f8.7 (1)
0x1f0|                           04                  |         .      |      [65]: 4 transition_type 0x1f9-0x1f9.7 (1)
0x1f0|                              03               |          .     |      [66]: 3 transition_type 0x1fa-0x1fa.7 (1)
0x1f0|                                 04            |           .    |      [67]: 4 transition_type 0x1fb-0x1fb.7 (1)
0x1f0|                                    03         |            .   |      [68]: 3 transition_type 0x1fc-0x1fc.7 (1)
0x1f0|                                       04      |             .  |      [69]: 4 transition_type 0x1fd-0x1fd.7 (1)
0x1f0|                                          03   |              . |      [70]: 3 transition_type 0x1fe-0x1fe.7 (1)
0x1f0|                                             04|               .|      [71]: 4 transition_type 0x1ff-0x1ff.7 (1)
0x200|03                                             |.               |      [72]: 3 transition_type 0x200-0x200.7 (1)
0x200|   04                                          | .              |      [73]: 4 transition_type 0x201-0x201.7 (1)
0x200|      03                                       |  .             |      [74]: 3 transition_type 0x202-0x202.7 (1)
0x200|         04                                    |   .            |      [75]: 4 transition_type 0x203-0x203.7 (1)
0x200|            03                                 |    .           |      [76]: 3 transition_type 0x204-0x204.7 (1)
0x200|               04                              |     .          |      [77]: 4 transition_type 0x205-0x205.7 (1)
0x200|                  03                           |      .         |      [78]: 3 transition_type 0x206-0x206.7 (1)
0x200|                     04                        |       .        |      [79]: 4 transition_type 0x207-0x207.7 (1)
0x200|                        03                     |        .       |      [80]: 3 transition_type 0x208-0x208.7 (1)
0x200|                           04                  |         .      |      [81]: 4 transition_type 0x209-0x209.7 (1)
0x200|                              03               |          .     |      [82]: 3 transition_type 0x20a-0x20a.7 (1)
0x200|                                 04            |           .    |      [83]: 4 transition_type 0x20b-0x20b.7 (1)
0x200|                                    03         |            .   |      [84]: 3 transition_type 0x20c-0x20c.7 (1)
0x200|                                       04      |             .  |      [85]: 4 transition_type 0x20d-0x20d.7 (1)
0x200|                                          03   |              . |      [86]: 3 transition_type 0x20e-0x20e.7 (1)
0x200|                                             04|               .|      [87]: 4 transition_type 0x20f-0x20f.7 (1)
0x210|03                                             |.               |      [88]: 3 transition_type 0x210-0x210.7 (1)
0x210|   04                                          | .              |      [89]: 4 transition_type 0x211-0x211.7 (1)
0x210|      03                                       |  .             |      [90]: 3 transition_type 0x212-0x212.7 (1)
0x210|         04                                    |   .            |      [91]: 4 transition_type 0x213-0x213.7 (1)
0x210|            03                                 |    .           |      [92]: 3 transition_type 0x214-0x214.7 (1)
0x210|               04                              |     .          |      [93]: 4 transition_type 0x215-0x215.7 (1)
0x210|                  03                           |      .         |      [94]: 3 transition_type 0x216-0x216.7 (1)
0x210|                     04                        |       .        |      [95]: 4 transition_type 0x217-0x217.7 (1)
0x210|                        03                     |        .       |      [96]: 3 transition_type 0x218-0x218.7 (1)
0x210|                           04                  |         .      |      [97]: 4 transition_type 0x219-0x219.7 (1)
0x210|                              04               |          .     |      [98]: 4 transition_type 0x21a-0x21a.7 (1)
     |                                               |                |    local_time_type_records[0:5]: 0x21b-0x238.7 (30)
     |                                               |                |      [0]{}: local_time_type 0x21b-0x220.7 (6)
0x210|                                 00 00 1f 48   |           ...H |        utoff: 8008 (valid) 0x21b-0x21e.7 (4)
0x210|                                             00|               .|        dst: 0 (valid) 0x21f-0x21f.7 (1)
0x220|00                                             |.               |        idx: 0 (valid) 0x220-0x220.7 (1)
     |                                               |                |      [1]{}: local_time_type 0x221-0x226.7 (6)
0x220|   00 00 2a 30                                 | ..*0           |        utoff: 10800 (valid) 0x221-0x224.7 (4)
0x220|               01                              |     .          |        dst: 1 (valid) 0x225-0x225.7 (1)
0x220|                  04                           |      .         |        idx: 4 (valid) 0x226-0x226.7 (1)
     |                                               |                |      [2]{}: local_time_type 0x227-0x22c.7 (6)
0x220|                     00 00 1c 20               |       ...      |        utoff: 7200 (valid) 0x227-0x22a.7 (4)
0x220|                                 00            |           .    |        dst: 0 (valid) 0x22b-0x22b.7 (1)
0x220|                                    09         |            .   |        idx: 9 (valid) 0x22c-0x22c.7 (1)
     |                                               |                |      [3]{}: local_time_type 0x22d-0x232.7 (6)
0x220|                                       00 00 1c|             ...|        utoff: 7200 (valid) 0x22d-0x230.7 (4)
0x230|20                                             |                |
0x230|   00                                          | .              |        dst: 0 (valid) 0x231-0x231.7 (1)
0x230|      09                                       |  .             |        idx: 9 (valid) 0x232-0x232.7 (1)
     |                                               |                |      [4]{}: local_time_type 0x233-0x238.7 (6)
0x230|         00 00 2a 30                           |   ..*0         |        utoff: 10800 (valid) 0x233-0x236.7 (4)
0x230|                     01                        |       .        |        dst: 1 (valid) 0x237-0x237.7 (1)
0x230|                        04                     |        .       |        idx: 4 (valid) 0x238-0x238.7 (1)
     |                                               |                |    time_zone_designations[0:3]: 0x239-0x245.7 (13)
0x230|                           4c 4d 54 00         |         LMT.   |      [0]: "LMT" time_zone_designation 0x239-0x23c.7 (4)
0x230|                                       45 45 53|             EES|      [1]: "EEST" time_zone_designation 0x23d-0x241.7 (5)
0x240|54 00                                          |T.              |
0x240|      45 45 54 00                              |  EET.          |      [2]: "EET" time_zone_designation 0x242-0x245.7 (4)
     |                                               |                |    leap_second_records[0:27]: 0x246-0x31d.7 (216)
     |                                               |                |      [0]{}: leap_second_record 0x246-0x24d.7 (8)
0x240|                  04 b2 58 00                  |      ..X.      |        occur: "1972-07-01T00:00:00Z" (78796800) 0x246-0x249.7 (4)
0x240|                              00 00 00 01      |          ....  |        corr: 1 0x24a-0x24d.7 (4)
     |                                               |                |      [1]{}: leap_second_record 0x24e-0x255.7 (8)
0x240|                                          05 a4|              ..|        occur: "1973-01-01T00:00:01Z" (94694401) 0x24e-0x251.7 (4)
0x250|ec 01                                          |..              |
0x250|      00 00 00 02                              |  ....          |        corr: 2 0x252-0x255.7 (4)
     |                                               |                |      [2]{}: leap_second_record 0x256-0x25d.7 (8)
0x250|                  07 86 1f 82                  |      ....      |        occur: "1974-01-01T00:00:02Z" (126230402) 0x256-0x259.7 (4)
0x250|                              00 00 00 03      |          ....  |        corr: 3 0x25a-0x25d.7 (4)
     |                                               |                |      [3]{}: leap_second_record 0x25e-0x265.7 (8)
0x250|                                          09 67|              .g|        occur: "1975-01-01T00:00:03Z" (157766403) 0x25e-0x261.7 (4)
0x260|53 03                                          |S.              |
0x260|      00 00 00 04                              |  ....          |        corr: 4 0x262-0x265.7 (4)
     |                                               |                |      [4]{}: leap_second_record 0x266-0x26d.7 (8)
0x260|                  0b 48 86 84                  |      .H..      |        occur: "1976-01-01T00:00:04Z" (189302404) 0x266-0x269.7 (4)
0x260|                              00 00 00 05      |          ....  |        corr: 5 0x26a-0x26d.7 (4)
     |                                               |                |      [5]{}: leap_second_record 0x26e-0x275.7 (8)
0x260|                                          0d 2b|              .+|        occur: "1977-01-01T00:00:05Z" (220924805) 0x26e-0x271.7 (4)
0x270|0b 85                                          |..              |
0x270|      00 00 00 06                              |  ....          |        corr: 6 0x272-0x275.7 (4)
     |                                               |                |      [6]{}: leap_second_record 0x276-0x27d.7 (8)
0x270|                  0f 0c 3f 06                  |      ..?.      |        occur: "1978-01-01T00:00:06Z" (252460806) 0x276-0x279.7 (4)
0x270|                              00 00 00 07      |          ....  |        corr: 7 0x27a-0x27d.7 (4)
     |                                               |                |      [7]{}: leap_second_record 0x27e-0x285.7 (8)
0x270|                                          10 ed|              ..|        occur: "1979-01-01T00:00:07Z" (283996807) 0x27e-0x281.7 (4)
0x280|72 87                                          |r.              |
0x280|      00 00 00 08                              |  ....          |        corr: 8 0x282-0x285.7 (4)
     |                                               |                |      [8]{}: leap_second_record 0x286-0x28d.7 (8)
0x280|                  12 ce a6 08                  |      ....      |        occur: "1980-01-01T00:00:08Z" (315532808) 0x286-0x289.7 (4)
0x280|                              00 00 00 09      |          ....  |        corr: 9 0x28a-0x28d.7 (4)
     |                                               |                |      [9]{}: leap_second_record 0x28e-0x295.7 (8)
0x280|                                          15 9f|              ..|        occur: "1981-07-01T00:00:09Z" (362793609) 0x28e-0x291.7 (4)
0x290|ca 89                                          |..              |
0x290|      00 00 00 0a                              |  ....          |        corr: 10 0x292-0x295.7 (4)
     |                                               |                |      [10]{}: leap_second_record 0x296-0x29d.7 (8)
0x290|                  17 80 fe 0a                  |      ....      |        occur: "1982-07-01T00:00:10Z" (394329610) 0x296-0x299.7 (4)
0x290|                              00 00 00 0b      |          ....  |        corr: 11 0x29a-0x29d.7 (4)
     |                                               |                |      [11]{}: leap_second_record 0x29e-0x2a5.7 (8)
0x290|                                          19 62|              .b|        occur: "1983-07-01T00:00:11Z" (425865611) 0x29e-0x2a1.7 (4)
0x2a0|31 8b                                          |1.              |
0x2a0|      00 00 00 0c                              |  ....          |        corr: 12 0x2a2-0x2a5.7 (4)
     |                                               |                |      [12]{}: leap_second_record 0x2a6-0x2ad.7 (8)
0x2a0|                  1d 25 ea 0c                  |      .%..      |        occur: "1985-07-01T00:00:12Z" (489024012) 0x2a6-0x2a9.7 (4)
0x2a0|                              00 00 00 0d      |          ....  |        corr: 13 0x2aa-0x2ad.7 (4)
     |                                               |                |      [13]{}: leap_second_record 0x2ae-0x2b5.7 (8)
0x2a0|                                          21 da|              !.|        occur: "1988-01-01T00:00:13Z" (567993613) 0x2ae-0x2b1.7 (4)
0x2b0|e5 0d                                          |..              |
0x2b0|      00 00 00 0e                              |  ....          |        corr: 14 0x2b2-0x2b5.7 (4)
     |                                               |                |      [14]{}: leap_second_record 0x2b6-0x2bd.7 (8)
0x2b0|                  25 9e 9d 8e                  |      %...      |        occur: "1990-01-01T00:00:14Z" (631152014) 0x2b6-0x2b9.7 (4)
0x2b0|                              00 00 00 0f      |          ....  |        corr: 15 0x2ba-0x2bd.7 (4)
     |                                               |                |      [15]{}: leap_second_record 0x2be-0x2c5.7 (8)
0x2b0|                                          27 7f|              '.|        occur: "1991-01-01T00:00:15Z" (662688015) 0x2be-0x2c1.7 (4)
0x2c0|d1 0f                                          |..              |
0x2c0|      00 00 00 10                              |  ....          |        corr: 16 0x2c2-0x2c5.7 (4)
     |                                               |                |      [16]{}: leap_second_record 0x2c6-0x2cd.7 (8)
0x2c0|                  2a 50 f5 90                  |      *P..      |        occur: "1992-07-01T00:00:16Z" (709948816) 0x2c6-0x2c9.7 (4)
0x2c0|                              00 00 00 11      |          ....  |        corr: 17 0x2ca-0x2cd.7 (4)
     |                                               |                |      [17]{}: leap_second_record 0x2ce-0x2d5.7 (8)
0x2c0|                                          2c 32|              ,2|        occur: "1993-07-01T00:00:17Z" (741484817) 0x2ce-0x2d1.7 (4)
0x2d0|29 11                                          |).              |
0x2d0|      00 00 00 12                              |  ....          |        corr: 18 0x2d2-0x2d5.7 (4)
     |                                               |                |      [18]{}: leap_second_record 0x2d6-0x2dd.7 (8)
0x2d0|                  2e 13 5c 92                  |      ..\.      |        occur: "1994-07-01T00:00:18Z" (773020818) 0x2d6-0x2d9.7 (4)
0x2d0|                              00 00 00 13      |          ....  |        corr: 19 0x2da-0x2dd.7 (4)
     |                                               |                |      [19]{}: leap_second_record 0x2de-0x2e5.7 (8)
0x2d0|                                          30 e7|              0.|        occur: "1996-01-01T00:00:19Z" (820454419) 0x2de-0x2e1.7 (4)
0x2e0|24 13                                          |$.              |
0x2e0|      00 00 00 14                              |  ....          |        corr: 20 0x2e2-0x2e5.7 (4)
     |                                               |                |      [20]{}: leap_second_record 0x2e6-0x2ed.7 (8)
0x2e0|                  33 b8 48 94                  |      3.H.      |        occur: "1997-07-01T00:00:20Z" (867715220) 0x2e6-0x2e9.7 (4)
0x2e0|                              00 00 00 15      |          ....  |        corr: 21 0x2ea-0x2ed.7 (4)
     |                                               |                |      [21]{}: leap_second_record 0x2ee-0x2f5.7 (8)
0x2e0|                                          36 8c|              6.|        occur: "1999-01-01T00:00:21Z" (915148821) 0x2ee-0x2f1.7 (4)
0x2f0|10 15                                          |..              |
0x2f0|      00 00 00 16                              |  ....          |        corr: 22 0x2f2-0x2f5.7 (4)
     |                                               |                |      [22]{}: leap_second_record 0x2f6-0x2fd.7 (8)
0x2f0|                  43 b7 1b 96                  |      C...      |        occur: "2006-01-01T00:00:22Z" (1136073622) 0x2f6-0x2f9.7 (4)
0x2f0|                              00 00 00 17      |          ....  |        corr: 23 0x2fa-0x2fd.7 (4)
     |                                               |                |      [23]{}: leap_second_record 0x2fe-0x305.7 (8)
0x2f0|                                          49 5c|              I\|        occur: "2009-01-01T00:00:23Z" (1230768023) 0x2fe-0x301.7 (4)
0x300|07 97                                          |..              |
0x300|      00 00 00 18                              |  ....          |        corr: 24 0x302-0x305.7 (4)
     |                                               |                |      [24]{}: leap_second_record 0x306-0x30d.7 (8)
0x300|                  4f ef 93 18                  |      O...      |        occur: "2012-07-01T00:00:24Z" (1341100824) 0x306-0x309.7 (4)
0x300|                              00 00 00 19      |          ....  |        corr: 25 0x30a-0x30d.7 (4)
     |                                               |                |      [25]{}: leap_second_record 0x30e-0x315.7 (8)
0x300|                                          55 93|              U.|        occur: "2015-07-01T00:00:25Z" (1435708825) 0x30e-0x311.7 (4)
0x310|2d 99                                          |-.              |
0x310|      00 00 00 1a                              |  ....          |        corr: 26 0x312-0x315.7 (4)
     |                                               |                |      [26]{}: leap_second_record 0x316-0x31d.7 (8)
0x310|                  58 68 46 9a                  |      XhF.      |        occur: "2017-01-01T00:00:26Z" (1483228826) 0x316-0x319.7 (4)
0x310|                              00 00 00 1b      |          ....  |        corr: 27 0x31a-0x31d.7 (4)
     |                                               |                |    standard_wall_indicators[0:5]: 0x31e-0x322.7 (5)
0x310|                                          00   |              . |      [0]: 0 standard_wall_indicator (valid) 0x31e-0x31e.7 (1)
0x310|                                             00|               .|      [1]: 0 standard_wall_indicator (valid) 0x31f-0x31f.7 (1)
0x320|00                                             |.               |      [2]: 0 standard_wall_indicator (valid) 0x320-0x320.7 (1)
0x320|   01                                          | .              |      [3]: 1 standard_wall_indicator (valid) 0x321-0x321.7 (1)
0x320|      01                                       |  .             |      [4]: 1 standard_wall_indicator (valid) 0x322-0x322.7 (1)
     |                                               |                |    ut_local_indicators[0:5]: 0x323-0x327.7 (5)
0x320|         00                                    |   .            |      [0]: 0 ut_local_indicator (valid) 0x323-0x323.7 (1)
0x320|            00                                 |    .           |      [1]: 0 ut_local_indicator (valid) 0x324-0x324.7 (1)
0x320|               00                              |     .          |      [2]: 0 ut_local_indicator (valid) 0x325-0x325.7 (1)
0x320|                  01                           |      .         |      [3]: 1 ut_local_indicator (valid) 0x326-0x326.7 (1)
0x320|                     01                        |       .        |      [4]: 1 ut_local_indicator (valid) 0x327-0x327.7 (1)
     |                                               |                |  v2plusheader{}: 0x328-0x353.7 (44)
0x320|                        54 5a 69 66            |        TZif    |    magic: 0x545a6966 (valid) 0x328-0x32b.7 (4)
0x320|                                    32         |            2   |    ver: "2" (0x32) (valid) 0x32c-0x32c.7 (1)
0x320|                                       00 00 00|             ...|    reserved: raw bits 0x32d-0x33b.7 (15)
0x330|00 00 00 00 00 00 00 00 00 00 00 00            |............    |
0x330|                                    00 00 00 05|            ....|    isutcnt: 5 0x33c-0x33f.7 (4)
0x340|00 00 00 05                                    |....            |    isstdcnt: 5 0x340-0x343.7 (4)
0x340|            00 00 00 1b                        |    ....        |    leapcnt: 27 0x344-0x347.7 (4)
0x340|                        00 00 00 63            |        ...c    |    timecnt: 99 0x348-0x34b.7 (4)
0x340|                                    00 00 00 05|            ....|    typecnt: 5 0x34c-0x34f.7 (4)
0x350|00 00 00 0d                                    |....            |    charcnt: 13 0x350-0x353.7 (4)
     |                                               |                |  v2plusdatablock{}: 0x354-0x847.7 (1268)
     |                                               |                |    transition_times[0:99]: 0x354-0x66b.7 (792)
0x350|            ff ff ff ff a5 77 1e b8            |    .....w..    |      [0]: "1921-11-13T21:46:32Z" (-1518920008) transition_time 0x354-0x35b.7 (8)
0x350|                                    00 00 00 00|            ....|      [1]: "1975-04-12T22:00:04Z" (166572004) transition_time 0x35c-0x363.7 (8)
0x360|09 ed af e4                                    |....            |
0x360|            00 00 00 00 0a dd 92 d4            |    ........    |      [2]: "1975-10-11T21:00:04Z" (182293204) transition_time 0x364-0x36b.7 (8)
0x360|                                    00 00 00 00|            ....|      [3]: "1976-05-14T22:00:05Z" (200959205) transition_time 0x36c-0x373.7 (8)
0x370|0b fa 64 e5                                    |..d.            |
0x370|            00 00 00 00 0c be c6 55            |    .......U    |      [4]: "1976-10-10T21:00:05Z" (213829205) transition_time 0x374-0x37b.7 (8)
0x370|                                    00 00 00 00|            ....|      [5]: "1977-04-02T22:00:06Z" (228866406) transition_time 0x37c-0x383.7 (8)
0x380|0d a4 39 66                                    |..9f            |
0x380|            00 00 00 00 0e 8a e1 d6            |    ........    |      [6]: "1977-09-24T21:00:06Z" (243982806) transition_time 0x384-0x38b.7 (8)
0x380|                                    00 00 00 00|            ....|      [7]: "1978-04-01T22:00:07Z" (260316007) transition_time 0x38c-0x393.7 (8)
0x390|0f 84 1b 67                                    |...g            |
0x390|            00 00 00 00 10 75 4f d7            |    .....uO.    |      [8]: "1978-10-01T21:00:07Z" (276123607) transition_time 0x394-0x39b.7 (8)
0x390|                                    00 00 00 00|            ....|      [9]: "1979-03-31T22:00:08Z" (291765608) transition_time 0x39c-0x3a3.7 (8)
0x3a0|11 63 fd 68                                    |.c.h            |
0x3a0|            00 00 00 00 12 53 e0 58            |    .....S.X    |      [10]: "1979-09-29T21:00:08Z" (307486808) transition_time 0x3a4-0x3ab.7 (8)
0x3a0|                                    00 00 00 00|            ....|      [11]: "1980-04-05T22:00:09Z" (323820009) transition_time 0x3ac-0x3b3.7 (8)
0x3b0|13 4d 19 e9                                    |.M..            |
0x3b0|            00 00 00 00 14 33 c2 59            |    .....3.Y    |      [12]: "1980-09-27T21:00:09Z" (338936409) transition_time 0x3b4-0x3bb.7 (8)
0x3b0|                                    00 00 00 00|            ....|      [13]: "1981-03-28T22:00:09Z" (354664809) transition_time 0x3bc-0x3c3.7 (8)
0x3c0|15 23 c1 69                                    |.#.i            |
0x3c0|            00 00 00 00 16 13 a4 5a            |    .......Z    |      [14]: "1981-09-26T21:00:10Z" (370386010) transition_time 0x3c4-0x3cb.7 (8)
0x3c0|                                    00 00 00 00|            ....|      [15]: "1982-03-27T22:00:10Z" (386114410) transition_time 0x3cc-0x3d3.7 (8)
0x3d0|17 03 a3 6a                                    |...j            |
0x3d0|            00 00 00 00 17 f3 86 5b            |    .......[    |      [16]: "1982-09-25T21:00:11Z" (401835611) transition_time 0x3d4-0x3db.7 (8)
0x3d0|                                    00 00 00 00|            ....|      [17]: "1983-03-26T22:00:11Z" (417564011) transition_time 0x3dc-0x3e3.7 (8)
0x3e0|18 e3 85 6b                                    |...k            |
0x3e0|            00 00 00 00 19 d3 68 5c            |    ......h\    |      [18]: "1983-09-24T21:00:12Z" (433285212) transition_time 0x3e4-0x3eb.7 (8)
0x3e0|                                    00 00 00 00|            ....|      [19]: "1984-03-24T22:00:12Z" (449013612) transition_time 0x3ec-0x3f3.7 (8)
0x3f0|1a c3 67 6c                                    |..gl            |
0x3f0|            00 00 00 00 1b bc 84 dc            |    ........    |      [20]: "1984-09-29T21:00:12Z" (465339612) transition_time 0x3f4-0x3fb.7 (8)
0x3f0|                                    00 00 00 00|            ....|      [21]: "1985-03-30T22:00:12Z" (481068012) transition_time 0x3fc-0x403.7 (8)
0x400|1c ac 83 ec                                    |....            |
0x400|            00 00 00 00 1d 9c 66 dd            |    ......f.    |      [22]: "1985-09-28T21:00:13Z" (496789213) transition_time 0x404-0x40b.7 (8)
0x400|                                    00 00 00 00|            ....|      [23]: "1986-03-29T22:00:13Z" (512517613) transition_time 0x40c-0x413.7 (8)
0x410|1e 8c 65 ed                                    |..e.            |
0x410|            00 00 00 00 1f 7c 48 dd            |    .....|H.    |      [24]: "1986-09-27T21:00:13Z" (528238813) transition_time 0x414-0x41b.7 (8)
0x410|                                    00 00 00 00|            ....|      [25]: "1987-03-28T22:00:13Z" (543967213) transition_time 0x41c-0x423.7 (8)
0x420|20 6c 47 ed                                    | lG.            |
0x420|            00 00 00 00 21 5c 2a dd            |    ....!\*.    |      [26]: "1987-09-26T21:00:13Z" (559688413) transition_time 0x424-0x42b.7 (8)
0x420|                                    00 00 00 00|            ....|      [27]: "1988-03-26T22:00:14Z" (575416814) transition_time 0x42c-0x433.7 (8)
0x430|22 4c 29 ee                                    |"L).            |
0x430|            00 00 00 00 23 3c 0c de            |    ....#<..    |      [28]: "1988-09-24T21:00:14Z" (591138014) transition_time 0x434-0x43b.7 (8)
0x430|                                    00 00 00 00|            ....|      [29]: "1989-03-25T22:00:14Z" (606866414) transition_time 0x43c-0x443.7 (8)
0x440|24 2c 0b ee                                    |$,..            |
0x440|            00 00 00 00 25 1b ee de            |    ....%...    |      [30]: "1989-09-23T21:00:14Z" (622587614) transition_time 0x444-0x44b.7 (8)
0x440|                                    00 00 00 00|            ....|      [31]: "1990-03-24T22:00:15Z" (638316015) transition_time 0x44c-0x453.7 (8)
0x450|26 0b ed ef                                    |&...            |
0x450|            00 00 00 00 27 05 0b 5f            |    ....'.._    |      [32]: "1990-09-29T21:00:15Z" (654642015) transition_time 0x454-0x45b.7 (8)
0x450|                                    00 00 00 00|            ....|      [33]: "1991-03-30T22:00:16Z" (670370416) transition_time 0x45c-0x463.7 (8)
0x460|27 f5 0a 70                                    |'..p            |
0x460|            00 00 00 00 28 e4 ed 60            |    ....(..`    |      [34]: "1991-09-28T21:00:16Z" (686091616) transition_time 0x464-0x46b.7 (8)
0x460|                                    00 00 00 00|            ....|      [35]: "1992-03-28T22:00:16Z" (701820016) transition_time 0x46c-0x473.7 (8)
0x470|29 d4 ec 70                                    |)..p            |
0x470|            00 00 00 00 2a c4 cf 61            |    ....*..a    |      [36]: "1992-09-26T21:00:17Z" (717541217) transition_time 0x474-0x47b.7 (8)
0x470|                                    00 00 00 00|            ....|      [37]: "1993-03-27T22:00:17Z" (733269617) transition_time 0x47c-0x483.7 (8)
0x480|2b b4 ce 71                                    |+..q            |
0x480|            00 00 00 00 2c a4 b1 62            |    ....,..b    |      [38]: "1993-09-25T21:00:18Z" (748990818) transition_time 0x484-0x48b.7 (8)
0x480|                                    00 00 00 00|            ....|      [39]: "1994-03-26T22:00:18Z" (764719218) transition_time 0x48c-0x493.7 (8)
0x490|2d 94 b0 72                                    |-..r            |
0x490|            00 00 00 00 2e 84 93 63            |    .......c    |      [40]: "1994-09-24T21:00:19Z" (780440419) transition_time 0x494-0x49b.7 (8)
0x490|                                    00 00 00 00|            ....|      [41]: "1995-03-25T22:00:19Z" (796168819) transition_time 0x49c-0x4a3.7 (8)
0x4a0|2f 74 92 73                                    |/t.s            |
0x4a0|            00 00 00 00 30 64 75 63            |    ....0duc    |      [42]: "1995-09-23T21:00:19Z" (811890019) transition_time 0x4a4-0x4ab.7 (8)
0x4a0|                                    00 00 00 00|            ....|      [43]: "1996-03-30T22:00:20Z" (828223220) transition_time 0x4ac-0x4b3.7 (8)
0x4b0|31 5d ae f4                                    |1]..            |
0x4b0|            00 00 00 00 32 4d 91 e4            |    ....2M..    |      [44]: "1996-09-28T21:00:20Z" (843944420) transition_time 0x4b4-0x4bb.7 (8)
0x4b0|                                    00 00 00 00|            ....|      [45]: "1997-03-29T22:00:20Z" (859672820) transition_time 0x4bc-0x4c3.7 (8)
0x4c0|33 3d 90 f4                                    |3=..            |
0x4c0|            00 00 00 00 34 2d 73 e5            |    ....4-s.    |      [46]: "1997-09-27T21:00:21Z" (875394021) transition_time 0x4c4-0x4cb.7 (8)
0x4c0|                                    00 00 00 00|            ....|      [47]: "1998-03-28T22:00:21Z" (891122421) transition_time 0x4cc-0x4d3.7 (8)
0x4d0|35 1d 72 f5                                    |5.r.            |
0x4d0|            00 00 00 00 36 32 78 25            |    ....62x%    |      [48]: "1998-10-25T01:00:21Z" (909277221) transition_time 0x4d4-0x4db.7 (8)
0x4d0|                                    00 00 00 00|            ....|      [49]: "1999-03-28T01:00:22Z" (922582822) transition_time 0x4dc-0x4e3.7 (8)
0x4e0|36 fd 7f 26                                    |6..&            |
0x4e0|            00 00 00 00 38 1b 94 a6            |    ....8...    |      [50]: "1999-10-31T01:00:22Z" (941331622) transition_time 0x4e4-0x4eb.7 (8)
0x4e0|                                    00 00 00 00|            ....|      [51]: "2000-03-26T01:00:22Z" (954032422) transition_time 0x4ec-0x4f3.7 (8)
0x4f0|38 dd 61 26                                    |8.a&            |
0x4f0|            00 00 00 00 39 fb 76 a6            |    ....9.v.    |      [52]: "2000-10-29T01:00:22Z" (972781222) transition_time 0x4f4-0x4fb.7 (8)
0x4f0|                                    00 00 00 00|            ....|      [53]: "2001-03-25T01:00:22Z" (985482022) transition_time 0x4fc-0x503.7 (8)
0x500|3a bd 43 26                                    |:.C&            |
0x500|            00 00 00 00 3b db 58 a6            |    ....;.X.    |      [54]: "2001-10-28T01:00:22Z" (1004230822) transition_time 0x504-0x50b.7 (8)
0x500|                                    00 00 00 00|            ....|      [55]: "2002-03-31T01:00:22Z" (1017536422) transition_time 0x50c-0x513.7 (8)
0x510|3c a6 5f a6                                    |<._.            |
0x510|            00 00 00 00 3d bb 3a a6            |    ....=.:.    |      [56]: "2002-10-27T01:00:22Z" (1035680422) transition_time 0x514-0x51b.7 (8)
0x510|                                    00 00 00 00|            ....|      [57]: "2003-03-30T01:00:22Z" (1048986022) transition_time 0x51c-0x523.7 (8)
0x520|3e 86 41 a6                                    |>.A.            |
0x520|            00 00 00 00 3f 9b 1c a6            |    ....?...    |      [58]: "2003-10-26T01:00:22Z" (1067130022) transition_time 0x524-0x52b.7 (8)
0x520|                                    00 00 00 00|            ....|      [59]: "2004-03-28T01:00:22Z" (1080435622) transition_time 0x52c-0x533.7 (8)
0x530|40 66 23 a6                                    |@f#.            |
0x530|            00 00 00 00 41 84 39 26            |    ....A.9&    |      [60]: "2004-10-31T01:00:22Z" (1099184422) transition_time 0x534-0x53b.7 (8)
0x530|                                    00 00 00 00|            ....|      [61]: "2005-03-27T01:00:22Z" (1111885222) transition_time 0x53c-0x543.7 (8)
0x540|42 46 05 a6                                    |BF..            |
0x540|            00 00 00 00 43 64 1b 26            |    ....Cd.&    |      [62]: "2005-10-30T01:00:22Z" (1130634022) transition_time 0x544-0x54b.7 (8)
0x540|                                    00 00 00 00|            ....|      [63]: "2006-03-26T01:00:23Z" (1143334823) transition_time 0x54c-0x553.7 (8)
0x550|44 25 e7 a7                                    |D%..            |
0x550|            00 00 00 00 45 43 fd 27            |    ....EC.'    |      [64]: "2006-10-29T01:00:23Z" (1162083623) transition_time 0x554-0x55b.7 (8)
0x550|                                    00 00 00 00|            ....|      [65]: "2007-03-25T01:00:23Z" (1174784423) transition_time 0x55c-0x563.7 (8)
0x560|46 05 c9 a7                                    |F...            |
0x560|            00 00 00 00 47 23 df 27            |    ....G#.'    |      [66]: "2007-10-28T01:00:23Z" (1193533223) transition_time 0x564-0x56b.7 (8)
0x560|                                    00 00 00 00|            ....|      [67]: "2008-03-30T01:00:23Z" (1206838823) transition_time 0x56c-0x573.7 (8)
0x570|47 ee e6 27                                    |G..'            |
0x570|            00 00 00 00 49 03 c1 27            |    ....I..'    |      [68]: "2008-10-26T01:00:23Z" (1224982823) transition_time 0x574-0x57b.7 (8)
0x570|                                    00 00 00 00|            ....|      [69]: "2009-03-29T01:00:24Z" (1238288424) transition_time 0x57c-0x583.7 (8)
0x580|49 ce c8 28                                    |I..(            |
0x580|            00 00 00 00 4a e3 a3 28            |    ....J..(    |      [70]: "2009-10-25T01:00:24Z" (1256432424) transition_time 0x584-0x58b.7 (8)
0x580|                                    00 00 00 00|            ....|      [71]: "2010-03-28T01:00:24Z" (1269738024) transition_time 0x58c-0x593.7 (8)
0x590|4b ae aa 28                                    |K..(            |
0x590|            00 00 00 00 4c cc bf a8            |    ....L...    |      [72]: "2010-10-31T01:00:24Z" (1288486824) transition_time 0x594-0x59b.7 (8)
0x590|                                    00 00 00 00|            ....|      [73]: "2011-03-27T01:00:24Z" (1301187624) transition_time 0x59c-0x5a3.7 (8)
0x5a0|4d 8e 8c 28                                    |M..(            |
0x5a0|            00 00 00 00 4e ac a1 a8            |    ....N...    |      [74]: "2011-10-30T01:00:24Z" (1319936424) transition_time 0x5a4-0x5ab.7 (8)
0x5a0|                                    00 00 00 00|            ....|      [75]: "2012-03-25T01:00:24Z" (1332637224) transition_time 0x5ac-0x5b3.7 (8)
0x5b0|4f 6e 6e 28                                    |Onn(            |
0x5b0|            00 00 00 00 50 8c 83 a9            |    ....P...    |      [76]: "2012-10-28T01:00:25Z" (1351386025) transition_time 0x5b4-0x5bb.7 (8)
0x5b0|                                    00 00 00 00|            ....|      [77]: "2013-03-31T01:00:25Z" (1364691625) transition_time 0x5bc-0x5c3.7 (8)
0x5c0|51 57 8a a9                                    |QW..            |
0x5c0|            00 00 00 00 52 6c 65 a9            |    ....Rle.    |      [78]: "2013-10-27T01:00:25Z" (1382835625) transition_time 0x5c4-0x5cb.7 (8)
0x5c0|                                    00 00 00 00|            ....|      [79]: "2014-03-30T01:00:25Z" (1396141225) transition_time 0x5cc-0x5d3.7 (8)
0x5d0|53 37 6c a9                                    |S7l.            |
0x5d0|            00 00 00 00 54 4c 47 a9            |    ....TLG.    |      [80]: "2014-10-26T01:00:25Z" (1414285225) transition_time 0x5d4-0x5db.7 (8)
0x5d0|                                    00 00 00 00|            ....|      [81]: "2015-03-29T01:00:25Z" (1427590825) transition_time 0x5dc-0x5e3.7 (8)
0x5e0|55 17 4e a9                                    |U.N.            |
0x5e0|            00 00 00 00 56 2c 29 aa            |    ....V,).    |      [82]: "2015-10-25T01:00:26Z" (1445734826) transition_time 0x5e4-0x5eb.7 (8)
0x5e0|                                    00 00 00 00|            ....|      [83]: "2016-03-27T01:00:26Z" (1459040426) transition_time 0x5ec-0x5f3.7 (8)
0x5f0|56 f7 30 aa                                    |V.0.            |
0x5f0|            00 00 00 00 58 15 46 2a            |    ....X.F*    |      [84]: "2016-10-30T01:00:26Z" (1477789226) transition_time 0x5f4-0x5fb.7 (8)
0x5f0|                                    00 00 00 00|            ....|      [85]: "2017-03-26T01:00:27Z" (1490490027) transition_time 0x5fc-0x603.7 (8)
0x600|58 d7 12 ab                                    |X...            |
0x600|            00 00 00 00 59 f5 28 2b            |    ....Y.(+    |      [86]: "2017-10-29T01:00:27Z" (1509238827) transition_time 0x604-0x60b.7 (8)
0x600|                                    00 00 00 00|            ....|      [87]: "2018-03-25T01:00:27Z" (1521939627) transition_time 0x60c-0x613.7 (8)
0x610|5a b6 f4 ab                                    |Z...            |
0x610|            00 00 00 00 5b d5 0a 2b            |    ....[..+    |      [88]: "2018-10-28T01:00:27Z" (1540688427) transition_time 0x614-0x61b.7 (8)
0x610|                                    00 00 00 00|            ....|      [89]: "2019-03-31T01:00:27Z" (1553994027) transition_time 0x61c-0x623.7 (8)
0x620|5c a0 11 2b                                    |\..+            |
0x620|            00 00 00 00 5d b4 ec 2b            |    ....]..+    |      [90]: "2019-10-27T01:00:27Z" (1572138027) transition_time 0x624-0x62b.7 (8)
0x620|                                    00 00 00 00|            ....|      [91]: "2020-03-29T01:00:27Z" (1585443627) transition_time 0x62c-0x633.7 (8)
0x630|5e 7f f3 2b                                    |^..+            |
0x630|            00 00 00 00 5f 94 ce 2b            |    ...._..+    |      [92]: "2020-10-25T01:00:27Z" (1603587627) transition_time 0x634-0x63b.7 (8)
0x630|                                    00 00 00 00|            ....|      [93]: "2021-03-28T01:00:27Z" (1616893227) transition_time 0x63c-0x643.7 (8)
0x640|60 5f d5 2b                                    |`_.+            |
0x640|            00 00 00 00 61 7d ea ab            |    ....a}..    |      [94]: "2021-10-31T01:00:27Z" (1635642027) transition_time 0x644-0x64b.7 (8)
0x640|                                    00 00 00 00|            ....|      [95]: "2022-03-27T01:00:27Z" (1648342827) transition_time 0x64c-0x653.7 (8)
0x650|62 3f b7 2b                                    |b?.+            |
0x650|            00 00 00 00 63 5d cc ab            |    ....c]..    |      [96]: "2022-10-30T01:00:27Z" (1667091627) transition_time 0x654-0x65b.7 (8)
0x650|                                    00 00 00 00|            ....|      [97]: "2023-03-26T01:00:27Z" (1679792427) transition_time 0x65c-0x663.7 (8)
0x660|64 1f 99 2b                                    |d..+            |
0x660|            00 00 00 00 64 9b 78 1b            |    ....d.x.    |      [98]: "2023-06-28T00:00:27Z" (1687910427) transition_time 0x664-0x66b.7 (8)
     |                                               |                |    transition_types[0:99]: 0x66c-0x6ce.7 (99)
0x660|                                    02         |            .   |      [0]: 2 transition_type 0x66c-0x66c.7 (1)
0x660|                                       01      |             .  |      [1]: 1 transition_type 0x66d-0x66d.7 (1)
0x660|                                          02   |              . |      [2]: 2 transition_type 0x66e-0x66e.7 (1)
0x660|                                             01|               .|      [3]: 1 transition_type 0x66f-0x66f.7 (1)
0x670|02                                             |.               |      [4]: 2 transition_type 0x670-0x670.7 (1)
0x670|   01                                          | .              |      [5]: 1 transition_type 0x671-0x671.7 (1)
0x670|      02                                       |  .             |      [6]: 2 transition_type 0x672-0x672.7 (1)
0x670|         01                                    |   .            |      [7]: 1 transition_type 0x673-0x673.7 (1)
0x670|            02                                 |    .           |      [8]: 2 transition_type 0x674-0x674.7 (1)
0x670|               01                              |     .          |      [9]: 1 transition_type 0x675-0x675.7 (1)
0x670|                  02                           |      .         |      [10]: 2 transition_type 0x676-0x676.7 (1)
0x670|                     01                        |       .        |      [11]: 1 transition_type 0x677-0x677.7 (1)
0x670|                        02                     |        .       |      [12]: 2 transition_type 0x678-0x678.7 (1)
0x670|                           01                  |         .      |      [13]: 1 transition_type 0x679-0x679.7 (1)
0x670|                              02               |          .     |      [14]: 2 transition_type 0x67a-0x67a.7 (1)
0x670|                                 01            |           .    |      [15]: 1 transition_type 0x67b-0x67b.7 (1)
0x670|                                    02         |            .   |      [16]: 2 transition_type 0x67c-0x67c.7 (1)
0x670|                                       01      |             .  |      [17]: 1 transition_type 0x67d-0x67d.7 (1)
0x670|                                          02   |              . |      [18]: 2 transition_type 0x67e-0x67e.7 (1)
0x670|                                             01|               .|      [19]: 1 transition_type 0x67f-0x67f.7 (1)
0x680|02                                             |.               |      [20]: 2 transition_type 0x680-0x680.7 (1)
0x680|   01                                          | .              |      [21]: 1 transition_type 0x681-0x681.7 (1)
0x680|      02                                       |  .             |      [22]: 2 transition_type 0x682-0x682.7 (1)
0x680|         01                                    |   .            |      [23]: 1 transition_type 0x683-0x683.7 (1)
0x680|            02                                 |    .           |      [24]: 2 transition_type 0x684-0x684.7 (1)
0x680|               01                              |     .          |      [25]: 1 transition_type 0x685-0x685.7 (1)
0x680|                  02                           |      .         |      [26]: 2 transition_type 0x686-0x686.7 (1)
0x680|                     01                        |       .        |      [27]: 1 transition_type 0x687-0x687.7 (1)
0x680|                        02                     |        .       |      [28]: 2 transition_type 0x688-0x688.7 (1)
0x680|                           01                  |         .      |      [29]: 1 transition_type 0x689-0x689.7 (1)
0x680|                              02               |          .     |      [30]: 2 transition_type 0x68a-0x68a.7 (1)
0x680|                                 01            |           .    |      [31]: 1 transition_type 0x68b-0x68b.7 (1)
0x680|                                    02         |            .   |      [32]: 2 transition_type 0x68c-0x68c.7 (1)
0x680|                                       01      |             .  |      [33]: 1 transition_type 0x68d-0x68d.7 (1)
0x680|                                          02   |              . |      [34]: 2 transition_type 0x68e-0x68e.7 (1)
0x680|                                             01|               .|      [35]: 1 transition_type 0x68f-0x68f.7 (1)
0x690|02                                             |.               |      [36]: 2 transition_type 0x690-0x690.7 (1)
0x690|   01                                          | .              |      [37]: 1 transition_type 0x691-0x691.7 (1)
0x690|      02                                       |  .             |      [38]: 2 transition_type 0x692-0x692.7 (1)
0x690|         01                                    |   .            |      [39]: 1 transition_type 0x693-0x693.7 (1)
0x690|            02                                 |    .           |      [40]: 2 transition_type 0x694-0x694.7 (1)
0x690|               01                              |     .          |      [41]: 1 transition_type 0x695-0x695.7 (1)
0x690|                  02                           |      .         |      [42]: 2 transition_type 0x696-0x696.7 (1)
0x690|                     01                        |       .        |      [43]: 1 transition_type 0x697-0x697.7 (1)
0x690|                        02                     |        .       |      [44]: 2 transition_type 0x698-0x698.7 (1)
0x690|                           01                  |         .      |      [45]: 1 transition_type 0x699-0x699.7 (1)
0x690|                              02               |          .     |      [46]: 2 transition_type 0x69a-0x69a.7 (1)
0x690|                                 01            |           .    |      [47]: 1 transition_type 0x69b-0x69b.7 (1)
0x690|                                    03         |            .   |      [48]: 3 transition_type 0x69c-0x69c.7 (1)
0x690|                                       04      |             .  |      [49]: 4 transition_type 0x69d-0x69d.7 (1)
0x690|                                          03   |              . |      [50]: 3 transition_type 0x69e-0x69e.7 (1)
0x690|                                             04|               .|      [51]: 4 transition_type 0x69f-0x69f.7 (1)
0x6a0|03                                             |.               |      [52]: 3 transition_type 0x6a0-0x6a0.7 (1)
0x6a0|   04                                          | .              |      [53]: 4 transition_type 0x6a1-0x6a1.7 (1)
0x6a0|      03                                       |  .             |      [54]: 3 transition_type 0x6a2-0x6a2.7 (1)
0x6a0|         04                                    |   .            |      [55]: 4 transition_type 0x6a3-0x6a3.7 (1)
0x6a0|            03                                 |    .           |      [56]: 3 transition_type 0x6a4-0x6a4.7 (1)
0x6a0|               04                              |     .          |      [57]: 4 transition_type 0x6a5-0x6a5.7 (1)
0x6a0|                  03                           |      .         |      [58]: 3 transition_type 0x6a6-0x6a6.7 (1)
0x6a0|                     04                        |       .        |      [59]: 4 transition_type 0x6a7-0x6a7.7 (1)
0x6a0|                        03                     |        .       |      [60]: 3 transition_type 0x6a8-0x6a8.7 (1)
0x6a0|                           04                  |         .      |      [61]: 4 transition_type 0x6a9-0x6a9.7 (1)
0x6a0|                              03               |          .     |      [62]: 3 transition_type 0x6aa-0x6aa.7 (1)
0x6a0|                                 04            |           .    |      [63]: 4 transition_type 0x6ab-0x6ab.7 (1)
0x6a0|                                    03         |            .   |      [64]: 3 transition_type 0x6ac-0x6ac.7 (1)
0x6a0|                                       04      |             .  |      [65]: 4 transition_type 0x6ad-0x6ad.7 (1)
0x6a0|                                          03   |              . |      [66]: 3 transition_type 0x6ae-0x6ae.7 (1)
0x6a0|                                             04|               .|      [67]: 4 transition_type 0x6af-0x6af.7 (1)
0x6b0|03                                             |.               |      [68]: 3 transition_type 0x6b0-0x6b0.7 (1)
0x6b0|   04                                          | .              |      [69]: 4 transition_type 0x6b1-0x6b1.7 (1)
0x6b0|      03                                       |  .             |      [70]: 3 transition_type 0x6b2-0x6b2.7 (1)
0x6b0|         04                                    |   .            |      [71]: 4 transition_type 0x6b3-0x6b3.7 (1)
0x6b0|            03                                 |    .           |      [72]: 3 transition_type 0x6b4-0x6b4.7 (1)
0x6b0|               04                              |     .          |      [73]: 4 transition_type 0x6b5-0x6b5.7 (1)
0x6b0|                  03                           |      .         |      [74]: 3 transition_type 0x6b6-0x6b6.7 (1)
0x6b0|                     04                        |       .        |      [75]: 4 transition_type 0x6b7-0x6b7.7 (1)
0x6b0|                        03                     |        .       |      [76]: 3 transition_type 0x6b8-0x6b8.7 (1)
0x6b0|                           04                  |         .      |      [77]: 4 transition_type 0x6b9-0x6b9.7 (1)
0x6b0|                              03               |          .     |      [78]: 3 transition_type 0x6ba-0x6ba.7 (1)
0x6b0|                                 04            |           .    |      [79]: 4 transition_type 0x6bb-0x6bb.7 (1)
0x6b0|                                    03         |            .   |      [80]: 3 transition_type 0x6bc-0x6bc.7 (1)
0x6b0|                                       04      |             .  |      [81]: 4 transition_type 0x6bd-0x6bd.7 (1)
0x6b0|                                          03   |              . |      [82]: 3 transition_type 0x6be-0x6be.7 (1)
0x6b0|                                             04|               .|      [83]: 4 transition_type 0x6bf-0x6bf.7 (1)
0x6c0|03                                             |.               |      [84]: 3 transition_type 0x6c0-0x6c0.7 (1)
0x6c0|   04                                          | .              |      [85]: 4 transition_type 0x6c1-0x6c1.7 (1)
0x6c0|      03                                       |  .             |      [86]: 3 transition_type 0x6c2-0x6c2.7 (1)
0x6c0|         04                                    |   .            |      [87]: 4 transition_type 0x6c3-0x6c3.7 (1)
0x6c0|            03                                 |    .           |      [88]: 3 transition_type 0x6c4-0x6c4.7 (1)
0x6c0|               04                              |     .          |      [89]: 4 transition_type 0x6c5-0x6c5.7 (1)
0x6c0|                  03                           |      .         |      [90]: 3 transition_type 0x6c6-0x6c6.7 (1)
0x6c0|                     04                        |       .        |      [91]: 4 transition_type 0x6c7-0x6c7.7 (1)
0x6c0|                        03                     |        .       |      [92]: 3 transition_type 0x6c8-0x6c8.7 (1)
0x6c0|                           04                  |         .      |      [93]: 4 transition_type 0x6c9-0x6c9.7 (1)
0x6c0|                              03               |          .     |      [94]: 3 transition_type 0x6ca-0x6ca.7 (1)
0x6c0|                                 04            |           .    |      [95]: 4 transition_type 0x6cb-0x6cb.7 (1)
0x6c0|                                    03         |            .   |      [96]: 3 transition_type 0x6cc-0x6cc.7 (1)
0x6c0|                                       04      |             .  |      [97]: 4 transition_type 0x6cd-0x6cd.7 (1)
0x6c0|                                          04   |              . |      [98]: 4 transition_type 0x6ce-0x6ce.7 (1)
     |                                               |                |    local_time_type_records[0:5]: 0x6cf-0x6ec.7 (30)
     |                                               |                |      [0]{}: local_time_type 0x6cf-0x6d4.7 (6)
0x6c0|                                             00|               .|        utoff: 8008 (valid) 0x6cf-0x6d2.7 (4)
0x6d0|00 1f 48                                       |..H             |
0x6d0|         00                                    |   .            |        dst: 0 (valid) 0x6d3-0x6d3.7 (1)
0x6d0|            00                                 |    .           |        idx: 0 (valid) 0x6d4-0x6d4.7 (1)
     |                                               |                |      [1]{}: local_time_type 0x6d5-0x6da.7 (6)
0x6d0|               00 00 2a 30                     |     ..*0       |        utoff: 10800 (valid) 0x6d5-0x6d8.7 (4)
0x6d0|                           01                  |         .      |        dst: 1 (valid) 0x6d9-0x6d9.7 (1)
0x6d0|                              04               |          .     |        idx: 4 (valid) 0x6da-0x6da.7 (1)
     |                                               |                |      [2]{}: local_time_type 0x6db-0x6e0.7 (6)
0x6d0|                                 00 00 1c 20   |           ...  |        utoff: 7200 (valid) 0x6db-0x6de.7 (4)
0x6d0|                                             00|               .|        dst: 0 (valid) 0x6df-0x6df.7 (1)
0x6e0|09                                             |.               |        idx: 9 (valid) 0x6e0-0x6e0.7 (1)
     |                                               |                |      [3]{}: local_time_type 0x6e1-0x6e6.7 (6)
0x6e0|   00 00 1c 20                                 | ...            |        utoff: 7200 (valid) 0x6e1-0x6e4.7 (4)
0x6e0|               00                              |     .          |        dst: 0 (valid) 0x6e5-0x6e5.7 (1)
0x6e0|                  09                           |      .         |        idx: 9 (valid) 0x6e6-0x6e6.7 (1)
     |                                               |                |      [4]{}: local_time_type 0x6e7-0x6ec.7 (6)
0x6e0|                     00 00 2a 30               |       ..*0     |        utoff: 10800 (valid) 0x6e7-0x6ea.7 (4)
0x6e0|                                 01            |           .    |        dst: 1 (valid) 0x6eb-0x6eb.7 (1)
0x6e0|                                    04         |            .   |        idx: 4 (valid) 0x6ec-0x6ec.7 (1)
     |                                               |                |    time_zone_designations[0:3]: 0x6ed-0x6f9.7 (13)
0x6e0|                                       4c 4d 54|             LMT|      [0]: "LMT" time_zone_designation 0x6ed-0x6f0.7 (4)
0x6f0|00                                             |.               |
0x6f0|   45 45 53 54 00                              | EEST.          |      [1]: "EEST" time_zone_designation 0x6f1-0x6f5.7 (5)
0x6f0|                  45 45 54 00                  |      EET.      |      [2]: "EET" time_zone_designation 0x6f6-0x6f9.7 (4)
     |                                               |                |    leap_second_records[0:27]: 0x6fa-0x83d.7 (324)
     |                                               |                |      [0]{}: leap_second_record 0x6fa-0x705.7 (12)
0x6f0|                              00 00 00 00 04 b2|          ......|        occur: "1972-07-01T00:00:00Z" (78796800) 0x6fa-0x701.7 (8)
0x700|58 00                                          |X.              |
0x700|      00 00 00 01                              |  ....          |        corr: 1 0x702-0x705.7 (4)
     |                                               |                |      [1]{}: leap_second_record 0x706-0x711.7 (12)
0x700|                  00 00 00 00 05 a4 ec 01      |      ........  |        occur: "1973-01-01T00:00:01Z" (94694401) 0x706-0x70d.7 (8)
0x700|                                          00 00|              ..|        corr: 2 0x70e-0x711.7 (4)
0x710|00 02                                          |..              |
     |                                               |                |      [2]{}: leap_second_record 0x712-0x71d.7 (12)
0x710|      00 00 00 00 07 86 1f 82                  |  ........      |        occur: "1974-01-01T00:00:02Z" (126230402) 0x712-0x719.7 (8)
0x710|                              00 00 00 03      |          ....  |        corr: 3 0x71a-0x71d.7 (4)
     |                                               |                |      [3]{}: leap_second_record 0x71e-0x729.7 (12)
0x710|                                          00 00|              ..|        occur: "1975-01-01T00:00:03Z" (157766403) 0x71e-0x725.7 (8)
0x720|00 00 09 67 53 03                              |...gS.          |
0x720|                  00 00 00 04                  |      ....      |        corr: 4 0x726-0x729.7 (4)
     |                                               |                |      [4]{}: leap_second_record 0x72a-0x735.7 (12)
0x720|                              00 00 00 00 0b 48|          .....H|        occur: "1976-01-01T00:00:04Z" (189302404) 0x72a-0x731.7 (8)
0x730|86 84                                          |..              |
0x730|      00 00 00 05                              |  ....          |        corr: 5 0x732-0x735.7 (4)
     |                                               |                |      [5]{}: leap_second_record 0x736-0x741.7 (12)
0x730|                  00 00 00 00 0d 2b 0b 85      |      .....+..  |        occur: "1977-01-01T00:00:05Z" (220924805) 0x736-0x73d.7 (8)
0x730|                                          00 00|              ..|        corr: 6 0x73e-0x741.7 (4)
0x740|00 06                                          |..              |
     |                                               |                |      [6]{}: leap_second_record 0x742-0x74d.7 (12)
0x740|      00 00 00 00 0f 0c 3f 06                  |  ......?.      |        occur: "1978-01-01T00:00:06Z" (252460806) 0x742-0x749.7 (8)
0x740|                              00 00 00 07      |          ....  |        corr: 7 0x74a-0x74d.7 (4)
     |                                               |                |      [7]{}: leap_second_record 0x74e-0x759.7 (12)
0x740|                                          00 00|              ..|        occur: "1979-01-01T00:00:07Z" (283996807) 0x74e-0x755.7 (8)
0x750|00 00 10 ed 72 87                              |....r.          |
0x750|                  00 00 00 08                  |      ....      |        corr: 8 0x756-0x759.7 (4)
     |                                               |                |      [8]{}: leap_second_record 0x75a-0x765.7 (12)
0x750|                              00 00 00 00 12 ce|          ......|        occur: "1980-01-01T00:00:08Z" (315532808) 0x75a-0x761.7 (8)
0x760|a6 08                                          |..              |
0x760|      00 00 00 09                              |  ....          |        corr: 9 0x762-0x765.7 (4)
     |                                               |                |      [9]{}: leap_second_record 0x766-0x771.7 (12)
0x760|                  00 00 00 00 15 9f ca 89      |      ........  |        occur: "1981-07-01T00:00:09Z" (362793609) 0x766-0x76d.7 (8)
0x760|                                          00 00|              ..|        corr: 10 0x76e-0x771.7 (4)
0x770|00 0a                                          |..              |
     |                                               |                |      [10]{}: leap_second_record 0x772-0x77d.7 (12)
0x770|      00 00 00 00 17 80 fe 0a                  |  ........      |        occur: "1982-07-01T00:00:10Z" (394329610) 0x772-0x779.7 (8)
0x770|                              00 00 00 0b      |          ....  |        corr: 11 0x77a-0x77d.7 (4)
     |                                               |                |      [11]{}: leap_second_record 0x77e-0x789.7 (12)
0x770|                                          00 00|              ..|        occur: "1983-07-01T00:00:11Z" (425865611) 0x77e-0x785.7 (8)
0x780|00 00 19 62 31 8b                              |...b1.          |
0x780|                  00 00 00 0c                  |      ....      |        corr: 12 0x786-0x789.7 (4)
     |                                               |                |      [12]{}: leap_second_record 0x78a-0x795.7 (12)
0x780|                              00 00 00 00 1d 25|          .....%|        occur: "1985-07-01T00:00:12Z" (489024012) 0x78a-0x791.7 (8)
0x790|ea 0c                                          |..              |
0x790|      00 00 00 0d                              |  ....          |        corr: 13 0x792-0x795.7 (4)
     |                                               |                |      [13]{}: leap_second_record 0x796-0x7a1.7 (12)
0x790|                  00 00 00 00 21 da e5 0d      |      ....!...  |        occur: "1988-01-01T00:00:13Z" (567993613) 0x796-0x79d.7 (8)
0x790|                                          00 00|              ..|        corr: 14 0x79e-0x7a1.7 (4)
0x7a0|00 0e                                          |..              |
     |                                               |                |      [14]{}: leap_second_record 0x7a2-0x7ad.7 (12)
0x7a0|      00 00 00 00 25 9e 9d 8e                  |  ....%...      |        occur: "1990-01-01T00:00:14Z" (631152014) 0x7a2-0x7a9.7 (8)
0x7a0|                              00 00 00 0f      |          ....  |        corr: 15 0x7aa-0x7ad.7 (4)
     |                                               |                |      [15]{}: leap_second_record 0x7ae-0x7b9.7 (12)
0x7a0|                                          00 00|              ..|        occur: "1991-01-01T00:00:15Z" (662688015) 0x7ae-0x7b5.7 (8)
0x7b0|00 00 27 7f d1 0f                              |..'...          |
0x7b0|                  00 00 00 10                  |      ....      |        corr: 16 0x7b6-0x7b9.7 (4)
     |                                               |                |      [16]{}: leap_second_record 0x7ba-0x7c5.7 (12)
0x7b0|                              00 00 00 00 2a 50|          ....*P|        occur: "1992-07-01T00:00:16Z" (709948816) 0x7ba-0x7c1.7 (8)
0x7c0|f5 90                                          |..              |
0x7c0|      00 00 00 11                              |  ....          |        corr: 17 0x7c2-0x7c5.7 (4)
     |                                               |                |      [17]{}: leap_second_record 0x7c6-0x7d1.7 (12)
0x7c0|                  00 00 00 00 2c 32 29 11      |      ....,2).  |        occur: "1993-07-01T00:00:17Z" (741484817) 0x7c6-0x7cd.7 (8)
0x7c0|                                          00 00|              ..|        corr: 18 0x7ce-0x7d1.7 (4)
0x7d0|00 12                                          |..              |
     |                                               |                |      [18]{}: leap_second_record 0x7d2-0x7dd.7 (12)
0x7d0|      00 00 00 00 2e 13 5c 92                  |  ......\.      |        occur: "1994-07-01T00:00:18Z" (773020818) 0x7d2-0x7d9.7 (8)
0x7d0|                              00 00 00 13      |          ....  |        corr: 19 0x7da-0x7dd.7 (4)
     |                                               |                |      [19]{}: leap_second_record 0x7de-0x7e9.7 (12)
0x7d0|                                          00 00|              ..|        occur: "1996-01-01T00:00:19Z" (820454419) 0x7de-0x7e5.7 (8)
0x7e0|00 00 30 e7 24 13                              |..0.$.          |
0x7e0|                  00 00 00 14                  |      ....      |        corr: 20 0x7e6-0x7e9.7 (4)
     |                                               |                |      [20]{}: leap_second_record 0x7ea-0x7f5.7 (12)
0x7e0|                              00 00 00 00 33 b8|          ....3.|        occur: "1997-07-01T00:00:20Z" (867715220) 0x7ea-0x7f1.7 (8)
0x7f0|48 94                                          |H.              |
0x7f0|      00 00 00 15                              |  ....          |        corr: 21 0x7f2-0x7f5.7 (4)
     |                                               |                |      [21]{}: leap_second_record 0x7f6-0x801.7 (12)
0x7f0|                  00 00 00 00 36 8c 10 15      |      ....6...  |        occur: "1999-01-01T00:00:21Z" (915148821) 0x7f6-0x7fd.7 (8)
0x7f0|                                          00 00|              ..|        corr: 22 0x7fe-0x801.7 (4)
0x800|00 16                                          |..              |
     |                                               |                |      [22]{}: leap_second_record 0x802-0x80d.7 (12)
0x800|      00 00 00 00 43 b7 1b 96                  |  ....C...      |        occur: "2006-01-01T00:00:22Z" (1136073622) 0x802-0x809.7 (8)
0x800|                              00 00 00 17      |          ....  |        corr: 23 0x80a-0x80d.7 (4)
     |                                               |                |      [23]{}: leap_second_record 0x80e-0x819.7 (12)
0x800|                                          00 00|              ..|        occur: "2009-01-01T00:00:23Z" (1230768023) 0x80e-0x815.7 (8)
0x810|00 00 49 5c 07 97                              |..I\..          |
0x810|                  00 00 00 18                  |      ....      |        corr: 24 0x816-0x819.7 (4)
     |                                               |                |      [24]{}: leap_second_record 0x81a-0x825.7 (12)
0x810|                              00 00 00 00 4f ef|          ....O.|        occur: "2012-07-01T00:00:24Z" (1341100824) 0x81a-0x821.7 (8)
0x820|93 18                                          |..              |
0x820|      00 00 00 19                              |  ....          |        corr: 25 0x822-0x825.7 (4)
     |                                               |                |      [25]{}: leap_second_record 0x826-0x831.7 (12)
0x820|                  00 00 00 00 55 93 2d 99      |      ....U.-.  |        occur: "2015-07-01T00:00:25Z" (1435708825) 0x826-0x82d.7 (8)
0x820|                                          00 00|              ..|        corr: 26 0x82e-0x831.7 (4)
0x830|00 1a                                          |..              |
     |                                               |                |      [26]{}: leap_second_record 0x832-0x83d.7 (12)
0x830|      00 00 00 00 58 68 46 9a                  |  ....XhF.      |        occur: "2017-01-01T00:00:26Z" (1483228826) 0x832-0x839.7 (8)
0x830|                              00 00 00 1b      |          ....  |        corr: 27 0x83a-0x83d.7 (4)
     |                                               |                |    standard_wall_indicators[0:5]: 0x83e-0x842.7 (5)
0x830|                                          00   |              . |      [0]: 0 standard_wall_indicator (valid) 0x83e-0x83e.7 (1)
0x830|                                             00|               .|      [1]: 0 standard_wall_indicator (valid) 0x83f-0x83f.7 (1)
0x840|00                                             |.               |      [2]: 0 standard_wall_indicator (valid) 0x840-0x840.7 (1)
0x840|   01                                          | .              |      [3]: 1 standard_wall_indicator (valid) 0x841-0x841.7 (1)
0x840|      01                                       |  .             |      [4]: 1 standard_wall_indicator (valid) 0x842-0x842.7 (1)
     |                                               |                |    ut_local_indicators[0:5]: 0x843-0x847.7 (5)
0x840|         00                                    |   .            |      [0]: 0 ut_local_indicator (valid) 0x843-0x843.7 (1)
0x840|            00                                 |    .           |      [1]: 0 ut_local_indicator (valid) 0x844-0x844.7 (1)
0x840|               00                              |     .          |      [2]: 0 ut_local_indicator (valid) 0x845-0x845.7 (1)
0x840|                  01                           |      .         |      [3]: 1 ut_local_indicator (valid) 0x846-0x846.7 (1)
0x840|                     01                        |       .        |      [4]: 1 ut_local_indicator (valid) 0x847-0x847.7 (1)
     |                                               |                |  footer{}: 0x848-0x849.7 (2)
0x840|                        0a                     |        .       |    nl1: 10 (valid) 0x848-0x848.7 (1)
     |                                               |                |    tz_string: "" 0x849-NA (0)
0x840|                           0a|                 |         .|     |    nl2: 10 (valid) 0x849-0x849.7 (1)
