$ fq -d tzif dv Nome
     |00 01 02 03 04 05 06 07 08 09 0a 0b 0c 0d 0e 0f|0123456789abcdef|.{}: Nome (tzif) 0x0-0x9ba.7 (2491)
     |                                               |                |  v1header{}: 0x0-0x2b.7 (44)
0x000|54 5a 69 66                                    |TZif            |    magic: 0x545a6966 (valid) 0x0-0x3.7 (4)
0x000|            32                                 |    2           |    ver: "2" (0x32) (valid) 0x4-0x4.7 (1)
0x000|               00 00 00 00 00 00 00 00 00 00 00|     ...........|    reserved: raw bits 0x5-0x13.7 (15)
0x010|00 00 00 00                                    |....            |
0x010|            00 00 00 09                        |    ....        |    isutcnt: 9 0x14-0x17.7 (4)
0x010|                        00 00 00 09            |        ....    |    isstdcnt: 9 0x18-0x1b.7 (4)
0x010|                                    00 00 00 1b|            ....|    leapcnt: 27 0x1c-0x1f.7 (4)
0x020|00 00 00 74                                    |...t            |    timecnt: 116 0x20-0x23.7 (4)
0x020|            00 00 00 09                        |    ....        |    typecnt: 9 0x24-0x27.7 (4)
0x020|                        00 00 00 26            |        ...&    |    charcnt: 38 0x28-0x2b.7 (4)
     |                                               |                |  v1datablock{}: 0x2c-0x3b5.7 (906)
     |                                               |                |    transition_times[0:116]: 0x2c-0x1fb.7 (464)
0x020|                                    80 00 00 00|            ....|      [0]: "1901-12-13T20:45:52Z" (-2147483648) transition_time 0x2c-0x2f.7 (4)
0x030|cb 89 44 d0                                    |..D.            |      [1]: "1942-02-09T13:00:00Z" (-880196400) transition_time 0x30-0x33.7 (4)
0x030|            d2 23 f4 70                        |    .#.p        |      [2]: "1945-08-14T23:00:00Z" (-769395600) transition_time 0x34-0x37.7 (4)
0x030|                        d2 61 50 40            |        .aP@    |      [3]: "1945-09-30T12:00:00Z" (-765374400) transition_time 0x38-0x3b.7 (4)
0x030|                                    fa d2 55 b0|            ..U.|      [4]: "1967-04-01T11:00:00Z" (-86878800) transition_time 0x3c-0x3f.7 (4)
0x040|fe b8 71 50                                    |..qP            |      [5]: "1969-04-27T13:00:00Z" (-21466800) transition_time 0x40-0x43.7 (4)
0x040|            ff a8 54 40                        |    ..T@        |      [6]: "1969-10-26T12:00:00Z" (-5745600) transition_time 0x44-0x47.7 (4)
0x040|                        00 98 53 50            |        ..SP    |      [7]: "1970-04-26T13:00:00Z" (9982800) transition_time 0x48-0x4b.7 (4)
0x040|                                    01 88 36 40|            ..6@|      [8]: "1970-10-25T12:00:00Z" (25704000) transition_time 0x4c-0x4f.7 (4)
0x050|02 78 35 50                                    |.x5P            |      [9]: "1971-04-25T13:00:00Z" (41432400) transition_time 0x50-0x53.7 (4)
0x050|            03 71 52 c0                        |    .qR.        |      [10]: "1971-10-31T12:00:00Z" (57758400) transition_time 0x54-0x57.7 (4)
0x050|                        04 61 51 d0            |        .aQ.    |      [11]: "1972-04-30T13:00:00Z" (73486800) transition_time 0x58-0x5b.7 (4)
0x050|                                    05 51 34 c1|            .Q4.|      [12]: "1972-10-29T12:00:01Z" (89208001) transition_time 0x5c-0x5f.7 (4)
0x060|06 41 33 d2                                    |.A3.            |      [13]: "1973-04-29T13:00:02Z" (104936402) transition_time 0x60-0x63.7 (4)
0x060|            07 31 16 c2                        |    .1..        |      [14]: "1973-10-28T12:00:02Z" (120657602) transition_time 0x64-0x67.7 (4)
0x060|                        07 8d 6d d3            |        ..m.    |      [15]: "1974-01-06T13:00:03Z" (126709203) transition_time 0x68-0x6b.7 (4)
0x060|                                    09 10 f8 c3|            ....|      [16]: "1974-10-27T12:00:03Z" (152107203) transition_time 0x6c-0x6f.7 (4)
0x070|09 ad e9 54                                    |...T            |      [17]: "1975-02-23T13:00:04Z" (162392404) transition_time 0x70-0x73.7 (4)
0x070|            0a f0 da c4                        |    ....        |      [18]: "1975-10-26T12:00:04Z" (183556804) transition_time 0x74-0x77.7 (4)
0x070|                        0b e0 d9 d5            |        ....    |      [19]: "1976-04-25T13:00:05Z" (199285205) transition_time 0x78-0x7b.7 (4)
0x070|                                    0c d9 f7 45|            ...E|      [20]: "1976-10-31T12:00:05Z" (215611205) transition_time 0x7c-0x7f.7 (4)
0x080|0d c0 bb d6                                    |....            |      [21]: "1977-04-24T13:00:06Z" (230734806) transition_time 0x80-0x83.7 (4)
0x080|            0e b9 d9 46                        |    ...F        |      [22]: "1977-10-30T12:00:06Z" (247060806) transition_time 0x84-0x87.7 (4)
0x080|                        0f a9 d8 57            |        ...W    |      [23]: "1978-04-30T13:00:07Z" (262789207) transition_time 0x88-0x8b.7 (4)
0x080|                                    10 99 bb 47|            ...G|      [24]: "1978-10-29T12:00:07Z" (278510407) transition_time 0x8c-0x8f.7 (4)
0x090|11 89 ba 58                                    |...X            |      [25]: "1979-04-29T13:00:08Z" (294238808) transition_time 0x90-0x93.7 (4)
0x090|            12 79 9d 48                        |    .y.H        |      [26]: "1979-10-28T12:00:08Z" (309960008) transition_time 0x94-0x97.7 (4)
0x090|                        13 69 9c 59            |        .i.Y    |      [27]: "1980-04-27T13:00:09Z" (325688409) transition_time 0x98-0x9b.7 (4)
0x090|                                    14 59 7f 49|            .Y.I|      [28]: "1980-10-26T12:00:09Z" (341409609) transition_time 0x9c-0x9f.7 (4)
0x0a0|15 49 7e 59                                    |.I~Y            |      [29]: "1981-04-26T13:00:09Z" (357138009) transition_time 0xa0-0xa3.7 (4)
0x0a0|            16 39 61 4a                        |    .9aJ        |      [30]: "1981-10-25T12:00:10Z" (372859210) transition_time 0xa4-0xa7.7 (4)
0x0a0|                        17 29 60 5a            |        .)`Z    |      [31]: "1982-04-25T13:00:10Z" (388587610) transition_time 0xa8-0xab.7 (4)
0x0a0|                                    18 22 7d cb|            ."}.|      [32]: "1982-10-31T12:00:11Z" (404913611) transition_time 0xac-0xaf.7 (4)
0x0b0|19 09 42 5b                                    |..B[            |      [33]: "1983-04-24T13:00:11Z" (420037211) transition_time 0xb0-0xb3.7 (4)
0x0b0|            1a 02 5f cc                        |    .._.        |      [34]: "1983-10-30T12:00:12Z" (436363212) transition_time 0xb4-0xb7.7 (4)
0x0b0|                        1a 2b 14 1c            |        .+..    |      [35]: "1983-11-30T09:00:12Z" (439030812) transition_time 0xb8-0xbb.7 (4)
0x0b0|                                    1a f2 42 bc|            ..B.|      [36]: "1984-04-29T11:00:12Z" (452084412) transition_time 0xbc-0xbf.7 (4)
0x0c0|1b e2 25 ac                                    |..%.            |      [37]: "1984-10-28T10:00:12Z" (467805612) transition_time 0xc0-0xc3.7 (4)
0x0c0|            1c d2 24 bc                        |    ..$.        |      [38]: "1985-04-28T11:00:12Z" (483534012) transition_time 0xc4-0xc7.7 (4)
0x0c0|                        1d c2 07 ad            |        ....    |      [39]: "1985-10-27T10:00:13Z" (499255213) transition_time 0xc8-0xcb.7 (4)
0x0c0|                                    1e b2 06 bd|            ....|      [40]: "1986-04-27T11:00:13Z" (514983613) transition_time 0xcc-0xcf.7 (4)
0x0d0|1f a1 e9 ad                                    |....            |      [41]: "1986-10-26T10:00:13Z" (530704813) transition_time 0xd0-0xd3.7 (4)
0x0d0|            20 76 39 3d                        |     v9=        |      [42]: "1987-04-05T11:00:13Z" (544618813) transition_time 0xd4-0xd7.7 (4)
0x0d0|                        21 81 cb ad            |        !...    |      [43]: "1987-10-25T10:00:13Z" (562154413) transition_time 0xd8-0xdb.7 (4)
0x0d0|                                    22 56 1b 3e|            "V.>|      [44]: "1988-04-03T11:00:14Z" (576068414) transition_time 0xdc-0xdf.7 (4)
0x0e0|23 6a e8 2e                                    |#j..            |      [45]: "1988-10-30T10:00:14Z" (594208814) transition_time 0xe0-0xe3.7 (4)
0x0e0|            24 35 fd 3e                        |    $5.>        |      [46]: "1989-04-02T11:00:14Z" (607518014) transition_time 0xe4-0xe7.7 (4)
0x0e0|                        25 4a ca 2e            |        %J..    |      [47]: "1989-10-29T10:00:14Z" (625658414) transition_time 0xe8-0xeb.7 (4)
0x0e0|                                    26 15 df 3f|            &..?|      [48]: "1990-04-01T11:00:15Z" (638967615) transition_time 0xec-0xef.7 (4)
0x0f0|27 2a ac 2f                                    |'*./            |      [49]: "1990-10-28T10:00:15Z" (657108015) transition_time 0xf0-0xf3.7 (4)
0x0f0|            27 fe fb c0                        |    '...        |      [50]: "1991-04-07T11:00:16Z" (671022016) transition_time 0xf4-0xf7.7 (4)
0x0f0|                        29 0a 8e 30            |        )..0    |      [51]: "1991-10-27T10:00:16Z" (688557616) transition_time 0xf8-0xfb.7 (4)
0x0f0|                                    29 de dd c0|            )...|      [52]: "1992-04-05T11:00:16Z" (702471616) transition_time 0xfc-0xff.7 (4)
0x100|2a ea 70 31                                    |*.p1            |      [53]: "1992-10-25T10:00:17Z" (720007217) transition_time 0x100-0x103.7 (4)
0x100|            2b be bf c1                        |    +...        |      [54]: "1993-04-04T11:00:17Z" (733921217) transition_time 0x104-0x107.7 (4)
0x100|                        2c d3 8c b2            |        ,...    |      [55]: "1993-10-31T10:00:18Z" (752061618) transition_time 0x108-0x10b.7 (4)
0x100|                                    2d 9e a1 c2|            -...|      [56]: "1994-04-03T11:00:18Z" (765370818) transition_time 0x10c-0x10f.7 (4)
0x110|2e b3 6e b3                                    |..n.            |      [57]: "1994-10-30T10:00:19Z" (783511219) transition_time 0x110-0x113.7 (4)
0x110|            2f 7e 83 c3                        |    /~..        |      [58]: "1995-04-02T11:00:19Z" (796820419) transition_time 0x114-0x117.7 (4)
0x110|                        30 93 50 b3            |        0.P.    |      [59]: "1995-10-29T10:00:19Z" (814960819) transition_time 0x118-0x11b.7 (4)
0x110|                                    31 67 a0 44|            1g.D|      [60]: "1996-04-07T11:00:20Z" (828874820) transition_time 0x11c-0x11f.7 (4)
0x120|32 73 32 b4                                    |2s2.            |      [61]: "1996-10-27T10:00:20Z" (846410420) transition_time 0x120-0x123.7 (4)
0x120|            33 47 82 44                        |    3G.D        |      [62]: "1997-04-06T11:00:20Z" (860324420) transition_time 0x124-0x127.7 (4)
0x120|                        34 53 14 b5            |        4S..    |      [63]: "1997-10-26T10:00:21Z" (877860021) transition_time 0x128-0x12b.7 (4)
0x120|                                    35 27 64 45|            5'dE|      [64]: "1998-04-05T11:00:21Z" (891774021) transition_time 0x12c-0x12f.7 (4)
0x130|36 32 f6 b5                                    |62..            |      [65]: "1998-10-25T10:00:21Z" (909309621) transition_time 0x130-0x133.7 (4)
0x130|            37 07 46 46                        |    7.FF        |      [66]: "1999-04-04T11:00:22Z" (923223622) transition_time 0x134-0x137.7 (4)
0x130|                        38 1c 13 36            |        8..6    |      [67]: "1999-10-31T10:00:22Z" (941364022) transition_time 0x138-0x13b.7 (4)
0x130|                                    38 e7 28 46|            8.(F|      [68]: "2000-04-02T11:00:22Z" (954673222) transition_time 0x13c-0x13f.7 (4)
0x140|39 fb f5 36                                    |9..6            |      [69]: "2000-10-29T10:00:22Z" (972813622) transition_time 0x140-0x143.7 (4)
0x140|            3a c7 0a 46                        |    :..F        |      [70]: "2001-04-01T11:00:22Z" (986122822) transition_time 0x144-0x147.7 (4)
0x140|                        3b db d7 36            |        ;..6    |      [71]: "2001-10-28T10:00:22Z" (1004263222) transition_time 0x148-0x14b.7 (4)
0x140|                                    3c b0 26 c6|            <.&.|      [72]: "2002-04-07T11:00:22Z" (1018177222) transition_time 0x14c-0x14f.7 (4)
0x150|3d bb b9 36                                    |=..6            |      [73]: "2002-10-27T10:00:22Z" (1035712822) transition_time 0x150-0x153.7 (4)
0x150|            3e 90 08 c6                        |    >...        |      [74]: "2003-04-06T11:00:22Z" (1049626822) transition_time 0x154-0x157.7 (4)
0x150|                        3f 9b 9b 36            |        ?..6    |      [75]: "2003-10-26T10:00:22Z" (1067162422) transition_time 0x158-0x15b.7 (4)
0x150|                                    40 6f ea c6|            @o..|      [76]: "2004-04-04T11:00:22Z" (1081076422) transition_time 0x15c-0x15f.7 (4)
0x160|41 84 b7 b6                                    |A...            |      [77]: "2004-10-31T10:00:22Z" (1099216822) transition_time 0x160-0x163.7 (4)
0x160|            42 4f cc c6                        |    BO..        |      [78]: "2005-04-03T11:00:22Z" (1112526022) transition_time 0x164-0x167.7 (4)
0x160|                        43 64 99 b6            |        Cd..    |      [79]: "2005-10-30T10:00:22Z" (1130666422) transition_time 0x168-0x16b.7 (4)
0x160|                                    44 2f ae c7|            D/..|      [80]: "2006-04-02T11:00:23Z" (1143975623) transition_time 0x16c-0x16f.7 (4)
0x170|45 44 7b b7                                    |ED{.            |      [81]: "2006-10-29T10:00:23Z" (1162116023) transition_time 0x170-0x173.7 (4)
0x170|            45 f3 e1 47                        |    E..G        |      [82]: "2007-03-11T11:00:23Z" (1173610823) transition_time 0x174-0x177.7 (4)
0x170|                        47 2d 98 37            |        G-.7    |      [83]: "2007-11-04T10:00:23Z" (1194170423) transition_time 0x178-0x17b.7 (4)
0x170|                                    47 d3 c3 47|            G..G|      [84]: "2008-03-09T11:00:23Z" (1205060423) transition_time 0x17c-0x17f.7 (4)
0x180|49 0d 7a 37                                    |I.z7            |      [85]: "2008-11-02T10:00:23Z" (1225620023) transition_time 0x180-0x183.7 (4)
0x180|            49 b3 a5 48                        |    I..H        |      [86]: "2009-03-08T11:00:24Z" (1236510024) transition_time 0x184-0x187.7 (4)
0x180|                        4a ed 5c 38            |        J.\8    |      [87]: "2009-11-01T10:00:24Z" (1257069624) transition_time 0x188-0x18b.7 (4)
0x180|                                    4b 9c c1 c8|            K...|      [88]: "2010-03-14T11:00:24Z" (1268564424) transition_time 0x18c-0x18f.7 (4)
0x190|4c d6 78 b8                                    |L.x.            |      [89]: "2010-11-07T10:00:24Z" (1289124024) transition_time 0x190-0x193.7 (4)
0x190|            4d 7c a3 c8                        |    M|..        |      [90]: "2011-03-13T11:00:24Z" (1300014024) transition_time 0x194-0x197.7 (4)
0x190|                        4e b6 5a b8            |        N.Z.    |      [91]: "2011-11-06T10:00:24Z" (1320573624) transition_time 0x198-0x19b.7 (4)
0x190|                                    4f 5c 85 c8|            O\..|      [92]: "2012-03-11T11:00:24Z" (1331463624) transition_time 0x19c-0x19f.7 (4)
0x1a0|50 96 3c b9                                    |P.<.            |      [93]: "2012-11-04T10:00:25Z" (1352023225) transition_time 0x1a0-0x1a3.7 (4)
0x1a0|            51 3c 67 c9                        |    Q<g.        |      [94]: "2013-03-10T11:00:25Z" (1362913225) transition_time 0x1a4-0x1a7.7 (4)
0x1a0|                        52 76 1e b9            |        Rv..    |      [95]: "2013-11-03T10:00:25Z" (1383472825) transition_time 0x1a8-0x1ab.7 (4)
0x1a0|                                    53 1c 49 c9|            S.I.|      [96]: "2014-03-09T11:00:25Z" (1394362825) transition_time 0x1ac-0x1af.7 (4)
0x1b0|54 56 00 b9                                    |TV..            |      [97]: "2014-11-02T10:00:25Z" (1414922425) transition_time 0x1b0-0x1b3.7 (4)
0x1b0|            54 fc 2b c9                        |    T.+.        |      [98]: "2015-03-08T11:00:25Z" (1425812425) transition_time 0x1b4-0x1b7.7 (4)
0x1b0|                        56 35 e2 ba            |        V5..    |      [99]: "2015-11-01T10:00:26Z" (1446372026) transition_time 0x1b8-0x1bb.7 (4)
0x1b0|                                    56 e5 48 4a|            V.HJ|      [100]: "2016-03-13T11:00:26Z" (1457866826) transition_time 0x1bc-0x1bf.7 (4)
0x1c0|58 1e ff 3a                                    |X..:            |      [101]: "2016-11-06T10:00:26Z" (1478426426) transition_time 0x1c0-0x1c3.7 (4)
0x1c0|            58 c5 2a 4b                        |    X.*K        |      [102]: "2017-03-12T11:00:27Z" (1489316427) transition_time 0x1c4-0x1c7.7 (4)
0x1c0|                        59 fe e1 3b            |        Y..;    |      [103]: "2017-11-05T10:00:27Z" (1509876027) transition_time 0x1c8-0x1cb.7 (4)
0x1c0|                                    5a a5 0c 4b|            Z..K|      [104]: "2018-03-11T11:00:27Z" (1520766027) transition_time 0x1cc-0x1cf.7 (4)
0x1d0|5b de c3 3b                                    |[..;            |      [105]: "2018-11-04T10:00:27Z" (1541325627) transition_time 0x1d0-0x1d3.7 (4)
0x1d0|            5c 84 ee 4b                        |    \..K        |      [106]: "2019-03-10T11:00:27Z" (1552215627) transition_time 0x1d4-0x1d7.7 (4)
0x1d0|                        5d be a5 3b            |        ]..;    |      [107]: "2019-11-03T10:00:27Z" (1572775227) transition_time 0x1d8-0x1db.7 (4)
0x1d0|                                    5e 64 d0 4b|            ^d.K|      [108]: "2020-03-08T11:00:27Z" (1583665227) transition_time 0x1dc-0x1df.7 (4)
0x1e0|5f 9e 87 3b                                    |_..;            |      [109]: "2020-11-01T10:00:27Z" (1604224827) transition_time 0x1e0-0x1e3.7 (4)
0x1e0|            60 4d ec cb                        |    `M..        |      [110]: "2021-03-14T11:00:27Z" (1615719627) transition_time 0x1e4-0x1e7.7 (4)
0x1e0|                        61 87 a3 bb            |        a...    |      [111]: "2021-11-07T10:00:27Z" (1636279227) transition_time 0x1e8-0x1eb.7 (4)
0x1e0|                                    62 2d ce cb|            b-..|      [112]: "2022-03-13T11:00:27Z" (1647169227) transition_time 0x1ec-0x1ef.7 (4)
0x1f0|63 67 85 bb                                    |cg..            |      [113]: "2022-11-06T10:00:27Z" (1667728827) transition_time 0x1f0-0x1f3.7 (4)
0x1f0|            64 0d b0 cb                        |    d...        |      [114]: "2023-03-12T11:00:27Z" (1678618827) transition_time 0x1f4-0x1f7.7 (4)
0x1f0|                        64 9b 78 1b            |        d.x.    |      [115]: "2023-06-28T00:00:27Z" (1687910427) transition_time 0x1f8-0x1fb.7 (4)
     |                                               |                |    transition_types[0:116]: 0x1fc-0x26f.7 (116)
0x1f0|                                    01         |            .   |      [0]: 1 transition_type 0x1fc-0x1fc.7 (1)
0x1f0|                                       02      |             .  |      [1]: 2 transition_type 0x1fd-0x1fd.7 (1)
0x1f0|                                          03   |              . |      [2]: 3 transition_type 0x1fe-0x1fe.7 (1)
0x1f0|                                             01|               .|      [3]: 1 transition_type 0x1ff-0x1ff.7 (1)
0x200|04                                             |.               |      [4]: 4 transition_type 0x200-0x200.7 (1)
0x200|   05                                          | .              |      [5]: 5 transition_type 0x201-0x201.7 (1)
0x200|      04                                       |  .             |      [6]: 4 transition_type 0x202-0x202.7 (1)
0x200|         05                                    |   .            |      [7]: 5 transition_type 0x203-0x203.7 (1)
0x200|            04                                 |    .           |      [8]: 4 transition_type 0x204-0x204.7 (1)
0x200|               05                              |     .          |      [9]: 5 transition_type 0x205-0x205.7 (1)
0x200|                  04                           |      .         |      [10]: 4 transition_type 0x206-0x206.7 (1)
0x200|                     05                        |       .        |      [11]: 5 transition_type 0x207-0x207.7 (1)
0x200|                        04                     |        .       |      [12]: 4 transition_type 0x208-0x208.7 (1)
0x200|                           05                  |         .      |      [13]: 5 transition_type 0x209-0x209.7 (1)
0x200|                              04               |          .     |      [14]: 4 transition_type 0x20a-0x20a.7 (1)
0x200|                                 05            |           .    |      [15]: 5 transition_type 0x20b-0x20b.7 (1)
0x200|                                    04         |            .   |      [16]: 4 transition_type 0x20c-0x20c.7 (1)
0x200|                                       05      |             .  |      [17]: 5 transition_type 0x20d-0x20d.7 (1)
0x200|                                          04   |              . |      [18]: 4 transition_type 0x20e-0x20e.7 (1)
0x200|                                             05|               .|      [19]: 5 transition_type 0x20f-0x20f.7 (1)
0x210|04                                             |.               |      [20]: 4 transition_type 0x210-0x210.7 (1)
0x210|   05                                          | .              |      [21]: 5 transition_type 0x211-0x211.7 (1)
0x210|      04                                       |  .             |      [22]: 4 transition_type 0x212-0x212.7 (1)
0x210|         05                                    |   .            |      [23]: 5 transition_type 0x213-0x213.7 (1)
0x210|            04                                 |    .           |      [24]: 4 transition_type 0x214-0x214.7 (1)
0x210|               05                              |     .          |      [25]: 5 transition_type 0x215-0x215.7 (1)
0x210|                  04                           |      .         |      [26]: 4 transition_type 0x216-0x216.7 (1)
0x210|                     05                        |       .        |      [27]: 5 transition_type 0x217-0x217.7 (1)
0x210|                        04                     |        .       |      [28]: 4 transition_type 0x218-0x218.7 (1)
0x210|                           05                  |         .      |      [29]: 5 transition_type 0x219-0x219.7 (1)
0x210|                              04               |          .     |      [30]: 4 transition_type 0x21a-0x21a.7 (1)
0x210|                                 05            |           .    |      [31]: 5 transition_type 0x21b-0x21b.7 (1)
0x210|                                    04         |            .   |      [32]: 4 transition_type 0x21c-0x21c.7 (1)
0x210|                                       05      |             .  |      [33]: 5 transition_type 0x21d-0x21d.7 (1)
0x210|                                          06   |              . |      [34]: 6 transition_type 0x21e-0x21e.7 (1)
0x210|                                             08|               .|      [35]: 8 transition_type 0x21f-0x21f.7 (1)
0x220|07                                             |.               |      [36]: 7 transition_type 0x220-0x220.7 (1)
0x220|   08                                          | .              |      [37]: 8 transition_type 0x221-0x221.7 (1)
0x220|      07                                       |  .             |      [38]: 7 transition_type 0x222-0x222.7 (1)
0x220|         08                                    |   .            |      [39]: 8 transition_type 0x223-0x223.7 (1)
0x220|            07                                 |    .           |      [40]: 7 transition_type 0x224-0x224.7 (1)
0x220|               08                              |     .          |      [41]: 8 transition_type 0x225-0x225.7 (1)
0x220|                  07                           |      .         |      [42]: 7 transition_type 0x226-0x226.7 (1)
0x220|                     08                        |       .        |      [43]: 8 transition_type 0x227-0x227.7 (1)
0x220|                        07                     |        .       |      [44]: 7 transition_type 0x228-0x228.7 (1)
0x220|                           08                  |         .      |      [45]: 8 transition_type 0x229-0x229.7 (1)
0x220|                              07               |          .     |      [46]: 7 transition_type 0x22a-0x22a.7 (1)
0x220|                                 08            |           .    |      [47]: 8 transition_type 0x22b-0x22b.7 (1)
0x220|                                    07         |            .   |      [48]: 7 transition_type 0x22c-0x22c.7 (1)
0x220|                                       08      |             .  |      [49]: 8 transition_type 0x22d-0x22d.7 (1)
0x220|                                          07   |              . |      [50]: 7 transition_type 0x22e-0x22e.7 (1)
0x220|                                             08|               .|      [51]: 8 transition_type 0x22f-0x22f.7 (1)
0x230|07                                             |.               |      [52]: 7 transition_type 0x230-0x230.7 (1)
0x230|   08                                          | .              |      [53]: 8 transition_type 0x231-0x231.7 (1)
0x230|      07                                       |  .             |      [54]: 7 transition_type 0x232-0x232.7 (1)
0x230|         08                                    |   .            |      [55]: 8 transition_type 0x233-0x233.7 (1)
0x230|            07                                 |    .           |      [56]: 7 transition_type 0x234-0x234.7 (1)
0x230|               08                              |     .          |      [57]: 8 transition_type 0x235-0x235.7 (1)
0x230|                  07                           |      .         |      [58]: 7 transition_type 0x236-0x236.7 (1)
0x230|                     08                        |       .        |      [59]: 8 transition_type 0x237-0x237.7 (1)
0x230|                        07                     |        .       |      [60]: 7 transition_type 0x238-0x238.7 (1)
0x230|                           08                  |         .      |      [61]: 8 transition_type 0x239-0x239.7 (1)
0x230|                              07               |          .     |      [62]: 7 transition_type 0x23a-0x23a.7 (1)
0x230|                                 08            |           .    |      [63]: 8 transition_type 0x23b-0x23b.7 (1)
0x230|                                    07         |            .   |      [64]: 7 transition_type 0x23c-0x23c.7 (1)
0x230|                                       08      |             .  |      [65]: 8 transition_type 0x23d-0x23d.7 (1)
0x230|                                          07   |              . |      [66]: 7 transition_type 0x23e-0x23e.7 (1)
0x230|                                             08|               .|      [67]: 8 transition_type 0x23f-0x23f.7 (1)
0x240|07                                             |.               |      [68]: 7 transition_type 0x240-0x240.7 (1)
0x240|   08                                          | .              |      [69]: 8 transition_type 0x241-0x241.7 (1)
0x240|      07                                       |  .             |      [70]: 7 transition_type 0x242-0x242.7 (1)
0x240|         08                                    |   .            |      [71]: 8 transition_type 0x243-0x243.7 (1)
0x240|            07                                 |    .           |      [72]: 7 transition_type 0x244-0x244.7 (1)
0x240|               08                              |     .          |      [73]: 8 transition_type 0x245-0x245.7 (1)
0x240|                  07                           |      .         |      [74]: 7 transition_type 0x246-0x246.7 (1)
0x240|                     08                        |       .        |      [75]: 8 transition_type 0x247-0x247.7 (1)
0x240|                        07                     |        .       |      [76]: 7 transition_type 0x248-0x248.7 (1)
0x240|                           08                  |         .      |      [77]: 8 transition_type 0x249-0x249.7 (1)
0x240|                              07               |          .     |      [78]: 7 transition_type 0x24a-0x24a.7 (1)
0x240|                                 08            |           .    |      [79]: 8 transition_type 0x24b-0x24b.7 (1)
0x240|                                    07         |            .   |      [80]: 7 transition_type 0x24c-0x24c.7 (1)
0x240|                                       08      |             .  |      [81]: 8 transition_type 0x24d-0x24d.7 (1)
0x240|                                          07   |              . |      [82]: 7 transition_type 0x24e-0x24e.7 (1)
0x240|                                             08|               .|      [83]: 8 transition_type 0x24f-0x24f.7 (1)
0x250|07                                             |.               |      [84]: 7 transition_type 0x250-0x250.7 (1)
0x250|   08                                          | .              |      [85]: 8 transition_type 0x251-0x251.7 (1)
0x250|      07                                       |  .             |      [86]: 7 transition_type 0x252-0x252.7 (1)
0x250|         08                                    |   .            |      [87]: 8 transition_type 0x253-0x253.7 (1)
0x250|            07                                 |    .           |      [88]: 7 transition_type 0x254-0x254.7 (1)
0x250|               08                              |     .          |      [89]: 8 transition_type 0x255-0x255.7 (1)
0x250|                  07                           |      .         |      [90]: 7 transition_type 0x256-0x256.7 (1)
0x250|                     08                        |       .        |      [91]: 8 transition_type 0x257-0x257.7 (1)
0x250|                        07                     |        .       |      [92]: 7 transition_type 0x258-0x258.7 (1)
0x250|                           08                  |         .      |      [93]: 8 transition_type 0x259-0x259.7 (1)
0x250|                              07               |          .     |      [94]: 7 transition_type 0x25a-0x25a.7 (1)
0x250|                                 08            |           .    |      [95]: 8 transition_type 0x25b-0x25b.7 (1)
0x250|                                    07         |            .   |      [96]: 7 transition_type 0x25c-0x25c.7 (1)
0x250|                                       08      |             .  |      [97]: 8 transition_type 0x25d-0x25d.7 (1)
0x250|                                          07   |              . |      [98]: 7 transition_type 0x25e-0x25e.7 (1)
0x250|                                             08|               .|      [99]: 8 transition_type 0x25f-0x25f.7 (1)
0x260|07                                             |.               |      [100]: 7 transition_type 0x260-0x260.7 (1)
0x260|   08                                          | .              |      [101]: 8 transition_type 0x261-0x261.7 (1)
0x260|      07                                       |  .             |      [102]: 7 transition_type 0x262-0x262.7 (1)
0x260|         08                                    |   .            |      [103]: 8 transition_type 0x263-0x263.7 (1)
0x260|            07                                 |    .           |      [104]: 7 transition_type 0x264-0x264.7 (1)
0x260|               08                              |     .          |      [105]: 8 transition_type 0x265-0x265.7 (1)
0x260|                  07                           |      .         |      [106]: 7 transition_type 0x266-0x266.7 (1)
0x260|                     08                        |       .        |      [107]: 8 transition_type 0x267-0x267.7 (1)
0x260|                        07                     |        .       |      [108]: 7 transition_type 0x268-0x268.7 (1)
0x260|                           08                  |         .      |      [109]: 8 transition_type 0x269-0x269.7 (1)
0x260|                              07               |          .     |      [110]: 7 transition_type 0x26a-0x26a.7 (1)
0x260|                                 08            |           .    |      [111]: 8 transition_type 0x26b-0x26b.7 (1)
0x260|                                    07         |            .   |      [112]: 7 transition_type 0x26c-0x26c.7 (1)
0x260|                                       08      |             .  |      [113]: 8 transition_type 0x26d-0x26d.7 (1)
0x260|                                          07   |              . |      [114]: 7 transition_type 0x26e-0x26e.7 (1)
0x260|                                             07|               .|      [115]: 7 transition_type 0x26f-0x26f.7 (1)
     |                                               |                |    local_time_type_records[0:9]: 0x270-0x2a5.7 (54)
     |                                               |                |      [0]{}: local_time_type 0x270-0x275.7 (6)
0x270|00 00 b6 6e                                    |...n            |        utoff: 46702 (valid) 0x270-0x273.7 (4)
0x270|            00                                 |    .           |        dst: 0 (valid) 0x274-0x274.7 (1)
0x270|               00                              |     .          |        idx: 0 (valid) 0x275-0x275.7 (1)
     |                                               |                |      [1]{}: local_time_type 0x276-0x27b.7 (6)
0x270|                  ff ff 65 50                  |      ..eP      |        utoff: -39600 (valid) 0x276-0x279.7 (4)
0x270|                              00               |          .     |        dst: 0 (valid) 0x27a-0x27a.7 (1)
0x270|                                 04            |           .    |        idx: 4 (valid) 0x27b-0x27b.7 (1)
     |                                               |                |      [2]{}: local_time_type 0x27c-0x281.7 (6)
0x270|                                    ff ff 73 60|            ..s`|        utoff: -36000 (valid) 0x27c-0x27f.7 (4)
0x280|01                                             |.               |        dst: 1 (valid) 0x280-0x280.7 (1)
0x280|   08                                          | .              |        idx: 8 (valid) 0x281-0x281.7 (1)
     |                                               |                |      [3]{}: local_time_type 0x282-0x287.7 (6)
0x280|      ff ff 73 60                              |  ..s`          |        utoff: -36000 (valid) 0x282-0x285.7 (4)
0x280|                  01                           |      .         |        dst: 1 (valid) 0x286-0x286.7 (1)
0x280|                     0c                        |       .        |        idx: 12 (valid) 0x287-0x287.7 (1)
     |                                               |                |      [4]{}: local_time_type 0x288-0x28d.7 (6)
0x280|                        ff ff 65 50            |        ..eP    |        utoff: -39600 (valid) 0x288-0x28b.7 (4)
0x280|                                    00         |            .   |        dst: 0 (valid) 0x28c-0x28c.7 (1)
0x280|                                       10      |             .  |        idx: 16 (valid) 0x28d-0x28d.7 (1)
     |                                               |                |      [5]{}: local_time_type 0x28e-0x293.7 (6)
0x280|                                          ff ff|              ..|        utoff: -36000 (valid) 0x28e-0x291.7 (4)
0x290|73 60                                          |s`              |
0x290|      01                                       |  .             |        dst: 1 (valid) 0x292-0x292.7 (1)
0x290|         14                                    |   .            |        idx: 20 (valid) 0x293-0x293.7 (1)
     |                                               |                |      [6]{}: local_time_type 0x294-0x299.7 (6)
0x290|            ff ff 81 70                        |    ...p        |        utoff: -32400 (valid) 0x294-0x297.7 (4)
0x290|                        00                     |        .       |        dst: 0 (valid) 0x298-0x298.7 (1)
0x290|                           18                  |         .      |        idx: 24 (valid) 0x299-0x299.7 (1)
     |                                               |                |      [7]{}: local_time_type 0x29a-0x29f.7 (6)
0x290|                              ff ff 8f 80      |          ....  |        utoff: -28800 (valid) 0x29a-0x29d.7 (4)
0x290|                                          01   |              . |        dst: 1 (valid) 0x29e-0x29e.7 (1)
0x290|                                             1c|               .|        idx: 28 (valid) 0x29f-0x29f.7 (1)
     |                                               |                |      [8]{}: local_time_type 0x2a0-0x2a5.7 (6)
0x2a0|ff ff 81 70                                    |...p            |        utoff: -32400 (valid) 0x2a0-0x2a3.7 (4)
0x2a0|            00                                 |    .           |        dst: 0 (valid) 0x2a4-0x2a4.7 (1)
0x2a0|               21                              |     !          |        idx: 33 (valid) 0x2a5-0x2a5.7 (1)
     |                                               |                |    time_zone_designations[0:9]: 0x2a6-0x2cb.7 (38)
0x2a0|                  4c 4d 54 00                  |      LMT.      |      [0]: "LMT" time_zone_designation 0x2a6-0x2a9.7 (4)
0x2a0|                              4e 53 54 00      |          NST.  |      [1]: "NST" time_zone_designation 0x2aa-0x2ad.7 (4)
0x2a0|                                          4e 57|              NW|      [2]: "NWT" time_zone_designation 0x2ae-0x2b1.7 (4)
0x2b0|54 00                                          |T.              |
0x2b0|      4e 50 54 00                              |  NPT.          |      [3]: "NPT" time_zone_designation 0x2b2-0x2b5.7 (4)
0x2b0|                  42 53 54 00                  |      BST.      |      [4]: "BST" time_zone_designation 0x2b6-0x2b9.7 (4)
0x2b0|                              42 44 54 00      |          BDT.  |      [5]: "BDT" time_zone_designation 0x2ba-0x2bd.7 (4)
0x2b0|                                          59 53|              YS|      [6]: "YST" time_zone_designation 0x2be-0x2c1.7 (4)
0x2c0|54 00                                          |T.              |
0x2c0|      41 4b 44 54 00                           |  AKDT.         |      [7]: "AKDT" time_zone_designation 0x2c2-0x2c6.7 (5)
0x2c0|                     41 4b 53 54 00            |       AKST.    |      [8]: "AKST" time_zone_designation 0x2c7-0x2cb.7 (5)
     |                                               |                |    leap_second_records[0:27]: 0x2cc-0x3a3.7 (216)
     |                                               |                |      [0]{}: leap_second_record 0x2cc-0x2d3.7 (8)
0x2c0|                                    04 b2 58 00|            ..X.|        occur: "1972-07-01T00:00:00Z" (78796800) 0x2cc-0x2cf.7 (4)
0x2d0|00 00 00 01                                    |....            |        corr: 1 0x2d0-0x2d3.7 (4)
     |                                               |                |      [1]{}: leap_second_record 0x2d4-0x2db.7 (8)
0x2d0|            05 a4 ec 01                        |    ....        |        occur: "1973-01-01T00:00:01Z" (94694401) 0x2d4-0x2d7.7 (4)
0x2d0|                        00 00 00 02            |        ....    |        corr: 2 0x2d8-0x2db.7 (4)
     |                                               |                |      [2]{}: leap_second_record 0x2dc-0x2e3.7 (8)
0x2d0|                                    07 86 1f 82|            ....|        occur: "1974-01-01T00:00:02Z" (126230402) 0x2dc-0x2df.7 (4)
0x2e0|00 00 00 03                                    |....            |        corr: 3 0x2e0-0x2e3.7 (4)
     |                                               |                |      [3]{}: leap_second_record 0x2e4-0x2eb.7 (8)
0x2e0|            09 67 53 03                        |    .gS.        |        occur: "1975-01-01T00:00:03Z" (157766403) 0x2e4-0x2e7.7 (4)
0x2e0|                        00 00 00 04            |        ....    |        corr: 4 0x2e8-0x2eb.7 (4)
     |                                               |                |      [4]{}: leap_second_record 0x2ec-0x2f3.7 (8)
0x2e0|                                    0b 48 86 84|            .H..|        occur: "1976-01-01T00:00:04Z" (189302404) 0x2ec-0x2ef.7 (4)
0x2f0|00 00 00 05                                    |....            |        corr: 5 0x2f0-0x2f3.7 (4)
     |                                               |                |      [5]{}: leap_second_record 0x2f4-0x2fb.7 (8)
0x2f0|            0d 2b 0b 85                        |    .+..        |        occur: "1977-01-01T00:00:05Z" (220924805) 0x2f4-0x2f7.7 (4)
0x2f0|                        00 00 00 06            |        ....    |        corr: 6 0x2f8-0x2fb.7 (4)
     |                                               |                |      [6]{}: leap_second_record 0x2fc-0x303.7 (8)
0x2f0|                                    0f 0c 3f 06|            ..?.|        occur: "1978-01-01T00:00:06Z" (252460806) 0x2fc-0x2ff.7 (4)
0x300|00 00 00 07                                    |....            |        corr: 7 0x300-0x303.7 (4)
     |                                               |                |      [7]{}: leap_second_record 0x304-0x30b.7 (8)
0x300|            10 ed 72 87                        |    ..r.        |        occur: "1979-01-01T00:00:07Z" (283996807) 0x304-0x307.7 (4)
0x300|                        00 00 00 08            |        ....    |        corr: 8 0x308-0x30b.7 (4)
     |                                               |                |      [8]{}: leap_second_record 0x30c-0x313.7 (8)
0x300|                                    12 ce a6 08|            ....|        occur: "1980-01-01T00:00:08Z" (315532808) 0x30c-0x30f.7 (4)
0x310|00 00 00 09                                    |....            |        corr: 9 0x310-0x313.7 (4)
     |                                               |                |      [9]{}: leap_second_record 0x314-0x31b.7 (8)
0x310|            15 9f ca 89                        |    ....        |        occur: "1981-07-01T00:00:09Z" (362793609) 0x314-0x317.7 (4)
0x310|                        00 00 00 0a            |        ....    |        corr: 10 0x318-0x31b.7 (4)
     |                                               |                |      [10]{}: leap_second_record 0x31c-0x323.7 (8)
0x310|                                    17 80 fe 0a|            ....|        occur: "1982-07-01T00:00:10Z" (394329610) 0x31c-0x31f.7 (4)
0x320|00 00 00 0b                                    |....            |        corr: 11 0x320-0x323.7 (4)
     |                                               |                |      [11]{}: leap_second_record 0x324-0x32b.7 (8)
0x320|            19 62 31 8b                        |    .b1.        |        occur: "1983-07-01T00:00:11Z" (425865611) 0x324-0x327.7 (4)
0x320|                        00 00 00 0c            |        ....    |        corr: 12 0x328-0x32b.7 (4)
     |                                               |                |      [12]{}: leap_second_record 0x32c-0x333.7 (8)
0x320|                                    1d 25 ea 0c|            .%..|        occur: "1985-07-01T00:00:12Z" (489024012) 0x32c-0x32f.7 (4)
0x330|00 00 00 0d                                    |....            |        corr: 13 0x330-0x333.7 (4)
     |                                               |                |      [13]{}: leap_second_record 0x334-0x33b.7 (8)
0x330|            21 da e5 0d                        |    !...        |        occur: "1988-01-01T00:00:13Z" (567993613) 0x334-0x337.7 (4)
0x330|                        00 00 00 0e            |        ....    |        corr: 14 0x338-0x33b.7 (4)
     |                                               |                |      [14]{}: leap_second_record 0x33c-0x343.7 (8)
0x330|                                    25 9e 9d 8e|            %...|        occur: "1990-01-01T00:00:14Z" (631152014) 0x33c-0x33f.7 (4)
0x340|00 00 00 0f                                    |....            |        corr: 15 0x340-0x343.7 (4)
     |                                               |                |      [15]{}: leap_second_record 0x344-0x34b.7 (8)
0x340|            27 7f d1 0f                        |    '...        |        occur: "1991-01-01T00:00:15Z" (662688015) 0x344-0x347.7 (4)
0x340|                        00 00 00 10            |        ....    |        corr: 16 0x348-0x34b.7 (4)
     |                                               |                |      [16]{}: leap_second_record 0x34c-0x353.7 (8)
0x340|                                    2a 50 f5 90|            *P..|        occur: "1992-07-01T00:00:16Z" (709948816) 0x34c-0x34f.7 (4)
0x350|00 00 00 11                                    |....            |        corr: 17 0x350-0x353.7 (4)
     |                                               |                |      [17]{}: leap_second_record 0x354-0x35b.7 (8)
0x350|            2c 32 29 11                        |    ,2).        |        occur: "1993-07-01T00:00:17Z" (741484817) 0x354-0x357.7 (4)
0x350|                        00 00 00 12            |        ....    |        corr: 18 0x358-0x35b.7 (4)
     |                                               |                |      [18]{}: leap_second_record 0x35c-0x363.7 (8)
0x350|                                    2e 13 5c 92|            ..\.|        occur: "1994-07-01T00:00:18Z" (773020818) 0x35c-0x35f.7 (4)
0x360|00 00 00 13                                    |....            |        corr: 19 0x360-0x363.7 (4)
     |                                               |                |      [19]{}: leap_second_record 0x364-0x36b.7 (8)
0x360|            30 e7 24 13                        |    0.$.        |        occur: "1996-01-01T00:00:19Z" (820454419) 0x364-0x367.7 (4)
0x360|                        00 00 00 14            |        ....    |        corr: 20 0x368-0x36b.7 (4)
     |                                               |                |      [20]{}: leap_second_record 0x36c-0x373.7 (8)
0x360|                                    33 b8 48 94|            3.H.|        occur: "1997-07-01T00:00:20Z" (867715220) 0x36c-0x36f.7 (4)
0x370|00 00 00 15                                    |....            |        corr: 21 0x370-0x373.7 (4)
     |                                               |                |      [21]{}: leap_second_record 0x374-0x37b.7 (8)
0x370|            36 8c 10 15                        |    6...        |        occur: "1999-01-01T00:00:21Z" (915148821) 0x374-0x377.7 (4)
0x370|                        00 00 00 16            |        ....    |        corr: 22 0x378-0x37b.7 (4)
     |                                               |                |      [22]{}: leap_second_record 0x37c-0x383.7 (8)
0x370|                                    43 b7 1b 96|            C...|        occur: "2006-01-01T00:00:22Z" (1136073622) 0x37c-0x37f.7 (4)
0x380|00 00 00 17                                    |....            |        corr: 23 0x380-0x383.7 (4)
     |                                               |                |      [23]{}: leap_second_record 0x384-0x38b.7 (8)
0x380|            49 5c 07 97                        |    I\..        |        occur: "2009-01-01T00:00:23Z" (1230768023) 0x384-0x387.7 (4)
0x380|                        00 00 00 18            |        ....    |        corr: 24 0x388-0x38b.7 (4)
     |                                               |                |      [24]{}: leap_second_record 0x38c-0x393.7 (8)
0x380|                                    4f ef 93 18|            O...|        occur: "2012-07-01T00:00:24Z" (1341100824) 0x38c-0x38f.7 (4)
0x390|00 00 00 19                                    |....            |        corr: 25 0x390-0x393.7 (4)
     |                                               |                |      [25]{}: leap_second_record 0x394-0x39b.7 (8)
0x390|            55 93 2d 99                        |    U.-.        |        occur: "2015-07-01T00:00:25Z" (1435708825) 0x394-0x397.7 (4)
0x390|                        00 00 00 1a            |        ....    |        corr: 26 0x398-0x39b.7 (4)
     |                                               |                |      [26]{}: leap_second_record 0x39c-0x3a3.7 (8)
0x390|                                    58 68 46 9a|            XhF.|        occur: "2017-01-01T00:00:26Z" (1483228826) 0x39c-0x39f.7 (4)
0x3a0|00 00 00 1b                                    |....            |        corr: 27 0x3a0-0x3a3.7 (4)
     |                                               |                |    standard_wall_indicators[0:9]: 0x3a4-0x3ac.7 (9)
0x3a0|            00                                 |    .           |      [0]: 0 standard_wall_indicator (valid) 0x3a4-0x3a4.7 (1)
0x3a0|               00                              |     .          |      [1]: 0 standard_wall_indicator (valid) 0x3a5-0x3a5.7 (1)
0x3a0|                  00                           |      .         |      [2]: 0 standard_wall_indicator (valid) 0x3a6-0x3a6.7 (1)
0x3a0|                     01                        |       .        |      [3]: 1 standard_wall_indicator (valid) 0x3a7-0x3a7.7 (1)
0x3a0|                        00                     |        .       |      [4]: 0 standard_wall_indicator (valid) 0x3a8-0x3a8.7 (1)
0x3a0|                           00                  |         .      |      [5]: 0 standard_wall_indicator (valid) 0x3a9-0x3a9.7 (1)
0x3a0|                              00               |          .     |      [6]: 0 standard_wall_indicator (valid) 0x3aa-0x3aa.7 (1)
0x3a0|                                 00            |           .    |      [7]: 0 standard_wall_indicator (valid) 0x3ab-0x3ab.7 (1)
0x3a0|                                    00         |            .   |      [8]: 0 standard_wall_indicator (valid) 0x3ac-0x3ac.7 (1)
     |                                               |                |    ut_local_indicators[0:9]: 0x3ad-0x3b5.7 (9)
0x3a0|                                       00      |             .  |      [0]: 0 ut_local_indicator (valid) 0x3ad-0x3ad.7 (1)
0x3a0|                                          00   |              . |      [1]: 0 ut_local_indicator (valid) 0x3ae-0x3ae.7 (1)
0x3a0|                                             00|               .|      [2]: 0 ut_local_indicator (valid) 0x3af-0x3af.7 (1)
0x3b0|01                                             |.               |      [3]: 1 ut_local_indicator (valid) 0x3b0-0x3b0.7 (1)
0x3b0|   00                                          | .              |      [4]: 0 ut_local_indicator (valid) 0x3b1-0x3b1.7 (1)
0x3b0|      00                                       |  .             |      [5]: 0 ut_local_indicator (valid) 0x3b2-0x3b2.7 (1)
0x3b0|         00                                    |   .            |      [6]: 0 ut_local_indicator (valid) 0x3b3-0x3b3.7 (1)
0x3b0|            00                                 |    .           |      [7]: 0 ut_local_indicator (valid) 0x3b4-0x3b4.7 (1)
0x3b0|               00                              |     .          |      [8]: 0 ut_local_indicator (valid) 0x3b5-0x3b5.7 (1)
     |                                               |                |  v2plusheader{}: 0x3b6-0x3e1.7 (44)
0x3b0|                  54 5a 69 66                  |      TZif      |    magic: 0x545a6966 (valid) 0x3b6-0x3b9.7 (4)
0x3b0|                              32               |          2     |    ver: "2" (0x32) (valid) 0x3ba-0x3ba.7 (1)
0x3b0|                                 00 00 00 00 00|           .....|    reserved: raw bits 0x3bb-0x3c9.7 (15)
0x3c0|00 00 00 00 00 00 00 00 00 00                  |..........      |
0x3c0|                              00 00 00 0a      |          ....  |    isutcnt: 10 0x3ca-0x3cd.7 (4)
0x3c0|                                          00 00|              ..|    isstdcnt: 10 0x3ce-0x3d1.7 (4)
0x3d0|00 0a                                          |..              |
0x3d0|      00 00 00 1b                              |  ....          |    leapcnt: 27 0x3d2-0x3d5.7 (4)
0x3d0|                  00 00 00 75                  |      ...u      |    timecnt: 117 0x3d6-0x3d9.7 (4)
0x3d0|                              00 00 00 0a      |          ....  |    typecnt: 10 0x3da-0x3dd.7 (4)
0x3d0|                                          00 00|              ..|    charcnt: 38 0x3de-0x3e1.7 (4)
0x3e0|00 26                                          |.&              |
     |                                               |                |  v2plusdatablock{}: 0x3e2-0x9b8.7 (1495)
     |                                               |                |    transition_times[0:117]: 0x3e2-0x789.7 (936)
0x3e0|      ff ff ff ff 3f c2 fd d1                  |  ....?...      |      [0]: "1867-10-19T00:31:13Z" (-3225223727) transition_time 0x3e2-0x3e9.7 (8)
0x3e0|                              ff ff ff ff 7d 87|          ....}.|      [1]: "1900-08-20T23:01:38Z" (-2188947502) transition_time 0x3ea-0x3f1.7 (8)
0x3f0|4f d2                                          |O.              |
0x3f0|      ff ff ff ff cb 89 44 d0                  |  ......D.      |      [2]: "1942-02-09T13:00:00Z" (-880196400) transition_time 0x3f2-0x3f9.7 (8)
0x3f0|                              ff ff ff ff d2 23|          .....#|      [3]: "1945-08-14T23:00:00Z" (-769395600) transition_time 0x3fa-0x401.7 (8)
0x400|f4 70                                          |.p              |
0x400|      ff ff ff ff d2 61 50 40                  |  .....aP@      |      [4]: "1945-09-30T12:00:00Z" (-765374400) transition_time 0x402-0x409.7 (8)
0x400|                              ff ff ff ff fa d2|          ......|      [5]: "1967-04-01T11:00:00Z" (-86878800) transition_time 0x40a-0x411.7 (8)
0x410|55 b0                                          |U.              |
0x410|      ff ff ff ff fe b8 71 50                  |  ......qP      |      [6]: "1969-04-27T13:00:00Z" (-21466800) transition_time 0x412-0x419.7 (8)
0x410|                              ff ff ff ff ff a8|          ......|      [7]: "1969-10-26T12:00:00Z" (-5745600) transition_time 0x41a-0x421.7 (8)
0x420|54 40                                          |T@              |
0x420|      00 00 00 00 00 98 53 50                  |  ......SP      |      [8]: "1970-04-26T13:00:00Z" (9982800) transition_time 0x422-0x429.7 (8)
0x420|                              00 00 00 00 01 88|          ......|      [9]: "1970-10-25T12:00:00Z" (25704000) transition_time 0x42a-0x431.7 (8)
0x430|36 40                                          |6@              |
0x430|      00 00 00 00 02 78 35 50                  |  .....x5P      |      [10]: "1971-04-25T13:00:00Z" (41432400) transition_time 0x432-0x439.7 (8)
0x430|                              00 00 00 00 03 71|          .....q|      [11]: "1971-10-31T12:00:00Z" (57758400) transition_time 0x43a-0x441.7 (8)
0x440|52 c0                                          |R.              |
0x440|      00 00 00 00 04 61 51 d0                  |  .....aQ.      |      [12]: "1972-04-30T13:00:00Z" (73486800) transition_time 0x442-0x449.7 (8)
0x440|                              00 00 00 00 05 51|          .....Q|      [13]: "1972-10-29T12:00:01Z" (89208001) transition_time 0x44a-0x451.7 (8)
0x450|34 c1                                          |4.              |
0x450|      00 00 00 00 06 41 33 d2                  |  .....A3.      |      [14]: "1973-04-29T13:00:02Z" (104936402) transition_time 0x452-0x459.7 (8)
0x450|                              00 00 00 00 07 31|          .....1|      [15]: "1973-10-28T12:00:02Z" (120657602) transition_time 0x45a-0x461.7 (8)
0x460|16 c2                                          |..              |
0x460|      00 00 00 00 07 8d 6d d3                  |  ......m.      |      [16]: "1974-01-06T13:00:03Z" (126709203) transition_time 0x462-0x469.7 (8)
0x460|                              00 00 00 00 09 10|          ......|      [17]: "1974-10-27T12:00:03Z" (152107203) transition_time 0x46a-0x471.7 (8)
0x470|f8 c3                                          |..              |
0x470|      00 00 00 00 09 ad e9 54                  |  .......T      |      [18]: "1975-02-23T13:00:04Z" (162392404) transition_time 0x472-0x479.7 (8)
0x470|                              00 00 00 00 0a f0|          ......|      [19]: "1975-10-26T12:00:04Z" (183556804) transition_time 0x47a-0x481.7 (8)
0x480|da c4                                          |..              |
0x480|      00 00 00 00 0b e0 d9 d5                  |  ........      |      [20]: "1976-04-25T13:00:05Z" (199285205) transition_time 0x482-0x489.7 (8)
0x480|                              00 00 00 00 0c d9|          ......|      [21]: "1976-10-31T12:00:05Z" (215611205) transition_time 0x48a-0x491.7 (8)
0x490|f7 45                                          |.E              |
0x490|      00 00 00 00 0d c0 bb d6                  |  ........      |      [22]: "1977-04-24T13:00:06Z" (230734806) transition_time 0x492-0x499.7 (8)
0x490|                              00 00 00 00 0e b9|          ......|      [23]: "1977-10-30T12:00:06Z" (247060806) transition_time 0x49a-0x4a1.7 (8)
0x4a0|d9 46                                          |.F              |
0x4a0|      00 00 00 00 0f a9 d8 57                  |  .......W      |      [24]: "1978-04-30T13:00:07Z" (262789207) transition_time 0x4a2-0x4a9.7 (8)
0x4a0|                              00 00 00 00 10 99|          ......|      [25]: "1978-10-29T12:00:07Z" (278510407) transition_time 0x4aa-0x4b1.7 (8)
0x4b0|bb 47                                          |.G              |
0x4b0|      00 00 00 00 11 89 ba 58                  |  .......X      |      [26]: "1979-04-29T13:00:08Z" (294238808) transition_time 0x4b2-0x4b9.7 (8)
0x4b0|                              00 00 00 00 12 79|          .....y|      [27]: "1979-10-28T12:00:08Z" (309960008) transition_time 0x4ba-0x4c1.7 (8)
0x4c0|9d 48                                          |.H              |
0x4c0|      00 00 00 00 13 69 9c 59                  |  .....i.Y      |      [28]: "1980-04-27T13:00:09Z" (325688409) transition_time 0x4c2-0x4c9.7 (8)
0x4c0|                              00 00 00 00 14 59|          .....Y|      [29]: "1980-10-26T12:00:09Z" (341409609) transition_time 0x4ca-0x4d1.7 (8)
0x4d0|7f 49                                          |.I              |
0x4d0|      00 00 00 00 15 49 7e 59                  |  .....I~Y      |      [30]: "1981-04-26T13:00:09Z" (357138009) transition_time 0x4d2-0x4d9.7 (8)
0x4d0|                              00 00 00 00 16 39|          .....9|      [31]: "1981-10-25T12:00:10Z" (372859210) transition_time 0x4da-0x4e1.7 (8)
0x4e0|61 4a                                          |aJ              |
0x4e0|      00 00 00 00 17 29 60 5a                  |  .....)`Z      |      [32]: "1982-04-25T13:00:10Z" (388587610) transition_time 0x4e2-0x4e9.7 (8)
0x4e0|                              00 00 00 00 18 22|          ....."|      [33]: "1982-10-31T12:00:11Z" (404913611) transition_time 0x4ea-0x4f1.7 (8)
0x4f0|7d cb                                          |}.              |
0x4f0|      00 00 00 00 19 09 42 5b                  |  ......B[      |      [34]: "1983-04-24T13:00:11Z" (420037211) transition_time 0x4f2-0x4f9.7 (8)
0x4f0|                              00 00 00 00 1a 02|          ......|      [35]: "1983-10-30T12:00:12Z" (436363212) transition_time 0x4fa-0x501.7 (8)
0x500|5f cc                                          |_.              |
0x500|      00 00 00 00 1a 2b 14 1c                  |  .....+..      |      [36]: "1983-11-30T09:00:12Z" (439030812) transition_time 0x502-0x509.7 (8)
0x500|                              00 00 00 00 1a f2|          ......|      [37]: "1984-04-29T11:00:12Z" (452084412) transition_time 0x50a-0x511.7 (8)
0x510|42 bc                                          |B.              |
0x510|      00 00 00 00 1b e2 25 ac                  |  ......%.      |      [38]: "1984-10-28T10:00:12Z" (467805612) transition_time 0x512-0x519.7 (8)
0x510|                              00 00 00 00 1c d2|          ......|      [39]: "1985-04-28T11:00:12Z" (483534012) transition_time 0x51a-0x521.7 (8)
0x520|24 bc                                          |$.              |
0x520|      00 00 00 00 1d c2 07 ad                  |  ........      |      [40]: "1985-10-27T10:00:13Z" (499255213) transition_time 0x522-0x529.7 (8)
0x520|                              00 00 00 00 1e b2|          ......|      [41]: "1986-04-27T11:00:13Z" (514983613) transition_time 0x52a-0x531.7 (8)
0x530|06 bd                                          |..              |
0x530|      00 00 00 00 1f a1 e9 ad                  |  ........      |      [42]: "1986-10-26T10:00:13Z" (530704813) transition_time 0x532-0x539.7 (8)
0x530|                              00 00 00 00 20 76|          .... v|      [43]: "1987-04-05T11:00:13Z" (544618813) transition_time 0x53a-0x541.7 (8)
0x540|39 3d                                          |9=              |
0x540|      00 00 00 00 21 81 cb ad                  |  ....!...      |      [44]: "1987-10-25T10:00:13Z" (562154413) transition_time 0x542-0x549.7 (8)
0x540|                              00 00 00 00 22 56|          ...."V|      [45]: "1988-04-03T11:00:14Z" (576068414) transition_time 0x54a-0x551.7 (8)
0x550|1b 3e                                          |.>              |
0x550|      00 00 00 00 23 6a e8 2e                  |  ....#j..      |      [46]: "1988-10-30T10:00:14Z" (594208814) transition_time 0x552-0x559.7 (8)
0x550|                              00 00 00 00 24 35|          ....$5|      [47]: "1989-04-02T11:00:14Z" (607518014) transition_time 0x55a-0x561.7 (8)
0x560|fd 3e                                          |.>              |
0x560|      00 00 00 00 25 4a ca 2e                  |  ....%J..      |      [48]: "1989-10-29T10:00:14Z" (625658414) transition_time 0x562-0x569.7 (8)
0x560|                              00 00 00 00 26 15|          ....&.|      [49]: "1990-04-01T11:00:15Z" (638967615) transition_time 0x56a-0x571.7 (8)
0x570|df 3f                                          |.?              |
0x570|      00 00 00 00 27 2a ac 2f                  |  ....'*./      |      [50]: "1990-10-28T10:00:15Z" (657108015) transition_time 0x572-0x579.7 (8)
0x570|                              00 00 00 00 27 fe|          ....'.|      [51]: "1991-04-07T11:00:16Z" (671022016) transition_time 0x57a-0x581.7 (8)
0x580|fb c0                                          |..              |
0x580|      00 00 00 00 29 0a 8e 30                  |  ....)..0      |      [52]: "1991-10-27T10:00:16Z" (688557616) transition_time 0x582-0x589.7 (8)
0x580|                              00 00 00 00 29 de|          ....).|      [53]: "1992-04-05T11:00:16Z" (702471616) transition_time 0x58a-0x591.7 (8)
0x590|dd c0                                          |..              |
0x590|      00 00 00 00 2a ea 70 31                  |  ....*.p1      |      [54]: "1992-10-25T10:00:17Z" (720007217) transition_time 0x592-0x599.7 (8)
0x590|                              00 00 00 00 2b be|          ....+.|      [55]: "1993-04-04T11:00:17Z" (733921217) transition_time 0x59a-0x5a1.7 (8)
0x5a0|bf c1                                          |..              |
0x5a0|      00 00 00 00 2c d3 8c b2                  |  ....,...      |      [56]: "1993-10-31T10:00:18Z" (752061618) transition_time 0x5a2-0x5a9.7 (8)
0x5a0|                              00 00 00 00 2d 9e|          ....-.|      [57]: "1994-04-03T11:00:18Z" (765370818) transition_time 0x5aa-0x5b1.7 (8)
0x5b0|a1 c2                                          |..              |
0x5b0|      00 00 00 00 2e b3 6e b3                  |  ......n.      |      [58]: "1994-10-30T10:00:19Z" (783511219) transition_time 0x5b2-0x5b9.7 (8)
0x5b0|                              00 00 00 00 2f 7e|          ..../~|      [59]: "1995-04-02T11:00:19Z" (796820419) transition_time 0x5ba-0x5c1.7 (8)
0x5c0|83 c3                                          |..              |
0x5c0|      00 00 00 00 30 93 50 b3                  |  ....0.P.      |      [60]: "1995-10-29T10:00:19Z" (814960819) transition_time 0x5c2-0x5c9.7 (8)
0x5c0|                              00 00 00 00 31 67|          ....1g|      [61]: "1996-04-07T11:00:20Z" (828874820) transition_time 0x5ca-0x5d1.7 (8)
0x5d0|a0 44                                          |.D              |
0x5d0|      00 00 00 00 32 73 32 b4                  |  ....2s2.      |      [62]: "1996-10-27T10:00:20Z" (846410420) transition_time 0x5d2-0x5d9.7 (8)
0x5d0|                              00 00 00 00 33 47|          ....3G|      [63]: "1997-04-06T11:00:20Z" (860324420) transition_time 0x5da-0x5e1.7 (8)
0x5e0|82 44                                          |.D              |
0x5e0|      00 00 00 00 34 53 14 b5                  |  ....4S..      |      [64]: "1997-10-26T10:00:21Z" (877860021) transition_time 0x5e2-0x5e9.7 (8)
0x5e0|                              00 00 00 00 35 27|          ....5'|      [65]: "1998-04-05T11:00:21Z" (891774021) transition_time 0x5ea-0x5f1.7 (8)
0x5f0|64 45                                          |dE              |
0x5f0|      00 00 00 00 36 32 f6 b5                  |  ....62..      |      [66]: "1998-10-25T10:00:21Z" (909309621) transition_time 0x5f2-0x5f9.7 (8)
0x5f0|                              00 00 00 00 37 07|          ....7.|      [67]: "1999-04-04T11:00:22Z" (923223622) transition_time 0x5fa-0x601.7 (8)
0x600|46 46                                          |FF              |
0x600|      00 00 00 00 38 1c 13 36                  |  ....8..6      |      [68]: "1999-10-31T10:00:22Z" (941364022) transition_time 0x602-0x609.7 (8)
0x600|                              00 00 00 00 38 e7|          ....8.|      [69]: "2000-04-02T11:00:22Z" (954673222) transition_time 0x60a-0x611.7 (8)
0x610|28 46                                          |(F              |
0x610|      00 00 00 00 39 fb f5 36                  |  ....9..6      |      [70]: "2000-10-29T10:00:22Z" (972813622) transition_time 0x612-0x619.7 (8)
0x610|                              00 00 00 00 3a c7|          ....:.|      [71]: "2001-04-01T11:00:22Z" (986122822) transition_time 0x61a-0x621.7 (8)
0x620|0a 46                                          |.F              |
0x620|      00 00 00 00 3b db d7 36                  |  ....;..6      |      [72]: "2001-10-28T10:00:22Z" (1004263222) transition_time 0x622-0x629.7 (8)
0x620|                              00 00 00 00 3c b0|          ....<.|      [73]: "2002-04-07T11:00:22Z" (1018177222) transition_time 0x62a-0x631.7 (8)
0x630|26 c6                                          |&.              |
0x630|      00 00 00 00 3d bb b9 36                  |  ....=..6      |      [74]: "2002-10-27T10:00:22Z" (1035712822) transition_time 0x632-0x639.7 (8)
0x630|                              00 00 00 00 3e 90|          ....>.|      [75]: "2003-04-06T11:00:22Z" (1049626822) transition_time 0x63a-0x641.7 (8)
0x640|08 c6                                          |..              |
0x640|      00 00 00 00 3f 9b 9b 36                  |  ....?..6      |      [76]: "2003-10-26T10:00:22Z" (1067162422) transition_time 0x642-0x649.7 (8)
0x640|                              00 00 00 00 40 6f|          ....@o|      [77]: "2004-04-04T11:00:22Z" (1081076422) transition_time 0x64a-0x651.7 (8)
0x650|ea c6                                          |..              |
0x650|      00 00 00 00 41 84 b7 b6                  |  ....A...      |      [78]: "2004-10-31T10:00:22Z" (1099216822) transition_time 0x652-0x659.7 (8)
0x650|                              00 00 00 00 42 4f|          ....BO|      [79]: "2005-04-03T11:00:22Z" (1112526022) transition_time 0x65a-0x661.7 (8)
0x660|cc c6                                          |..              |
0x660|      00 00 00 00 43 64 99 b6                  |  ....Cd..      |      [80]: "2005-10-30T10:00:22Z" (1130666422) transition_time 0x662-0x669.7 (8)
0x660|                              00 00 00 00 44 2f|          ....D/|      [81]: "2006-04-02T11:00:23Z" (1143975623) transition_time 0x66a-0x671.7 (8)
0x670|ae c7                                          |..              |
0x670|      00 00 00 00 45 44 7b b7                  |  ....ED{.      |      [82]: "2006-10-29T10:00:23Z" (1162116023) transition_time 0x672-0x679.7 (8)
0x670|                              00 00 00 00 45 f3|          ....E.|      [83]: "2007-03-11T11:00:23Z" (1173610823) transition_time 0x67a-0x681.7 (8)
0x680|e1 47                                          |.G              |
0x680|      00 00 00 00 47 2d 98 37                  |  ....G-.7      |      [84]: "2007-11-04T10:00:23Z" (1194170423) transition_time 0x682-0x689.7 (8)
0x680|                              00 00 00 00 47 d3|          ....G.|      [85]: "2008-03-09T11:00:23Z" (1205060423) transition_time 0x68a-0x691.7 (8)
0x690|c3 47                                          |.G              |
0x690|      00 00 00 00 49 0d 7a 37                  |  ....I.z7      |      [86]: "2008-11-02T10:00:23Z" (1225620023) transition_time 0x692-0x699.7 (8)
0x690|                              00 00 00 00 49 b3|          ....I.|      [87]: "2009-03-08T11:00:24Z" (1236510024) transition_time 0x69a-0x6a1.7 (8)
0x6a0|a5 48                                          |.H              |
0x6a0|      00 00 00 00 4a ed 5c 38                  |  ....J.\8      |      [88]: "2009-11-01T10:00:24Z" (1257069624) transition_time 0x6a2-0x6a9.7 (8)
0x6a0|                              00 00 00 00 4b 9c|          ....K.|      [89]: "2010-03-14T11:00:24Z" (1268564424) transition_time 0x6aa-0x6b1.7 (8)
0x6b0|c1 c8                                          |..              |
0x6b0|      00 00 00 00 4c d6 78 b8                  |  ....L.x.      |      [90]: "2010-11-07T10:00:24Z" (1289124024) transition_time 0x6b2-0x6b9.7 (8)
0x6b0|                              00 00 00 00 4d 7c|          ....M||      [91]: "2011-03-13T11:00:24Z" (1300014024) transition_time 0x6ba-0x6c1.7 (8)
0x6c0|a3 c8                                          |..              |
0x6c0|      00 00 00 00 4e b6 5a b8                  |  ....N.Z.      |      [92]: "2011-11-06T10:00:24Z" (1320573624) transition_time 0x6c2-0x6c9.7 (8)
0x6c0|                              00 00 00 00 4f 5c|          ....O\|      [93]: "2012-03-11T11:00:24Z" (1331463624) transition_time 0x6ca-0x6d1.7 (8)
0x6d0|85 c8                                          |..              |
0x6d0|      00 00 00 00 50 96 3c b9                  |  ....P.<.      |      [94]: "2012-11-04T10:00:25Z" (1352023225) transition_time 0x6d2-0x6d9.7 (8)
0x6d0|                              00 00 00 00 51 3c|          ....Q<|      [95]: "2013-03-10T11:00:25Z" (1362913225) transition_time 0x6da-0x6e1.7 (8)
0x6e0|67 c9                                          |g.              |
0x6e0|      00 00 00 00 52 76 1e b9                  |  ....Rv..      |      [96]: "2013-11-03T10:00:25Z" (1383472825) transition_time 0x6e2-0x6e9.7 (8)
0x6e0|                              00 00 00 00 53 1c|          ....S.|      [97]: "2014-03-09T11:00:25Z" (1394362825) transition_time 0x6ea-0x6f1.7 (8)
0x6f0|49 c9                                          |I.              |
0x6f0|      00 00 00 00 54 56 00 b9                  |  ....TV..      |      [98]: "2014-11-02T10:00:25Z" (1414922425) transition_time 0x6f2-0x6f9.7 (8)
0x6f0|                              00 00 00 00 54 fc|          ....T.|      [99]: "2015-03-08T11:00:25Z" (1425812425) transition_time 0x6fa-0x701.7 (8)
0x700|2b c9                                          |+.              |
0x700|      00 00 00 00 56 35 e2 ba                  |  ....V5..      |      [100]: "2015-11-01T10:00:26Z" (1446372026) transition_time 0x702-0x709.7 (8)
0x700|                              00 00 00 00 56 e5|          ....V.|      [101]: "2016-03-13T11:00:26Z" (1457866826) transition_time 0x70a-0x711.7 (8)
0x710|48 4a                                          |HJ              |
0x710|      00 00 00 00 58 1e ff 3a                  |  ....X..:      |      [102]: "2016-11-06T10:00:26Z" (1478426426) transition_time 0x712-0x719.7 (8)
0x710|                              00 00 00 00 58 c5|          ....X.|      [103]: "2017-03-12T11:00:27Z" (1489316427) transition_time 0x71a-0x721.7 (8)
0x720|2a 4b                                          |*K              |
0x720|      00 00 00 00 59 fe e1 3b                  |  ....Y..;      |      [104]: "2017-11-05T10:00:27Z" (1509876027) transition_time 0x722-0x729.7 (8)
0x720|                              00 00 00 00 5a a5|          ....Z.|      [105]: "2018-03-11T11:00:27Z" (1520766027) transition_time 0x72a-0x731.7 (8)
0x730|0c 4b                                          |.K              |
0x730|      00 00 00 00 5b de c3 3b                  |  ....[..;      |      [106]: "2018-11-04T10:00:27Z" (1541325627) transition_time 0x732-0x739.7 (8)
0x730|                              00 00 00 00 5c 84|          ....\.|      [107]: "2019-03-10T11:00:27Z" (1552215627) transition_time 0x73a-0x741.7 (8)
0x740|ee 4b                                          |.K              |
0x740|      00 00 00 00 5d be a5 3b                  |  ....]..;      |      [108]: "2019-11-03T10:00:27Z" (1572775227) transition_time 0x742-0x749.7 (8)
0x740|                              00 00 00 00 5e 64|          ....^d|      [109]: "2020-03-08T11:00:27Z" (1583665227) transition_time 0x74a-0x751.7 (8)
0x750|d0 4b                                          |.K              |
0x750|      00 00 00 00 5f 9e 87 3b                  |  ...._..;      |      [110]: "2020-11-01T10:00:27Z" (1604224827) transition_time 0x752-0x759.7 (8)
0x750|                              00 00 00 00 60 4d|          ....`M|      [111]: "2021-03-14T11:00:27Z" (1615719627) transition_time 0x75a-0x761.7 (8)
0x760|ec cb                                          |..              |
0x760|      00 00 00 00 61 87 a3 bb                  |  ....a...      |      [112]: "2021-11-07T10:00:27Z" (1636279227) transition_time 0x762-0x769.7 (8)
0x760|                              00 00 00 00 62 2d|          ....b-|      [113]: "2022-03-13T11:00:27Z" (1647169227) transition_time 0x76a-0x771.7 (8)
0x770|ce cb                                          |..              |
0x770|      00 00 00 00 63 67 85 bb                  |  ....cg..      |      [114]: "2022-11-06T10:00:27Z" (1667728827) transition_time 0x772-0x779.7 (8)
0x770|                              00 00 00 00 64 0d|          ....d.|      [115]: "2023-03-12T11:00:27Z" (1678618827) transition_time 0x77a-0x781.7 (8)
0x780|b0 cb                                          |..              |
0x780|      00 00 00 00 64 9b 78 1b                  |  ....d.x.      |      [116]: "2023-06-28T00:00:27Z" (1687910427) transition_time 0x782-0x789.7 (8)
     |                                               |                |    transition_types[0:117]: 0x78a-0x7fe.7 (117)
0x780|                              01               |          .     |      [0]: 1 transition_type 0x78a-0x78a.7 (1)
0x780|                                 02            |           .    |      [1]: 2 transition_type 0x78b-0x78b.7 (1)
0x780|                                    03         |            .   |      [2]: 3 transition_type 0x78c-0x78c.7 (1)
0x780|                                       04      |             .  |      [3]: 4 transition_type 0x78d-0x78d.7 (1)
0x780|                                          02   |              . |      [4]: 2 transition_type 0x78e-0x78e.7 (1)
0x780|                                             05|               .|      [5]: 5 transition_type 0x78f-0x78f.7 (1)
0x790|06                                             |.               |      [6]: 6 transition_type 0x790-0x790.7 (1)
0x790|   05                                          | .              |      [7]: 5 transition_type 0x791-0x791.7 (1)
0x790|      06                                       |  .             |      [8]: 6 transition_type 0x792-0x792.7 (1)
0x790|         05                                    |   .            |      [9]: 5 transition_type 0x793-0x793.7 (1)
0x790|            06                                 |    .           |      [10]: 6 transition_type 0x794-0x794.7 (1)
0x790|               05                              |     .          |      [11]: 5 transition_type 0x795-0x795.7 (1)
0x790|                  06                           |      .         |      [12]: 6 transition_type 0x796-0x796.7 (1)
0x790|                     05                        |       .        |      [13]: 5 transition_type 0x797-0x797.7 (1)
0x790|                        06                     |        .       |      [14]: 6 transition_type 0x798-0x798.7 (1)
0x790|                           05                  |         .      |      [15]: 5 transition_type 0x799-0x799.7 (1)
0x790|                              06               |          .     |      [16]: 6 transition_type 0x79a-0x79a.7 (1)
0x790|                                 05            |           .    |      [17]: 5 transition_type 0x79b-0x79b.7 (1)
0x790|                                    06         |            .   |      [18]: 6 transition_type 0x79c-0x79c.7 (1)
0x790|                                       05      |             .  |      [19]: 5 transition_type 0x79d-0x79d.7 (1)
0x790|                                          06   |              . |      [20]: 6 transition_type 0x79e-0x79e.7 (1)
0x790|                                             05|               .|      [21]: 5 transition_type 0x79f-0x79f.7 (1)
0x7a0|06                                             |.               |      [22]: 6 transition_type 0x7a0-0x7a0.7 (1)
0x7a0|   05                                          | .              |      [23]: 5 transition_type 0x7a1-0x7a1.7 (1)
0x7a0|      06                                       |  .             |      [24]: 6 transition_type 0x7a2-0x7a2.7 (1)
0x7a0|         05                                    |   .            |      [25]: 5 transition_type 0x7a3-0x7a3.7 (1)
0x7a0|            06                                 |    .           |      [26]: 6 transition_type 0x7a4-0x7a4.7 (1)
0x7a0|               05                              |     .          |      [27]: 5 transition_type 0x7a5-0x7a5.7 (1)
0x7a0|                  06                           |      .         |      [28]: 6 transition_type 0x7a6-0x7a6.7 (1)
0x7a0|                     05                        |       .        |      [29]: 5 transition_type 0x7a7-0x7a7.7 (1)
0x7a0|                        06                     |        .       |      [30]: 6 transition_type 0x7a8-0x7a8.7 (1)
0x7a0|                           05                  |         .      |      [31]: 5 transition_type 0x7a9-0x7a9.7 (1)
0x7a0|                              06               |          .     |      [32]: 6 transition_type 0x7aa-0x7aa.7 (1)
0x7a0|                                 05            |           .    |      [33]: 5 transition_type 0x7ab-0x7ab.7 (1)
0x7a0|                                    06         |            .   |      [34]: 6 transition_type 0x7ac-0x7ac.7 (1)
0x7a0|                                       07      |             .  |      [35]: 7 transition_type 0x7ad-0x7ad.7 (1)
0x7a0|                                          09   |              . |      [36]: 9 transition_type 0x7ae-0x7ae.7 (1)
0x7a0|                                             08|               .|      [37]: 8 transition_type 0x7af-0x7af.7 (1)
0x7b0|09                                             |.               |      [38]: 9 transition_type 0x7b0-0x7b0.7 (1)
0x7b0|   08                                          | .              |      [39]: 8 transition_type 0x7b1-0x7b1.7 (1)
0x7b0|      09                                       |  .             |      [40]: 9 transition_type 0x7b2-0x7b2.7 (1)
0x7b0|         08                                    |   .            |      [41]: 8 transition_type 0x7b3-0x7b3.7 (1)
0x7b0|            09                                 |    .           |      [42]: 9 transition_type 0x7b4-0x7b4.7 (1)
0x7b0|               08                              |     .          |      [43]: 8 transition_type 0x7b5-0x7b5.7 (1)
0x7b0|                  09                           |      .         |      [44]: 9 transition_type 0x7b6-0x7b6.7 (1)
0x7b0|                     08                        |       .        |      [45]: 8 transition_type 0x7b7-0x7b7.7 (1)
0x7b0|                        09                     |        .       |      [46]: 9 transition_type 0x7b8-0x7b8.7 (1)
0x7b0|                           08                  |         .      |      [47]: 8 transition_type 0x7b9-0x7b9.7 (1)
0x7b0|                              09               |          .     |      [48]: 9 transition_type 0x7ba-0x7ba.7 (1)
0x7b0|                                 08            |           .    |      [49]: 8 transition_type 0x7bb-0x7bb.7 (1)
0x7b0|                                    09         |            .   |      [50]: 9 transition_type 0x7bc-0x7bc.7 (1)
0x7b0|                                       08      |             .  |      [51]: 8 transition_type 0x7bd-0x7bd.7 (1)
0x7b0|                                          09   |              . |      [52]: 9 transition_type 0x7be-0x7be.7 (1)
0x7b0|                                             08|               .|      [53]: 8 transition_type 0x7bf-0x7bf.7 (1)
0x7c0|09                                             |.               |      [54]: 9 transition_type 0x7c0-0x7c0.7 (1)
0x7c0|   08                                          | .              |      [55]: 8 transition_type 0x7c1-0x7c1.7 (1)
0x7c0|      09                                       |  .             |      [56]: 9 transition_type 0x7c2-0x7c2.7 (1)
0x7c0|         08                                    |   .            |      [57]: 8 transition_type 0x7c3-0x7c3.7 (1)
0x7c0|            09                                 |    .           |      [58]: 9 transition_type 0x7c4-0x7c4.7 (1)
0x7c0|               08                              |     .          |      [59]: 8 transition_type 0x7c5-0x7c5.7 (1)
0x7c0|                  09                           |      .         |      [60]: 9 transition_type 0x7c6-0x7c6.7 (1)
0x7c0|                     08                        |       .        |      [61]: 8 transition_type 0x7c7-0x7c7.7 (1)
0x7c0|                        09                     |        .       |      [62]: 9 transition_type 0x7c8-0x7c8.7 (1)
0x7c0|                           08                  |         .      |      [63]: 8 transition_type 0x7c9-0x7c9.7 (1)
0x7c0|                              09               |          .     |      [64]: 9 transition_type 0x7ca-0x7ca.7 (1)
0x7c0|                                 08            |           .    |      [65]: 8 transition_type 0x7cb-0x7cb.7 (1)
0x7c0|                                    09         |            .   |      [66]: 9 transition_type 0x7cc-0x7cc.7 (1)
0x7c0|                                       08      |             .  |      [67]: 8 transition_type 0x7cd-0x7cd.7 (1)
0x7c0|                                          09   |              . |      [68]: 9 transition_type 0x7ce-0x7ce.7 (1)
0x7c0|                                             08|               .|      [69]: 8 transition_type 0x7cf-0x7cf.7 (1)
0x7d0|09                                             |.               |      [70]: 9 transition_type 0x7d0-0x7d0.7 (1)
0x7d0|   08                                          | .              |      [71]: 8 transition_type 0x7d1-0x7d1.7 (1)
0x7d0|      09                                       |  .             |      [72]: 9 transition_type 0x7d2-0x7d2.7 (1)
0x7d0|         08                                    |   .            |      [73]: 8 transition_type 0x7d3-0x7d3.7 (1)
0x7d0|            09                                 |    .           |      [74]: 9 transition_type 0x7d4-0x7d4.7 (1)
0x7d0|               08                              |     .          |      [75]: 8 transition_type 0x7d5-0x7d5.7 (1)
0x7d0|                  09                           |      .         |      [76]: 9 transition_type 0x7d6-0x7d6.7 (1)
0x7d0|                     08                        |       .        |      [77]: 8 transition_type 0x7d7-0x7d7.7 (1)
0x7d0|                        09                     |        .       |      [78]: 9 transition_type 0x7d8-0x7d8.7 (1)
0x7d0|                           08                  |         .      |      [79]: 8 transition_type 0x7d9-0x7d9.7 (1)
0x7d0|                              09               |          .     |      [80]: 9 transition_type 0x7da-0x7da.7 (1)
0x7d0|                                 08            |           .    |      [81]: 8 transition_type 0x7db-0x7db.7 (1)
0x7d0|                                    09         |            .   |      [82]: 9 transition_type 0x7dc-0x7dc.7 (1)
0x7d0|                                       08      |             .  |      [83]: 8 transition_type 0x7dd-0x7dd.7 (1)
0x7d0|                                          09   |              . |      [84]: 9 transition_type 0x7de-0x7de.7 (1)
0x7d0|                                             08|               .|      [85]: 8 transition_type 0x7df-0x7df.7 (1)
0x7e0|09                                             |.               |      [86]: 9 transition_type 0x7e0-0x7e0.7 (1)
0x7e0|   08                                          | .              |      [87]: 8 transition_type 0x7e1-0x7e1.7 (1)
0x7e0|      09                                       |  .             |      [88]: 9 transition_type 0x7e2-0x7e2.7 (1)
0x7e0|         08                                    |   .            |      [89]: 8 transition_type 0x7e3-0x7e3.7 (1)
0x7e0|            09                                 |    .           |      [90]: 9 transition_type 0x7e4-0x7e4.7 (1)
0x7e0|               08                              |     .          |      [91]: 8 transition_type 0x7e5-0x7e5.7 (1)
0x7e0|                  09                           |      .         |      [92]: 9 transition_type 0x7e6-0x7e6.7 (1)
0x7e0|                     08                        |       .        |      [93]: 8 transition_type 0x7e7-0x7e7.7 (1)
0x7e0|                        09                     |        .       |      [94]: 9 transition_type 0x7e8-0x7e8.7 (1)
0x7e0|                           08                  |         .      |      [95]: 8 transition_type 0x7e9-0x7e9.7 (1)
0x7e0|                              09               |          .     |      [96]: 9 transition_type 0x7ea-0x7ea.7 (1)
0x7e0|                                 08            |           .    |      [97]: 8 transition_type 0x7eb-0x7eb.7 (1)
0x7e0|                                    09         |            .   |      [98]: 9 transition_type 0x7ec-0x7ec.7 (1)
0x7e0|                                       08      |             .  |      [99]: 8 transition_type 0x7ed-0x7ed.7 (1)
0x7e0|                                          09   |              . |      [100]: 9 transition_type 0x7ee-0x7ee.7 (1)
0x7e0|                                             08|               .|      [101]: 8 transition_type 0x7ef-0x7ef.7 (1)
0x7f0|09                                             |.               |      [102]: 9 transition_type 0x7f0-0x7f0.7 (1)
0x7f0|   08                                          | .              |      [103]: 8 transition_type 0x7f1-0x7f1.7 (1)
0x7f0|      09                                       |  .             |      [104]: 9 transition_type 0x7f2-0x7f2.7 (1)
0x7f0|         08                                    |   .            |      [105]: 8 transition_type 0x7f3-0x7f3.7 (1)
0x7f0|            09                                 |    .           |      [106]: 9 transition_type 0x7f4-0x7f4.7 (1)
0x7f0|               08                              |     .          |      [107]: 8 transition_type 0x7f5-0x7f5.7 (1)
0x7f0|                  09                           |      .         |      [108]: 9 transition_type 0x7f6-0x7f6.7 (1)
0x7f0|                     08                        |       .        |      [109]: 8 transition_type 0x7f7-0x7f7.7 (1)
0x7f0|                        09                     |        .       |      [110]: 9 transition_type 0x7f8-0x7f8.7 (1)
0x7f0|                           08                  |         .      |      [111]: 8 transition_type 0x7f9-0x7f9.7 (1)
0x7f0|                              09               |          .     |      [112]: 9 transition_type 0x7fa-0x7fa.7 (1)
0x7f0|                                 08            |           .    |      [113]: 8 transition_type 0x7fb-0x7fb.7 (1)
0x7f0|                                    09         |            .   |      [114]: 9 transition_type 0x7fc-0x7fc.7 (1)
0x7f0|                                       08      |             .  |      [115]: 8 transition_type 0x7fd-0x7fd.7 (1)
0x7f0|                                          08   |              . |      [116]: 8 transition_type 0x7fe-0x7fe.7 (1)
     |                                               |                |    local_time_type_records[0:10]: 0x7ff-0x83a.7 (60)
     |                                               |                |      [0]{}: local_time_type 0x7ff-0x804.7 (6)
0x7f0|                                             00|               .|        utoff: 46702 (valid) 0x7ff-0x802.7 (4)
0x800|00 b6 6e                                       |..n             |
0x800|         00                                    |   .            |        dst: 0 (valid) 0x803-0x803.7 (1)
0x800|            00                                 |    .           |        idx: 0 (valid) 0x804-0x804.7 (1)
     |                                               |                |      [1]{}: local_time_type 0x805-0x80a.7 (6)
0x800|               ff ff 64 ee                     |     ..d.       |        utoff: -39698 (valid) 0x805-0x808.7 (4)
0x800|                           00                  |         .      |        dst: 0 (valid) 0x809-0x809.7 (1)
0x800|                              00               |          .     |        idx: 0 (valid) 0x80a-0x80a.7 (1)
     |                                               |                |      [2]{}: local_time_type 0x80b-0x810.7 (6)
0x800|                                 ff ff 65 50   |           ..eP |        utoff: -39600 (valid) 0x80b-0x80e.7 (4)
0x800|                                             00|               .|        dst: 0 (valid) 0x80f-0x80f.7 (1)
0x810|04                                             |.               |        idx: 4 (valid) 0x810-0x810.7 (1)
     |                                               |                |      [3]{}: local_time_type 0x811-0x816.7 (6)
0x810|   ff ff 73 60                                 | ..s`           |        utoff: -36000 (valid) 0x811-0x814.7 (4)
0x810|               01                              |     .          |        dst: 1 (valid) 0x815-0x815.7 (1)
0x810|                  08                           |      .         |        idx: 8 (valid) 0x816-0x816.7 (1)
     |                                               |                |      [4]{}: local_time_type 0x817-0x81c.7 (6)
0x810|                     ff ff 73 60               |       ..s`     |        utoff: -36000 (valid) 0x817-0x81a.7 (4)
0x810|                                 01            |           .    |        dst: 1 (valid) 0x81b-0x81b.7 (1)
0x810|                                    0c         |            .   |        idx: 12 (valid) 0x81c-0x81c.7 (1)
     |                                               |                |      [5]{}: local_time_type 0x81d-0x822.7 (6)
0x810|                                       ff ff 65|             ..e|        utoff: -39600 (valid) 0x81d-0x820.7 (4)
0x820|50                                             |P               |
0x820|   00                                          | .              |        dst: 0 (valid) 0x821-0x821.7 (1)
0x820|      10                                       |  .             |        idx: 16 (valid) 0x822-0x822.7 (1)
     |                                               |                |      [6]{}: local_time_type 0x823-0x828.7 (6)
0x820|         ff ff 73 60                           |   ..s`         |        utoff: -36000 (valid) 0x823-0x826.7 (4)
0x820|                     01                        |       .        |        dst: 1 (valid) 0x827-0x827.7 (1)
0x820|                        14                     |        .       |        idx: 20 (valid) 0x828-0x828.7 (1)
     |                                               |                |      [7]{}: local_time_type 0x829-0x82e.7 (6)
0x820|                           ff ff 81 70         |         ...p   |        utoff: -32400 (valid) 0x829-0x82c.7 (4)
0x820|                                       00      |             .  |        dst: 0 (valid) 0x82d-0x82d.7 (1)
0x820|                                          18   |              . |        idx: 24 (valid) 0x82e-0x82e.7 (1)
     |                                               |                |      [8]{}: local_time_type 0x82f-0x834.7 (6)
0x820|                                             ff|               .|        utoff: -28800 (valid) 0x82f-0x832.7 (4)
0x830|ff 8f 80                                       |...             |
0x830|         01                                    |   .            |        dst: 1 (valid) 0x833-0x833.7 (1)
0x830|            1c                                 |    .           |        idx: 28 (valid) 0x834-0x834.7 (1)
     |                                               |                |      [9]{}: local_time_type 0x835-0x83a.7 (6)
0x830|               ff ff 81 70                     |     ...p       |        utoff: -32400 (valid) 0x835-0x838.7 (4)
0x830|                           00                  |         .      |        dst: 0 (valid) 0x839-0x839.7 (1)
0x830|                              21               |          !     |        idx: 33 (valid) 0x83a-0x83a.7 (1)
     |                                               |                |    time_zone_designations[0:9]: 0x83b-0x860.7 (38)
0x830|                                 4c 4d 54 00   |           LMT. |      [0]: "LMT" time_zone_designation 0x83b-0x83e.7 (4)
0x830|                                             4e|               N|      [1]: "NST" time_zone_designation 0x83f-0x842.7 (4)
0x840|53 54 00                                       |ST.             |
0x840|         4e 57 54 00                           |   NWT.         |      [2]: "NWT" time_zone_designation 0x843-0x846.7 (4)
0x840|                     4e 50 54 00               |       NPT.     |      [3]: "NPT" time_zone_designation 0x847-0x84a.7 (4)
0x840|                                 42 53 54 00   |           BST. |      [4]: "BST" time_zone_designation 0x84b-0x84e.7 (4)
0x840|                                             42|               B|      [5]: "BDT" time_zone_designation 0x84f-0x852.7 (4)
0x850|44 54 00                                       |DT.             |
0x850|         59 53 54 00                           |   YST.         |      [6]: "YST" time_zone_designation 0x853-0x856.7 (4)
0x850|                     41 4b 44 54 00            |       AKDT.    |      [7]: "AKDT" time_zone_designation 0x857-0x85b.7 (5)
0x850|                                    41 4b 53 54|            AKST|      [8]: "AKST" time_zone_designation 0x85c-0x860.7 (5)
0x860|00                                             |.               |
     |                                               |                |    leap_second_records[0:27]: 0x861-0x9a4.7 (324)
     |                                               |                |      [0]{}: leap_second_record 0x861-0x86c.7 (12)
0x860|   00 00 00 00 04 b2 58 00                     | ......X.       |        occur: "1972-07-01T00:00:00Z" (78796800) 0x861-0x868.7 (8)
0x860|                           00 00 00 01         |         ....   |        corr: 1 0x869-0x86c.7 (4)
     |                                               |                |      [1]{}: leap_second_record 0x86d-0x878.7 (12)
0x860|                                       00 00 00|             ...|        occur: "1973-01-01T00:00:01Z" (94694401) 0x86d-0x874.7 (8)
0x870|00 05 a4 ec 01                                 |.....           |
0x870|               00 00 00 02                     |     ....       |        corr: 2 0x875-0x878.7 (4)
     |                                               |                |      [2]{}: leap_second_record 0x879-0x884.7 (12)
0x870|                           00 00 00 00 07 86 1f|         .......|        occur: "1974-01-01T00:00:02Z" (126230402) 0x879-0x880.7 (8)
0x880|82                                             |.               |
0x880|   00 00 00 03                                 | ....           |        corr: 3 0x881-0x884.7 (4)
     |                                               |                |      [3]{}: leap_second_record 0x885-0x890.7 (12)
0x880|               00 00 00 00 09 67 53 03         |     .....gS.   |        occur: "1975-01-01T00:00:03Z" (157766403) 0x885-0x88c.7 (8)
0x880|                                       00 00 00|             ...|        corr: 4 0x88d-0x890.7 (4)
0x890|04                                             |.               |
     |                                               |                |      [4]{}: leap_second_record 0x891-0x89c.7 (12)
0x890|   00 00 00 00 0b 48 86 84                     | .....H..       |        occur: "1976-01-01T00:00:04Z" (189302404) 0x891-0x898.7 (8)
0x890|                           00 00 00 05         |         ....   |        corr: 5 0x899-0x89c.7 (4)
     |                                               |                |      [5]{}: leap_second_record 0x89d-0x8a8.7 (12)
0x890|                                       00 00 00|             ...|        occur: "1977-01-01T00:00:05Z" (220924805) 0x89d-0x8a4.7 (8)
0x8a0|00 0d 2b 0b 85                                 |..+..           |
0x8a0|               00 00 00 06                     |     ....       |        corr: 6 0x8a5-0x8a8.7 (4)
     |                                               |                |      [6]{}: leap_second_record 0x8a9-0x8b4.7 (12)
0x8a0|                           00 00 00 00 0f 0c 3f|         ......?|        occur: "1978-01-01T00:00:06Z" (252460806) 0x8a9-0x8b0.7 (8)
0x8b0|06                                             |.               |
0x8b0|   00 00 00 07                                 | ....           |        corr: 7 0x8b1-0x8b4.7 (4)
     |                                               |                |      [7]{}: leap_second_record 0x8b5-0x8c0.7 (12)
0x8b0|               00 00 00 00 10 ed 72 87         |     ......r.   |        occur: "1979-01-01T00:00:07Z" (283996807) 0x8b5-0x8bc.7 (8)
0x8b0|                                       00 00 00|             ...|        corr: 8 0x8bd-0x8c0.7 (4)
0x8c0|08                                             |.               |
     |                                               |                |      [8]{}: leap_second_record 0x8c1-0x8cc.7 (12)
0x8c0|   00 00 00 00 12 ce a6 08                     | ........       |        occur: "1980-01-01T00:00:08Z" (315532808) 0x8c1-0x8c8.7 (8)
0x8c0|                           00 00 00 09         |         ....   |        corr: 9 0x8c9-0x8cc.7 (4)
     |                                               |                |      [9]{}: leap_second_record 0x8cd-0x8d8.7 (12)
0x8c0|                                       00 00 00|             ...|        occur: "1981-07-01T00:00:09Z" (362793609) 0x8cd-0x8d4.7 (8)
0x8d0|00 15 9f ca 89                                 |.....           |
0x8d0|               00 00 00 0a                     |     ....       |        corr: 10 0x8d5-0x8d8.7 (4)
     |                                               |                |      [10]{}: leap_second_record 0x8d9-0x8e4.7 (12)
0x8d0|                           00 00 00 00 17 80 fe|         .......|        occur: "1982-07-01T00:00:10Z" (394329610) 0x8d9-0x8e0.7 (8)
0x8e0|0a                                             |.               |
0x8e0|   00 00 00 0b                                 | ....           |        corr: 11 0x8e1-0x8e4.7 (4)
     |                                               |                |      [11]{}: leap_second_record 0x8e5-0x8f0.7 (12)
0x8e0|               00 00 00 00 19 62 31 8b         |     .....b1.   |        occur: "1983-07-01T00:00:11Z" (425865611) 0x8e5-0x8ec.7 (8)
0x8e0|                                       00 00 00|             ...|        corr: 12 0x8ed-0x8f0.7 (4)
0x8f0|0c                                             |.               |
     |                                               |                |      [12]{}: leap_second_record 0x8f1-0x8fc.7 (12)
0x8f0|   00 00 00 00 1d 25 ea 0c                     | .....%..       |        occur: "1985-07-01T00:00:12Z" (489024012) 0x8f1-0x8f8.7 (8)
0x8f0|                           00 00 00 0d         |         ....   |        corr: 13 0x8f9-0x8fc.7 (4)
     |                                               |                |      [13]{}: leap_second_record 0x8fd-0x908.7 (12)
0x8f0|                                       00 00 00|             ...|        occur: "1988-01-01T00:00:13Z" (567993613) 0x8fd-0x904.7 (8)
0x900|00 21 da e5 0d                                 |.!...           |
0x900|               00 00 00 0e                     |     ....       |        corr: 14 0x905-0x908.7 (4)
     |                                               |                |      [14]{}: leap_second_record 0x909-0x914.7 (12)
0x900|                           00 00 00 00 25 9e 9d|         ....%..|        occur: "1990-01-01T00:00:14Z" (631152014) 0x909-0x910.7 (8)
0x910|8e                                             |.               |
0x910|   00 00 00 0f                                 | ....           |        corr: 15 0x911-0x914.7 (4)
     |                                               |                |      [15]{}: leap_second_record 0x915-0x920.7 (12)
0x910|               00 00 00 00 27 7f d1 0f         |     ....'...   |        occur: "1991-01-01T00:00:15Z" (662688015) 0x915-0x91c.7 (8)
0x910|                                       00 00 00|             ...|        corr: 16 0x91d-0x920.7 (4)
0x920|10                                             |.               |
     |                                               |                |      [16]{}: leap_second_record 0x921-0x92c.7 (12)
0x920|   00 00 00 00 2a 50 f5 90                     | ....*P..       |        occur: "1992-07-01T00:00:16Z" (709948816) 0x921-0x928.7 (8)
0x920|                           00 00 00 11         |         ....   |        corr: 17 0x929-0x92c.7 (4)
     |                                               |                |      [17]{}: leap_second_record 0x92d-0x938.7 (12)
0x920|                                       00 00 00|             ...|        occur: "1993-07-01T00:00:17Z" (741484817) 0x92d-0x934.7 (8)
0x930|00 2c 32 29 11                                 |.,2).           |
0x930|               00 00 00 12                     |     ....       |        corr: 18 0x935-0x938.7 (4)
     |                                               |                |      [18]{}: leap_second_record 0x939-0x944.7 (12)
0x930|                           00 00 00 00 2e 13 5c|         ......\|        occur: "1994-07-01T00:00:18Z" (773020818) 0x939-0x940.7 (8)
0x940|92                                             |.               |
0x940|   00 00 00 13                                 | ....           |        corr: 19 0x941-0x944.7 (4)
     |                                               |                |      [19]{}: leap_second_record 0x945-0x950.7 (12)
0x940|               00 00 00 00 30 e7 24 13         |     ....0.$.   |        occur: "1996-01-01T00:00:19Z" (820454419) 0x945-0x94c.7 (8)
0x940|                                       00 00 00|             ...|        corr: 20 0x94d-0x950.7 (4)
0x950|14                                             |.               |
     |                                               |                |      [20]{}: leap_second_record 0x951-0x95c.7 (12)
0x950|   00 00 00 00 33 b8 48 94                     | ....3.H.       |        occur: "1997-07-01T00:00:20Z" (867715220) 0x951-0x958.7 (8)
0x950|                           00 00 00 15         |         ....   |        corr: 21 0x959-0x95c.7 (4)
     |                                               |                |      [21]{}: leap_second_record 0x95d-0x968.7 (12)
0x950|                                       00 00 00|             ...|        occur: "1999-01-01T00:00:21Z" (915148821) 0x95d-0x964.7 (8)
0x960|00 36 8c 10 15                                 |.6...           |
0x960|               00 00 00 16                     |     ....       |        corr: 22 0x965-0x968.7 (4)
     |                                               |                |      [22]{}: leap_second_record 0x969-0x974.7 (12)
0x960|                           00 00 00 00 43 b7 1b|         ....C..|        occur: "2006-01-01T00:00:22Z" (1136073622) 0x969-0x970.7 (8)
0x970|96                                             |.               |
0x970|   00 00 00 17                                 | ....           |        corr: 23 0x971-0x974.7 (4)
     |                                               |                |      [23]{}: leap_second_record 0x975-0x980.7 (12)
0x970|               00 00 00 00 49 5c 07 97         |     ....I\..   |        occur: "2009-01-01T00:00:23Z" (1230768023) 0x975-0x97c.7 (8)
0x970|                                       00 00 00|             ...|        corr: 24 0x97d-0x980.7 (4)
0x980|18                                             |.               |
     |                                               |                |      [24]{}: leap_second_record 0x981-0x98c.7 (12)
0x980|   00 00 00 00 4f ef 93 18                     | ....O...       |        occur: "2012-07-01T00:00:24Z" (1341100824) 0x981-0x988.7 (8)
0x980|                           00 00 00 19         |         ....   |        corr: 25 0x989-0x98c.7 (4)
     |                                               |                |      [25]{}: leap_second_record 0x98d-0x998.7 (12)
0x980|                                       00 00 00|             ...|        occur: "2015-07-01T00:00:25Z" (1435708825) 0x98d-0x994.7 (8)
0x990|00 55 93 2d 99                                 |.U.-.           |
0x990|               00 00 00 1a                     |     ....       |        corr: 26 0x995-0x998.7 (4)
     |                                               |                |      [26]{}: leap_second_record 0x999-0x9a4.7 (12)
0x990|                           00 00 00 00 58 68 46|         ....XhF|        occur: "2017-01-01T00:00:26Z" (1483228826) 0x999-0x9a0.7 (8)
0x9a0|9a                                             |.               |
0x9a0|   00 00 00 1b                                 | ....           |        corr: 27 0x9a1-0x9a4.7 (4)
     |                                               |                |    standard_wall_indicators[0:10]: 0x9a5-0x9ae.7 (10)
0x9a0|               00                              |     .          |      [0]: 0 standard_wall_indicator (valid) 0x9a5-0x9a5.7 (1)
0x9a0|                  00                           |      .         |      [1]: 0 standard_wall_indicator (valid) 0x9a6-0x9a6.7 (1)
0x9a0|                     00                        |       .        |      [2]: 0 standard_wall_indicator (valid) 0x9a7-0x9a7.7 (1)
0x9a0|                        00                     |        .       |      [3]: 0 standard_wall_indicator (valid) 0x9a8-0x9a8.7 (1)
0x9a0|                           01                  |         .      |      [4]: 1 standard_wall_indicator (valid) 0x9a9-0x9a9.7 (1)
0x9a0|                              00               |          .     |      [5]: 0 standard_wall_indicator (valid) 0x9aa-0x9aa.7 (1)
0x9a0|                                 00            |           .    |      [6]: 0 standard_wall_indicator (valid) 0x9ab-0x9ab.7 (1)
0x9a0|                                    00         |            .   |      [7]: 0 standard_wall_indicator (valid) 0x9ac-0x9ac.7 (1)
0x9a0|                                       00      |             .  |      [8]: 0 standard_wall_indicator (valid) 0x9ad-0x9ad.7 (1)
0x9a0|                                          00   |              . |      [9]: 0 standard_wall_indicator (valid) 0x9ae-0x9ae.7 (1)
     |                                               |                |    ut_local_indicators[0:10]: 0x9af-0x9b8.7 (10)
0x9a0|                                             00|               .|      [0]: 0 ut_local_indicator (valid) 0x9af-0x9af.7 (1)
0x9b0|00                                             |.               |      [1]: 0 ut_local_indicator (valid) 0x9b0-0x9b0.7 (1)
0x9b0|   00                                          | .              |      [2]: 0 ut_local_indicator (valid) 0x9b1-0x9b1.7 (1)
0x9b0|      00                                       |  .             |      [3]: 0 ut_local_indicator (valid) 0x9b2-0x9b2.7 (1)
0x9b0|         01                                    |   .            |      [4]: 1 ut_local_indicator (valid) 0x9b3-0x9b3.7 (1)
0x9b0|            00                                 |    .           |      [5]: 0 ut_local_indicator (valid) 0x9b4-0x9b4.7 (1)
0x9b0|               00                              |     .          |      [6]: 0 ut_local_indicator (valid) 0x9b5-0x9b5.7 (1)
0x9b0|                  00                           |      .         |      [7]: 0 ut_local_indicator (valid) 0x9b6-0x9b6.7 (1)
0x9b0|                     00                        |       .        |      [8]: 0 ut_local_indicator (valid) 0x9b7-0x9b7.7 (1)
0x9b0|                        00                     |        .       |      [9]: 0 ut_local_indicator (valid) 0x9b8-0x9b8.7 (1)
     |                                               |                |  footer{}: 0x9b9-0x9ba.7 (2)
0x9b0|                           0a                  |         .      |    nl1: 10 (valid) 0x9b9-0x9b9.7 (1)
     |                                               |                |    tz_string: "" 0x9ba-NA (0)
0x9b0|                              0a|              |          .|    |    nl2: 10 (valid) 0x9ba-0x9ba.7 (1)
