$ fq -d tzif dv Nome
     |00 01 02 03 04 05 06 07 08 09 0a 0b 0c 0d 0e 0f|0123456789abcdef|.{}: Nome (tzif) 0x0-0x9bb (2491)
     |                                               |                |  v1header{}: 0x0-0x2c (44)
0x000|54 5a 69 66                                    |TZif            |    magic: 0x545a6966 (valid) 0x0-0x4 (4)
0x000|            32                                 |    2           |    ver: "2" (0x32) (valid) 0x4-0x5 (1)
0x000|               00 00 00 00 00 00 00 00 00 00 00|     ...........|    reserved: raw bits 0x5-0x14 (15)
0x010|00 00 00 00                                    |....            |
0x010|            00 00 00 09                        |    ....        |    isutcnt: 9 0x14-0x18 (4)
0x010|                        00 00 00 09            |        ....    |    isstdcnt: 9 0x18-0x1c (4)
0x010|                                    00 00 00 1b|            ....|    leapcnt: 27 0x1c-0x20 (4)
0x020|00 00 00 74                                    |...t            |    timecnt: 116 0x20-0x24 (4)
0x020|            00 00 00 09                        |    ....        |    typecnt: 9 0x24-0x28 (4)
0x020|                        00 00 00 26            |        ...&    |    charcnt: 38 0x28-0x2c (4)
     |                                               |                |  v1datablock{}: 0x2c-0x3b6 (906)
     |                                               |                |    transition_times[0:116]: 0x2c-0x1fc (464)
0x020|                                    80 00 00 00|            ....|      [0]: "1901-12-13T20:45:52Z" (-2147483648) transition_time 0x2c-0x30 (4)
0x030|cb 89 44 d0                                    |..D.            |      [1]: "1942-02-09T13:00:00Z" (-880196400) transition_time 0x30-0x34 (4)
0x030|            d2 23 f4 70                        |    .#.p        |      [2]: "1945-08-14T23:00:00Z" (-769395600) transition_time 0x34-0x38 (4)
0x030|                        d2 61 50 40            |        .aP@    |      [3]: "1945-09-30T12:00:00Z" (-765374400) transition_time 0x38-0x3c (4)
0x030|                                    fa d2 55 b0|            ..U.|      [4]: "1967-04-01T11:00:00Z" (-86878800) transition_time 0x3c-0x40 (4)
0x040|fe b8 71 50                                    |..qP            |      [5]: "1969-04-27T13:00:00Z" (-21466800) transition_time 0x40-0x44 (4)
0x040|            ff a8 54 40                        |    ..T@        |      [6]: "1969-10-26T12:00:00Z" (-5745600) transition_time 0x44-0x48 (4)
0x040|                        00 98 53 50            |        ..SP    |      [7]: "1970-04-26T13:00:00Z" (9982800) transition_time 0x48-0x4c (4)
0x040|                                    01 88 36 40|            ..6@|      [8]: "1970-10-25T12:00:00Z" (25704000) transition_time 0x4c-0x50 (4)
0x050|02 78 35 50                                    |.x5P            |      [9]: "1971-04-25T13:00:00Z" (41432400) transition_time 0x50-0x54 (4)
0x050|            03 71 52 c0                        |    .qR.        |      [10]: "1971-10-31T12:00:00Z" (57758400) transition_time 0x54-0x58 (4)
0x050|                        04 61 51 d0            |        .aQ.    |      [11]: "1972-04-30T13:00:00Z" (73486800) transition_time 0x58-0x5c (4)
0x050|                                    05 51 34 c1|            .Q4.|      [12]: "1972-10-29T12:00:01Z" (89208001) transition_time 0x5c-0x60 (4)
0x060|06 41 33 d2                                    |.A3.            |      [13]: "1973-04-29T13:00:02Z" (104936402) transition_time 0x60-0x64 (4)
0x060|            07 31 16 c2                        |    .1..        |      [14]: "1973-10-28T12:00:02Z" (120657602) transition_time 0x64-0x68 (4)
0x060|                        07 8d 6d d3            |        ..m.    |      [15]: "1974-01-06T13:00:03Z" (126709203) transition_time 0x68-0x6c (4)
0x060|                                    09 10 f8 c3|            ....|      [16]: "1974-10-27T12:00:03Z" (152107203) transition_time 0x6c-0x70 (4)
0x070|09 ad e9 54                                    |...T            |      [17]: "1975-02-23T13:00:04Z" (162392404) transition_time 0x70-0x74 (4)
0x070|            0a f0 da c4                        |    ....        |      [18]: "1975-10-26T12:00:04Z" (183556804) transition_time 0x74-0x78 (4)
0x070|                        0b e0 d9 d5            |        ....    |      [19]: "1976-04-25T13:00:05Z" (199285205) transition_time 0x78-0x7c (4)
0x070|                                    0c d9 f7 45|            ...E|      [20]: "1976-10-31T12:00:05Z" (215611205) transition_time 0x7c-0x80 (4)
0x080|0d c0 bb d6                                    |....            |      [21]: "1977-04-24T13:00:06Z" (230734806) transition_time 0x80-0x84 (4)
0x080|            0e b9 d9 46                        |    ...F        |      [22]: "1977-10-30T12:00:06Z" (247060806) transition_time 0x84-0x88 (4)
0x080|                        0f a9 d8 57            |        ...W    |      [23]: "1978-04-30T13:00:07Z" (262789207) transition_time 0x88-0x8c (4)
0x080|                                    10 99 bb 47|            ...G|      [24]: "1978-10-29T12:00:07Z" (278510407) transition_time 0x8c-0x90 (4)
0x090|11 89 ba 58                                    |...X            |      [25]: "1979-04-29T13:00:08Z" (294238808) transition_time 0x90-0x94 (4)
0x090|            12 79 9d 48                        |    .y.H        |      [26]: "1979-10-28T12:00:08Z" (309960008) transition_time 0x94-0x98 (4)
0x090|                        13 69 9c 59            |        .i.Y    |      [27]: "1980-04-27T13:00:09Z" (325688409) transition_time 0x98-0x9c (4)
0x090|                                    14 59 7f 49|            .Y.I|      [28]: "1980-10-26T12:00:09Z" (341409609) transition_time 0x9c-0xa0 (4)
0x0a0|15 49 7e 59                                    |.I~Y            |      [29]: "1981-04-26T13:00:09Z" (357138009) transition_time 0xa0-0xa4 (4)
0x0a0|            16 39 61 4a                        |    .9aJ        |      [30]: "1981-10-25T12:00:10Z" (372859210) transition_time 0xa4-0xa8 (4)
0x0a0|                        17 29 60 5a            |        .)`Z    |      [31]: "1982-04-25T13:00:10Z" (388587610) transition_time 0xa8-0xac (4)
0x0a0|                                    18 22 7d cb|            ."}.|      [32]: "1982-10-31T12:00:11Z" (404913611) transition_time 0xac-0xb0 (4)
0x0b0|19 09 42 5b                                    |..B[            |      [33]: "1983-04-24T13:00:11Z" (420037211) transition_time 0xb0-0xb4 (4)
0x0b0|            1a 02 5f cc                        |    .._.        |      [34]: "1983-10-30T12:00:12Z" (436363212) transition_time 0xb4-0xb8 (4)
0x0b0|                        1a 2b 14 1c            |        .+..    |      [35]: "1983-11-30T09:00:12Z" (439030812) transition_time 0xb8-0xbc (4)
0x0b0|                                    1a f2 42 bc|            ..B.|      [36]: "1984-04-29T11:00:12Z" (452084412) transition_time 0xbc-0xc0 (4)
0x0c0|1b e2 25 ac                                    |..%.            |      [37]: "1984-10-28T10:00:12Z" (467805612) transition_time 0xc0-0xc4 (4)
0x0c0|            1c d2 24 bc                        |    ..$.        |      [38]: "1985-04-28T11:00:12Z" (483534012) transition_time 0xc4-0xc8 (4)
0x0c0|                        1d c2 07 ad            |        ....    |      [39]: "1985-10-27T10:00:13Z" (499255213) transition_time 0xc8-0xcc (4)
0x0c0|                                    1e b2 06 bd|            ....|      [40]: "1986-04-27T11:00:13Z" (514983613) transition_time 0xcc-0xd0 (4)
0x0d0|1f a1 e9 ad                                    |....            |      [41]: "1986-10-26T10:00:13Z" (530704813) transition_time 0xd0-0xd4 (4)
0x0d0|            20 76 39 3d                        |     v9=        |      [42]: "1987-04-05T11:00:13Z" (544618813) transition_time 0xd4-0xd8 (4)
0x0d0|                        21 81 cb ad            |        !...    |      [43]: "1987-10-25T10:00:13Z" (562154413) transition_time 0xd8-0xdc (4)
0x0d0|                                    22 56 1b 3e|            "V.>|      [44]: "1988-04-03T11:00:14Z" (576068414) transition_time 0xdc-0xe0 (4)
0x0e0|23 6a e8 2e                                    |#j..            |      [45]: "1988-10-30T10:00:14Z" (594208814) transition_time 0xe0-0xe4 (4)
0x0e0|            24 35 fd 3e                        |    $5.>        |      [46]: "1989-04-02T11:00:14Z" (607518014) transition_time 0xe4-0xe8 (4)
0x0e0|                        25 4a ca 2e            |        %J..    |      [47]: "1989-10-29T10:00:14Z" (625658414) transition_time 0xe8-0xec (4)
0x0e0|                                    26 15 df 3f|            &..?|      [48]: "1990-04-01T11:00:15Z" (638967615) transition_time 0xec-0xf0 (4)
0x0f0|27 2a ac 2f                                    |'*./            |      [49]: "1990-10-28T10:00:15Z" (657108015) transition_time 0xf0-0xf4 (4)
0x0f0|            27 fe fb c0                        |    '...        |      [50]: "1991-04-07T11:00:16Z" (671022016) transition_time 0xf4-0xf8 (4)
0x0f0|                        29 0a 8e 30            |        )..0    |      [51]: "1991-10-27T10:00:16Z" (688557616) transition_time 0xf8-0xfc (4)
0x0f0|                                    29 de dd c0|            )...|      [52]: "1992-04-05T11:00:16Z" (702471616) transition_time 0xfc-0x100 (4)
0x100|2a ea 70 31                                    |*.p1            |      [53]: "1992-10-25T10:00:17Z" (720007217) transition_time 0x100-0x104 (4)
0x100|            2b be bf c1                        |    +...        |      [54]: "1993-04-04T11:00:17Z" (733921217) transition_time 0x104-0x108 (4)
0x100|                        2c d3 8c b2            |        ,...    |      [55]: "1993-10-31T10:00:18Z" (752061618) transition_time 0x108-0x10c (4)
0x100|                                    2d 9e a1 c2|            -...|      [56]: "1994-04-03T11:00:18Z" (765370818) transition_time 0x10c-0x110 (4)
0x110|2e b3 6e b3                                    |..n.            |      [57]: "1994-10-30T10:00:19Z" (783511219) transition_time 0x110-0x114 (4)
0x110|            2f 7e 83 c3                        |    /~..        |      [58]: "1995-04-02T11:00:19Z" (796820419) transition_time 0x114-0x118 (4)
0x110|                        30 93 50 b3            |        0.P.    |      [59]: "1995-10-29T10:00:19Z" (814960819) transition_time 0x118-0x11c (4)
0x110|                                    31 67 a0 44|            1g.D|      [60]: "1996-04-07T11:00:20Z" (828874820) transition_time 0x11c-0x120 (4)
0x120|32 73 32 b4                                    |2s2.            |      [61]: "1996-10-27T10:00:20Z" (846410420) transition_time 0x120-0x124 (4)
0x120|            33 47 82 44                        |    3G.D        |      [62]: "1997-04-06T11:00:20Z" (860324420) transition_time 0x124-0x128 (4)
0x120|                        34 53 14 b5            |        4S..    |      [63]: "1997-10-26T10:00:21Z" (877860021) transition_time 0x128-0x12c (4)
0x120|                                    35 27 64 45|            5'dE|      [64]: "1998-04-05T11:00:21Z" (891774021) transition_time 0x12c-0x130 (4)
0x130|36 32 f6 b5                                    |62..            |      [65]: "1998-10-25T10:00:21Z" (909309621) transition_time 0x130-0x134 (4)
0x130|            37 07 46 46                        |    7.FF        |      [66]: "1999-04-04T11:00:22Z" (923223622) transition_time 0x134-0x138 (4)
0x130|                        38 1c 13 36            |        8..6    |      [67]: "1999-10-31T10:00:22Z" (941364022) transition_time 0x138-0x13c (4)
0x130|                                    38 e7 28 46|            8.(F|      [68]: "2000-04-02T11:00:22Z" (954673222) transition_time 0x13c-0x140 (4)
0x140|39 fb f5 36                                    |9..6            |      [69]: "2000-10-29T10:00:22Z" (972813622) transition_time 0x140-0x144 (4)
0x140|            3a c7 0a 46                        |    :..F        |      [70]: "2001-04-01T11:00:22Z" (986122822) transition_time 0x144-0x148 (4)
0x140|                        3b db d7 36            |        ;..6    |      [71]: "2001-10-28T10:00:22Z" (1004263222) transition_time 0x148-0x14c (4)
0x140|                                    3c b0 26 c6|            <.&.|      [72]: "2002-04-07T11:00:22Z" (1018177222) transition_time 0x14c-0x150 (4)
0x150|3d bb b9 36                                    |=..6            |      [73]: "2002-10-27T10:00:22Z" (1035712822) transition_time 0x150-0x154 (4)
0x150|            3e 90 08 c6                        |    >...        |      [74]: "2003-04-06T11:00:22Z" (1049626822) transition_time 0x154-0x158 (4)
0x150|                        3f 9b 9b 36            |        ?..6    |      [75]: "2003-10-26T10:00:22Z" (1067162422) transition_time 0x158-0x15c (4)
0x150|                                    40 6f ea c6|            @o..|      [76]: "2004-04-04T11:00:22Z" (1081076422) transition_time 0x15c-0x160 (4)
0x160|41 84 b7 b6                                    |A...            |      [77]: "2004-10-31T10:00:22Z" (1099216822) transition_time 0x160-0x164 (4)
0x160|            42 4f cc c6                        |    BO..        |      [78]: "2005-04-03T11:00:22Z" (1112526022) transition_time 0x164-0x168 (4)
0x160|                        43 64 99 b6            |        Cd..    |      [79]: "2005-10-30T10:00:22Z" (1130666422) transition_time 0x168-0x16c (4)
0x160|                                    44 2f ae c7|            D/..|      [80]: "2006-04-02T11:00:23Z" (1143975623) transition_time 0x16c-0x170 (4)
0x170|45 44 7b b7                                    |ED{.            |      [81]: "2006-10-29T10:00:23Z" (1162116023) transition_time 0x170-0x174 (4)
0x170|            45 f3 e1 47                        |    E..G        |      [82]: "2007-03-11T11:00:23Z" (1173610823) transition_time 0x174-0x178 (4)
0x170|                        47 2d 98 37            |        G-.7    |      [83]: "2007-11-04T10:00:23Z" (1194170423) transition_time 0x178-0x17c (4)
0x170|                                    47 d3 c3 47|            G..G|      [84]: "2008-03-09T11:00:23Z" (1205060423) transition_time 0x17c-0x180 (4)
0x180|49 0d 7a 37                                    |I.z7            |      [85]: "2008-11-02T10:00:23Z" (1225620023) transition_time 0x180-0x184 (4)
0x180|            49 b3 a5 48                        |    I..H        |      [86]: "2009-03-08T11:00:24Z" (1236510024) transition_time 0x184-0x188 (4)
0x180|                        4a ed 5c 38            |        J.\8    |      [87]: "2009-11-01T10:00:24Z" (1257069624) transition_time 0x188-0x18c (4)
0x180|                                    4b 9c c1 c8|            K...|      [88]: "2010-03-14T11:00:24Z" (1268564424) transition_time 0x18c-0x190 (4)
0x190|4c d6 78 b8                                    |L.x.            |      [89]: "2010-11-07T10:00:24Z" (1289124024) transition_time 0x190-0x194 (4)
0x190|            4d 7c a3 c8                        |    M|..        |      [90]: "2011-03-13T11:00:24Z" (1300014024) transition_time 0x194-0x198 (4)
0x190|                        4e b6 5a b8            |        N.Z.    |      [91]: "2011-11-06T10:00:24Z" (1320573624) transition_time 0x198-0x19c (4)
0x190|                                    4f 5c 85 c8|            O\..|      [92]: "2012-03-11T11:00:24Z" (1331463624) transition_time 0x19c-0x1a0 (4)
0x1a0|50 96 3c b9                                    |P.<.            |      [93]: "2012-11-04T10:00:25Z" (1352023225) transition_time 0x1a0-0x1a4 (4)
0x1a0|            51 3c 67 c9                        |    Q<g.        |      [94]: "2013-03-10T11:00:25Z" (1362913225) transition_time 0x1a4-0x1a8 (4)
0x1a0|                        52 76 1e b9            |        Rv..    |      [95]: "2013-11-03T10:00:25Z" (1383472825) transition_time 0x1a8-0x1ac (4)
0x1a0|                                    53 1c 49 c9|            S.I.|      [96]: "2014-03-09T11:00:25Z" (1394362825) transition_time 0x1ac-0x1b0 (4)
0x1b0|54 56 00 b9                                    |TV..            |      [97]: "2014-11-02T10:00:25Z" (1414922425) transition_time 0x1b0-0x1b4 (4)
0x1b0|            54 fc 2b c9                        |    T.+.        |      [98]: "2015-03-08T11:00:25Z" (1425812425) transition_time 0x1b4-0x1b8 (4)
0x1b0|                        56 35 e2 ba            |        V5..    |      [99]: "2015-11-01T10:00:26Z" (1446372026) transition_time 0x1b8-0x1bc (4)
0x1b0|                                    56 e5 48 4a|            V.HJ|      [100]: "2016-03-13T11:00:26Z" (1457866826) transition_time 0x1bc-0x1c0 (4)
0x1c0|58 1e ff 3a                                    |X..:            |      [101]: "2016-11-06T10:00:26Z" (1478426426) transition_time 0x1c0-0x1c4 (4)
0x1c0|            58 c5 2a 4b                        |    X.*K        |      [102]: "2017-03-12T11:00:27Z" (1489316427) transition_time 0x1c4-0x1c8 (4)
0x1c0|                        59 fe e1 3b            |        Y..;    |      [103]: "2017-11-05T10:00:27Z" (1509876027) transition_time 0x1c8-0x1cc (4)
0x1c0|                                    5a a5 0c 4b|            Z..K|      [104]: "2018-03-11T11:00:27Z" (1520766027) transition_time 0x1cc-0x1d0 (4)
0x1d0|5b de c3 3b                                    |[..;            |      [105]: "2018-11-04T10:00:27Z" (1541325627) transition_time 0x1d0-0x1d4 (4)
0x1d0|            5c 84 ee 4b                        |    \..K        |      [106]: "2019-03-10T11:00:27Z" (1552215627) transition_time 0x1d4-0x1d8 (4)
0x1d0|                        5d be a5 3b            |        ]..;    |      [107]: "2019-11-03T10:00:27Z" (1572775227) transition_time 0x1d8-0x1dc (4)
0x1d0|                                    5e 64 d0 4b|            ^d.K|      [108]: "2020-03-08T11:00:27Z" (1583665227) transition_time 0x1dc-0x1e0 (4)
0x1e0|5f 9e 87 3b                                    |_..;            |      [109]: "2020-11-01T10:00:27Z" (1604224827) transition_time 0x1e0-0x1e4 (4)
0x1e0|            60 4d ec cb                        |    `M..        |      [110]: "2021-03-14T11:00:27Z" (1615719627) transition_time 0x1e4-0x1e8 (4)
0x1e0|                        61 87 a3 bb            |        a...    |      [111]: "2021-11-07T10:00:27Z" (1636279227) transition_time 0x1e8-0x1ec (4)
0x1e0|                                    62 2d ce cb|            b-..|      [112]: "2022-03-13T11:00:27Z" (1647169227) transition_time 0x1ec-0x1f0 (4)
0x1f0|63 67 85 bb                                    |cg..            |      [113]: "2022-11-06T10:00:27Z" (1667728827) transition_time 0x1f0-0x1f4 (4)
0x1f0|            64 0d b0 cb                        |    d...        |      [114]: "2023-03-12T11:00:27Z" (1678618827) transition_time 0x1f4-0x1f8 (4)
0x1f0|                        64 9b 78 1b            |        d.x.    |      [115]: "2023-06-28T00:00:27Z" (1687910427) transition_time 0x1f8-0x1fc (4)
     |                                               |                |    transition_types[0:116]: 0x1fc-0x270 (116)
0x1f0|                                    01         |            .   |      [0]: 1 transition_type 0x1fc-0x1fd (1)
0x1f0|                                       02      |             .  |      [1]: 2 transition_type 0x1fd-0x1fe (1)
0x1f0|                                          03   |              . |      [2]: 3 transition_type 0x1fe-0x1ff (1)
0x1f0|                                             01|               .|      [3]: 1 transition_type 0x1ff-0x200 (1)
0x200|04                                             |.               |      [4]: 4 transition_type 0x200-0x201 (1)
0x200|   05                                          | .              |      [5]: 5 transition_type 0x201-0x202 (1)
0x200|      04                                       |  .             |      [6]: 4 transition_type 0x202-0x203 (1)
0x200|         05                                    |   .            |      [7]: 5 transition_type 0x203-0x204 (1)
0x200|            04                                 |    .           |      [8]: 4 transition_type 0x204-0x205 (1)
0x200|               05                              |     .          |      [9]: 5 transition_type 0x205-0x206 (1)
0x200|                  04                           |      .         |      [10]: 4 transition_type 0x206-0x207 (1)
0x200|                     05                        |       .        |      [11]: 5 transition_type 0x207-0x208 (1)
0x200|                        04                     |        .       |      [12]: 4 transition_type 0x208-0x209 (1)
0x200|                           05                  |         .      |      [13]: 5 transition_type 0x209-0x20a (1)
0x200|                              04               |          .     |      [14]: 4 transition_type 0x20a-0x20b (1)
0x200|                                 05            |           .    |      [15]: 5 transition_type 0x20b-0x20c (1)
0x200|                                    04         |            .   |      [16]: 4 transition_type 0x20c-0x20d (1)
0x200|                                       05      |             .  |      [17]: 5 transition_type 0x20d-0x20e (1)
0x200|                                          04   |              . |      [18]: 4 transition_type 0x20e-0x20f (1)
0x200|                                             05|               .|      [19]: 5 transition_type 0x20f-0x210 (1)
0x210|04                                             |.               |      [20]: 4 transition_type 0x210-0x211 (1)
0x210|   05                                          | .              |      [21]: 5 transition_type 0x211-0x212 (1)
0x210|      04                                       |  .             |      [22]: 4 transition_type 0x212-0x213 (1)
0x210|         05                                    |   .            |      [23]: 5 transition_type 0x213-0x214 (1)
0x210|            04                                 |    .           |      [24]: 4 transition_type 0x214-0x215 (1)
0x210|               05                              |     .          |      [25]: 5 transition_type 0x215-0x216 (1)
0x210|                  04                           |      .         |      [26]: 4 transition_type 0x216-0x217 (1)
0x210|                     05                        |       .        |      [27]: 5 transition_type 0x217-0x218 (1)
0x210|                        04                     |        .       |      [28]: 4 transition_type 0x218-0x219 (1)
0x210|                           05                  |         .      |      [29]: 5 transition_type 0x219-0x21a (1)
0x210|                              04               |          .     |      [30]: 4 transition_type 0x21a-0x21b (1)
0x210|                                 05            |           .    |      [31]: 5 transition_type 0x21b-0x21c (1)
0x210|                                    04         |            .   |      [32]: 4 transition_type 0x21c-0x21d (1)
0x210|                                       05      |             .  |      [33]: 5 transition_type 0x21d-0x21e (1)
0x210|                                          06   |              . |      [34]: 6 transition_type 0x21e-0x21f (1)
0x210|                                             08|               .|      [35]: 8 transition_type 0x21f-0x220 (1)
0x220|07                                             |.               |      [36]: 7 transition_type 0x220-0x221 (1)
0x220|   08                                          | .              |      [37]: 8 transition_type 0x221-0x222 (1)
0x220|      07                                       |  .             |      [38]: 7 transition_type 0x222-0x223 (1)
0x220|         08                                    |   .            |      [39]: 8 transition_type 0x223-0x224 (1)
0x220|            07                                 |    .           |      [40]: 7 transition_type 0x224-0x225 (1)
0x220|               08                              |     .          |      [41]: 8 transition_type 0x225-0x226 (1)
0x220|                  07                           |      .         |      [42]: 7 transition_type 0x226-0x227 (1)
0x220|                     08                        |       .        |      [43]: 8 transition_type 0x227-0x228 (1)
0x220|                        07                     |        .       |      [44]: 7 transition_type 0x228-0x229 (1)
0x220|                           08                  |         .      |      [45]: 8 transition_type 0x229-0x22a (1)
0x220|                              07               |          .     |      [46]: 7 transition_type 0x22a-0x22b (1)
0x220|                                 08            |           .    |      [47]: 8 transition_type 0x22b-0x22c (1)
0x220|                                    07         |            .   |      [48]: 7 transition_type 0x22c-0x22d (1)
0x220|                                       08      |             .  |      [49]: 8 transition_type 0x22d-0x22e (1)
0x220|                                          07   |              . |      [50]: 7 transition_type 0x22e-0x22f (1)
0x220|                                             08|               .|      [51]: 8 transition_type 0x22f-0x230 (1)
0x230|07                                             |.               |      [52]: 7 transition_type 0x230-0x231 (1)
0x230|   08                                          | .              |      [53]: 8 transition_type 0x231-0x232 (1)
0x230|      07                                       |  .             |      [54]: 7 transition_type 0x232-0x233 (1)
0x230|         08                                    |   .            |      [55]: 8 transition_type 0x233-0x234 (1)
0x230|            07                                 |    .           |      [56]: 7 transition_type 0x234-0x235 (1)
0x230|               08                              |     .          |      [57]: 8 transition_type 0x235-0x236 (1)
0x230|                  07                           |      .         |      [58]: 7 transition_type 0x236-0x237 (1)
0x230|                     08                        |       .        |      [59]: 8 transition_type 0x237-0x238 (1)
0x230|                        07                     |        .       |      [60]: 7 transition_type 0x238-0x239 (1)
0x230|                           08                  |         .      |      [61]: 8 transition_type 0x239-0x23a (1)
0x230|                              07               |          .     |      [62]: 7 transition_type 0x23a-0x23b (1)
0x230|                                 08            |           .    |      [63]: 8 transition_type 0x23b-0x23c (1)
0x230|                                    07         |            .   |      [64]: 7 transition_type 0x23c-0x23d (1)
0x230|                                       08      |             .  |      [65]: 8 transition_type 0x23d-0x23e (1)
0x230|                                          07   |              . |      [66]: 7 transition_type 0x23e-0x23f (1)
0x230|                                             08|               .|      [67]: 8 transition_type 0x23f-0x240 (1)
0x240|07                                             |.               |      [68]: 7 transition_type 0x240-0x241 (1)
0x240|   08                                          | .              |      [69]: 8 transition_type 0x241-0x242 (1)
0x240|      07                                       |  .             |      [70]: 7 transition_type 0x242-0x243 (1)
0x240|         08                                    |   .            |      [71]: 8 transition_type 0x243-0x244 (1)
0x240|            07                                 |    .           |      [72]: 7 transition_type 0x244-0x245 (1)
0x240|               08                              |     .          |      [73]: 8 transition_type 0x245-0x246 (1)
0x240|                  07                           |      .         |      [74]: 7 transition_type 0x246-0x247 (1)
0x240|                     08                        |       .        |      [75]: 8 transition_type 0x247-0x248 (1)
0x240|                        07                     |        .       |      [76]: 7 transition_type 0x248-0x249 (1)
0x240|                           08                  |         .      |      [77]: 8 transition_type 0x249-0x24a (1)
0x240|                              07               |          .     |      [78]: 7 transition_type 0x24a-0x24b (1)
0x240|                                 08            |           .    |      [79]: 8 transition_type 0x24b-0x24c (1)
0x240|                                    07         |            .   |      [80]: 7 transition_type 0x24c-0x24d (1)
0x240|                                       08      |             .  |      [81]: 8 transition_type 0x24d-0x24e (1)
0x240|                                          07   |              . |      [82]: 7 transition_type 0x24e-0x24f (1)
0x240|                                             08|               .|      [83]: 8 transition_type 0x24f-0x250 (1)
0x250|07                                             |.               |      [84]: 7 transition_type 0x250-0x251 (1)
0x250|   08                                          | .              |      [85]: 8 transition_type 0x251-0x252 (1)
0x250|      07                                       |  .             |      [86]: 7 transition_type 0x252-0x253 (1)
0x250|         08                                    |   .            |      [87]: 8 transition_type 0x253-0x254 (1)
0x250|            07                                 |    .           |      [88]: 7 transition_type 0x254-0x255 (1)
0x250|               08                              |     .          |      [89]: 8 transition_type 0x255-0x256 (1)
0x250|                  07                           |      .         |      [90]: 7 transition_type 0x256-0x257 (1)
0x250|                     08                        |       .        |      [91]: 8 transition_type 0x257-0x258 (1)
0x250|                        07                     |        .       |      [92]: 7 transition_type 0x258-0x259 (1)
0x250|                           08                  |         .      |      [93]: 8 transition_type 0x259-0x25a (1)
0x250|                              07               |          .     |      [94]: 7 transition_type 0x25a-0x25b (1)
0x250|                                 08            |           .    |      [95]: 8 transition_type 0x25b-0x25c (1)
0x250|                                    07         |            .   |      [96]: 7 transition_type 0x25c-0x25d (1)
0x250|                                       08      |             .  |      [97]: 8 transition_type 0x25d-0x25e (1)
0x250|                                          07   |              . |      [98]: 7 transition_type 0x25e-0x25f (1)
0x250|                                             08|               .|      [99]: 8 transition_type 0x25f-0x260 (1)
0x260|07                                             |.               |      [100]: 7 transition_type 0x260-0x261 (1)
0x260|   08                                          | .              |      [101]: 8 transition_type 0x261-0x262 (1)
0x260|      07                                       |  .             |      [102]: 7 transition_type 0x262-0x263 (1)
0x260|         08                                    |   .            |      [103]: 8 transition_type 0x263-0x264 (1)
0x260|            07                                 |    .           |      [104]: 7 transition_type 0x264-0x265 (1)
0x260|               08                              |     .          |      [105]: 8 transition_type 0x265-0x266 (1)
0x260|                  07                           |      .         |      [106]: 7 transition_type 0x266-0x267 (1)
0x260|                     08                        |       .        |      [107]: 8 transition_type 0x267-0x268 (1)
0x260|                        07                     |        .       |      [108]: 7 transition_type 0x268-0x269 (1)
0x260|                           08                  |         .      |      [109]: 8 transition_type 0x269-0x26a (1)
0x260|                              07               |          .     |      [110]: 7 transition_type 0x26a-0x26b (1)
0x260|                                 08            |           .    |      [111]: 8 transition_type 0x26b-0x26c (1)
0x260|                                    07         |            .   |      [112]: 7 transition_type 0x26c-0x26d (1)
0x260|                                       08      |             .  |      [113]: 8 transition_type 0x26d-0x26e (1)
0x260|                                          07   |              . |      [114]: 7 transition_type 0x26e-0x26f (1)
0x260|                                             07|               .|      [115]: 7 transition_type 0x26f-0x270 (1)
     |                                               |                |    local_time_type_records[0:9]: 0x270-0x2a6 (54)
     |                                               |                |      [0]{}: local_time_type 0x270-0x276 (6)
0x270|00 00 b6 6e                                    |...n            |        utoff: 46702 (valid) 0x270-0x274 (4)
0x270|            00                                 |    .           |        dst: 0 (valid) 0x274-0x275 (1)
0x270|               00                              |     .          |        idx: 0 (valid) 0x275-0x276 (1)
     |                                               |                |      [1]{}: local_time_type 0x276-0x27c (6)
0x270|                  ff ff 65 50                  |      ..eP      |        utoff: -39600 (valid) 0x276-0x27a (4)
0x270|                              00               |          .     |        dst: 0 (valid) 0x27a-0x27b (1)
0x270|                                 04            |           .    |        idx: 4 (valid) 0x27b-0x27c (1)
     |                                               |                |      [2]{}: local_time_type 0x27c-0x282 (6)
0x270|                                    ff ff 73 60|            ..s`|        utoff: -36000 (valid) 0x27c-0x280 (4)
0x280|01                                             |.               |        dst: 1 (valid) 0x280-0x281 (1)
0x280|   08                                          | .              |        idx: 8 (valid) 0x281-0x282 (1)
     |                                               |                |      [3]{}: local_time_type 0x282-0x288 (6)
0x280|      ff ff 73 60                              |  ..s`          |        utoff: -36000 (valid) 0x282-0x286 (4)
0x280|                  01                           |      .         |        dst: 1 (valid) 0x286-0x287 (1)
0x280|                     0c                        |       .        |        idx: 12 (valid) 0x287-0x288 (1)
     |                                               |                |      [4]{}: local_time_type 0x288-0x28e (6)
0x280|                        ff ff 65 50            |        ..eP    |        utoff: -39600 (valid) 0x288-0x28c (4)
0x280|                                    00         |            .   |        dst: 0 (valid) 0x28c-0x28d (1)
0x280|                                       10      |             .  |        idx: 16 (valid) 0x28d-0x28e (1)
     |                                               |                |      [5]{}: local_time_type 0x28e-0x294 (6)
0x280|                                          ff ff|              ..|        utoff: -36000 (valid) 0x28e-0x292 (4)
0x290|73 60                                          |s`              |
0x290|      01                                       |  .             |        dst: 1 (valid) 0x292-0x293 (1)
0x290|         14                                    |   .            |        idx: 20 (valid) 0x293-0x294 (1)
     |                                               |                |      [6]{}: local_time_type 0x294-0x29a (6)
0x290|            ff ff 81 70                        |    ...p        |        utoff: -32400 (valid) 0x294-0x298 (4)
0x290|                        00                     |        .       |        dst: 0 (valid) 0x298-0x299 (1)
0x290|                           18                  |         .      |        idx: 24 (valid) 0x299-0x29a (1)
     |                                               |                |      [7]{}: local_time_type 0x29a-0x2a0 (6)
0x290|                              ff ff 8f 80      |          ....  |        utoff: -28800 (valid) 0x29a-0x29e (4)
0x290|                                          01   |              . |        dst: 1 (valid) 0x29e-0x29f (1)
0x290|                                             1c|               .|        idx: 28 (valid) 0x29f-0x2a0 (1)
     |                                               |                |      [8]{}: local_time_type 0x2a0-0x2a6 (6)
0x2a0|ff ff 81 70                                    |...p            |        utoff: -32400 (valid) 0x2a0-0x2a4 (4)
0x2a0|            00                                 |    .           |        dst: 0 (valid) 0x2a4-0x2a5 (1)
0x2a0|               21                              |     !          |        idx: 33 (valid) 0x2a5-0x2a6 (1)
     |                                               |                |    time_zone_designations[0:9]: 0x2a6-0x2cc (38)
0x2a0|                  4c 4d 54 00                  |      LMT.      |      [0]: "LMT" time_zone_designation 0x2a6-0x2aa (4)
0x2a0|                              4e 53 54 00      |          NST.  |      [1]: "NST" time_zone_designation 0x2aa-0x2ae (4)
0x2a0|                                          4e 57|              NW|      [2]: "NWT" time_zone_designation 0x2ae-0x2b2 (4)
0x2b0|54 00                                          |T.              |
0x2b0|      4e 50 54 00                              |  NPT.          |      [3]: "NPT" time_zone_designation 0x2b2-0x2b6 (4)
0x2b0|                  42 53 54 00                  |      BST.      |      [4]: "BST" time_zone_designation 0x2b6-0x2ba (4)
0x2b0|                              42 44 54 00      |          BDT.  |      [5]: "BDT" time_zone_designation 0x2ba-0x2be (4)
0x2b0|                                          59 53|              YS|      [6]: "YST" time_zone_designation 0x2be-0x2c2 (4)
0x2c0|54 00                                          |T.              |
0x2c0|      41 4b 44 54 00                           |  AKDT.         |      [7]: "AKDT" time_zone_designation 0x2c2-0x2c7 (5)
0x2c0|                     41 4b 53 54 00            |       AKST.    |      [8]: "AKST" time_zone_designation 0x2c7-0x2cc (5)
     |                                               |                |    leap_second_records[0:27]: 0x2cc-0x3a4 (216)
     |                                               |                |      [0]{}: leap_second_record 0x2cc-0x2d4 (8)
0x2c0|                                    04 b2 58 00|            ..X.|        occur: "1972-07-01T00:00:00Z" (78796800) 0x2cc-0x2d0 (4)
0x2d0|00 00 00 01                                    |....            |        corr: 1 0x2d0-0x2d4 (4)
     |                                               |                |      [1]{}: leap_second_record 0x2d4-0x2dc (8)
0x2d0|            05 a4 ec 01                        |    ....        |        occur: "1973-01-01T00:00:01Z" (94694401) 0x2d4-0x2d8 (4)
0x2d0|                        00 00 00 02            |        ....    |        corr: 2 0x2d8-0x2dc (4)
     |                                               |                |      [2]{}: leap_second_record 0x2dc-0x2e4 (8)
0x2d0|                                    07 86 1f 82|            ....|        occur: "1974-01-01T00:00:02Z" (126230402) 0x2dc-0x2e0 (4)
0x2e0|00 00 00 03                                    |....            |        corr: 3 0x2e0-0x2e4 (4)
     |                                               |                |      [3]{}: leap_second_record 0x2e4-0x2ec (8)
0x2e0|            09 67 53 03                        |    .gS.        |        occur: "1975-01-01T00:00:03Z" (157766403) 0x2e4-0x2e8 (4)
0x2e0|                        00 00 00 04            |        ....    |        corr: 4 0x2e8-0x2ec (4)
     |                                               |                |      [4]{}: leap_second_record 0x2ec-0x2f4 (8)
0x2e0|                                    0b 48 86 84|            .H..|        occur: "1976-01-01T00:00:04Z" (189302404) 0x2ec-0x2f0 (4)
0x2f0|00 00 00 05                                    |....            |        corr: 5 0x2f0-0x2f4 (4)
     |                                               |                |      [5]{}: leap_second_record 0x2f4-0x2fc (8)
0x2f0|            0d 2b 0b 85                        |    .+..        |        occur: "1977-01-01T00:00:05Z" (220924805) 0x2f4-0x2f8 (4)
0x2f0|                        00 00 00 06            |        ....    |        corr: 6 0x2f8-0x2fc (4)
     |                                               |                |      [6]{}: leap_second_record 0x2fc-0x304 (8)
0x2f0|                                    0f 0c 3f 06|            ..?.|        occur: "1978-01-01T00:00:06Z" (252460806) 0x2fc-0x300 (4)
0x300|00 00 00 07                                    |....            |        corr: 7 0x300-0x304 (4)
     |                                               |                |      [7]{}: leap_second_record 0x304-0x30c (8)
0x300|            10 ed 72 87                        |    ..r.        |        occur: "1979-01-01T00:00:07Z" (283996807) 0x304-0x308 (4)
0x300|                        00 00 00 08            |        ....    |        corr: 8 0x308-0x30c (4)
     |                                               |                |      [8]{}: leap_second_record 0x30c-0x314 (8)
0x300|                                    12 ce a6 08|            ....|        occur: "1980-01-01T00:00:08Z" (315532808) 0x30c-0x310 (4)
0x310|00 00 00 09                                    |....            |        corr: 9 0x310-0x314 (4)
     |                                               |                |      [9]{}: leap_second_record 0x314-0x31c (8)
0x310|            15 9f ca 89                        |    ....        |        occur: "1981-07-01T00:00:09Z" (362793609) 0x314-0x318 (4)
0x310|                        00 00 00 0a            |        ....    |        corr: 10 0x318-0x31c (4)
     |                                               |                |      [10]{}: leap_second_record 0x31c-0x324 (8)
0x310|                                    17 80 fe 0a|            ....|        occur: "1982-07-01T00:00:10Z" (394329610) 0x31c-0x320 (4)
0x320|00 00 00 0b                                    |....            |        corr: 11 0x320-0x324 (4)
     |                                               |                |      [11]{}: leap_second_record 0x324-0x32c (8)
0x320|            19 62 31 8b                        |    .b1.        |        occur: "1983-07-01T00:00:11Z" (425865611) 0x324-0x328 (4)
0x320|                        00 00 00 0c            |        ....    |        corr: 12 0x328-0x32c (4)
     |                                               |                |      [12]{}: leap_second_record 0x32c-0x334 (8)
0x320|                                    1d 25 ea 0c|            .%..|        occur: "1985-07-01T00:00:12Z" (489024012) 0x32c-0x330 (4)
0x330|00 00 00 0d                                    |....            |        corr: 13 0x330-0x334 (4)
     |                                               |                |      [13]{}: leap_second_record 0x334-0x33c (8)
0x330|            21 da e5 0d                        |    !...        |        occur: "1988-01-01T00:00:13Z" (567993613) 0x334-0x338 (4)
0x330|                        00 00 00 0e            |        ....    |        corr: 14 0x338-0x33c (4)
     |                                               |                |      [14]{}: leap_second_record 0x33c-0x344 (8)
0x330|                                    25 9e 9d 8e|            %...|        occur: "1990-01-01T00:00:14Z" (631152014) 0x33c-0x340 (4)
0x340|00 00 00 0f                                    |....            |        corr: 15 0x340-0x344 (4)
     |                                               |                |      [15]{}: leap_second_record 0x344-0x34c (8)
0x340|            27 7f d1 0f                        |    '...        |        occur: "1991-01-01T00:00:15Z" (662688015) 0x344-0x348 (4)
0x340|                        00 00 00 10            |        ....    |        corr: 16 0x348-0x34c (4)
     |                                               |                |      [16]{}: leap_second_record 0x34c-0x354 (8)
0x340|                                    2a 50 f5 90|            *P..|        occur: "1992-07-01T00:00:16Z" (709948816) 0x34c-0x350 (4)
0x350|00 00 00 11                                    |....            |        corr: 17 0x350-0x354 (4)
     |                                               |                |      [17]{}: leap_second_record 0x354-0x35c (8)
0x350|            2c 32 29 11                        |    ,2).        |        occur: "1993-07-01T00:00:17Z" (741484817) 0x354-0x358 (4)
0x350|                        00 00 00 12            |        ....    |        corr: 18 0x358-0x35c (4)
     |                                               |                |      [18]{}: leap_second_record 0x35c-0x364 (8)
0x350|                                    2e 13 5c 92|            ..\.|        occur: "1994-07-01T00:00:18Z" (773020818) 0x35c-0x360 (4)
0x360|00 00 00 13                                    |....            |        corr: 19 0x360-0x364 (4)
     |                                               |                |      [19]{}: leap_second_record 0x364-0x36c (8)
0x360|            30 e7 24 13                        |    0.$.        |        occur: "1996-01-01T00:00:19Z" (820454419) 0x364-0x368 (4)
0x360|                        00 00 00 14            |        ....    |        corr: 20 0x368-0x36c (4)
     |                                               |                |      [20]{}: leap_second_record 0x36c-0x374 (8)
0x360|                                    33 b8 48 94|            3.H.|        occur: "1997-07-01T00:00:20Z" (867715220) 0x36c-0x370 (4)
0x370|00 00 00 15                                    |....            |        corr: 21 0x370-0x374 (4)
     |                                               |                |      [21]{}: leap_second_record 0x374-0x37c (8)
0x370|            36 8c 10 15                        |    6...        |        occur: "1999-01-01T00:00:21Z" (915148821) 0x374-0x378 (4)
0x370|                        00 00 00 16            |        ....    |        corr: 22 0x378-0x37c (4)
     |                                               |                |      [22]{}: leap_second_record 0x37c-0x384 (8)
0x370|                                    43 b7 1b 96|            C...|        occur: "2006-01-01T00:00:22Z" (1136073622) 0x37c-0x380 (4)
0x380|00 00 00 17                                    |....            |        corr: 23 0x380-0x384 (4)
     |                                               |                |      [23]{}: leap_second_record 0x384-0x38c (8)
0x380|            49 5c 07 97                        |    I\..        |        occur: "2009-01-01T00:00:23Z" (1230768023) 0x384-0x388 (4)
0x380|                        00 00 00 18            |        ....    |        corr: 24 0x388-0x38c (4)
     |                                               |                |      [24]{}: leap_second_record 0x38c-0x394 (8)
0x380|                                    4f ef 93 18|            O...|        occur: "2012-07-01T00:00:24Z" (1341100824) 0x38c-0x390 (4)
0x390|00 00 00 19                                    |....            |        corr: 25 0x390-0x394 (4)
     |                                               |                |      [25]{}: leap_second_record 0x394-0x39c (8)
0x390|            55 93 2d 99                        |    U.-.        |        occur: "2015-07-01T00:00:25Z" (1435708825) 0x394-0x398 (4)
0x390|                        00 00 00 1a            |        ....    |        corr: 26 0x398-0x39c (4)
     |                                               |                |      [26]{}: leap_second_record 0x39c-0x3a4 (8)
0x390|                                    58 68 46 9a|            XhF.|        occur: "2017-01-01T00:00:26Z" (1483228826) 0x39c-0x3a0 (4)
0x3a0|00 00 00 1b                                    |....            |        corr: 27 0x3a0-0x3a4 (4)
     |                                               |                |    standard_wall_indicators[0:9]: 0x3a4-0x3ad (9)
0x3a0|            00                                 |    .           |      [0]: 0 standard_wall_indicator (valid) 0x3a4-0x3a5 (1)
0x3a0|               00                              |     .          |      [1]: 0 standard_wall_indicator (valid) 0x3a5-0x3a6 (1)
0x3a0|                  00                           |      .         |      [2]: 0 standard_wall_indicator (valid) 0x3a6-0x3a7 (1)
0x3a0|                     01                        |       .        |      [3]: 1 standard_wall_indicator (valid) 0x3a7-0x3a8 (1)
0x3a0|                        00                     |        .       |      [4]: 0 standard_wall_indicator (valid) 0x3a8-0x3a9 (1)
0x3a0|                           00                  |         .      |      [5]: 0 standard_wall_indicator (valid) 0x3a9-0x3aa (1)
0x3a0|                              00               |          .     |      [6]: 0 standard_wall_indicator (valid) 0x3aa-0x3ab (1)
0x3a0|                                 00            |           .    |      [7]: 0 standard_wall_indicator (valid) 0x3ab-0x3ac (1)
0x3a0|                                    00         |            .   |      [8]: 0 standard_wall_indicator (valid) 0x3ac-0x3ad (1)
     |                                               |                |    ut_local_indicators[0:9]: 0x3ad-0x3b6 (9)
0x3a0|                                       00      |             .  |      [0]: 0 ut_local_indicator (valid) 0x3ad-0x3ae (1)
0x3a0|                                          00   |              . |      [1]: 0 ut_local_indicator (valid) 0x3ae-0x3af (1)
0x3a0|                                             00|               .|      [2]: 0 ut_local_indicator (valid) 0x3af-0x3b0 (1)
0x3b0|01                                             |.               |      [3]: 1 ut_local_indicator (valid) 0x3b0-0x3b1 (1)
0x3b0|   00                                          | .              |      [4]: 0 ut_local_indicator (valid) 0x3b1-0x3b2 (1)
0x3b0|      00                                       |  .             |      [5]: 0 ut_local_indicator (valid) 0x3b2-0x3b3 (1)
0x3b0|         00                                    |   .            |      [6]: 0 ut_local_indicator (valid) 0x3b3-0x3b4 (1)
0x3b0|            00                                 |    .           |      [7]: 0 ut_local_indicator (valid) 0x3b4-0x3b5 (1)
0x3b0|               00                              |     .          |      [8]: 0 ut_local_indicator (valid) 0x3b5-0x3b6 (1)
     |                                               |                |  v2plusheader{}: 0x3b6-0x3e2 (44)
0x3b0|                  54 5a 69 66                  |      TZif      |    magic: 0x545a6966 (valid) 0x3b6-0x3ba (4)
0x3b0|                              32               |          2     |    ver: "2" (0x32) (valid) 0x3ba-0x3bb (1)
0x3b0|                                 00 00 00 00 00|           .....|    reserved: raw bits 0x3bb-0x3ca (15)
0x3c0|00 00 00 00 00 00 00 00 00 00                  |..........      |
0x3c0|                              00 00 00 0a      |          ....  |    isutcnt: 10 0x3ca-0x3ce (4)
0x3c0|                                          00 00|              ..|    isstdcnt: 10 0x3ce-0x3d2 (4)
0x3d0|00 0a                                          |..              |
0x3d0|      00 00 00 1b                              |  ....          |    leapcnt: 27 0x3d2-0x3d6 (4)
0x3d0|                  00 00 00 75                  |      ...u      |    timecnt: 117 0x3d6-0x3da (4)
0x3d0|                              00 00 00 0a      |          ....  |    typecnt: 10 0x3da-0x3de (4)
0x3d0|                                          00 00|              ..|    charcnt: 38 0x3de-0x3e2 (4)
0x3e0|00 26                                          |.&              |
     |                                               |                |  v2plusdatablock{}: 0x3e2-0x9b9 (1495)
     |                                               |                |    transition_times[0:117]: 0x3e2-0x78a (936)
0x3e0|      ff ff ff ff 3f c2 fd d1                  |  ....?...      |      [0]: "1867-10-19T00:31:13Z" (-3225223727) transition_time 0x3e2-0x3ea (8)
0x3e0|                              ff ff ff ff 7d 87|          ....}.|      [1]: "1900-08-20T23:01:38Z" (-2188947502) transition_time 0x3ea-0x3f2 (8)
0x3f0|4f d2                                          |O.              |
0x3f0|      ff ff ff ff cb 89 44 d0                  |  ......D.      |      [2]: "1942-02-09T13:00:00Z" (-880196400) transition_time 0x3f2-0x3fa (8)
0x3f0|                              ff ff ff ff d2 23|          .....#|      [3]: "1945-08-14T23:00:00Z" (-769395600) transition_time 0x3fa-0x402 (8)
0x400|f4 70                                          |.p              |
0x400|      ff ff ff ff d2 61 50 40                  |  .....aP@      |      [4]: "1945-09-30T12:00:00Z" (-765374400) transition_time 0x402-0x40a (8)
0x400|                              ff ff ff ff fa d2|          ......|      [5]: "1967-04-01T11:00:00Z" (-86878800) transition_time 0x40a-0x412 (8)
0x410|55 b0                                          |U.              |
0x410|      ff ff ff ff fe b8 71 50                  |  ......qP      |      [6]: "1969-04-27T13:00:00Z" (-21466800) transition_time 0x412-0x41a (8)
0x410|                              ff ff ff ff ff a8|          ......|      [7]: "1969-10-26T12:00:00Z" (-5745600) transition_time 0x41a-0x422 (8)
0x420|54 40                                          |T@              |
0x420|      00 00 00 00 00 98 53 50                  |  ......SP      |      [8]: "1970-04-26T13:00:00Z" (9982800) transition_time 0x422-0x42a (8)
0x420|                              00 00 00 00 01 88|          ......|      [9]: "1970-10-25T12:00:00Z" (25704000) transition_time 0x42a-0x432 (8)
0x430|36 40                                          |6@              |
0x430|      00 00 00 00 02 78 35 50                  |  .....x5P      |      [10]: "1971-04-25T13:00:00Z" (41432400) transition_time 0x432-0x43a (8)
0x430|                              00 00 00 00 03 71|          .....q|      [11]: "1971-10-31T12:00:00Z" (57758400) transition_time 0x43a-0x442 (8)
0x440|52 c0                                          |R.              |
0x440|      00 00 00 00 04 61 51 d0                  |  .....aQ.      |      [12]: "1972-04-30T13:00:00Z" (73486800) transition_time 0x442-0x44a (8)
0x440|                              00 00 00 00 05 51|          .....Q|      [13]: "1972-10-29T12:00:01Z" (89208001) transition_time 0x44a-0x452 (8)
0x450|34 c1                                          |4.              |
0x450|      00 00 00 00 06 41 33 d2                  |  .....A3.      |      [14]: "1973-04-29T13:00:02Z" (104936402) transition_time 0x452-0x45a (8)
0x450|                              00 00 00 00 07 31|          .....1|      [15]: "1973-10-28T12:00:02Z" (120657602) transition_time 0x45a-0x462 (8)
0x460|16 c2                                          |..              |
0x460|      00 00 00 00 07 8d 6d d3                  |  ......m.      |      [16]: "1974-01-06T13:00:03Z" (126709203) transition_time 0x462-0x46a (8)
0x460|                              00 00 00 00 09 10|          ......|      [17]: "1974-10-27T12:00:03Z" (152107203) transition_time 0x46a-0x472 (8)
0x470|f8 c3                                          |..              |
0x470|      00 00 00 00 09 ad e9 54                  |  .......T      |      [18]: "1975-02-23T13:00:04Z" (162392404) transition_time 0x472-0x47a (8)
0x470|                              00 00 00 00 0a f0|          ......|      [19]: "1975-10-26T12:00:04Z" (183556804) transition_time 0x47a-0x482 (8)
0x480|da c4                                          |..              |
0x480|      00 00 00 00 0b e0 d9 d5                  |  ........      |      [20]: "1976-04-25T13:00:05Z" (199285205) transition_time 0x482-0x48a (8)
0x480|                              00 00 00 00 0c d9|          ......|      [21]: "1976-10-31T12:00:05Z" (215611205) transition_time 0x48a-0x492 (8)
0x490|f7 45                                          |.E              |
0x490|      00 00 00 00 0d c0 bb d6                  |  ........      |      [22]: "1977-04-24T13:00:06Z" (230734806) transition_time 0x492-0x49a (8)
0x490|                              00 00 00 00 0e b9|          ......|      [23]: "1977-10-30T12:00:06Z" (247060806) transition_time 0x49a-0x4a2 (8)
0x4a0|d9 46                                          |.F              |
0x4a0|      00 00 00 00 0f a9 d8 57                  |  .......W      |      [24]: "1978-04-30T13:00:07Z" (262789207) transition_time 0x4a2-0x4aa (8)
0x4a0|                              00 00 00 00 10 99|          ......|      [25]: "1978-10-29T12:00:07Z" (278510407) transition_time 0x4aa-0x4b2 (8)
0x4b0|bb 47                                          |.G              |
0x4b0|      00 00 00 00 11 89 ba 58                  |  .......X      |      [26]: "1979-04-29T13:00:08Z" (294238808) transition_time 0x4b2-0x4ba (8)
0x4b0|                              00 00 00 00 12 79|          .....y|      [27]: "1979-10-28T12:00:08Z" (309960008) transition_time 0x4ba-0x4c2 (8)
0x4c0|9d 48                                          |.H              |
0x4c0|      00 00 00 00 13 69 9c 59                  |  .....i.Y      |      [28]: "1980-04-27T13:00:09Z" (325688409) transition_time 0x4c2-0x4ca (8)
0x4c0|                              00 00 00 00 14 59|          .....Y|      [29]: "1980-10-26T12:00:09Z" (341409609) transition_time 0x4ca-0x4d2 (8)
0x4d0|7f 49                                          |.I              |
0x4d0|      00 00 00 00 15 49 7e 59                  |  .....I~Y      |      [30]: "1981-04-26T13:00:09Z" (357138009) transition_time 0x4d2-0x4da (8)
0x4d0|                              00 00 00 00 16 39|          .....9|      [31]: "1981-10-25T12:00:10Z" (372859210) transition_time 0x4da-0x4e2 (8)
0x4e0|61 4a                                          |aJ              |
0x4e0|      00 00 00 00 17 29 60 5a                  |  .....)`Z      |      [32]: "1982-04-25T13:00:10Z" (388587610) transition_time 0x4e2-0x4ea (8)
0x4e0|                              00 00 00 00 18 22|          ....."|      [33]: "1982-10-31T12:00:11Z" (404913611) transition_time 0x4ea-0x4f2 (8)
0x4f0|7d cb                                          |}.              |
0x4f0|      00 00 00 00 19 09 42 5b                  |  ......B[      |      [34]: "1983-04-24T13:00:11Z" (420037211) transition_time 0x4f2-0x4fa (8)
0x4f0|                              00 00 00 00 1a 02|          ......|      [35]: "1983-10-30T12:00:12Z" (436363212) transition_time 0x4fa-0x502 (8)
0x500|5f cc                                          |_.              |
0x500|      00 00 00 00 1a 2b 14 1c                  |  .....+..      |      [36]: "1983-11-30T09:00:12Z" (439030812) transition_time 0x502-0x50a (8)
0x500|                              00 00 00 00 1a f2|          ......|      [37]: "1984-04-29T11:00:12Z" (452084412) transition_time 0x50a-0x512 (8)
0x510|42 bc                                          |B.              |
0x510|      00 00 00 00 1b e2 25 ac                  |  ......%.      |      [38]: "1984-10-28T10:00:12Z" (467805612) transition_time 0x512-0x51a (8)
0x510|                              00 00 00 00 1c d2|          ......|      [39]: "1985-04-28T11:00:12Z" (483534012) transition_time 0x51a-0x522 (8)
0x520|24 bc                                          |$.              |
0x520|      00 00 00 00 1d c2 07 ad                  |  ........      |      [40]: "1985-10-27T10:00:13Z" (499255213) transition_time 0x522-0x52a (8)
0x520|                              00 00 00 00 1e b2|          ......|      [41]: "1986-04-27T11:00:13Z" (514983613) transition_time 0x52a-0x532 (8)
0x530|06 bd                                          |..              |
0x530|      00 00 00 00 1f a1 e9 ad                  |  ........      |      [42]: "1986-10-26T10:00:13Z" (530704813) transition_time 0x532-0x53a (8)
0x530|                              00 00 00 00 20 76|          .... v|      [43]: "1987-04-05T11:00:13Z" (544618813) transition_time 0x53a-0x542 (8)
0x540|39 3d                                          |9=              |
0x540|      00 00 00 00 21 81 cb ad                  |  ....!...      |      [44]: "1987-10-25T10:00:13Z" (562154413) transition_time 0x542-0x54a (8)
0x540|                              00 00 00 00 22 56|          ...."V|      [45]: "1988-04-03T11:00:14Z" (576068414) transition_time 0x54a-0x552 (8)
0x550|1b 3e                                          |.>              |
0x550|      00 00 00 00 23 6a e8 2e                  |  ....#j..      |      [46]: "1988-10-30T10:00:14Z" (594208814) transition_time 0x552-0x55a (8)
0x550|                              00 00 00 00 24 35|          ....$5|      [47]: "1989-04-02T11:00:14Z" (607518014) transition_time 0x55a-0x562 (8)
0x560|fd 3e                                          |.>              |
0x560|      00 00 00 00 25 4a ca 2e                  |  ....%J..      |      [48]: "1989-10-29T10:00:14Z" (625658414) transition_time 0x562-0x56a (8)
0x560|                              00 00 00 00 26 15|          ....&.|      [49]: "1990-04-01T11:00:15Z" (638967615) transition_time 0x56a-0x572 (8)
0x570|df 3f                                          |.?              |
0x570|      00 00 00 00 27 2a ac 2f                  |  ....'*./      |      [50]: "1990-10-28T10:00:15Z" (657108015) transition_time 0x572-0x57a (8)
0x570|                              00 00 00 00 27 fe|          ....'.|      [51]: "1991-04-07T11:00:16Z" (671022016) transition_time 0x57a-0x582 (8)
0x580|fb c0                                          |..              |
0x580|      00 00 00 00 29 0a 8e 30                  |  ....)..0      |      [52]: "1991-10-27T10:00:16Z" (688557616) transition_time 0x582-0x58a (8)
0x580|                              00 00 00 00 29 de|          ....).|      [53]: "1992-04-05T11:00:16Z" (702471616) transition_time 0x58a-0x592 (8)
0x590|dd c0                                          |..              |
0x590|      00 00 00 00 2a ea 70 31                  |  ....*.p1      |      [54]: "1992-10-25T10:00:17Z" (720007217) transition_time 0x592-0x59a (8)
0x590|                              00 00 00 00 2b be|          ....+.|      [55]: "1993-04-04T11:00:17Z" (733921217) transition_time 0x59a-0x5a2 (8)
0x5a0|bf c1                                          |..              |
0x5a0|      00 00 00 00 2c d3 8c b2                  |  ....,...      |      [56]: "1993-10-31T10:00:18Z" (752061618) transition_time 0x5a2-0x5aa (8)
0x5a0|                              00 00 00 00 2d 9e|          ....-.|      [57]: "1994-04-03T11:00:18Z" (765370818) transition_time 0x5aa-0x5b2 (8)
0x5b0|a1 c2                                          |..              |
0x5b0|      00 00 00 00 2e b3 6e b3                  |  ......n.      |      [58]: "1994-10-30T10:00:19Z" (783511219) transition_time 0x5b2-0x5ba (8)
0x5b0|                              00 00 00 00 2f 7e|          ..../~|      [59]: "1995-04-02T11:00:19Z" (796820419) transition_time 0x5ba-0x5c2 (8)
0x5c0|83 c3                                          |..              |
0x5c0|      00 00 00 00 30 93 50 b3                  |  ....0.P.      |      [60]: "1995-10-29T10:00:19Z" (814960819) transition_time 0x5c2-0x5ca (8)
0x5c0|                              00 00 00 00 31 67|          ....1g|      [61]: "1996-04-07T11:00:20Z" (828874820) transition_time 0x5ca-0x5d2 (8)
0x5d0|a0 44                                          |.D              |
0x5d0|      00 00 00 00 32 73 32 b4                  |  ....2s2.      |      [62]: "1996-10-27T10:00:20Z" (846410420) transition_time 0x5d2-0x5da (8)
0x5d0|                              00 00 00 00 33 47|          ....3G|      [63]: "1997-04-06T11:00:20Z" (860324420) transition_time 0x5da-0x5e2 (8)
0x5e0|82 44                                          |.D              |
0x5e0|      00 00 00 00 34 53 14 b5                  |  ....4S..      |      [64]: "1997-10-26T10:00:21Z" (877860021) transition_time 0x5e2-0x5ea (8)
0x5e0|                              00 00 00 00 35 27|          ....5'|      [65]: "1998-04-05T11:00:21Z" (891774021) transition_time 0x5ea-0x5f2 (8)
0x5f0|64 45                                          |dE              |
0x5f0|      00 00 00 00 36 32 f6 b5                  |  ....62..      |      [66]: "1998-10-25T10:00:21Z" (909309621) transition_time 0x5f2-0x5fa (8)
0x5f0|                              00 00 00 00 37 07|          ....7.|      [67]: "1999-04-04T11:00:22Z" (923223622) transition_time 0x5fa-0x602 (8)
0x600|46 46                                          |FF              |
0x600|      00 00 00 00 38 1c 13 36                  |  ....8..6      |      [68]: "1999-10-31T10:00:22Z" (941364022) transition_time 0x602-0x60a (8)
0x600|                              00 00 00 00 38 e7|          ....8.|      [69]: "2000-04-02T11:00:22Z" (954673222) transition_time 0x60a-0x612 (8)
0x610|28 46                                          |(F              |
0x610|      00 00 00 00 39 fb f5 36                  |  ....9..6      |      [70]: "2000-10-29T10:00:22Z" (972813622) transition_time 0x612-0x61a (8)
0x610|                              00 00 00 00 3a c7|          ....:.|      [71]: "2001-04-01T11:00:22Z" (986122822) transition_time 0x61a-0x622 (8)
0x620|0a 46                                          |.F              |
0x620|      00 00 00 00 3b db d7 36                  |  ....;..6      |      [72]: "2001-10-28T10:00:22Z" (1004263222) transition_time 0x622-0x62a (8)
0x620|                              00 00 00 00 3c b0|          ....<.|      [73]: "2002-04-07T11:00:22Z" (1018177222) transition_time 0x62a-0x632 (8)
0x630|26 c6                                          |&.              |
0x630|      00 00 00 00 3d bb b9 36                  |  ....=..6      |      [74]: "2002-10-27T10:00:22Z" (1035712822) transition_time 0x632-0x63a (8)
0x630|                              00 00 00 00 3e 90|          ....>.|      [75]: "2003-04-06T11:00:22Z" (1049626822) transition_time 0x63a-0x642 (8)
0x640|08 c6                                          |..              |
0x640|      00 00 00 00 3f 9b 9b 36                  |  ....?..6      |      [76]: "2003-10-26T10:00:22Z" (1067162422) transition_time 0x642-0x64a (8)
0x640|                              00 00 00 00 40 6f|          ....@o|      [77]: "2004-04-04T11:00:22Z" (1081076422) transition_time 0x64a-0x652 (8)
0x650|ea c6                                          |..              |
0x650|      00 00 00 00 41 84 b7 b6                  |  ....A...      |      [78]: "2004-10-31T10:00:22Z" (1099216822) transition_time 0x652-0x65a (8)
0x650|                              00 00 00 00 42 4f|          ....BO|      [79]: "2005-04-03T11:00:22Z" (1112526022) transition_time 0x65a-0x662 (8)
0x660|cc c6                                          |..              |
0x660|      00 00 00 00 43 64 99 b6                  |  ....Cd..      |      [80]: "2005-10-30T10:00:22Z" (1130666422) transition_time 0x662-0x66a (8)
0x660|                              00 00 00 00 44 2f|          ....D/|      [81]: "2006-04-02T11:00:23Z" (1143975623) transition_time 0x66a-0x672 (8)
0x670|ae c7                                          |..              |
0x670|      00 00 00 00 45 44 7b b7                  |  ....ED{.      |      [82]: "2006-10-29T10:00:23Z" (1162116023) transition_time 0x672-0x67a (8)
0x670|                              00 00 00 00 45 f3|          ....E.|      [83]: "2007-03-11T11:00:23Z" (1173610823) transition_time 0x67a-0x682 (8)
0x680|e1 47                                          |.G              |
0x680|      00 00 00 00 47 2d 98 37                  |  ....G-.7      |      [84]: "2007-11-04T10:00:23Z" (1194170423) transition_time 0x682-0x68a (8)
0x680|                              00 00 00 00 47 d3|          ....G.|      [85]: "2008-03-09T11:00:23Z" (1205060423) transition_time 0x68a-0x692 (8)
0x690|c3 47                                          |.G              |
0x690|      00 00 00 00 49 0d 7a 37                  |  ....I.z7      |      [86]: "2008-11-02T10:00:23Z" (1225620023) transition_time 0x692-0x69a (8)
0x690|                              00 00 00 00 49 b3|          ....I.|      [87]: "2009-03-08T11:00:24Z" (1236510024) transition_time 0x69a-0x6a2 (8)
0x6a0|a5 48                                          |.H              |
0x6a0|      00 00 00 00 4a ed 5c 38                  |  ....J.\8      |      [88]: "2009-11-01T10:00:24Z" (1257069624) transition_time 0x6a2-0x6aa (8)
0x6a0|                              00 00 00 00 4b 9c|          ....K.|      [89]: "2010-03-14T11:00:24Z" (1268564424) transition_time 0x6aa-0x6b2 (8)
0x6b0|c1 c8                                          |..              |
0x6b0|      00 00 00 00 4c d6 78 b8                  |  ....L.x.      |      [90]: "2010-11-07T10:00:24Z" (1289124024) transition_time 0x6b2-0x6ba (8)
0x6b0|                              00 00 00 00 4d 7c|          ....M||      [91]: "2011-03-13T11:00:24Z" (1300014024) transition_time 0x6ba-0x6c2 (8)
0x6c0|a3 c8                                          |..              |
0x6c0|      00 00 00 00 4e b6 5a b8                  |  ....N.Z.      |      [92]: "2011-11-06T10:00:24Z" (1320573624) transition_time 0x6c2-0x6ca (8)
0x6c0|                              00 00 00 00 4f 5c|          ....O\|      [93]: "2012-03-11T11:00:24Z" (1331463624) transition_time 0x6ca-0x6d2 (8)
0x6d0|85 c8                                          |..              |
0x6d0|      00 00 00 00 50 96 3c b9                  |  ....P.<.      |      [94]: "2012-11-04T10:00:25Z" (1352023225) transition_time 0x6d2-0x6da (8)
0x6d0|                              00 00 00 00 51 3c|          ....Q<|      [95]: "2013-03-10T11:00:25Z" (1362913225) transition_time 0x6da-0x6e2 (8)
0x6e0|67 c9                                          |g.              |
0x6e0|      00 00 00 00 52 76 1e b9                  |  ....Rv..      |      [96]: "2013-11-03T10:00:25Z" (1383472825) transition_time 0x6e2-0x6ea (8)
0x6e0|                              00 00 00 00 53 1c|          ....S.|      [97]: "2014-03-09T11:00:25Z" (1394362825) transition_time 0x6ea-0x6f2 (8)
0x6f0|49 c9                                          |I.              |
0x6f0|      00 00 00 00 54 56 00 b9                  |  ....TV..      |      [98]: "2014-11-02T10:00:25Z" (1414922425) transition_time 0x6f2-0x6fa (8)
0x6f0|                              00 00 00 00 54 fc|          ....T.|      [99]: "2015-03-08T11:00:25Z" (1425812425) transition_time 0x6fa-0x702 (8)
0x700|2b c9                                          |+.              |
0x700|      00 00 00 00 56 35 e2 ba                  |  ....V5..      |      [100]: "2015-11-01T10:00:26Z" (1446372026) transition_time 0x702-0x70a (8)
0x700|                              00 00 00 00 56 e5|          ....V.|      [101]: "2016-03-13T11:00:26Z" (1457866826) transition_time 0x70a-0x712 (8)
0x710|48 4a                                          |HJ              |
0x710|      00 00 00 00 58 1e ff 3a                  |  ....X..:      |      [102]: "2016-11-06T10:00:26Z" (1478426426) transition_time 0x712-0x71a (8)
0x710|                              00 00 00 00 58 c5|          ....X.|      [103]: "2017-03-12T11:00:27Z" (1489316427) transition_time 0x71a-0x722 (8)
0x720|2a 4b                                          |*K              |
0x720|      00 00 00 00 59 fe e1 3b                  |  ....Y..;      |      [104]: "2017-11-05T10:00:27Z" (1509876027) transition_time 0x722-0x72a (8)
0x720|                              00 00 00 00 5a a5|          ....Z.|      [105]: "2018-03-11T11:00:27Z" (1520766027) transition_time 0x72a-0x732 (8)
0x730|0c 4b                                          |.K              |
0x730|      00 00 00 00 5b de c3 3b                  |  ....[..;      |      [106]: "2018-11-04T10:00:27Z" (1541325627) transition_time 0x732-0x73a (8)
0x730|                              00 00 00 00 5c 84|          ....\.|      [107]: "2019-03-10T11:00:27Z" (1552215627) transition_time 0x73a-0x742 (8)
0x740|ee 4b                                          |.K              |
0x740|      00 00 00 00 5d be a5 3b                  |  ....]..;      |      [108]: "2019-11-03T10:00:27Z" (1572775227) transition_time 0x742-0x74a (8)
0x740|                              00 00 00 00 5e 64|          ....^d|      [109]: "2020-03-08T11:00:27Z" (1583665227) transition_time 0x74a-0x752 (8)
0x750|d0 4b                                          |.K              |
0x750|      00 00 00 00 5f 9e 87 3b                  |  ...._..;      |      [110]: "2020-11-01T10:00:27Z" (1604224827) transition_time 0x752-0x75a (8)
0x750|                              00 00 00 00 60 4d|          ....`M|      [111]: "2021-03-14T11:00:27Z" (1615719627) transition_time 0x75a-0x762 (8)
0x760|ec cb                                          |..              |
0x760|      00 00 00 00 61 87 a3 bb                  |  ....a...      |      [112]: "2021-11-07T10:00:27Z" (1636279227) transition_time 0x762-0x76a (8)
0x760|                              00 00 00 00 62 2d|          ....b-|      [113]: "2022-03-13T11:00:27Z" (1647169227) transition_time 0x76a-0x772 (8)
0x770|ce cb                                          |..              |
0x770|      00 00 00 00 63 67 85 bb                  |  ....cg..      |      [114]: "2022-11-06T10:00:27Z" (1667728827) transition_time 0x772-0x77a (8)
0x770|                              00 00 00 00 64 0d|          ....d.|      [115]: "2023-03-12T11:00:27Z" (1678618827) transition_time 0x77a-0x782 (8)
0x780|b0 cb                                          |..              |
0x780|      00 00 00 00 64 9b 78 1b                  |  ....d.x.      |      [116]: "2023-06-28T00:00:27Z" (1687910427) transition_time 0x782-0x78a (8)
     |                                               |                |    transition_types[0:117]: 0x78a-0x7ff (117)
0x780|                              01               |          .     |      [0]: 1 transition_type 0x78a-0x78b (1)
0x780|                                 02            |           .    |      [1]: 2 transition_type 0x78b-0x78c (1)
0x780|                                    03         |            .   |      [2]: 3 transition_type 0x78c-0x78d (1)
0x780|                                       04      |             .  |      [3]: 4 transition_type 0x78d-0x78e (1)
0x780|                                          02   |              . |      [4]: 2 transition_type 0x78e-0x78f (1)
0x780|                                             05|               .|      [5]: 5 transition_type 0x78f-0x790 (1)
0x790|06                                             |.               |      [6]: 6 transition_type 0x790-0x791 (1)
0x790|   05                                          | .              |      [7]: 5 transition_type 0x791-0x792 (1)
0x790|      06                                       |  .             |      [8]: 6 transition_type 0x792-0x793 (1)
0x790|         05                                    |   .            |      [9]: 5 transition_type 0x793-0x794 (1)
0x790|            06                                 |    .           |      [10]: 6 transition_type 0x794-0x795 (1)
0x790|               05                              |     .          |      [11]: 5 transition_type 0x795-0x796 (1)
0x790|                  06                           |      .         |      [12]: 6 transition_type 0x796-0x797 (1)
0x790|                     05                        |       .        |      [13]: 5 transition_type 0x797-0x798 (1)
0x790|                        06                     |        .       |      [14]: 6 transition_type 0x798-0x799 (1)
0x790|                           05                  |         .      |      [15]: 5 transition_type 0x799-0x79a (1)
0x790|                              06               |          .     |      [16]: 6 transition_type 0x79a-0x79b (1)
0x790|                                 05            |           .    |      [17]: 5 transition_type 0x79b-0x79c (1)
0x790|                                    06         |            .   |      [18]: 6 transition_type 0x79c-0x79d (1)
0x790|                                       05      |             .  |      [19]: 5 transition_type 0x79d-0x79e (1)
0x790|                                          06   |              . |      [20]: 6 transition_type 0x79e-0x79f (1)
0x790|                                             05|               .|      [21]: 5 transition_type 0x79f-0x7a0 (1)
0x7a0|06                                             |.               |      [22]: 6 transition_type 0x7a0-0x7a1 (1)
0x7a0|   05                                          | .              |      [23]: 5 transition_type 0x7a1-0x7a2 (1)
0x7a0|      06                                       |  .             |      [24]: 6 transition_type 0x7a2-0x7a3 (1)
0x7a0|         05                                    |   .            |      [25]: 5 transition_type 0x7a3-0x7a4 (1)
0x7a0|            06                                 |    .           |      [26]: 6 transition_type 0x7a4-0x7a5 (1)
0x7a0|               05                              |     .          |      [27]: 5 transition_type 0x7a5-0x7a6 (1)
0x7a0|                  06                           |      .         |      [28]: 6 transition_type 0x7a6-0x7a7 (1)
0x7a0|                     05                        |       .        |      [29]: 5 transition_type 0x7a7-0x7a8 (1)
0x7a0|                        06                     |        .       |      [30]: 6 transition_type 0x7a8-0x7a9 (1)
0x7a0|                           05                  |         .      |      [31]: 5 transition_type 0x7a9-0x7aa (1)
0x7a0|                              06               |          .     |      [32]: 6 transition_type 0x7aa-0x7ab (1)
0x7a0|                                 05            |           .    |      [33]: 5 transition_type 0x7ab-0x7ac (1)
0x7a0|                                    06         |            .   |      [34]: 6 transition_type 0x7ac-0x7ad (1)
0x7a0|                                       07      |             .  |      [35]: 7 transition_type 0x7ad-0x7ae (1)
0x7a0|                                          09   |              . |      [36]: 9 transition_type 0x7ae-0x7af (1)
0x7a0|                                             08|               .|      [37]: 8 transition_type 0x7af-0x7b0 (1)
0x7b0|09                                             |.               |      [38]: 9 transition_type 0x7b0-0x7b1 (1)
0x7b0|   08                                          | .              |      [39]: 8 transition_type 0x7b1-0x7b2 (1)
0x7b0|      09                                       |  .             |      [40]: 9 transition_type 0x7b2-0x7b3 (1)
0x7b0|         08                                    |   .            |      [41]: 8 transition_type 0x7b3-0x7b4 (1)
0x7b0|            09                                 |    .           |      [42]: 9 transition_type 0x7b4-0x7b5 (1)
0x7b0|               08                              |     .          |      [43]: 8 transition_type 0x7b5-0x7b6 (1)
0x7b0|                  09                           |      .         |      [44]: 9 transition_type 0x7b6-0x7b7 (1)
0x7b0|                     08                        |       .        |      [45]: 8 transition_type 0x7b7-0x7b8 (1)
0x7b0|                        09                     |        .       |      [46]: 9 transition_type 0x7b8-0x7b9 (1)
0x7b0|                           08                  |         .      |      [47]: 8 transition_type 0x7b9-0x7ba (1)
0x7b0|                              09               |          .     |      [48]: 9 transition_type 0x7ba-0x7bb (1)
0x7b0|                                 08            |           .    |      [49]: 8 transition_type 0x7bb-0x7bc (1)
0x7b0|                                    09         |            .   |      [50]: 9 transition_type 0x7bc-0x7bd (1)
0x7b0|                                       08      |             .  |      [51]: 8 transition_type 0x7bd-0x7be (1)
0x7b0|                                          09   |              . |      [52]: 9 transition_type 0x7be-0x7bf (1)
0x7b0|                                             08|               .|      [53]: 8 transition_type 0x7bf-0x7c0 (1)
0x7c0|09                                             |.               |      [54]: 9 transition_type 0x7c0-0x7c1 (1)
0x7c0|   08                                          | .              |      [55]: 8 transition_type 0x7c1-0x7c2 (1)
0x7c0|      09                                       |  .             |      [56]: 9 transition_type 0x7c2-0x7c3 (1)
0x7c0|         08                                    |   .            |      [57]: 8 transition_type 0x7c3-0x7c4 (1)
0x7c0|            09                                 |    .           |      [58]: 9 transition_type 0x7c4-0x7c5 (1)
0x7c0|               08                              |     .          |      [59]: 8 transition_type 0x7c5-0x7c6 (1)
0x7c0|                  09                           |      .         |      [60]: 9 transition_type 0x7c6-0x7c7 (1)
0x7c0|                     08                        |       .        |      [61]: 8 transition_type 0x7c7-0x7c8 (1)
0x7c0|                        09                     |        .       |      [62]: 9 transition_type 0x7c8-0x7c9 (1)
0x7c0|                           08                  |         .      |      [63]: 8 transition_type 0x7c9-0x7ca (1)
0x7c0|                              09               |          .     |      [64]: 9 transition_type 0x7ca-0x7cb (1)
0x7c0|                                 08            |           .    |      [65]: 8 transition_type 0x7cb-0x7cc (1)
0x7c0|                                    09         |            .   |      [66]: 9 transition_type 0x7cc-0x7cd (1)
0x7c0|                                       08      |             .  |      [67]: 8 transition_type 0x7cd-0x7ce (1)
0x7c0|                                          09   |              . |      [68]: 9 transition_type 0x7ce-0x7cf (1)
0x7c0|                                             08|               .|      [69]: 8 transition_type 0x7cf-0x7d0 (1)
0x7d0|09                                             |.               |      [70]: 9 transition_type 0x7d0-0x7d1 (1)
0x7d0|   08                                          | .              |      [71]: 8 transition_type 0x7d1-0x7d2 (1)
0x7d0|      09                                       |  .             |      [72]: 9 transition_type 0x7d2-0x7d3 (1)
0x7d0|         08                                    |   .            |      [73]: 8 transition_type 0x7d3-0x7d4 (1)
0x7d0|            09                                 |    .           |      [74]: 9 transition_type 0x7d4-0x7d5 (1)
0x7d0|               08                              |     .          |      [75]: 8 transition_type 0x7d5-0x7d6 (1)
0x7d0|                  09                           |      .         |      [76]: 9 transition_type 0x7d6-0x7d7 (1)
0x7d0|                     08                        |       .        |      [77]: 8 transition_type 0x7d7-0x7d8 (1)
0x7d0|                        09                     |        .       |      [78]: 9 transition_type 0x7d8-0x7d9 (1)
0x7d0|                           08                  |         .      |      [79]: 8 transition_type 0x7d9-0x7da (1)
0x7d0|                              09               |          .     |      [80]: 9 transition_type 0x7da-0x7db (1)
0x7d0|                                 08            |           .    |      [81]: 8 transition_type 0x7db-0x7dc (1)
0x7d0|                                    09         |            .   |      [82]: 9 transition_type 0x7dc-0x7dd (1)
0x7d0|                                       08      |             .  |      [83]: 8 transition_type 0x7dd-0x7de (1)
0x7d0|                                          09   |              . |      [84]: 9 transition_type 0x7de-0x7df (1)
0x7d0|                                             08|               .|      [85]: 8 transition_type 0x7df-0x7e0 (1)
0x7e0|09                                             |.               |      [86]: 9 transition_type 0x7e0-0x7e1 (1)
0x7e0|   08                                          | .              |      [87]: 8 transition_type 0x7e1-0x7e2 (1)
0x7e0|      09                                       |  .             |      [88]: 9 transition_type 0x7e2-0x7e3 (1)
0x7e0|         08                                    |   .            |      [89]: 8 transition_type 0x7e3-0x7e4 (1)
0x7e0|            09                                 |    .           |      [90]: 9 transition_type 0x7e4-0x7e5 (1)
0x7e0|               08                              |     .          |      [91]: 8 transition_type 0x7e5-0x7e6 (1)
0x7e0|                  09                           |      .         |      [92]: 9 transition_type 0x7e6-0x7e7 (1)
0x7e0|                     08                        |       .        |      [93]: 8 transition_type 0x7e7-0x7e8 (1)
0x7e0|                        09                     |        .       |      [94]: 9 transition_type 0x7e8-0x7e9 (1)
0x7e0|                           08                  |         .      |      [95]: 8 transition_type 0x7e9-0x7ea (1)
0x7e0|                              09               |          .     |      [96]: 9 transition_type 0x7ea-0x7eb (1)
0x7e0|                                 08            |           .    |      [97]: 8 transition_type 0x7eb-0x7ec (1)
0x7e0|                                    09         |            .   |      [98]: 9 transition_type 0x7ec-0x7ed (1)
0x7e0|                                       08      |             .  |      [99]: 8 transition_type 0x7ed-0x7ee (1)
0x7e0|                                          09   |              . |      [100]: 9 transition_type 0x7ee-0x7ef (1)
0x7e0|                                             08|               .|      [101]: 8 transition_type 0x7ef-0x7f0 (1)
0x7f0|09                                             |.               |      [102]: 9 transition_type 0x7f0-0x7f1 (1)
0x7f0|   08                                          | .              |      [103]: 8 transition_type 0x7f1-0x7f2 (1)
0x7f0|      09                                       |  .             |      [104]: 9 transition_type 0x7f2-0x7f3 (1)
0x7f0|         08                                    |   .            |      [105]: 8 transition_type 0x7f3-0x7f4 (1)
0x7f0|            09                                 |    .           |      [106]: 9 transition_type 0x7f4-0x7f5 (1)
0x7f0|               08                              |     .          |      [107]: 8 transition_type 0x7f5-0x7f6 (1)
0x7f0|                  09                           |      .         |      [108]: 9 transition_type 0x7f6-0x7f7 (1)
0x7f0|                     08                        |       .        |      [109]: 8 transition_type 0x7f7-0x7f8 (1)
0x7f0|                        09                     |        .       |      [110]: 9 transition_type 0x7f8-0x7f9 (1)
0x7f0|                           08                  |         .      |      [111]: 8 transition_type 0x7f9-0x7fa (1)
0x7f0|                              09               |          .     |      [112]: 9 transition_type 0x7fa-0x7fb (1)
0x7f0|                                 08            |           .    |      [113]: 8 transition_type 0x7fb-0x7fc (1)
0x7f0|                                    09         |            .   |      [114]: 9 transition_type 0x7fc-0x7fd (1)
0x7f0|                                       08      |             .  |      [115]: 8 transition_type 0x7fd-0x7fe (1)
0x7f0|                                          08   |              . |      [116]: 8 transition_type 0x7fe-0x7ff (1)
     |                                               |                |    local_time_type_records[0:10]: 0x7ff-0x83b (60)
     |                                               |                |      [0]{}: local_time_type 0x7ff-0x805 (6)
0x7f0|                                             00|               .|        utoff: 46702 (valid) 0x7ff-0x803 (4)
0x800|00 b6 6e                                       |..n             |
0x800|         00                                    |   .            |        dst: 0 (valid) 0x803-0x804 (1)
0x800|            00                                 |    .           |        idx: 0 (valid) 0x804-0x805 (1)
     |                                               |                |      [1]{}: local_time_type 0x805-0x80b (6)
0x800|               ff ff 64 ee                     |     ..d.       |        utoff: -39698 (valid) 0x805-0x809 (4)
0x800|                           00                  |         .      |        dst: 0 (valid) 0x809-0x80a (1)
0x800|                              00               |          .     |        idx: 0 (valid) 0x80a-0x80b (1)
     |                                               |                |      [2]{}: local_time_type 0x80b-0x811 (6)
0x800|                                 ff ff 65 50   |           ..eP |        utoff: -39600 (valid) 0x80b-0x80f (4)
0x800|                                             00|               .|        dst: 0 (valid) 0x80f-0x810 (1)
0x810|04                                             |.               |        idx: 4 (valid) 0x810-0x811 (1)
     |                                               |                |      [3]{}: local_time_type 0x811-0x817 (6)
0x810|   ff ff 73 60                                 | ..s`           |        utoff: -36000 (valid) 0x811-0x815 (4)
0x810|               01                              |     .          |        dst: 1 (valid) 0x815-0x816 (1)
0x810|                  08                           |      .         |        idx: 8 (valid) 0x816-0x817 (1)
     |                                               |                |      [4]{}: local_time_type 0x817-0x81d (6)
0x810|                     ff ff 73 60               |       ..s`     |        utoff: -36000 (valid) 0x817-0x81b (4)
0x810|                                 01            |           .    |        dst: 1 (valid) 0x81b-0x81c (1)
0x810|                                    0c         |            .   |        idx: 12 (valid) 0x81c-0x81d (1)
     |                                               |                |      [5]{}: local_time_type 0x81d-0x823 (6)
0x810|                                       ff ff 65|             ..e|        utoff: -39600 (valid) 0x81d-0x821 (4)
0x820|50                                             |P               |
0x820|   00                                          | .              |        dst: 0 (valid) 0x821-0x822 (1)
0x820|      10                                       |  .             |        idx: 16 (valid) 0x822-0x823 (1)
     |                                               |                |      [6]{}: local_time_type 0x823-0x829 (6)
0x820|         ff ff 73 60                           |   ..s`         |        utoff: -36000 (valid) 0x823-0x827 (4)
0x820|                     01                        |       .        |        dst: 1 (valid) 0x827-0x828 (1)
0x820|                        14                     |        .       |        idx: 20 (valid) 0x828-0x829 (1)
     |                                               |                |      [7]{}: local_time_type 0x829-0x82f (6)
0x820|                           ff ff 81 70         |         ...p   |        utoff: -32400 (valid) 0x829-0x82d (4)
0x820|                                       00      |             .  |        dst: 0 (valid) 0x82d-0x82e (1)
0x820|                                          18   |              . |        idx: 24 (valid) 0x82e-0x82f (1)
     |                                               |                |      [8]{}: local_time_type 0x82f-0x835 (6)
0x820|                                             ff|               .|        utoff: -28800 (valid) 0x82f-0x833 (4)
0x830|ff 8f 80                                       |...             |
0x830|         01                                    |   .            |        dst: 1 (valid) 0x833-0x834 (1)
0x830|            1c                                 |    .           |        idx: 28 (valid) 0x834-0x835 (1)
     |                                               |                |      [9]{}: local_time_type 0x835-0x83b (6)
0x830|               ff ff 81 70                     |     ...p       |        utoff: -32400 (valid) 0x835-0x839 (4)
0x830|                           00                  |         .      |        dst: 0 (valid) 0x839-0x83a (1)
0x830|                              21               |          !     |        idx: 33 (valid) 0x83a-0x83b (1)
     |                                               |                |    time_zone_designations[0:9]: 0x83b-0x861 (38)
0x830|                                 4c 4d 54 00   |           LMT. |      [0]: "LMT" time_zone_designation 0x83b-0x83f (4)
0x830|                                             4e|               N|      [1]: "NST" time_zone_designation 0x83f-0x843 (4)
0x840|53 54 00                                       |ST.             |
0x840|         4e 57 54 00                           |   NWT.         |      [2]: "NWT" time_zone_designation 0x843-0x847 (4)
0x840|                     4e 50 54 00               |       NPT.     |      [3]: "NPT" time_zone_designation 0x847-0x84b (4)
0x840|                                 42 53 54 00   |           BST. |      [4]: "BST" time_zone_designation 0x84b-0x84f (4)
0x840|                                             42|               B|      [5]: "BDT" time_zone_designation 0x84f-0x853 (4)
0x850|44 54 00                                       |DT.             |
0x850|         59 53 54 00                           |   YST.         |      [6]: "YST" time_zone_designation 0x853-0x857 (4)
0x850|                     41 4b 44 54 00            |       AKDT.    |      [7]: "AKDT" time_zone_designation 0x857-0x85c (5)
0x850|                                    41 4b 53 54|            AKST|      [8]: "AKST" time_zone_designation 0x85c-0x861 (5)
0x860|00                                             |.               |
     |                                               |                |    leap_second_records[0:27]: 0x861-0x9a5 (324)
     |                                               |                |      [0]{}: leap_second_record 0x861-0x86d (12)
0x860|   00 00 00 00 04 b2 58 00                     | ......X.       |        occur: "1972-07-01T00:00:00Z" (78796800) 0x861-0x869 (8)
0x860|                           00 00 00 01         |         ....   |        corr: 1 0x869-0x86d (4)
     |                                               |                |      [1]{}: leap_second_record 0x86d-0x879 (12)
0x860|                                       00 00 00|             ...|        occur: "1973-01-01T00:00:01Z" (94694401) 0x86d-0x875 (8)
0x870|00 05 a4 ec 01                                 |.....           |
0x870|               00 00 00 02                     |     ....       |        corr: 2 0x875-0x879 (4)
     |                                               |                |      [2]{}: leap_second_record 0x879-0x885 (12)
0x870|                           00 00 00 00 07 86 1f|         .......|        occur: "1974-01-01T00:00:02Z" (126230402) 0x879-0x881 (8)
0x880|82                                             |.               |
0x880|   00 00 00 03                                 | ....           |        corr: 3 0x881-0x885 (4)
     |                                               |                |      [3]{}: leap_second_record 0x885-0x891 (12)
0x880|               00 00 00 00 09 67 53 03         |     .....gS.   |        occur: "1975-01-01T00:00:03Z" (157766403) 0x885-0x88d (8)
0x880|                                       00 00 00|             ...|        corr: 4 0x88d-0x891 (4)
0x890|04                                             |.               |
     |                                               |                |      [4]{}: leap_second_record 0x891-0x89d (12)
0x890|   00 00 00 00 0b 48 86 84                     | .....H..       |        occur: "1976-01-01T00:00:04Z" (189302404) 0x891-0x899 (8)
0x890|                           00 00 00 05         |         ....   |        corr: 5 0x899-0x89d (4)
     |                                               |                |      [5]{}: leap_second_record 0x89d-0x8a9 (12)
0x890|                                       00 00 00|             ...|        occur: "1977-01-01T00:00:05Z" (220924805) 0x89d-0x8a5 (8)
0x8a0|00 0d 2b 0b 85                                 |..+..           |
0x8a0|               00 00 00 06                     |     ....       |        corr: 6 0x8a5-0x8a9 (4)
     |                                               |                |      [6]{}: leap_second_record 0x8a9-0x8b5 (12)
0x8a0|                           00 00 00 00 0f 0c 3f|         ......?|        occur: "1978-01-01T00:00:06Z" (252460806) 0x8a9-0x8b1 (8)
0x8b0|06                                             |.               |
0x8b0|   00 00 00 07                                 | ....           |        corr: 7 0x8b1-0x8b5 (4)
     |                                               |                |      [7]{}: leap_second_record 0x8b5-0x8c1 (12)
0x8b0|               00 00 00 00 10 ed 72 87         |     ......r.   |        occur: "1979-01-01T00:00:07Z" (283996807) 0x8b5-0x8bd (8)
0x8b0|                                       00 00 00|             ...|        corr: 8 0x8bd-0x8c1 (4)
0x8c0|08                                             |.               |
     |                                               |                |      [8]{}: leap_second_record 0x8c1-0x8cd (12)
0x8c0|   00 00 00 00 12 ce a6 08                     | ........       |        occur: "1980-01-01T00:00:08Z" (315532808) 0x8c1-0x8c9 (8)
0x8c0|                           00 00 00 09         |         ....   |        corr: 9 0x8c9-0x8cd (4)
     |                                               |                |      [9]{}: leap_second_record 0x8cd-0x8d9 (12)
0x8c0|                                       00 00 00|             ...|        occur: "1981-07-01T00:00:09Z" (362793609) 0x8cd-0x8d5 (8)
0x8d0|00 15 9f ca 89                                 |.....           |
0x8d0|               00 00 00 0a                     |     ....       |        corr: 10 0x8d5-0x8d9 (4)
     |                                               |                |      [10]{}: leap_second_record 0x8d9-0x8e5 (12)
0x8d0|                           00 00 00 00 17 80 fe|         .......|        occur: "1982-07-01T00:00:10Z" (394329610) 0x8d9-0x8e1 (8)
0x8e0|0a                                             |.               |
0x8e0|   00 00 00 0b                                 | ....           |        corr: 11 0x8e1-0x8e5 (4)
     |                                               |                |      [11]{}: leap_second_record 0x8e5-0x8f1 (12)
0x8e0|               00 00 00 00 19 62 31 8b         |     .....b1.   |        occur: "1983-07-01T00:00:11Z" (425865611) 0x8e5-0x8ed (8)
0x8e0|                                       00 00 00|             ...|        corr: 12 0x8ed-0x8f1 (4)
0x8f0|0c                                             |.               |
     |                                               |                |      [12]{}: leap_second_record 0x8f1-0x8fd (12)
0x8f0|   00 00 00 00 1d 25 ea 0c                     | .....%..       |        occur: "1985-07-01T00:00:12Z" (489024012) 0x8f1-0x8f9 (8)
0x8f0|                           00 00 00 0d         |         ....   |        corr: 13 0x8f9-0x8fd (4)
     |                                               |                |      [13]{}: leap_second_record 0x8fd-0x909 (12)
0x8f0|                                       00 00 00|             ...|        occur: "1988-01-01T00:00:13Z" (567993613) 0x8fd-0x905 (8)
0x900|00 21 da e5 0d                                 |.!...           |
0x900|               00 00 00 0e                     |     ....       |        corr: 14 0x905-0x909 (4)
     |                                               |                |      [14]{}: leap_second_record 0x909-0x915 (12)
0x900|                           00 00 00 00 25 9e 9d|         ....%..|        occur: "1990-01-01T00:00:14Z" (631152014) 0x909-0x911 (8)
0x910|8e                                             |.               |
0x910|   00 00 00 0f                                 | ....           |        corr: 15 0x911-0x915 (4)
     |                                               |                |      [15]{}: leap_second_record 0x915-0x921 (12)
0x910|               00 00 00 00 27 7f d1 0f         |     ....'...   |        occur: "1991-01-01T00:00:15Z" (662688015) 0x915-0x91d (8)
0x910|                                       00 00 00|             ...|        corr: 16 0x91d-0x921 (4)
0x920|10                                             |.               |
     |                                               |                |      [16]{}: leap_second_record 0x921-0x92d (12)
0x920|   00 00 00 00 2a 50 f5 90                     | ....*P..       |        occur: "1992-07-01T00:00:16Z" (709948816) 0x921-0x929 (8)
0x920|                           00 00 00 11         |         ....   |        corr: 17 0x929-0x92d (4)
     |                                               |                |      [17]{}: leap_second_record 0x92d-0x939 (12)
0x920|                                       00 00 00|             ...|        occur: "1993-07-01T00:00:17Z" (741484817) 0x92d-0x935 (8)
0x930|00 2c 32 29 11                                 |.,2).           |
0x930|               00 00 00 12                     |     ....       |        corr: 18 0x935-0x939 (4)
     |                                               |                |      [18]{}: leap_second_record 0x939-0x945 (12)
0x930|                           00 00 00 00 2e 13 5c|         ......\|        occur: "1994-07-01T00:00:18Z" (773020818) 0x939-0x941 (8)
0x940|92                                             |.               |
0x940|   00 00 00 13                                 | ....           |        corr: 19 0x941-0x945 (4)
     |                                               |                |      [19]{}: leap_second_record 0x945-0x951 (12)
0x940|               00 00 00 00 30 e7 24 13         |     ....0.$.   |        occur: "1996-01-01T00:00:19Z" (820454419) 0x945-0x94d (8)
0x940|                                       00 00 00|             ...|        corr: 20 0x94d-0x951 (4)
0x950|14                                             |.               |
     |                                               |                |      [20]{}: leap_second_record 0x951-0x95d (12)
0x950|   00 00 00 00 33 b8 48 94                     | ....3.H.       |        occur: "1997-07-01T00:00:20Z" (867715220) 0x951-0x959 (8)
0x950|                           00 00 00 15         |         ....   |        corr: 21 0x959-0x95d (4)
     |                                               |                |      [21]{}: leap_second_record 0x95d-0x969 (12)
0x950|                                       00 00 00|             ...|        occur: "1999-01-01T00:00:21Z" (915148821) 0x95d-0x965 (8)
0x960|00 36 8c 10 15                                 |.6...           |
0x960|               00 00 00 16                     |     ....       |        corr: 22 0x965-0x969 (4)
     |                                               |                |      [22]{}: leap_second_record 0x969-0x975 (12)
0x960|                           00 00 00 00 43 b7 1b|         ....C..|        occur: "2006-01-01T00:00:22Z" (1136073622) 0x969-0x971 (8)
0x970|96                                             |.               |
0x970|   00 00 00 17                                 | ....           |        corr: 23 0x971-0x975 (4)
     |                                               |                |      [23]{}: leap_second_record 0x975-0x981 (12)
0x970|               00 00 00 00 49 5c 07 97         |     ....I\..   |        occur: "2009-01-01T00:00:23Z" (1230768023) 0x975-0x97d (8)
0x970|                                       00 00 00|             ...|        corr: 24 0x97d-0x981 (4)
0x980|18                                             |.               |
     |                                               |                |      [24]{}: leap_second_record 0x981-0x98d (12)
0x980|   00 00 00 00 4f ef 93 18                     | ....O...       |        occur: "2012-07-01T00:00:24Z" (1341100824) 0x981-0x989 (8)
0x980|                           00 00 00 19         |         ....   |        corr: 25 0x989-0x98d (4)
     |                                               |                |      [25]{}: leap_second_record 0x98d-0x999 (12)
0x980|                                       00 00 00|             ...|        occur: "2015-07-01T00:00:25Z" (1435708825) 0x98d-0x995 (8)
0x990|00 55 93 2d 99                                 |.U.-.           |
0x990|               00 00 00 1a                     |     ....       |        corr: 26 0x995-0x999 (4)
     |                                               |                |      [26]{}: leap_second_record 0x999-0x9a5 (12)
0x990|                           00 00 00 00 58 68 46|         ....XhF|        occur: "2017-01-01T00:00:26Z" (1483228826) 0x999-0x9a1 (8)
0x9a0|9a                                             |.               |
0x9a0|   00 00 00 1b                                 | ....           |        corr: 27 0x9a1-0x9a5 (4)
     |                                               |                |    standard_wall_indicators[0:10]: 0x9a5-0x9af (10)
0x9a0|               00                              |     .          |      [0]: 0 standard_wall_indicator (valid) 0x9a5-0x9a6 (1)
0x9a0|                  00                           |      .         |      [1]: 0 standard_wall_indicator (valid) 0x9a6-0x9a7 (1)
0x9a0|                     00                        |       .        |      [2]: 0 standard_wall_indicator (valid) 0x9a7-0x9a8 (1)
0x9a0|                        00                     |        .       |      [3]: 0 standard_wall_indicator (valid) 0x9a8-0x9a9 (1)
0x9a0|                           01                  |         .      |      [4]: 1 standard_wall_indicator (valid) 0x9a9-0x9aa (1)
0x9a0|                              00               |          .     |      [5]: 0 standard_wall_indicator (valid) 0x9aa-0x9ab (1)
0x9a0|                                 00            |           .    |      [6]: 0 standard_wall_indicator (valid) 0x9ab-0x9ac (1)
0x9a0|                                    00         |            .   |      [7]: 0 standard_wall_indicator (valid) 0x9ac-0x9ad (1)
0x9a0|                                       00      |             .  |      [8]: 0 standard_wall_indicator (valid) 0x9ad-0x9ae (1)
0x9a0|                                          00   |              . |      [9]: 0 standard_wall_indicator (valid) 0x9ae-0x9af (1)
     |                                               |                |    ut_local_indicators[0:10]: 0x9af-0x9b9 (10)
0x9a0|                                             00|               .|      [0]: 0 ut_local_indicator (valid) 0x9af-0x9b0 (1)
0x9b0|00                                             |.               |      [1]: 0 ut_local_indicator (valid) 0x9b0-0x9b1 (1)
0x9b0|   00                                          | .              |      [2]: 0 ut_local_indicator (valid) 0x9b1-0x9b2 (1)
0x9b0|      00                                       |  .             |      [3]: 0 ut_local_indicator (valid) 0x9b2-0x9b3 (1)
0x9b0|         01                                    |   .            |      [4]: 1 ut_local_indicator (valid) 0x9b3-0x9b4 (1)
0x9b0|            00                                 |    .           |      [5]: 0 ut_local_indicator (valid) 0x9b4-0x9b5 (1)
0x9b0|               00                              |     .          |      [6]: 0 ut_local_indicator (valid) 0x9b5-0x9b6 (1)
0x9b0|                  00                           |      .         |      [7]: 0 ut_local_indicator (valid) 0x9b6-0x9b7 (1)
0x9b0|                     00                        |       .        |      [8]: 0 ut_local_indicator (valid) 0x9b7-0x9b8 (1)
0x9b0|                        00                     |        .       |      [9]: 0 ut_local_indicator (valid) 0x9b8-0x9b9 (1)
     |                                               |                |  footer{}: 0x9b9-0x9bb (2)
0x9b0|                           0a                  |         .      |    nl1: 10 (valid) 0x9b9-0x9ba (1)
     |                                               |                |    tz_string: "" 0x9ba-0x9ba (0)
0x9b0|                              0a|              |          .|    |    nl2: 10 (valid) 0x9ba-0x9bb (1)
