$ fq -d tzif dv Norfolk
     |00 01 02 03 04 05 06 07 08 09 0a 0b 0c 0d 0e 0f|0123456789abcdef|.{}: Norfolk (tzif) 0x0-0x36f.7 (880)
     |                                               |                |  v1header{}: 0x0-0x2b.7 (44)
0x000|54 5a 69 66                                    |TZif            |    magic: 0x545a6966 (valid) 0x0-0x3.7 (4)
0x000|            32                                 |    2           |    ver: "2" (0x32) (valid) 0x4-0x4.7 (1)
0x000|               00 00 00 00 00 00 00 00 00 00 00|     ...........|    reserved: raw bits 0x5-0x13.7 (15)
0x010|00 00 00 00                                    |....            |
0x010|            00 00 00 00                        |    ....        |    isutcnt: 0 0x14-0x17.7 (4)
0x010|                        00 00 00 07            |        ....    |    isstdcnt: 7 0x18-0x1b.7 (4)
0x010|                                    00 00 00 00|            ....|    leapcnt: 0 0x1c-0x1f.7 (4)
0x020|00 00 00 2b                                    |...+            |    timecnt: 43 0x20-0x23.7 (4)
0x020|            00 00 00 07                        |    ....        |    typecnt: 7 0x24-0x27.7 (4)
0x020|                        00 00 00 1e            |        ....    |    charcnt: 30 0x28-0x2b.7 (4)
     |                                               |                |  v1datablock{}: 0x2c-0x151.7 (294)
     |                                               |                |    transition_times[0:43]: 0x2c-0xd7.7 (172)
0x020|                                    80 00 00 00|            ....|      [0]: "1901-12-13T20:45:52Z" (-2147483648) transition_time 0x2c-0x2f.7 (4)
0x030|dc 41 f8 80                                    |.A..            |      [1]: "1950-12-31T12:48:00Z" (-599656320) transition_time 0x30-0x33.7 (4)
0x030|            09 0f ca 68                        |    ...h        |      [2]: "1974-10-26T14:30:00Z" (152029800) transition_time 0x34-0x37.7 (4)
0x030|                        09 b5 e7 68            |        ...h    |      [3]: "1975-03-01T14:30:00Z" (162916200) transition_time 0x38-0x3b.7 (4)
0x030|                                    56 0f e6 68|            V..h|      [4]: "2015-10-03T14:30:00Z" (1443882600) transition_time 0x3c-0x3f.7 (4)
0x040|5d 98 af f0                                    |]...            |      [5]: "2019-10-05T15:00:00Z" (1570287600) transition_time 0x40-0x43.7 (4)
0x040|            5e 88 a0 f0                        |    ^...        |      [6]: "2020-04-04T15:00:00Z" (1586012400) transition_time 0x44-0x47.7 (4)
0x040|                        5f 78 91 f0            |        _x..    |      [7]: "2020-10-03T15:00:00Z" (1601737200) transition_time 0x48-0x4b.7 (4)
0x040|                                    60 68 82 f0|            `h..|      [8]: "2021-04-03T15:00:00Z" (1617462000) transition_time 0x4c-0x4f.7 (4)
0x050|61 58 73 f0                                    |aXs.            |      [9]: "2021-10-02T15:00:00Z" (1633186800) transition_time 0x50-0x53.7 (4)
0x050|            62 48 64 f0                        |    bHd.        |      [10]: "2022-04-02T15:00:00Z" (1648911600) transition_time 0x54-0x57.7 (4)
0x050|                        63 38 55 f0            |        c8U.    |      [11]: "2022-10-01T15:00:00Z" (1664636400) transition_time 0x58-0x5b.7 (4)
0x050|                                    64 28 46 f0|            d(F.|      [12]: "2023-04-01T15:00:00Z" (1680361200) transition_time 0x5c-0x5f.7 (4)
0x060|65 18 37 f0                                    |e.7.            |      [13]: "2023-09-30T15:00:00Z" (1696086000) transition_time 0x60-0x63.7 (4)
0x060|            66 11 63 70                        |    f.cp        |      [14]: "2024-04-06T15:00:00Z" (1712415600) transition_time 0x64-0x67.7 (4)
0x060|                        67 01 54 70            |        g.Tp    |      [15]: "2024-10-05T15:00:00Z" (1728140400) transition_time 0x68-0x6b.7 (4)
0x060|                                    67 f1 45 70|            g.Ep|      [16]: "2025-04-05T15:00:00Z" (1743865200) transition_time 0x6c-0x6f.7 (4)
0x070|68 e1 36 70                                    |h.6p            |      [17]: "2025-10-04T15:00:00Z" (1759590000) transition_time 0x70-0x73.7 (4)
0x070|            69 d1 27 70                        |    i.'p        |      [18]: "2026-04-04T15:00:00Z" (1775314800) transition_time 0x74-0x77.7 (4)
0x070|                        6a c1 18 70            |        j..p    |      [19]: "2026-10-03T15:00:00Z" (1791039600) transition_time 0x78-0x7b.7 (4)
0x070|                                    6b b1 09 70|            k..p|      [20]: "2027-04-03T15:00:00Z" (1806764400) transition_time 0x7c-0x7f.7 (4)
0x080|6c a0 fa 70                                    |l..p            |      [21]: "2027-10-02T15:00:00Z" (1822489200) transition_time 0x80-0x83.7 (4)
0x080|            6d 90 eb 70                        |    m..p        |      [22]: "2028-04-01T15:00:00Z" (1838214000) transition_time 0x84-0x87.7 (4)
0x080|                        6e 80 dc 70            |        n..p    |      [23]: "2028-09-30T15:00:00Z" (1853938800) transition_time 0x88-0x8b.7 (4)
0x080|                                    6f 70 cd 70|            op.p|      [24]: "2029-03-31T15:00:00Z" (1869663600) transition_time 0x8c-0x8f.7 (4)
0x090|70 69 f8 f0                                    |pi..            |      [25]: "2029-10-06T15:00:00Z" (1885993200) transition_time 0x90-0x93.7 (4)
0x090|            71 59 e9 f0                        |    qY..        |      [26]: "2030-04-06T15:00:00Z" (1901718000) transition_time 0x94-0x97.7 (4)
0x090|                        72 49 da f0            |        rI..    |      [27]: "2030-10-05T15:00:00Z" (1917442800) transition_time 0x98-0x9b.7 (4)
0x090|                                    73 39 cb f0|            s9..|      [28]: "2031-04-05T15:00:00Z" (1933167600) transition_time 0x9c-0x9f.7 (4)
0x0a0|74 29 bc f0                                    |t)..            |      [29]: "2031-10-04T15:00:00Z" (1948892400) transition_time 0xa0-0xa3.7 (4)
0x0a0|            75 19 ad f0                        |    u...        |      [30]: "2032-04-03T15:00:00Z" (1964617200) transition_time 0xa4-0xa7.7 (4)
0x0a0|                        76 09 9e f0            |        v...    |      [31]: "2032-10-02T15:00:00Z" (1980342000) transition_time 0xa8-0xab.7 (4)
0x0a0|                                    76 f9 8f f0|            v...|      [32]: "2033-04-02T15:00:00Z" (1996066800) transition_time 0xac-0xaf.7 (4)
0x0b0|77 e9 80 f0                                    |w...            |      [33]: "2033-10-01T15:00:00Z" (2011791600) transition_time 0xb0-0xb3.7 (4)
0x0b0|            78 d9 71 f0                        |    x.q.        |      [34]: "2034-04-01T15:00:00Z" (2027516400) transition_time 0xb4-0xb7.7 (4)
0x0b0|                        79 c9 62 f0            |        y.b.    |      [35]: "2034-09-30T15:00:00Z" (2043241200) transition_time 0xb8-0xbb.7 (4)
0x0b0|                                    7a b9 53 f0|            z.S.|      [36]: "2035-03-31T15:00:00Z" (2058966000) transition_time 0xbc-0xbf.7 (4)
0x0c0|7b b2 7f 70                                    |{..p            |      [37]: "2035-10-06T15:00:00Z" (2075295600) transition_time 0xc0-0xc3.7 (4)
0x0c0|            7c a2 70 70                        |    |.pp        |      [38]: "2036-04-05T15:00:00Z" (2091020400) transition_time 0xc4-0xc7.7 (4)
0x0c0|                        7d 92 61 70            |        }.ap    |      [39]: "2036-10-04T15:00:00Z" (2106745200) transition_time 0xc8-0xcb.7 (4)
0x0c0|                                    7e 82 52 70|            ~.Rp|      [40]: "2037-04-04T15:00:00Z" (2122470000) transition_time 0xcc-0xcf.7 (4)
0x0d0|7f 72 43 70                                    |.rCp            |      [41]: "2037-10-03T15:00:00Z" (2138194800) transition_time 0xd0-0xd3.7 (4)
0x0d0|            7f ff ff ff                        |    ....        |      [42]: "2038-01-19T03:14:07Z" (2147483647) transition_time 0xd4-0xd7.7 (4)
     |                                               |                |    transition_types[0:43]: 0xd8-0x102.7 (43)
0x0d0|                        01                     |        .       |      [0]: 1 transition_type 0xd8-0xd8.7 (1)
0x0d0|                           02                  |         .      |      [1]: 2 transition_type 0xd9-0xd9.7 (1)
0x0d0|                              03               |          .     |      [2]: 3 transition_type 0xda-0xda.7 (1)
0x0d0|                                 04            |           .    |      [3]: 4 transition_type 0xdb-0xdb.7 (1)
0x0d0|                                    05         |            .   |      [4]: 5 transition_type 0xdc-0xdc.7 (1)
0x0d0|                                       06      |             .  |      [5]: 6 transition_type 0xdd-0xdd.7 (1)
0x0d0|                                          05   |              . |      [6]: 5 transition_type 0xde-0xde.7 (1)
0x0d0|                                             06|               .|      [7]: 6 transition_type 0xdf-0xdf.7 (1)
0x0e0|05                                             |.               |      [8]: 5 transition_type 0xe0-0xe0.7 (1)
0x0e0|   06                                          | .              |      [9]: 6 transition_type 0xe1-0xe1.7 (1)
0x0e0|      05                                       |  .             |      [10]: 5 transition_type 0xe2-0xe2.7 (1)
0x0e0|         06                                    |   .            |      [11]: 6 transition_type 0xe3-0xe3.7 (1)
0x0e0|            05                                 |    .           |      [12]: 5 transition_type 0xe4-0xe4.7 (1)
0x0e0|               06                              |     .          |      [13]: 6 transition_type 0xe5-0xe5.7 (1)
0x0e0|                  05                           |      .         |      [14]: 5 transition_type 0xe6-0xe6.7 (1)
0x0e0|                     06                        |       .        |      [15]: 6 transition_type 0xe7-0xe7.7 (1)
0x0e0|                        05                     |        .       |      [16]: 5 transition_type 0xe8-0xe8.7 (1)
0x0e0|                           06                  |         .      |      [17]: 6 transition_type 0xe9-0xe9.7 (1)
0x0e0|                              05               |          .     |      [18]: 5 transition_type 0xea-0xea.7 (1)
0x0e0|                                 06            |           .    |      [19]: 6 transition_type 0xeb-0xeb.7 (1)
0x0e0|                                    05         |            .   |      [20]: 5 transition_type 0xec-0xec.7 (1)
0x0e0|                                       06      |             .  |      [21]: 6 transition_type 0xed-0xed.7 (1)
0x0e0|                                          05   |              . |      [22]: 5 transition_type 0xee-0xee.7 (1)
0x0e0|                                             06|               .|      [23]: 6 transition_type 0xef-0xef.7 (1)
0x0f0|05                                             |.               |      [24]: 5 transition_type 0xf0-0xf0.7 (1)
0x0f0|   06                                          | .              |      [25]: 6 transition_type 0xf1-0xf1.7 (1)
0x0f0|      05                                       |  .             |      [26]: 5 transition_type 0xf2-0xf2.7 (1)
0x0f0|         06                                    |   .            |      [27]: 6 transition_type 0xf3-0xf3.7 (1)
0x0f0|            05                                 |    .           |      [28]: 5 transition_type 0xf4-0xf4.7 (1)
0x0f0|               06                              |     .          |      [29]: 6 transition_type 0xf5-0xf5.7 (1)
0x0f0|                  05                           |      .         |      [30]: 5 transition_type 0xf6-0xf6.7 (1)
0x0f0|                     06                        |       .        |      [31]: 6 transition_type 0xf7-0xf7.7 (1)
0x0f0|                        05                     |        .       |      [32]: 5 transition_type 0xf8-0xf8.7 (1)
0x0f0|                           06                  |         .      |      [33]: 6 transition_type 0xf9-0xf9.7 (1)
0x0f0|                              05               |          .     |      [34]: 5 transition_type 0xfa-0xfa.7 (1)
0x0f0|                                 06            |           .    |      [35]: 6 transition_type 0xfb-0xfb.7 (1)
0x0f0|                                    05         |            .   |      [36]: 5 transition_type 0xfc-0xfc.7 (1)
0x0f0|                                       06      |             .  |      [37]: 6 transition_type 0xfd-0xfd.7 (1)
0x0f0|                                          05   |              . |      [38]: 5 transition_type 0xfe-0xfe.7 (1)
0x0f0|                                             06|               .|      [39]: 6 transition_type 0xff-0xff.7 (1)
0x100|05                                             |.               |      [40]: 5 transition_type 0x100-0x100.7 (1)
0x100|   06                                          | .              |      [41]: 6 transition_type 0x101-0x101.7 (1)
0x100|      06                                       |  .             |      [42]: 6 transition_type 0x102-0x102.7 (1)
     |                                               |                |    local_time_type_records[0:7]: 0x103-0x12c.7 (42)
     |                                               |                |      [0]{}: local_time_type 0x103-0x108.7 (6)
0x100|         00 00 9d 78                           |   ...x         |        utoff: 40312 (valid) 0x103-0x106.7 (4)
0x100|                     00                        |       .        |        dst: 0 (valid) 0x107-0x107.7 (1)
0x100|                        00                     |        .       |        idx: 0 (valid) 0x108-0x108.7 (1)
     |                                               |                |      [1]{}: local_time_type 0x109-0x10e.7 (6)
0x100|                           00 00 9d 80         |         ....   |        utoff: 40320 (valid) 0x109-0x10c.7 (4)
0x100|                                       00      |             .  |        dst: 0 (valid) 0x10d-0x10d.7 (1)
0x100|                                          04   |              . |        idx: 4 (valid) 0x10e-0x10e.7 (1)
     |                                               |                |      [2]{}: local_time_type 0x10f-0x114.7 (6)
0x100|                                             00|               .|        utoff: 41400 (valid) 0x10f-0x112.7 (4)
0x110|00 a1 b8                                       |...             |
0x110|         00                                    |   .            |        dst: 0 (valid) 0x113-0x113.7 (1)
0x110|            0a                                 |    .           |        idx: 10 (valid) 0x114-0x114.7 (1)
     |                                               |                |      [3]{}: local_time_type 0x115-0x11a.7 (6)
0x110|               00 00 af c8                     |     ....       |        utoff: 45000 (valid) 0x115-0x118.7 (4)
0x110|                           01                  |         .      |        dst: 1 (valid) 0x119-0x119.7 (1)
0x110|                              10               |          .     |        idx: 16 (valid) 0x11a-0x11a.7 (1)
     |                                               |                |      [4]{}: local_time_type 0x11b-0x120.7 (6)
0x110|                                 00 00 a1 b8   |           .... |        utoff: 41400 (valid) 0x11b-0x11e.7 (4)
0x110|                                             00|               .|        dst: 0 (valid) 0x11f-0x11f.7 (1)
0x120|0a                                             |.               |        idx: 10 (valid) 0x120-0x120.7 (1)
     |                                               |                |      [5]{}: local_time_type 0x121-0x126.7 (6)
0x120|   00 00 9a b0                                 | ....           |        utoff: 39600 (valid) 0x121-0x124.7 (4)
0x120|               00                              |     .          |        dst: 0 (valid) 0x125-0x125.7 (1)
0x120|                  16                           |      .         |        idx: 22 (valid) 0x126-0x126.7 (1)
     |                                               |                |      [6]{}: local_time_type 0x127-0x12c.7 (6)
0x120|                     00 00 a8 c0               |       ....     |        utoff: 43200 (valid) 0x127-0x12a.7 (4)
0x120|                                 01            |           .    |        dst: 1 (valid) 0x12b-0x12b.7 (1)
0x120|                                    1a         |            .   |        idx: 26 (valid) 0x12c-0x12c.7 (1)
     |                                               |                |    time_zone_designations[0:6]: 0x12d-0x14a.7 (30)
0x120|                                       4c 4d 54|             LMT|      [0]: "LMT" time_zone_designation 0x12d-0x130.7 (4)
0x130|00                                             |.               |
0x130|   2b 31 31 31 32 00                           | +1112.         |      [1]: "+1112" time_zone_designation 0x131-0x136.7 (6)
0x130|                     2b 31 31 33 30 00         |       +1130.   |      [2]: "+1130" time_zone_designation 0x137-0x13c.7 (6)
0x130|                                       2b 31 32|             +12|      [3]: "+1230" time_zone_designation 0x13d-0x142.7 (6)
0x140|33 30 00                                       |30.             |
0x140|         2b 31 31 00                           |   +11.         |      [4]: "+11" time_zone_designation 0x143-0x146.7 (4)
0x140|                     2b 31 32 00               |       +12.     |      [5]: "+12" time_zone_designation 0x147-0x14a.7 (4)
     |                                               |                |    leap_second_records[0:0]: 0x14b-NA (0)
     |                                               |                |    standard_wall_indicators[0:7]: 0x14b-0x151.7 (7)
0x140|                                 00            |           .    |      [0]: 0 standard_wall_indicator (valid) 0x14b-0x14b.7 (1)
0x140|                                    00         |            .   |      [1]: 0 standard_wall_indicator (valid) 0x14c-0x14c.7 (1)
0x140|                                       00      |             .  |      [2]: 0 standard_wall_indicator (valid) 0x14d-0x14d.7 (1)
0x140|                                          01   |              . |      [3]: 1 standard_wall_indicator (valid) 0x14e-0x14e.7 (1)
0x140|                                             01|               .|      [4]: 1 standard_wall_indicator (valid) 0x14f-0x14f.7 (1)
0x150|01                                             |.               |      [5]: 1 standard_wall_indicator (valid) 0x150-0x150.7 (1)
0x150|   01                                          | .              |      [6]: 1 standard_wall_indicator (valid) 0x151-0x151.7 (1)
     |                                               |                |    ut_local_indicators[0:0]: 0x152-NA (0)
     |                                               |                |  v2plusheader{}: 0x152-0x17d.7 (44)
0x150|      54 5a 69 66                              |  TZif          |    magic: 0x545a6966 (valid) 0x152-0x155.7 (4)
0x150|                  32                           |      2         |    ver: "2" (0x32) (valid) 0x156-0x156.7 (1)
0x150|                     00 00 00 00 00 00 00 00 00|       .........|    reserved: raw bits 0x157-0x165.7 (15)
0x160|00 00 00 00 00 00                              |......          |
0x160|                  00 00 00 00                  |      ....      |    isutcnt: 0 0x166-0x169.7 (4)
0x160|                              00 00 00 07      |          ....  |    isstdcnt: 7 0x16a-0x16d.7 (4)
0x160|                                          00 00|              ..|    leapcnt: 0 0x16e-0x171.7 (4)
0x170|00 00                                          |..              |
0x170|      00 00 00 2b                              |  ...+          |    timecnt: 43 0x172-0x175.7 (4)
0x170|                  00 00 00 07                  |      ....      |    typecnt: 7 0x176-0x179.7 (4)
0x170|                              00 00 00 1e      |          ....  |    charcnt: 30 0x17a-0x17d.7 (4)
     |                                               |                |  v2plusdatablock{}: 0x17e-0x34f.7 (466)
     |                                               |                |    transition_times[0:43]: 0x17e-0x2d5.7 (344)
0x170|                                          ff ff|              ..|      [0]: "1900-12-31T12:48:08Z" (-2177493112) transition_time 0x17e-0x185.7 (8)
0x180|ff ff 7e 36 17 88                              |..~6..          |
0x180|                  ff ff ff ff dc 41 f8 80      |      .....A..  |      [1]: "1950-12-31T12:48:00Z" (-599656320) transition_time 0x186-0x18d.7 (8)
0x180|                                          00 00|              ..|      [2]: "1974-10-26T14:30:00Z" (152029800) transition_time 0x18e-0x195.7 (8)
0x190|00 00 09 0f ca 68                              |.....h          |
0x190|                  00 00 00 00 09 b5 e7 68      |      .......h  |      [3]: "1975-03-01T14:30:00Z" (162916200) transition_time 0x196-0x19d.7 (8)
0x190|                                          00 00|              ..|      [4]: "2015-10-03T14:30:00Z" (1443882600) transition_time 0x19e-0x1a5.7 (8)
0x1a0|00 00 56 0f e6 68                              |..V..h          |
0x1a0|                  00 00 00 00 5d 98 af f0      |      ....]...  |      [5]: "2019-10-05T15:00:00Z" (1570287600) transition_time 0x1a6-0x1ad.7 (8)
0x1a0|                                          00 00|              ..|      [6]: "2020-04-04T15:00:00Z" (1586012400) transition_time 0x1ae-0x1b5.7 (8)
0x1b0|00 00 5e 88 a0 f0                              |..^...          |
0x1b0|                  00 00 00 00 5f 78 91 f0      |      ...._x..  |      [7]: "2020-10-03T15:00:00Z" (1601737200) transition_time 0x1b6-0x1bd.7 (8)
0x1b0|                                          00 00|              ..|      [8]: "2021-04-03T15:00:00Z" (1617462000) transition_time 0x1be-0x1c5.7 (8)
0x1c0|00 00 60 68 82 f0                              |..`h..          |
0x1c0|                  00 00 00 00 61 58 73 f0      |      ....aXs.  |      [9]: "2021-10-02T15:00:00Z" (1633186800) transition_time 0x1c6-0x1cd.7 (8)
0x1c0|                                          00 00|              ..|      [10]: "2022-04-02T15:00:00Z" (1648911600) transition_time 0x1ce-0x1d5.7 (8)
0x1d0|00 00 62 48 64 f0                              |..bHd.          |
0x1d0|                  00 00 00 00 63 38 55 f0      |      ....c8U.  |      [11]: "2022-10-01T15:00:00Z" (1664636400) transition_time 0x1d6-0x1dd.7 (8)
0x1d0|                                          00 00|              ..|      [12]: "2023-04-01T15:00:00Z" (1680361200) transition_time 0x1de-0x1e5.7 (8)
0x1e0|00 00 64 28 46 f0                              |..d(F.          |
0x1e0|                  00 00 00 00 65 18 37 f0      |      ....e.7.  |      [13]: "2023-09-30T15:00:00Z" (1696086000) transition_time 0x1e6-0x1ed.7 (8)
0x1e0|                                          00 00|              ..|      [14]: "2024-04-06T15:00:00Z" (1712415600) transition_time 0x1ee-0x1f5.7 (8)
0x1f0|00 00 66 11 63 70                              |..f.cp          |
0x1f0|                  00 00 00 00 67 01 54 70      |      ....g.Tp  |      [15]: "2024-10-05T15:00:00Z" (1728140400) transition_time 0x1f6-0x1fd.7 (8)
0x1f0|                                          00 00|              ..|      [16]: "2025-04-05T15:00:00Z" (1743865200) transition_time 0x1fe-0x205.7 (8)
0x200|00 00 67 f1 45 70                              |..g.Ep          |
0x200|                  00 00 00 00 68 e1 36 70      |      ....h.6p  |      [17]: "2025-10-04T15:00:00Z" (1759590000) transition_time 0x206-0x20d.7 (8)
0x200|                                          00 00|              ..|      [18]: "2026-04-04T15:00:00Z" (1775314800) transition_time 0x20e-0x215.7 (8)
0x210|00 00 69 d1 27 70                              |..i.'p          |
0x210|                  00 00 00 00 6a c1 18 70      |      ....j..p  |      [19]: "2026-10-03T15:00:00Z" (1791039600) transition_time 0x216-0x21d.7 (8)
0x210|                                          00 00|              ..|      [20]: "2027-04-03T15:00:00Z" (1806764400) transition_time 0x21e-0x225.7 (8)
0x220|00 00 6b b1 09 70                              |..k..p          |
0x220|                  00 00 00 00 6c a0 fa 70      |      ....l..p  |      [21]: "2027-10-02T15:00:00Z" (1822489200) transition_time 0x226-0x22d.7 (8)
0x220|                                          00 00|              ..|      [22]: "2028-04-01T15:00:00Z" (1838214000) transition_time 0x22e-0x235.7 (8)
0x230|00 00 6d 90 eb 70                              |..m..p          |
0x230|                  00 00 00 00 6e 80 dc 70      |      ....n..p  |      [23]: "2028-09-30T15:00:00Z" (1853938800) transition_time 0x236-0x23d.7 (8)
0x230|                                          00 00|              ..|      [24]: "2029-03-31T15:00:00Z" (1869663600) transition_time 0x23e-0x245.7 (8)
0x240|00 00 6f 70 cd 70                              |..op.p          |
0x240|                  00 00 00 00 70 69 f8 f0      |      ....pi..  |      [25]: "2029-10-06T15:00:00Z" (1885993200) transition_time 0x246-0x24d.7 (8)
0x240|                                          00 00|              ..|      [26]: "2030-04-06T15:00:00Z" (1901718000) transition_time 0x24e-0x255.7 (8)
0x250|00 00 71 59 e9 f0                              |..qY..          |
0x250|                  00 00 00 00 72 49 da f0      |      ....rI..  |      [27]: "2030-10-05T15:00:00Z" (1917442800) transition_time 0x256-0x25d.7 (8)
0x250|                                          00 00|              ..|      [28]: "2031-04-05T15:00:00Z" (1933167600) transition_time 0x25e-0x265.7 (8)
0x260|00 00 73 39 cb f0                              |..s9..          |
0x260|                  00 00 00 00 74 29 bc f0      |      ....t)..  |      [29]: "2031-10-04T15:00:00Z" (1948892400) transition_time 0x266-0x26d.7 (8)
0x260|                                          00 00|              ..|      [30]: "2032-04-03T15:00:00Z" (1964617200) transition_time 0x26e-0x275.7 (8)
0x270|00 00 75 19 ad f0                              |..u...          |
0x270|                  00 00 00 00 76 09 9e f0      |      ....v...  |      [31]: "2032-10-02T15:00:00Z" (1980342000) transition_time 0x276-0x27d.7 (8)
0x270|                                          00 00|              ..|      [32]: "2033-04-02T15:00:00Z" (1996066800) transition_time 0x27e-0x285.7 (8)
0x280|00 00 76 f9 8f f0                              |..v...          |
0x280|                  00 00 00 00 77 e9 80 f0      |      ....w...  |      [33]: "2033-10-01T15:00:00Z" (2011791600) transition_time 0x286-0x28d.7 (8)
0x280|                                          00 00|              ..|      [34]: "2034-04-01T15:00:00Z" (2027516400) transition_time 0x28e-0x295.7 (8)
0x290|00 00 78 d9 71 f0                              |..x.q.          |
0x290|                  00 00 00 00 79 c9 62 f0      |      ....y.b.  |      [35]: "2034-09-30T15:00:00Z" (2043241200) transition_time 0x296-0x29d.7 (8)
0x290|                                          00 00|              ..|      [36]: "2035-03-31T15:00:00Z" (2058966000) transition_time 0x29e-0x2a5.7 (8)
0x2a0|00 00 7a b9 53 f0                              |..z.S.          |
0x2a0|                  00 00 00 00 7b b2 7f 70      |      ....{..p  |      [37]: "2035-10-06T15:00:00Z" (2075295600) transition_time 0x2a6-0x2ad.7 (8)
0x2a0|                                          00 00|              ..|      [38]: "2036-04-05T15:00:00Z" (2091020400) transition_time 0x2ae-0x2b5.7 (8)
0x2b0|00 00 7c a2 70 70                              |..|.pp          |
0x2b0|                  00 00 00 00 7d 92 61 70      |      ....}.ap  |      [39]: "2036-10-04T15:00:00Z" (2106745200) transition_time 0x2b6-0x2bd.7 (8)
0x2b0|                                          00 00|              ..|      [40]: "2037-04-04T15:00:00Z" (2122470000) transition_time 0x2be-0x2c5.7 (8)
0x2c0|00 00 7e 82 52 70                              |..~.Rp          |
0x2c0|                  00 00 00 00 7f 72 43 70      |      .....rCp  |      [41]: "2037-10-03T15:00:00Z" (2138194800) transition_time 0x2c6-0x2cd.7 (8)
0x2c0|                                          00 00|              ..|      [42]: "2038-01-19T03:14:07Z" (2147483647) transition_time 0x2ce-0x2d5.7 (8)
0x2d0|00 00 7f ff ff ff                              |......          |
     |                                               |                |    transition_types[0:43]: 0x2d6-0x300.7 (43)
0x2d0|                  01                           |      .         |      [0]: 1 transition_type 0x2d6-0x2d6.7 (1)
0x2d0|                     02                        |       .        |      [1]: 2 transition_type 0x2d7-0x2d7.7 (1)
0x2d0|                        03                     |        .       |      [2]: 3 transition_type 0x2d8-0x2d8.7 (1)
0x2d0|                           04                  |         .      |      [3]: 4 transition_type 0x2d9-0x2d9.7 (1)
0x2d0|                              05               |          .     |      [4]: 5 transition_type 0x2da-0x2da.7 (1)
0x2d0|                                 06            |           .    |      [5]: 6 transition_type 0x2db-0x2db.7 (1)
0x2d0|                                    05         |            .   |      [6]: 5 transition_type 0x2dc-0x2dc.7 (1)
0x2d0|                                       06      |             .  |      [7]: 6 transition_type 0x2dd-0x2dd.7 (1)
0x2d0|                                          05   |              . |      [8]: 5 transition_type 0x2de-0x2de.7 (1)
0x2d0|                                             06|               .|      [9]: 6 transition_type 0x2df-0x2df.7 (1)
0x2e0|05                                             |.               |      [10]: 5 transition_type 0x2e0-0x2e0.7 (1)
0x2e0|   06                                          | .              |      [11]: 6 transition_type 0x2e1-0x2e1.7 (1)
0x2e0|      05                                       |  .             |      [12]: 5 transition_type 0x2e2-0x2e2.7 (1)
0x2e0|         06                                    |   .            |      [13]: 6 transition_type 0x2e3-0x2e3.7 (1)
0x2e0|            05                                 |    .           |      [14]: 5 transition_type 0x2e4-0x2e4.7 (1)
0x2e0|               06                              |     .          |      [15]: 6 transition_type 0x2e5-0x2e5.7 (1)
0x2e0|                  05                           |      .         |      [16]: 5 transition_type 0x2e6-0x2e6.7 (1)
0x2e0|                     06                        |       .        |      [17]: 6 transition_type 0x2e7-0x2e7.7 (1)
0x2e0|                        05                     |        .       |      [18]: 5 transition_type 0x2e8-0x2e8.7 (1)
0x2e0|                           06                  |         .      |      [19]: 6 transition_type 0x2e9-0x2e9.7 (1)
0x2e0|                              05               |          .     |      [20]: 5 transition_type 0x2ea-0x2ea.7 (1)
0x2e0|                                 06            |           .    |      [21]: 6 transition_type 0x2eb-0x2eb.7 (1)
0x2e0|                                    05         |            .   |      [22]: 5 transition_type 0x2ec-0x2ec.7 (1)
0x2e0|                                       06      |             .  |      [23]: 6 transition_type 0x2ed-0x2ed.7 (1)
0x2e0|                                          05   |              . |      [24]: 5 transition_type 0x2ee-0x2ee.7 (1)
0x2e0|                                             06|               .|      [25]: 6 transition_type 0x2ef-0x2ef.7 (1)
0x2f0|05                                             |.               |      [26]: 5 transition_type 0x2f0-0x2f0.7 (1)
0x2f0|   06                                          | .              |      [27]: 6 transition_type 0x2f1-0x2f1.7 (1)
0x2f0|      05                                       |  .             |      [28]: 5 transition_type 0x2f2-0x2f2.7 (1)
0x2f0|         06                                    |   .            |      [29]: 6 transition_type 0x2f3-0x2f3.7 (1)
0x2f0|            05                                 |    .           |      [30]: 5 transition_type 0x2f4-0x2f4.7 (1)
0x2f0|               06                              |     .          |      [31]: 6 transition_type 0x2f5-0x2f5.7 (1)
0x2f0|                  05                           |      .         |      [32]: 5 transition_type 0x2f6-0x2f6.7 (1)
0x2f0|                     06                        |       .        |      [33]: 6 transition_type 0x2f7-0x2f7.7 (1)
0x2f0|                        05                     |        .       |      [34]: 5 transition_type 0x2f8-0x2f8.7 (1)
0x2f0|                           06                  |         .      |      [35]: 6 transition_type 0x2f9-0x2f9.7 (1)
0x2f0|                              05               |          .     |      [36]: 5 transition_type 0x2fa-0x2fa.7 (1)
0x2f0|                                 06            |           .    |      [37]: 6 transition_type 0x2fb-0x2fb.7 (1)
0x2f0|                                    05         |            .   |      [38]: 5 transition_type 0x2fc-0x2fc.7 (1)
0x2f0|                                       06      |             .  |      [39]: 6 transition_type 0x2fd-0x2fd.7 (1)
0x2f0|                                          05   |              . |      [40]: 5 transition_type 0x2fe-0x2fe.7 (1)
0x2f0|                                             06|               .|      [41]: 6 transition_type 0x2ff-0x2ff.7 (1)
0x300|06                                             |.               |      [42]: 6 transition_type 0x300-0x300.7 (1)
     |                                               |                |    local_time_type_records[0:7]: 0x301-0x32a.7 (42)
     |                                               |                |      [0]{}: local_time_type 0x301-0x306.7 (6)
0x300|   00 00 9d 78                                 | ...x           |        utoff: 40312 (valid) 0x301-0x304.7 (4)
0x300|               00                              |     .          |        dst: 0 (valid) 0x305-0x305.7 (1)
0x300|                  00                           |      .         |        idx: 0 (valid) 0x306-0x306.7 (1)
     |                                               |                |      [1]{}: local_time_type 0x307-0x30c.7 (6)
0x300|                     00 00 9d 80               |       ....     |        utoff: 40320 (valid) 0x307-0x30a.7 (4)
0x300|                                 00            |           .    |        dst: 0 (valid) 0x30b-0x30b.7 (1)
0x300|                                    04         |            .   |        idx: 4 (valid) 0x30c-0x30c.7 (1)
     |                                               |                |      [2]{}: local_time_type 0x30d-0x312.7 (6)
0x300|                                       00 00 a1|             ...|        utoff: 41400 (valid) 0x30d-0x310.7 (4)
0x310|b8                                             |.               |
0x310|   00                                          | .              |        dst: 0 (valid) 0x311-0x311.7 (1)
0x310|      0a                                       |  .             |        idx: 10 (valid) 0x312-0x312.7 (1)
     |                                               |                |      [3]{}: local_time_type 0x313-0x318.7 (6)
0x310|         00 00 af c8                           |   ....         |        utoff: 45000 (valid) 0x313-0x316.7 (4)
0x310|                     01                        |       .        |        dst: 1 (valid) 0x317-0x317.7 (1)
0x310|                        10                     |        .       |        idx: 16 (valid) 0x318-0x318.7 (1)
     |                                               |                |      [4]{}: local_time_type 0x319-0x31e.7 (6)
0x310|                           00 00 a1 b8         |         ....   |        utoff: 41400 (valid) 0x319-0x31c.7 (4)
0x310|                                       00      |             .  |        dst: 0 (valid) 0x31d-0x31d.7 (1)
0x310|                                          0a   |              . |        idx: 10 (valid) 0x31e-0x31e.7 (1)
     |                                               |                |      [5]{}: local_time_type 0x31f-0x324.7 (6)
0x310|                                             00|               .|        utoff: 39600 (valid) 0x31f-0x322.7 (4)
0x320|00 9a b0                                       |...             |
0x320|         00                                    |   .            |        dst: 0 (valid) 0x323-0x323.7 (1)
0x320|            16                                 |    .           |        idx: 22 (valid) 0x324-0x324.7 (1)
     |                                               |                |      [6]{}: local_time_type 0x325-0x32a.7 (6)
0x320|               00 00 a8 c0                     |     ....       |        utoff: 43200 (valid) 0x325-0x328.7 (4)
0x320|                           01                  |         .      |        dst: 1 (valid) 0x329-0x329.7 (1)
0x320|                              1a               |          .     |        idx: 26 (valid) 0x32a-0x32a.7 (1)
     |                                               |                |    time_zone_designations[0:6]: 0x32b-0x348.7 (30)
0x320|                                 4c 4d 54 00   |           LMT. |      [0]: "LMT" time_zone_designation 0x32b-0x32e.7 (4)
0x320|                                             2b|               +|      [1]: "+1112" time_zone_designation 0x32f-0x334.7 (6)
0x330|31 31 31 32 00                                 |1112.           |
0x330|               2b 31 31 33 30 00               |     +1130.     |      [2]: "+1130" time_zone_designation 0x335-0x33a.7 (6)
0x330|                                 2b 31 32 33 30|           +1230|      [3]: "+1230" time_zone_designation 0x33b-0x340.7 (6)
0x340|00                                             |.               |
0x340|   2b 31 31 00                                 | +11.           |      [4]: "+11" time_zone_designation 0x341-0x344.7 (4)
0x340|               2b 31 32 00                     |     +12.       |      [5]: "+12" time_zone_designation 0x345-0x348.7 (4)
     |                                               |                |    leap_second_records[0:0]: 0x349-NA (0)
     |                                               |                |    standard_wall_indicators[0:7]: 0x349-0x34f.7 (7)
0x340|                           00                  |         .      |      [0]: 0 standard_wall_indicator (valid) 0x349-0x349.7 (1)
0x340|                              00               |          .     |      [1]: 0 standard_wall_indicator (valid) 0x34a-0x34a.7 (1)
0x340|                                 00            |           .    |      [2]: 0 standard_wall_indicator (valid) 0x34b-0x34b.7 (1)
0x340|                                    01         |            .   |      [3]: 1 standard_wall_indicator (valid) 0x34c-0x34c.7 (1)
0x340|                                       01      |             .  |      [4]: 1 standard_wall_indicator (valid) 0x34d-0x34d.7 (1)
0x340|                                          01   |              . |      [5]: 1 standard_wall_indicator (valid) 0x34e-0x34e.7 (1)
0x340|                                             01|               .|      [6]: 1 standard_wall_indicator (valid) 0x34f-0x34f.7 (1)
     |                                               |                |    ut_local_indicators[0:0]: 0x350-NA (0)
     |                                               |                |  footer{}: 0x350-0x36f.7 (32)
0x350|0a                                             |.               |    nl1: 10 (valid) 0x350-0x350.7 (1)
0x350|   3c 2b 31 31 3e 2d 31 31 3c 2b 31 32 3e 2c 4d| <+11>-11<+12>,M|    tz_string: "<+11>-11<+12>,M10.1.0,M4.1.0/3" 0x351-0x36e.7 (30)
0x360|31 30 2e 31 2e 30 2c 4d 34 2e 31 2e 30 2f 33   |10.1.0,M4.1.0/3 |
0x360|                                             0a|               .|    nl2: 10 (valid) 0x36f-0x36f.7 (1)
