$ fq -d tzif dv Noronha
     |00 01 02 03 04 05 06 07 08 09 0a 0b 0c 0d 0e 0f|0123456789abcdef|.{}: Noronha (tzif) 0x0-0x4e2 (1250)
     |                                               |                |  v1header{}: 0x0-0x2c (44)
0x000|54 5a 69 66                                    |TZif            |    magic: 0x545a6966 (valid) 0x0-0x4 (4)
0x000|            32                                 |    2           |    ver: "2" (0x32) (valid) 0x4-0x5 (1)
0x000|               00 00 00 00 00 00 00 00 00 00 00|     ...........|    reserved: raw bits 0x5-0x14 (15)
0x010|00 00 00 00                                    |....            |
0x010|            00 00 00 00                        |    ....        |    isutcnt: 0 0x14-0x18 (4)
0x010|                        00 00 00 00            |        ....    |    isstdcnt: 0 0x18-0x1c (4)
0x010|                                    00 00 00 1b|            ....|    leapcnt: 27 0x1c-0x20 (4)
0x020|00 00 00 28                                    |...(            |    timecnt: 40 0x20-0x24 (4)
0x020|            00 00 00 03                        |    ....        |    typecnt: 3 0x24-0x28 (4)
0x020|                        00 00 00 0c            |        ....    |    charcnt: 12 0x28-0x2c (4)
     |                                               |                |  v1datablock{}: 0x2c-0x1ea (446)
     |                                               |                |    transition_times[0:40]: 0x2c-0xcc (160)
0x020|                                    96 aa 65 64|            ..ed|      [0]: "1914-01-01T02:09:40Z" (-1767217820) transition_time 0x2c-0x30 (4)
0x030|b8 0f 3b d0                                    |..;.            |      [1]: "1931-10-03T13:00:00Z" (-1206961200) transition_time 0x30-0x34 (4)
0x030|            b8 fd 32 90                        |    ..2.        |      [2]: "1932-04-01T01:00:00Z" (-1191366000) transition_time 0x34-0x38 (4)
0x030|                        b9 f1 26 20            |        ..&     |      [3]: "1932-10-03T02:00:00Z" (-1175378400) transition_time 0x38-0x3c (4)
0x030|                                    ba de 66 10|            ..f.|      [4]: "1933-04-01T01:00:00Z" (-1159830000) transition_time 0x3c-0x40 (4)
0x040|da 38 a0 20                                    |.8.             |      [5]: "1949-12-01T02:00:00Z" (-633823200) transition_time 0x40-0x44 (4)
0x040|            da eb ec 20                        |    ...         |      [6]: "1950-04-16T02:00:00Z" (-622072800) transition_time 0x44-0x48 (4)
0x040|                        dc 19 d3 a0            |        ....    |      [7]: "1950-12-01T02:00:00Z" (-602287200) transition_time 0x48-0x4c (4)
0x040|                                    dc b9 4b 10|            ..K.|      [8]: "1951-04-01T01:00:00Z" (-591836400) transition_time 0x4c-0x50 (4)
0x050|dd fb 07 20                                    |...             |      [9]: "1951-12-01T02:00:00Z" (-570751200) transition_time 0x50-0x54 (4)
0x050|            de 9b d0 10                        |    ....        |      [10]: "1952-04-01T01:00:00Z" (-560214000) transition_time 0x54-0x58 (4)
0x050|                        df dd 8c 20            |        ...     |      [11]: "1952-12-01T02:00:00Z" (-539128800) transition_time 0x58-0x5c (4)
0x050|                                    e0 54 25 10|            .T%.|      [12]: "1953-03-01T01:00:00Z" (-531356400) transition_time 0x5c-0x60 (4)
0x060|f4 97 f1 a0                                    |....            |      [13]: "1963-12-09T02:00:00Z" (-191368800) transition_time 0x60-0x64 (4)
0x060|            f5 05 50 10                        |    ..P.        |      [14]: "1964-03-01T01:00:00Z" (-184201200) transition_time 0x64-0x68 (4)
0x060|                        f6 c0 56 20            |        ..V     |      [15]: "1965-01-31T02:00:00Z" (-155167200) transition_time 0x68-0x6c (4)
0x060|                                    f7 0e 10 90|            ....|      [16]: "1965-03-31T01:00:00Z" (-150073200) transition_time 0x6c-0x70 (4)
0x070|f8 51 1e 20                                    |.Q.             |      [17]: "1965-12-01T02:00:00Z" (-128901600) transition_time 0x70-0x74 (4)
0x070|            f8 c7 b7 10                        |    ....        |      [18]: "1966-03-01T01:00:00Z" (-121129200) transition_time 0x74-0x78 (4)
0x070|                        fa 0a c4 a0            |        ....    |      [19]: "1966-11-01T02:00:00Z" (-99957600) transition_time 0x78-0x7c (4)
0x070|                                    fa a8 ea 90|            ....|      [20]: "1967-03-01T01:00:00Z" (-89593200) transition_time 0x7c-0x80 (4)
0x080|fb eb f8 20                                    |...             |      [21]: "1967-11-01T02:00:00Z" (-68421600) transition_time 0x80-0x84 (4)
0x080|            fc 8b 6f 90                        |    ..o.        |      [22]: "1968-03-01T01:00:00Z" (-57970800) transition_time 0x84-0x88 (4)
0x080|                        1d c9 80 2d            |        ...-    |      [23]: "1985-11-02T02:00:13Z" (499744813) transition_time 0x88-0x8c (4)
0x080|                                    1e 78 c9 9d|            .x..|      [24]: "1986-03-15T01:00:13Z" (511232413) transition_time 0x8c-0x90 (4)
0x090|1f a0 27 ad                                    |..'.            |      [25]: "1986-10-25T02:00:13Z" (530589613) transition_time 0x90-0x94 (4)
0x090|            20 33 c1 9d                        |     3..        |      [26]: "1987-02-14T01:00:13Z" (540262813) transition_time 0x94-0x98 (4)
0x090|                        21 81 5b 2d            |        !.[-    |      [27]: "1987-10-25T02:00:13Z" (562125613) transition_time 0x98-0x9c (4)
0x090|                                    22 0b ba 9e|            "...|      [28]: "1988-02-07T01:00:14Z" (571194014) transition_time 0x9c-0xa0 (4)
0x0a0|23 58 02 ae                                    |#X..            |      [29]: "1988-10-16T02:00:14Z" (592970414) transition_time 0xa0-0xa4 (4)
0x0a0|            23 e2 62 1e                        |    #.b.        |      [30]: "1989-01-29T01:00:14Z" (602038814) transition_time 0xa4-0xa8 (4)
0x0a0|                        25 37 e4 ae            |        %7..    |      [31]: "1989-10-15T02:00:14Z" (624420014) transition_time 0xa8-0xac (4)
0x0a0|                                    25 d4 b9 1f|            %...|      [32]: "1990-02-11T01:00:15Z" (634698015) transition_time 0xac-0xb0 (4)
0x0b0|37 f6 b8 b6                                    |7...            |      [33]: "1999-10-03T02:00:22Z" (938916022) transition_time 0xb0-0xb4 (4)
0x0b0|            38 b8 77 26                        |    8.w&        |      [34]: "2000-02-27T01:00:22Z" (951613222) transition_time 0xb4-0xb8 (4)
0x0b0|                        39 df d5 36            |        9..6    |      [35]: "2000-10-08T02:00:22Z" (970970422) transition_time 0xb8-0xbc (4)
0x0b0|                                    39 e9 01 a6|            9...|      [36]: "2000-10-15T01:00:22Z" (971571622) transition_time 0xbc-0xc0 (4)
0x0c0|3b c8 f1 b6                                    |;...            |      [37]: "2001-10-14T02:00:22Z" (1003024822) transition_time 0xc0-0xc4 (4)
0x0c0|            3c 6f 00 a6                        |    <o..        |      [38]: "2002-02-17T01:00:22Z" (1013907622) transition_time 0xc4-0xc8 (4)
0x0c0|                        64 9b 78 1b            |        d.x.    |      [39]: "2023-06-28T00:00:27Z" (1687910427) transition_time 0xc8-0xcc (4)
     |                                               |                |    transition_types[0:40]: 0xcc-0xf4 (40)
0x0c0|                                    02         |            .   |      [0]: 2 transition_type 0xcc-0xcd (1)
0x0c0|                                       01      |             .  |      [1]: 1 transition_type 0xcd-0xce (1)
0x0c0|                                          02   |              . |      [2]: 2 transition_type 0xce-0xcf (1)
0x0c0|                                             01|               .|      [3]: 1 transition_type 0xcf-0xd0 (1)
0x0d0|02                                             |.               |      [4]: 2 transition_type 0xd0-0xd1 (1)
0x0d0|   01                                          | .              |      [5]: 1 transition_type 0xd1-0xd2 (1)
0x0d0|      02                                       |  .             |      [6]: 2 transition_type 0xd2-0xd3 (1)
0x0d0|         01                                    |   .            |      [7]: 1 transition_type 0xd3-0xd4 (1)
0x0d0|            02                                 |    .           |      [8]: 2 transition_type 0xd4-0xd5 (1)
0x0d0|               01                              |     .          |      [9]: 1 transition_type 0xd5-0xd6 (1)
0x0d0|                  02                           |      .         |      [10]: 2 transition_type 0xd6-0xd7 (1)
0x0d0|                     01                        |       .        |      [11]: 1 transition_type 0xd7-0xd8 (1)
0x0d0|                        02                     |        .       |      [12]: 2 transition_type 0xd8-0xd9 (1)
0x0d0|                           01                  |         .      |      [13]: 1 transition_type 0xd9-0xda (1)
0x0d0|                              02               |          .     |      [14]: 2 transition_type 0xda-0xdb (1)
0x0d0|                                 01            |           .    |      [15]: 1 transition_type 0xdb-0xdc (1)
0x0d0|                                    02         |            .   |      [16]: 2 transition_type 0xdc-0xdd (1)
0x0d0|                                       01      |             .  |      [17]: 1 transition_type 0xdd-0xde (1)
0x0d0|                                          02   |              . |      [18]: 2 transition_type 0xde-0xdf (1)
0x0d0|                                             01|               .|      [19]: 1 transition_type 0xdf-0xe0 (1)
0x0e0|02                                             |.               |      [20]: 2 transition_type 0xe0-0xe1 (1)
0x0e0|   01                                          | .              |      [21]: 1 transition_type 0xe1-0xe2 (1)
0x0e0|      02                                       |  .             |      [22]: 2 transition_type 0xe2-0xe3 (1)
0x0e0|         01                                    |   .            |      [23]: 1 transition_type 0xe3-0xe4 (1)
0x0e0|            02                                 |    .           |      [24]: 2 transition_type 0xe4-0xe5 (1)
0x0e0|               01                              |     .          |      [25]: 1 transition_type 0xe5-0xe6 (1)
0x0e0|                  02                           |      .         |      [26]: 2 transition_type 0xe6-0xe7 (1)
0x0e0|                     01                        |       .        |      [27]: 1 transition_type 0xe7-0xe8 (1)
0x0e0|                        02                     |        .       |      [28]: 2 transition_type 0xe8-0xe9 (1)
0x0e0|                           01                  |         .      |      [29]: 1 transition_type 0xe9-0xea (1)
0x0e0|                              02               |          .     |      [30]: 2 transition_type 0xea-0xeb (1)
0x0e0|                                 01            |           .    |      [31]: 1 transition_type 0xeb-0xec (1)
0x0e0|                                    02         |            .   |      [32]: 2 transition_type 0xec-0xed (1)
0x0e0|                                       01      |             .  |      [33]: 1 transition_type 0xed-0xee (1)
0x0e0|                                          02   |              . |      [34]: 2 transition_type 0xee-0xef (1)
0x0e0|                                             01|               .|      [35]: 1 transition_type 0xef-0xf0 (1)
0x0f0|02                                             |.               |      [36]: 2 transition_type 0xf0-0xf1 (1)
0x0f0|   01                                          | .              |      [37]: 1 transition_type 0xf1-0xf2 (1)
0x0f0|      02                                       |  .             |      [38]: 2 transition_type 0xf2-0xf3 (1)
0x0f0|         02                                    |   .            |      [39]: 2 transition_type 0xf3-0xf4 (1)
     |                                               |                |    local_time_type_records[0:3]: 0xf4-0x106 (18)
     |                                               |                |      [0]{}: local_time_type 0xf4-0xfa (6)
0x0f0|            ff ff e1 9c                        |    ....        |        utoff: -7780 (valid) 0xf4-0xf8 (4)
0x0f0|                        00                     |        .       |        dst: 0 (valid) 0xf8-0xf9 (1)
0x0f0|                           00                  |         .      |        idx: 0 (valid) 0xf9-0xfa (1)
     |                                               |                |      [1]{}: local_time_type 0xfa-0x100 (6)
0x0f0|                              ff ff f1 f0      |          ....  |        utoff: -3600 (valid) 0xfa-0xfe (4)
0x0f0|                                          01   |              . |        dst: 1 (valid) 0xfe-0xff (1)
0x0f0|                                             04|               .|        idx: 4 (valid) 0xff-0x100 (1)
     |                                               |                |      [2]{}: local_time_type 0x100-0x106 (6)
0x100|ff ff e3 e0                                    |....            |        utoff: -7200 (valid) 0x100-0x104 (4)
0x100|            00                                 |    .           |        dst: 0 (valid) 0x104-0x105 (1)
0x100|               08                              |     .          |        idx: 8 (valid) 0x105-0x106 (1)
     |                                               |                |    time_zone_designations[0:3]: 0x106-0x112 (12)
0x100|                  4c 4d 54 00                  |      LMT.      |      [0]: "LMT" time_zone_designation 0x106-0x10a (4)
0x100|                              2d 30 31 00      |          -01.  |      [1]: "-01" time_zone_designation 0x10a-0x10e (4)
0x100|                                          2d 30|              -0|      [2]: "-02" time_zone_designation 0x10e-0x112 (4)
0x110|32 00                                          |2.              |
     |                                               |                |    leap_second_records[0:27]: 0x112-0x1ea (216)
     |                                               |                |      [0]{}: leap_second_record 0x112-0x11a (8)
0x110|      04 b2 58 00                              |  ..X.          |        occur: "1972-07-01T00:00:00Z" (78796800) 0x112-0x116 (4)
0x110|                  00 00 00 01                  |      ....      |        corr: 1 0x116-0x11a (4)
     |                                               |                |      [1]{}: leap_second_record 0x11a-0x122 (8)
0x110|                              05 a4 ec 01      |          ....  |        occur: "1973-01-01T00:00:01Z" (94694401) 0x11a-0x11e (4)
0x110|                                          00 00|              ..|        corr: 2 0x11e-0x122 (4)
0x120|00 02                                          |..              |
     |                                               |                |      [2]{}: leap_second_record 0x122-0x12a (8)
0x120|      07 86 1f 82                              |  ....          |        occur: "1974-01-01T00:00:02Z" (126230402) 0x122-0x126 (4)
0x120|                  00 00 00 03                  |      ....      |        corr: 3 0x126-0x12a (4)
     |                                               |                |      [3]{}: leap_second_record 0x12a-0x132 (8)
0x120|                              09 67 53 03      |          .gS.  |        occur: "1975-01-01T00:00:03Z" (157766403) 0x12a-0x12e (4)
0x120|                                          00 00|              ..|        corr: 4 0x12e-0x132 (4)
0x130|00 04                                          |..              |
     |                                               |                |      [4]{}: leap_second_record 0x132-0x13a (8)
0x130|      0b 48 86 84                              |  .H..          |        occur: "1976-01-01T00:00:04Z" (189302404) 0x132-0x136 (4)
0x130|                  00 00 00 05                  |      ....      |        corr: 5 0x136-0x13a (4)
     |                                               |                |      [5]{}: leap_second_record 0x13a-0x142 (8)
0x130|                              0d 2b 0b 85      |          .+..  |        occur: "1977-01-01T00:00:05Z" (220924805) 0x13a-0x13e (4)
0x130|                                          00 00|              ..|        corr: 6 0x13e-0x142 (4)
0x140|00 06                                          |..              |
     |                                               |                |      [6]{}: leap_second_record 0x142-0x14a (8)
0x140|      0f 0c 3f 06                              |  ..?.          |        occur: "1978-01-01T00:00:06Z" (252460806) 0x142-0x146 (4)
0x140|                  00 00 00 07                  |      ....      |        corr: 7 0x146-0x14a (4)
     |                                               |                |      [7]{}: leap_second_record 0x14a-0x152 (8)
0x140|                              10 ed 72 87      |          ..r.  |        occur: "1979-01-01T00:00:07Z" (283996807) 0x14a-0x14e (4)
0x140|                                          00 00|              ..|        corr: 8 0x14e-0x152 (4)
0x150|00 08                                          |..              |
     |                                               |                |      [8]{}: leap_second_record 0x152-0x15a (8)
0x150|      12 ce a6 08                              |  ....          |        occur: "1980-01-01T00:00:08Z" (315532808) 0x152-0x156 (4)
0x150|                  00 00 00 09                  |      ....      |        corr: 9 0x156-0x15a (4)
     |                                               |                |      [9]{}: leap_second_record 0x15a-0x162 (8)
0x150|                              15 9f ca 89      |          ....  |        occur: "1981-07-01T00:00:09Z" (362793609) 0x15a-0x15e (4)
0x150|                                          00 00|              ..|        corr: 10 0x15e-0x162 (4)
0x160|00 0a                                          |..              |
     |                                               |                |      [10]{}: leap_second_record 0x162-0x16a (8)
0x160|      17 80 fe 0a                              |  ....          |        occur: "1982-07-01T00:00:10Z" (394329610) 0x162-0x166 (4)
0x160|                  00 00 00 0b                  |      ....      |        corr: 11 0x166-0x16a (4)
     |                                               |                |      [11]{}: leap_second_record 0x16a-0x172 (8)
0x160|                              19 62 31 8b      |          .b1.  |        occur: "1983-07-01T00:00:11Z" (425865611) 0x16a-0x16e (4)
0x160|                                          00 00|              ..|        corr: 12 0x16e-0x172 (4)
0x170|00 0c                                          |..              |
     |                                               |                |      [12]{}: leap_second_record 0x172-0x17a (8)
0x170|      1d 25 ea 0c                              |  .%..          |        occur: "1985-07-01T00:00:12Z" (489024012) 0x172-0x176 (4)
0x170|                  00 00 00 0d                  |      ....      |        corr: 13 0x176-0x17a (4)
     |                                               |                |      [13]{}: leap_second_record 0x17a-0x182 (8)
0x170|                              21 da e5 0d      |          !...  |        occur: "1988-01-01T00:00:13Z" (567993613) 0x17a-0x17e (4)
0x170|                                          00 00|              ..|        corr: 14 0x17e-0x182 (4)
0x180|00 0e                                          |..              |
     |                                               |                |      [14]{}: leap_second_record 0x182-0x18a (8)
0x180|      25 9e 9d 8e                              |  %...          |        occur: "1990-01-01T00:00:14Z" (631152014) 0x182-0x186 (4)
0x180|                  00 00 00 0f                  |      ....      |        corr: 15 0x186-0x18a (4)
     |                                               |                |      [15]{}: leap_second_record 0x18a-0x192 (8)
0x180|                              27 7f d1 0f      |          '...  |        occur: "1991-01-01T00:00:15Z" (662688015) 0x18a-0x18e (4)
0x180|                                          00 00|              ..|        corr: 16 0x18e-0x192 (4)
0x190|00 10                                          |..              |
     |                                               |                |      [16]{}: leap_second_record 0x192-0x19a (8)
0x190|      2a 50 f5 90                              |  *P..          |        occur: "1992-07-01T00:00:16Z" (709948816) 0x192-0x196 (4)
0x190|                  00 00 00 11                  |      ....      |        corr: 17 0x196-0x19a (4)
     |                                               |                |      [17]{}: leap_second_record 0x19a-0x1a2 (8)
0x190|                              2c 32 29 11      |          ,2).  |        occur: "1993-07-01T00:00:17Z" (741484817) 0x19a-0x19e (4)
0x190|                                          00 00|              ..|        corr: 18 0x19e-0x1a2 (4)
0x1a0|00 12                                          |..              |
     |                                               |                |      [18]{}: leap_second_record 0x1a2-0x1aa (8)
0x1a0|      2e 13 5c 92                              |  ..\.          |        occur: "1994-07-01T00:00:18Z" (773020818) 0x1a2-0x1a6 (4)
0x1a0|                  00 00 00 13                  |      ....      |        corr: 19 0x1a6-0x1aa (4)
     |                                               |                |      [19]{}: leap_second_record 0x1aa-0x1b2 (8)
0x1a0|                              30 e7 24 13      |          0.$.  |        occur: "1996-01-01T00:00:19Z" (820454419) 0x1aa-0x1ae (4)
0x1a0|                                          00 00|              ..|        corr: 20 0x1ae-0x1b2 (4)
0x1b0|00 14                                          |..              |
     |                                               |                |      [20]{}: leap_second_record 0x1b2-0x1ba (8)
0x1b0|      33 b8 48 94                              |  3.H.          |        occur: "1997-07-01T00:00:20Z" (867715220) 0x1b2-0x1b6 (4)
0x1b0|                  00 00 00 15                  |      ....      |        corr: 21 0x1b6-0x1ba (4)
     |                                               |                |      [21]{}: leap_second_record 0x1ba-0x1c2 (8)
0x1b0|                              36 8c 10 15      |          6...  |        occur: "1999-01-01T00:00:21Z" (915148821) 0x1ba-0x1be (4)
0x1b0|                                          00 00|              ..|        corr: 22 0x1be-0x1c2 (4)
0x1c0|00 16                                          |..              |
     |                                               |                |      [22]{}: leap_second_record 0x1c2-0x1ca (8)
0x1c0|      43 b7 1b 96                              |  C...          |        occur: "2006-01-01T00:00:22Z" (1136073622) 0x1c2-0x1c6 (4)
0x1c0|                  00 00 00 17                  |      ....      |        corr: 23 0x1c6-0x1ca (4)
     |                                               |                |      [23]{}: leap_second_record 0x1ca-0x1d2 (8)
0x1c0|                              49 5c 07 97      |          I\..  |        occur: "2009-01-01T00:00:23Z" (1230768023) 0x1ca-0x1ce (4)
0x1c0|                                          00 00|              ..|        corr: 24 0x1ce-0x1d2 (4)
0x1d0|00 18                                          |..              |
     |                                               |                |      [24]{}: leap_second_record 0x1d2-0x1da (8)
0x1d0|      4f ef 93 18                              |  O...          |        occur: "2012-07-01T00:00:24Z" (1341100824) 0x1d2-0x1d6 (4)
0x1d0|                  00 00 00 19                  |      ....      |        corr: 25 0x1d6-0x1da (4)
     |                                               |                |      [25]{}: leap_second_record 0x1da-0x1e2 (8)
0x1d0|                              55 93 2d 99      |          U.-.  |        occur: "2015-07-01T00:00:25Z" (1435708825) 0x1da-0x1de (4)
0x1d0|                                          00 00|              ..|        corr: 26 0x1de-0x1e2 (4)
0x1e0|00 1a                                          |..              |
     |                                               |                |      [26]{}: leap_second_record 0x1e2-0x1ea (8)
0x1e0|      58 68 46 9a                              |  XhF.          |        occur: "2017-01-01T00:00:26Z" (1483228826) 0x1e2-0x1e6 (4)
0x1e0|                  00 00 00 1b                  |      ....      |        corr: 27 0x1e6-0x1ea (4)
     |                                               |                |    standard_wall_indicators[0:0]: 0x1ea-0x1ea (0)
     |                                               |                |    ut_local_indicators[0:0]: 0x1ea-0x1ea (0)
     |                                               |                |  v2plusheader{}: 0x1ea-0x216 (44)
0x1e0|                              54 5a 69 66      |          TZif  |    magic: 0x545a6966 (valid) 0x1ea-0x1ee (4)
0x1e0|                                          32   |              2 |    ver: "2" (0x32) (valid) 0x1ee-0x1ef (1)
0x1e0|                                             00|               .|    reserved: raw bits 0x1ef-0x1fe (15)
0x1f0|00 00 00 00 00 00 00 00 00 00 00 00 00 00      |..............  |
0x1f0|                                          00 00|              ..|    isutcnt: 0 0x1fe-0x202 (4)
0x200|00 00                                          |..              |
0x200|      00 00 00 00                              |  ....          |    isstdcnt: 0 0x202-0x206 (4)
0x200|                  00 00 00 1b                  |      ....      |    leapcnt: 27 0x206-0x20a (4)
0x200|                              00 00 00 28      |          ...(  |    timecnt: 40 0x20a-0x20e (4)
0x200|                                          00 00|              ..|    typecnt: 3 0x20e-0x212 (4)
0x210|00 03                                          |..              |
0x210|      00 00 00 0c                              |  ....          |    charcnt: 12 0x212-0x216 (4)
     |                                               |                |  v2plusdatablock{}: 0x216-0x4e0 (714)
     |                                               |                |    transition_times[0:40]: 0x216-0x356 (320)
0x210|                  ff ff ff ff 96 aa 65 64      |      ......ed  |      [0]: "1914-01-01T02:09:40Z" (-1767217820) transition_time 0x216-0x21e (8)
0x210|                                          ff ff|              ..|      [1]: "1931-10-03T13:00:00Z" (-1206961200) transition_time 0x21e-0x226 (8)
0x220|ff ff b8 0f 3b d0                              |....;.          |
0x220|                  ff ff ff ff b8 fd 32 90      |      ......2.  |      [2]: "1932-04-01T01:00:00Z" (-1191366000) transition_time 0x226-0x22e (8)
0x220|                                          ff ff|              ..|      [3]: "1932-10-03T02:00:00Z" (-1175378400) transition_time 0x22e-0x236 (8)
0x230|ff ff b9 f1 26 20                              |....&           |
0x230|                  ff ff ff ff ba de 66 10      |      ......f.  |      [4]: "1933-04-01T01:00:00Z" (-1159830000) transition_time 0x236-0x23e (8)
0x230|                                          ff ff|              ..|      [5]: "1949-12-01T02:00:00Z" (-633823200) transition_time 0x23e-0x246 (8)
0x240|ff ff da 38 a0 20                              |...8.           |
0x240|                  ff ff ff ff da eb ec 20      |      .......   |      [6]: "1950-04-16T02:00:00Z" (-622072800) transition_time 0x246-0x24e (8)
0x240|                                          ff ff|              ..|      [7]: "1950-12-01T02:00:00Z" (-602287200) transition_time 0x24e-0x256 (8)
0x250|ff ff dc 19 d3 a0                              |......          |
0x250|                  ff ff ff ff dc b9 4b 10      |      ......K.  |      [8]: "1951-04-01T01:00:00Z" (-591836400) transition_time 0x256-0x25e (8)
0x250|                                          ff ff|              ..|      [9]: "1951-12-01T02:00:00Z" (-570751200) transition_time 0x25e-0x266 (8)
0x260|ff ff dd fb 07 20                              |.....           |
0x260|                  ff ff ff ff de 9b d0 10      |      ........  |      [10]: "1952-04-01T01:00:00Z" (-560214000) transition_time 0x266-0x26e (8)
0x260|                                          ff ff|              ..|      [11]: "1952-12-01T02:00:00Z" (-539128800) transition_time 0x26e-0x276 (8)
0x270|ff ff df dd 8c 20                              |.....           |
0x270|                  ff ff ff ff e0 54 25 10      |      .....T%.  |      [12]: "1953-03-01T01:00:00Z" (-531356400) transition_time 0x276-0x27e (8)
0x270|                                          ff ff|              ..|      [13]: "1963-12-09T02:00:00Z" (-191368800) transition_time 0x27e-0x286 (8)
0x280|ff ff f4 97 f1 a0                              |......          |
0x280|                  ff ff ff ff f5 05 50 10      |      ......P.  |      [14]: "1964-03-01T01:00:00Z" (-184201200) transition_time 0x286-0x28e (8)
0x280|                                          ff ff|              ..|      [15]: "1965-01-31T02:00:00Z" (-155167200) transition_time 0x28e-0x296 (8)
0x290|ff ff f6 c0 56 20                              |....V           |
0x290|                  ff ff ff ff f7 0e 10 90      |      ........  |      [16]: "1965-03-31T01:00:00Z" (-150073200) transition_time 0x296-0x29e (8)
0x290|                                          ff ff|              ..|      [17]: "1965-12-01T02:00:00Z" (-128901600) transition_time 0x29e-0x2a6 (8)
0x2a0|ff ff f8 51 1e 20                              |...Q.           |
0x2a0|                  ff ff ff ff f8 c7 b7 10      |      ........  |      [18]: "1966-03-01T01:00:00Z" (-121129200) transition_time 0x2a6-0x2ae (8)
0x2a0|                                          ff ff|              ..|      [19]: "1966-11-01T02:00:00Z" (-99957600) transition_time 0x2ae-0x2b6 (8)
0x2b0|ff ff fa 0a c4 a0                              |......          |
0x2b0|                  ff ff ff ff fa a8 ea 90      |      ........  |      [20]: "1967-03-01T01:00:00Z" (-89593200) transition_time 0x2b6-0x2be (8)
0x2b0|                                          ff ff|              ..|      [21]: "1967-11-01T02:00:00Z" (-68421600) transition_time 0x2be-0x2c6 (8)
0x2c0|ff ff fb eb f8 20                              |.....           |
0x2c0|                  ff ff ff ff fc 8b 6f 90      |      ......o.  |      [22]: "1968-03-01T01:00:00Z" (-57970800) transition_time 0x2c6-0x2ce (8)
0x2c0|                                          00 00|              ..|      [23]: "1985-11-02T02:00:13Z" (499744813) transition_time 0x2ce-0x2d6 (8)
0x2d0|00 00 1d c9 80 2d                              |.....-          |
0x2d0|                  00 00 00 00 1e 78 c9 9d      |      .....x..  |      [24]: "1986-03-15T01:00:13Z" (511232413) transition_time 0x2d6-0x2de (8)
0x2d0|                                          00 00|              ..|      [25]: "1986-10-25T02:00:13Z" (530589613) transition_time 0x2de-0x2e6 (8)
0x2e0|00 00 1f a0 27 ad                              |....'.          |
0x2e0|                  00 00 00 00 20 33 c1 9d      |      .... 3..  |      [26]: "1987-02-14T01:00:13Z" (540262813) transition_time 0x2e6-0x2ee (8)
0x2e0|                                          00 00|              ..|      [27]: "1987-10-25T02:00:13Z" (562125613) transition_time 0x2ee-0x2f6 (8)
0x2f0|00 00 21 81 5b 2d                              |..!.[-          |
0x2f0|                  00 00 00 00 22 0b ba 9e      |      ...."...  |      [28]: "1988-02-07T01:00:14Z" (571194014) transition_time 0x2f6-0x2fe (8)
0x2f0|                                          00 00|              ..|      [29]: "1988-10-16T02:00:14Z" (592970414) transition_time 0x2fe-0x306 (8)
0x300|00 00 23 58 02 ae                              |..#X..          |
0x300|                  00 00 00 00 23 e2 62 1e      |      ....#.b.  |      [30]: "1989-01-29T01:00:14Z" (602038814) transition_time 0x306-0x30e (8)
0x300|                                          00 00|              ..|      [31]: "1989-10-15T02:00:14Z" (624420014) transition_time 0x30e-0x316 (8)
0x310|00 00 25 37 e4 ae                              |..%7..          |
0x310|                  00 00 00 00 25 d4 b9 1f      |      ....%...  |      [32]: "1990-02-11T01:00:15Z" (634698015) transition_time 0x316-0x31e (8)
0x310|                                          00 00|              ..|      [33]: "1999-10-03T02:00:22Z" (938916022) transition_time 0x31e-0x326 (8)
0x320|00 00 37 f6 b8 b6                              |..7...          |
0x320|                  00 00 00 00 38 b8 77 26      |      ....8.w&  |      [34]: "2000-02-27T01:00:22Z" (951613222) transition_time 0x326-0x32e (8)
0x320|                                          00 00|              ..|      [35]: "2000-10-08T02:00:22Z" (970970422) transition_time 0x32e-0x336 (8)
0x330|00 00 39 df d5 36                              |..9..6          |
0x330|                  00 00 00 00 39 e9 01 a6      |      ....9...  |      [36]: "2000-10-15T01:00:22Z" (971571622) transition_time 0x336-0x33e (8)
0x330|                                          00 00|              ..|      [37]: "2001-10-14T02:00:22Z" (1003024822) transition_time 0x33e-0x346 (8)
0x340|00 00 3b c8 f1 b6                              |..;...          |
0x340|                  00 00 00 00 3c 6f 00 a6      |      ....<o..  |      [38]: "2002-02-17T01:00:22Z" (1013907622) transition_time 0x346-0x34e (8)
0x340|                                          00 00|              ..|      [39]: "2023-06-28T00:00:27Z" (1687910427) transition_time 0x34e-0x356 (8)
0x350|00 00 64 9b 78 1b                              |..d.x.          |
     |                                               |                |    transition_types[0:40]: 0x356-0x37e (40)
0x350|                  02                           |      .         |      [0]: 2 transition_type 0x356-0x357 (1)
0x350|                     01                        |       .        |      [1]: 1 transition_type 0x357-0x358 (1)
0x350|                        02                     |        .       |      [2]: 2 transition_type 0x358-0x359 (1)
0x350|                           01                  |         .      |      [3]: 1 transition_type 0x359-0x35a (1)
0x350|                              02               |          .     |      [4]: 2 transition_type 0x35a-0x35b (1)
0x350|                                 01            |           .    |      [5]: 1 transition_type 0x35b-0x35c (1)
0x350|                                    02         |            .   |      [6]: 2 transition_type 0x35c-0x35d (1)
0x350|                                       01      |             .  |      [7]: 1 transition_type 0x35d-0x35e (1)
0x350|                                          02   |              . |      [8]: 2 transition_type 0x35e-0x35f (1)
0x350|                                             01|               .|      [9]: 1 transition_type 0x35f-0x360 (1)
0x360|02                                             |.               |      [10]: 2 transition_type 0x360-0x361 (1)
0x360|   01                                          | .              |      [11]: 1 transition_type 0x361-0x362 (1)
0x360|      02                                       |  .             |      [12]: 2 transition_type 0x362-0x363 (1)
0x360|         01                                    |   .            |      [13]: 1 transition_type 0x363-0x364 (1)
0x360|            02                                 |    .           |      [14]: 2 transition_type 0x364-0x365 (1)
0x360|               01                              |     .          |      [15]: 1 transition_type 0x365-0x366 (1)
0x360|                  02                           |      .         |      [16]: 2 transition_type 0x366-0x367 (1)
0x360|                     01                        |       .        |      [17]: 1 transition_type 0x367-0x368 (1)
0x360|                        02                     |        .       |      [18]: 2 transition_type 0x368-0x369 (1)
0x360|                           01                  |         .      |      [19]: 1 transition_type 0x369-0x36a (1)
0x360|                              02               |          .     |      [20]: 2 transition_type 0x36a-0x36b (1)
0x360|                                 01            |           .    |      [21]: 1 transition_type 0x36b-0x36c (1)
0x360|                                    02         |            .   |      [22]: 2 transition_type 0x36c-0x36d (1)
0x360|                                       01      |             .  |      [23]: 1 transition_type 0x36d-0x36e (1)
0x360|                                          02   |              . |      [24]: 2 transition_type 0x36e-0x36f (1)
0x360|                                             01|               .|      [25]: 1 transition_type 0x36f-0x370 (1)
0x370|02                                             |.               |      [26]: 2 transition_type 0x370-0x371 (1)
0x370|   01                                          | .              |      [27]: 1 transition_type 0x371-0x372 (1)
0x370|      02                                       |  .             |      [28]: 2 transition_type 0x372-0x373 (1)
0x370|         01                                    |   .            |      [29]: 1 transition_type 0x373-0x374 (1)
0x370|            02                                 |    .           |      [30]: 2 transition_type 0x374-0x375 (1)
0x370|               01                              |     .          |      [31]: 1 transition_type 0x375-0x376 (1)
0x370|                  02                           |      .         |      [32]: 2 transition_type 0x376-0x377 (1)
0x370|                     01                        |       .        |      [33]: 1 transition_type 0x377-0x378 (1)
0x370|                        02                     |        .       |      [34]: 2 transition_type 0x378-0x379 (1)
0x370|                           01                  |         .      |      [35]: 1 transition_type 0x379-0x37a (1)
0x370|                              02               |          .     |      [36]: 2 transition_type 0x37a-0x37b (1)
0x370|                                 01            |           .    |      [37]: 1 transition_type 0x37b-0x37c (1)
0x370|                                    02         |            .   |      [38]: 2 transition_type 0x37c-0x37d (1)
0x370|                                       02      |             .  |      [39]: 2 transition_type 0x37d-0x37e (1)
     |                                               |                |    local_time_type_records[0:3]: 0x37e-0x390 (18)
     |                                               |                |      [0]{}: local_time_type 0x37e-0x384 (6)
0x370|                                          ff ff|              ..|        utoff: -7780 (valid) 0x37e-0x382 (4)
0x380|e1 9c                                          |..              |
0x380|      00                                       |  .             |        dst: 0 (valid) 0x382-0x383 (1)
0x380|         00                                    |   .            |        idx: 0 (valid) 0x383-0x384 (1)
     |                                               |                |      [1]{}: local_time_type 0x384-0x38a (6)
0x380|            ff ff f1 f0                        |    ....        |        utoff: -3600 (valid) 0x384-0x388 (4)
0x380|                        01                     |        .       |        dst: 1 (valid) 0x388-0x389 (1)
0x380|                           04                  |         .      |        idx: 4 (valid) 0x389-0x38a (1)
     |                                               |                |      [2]{}: local_time_type 0x38a-0x390 (6)
0x380|                              ff ff e3 e0      |          ....  |        utoff: -7200 (valid) 0x38a-0x38e (4)
0x380|                                          00   |              . |        dst: 0 (valid) 0x38e-0x38f (1)
0x380|                                             08|               .|        idx: 8 (valid) 0x38f-0x390 (1)
     |                                               |                |    time_zone_designations[0:3]: 0x390-0x39c (12)
0x390|4c 4d 54 00                                    |LMT.            |      [0]: "LMT" time_zone_designation 0x390-0x394 (4)
0x390|            2d 30 31 00                        |    -01.        |      [1]: "-01" time_zone_designation 0x394-0x398 (4)
0x390|                        2d 30 32 00            |        -02.    |      [2]: "-02" time_zone_designation 0x398-0x39c (4)
     |                                               |                |    leap_second_records[0:27]: 0x39c-0x4e0 (324)
     |                                               |                |      [0]{}: leap_second_record 0x39c-0x3a8 (12)
0x390|                                    00 00 00 00|            ....|        occur: "1972-07-01T00:00:00Z" (78796800) 0x39c-0x3a4 (8)
0x3a0|04 b2 58 00                                    |..X.            |
0x3a0|            00 00 00 01                        |    ....        |        corr: 1 0x3a4-0x3a8 (4)
     |                                               |                |      [1]{}: leap_second_record 0x3a8-0x3b4 (12)
0x3a0|                        00 00 00 00 05 a4 ec 01|        ........|        occur: "1973-01-01T00:00:01Z" (94694401) 0x3a8-0x3b0 (8)
0x3b0|00 00 00 02                                    |....            |        corr: 2 0x3b0-0x3b4 (4)
     |                                               |                |      [2]{}: leap_second_record 0x3b4-0x3c0 (12)
0x3b0|            00 00 00 00 07 86 1f 82            |    ........    |        occur: "1974-01-01T00:00:02Z" (126230402) 0x3b4-0x3bc (8)
0x3b0|                                    00 00 00 03|            ....|        corr: 3 0x3bc-0x3c0 (4)
     |                                               |                |      [3]{}: leap_second_record 0x3c0-0x3cc (12)
0x3c0|00 00 00 00 09 67 53 03                        |.....gS.        |        occur: "1975-01-01T00:00:03Z" (157766403) 0x3c0-0x3c8 (8)
0x3c0|                        00 00 00 04            |        ....    |        corr: 4 0x3c8-0x3cc (4)
     |                                               |                |      [4]{}: leap_second_record 0x3cc-0x3d8 (12)
0x3c0|                                    00 00 00 00|            ....|        occur: "1976-01-01T00:00:04Z" (189302404) 0x3cc-0x3d4 (8)
0x3d0|0b 48 86 84                                    |.H..            |
0x3d0|            00 00 00 05                        |    ....        |        corr: 5 0x3d4-0x3d8 (4)
     |                                               |                |      [5]{}: leap_second_record 0x3d8-0x3e4 (12)
0x3d0|                        00 00 00 00 0d 2b 0b 85|        .....+..|        occur: "1977-01-01T00:00:05Z" (220924805) 0x3d8-0x3e0 (8)
0x3e0|00 00 00 06                                    |....            |        corr: 6 0x3e0-0x3e4 (4)
     |                                               |                |      [6]{}: leap_second_record 0x3e4-0x3f0 (12)
0x3e0|            00 00 00 00 0f 0c 3f 06            |    ......?.    |        occur: "1978-01-01T00:00:06Z" (252460806) 0x3e4-0x3ec (8)
0x3e0|                                    00 00 00 07|            ....|        corr: 7 0x3ec-0x3f0 (4)
     |                                               |                |      [7]{}: leap_second_record 0x3f0-0x3fc (12)
0x3f0|00 00 00 00 10 ed 72 87                        |......r.        |        occur: "1979-01-01T00:00:07Z" (283996807) 0x3f0-0x3f8 (8)
0x3f0|                        00 00 00 08            |        ....    |        corr: 8 0x3f8-0x3fc (4)
     |                                               |                |      [8]{}: leap_second_record 0x3fc-0x408 (12)
0x3f0|                                    00 00 00 00|            ....|        occur: "1980-01-01T00:00:08Z" (315532808) 0x3fc-0x404 (8)
0x400|12 ce a6 08                                    |....            |
0x400|            00 00 00 09                        |    ....        |        corr: 9 0x404-0x408 (4)
     |                                               |                |      [9]{}: leap_second_record 0x408-0x414 (12)
0x400|                        00 00 00 00 15 9f ca 89|        ........|        occur: "1981-07-01T00:00:09Z" (362793609) 0x408-0x410 (8)
0x410|00 00 00 0a                                    |....            |        corr: 10 0x410-0x414 (4)
     |                                               |                |      [10]{}: leap_second_record 0x414-0x420 (12)
0x410|            00 00 00 00 17 80 fe 0a            |    ........    |        occur: "1982-07-01T00:00:10Z" (394329610) 0x414-0x41c (8)
0x410|                                    00 00 00 0b|            ....|        corr: 11 0x41c-0x420 (4)
     |                                               |                |      [11]{}: leap_second_record 0x420-0x42c (12)
0x420|00 00 00 00 19 62 31 8b                        |.....b1.        |        occur: "1983-07-01T00:00:11Z" (425865611) 0x420-0x428 (8)
0x420|                        00 00 00 0c            |        ....    |        corr: 12 0x428-0x42c (4)
     |                                               |                |      [12]{}: leap_second_record 0x42c-0x438 (12)
0x420|                                    00 00 00 00|            ....|        occur: "1985-07-01T00:00:12Z" (489024012) 0x42c-0x434 (8)
0x430|1d 25 ea 0c                                    |.%..            |
0x430|            00 00 00 0d                        |    ....        |        corr: 13 0x434-0x438 (4)
     |                                               |                |      [13]{}: leap_second_record 0x438-0x444 (12)
0x430|                        00 00 00 00 21 da e5 0d|        ....!...|        occur: "1988-01-01T00:00:13Z" (567993613) 0x438-0x440 (8)
0x440|00 00 00 0e                                    |....            |        corr: 14 0x440-0x444 (4)
     |                                               |                |      [14]{}: leap_second_record 0x444-0x450 (12)
0x440|            00 00 00 00 25 9e 9d 8e            |    ....%...    |        occur: "1990-01-01T00:00:14Z" (631152014) 0x444-0x44c (8)
0x440|                                    00 00 00 0f|            ....|        corr: 15 0x44c-0x450 (4)
     |                                               |                |      [15]{}: leap_second_record 0x450-0x45c (12)
0x450|00 00 00 00 27 7f d1 0f                        |....'...        |        occur: "1991-01-01T00:00:15Z" (662688015) 0x450-0x458 (8)
0x450|                        00 00 00 10            |        ....    |        corr: 16 0x458-0x45c (4)
     |                                               |                |      [16]{}: leap_second_record 0x45c-0x468 (12)
0x450|                                    00 00 00 00|            ....|        occur: "1992-07-01T00:00:16Z" (709948816) 0x45c-0x464 (8)
0x460|2a 50 f5 90                                    |*P..            |
0x460|            00 00 00 11                        |    ....        |        corr: 17 0x464-0x468 (4)
     |                                               |                |      [17]{}: leap_second_record 0x468-0x474 (12)
0x460|                        00 00 00 00 2c 32 29 11|        ....,2).|        occur: "1993-07-01T00:00:17Z" (741484817) 0x468-0x470 (8)
0x470|00 00 00 12                                    |....            |        corr: 18 0x470-0x474 (4)
     |                                               |                |      [18]{}: leap_second_record 0x474-0x480 (12)
0x470|            00 00 00 00 2e 13 5c 92            |    ......\.    |        occur: "1994-07-01T00:00:18Z" (773020818) 0x474-0x47c (8)
0x470|                                    00 00 00 13|            ....|        corr: 19 0x47c-0x480 (4)
     |                                               |                |      [19]{}: leap_second_record 0x480-0x48c (12)
0x480|00 00 00 00 30 e7 24 13                        |....0.$.        |        occur: "1996-01-01T00:00:19Z" (820454419) 0x480-0x488 (8)
0x480|                        00 00 00 14            |        ....    |        corr: 20 0x488-0x48c (4)
     |                                               |                |      [20]{}: leap_second_record 0x48c-0x498 (12)
0x480|                                    00 00 00 00|            ....|        occur: "1997-07-01T00:00:20Z" (867715220) 0x48c-0x494 (8)
0x490|33 b8 48 94                                    |3.H.            |
0x490|            00 00 00 15                        |    ....        |        corr: 21 0x494-0x498 (4)
     |                                               |                |      [21]{}: leap_second_record 0x498-0x4a4 (12)
0x490|                        00 00 00 00 36 8c 10 15|        ....6...|        occur: "1999-01-01T00:00:21Z" (915148821) 0x498-0x4a0 (8)
0x4a0|00 00 00 16                                    |....            |        corr: 22 0x4a0-0x4a4 (4)
     |                                               |                |      [22]{}: leap_second_record 0x4a4-0x4b0 (12)
0x4a0|            00 00 00 00 43 b7 1b 96            |    ....C...    |        occur: "2006-01-01T00:00:22Z" (1136073622) 0x4a4-0x4ac (8)
0x4a0|                                    00 00 00 17|            ....|        corr: 23 0x4ac-0x4b0 (4)
     |                                               |                |      [23]{}: leap_second_record 0x4b0-0x4bc (12)
0x4b0|00 00 00 00 49 5c 07 97                        |....I\..        |        occur: "2009-01-01T00:00:23Z" (1230768023) 0x4b0-0x4b8 (8)
0x4b0|                        00 00 00 18            |        ....    |        corr: 24 0x4b8-0x4bc (4)
     |                                               |                |      [24]{}: leap_second_record 0x4bc-0x4c8 (12)
0x4b0|                                    00 00 00 00|            ....|        occur: "2012-07-01T00:00:24Z" (1341100824) 0x4bc-0x4c4 (8)
0x4c0|4f ef 93 18                                    |O...            |
0x4c0|            00 00 00 19                        |    ....        |        corr: 25 0x4c4-0x4c8 (4)
     |                                               |                |      [25]{}: leap_second_record 0x4c8-0x4d4 (12)
0x4c0|                        00 00 00 00 55 93 2d 99|        ....U.-.|        occur: "2015-07-01T00:00:25Z" (1435708825) 0x4c8-0x4d0 (8)
0x4d0|00 00 00 1a                                    |....            |        corr: 26 0x4d0-0x4d4 (4)
     |                                               |                |      [26]{}: leap_second_record 0x4d4-0x4e0 (12)
0x4d0|            00 00 00 00 58 68 46 9a            |    ....XhF.    |        occur: "2017-01-01T00:00:26Z" (1483228826) 0x4d4-0x4dc (8)
0x4d0|                                    00 00 00 1b|            ....|        corr: 27 0x4dc-0x4e0 (4)
     |                                               |                |    standard_wall_indicators[0:0]: 0x4e0-0x4e0 (0)
     |                                               |                |    ut_local_indicators[0:0]: 0x4e0-0x4e0 (0)
     |                                               |                |  footer{}: 0x4e0-0x4e2 (2)
0x4e0|0a                                             |.               |    nl1: 10 (valid) 0x4e0-0x4e1 (1)
     |                                               |                |    tz_string: "" 0x4e1-0x4e1 (0)
0x4e0|   0a|                                         | .|             |    nl2: 10 (valid) 0x4e1-0x4e2 (1)
