$ fq -d tzif dv Novokuznetsk
     |00 01 02 03 04 05 06 07 08 09 0a 0b 0c 0d 0e 0f|0123456789abcdef|.{}: Novokuznetsk (tzif) 0x0-0x6a2 (1698)
     |                                               |                |  v1header{}: 0x0-0x2c (44)
0x000|54 5a 69 66                                    |TZif            |    magic: 0x545a6966 (valid) 0x0-0x4 (4)
0x000|            32                                 |    2           |    ver: "2" (0x32) (valid) 0x4-0x5 (1)
0x000|               00 00 00 00 00 00 00 00 00 00 00|     ...........|    reserved: raw bits 0x5-0x14 (15)
0x010|00 00 00 00                                    |....            |
0x010|            00 00 00 00                        |    ....        |    isutcnt: 0 0x14-0x18 (4)
0x010|                        00 00 00 09            |        ....    |    isstdcnt: 9 0x18-0x1c (4)
0x010|                                    00 00 00 1b|            ....|    leapcnt: 27 0x1c-0x20 (4)
0x020|00 00 00 41                                    |...A            |    timecnt: 65 0x20-0x24 (4)
0x020|            00 00 00 09                        |    ....        |    typecnt: 9 0x24-0x28 (4)
0x020|                        00 00 00 10            |        ....    |    charcnt: 16 0x28-0x2c (4)
     |                                               |                |  v1datablock{}: 0x2c-0x298 (620)
     |                                               |                |    transition_times[0:65]: 0x2c-0x130 (260)
0x020|                                    aa 18 20 c0|            .. .|      [0]: "1924-04-30T18:11:12Z" (-1441259328) transition_time 0x2c-0x30 (4)
0x030|b5 a3 e1 20                                    |...             |      [1]: "1930-06-20T18:00:00Z" (-1247551200) transition_time 0x30-0x34 (4)
0x030|            15 27 6f 99                        |    .'o.        |      [2]: "1981-03-31T17:00:09Z" (354906009) transition_time 0x34-0x38 (4)
0x030|                        16 18 a4 0a            |        ....    |      [3]: "1981-09-30T16:00:10Z" (370713610) transition_time 0x38-0x3c (4)
0x030|                                    17 08 a3 1a|            ....|      [4]: "1982-03-31T17:00:10Z" (386442010) transition_time 0x3c-0x40 (4)
0x040|17 f9 d7 8b                                    |....            |      [5]: "1982-09-30T16:00:11Z" (402249611) transition_time 0x40-0x44 (4)
0x040|            18 e9 d6 9b                        |    ....        |      [6]: "1983-03-31T17:00:11Z" (417978011) transition_time 0x44-0x48 (4)
0x040|                        19 db 0b 0c            |        ....    |      [7]: "1983-09-30T16:00:12Z" (433785612) transition_time 0x48-0x4c (4)
0x040|                                    1a cc 5b 9c|            ..[.|      [8]: "1984-03-31T17:00:12Z" (449600412) transition_time 0x4c-0x50 (4)
0x050|1b bc 68 bc                                    |..h.            |      [9]: "1984-09-29T19:00:12Z" (465332412) transition_time 0x50-0x54 (4)
0x050|            1c ac 59 bc                        |    ..Y.        |      [10]: "1985-03-30T19:00:12Z" (481057212) transition_time 0x54-0x58 (4)
0x050|                        1d 9c 4a bd            |        ..J.    |      [11]: "1985-09-28T19:00:13Z" (496782013) transition_time 0x58-0x5c (4)
0x050|                                    1e 8c 3b bd|            ..;.|      [12]: "1986-03-29T19:00:13Z" (512506813) transition_time 0x5c-0x60 (4)
0x060|1f 7c 2c bd                                    |.|,.            |      [13]: "1986-09-27T19:00:13Z" (528231613) transition_time 0x60-0x64 (4)
0x060|            20 6c 1d bd                        |     l..        |      [14]: "1987-03-28T19:00:13Z" (543956413) transition_time 0x64-0x68 (4)
0x060|                        21 5c 0e bd            |        !\..    |      [15]: "1987-09-26T19:00:13Z" (559681213) transition_time 0x68-0x6c (4)
0x060|                                    22 4b ff be|            "K..|      [16]: "1988-03-26T19:00:14Z" (575406014) transition_time 0x6c-0x70 (4)
0x070|23 3b f0 be                                    |#;..            |      [17]: "1988-09-24T19:00:14Z" (591130814) transition_time 0x70-0x74 (4)
0x070|            24 2b e1 be                        |    $+..        |      [18]: "1989-03-25T19:00:14Z" (606855614) transition_time 0x74-0x78 (4)
0x070|                        25 1b d2 be            |        %...    |      [19]: "1989-09-23T19:00:14Z" (622580414) transition_time 0x78-0x7c (4)
0x070|                                    26 0b c3 bf|            &...|      [20]: "1990-03-24T19:00:15Z" (638305215) transition_time 0x7c-0x80 (4)
0x080|27 04 ef 3f                                    |'..?            |      [21]: "1990-09-29T19:00:15Z" (654634815) transition_time 0x80-0x84 (4)
0x080|            27 f4 e0 40                        |    '..@        |      [22]: "1991-03-30T19:00:16Z" (670359616) transition_time 0x84-0x88 (4)
0x080|                        28 e4 df 50            |        (..P    |      [23]: "1991-09-28T20:00:16Z" (686088016) transition_time 0x88-0x8c (4)
0x080|                                    29 78 87 50|            )x.P|      [24]: "1992-01-18T20:00:16Z" (695764816) transition_time 0x8c-0x90 (4)
0x090|29 d4 c2 40                                    |)..@            |      [25]: "1992-03-28T19:00:16Z" (701809216) transition_time 0x90-0x94 (4)
0x090|            2a c4 b3 41                        |    *..A        |      [26]: "1992-09-26T19:00:17Z" (717534017) transition_time 0x94-0x98 (4)
0x090|                        2b b4 a4 41            |        +..A    |      [27]: "1993-03-27T19:00:17Z" (733258817) transition_time 0x98-0x9c (4)
0x090|                                    2c a4 95 42|            ,..B|      [28]: "1993-09-25T19:00:18Z" (748983618) transition_time 0x9c-0xa0 (4)
0x0a0|2d 94 86 42                                    |-..B            |      [29]: "1994-03-26T19:00:18Z" (764708418) transition_time 0xa0-0xa4 (4)
0x0a0|            2e 84 77 43                        |    ..wC        |      [30]: "1994-09-24T19:00:19Z" (780433219) transition_time 0xa4-0xa8 (4)
0x0a0|                        2f 74 68 43            |        /thC    |      [31]: "1995-03-25T19:00:19Z" (796158019) transition_time 0xa8-0xac (4)
0x0a0|                                    30 64 59 43|            0dYC|      [32]: "1995-09-23T19:00:19Z" (811882819) transition_time 0xac-0xb0 (4)
0x0b0|31 5d 84 c4                                    |1]..            |      [33]: "1996-03-30T19:00:20Z" (828212420) transition_time 0xb0-0xb4 (4)
0x0b0|            32 72 5f c4                        |    2r_.        |      [34]: "1996-10-26T19:00:20Z" (846356420) transition_time 0xb4-0xb8 (4)
0x0b0|                        33 3d 66 c4            |        3=f.    |      [35]: "1997-03-29T19:00:20Z" (859662020) transition_time 0xb8-0xbc (4)
0x0b0|                                    34 52 41 c5|            4RA.|      [36]: "1997-10-25T19:00:21Z" (877806021) transition_time 0xbc-0xc0 (4)
0x0c0|35 1d 48 c5                                    |5.H.            |      [37]: "1998-03-28T19:00:21Z" (891111621) transition_time 0xc0-0xc4 (4)
0x0c0|            36 32 23 c5                        |    62#.        |      [38]: "1998-10-24T19:00:21Z" (909255621) transition_time 0xc4-0xc8 (4)
0x0c0|                        36 fd 2a c6            |        6.*.    |      [39]: "1999-03-27T19:00:22Z" (922561222) transition_time 0xc8-0xcc (4)
0x0c0|                                    38 1b 40 46|            8.@F|      [40]: "1999-10-30T19:00:22Z" (941310022) transition_time 0xcc-0xd0 (4)
0x0d0|38 dd 0c c6                                    |8...            |      [41]: "2000-03-25T19:00:22Z" (954010822) transition_time 0xd0-0xd4 (4)
0x0d0|            39 fb 22 46                        |    9."F        |      [42]: "2000-10-28T19:00:22Z" (972759622) transition_time 0xd4-0xd8 (4)
0x0d0|                        3a bc ee c6            |        :...    |      [43]: "2001-03-24T19:00:22Z" (985460422) transition_time 0xd8-0xdc (4)
0x0d0|                                    3b db 04 46|            ;..F|      [44]: "2001-10-27T19:00:22Z" (1004209222) transition_time 0xdc-0xe0 (4)
0x0e0|3c a6 0b 46                                    |<..F            |      [45]: "2002-03-30T19:00:22Z" (1017514822) transition_time 0xe0-0xe4 (4)
0x0e0|            3d ba e6 46                        |    =..F        |      [46]: "2002-10-26T19:00:22Z" (1035658822) transition_time 0xe4-0xe8 (4)
0x0e0|                        3e 85 ed 46            |        >..F    |      [47]: "2003-03-29T19:00:22Z" (1048964422) transition_time 0xe8-0xec (4)
0x0e0|                                    3f 9a c8 46|            ?..F|      [48]: "2003-10-25T19:00:22Z" (1067108422) transition_time 0xec-0xf0 (4)
0x0f0|40 65 cf 46                                    |@e.F            |      [49]: "2004-03-27T19:00:22Z" (1080414022) transition_time 0xf0-0xf4 (4)
0x0f0|            41 83 e4 c6                        |    A...        |      [50]: "2004-10-30T19:00:22Z" (1099162822) transition_time 0xf4-0xf8 (4)
0x0f0|                        42 45 b1 46            |        BE.F    |      [51]: "2005-03-26T19:00:22Z" (1111863622) transition_time 0xf8-0xfc (4)
0x0f0|                                    43 63 c6 c6|            Cc..|      [52]: "2005-10-29T19:00:22Z" (1130612422) transition_time 0xfc-0x100 (4)
0x100|44 25 93 47                                    |D%.G            |      [53]: "2006-03-25T19:00:23Z" (1143313223) transition_time 0x100-0x104 (4)
0x100|            45 43 a8 c7                        |    EC..        |      [54]: "2006-10-28T19:00:23Z" (1162062023) transition_time 0x104-0x108 (4)
0x100|                        46 05 75 47            |        F.uG    |      [55]: "2007-03-24T19:00:23Z" (1174762823) transition_time 0x108-0x10c (4)
0x100|                                    47 23 8a c7|            G#..|      [56]: "2007-10-27T19:00:23Z" (1193511623) transition_time 0x10c-0x110 (4)
0x110|47 ee 91 c7                                    |G...            |      [57]: "2008-03-29T19:00:23Z" (1206817223) transition_time 0x110-0x114 (4)
0x110|            49 03 6c c7                        |    I.l.        |      [58]: "2008-10-25T19:00:23Z" (1224961223) transition_time 0x114-0x118 (4)
0x110|                        49 ce 73 c8            |        I.s.    |      [59]: "2009-03-28T19:00:24Z" (1238266824) transition_time 0x118-0x11c (4)
0x110|                                    4a e3 4e c8|            J.N.|      [60]: "2009-10-24T19:00:24Z" (1256410824) transition_time 0x11c-0x120 (4)
0x120|4b ae 55 c8                                    |K.U.            |      [61]: "2010-03-27T19:00:24Z" (1269716424) transition_time 0x120-0x124 (4)
0x120|            4c cc 79 58                        |    L.yX        |      [62]: "2010-10-30T20:00:24Z" (1288468824) transition_time 0x124-0x128 (4)
0x120|                        4d 8e 45 d8            |        M.E.    |      [63]: "2011-03-26T20:00:24Z" (1301169624) transition_time 0x128-0x12c (4)
0x120|                                    64 9b 78 1b|            d.x.|      [64]: "2023-06-28T00:00:27Z" (1687910427) transition_time 0x12c-0x130 (4)
     |                                               |                |    transition_types[0:65]: 0x130-0x171 (65)
0x130|01                                             |.               |      [0]: 1 transition_type 0x130-0x131 (1)
0x130|   03                                          | .              |      [1]: 3 transition_type 0x131-0x132 (1)
0x130|      02                                       |  .             |      [2]: 2 transition_type 0x132-0x133 (1)
0x130|         03                                    |   .            |      [3]: 3 transition_type 0x133-0x134 (1)
0x130|            02                                 |    .           |      [4]: 2 transition_type 0x134-0x135 (1)
0x130|               03                              |     .          |      [5]: 3 transition_type 0x135-0x136 (1)
0x130|                  02                           |      .         |      [6]: 2 transition_type 0x136-0x137 (1)
0x130|                     03                        |       .        |      [7]: 3 transition_type 0x137-0x138 (1)
0x130|                        02                     |        .       |      [8]: 2 transition_type 0x138-0x139 (1)
0x130|                           04                  |         .      |      [9]: 4 transition_type 0x139-0x13a (1)
0x130|                              05               |          .     |      [10]: 5 transition_type 0x13a-0x13b (1)
0x130|                                 04            |           .    |      [11]: 4 transition_type 0x13b-0x13c (1)
0x130|                                    05         |            .   |      [12]: 5 transition_type 0x13c-0x13d (1)
0x130|                                       04      |             .  |      [13]: 4 transition_type 0x13d-0x13e (1)
0x130|                                          05   |              . |      [14]: 5 transition_type 0x13e-0x13f (1)
0x130|                                             04|               .|      [15]: 4 transition_type 0x13f-0x140 (1)
0x140|05                                             |.               |      [16]: 5 transition_type 0x140-0x141 (1)
0x140|   04                                          | .              |      [17]: 4 transition_type 0x141-0x142 (1)
0x140|      05                                       |  .             |      [18]: 5 transition_type 0x142-0x143 (1)
0x140|         04                                    |   .            |      [19]: 4 transition_type 0x143-0x144 (1)
0x140|            05                                 |    .           |      [20]: 5 transition_type 0x144-0x145 (1)
0x140|               04                              |     .          |      [21]: 4 transition_type 0x145-0x146 (1)
0x140|                  06                           |      .         |      [22]: 6 transition_type 0x146-0x147 (1)
0x140|                     07                        |       .        |      [23]: 7 transition_type 0x147-0x148 (1)
0x140|                        04                     |        .       |      [24]: 4 transition_type 0x148-0x149 (1)
0x140|                           05                  |         .      |      [25]: 5 transition_type 0x149-0x14a (1)
0x140|                              04               |          .     |      [26]: 4 transition_type 0x14a-0x14b (1)
0x140|                                 05            |           .    |      [27]: 5 transition_type 0x14b-0x14c (1)
0x140|                                    04         |            .   |      [28]: 4 transition_type 0x14c-0x14d (1)
0x140|                                       05      |             .  |      [29]: 5 transition_type 0x14d-0x14e (1)
0x140|                                          04   |              . |      [30]: 4 transition_type 0x14e-0x14f (1)
0x140|                                             05|               .|      [31]: 5 transition_type 0x14f-0x150 (1)
0x150|04                                             |.               |      [32]: 4 transition_type 0x150-0x151 (1)
0x150|   05                                          | .              |      [33]: 5 transition_type 0x151-0x152 (1)
0x150|      04                                       |  .             |      [34]: 4 transition_type 0x152-0x153 (1)
0x150|         05                                    |   .            |      [35]: 5 transition_type 0x153-0x154 (1)
0x150|            04                                 |    .           |      [36]: 4 transition_type 0x154-0x155 (1)
0x150|               05                              |     .          |      [37]: 5 transition_type 0x155-0x156 (1)
0x150|                  04                           |      .         |      [38]: 4 transition_type 0x156-0x157 (1)
0x150|                     05                        |       .        |      [39]: 5 transition_type 0x157-0x158 (1)
0x150|                        04                     |        .       |      [40]: 4 transition_type 0x158-0x159 (1)
0x150|                           05                  |         .      |      [41]: 5 transition_type 0x159-0x15a (1)
0x150|                              04               |          .     |      [42]: 4 transition_type 0x15a-0x15b (1)
0x150|                                 05            |           .    |      [43]: 5 transition_type 0x15b-0x15c (1)
0x150|                                    04         |            .   |      [44]: 4 transition_type 0x15c-0x15d (1)
0x150|                                       05      |             .  |      [45]: 5 transition_type 0x15d-0x15e (1)
0x150|                                          04   |              . |      [46]: 4 transition_type 0x15e-0x15f (1)
0x150|                                             05|               .|      [47]: 5 transition_type 0x15f-0x160 (1)
0x160|04                                             |.               |      [48]: 4 transition_type 0x160-0x161 (1)
0x160|   05                                          | .              |      [49]: 5 transition_type 0x161-0x162 (1)
0x160|      04                                       |  .             |      [50]: 4 transition_type 0x162-0x163 (1)
0x160|         05                                    |   .            |      [51]: 5 transition_type 0x163-0x164 (1)
0x160|            04                                 |    .           |      [52]: 4 transition_type 0x164-0x165 (1)
0x160|               05                              |     .          |      [53]: 5 transition_type 0x165-0x166 (1)
0x160|                  04                           |      .         |      [54]: 4 transition_type 0x166-0x167 (1)
0x160|                     05                        |       .        |      [55]: 5 transition_type 0x167-0x168 (1)
0x160|                        04                     |        .       |      [56]: 4 transition_type 0x168-0x169 (1)
0x160|                           05                  |         .      |      [57]: 5 transition_type 0x169-0x16a (1)
0x160|                              04               |          .     |      [58]: 4 transition_type 0x16a-0x16b (1)
0x160|                                 05            |           .    |      [59]: 5 transition_type 0x16b-0x16c (1)
0x160|                                    04         |            .   |      [60]: 4 transition_type 0x16c-0x16d (1)
0x160|                                       06      |             .  |      [61]: 6 transition_type 0x16d-0x16e (1)
0x160|                                          07   |              . |      [62]: 7 transition_type 0x16e-0x16f (1)
0x160|                                             04|               .|      [63]: 4 transition_type 0x16f-0x170 (1)
0x170|04                                             |.               |      [64]: 4 transition_type 0x170-0x171 (1)
     |                                               |                |    local_time_type_records[0:9]: 0x171-0x1a7 (54)
     |                                               |                |      [0]{}: local_time_type 0x171-0x177 (6)
0x170|   00 00 51 c0                                 | ..Q.           |        utoff: 20928 (valid) 0x171-0x175 (4)
0x170|               00                              |     .          |        dst: 0 (valid) 0x175-0x176 (1)
0x170|                  00                           |      .         |        idx: 0 (valid) 0x176-0x177 (1)
     |                                               |                |      [1]{}: local_time_type 0x177-0x17d (6)
0x170|                     00 00 54 60               |       ..T`     |        utoff: 21600 (valid) 0x177-0x17b (4)
0x170|                                 00            |           .    |        dst: 0 (valid) 0x17b-0x17c (1)
0x170|                                    04         |            .   |        idx: 4 (valid) 0x17c-0x17d (1)
     |                                               |                |      [2]{}: local_time_type 0x17d-0x183 (6)
0x170|                                       00 00 70|             ..p|        utoff: 28800 (valid) 0x17d-0x181 (4)
0x180|80                                             |.               |
0x180|   01                                          | .              |        dst: 1 (valid) 0x181-0x182 (1)
0x180|      08                                       |  .             |        idx: 8 (valid) 0x182-0x183 (1)
     |                                               |                |      [3]{}: local_time_type 0x183-0x189 (6)
0x180|         00 00 62 70                           |   ..bp         |        utoff: 25200 (valid) 0x183-0x187 (4)
0x180|                     00                        |       .        |        dst: 0 (valid) 0x187-0x188 (1)
0x180|                        0c                     |        .       |        idx: 12 (valid) 0x188-0x189 (1)
     |                                               |                |      [4]{}: local_time_type 0x189-0x18f (6)
0x180|                           00 00 62 70         |         ..bp   |        utoff: 25200 (valid) 0x189-0x18d (4)
0x180|                                       00      |             .  |        dst: 0 (valid) 0x18d-0x18e (1)
0x180|                                          0c   |              . |        idx: 12 (valid) 0x18e-0x18f (1)
     |                                               |                |      [5]{}: local_time_type 0x18f-0x195 (6)
0x180|                                             00|               .|        utoff: 28800 (valid) 0x18f-0x193 (4)
0x190|00 70 80                                       |.p.             |
0x190|         01                                    |   .            |        dst: 1 (valid) 0x193-0x194 (1)
0x190|            08                                 |    .           |        idx: 8 (valid) 0x194-0x195 (1)
     |                                               |                |      [6]{}: local_time_type 0x195-0x19b (6)
0x190|               00 00 62 70                     |     ..bp       |        utoff: 25200 (valid) 0x195-0x199 (4)
0x190|                           01                  |         .      |        dst: 1 (valid) 0x199-0x19a (1)
0x190|                              0c               |          .     |        idx: 12 (valid) 0x19a-0x19b (1)
     |                                               |                |      [7]{}: local_time_type 0x19b-0x1a1 (6)
0x190|                                 00 00 54 60   |           ..T` |        utoff: 21600 (valid) 0x19b-0x19f (4)
0x190|                                             00|               .|        dst: 0 (valid) 0x19f-0x1a0 (1)
0x1a0|04                                             |.               |        idx: 4 (valid) 0x1a0-0x1a1 (1)
     |                                               |                |      [8]{}: local_time_type 0x1a1-0x1a7 (6)
0x1a0|   00 00 62 70                                 | ..bp           |        utoff: 25200 (valid) 0x1a1-0x1a5 (4)
0x1a0|               00                              |     .          |        dst: 0 (valid) 0x1a5-0x1a6 (1)
0x1a0|                  0c                           |      .         |        idx: 12 (valid) 0x1a6-0x1a7 (1)
     |                                               |                |    time_zone_designations[0:4]: 0x1a7-0x1b7 (16)
0x1a0|                     4c 4d 54 00               |       LMT.     |      [0]: "LMT" time_zone_designation 0x1a7-0x1ab (4)
0x1a0|                                 2b 30 36 00   |           +06. |      [1]: "+06" time_zone_designation 0x1ab-0x1af (4)
0x1a0|                                             2b|               +|      [2]: "+08" time_zone_designation 0x1af-0x1b3 (4)
0x1b0|30 38 00                                       |08.             |
0x1b0|         2b 30 37 00                           |   +07.         |      [3]: "+07" time_zone_designation 0x1b3-0x1b7 (4)
     |                                               |                |    leap_second_records[0:27]: 0x1b7-0x28f (216)
     |                                               |                |      [0]{}: leap_second_record 0x1b7-0x1bf (8)
0x1b0|                     04 b2 58 00               |       ..X.     |        occur: "1972-07-01T00:00:00Z" (78796800) 0x1b7-0x1bb (4)
0x1b0|                                 00 00 00 01   |           .... |        corr: 1 0x1bb-0x1bf (4)
     |                                               |                |      [1]{}: leap_second_record 0x1bf-0x1c7 (8)
0x1b0|                                             05|               .|        occur: "1973-01-01T00:00:01Z" (94694401) 0x1bf-0x1c3 (4)
0x1c0|a4 ec 01                                       |...             |
0x1c0|         00 00 00 02                           |   ....         |        corr: 2 0x1c3-0x1c7 (4)
     |                                               |                |      [2]{}: leap_second_record 0x1c7-0x1cf (8)
0x1c0|                     07 86 1f 82               |       ....     |        occur: "1974-01-01T00:00:02Z" (126230402) 0x1c7-0x1cb (4)
0x1c0|                                 00 00 00 03   |           .... |        corr: 3 0x1cb-0x1cf (4)
     |                                               |                |      [3]{}: leap_second_record 0x1cf-0x1d7 (8)
0x1c0|                                             09|               .|        occur: "1975-01-01T00:00:03Z" (157766403) 0x1cf-0x1d3 (4)
0x1d0|67 53 03                                       |gS.             |
0x1d0|         00 00 00 04                           |   ....         |        corr: 4 0x1d3-0x1d7 (4)
     |                                               |                |      [4]{}: leap_second_record 0x1d7-0x1df (8)
0x1d0|                     0b 48 86 84               |       .H..     |        occur: "1976-01-01T00:00:04Z" (189302404) 0x1d7-0x1db (4)
0x1d0|                                 00 00 00 05   |           .... |        corr: 5 0x1db-0x1df (4)
     |                                               |                |      [5]{}: leap_second_record 0x1df-0x1e7 (8)
0x1d0|                                             0d|               .|        occur: "1977-01-01T00:00:05Z" (220924805) 0x1df-0x1e3 (4)
0x1e0|2b 0b 85                                       |+..             |
0x1e0|         00 00 00 06                           |   ....         |        corr: 6 0x1e3-0x1e7 (4)
     |                                               |                |      [6]{}: leap_second_record 0x1e7-0x1ef (8)
0x1e0|                     0f 0c 3f 06               |       ..?.     |        occur: "1978-01-01T00:00:06Z" (252460806) 0x1e7-0x1eb (4)
0x1e0|                                 00 00 00 07   |           .... |        corr: 7 0x1eb-0x1ef (4)
     |                                               |                |      [7]{}: leap_second_record 0x1ef-0x1f7 (8)
0x1e0|                                             10|               .|        occur: "1979-01-01T00:00:07Z" (283996807) 0x1ef-0x1f3 (4)
0x1f0|ed 72 87                                       |.r.             |
0x1f0|         00 00 00 08                           |   ....         |        corr: 8 0x1f3-0x1f7 (4)
     |                                               |                |      [8]{}: leap_second_record 0x1f7-0x1ff (8)
0x1f0|                     12 ce a6 08               |       ....     |        occur: "1980-01-01T00:00:08Z" (315532808) 0x1f7-0x1fb (4)
0x1f0|                                 00 00 00 09   |           .... |        corr: 9 0x1fb-0x1ff (4)
     |                                               |                |      [9]{}: leap_second_record 0x1ff-0x207 (8)
0x1f0|                                             15|               .|        occur: "1981-07-01T00:00:09Z" (362793609) 0x1ff-0x203 (4)
0x200|9f ca 89                                       |...             |
0x200|         00 00 00 0a                           |   ....         |        corr: 10 0x203-0x207 (4)
     |                                               |                |      [10]{}: leap_second_record 0x207-0x20f (8)
0x200|                     17 80 fe 0a               |       ....     |        occur: "1982-07-01T00:00:10Z" (394329610) 0x207-0x20b (4)
0x200|                                 00 00 00 0b   |           .... |        corr: 11 0x20b-0x20f (4)
     |                                               |                |      [11]{}: leap_second_record 0x20f-0x217 (8)
0x200|                                             19|               .|        occur: "1983-07-01T00:00:11Z" (425865611) 0x20f-0x213 (4)
0x210|62 31 8b                                       |b1.             |
0x210|         00 00 00 0c                           |   ....         |        corr: 12 0x213-0x217 (4)
     |                                               |                |      [12]{}: leap_second_record 0x217-0x21f (8)
0x210|                     1d 25 ea 0c               |       .%..     |        occur: "1985-07-01T00:00:12Z" (489024012) 0x217-0x21b (4)
0x210|                                 00 00 00 0d   |           .... |        corr: 13 0x21b-0x21f (4)
     |                                               |                |      [13]{}: leap_second_record 0x21f-0x227 (8)
0x210|                                             21|               !|        occur: "1988-01-01T00:00:13Z" (567993613) 0x21f-0x223 (4)
0x220|da e5 0d                                       |...             |
0x220|         00 00 00 0e                           |   ....         |        corr: 14 0x223-0x227 (4)
     |                                               |                |      [14]{}: leap_second_record 0x227-0x22f (8)
0x220|                     25 9e 9d 8e               |       %...     |        occur: "1990-01-01T00:00:14Z" (631152014) 0x227-0x22b (4)
0x220|                                 00 00 00 0f   |           .... |        corr: 15 0x22b-0x22f (4)
     |                                               |                |      [15]{}: leap_second_record 0x22f-0x237 (8)
0x220|                                             27|               '|        occur: "1991-01-01T00:00:15Z" (662688015) 0x22f-0x233 (4)
0x230|7f d1 0f                                       |...             |
0x230|         00 00 00 10                           |   ....         |        corr: 16 0x233-0x237 (4)
     |                                               |                |      [16]{}: leap_second_record 0x237-0x23f (8)
0x230|                     2a 50 f5 90               |       *P..     |        occur: "1992-07-01T00:00:16Z" (709948816) 0x237-0x23b (4)
0x230|                                 00 00 00 11   |           .... |        corr: 17 0x23b-0x23f (4)
     |                                               |                |      [17]{}: leap_second_record 0x23f-0x247 (8)
0x230|                                             2c|               ,|        occur: "1993-07-01T00:00:17Z" (741484817) 0x23f-0x243 (4)
0x240|32 29 11                                       |2).             |
0x240|         00 00 00 12                           |   ....         |        corr: 18 0x243-0x247 (4)
     |                                               |                |      [18]{}: leap_second_record 0x247-0x24f (8)
0x240|                     2e 13 5c 92               |       ..\.     |        occur: "1994-07-01T00:00:18Z" (773020818) 0x247-0x24b (4)
0x240|                                 00 00 00 13   |           .... |        corr: 19 0x24b-0x24f (4)
     |                                               |                |      [19]{}: leap_second_record 0x24f-0x257 (8)
0x240|                                             30|               0|        occur: "1996-01-01T00:00:19Z" (820454419) 0x24f-0x253 (4)
0x250|e7 24 13                                       |.$.             |
0x250|         00 00 00 14                           |   ....         |        corr: 20 0x253-0x257 (4)
     |                                               |                |      [20]{}: leap_second_record 0x257-0x25f (8)
0x250|                     33 b8 48 94               |       3.H.     |        occur: "1997-07-01T00:00:20Z" (867715220) 0x257-0x25b (4)
0x250|                                 00 00 00 15   |           .... |        corr: 21 0x25b-0x25f (4)
     |                                               |                |      [21]{}: leap_second_record 0x25f-0x267 (8)
0x250|                                             36|               6|        occur: "1999-01-01T00:00:21Z" (915148821) 0x25f-0x263 (4)
0x260|8c 10 15                                       |...             |
0x260|         00 00 00 16                           |   ....         |        corr: 22 0x263-0x267 (4)
     |                                               |                |      [22]{}: leap_second_record 0x267-0x26f (8)
0x260|                     43 b7 1b 96               |       C...     |        occur: "2006-01-01T00:00:22Z" (1136073622) 0x267-0x26b (4)
0x260|                                 00 00 00 17   |           .... |        corr: 23 0x26b-0x26f (4)
     |                                               |                |      [23]{}: leap_second_record 0x26f-0x277 (8)
0x260|                                             49|               I|        occur: "2009-01-01T00:00:23Z" (1230768023) 0x26f-0x273 (4)
0x270|5c 07 97                                       |\..             |
0x270|         00 00 00 18                           |   ....         |        corr: 24 0x273-0x277 (4)
     |                                               |                |      [24]{}: leap_second_record 0x277-0x27f (8)
0x270|                     4f ef 93 18               |       O...     |        occur: "2012-07-01T00:00:24Z" (1341100824) 0x277-0x27b (4)
0x270|                                 00 00 00 19   |           .... |        corr: 25 0x27b-0x27f (4)
     |                                               |                |      [25]{}: leap_second_record 0x27f-0x287 (8)
0x270|                                             55|               U|        occur: "2015-07-01T00:00:25Z" (1435708825) 0x27f-0x283 (4)
0x280|93 2d 99                                       |.-.             |
0x280|         00 00 00 1a                           |   ....         |        corr: 26 0x283-0x287 (4)
     |                                               |                |      [26]{}: leap_second_record 0x287-0x28f (8)
0x280|                     58 68 46 9a               |       XhF.     |        occur: "2017-01-01T00:00:26Z" (1483228826) 0x287-0x28b (4)
0x280|                                 00 00 00 1b   |           .... |        corr: 27 0x28b-0x28f (4)
     |                                               |                |    standard_wall_indicators[0:9]: 0x28f-0x298 (9)
0x280|                                             00|               .|      [0]: 0 standard_wall_indicator (valid) 0x28f-0x290 (1)
0x290|00                                             |.               |      [1]: 0 standard_wall_indicator (valid) 0x290-0x291 (1)
0x290|   00                                          | .              |      [2]: 0 standard_wall_indicator (valid) 0x291-0x292 (1)
0x290|      00                                       |  .             |      [3]: 0 standard_wall_indicator (valid) 0x292-0x293 (1)
0x290|         01                                    |   .            |      [4]: 1 standard_wall_indicator (valid) 0x293-0x294 (1)
0x290|            01                                 |    .           |      [5]: 1 standard_wall_indicator (valid) 0x294-0x295 (1)
0x290|               01                              |     .          |      [6]: 1 standard_wall_indicator (valid) 0x295-0x296 (1)
0x290|                  01                           |      .         |      [7]: 1 standard_wall_indicator (valid) 0x296-0x297 (1)
0x290|                     01                        |       .        |      [8]: 1 standard_wall_indicator (valid) 0x297-0x298 (1)
     |                                               |                |    ut_local_indicators[0:0]: 0x298-0x298 (0)
     |                                               |                |  v2plusheader{}: 0x298-0x2c4 (44)
0x290|                        54 5a 69 66            |        TZif    |    magic: 0x545a6966 (valid) 0x298-0x29c (4)
0x290|                                    32         |            2   |    ver: "2" (0x32) (valid) 0x29c-0x29d (1)
0x290|                                       00 00 00|             ...|    reserved: raw bits 0x29d-0x2ac (15)
0x2a0|00 00 00 00 00 00 00 00 00 00 00 00            |............    |
0x2a0|                                    00 00 00 00|            ....|    isutcnt: 0 0x2ac-0x2b0 (4)
0x2b0|00 00 00 09                                    |....            |    isstdcnt: 9 0x2b0-0x2b4 (4)
0x2b0|            00 00 00 1b                        |    ....        |    leapcnt: 27 0x2b4-0x2b8 (4)
0x2b0|                        00 00 00 41            |        ...A    |    timecnt: 65 0x2b8-0x2bc (4)
0x2b0|                                    00 00 00 09|            ....|    typecnt: 9 0x2bc-0x2c0 (4)
0x2c0|00 00 00 10                                    |....            |    charcnt: 16 0x2c0-0x2c4 (4)
     |                                               |                |  v2plusdatablock{}: 0x2c4-0x6a0 (988)
     |                                               |                |    transition_times[0:65]: 0x2c4-0x4cc (520)
0x2c0|            ff ff ff ff aa 18 20 c0            |    ...... .    |      [0]: "1924-04-30T18:11:12Z" (-1441259328) transition_time 0x2c4-0x2cc (8)
0x2c0|                                    ff ff ff ff|            ....|      [1]: "1930-06-20T18:00:00Z" (-1247551200) transition_time 0x2cc-0x2d4 (8)
0x2d0|b5 a3 e1 20                                    |...             |
0x2d0|            00 00 00 00 15 27 6f 99            |    .....'o.    |      [2]: "1981-03-31T17:00:09Z" (354906009) transition_time 0x2d4-0x2dc (8)
0x2d0|                                    00 00 00 00|            ....|      [3]: "1981-09-30T16:00:10Z" (370713610) transition_time 0x2dc-0x2e4 (8)
0x2e0|16 18 a4 0a                                    |....            |
0x2e0|            00 00 00 00 17 08 a3 1a            |    ........    |      [4]: "1982-03-31T17:00:10Z" (386442010) transition_time 0x2e4-0x2ec (8)
0x2e0|                                    00 00 00 00|            ....|      [5]: "1982-09-30T16:00:11Z" (402249611) transition_time 0x2ec-0x2f4 (8)
0x2f0|17 f9 d7 8b                                    |....            |
0x2f0|            00 00 00 00 18 e9 d6 9b            |    ........    |      [6]: "1983-03-31T17:00:11Z" (417978011) transition_time 0x2f4-0x2fc (8)
0x2f0|                                    00 00 00 00|            ....|      [7]: "1983-09-30T16:00:12Z" (433785612) transition_time 0x2fc-0x304 (8)
0x300|19 db 0b 0c                                    |....            |
0x300|            00 00 00 00 1a cc 5b 9c            |    ......[.    |      [8]: "1984-03-31T17:00:12Z" (449600412) transition_time 0x304-0x30c (8)
0x300|                                    00 00 00 00|            ....|      [9]: "1984-09-29T19:00:12Z" (465332412) transition_time 0x30c-0x314 (8)
0x310|1b bc 68 bc                                    |..h.            |
0x310|            00 00 00 00 1c ac 59 bc            |    ......Y.    |      [10]: "1985-03-30T19:00:12Z" (481057212) transition_time 0x314-0x31c (8)
0x310|                                    00 00 00 00|            ....|      [11]: "1985-09-28T19:00:13Z" (496782013) transition_time 0x31c-0x324 (8)
0x320|1d 9c 4a bd                                    |..J.            |
0x320|            00 00 00 00 1e 8c 3b bd            |    ......;.    |      [12]: "1986-03-29T19:00:13Z" (512506813) transition_time 0x324-0x32c (8)
0x320|                                    00 00 00 00|            ....|      [13]: "1986-09-27T19:00:13Z" (528231613) transition_time 0x32c-0x334 (8)
0x330|1f 7c 2c bd                                    |.|,.            |
0x330|            00 00 00 00 20 6c 1d bd            |    .... l..    |      [14]: "1987-03-28T19:00:13Z" (543956413) transition_time 0x334-0x33c (8)
0x330|                                    00 00 00 00|            ....|      [15]: "1987-09-26T19:00:13Z" (559681213) transition_time 0x33c-0x344 (8)
0x340|21 5c 0e bd                                    |!\..            |
0x340|            00 00 00 00 22 4b ff be            |    ...."K..    |      [16]: "1988-03-26T19:00:14Z" (575406014) transition_time 0x344-0x34c (8)
0x340|                                    00 00 00 00|            ....|      [17]: "1988-09-24T19:00:14Z" (591130814) transition_time 0x34c-0x354 (8)
0x350|23 3b f0 be                                    |#;..            |
0x350|            00 00 00 00 24 2b e1 be            |    ....$+..    |      [18]: "1989-03-25T19:00:14Z" (606855614) transition_time 0x354-0x35c (8)
0x350|                                    00 00 00 00|            ....|      [19]: "1989-09-23T19:00:14Z" (622580414) transition_time 0x35c-0x364 (8)
0x360|25 1b d2 be                                    |%...            |
0x360|            00 00 00 00 26 0b c3 bf            |    ....&...    |      [20]: "1990-03-24T19:00:15Z" (638305215) transition_time 0x364-0x36c (8)
0x360|                                    00 00 00 00|            ....|      [21]: "1990-09-29T19:00:15Z" (654634815) transition_time 0x36c-0x374 (8)
0x370|27 04 ef 3f                                    |'..?            |
0x370|            00 00 00 00 27 f4 e0 40            |    ....'..@    |      [22]: "1991-03-30T19:00:16Z" (670359616) transition_time 0x374-0x37c (8)
0x370|                                    00 00 00 00|            ....|      [23]: "1991-09-28T20:00:16Z" (686088016) transition_time 0x37c-0x384 (8)
0x380|28 e4 df 50                                    |(..P            |
0x380|            00 00 00 00 29 78 87 50            |    ....)x.P    |      [24]: "1992-01-18T20:00:16Z" (695764816) transition_time 0x384-0x38c (8)
0x380|                                    00 00 00 00|            ....|      [25]: "1992-03-28T19:00:16Z" (701809216) transition_time 0x38c-0x394 (8)
0x390|29 d4 c2 40                                    |)..@            |
0x390|            00 00 00 00 2a c4 b3 41            |    ....*..A    |      [26]: "1992-09-26T19:00:17Z" (717534017) transition_time 0x394-0x39c (8)
0x390|                                    00 00 00 00|            ....|      [27]: "1993-03-27T19:00:17Z" (733258817) transition_time 0x39c-0x3a4 (8)
0x3a0|2b b4 a4 41                                    |+..A            |
0x3a0|            00 00 00 00 2c a4 95 42            |    ....,..B    |      [28]: "1993-09-25T19:00:18Z" (748983618) transition_time 0x3a4-0x3ac (8)
0x3a0|                                    00 00 00 00|            ....|      [29]: "1994-03-26T19:00:18Z" (764708418) transition_time 0x3ac-0x3b4 (8)
0x3b0|2d 94 86 42                                    |-..B            |
0x3b0|            00 00 00 00 2e 84 77 43            |    ......wC    |      [30]: "1994-09-24T19:00:19Z" (780433219) transition_time 0x3b4-0x3bc (8)
0x3b0|                                    00 00 00 00|            ....|      [31]: "1995-03-25T19:00:19Z" (796158019) transition_time 0x3bc-0x3c4 (8)
0x3c0|2f 74 68 43                                    |/thC            |
0x3c0|            00 00 00 00 30 64 59 43            |    ....0dYC    |      [32]: "1995-09-23T19:00:19Z" (811882819) transition_time 0x3c4-0x3cc (8)
0x3c0|                                    00 00 00 00|            ....|      [33]: "1996-03-30T19:00:20Z" (828212420) transition_time 0x3cc-0x3d4 (8)
0x3d0|31 5d 84 c4                                    |1]..            |
0x3d0|            00 00 00 00 32 72 5f c4            |    ....2r_.    |      [34]: "1996-10-26T19:00:20Z" (846356420) transition_time 0x3d4-0x3dc (8)
0x3d0|                                    00 00 00 00|            ....|      [35]: "1997-03-29T19:00:20Z" (859662020) transition_time 0x3dc-0x3e4 (8)
0x3e0|33 3d 66 c4                                    |3=f.            |
0x3e0|            00 00 00 00 34 52 41 c5            |    ....4RA.    |      [36]: "1997-10-25T19:00:21Z" (877806021) transition_time 0x3e4-0x3ec (8)
0x3e0|                                    00 00 00 00|            ....|      [37]: "1998-03-28T19:00:21Z" (891111621) transition_time 0x3ec-0x3f4 (8)
0x3f0|35 1d 48 c5                                    |5.H.            |
0x3f0|            00 00 00 00 36 32 23 c5            |    ....62#.    |      [38]: "1998-10-24T19:00:21Z" (909255621) transition_time 0x3f4-0x3fc (8)
0x3f0|                                    00 00 00 00|            ....|      [39]: "1999-03-27T19:00:22Z" (922561222) transition_time 0x3fc-0x404 (8)
0x400|36 fd 2a c6                                    |6.*.            |
0x400|            00 00 00 00 38 1b 40 46            |    ....8.@F    |      [40]: "1999-10-30T19:00:22Z" (941310022) transition_time 0x404-0x40c (8)
0x400|                                    00 00 00 00|            ....|      [41]: "2000-03-25T19:00:22Z" (954010822) transition_time 0x40c-0x414 (8)
0x410|38 dd 0c c6                                    |8...            |
0x410|            00 00 00 00 39 fb 22 46            |    ....9."F    |      [42]: "2000-10-28T19:00:22Z" (972759622) transition_time 0x414-0x41c (8)
0x410|                                    00 00 00 00|            ....|      [43]: "2001-03-24T19:00:22Z" (985460422) transition_time 0x41c-0x424 (8)
0x420|3a bc ee c6                                    |:...            |
0x420|            00 00 00 00 3b db 04 46            |    ....;..F    |      [44]: "2001-10-27T19:00:22Z" (1004209222) transition_time 0x424-0x42c (8)
0x420|                                    00 00 00 00|            ....|      [45]: "2002-03-30T19:00:22Z" (1017514822) transition_time 0x42c-0x434 (8)
0x430|3c a6 0b 46                                    |<..F            |
0x430|            00 00 00 00 3d ba e6 46            |    ....=..F    |      [46]: "2002-10-26T19:00:22Z" (1035658822) transition_time 0x434-0x43c (8)
0x430|                                    00 00 00 00|            ....|      [47]: "2003-03-29T19:00:22Z" (1048964422) transition_time 0x43c-0x444 (8)
0x440|3e 85 ed 46                                    |>..F            |
0x440|            00 00 00 00 3f 9a c8 46            |    ....?..F    |      [48]: "2003-10-25T19:00:22Z" (1067108422) transition_time 0x444-0x44c (8)
0x440|                                    00 00 00 00|            ....|      [49]: "2004-03-27T19:00:22Z" (1080414022) transition_time 0x44c-0x454 (8)
0x450|40 65 cf 46                                    |@e.F            |
0x450|            00 00 00 00 41 83 e4 c6            |    ....A...    |      [50]: "2004-10-30T19:00:22Z" (1099162822) transition_time 0x454-0x45c (8)
0x450|                                    00 00 00 00|            ....|      [51]: "2005-03-26T19:00:22Z" (1111863622) transition_time 0x45c-0x464 (8)
0x460|42 45 b1 46                                    |BE.F            |
0x460|            00 00 00 00 43 63 c6 c6            |    ....Cc..    |      [52]: "2005-10-29T19:00:22Z" (1130612422) transition_time 0x464-0x46c (8)
0x460|                                    00 00 00 00|            ....|      [53]: "2006-03-25T19:00:23Z" (1143313223) transition_time 0x46c-0x474 (8)
0x470|44 25 93 47                                    |D%.G            |
0x470|            00 00 00 00 45 43 a8 c7            |    ....EC..    |      [54]: "2006-10-28T19:00:23Z" (1162062023) transition_time 0x474-0x47c (8)
0x470|                                    00 00 00 00|            ....|      [55]: "2007-03-24T19:00:23Z" (1174762823) transition_time 0x47c-0x484 (8)
0x480|46 05 75 47                                    |F.uG            |
0x480|            00 00 00 00 47 23 8a c7            |    ....G#..    |      [56]: "2007-10-27T19:00:23Z" (1193511623) transition_time 0x484-0x48c (8)
0x480|                                    00 00 00 00|            ....|      [57]: "2008-03-29T19:00:23Z" (1206817223) transition_time 0x48c-0x494 (8)
0x490|47 ee 91 c7                                    |G...            |
0x490|            00 00 00 00 49 03 6c c7            |    ....I.l.    |      [58]: "2008-10-25T19:00:23Z" (1224961223) transition_time 0x494-0x49c (8)
0x490|                                    00 00 00 00|            ....|      [59]: "2009-03-28T19:00:24Z" (1238266824) transition_time 0x49c-0x4a4 (8)
0x4a0|49 ce 73 c8                                    |I.s.            |
0x4a0|            00 00 00 00 4a e3 4e c8            |    ....J.N.    |      [60]: "2009-10-24T19:00:24Z" (1256410824) transition_time 0x4a4-0x4ac (8)
0x4a0|                                    00 00 00 00|            ....|      [61]: "2010-03-27T19:00:24Z" (1269716424) transition_time 0x4ac-0x4b4 (8)
0x4b0|4b ae 55 c8                                    |K.U.            |
0x4b0|            00 00 00 00 4c cc 79 58            |    ....L.yX    |      [62]: "2010-10-30T20:00:24Z" (1288468824) transition_time 0x4b4-0x4bc (8)
0x4b0|                                    00 00 00 00|            ....|      [63]: "2011-03-26T20:00:24Z" (1301169624) transition_time 0x4bc-0x4c4 (8)
0x4c0|4d 8e 45 d8                                    |M.E.            |
0x4c0|            00 00 00 00 64 9b 78 1b            |    ....d.x.    |      [64]: "2023-06-28T00:00:27Z" (1687910427) transition_time 0x4c4-0x4cc (8)
     |                                               |                |    transition_types[0:65]: 0x4cc-0x50d (65)
0x4c0|                                    01         |            .   |      [0]: 1 transition_type 0x4cc-0x4cd (1)
0x4c0|                                       03      |             .  |      [1]: 3 transition_type 0x4cd-0x4ce (1)
0x4c0|                                          02   |              . |      [2]: 2 transition_type 0x4ce-0x4cf (1)
0x4c0|                                             03|               .|      [3]: 3 transition_type 0x4cf-0x4d0 (1)
0x4d0|02                                             |.               |      [4]: 2 transition_type 0x4d0-0x4d1 (1)
0x4d0|   03                                          | .              |      [5]: 3 transition_type 0x4d1-0x4d2 (1)
0x4d0|      02                                       |  .             |      [6]: 2 transition_type 0x4d2-0x4d3 (1)
0x4d0|         03                                    |   .            |      [7]: 3 transition_type 0x4d3-0x4d4 (1)
0x4d0|            02                                 |    .           |      [8]: 2 transition_type 0x4d4-0x4d5 (1)
0x4d0|               04                              |     .          |      [9]: 4 transition_type 0x4d5-0x4d6 (1)
0x4d0|                  05                           |      .         |      [10]: 5 transition_type 0x4d6-0x4d7 (1)
0x4d0|                     04                        |       .        |      [11]: 4 transition_type 0x4d7-0x4d8 (1)
0x4d0|                        05                     |        .       |      [12]: 5 transition_type 0x4d8-0x4d9 (1)
0x4d0|                           04                  |         .      |      [13]: 4 transition_type 0x4d9-0x4da (1)
0x4d0|                              05               |          .     |      [14]: 5 transition_type 0x4da-0x4db (1)
0x4d0|                                 04            |           .    |      [15]: 4 transition_type 0x4db-0x4dc (1)
0x4d0|                                    05         |            .   |      [16]: 5 transition_type 0x4dc-0x4dd (1)
0x4d0|                                       04      |             .  |      [17]: 4 transition_type 0x4dd-0x4de (1)
0x4d0|                                          05   |              . |      [18]: 5 transition_type 0x4de-0x4df (1)
0x4d0|                                             04|               .|      [19]: 4 transition_type 0x4df-0x4e0 (1)
0x4e0|05                                             |.               |      [20]: 5 transition_type 0x4e0-0x4e1 (1)
0x4e0|   04                                          | .              |      [21]: 4 transition_type 0x4e1-0x4e2 (1)
0x4e0|      06                                       |  .             |      [22]: 6 transition_type 0x4e2-0x4e3 (1)
0x4e0|         07                                    |   .            |      [23]: 7 transition_type 0x4e3-0x4e4 (1)
0x4e0|            04                                 |    .           |      [24]: 4 transition_type 0x4e4-0x4e5 (1)
0x4e0|               05                              |     .          |      [25]: 5 transition_type 0x4e5-0x4e6 (1)
0x4e0|                  04                           |      .         |      [26]: 4 transition_type 0x4e6-0x4e7 (1)
0x4e0|                     05                        |       .        |      [27]: 5 transition_type 0x4e7-0x4e8 (1)
0x4e0|                        04                     |        .       |      [28]: 4 transition_type 0x4e8-0x4e9 (1)
0x4e0|                           05                  |         .      |      [29]: 5 transition_type 0x4e9-0x4ea (1)
0x4e0|                              04               |          .     |      [30]: 4 transition_type 0x4ea-0x4eb (1)
0x4e0|                                 05            |           .    |      [31]: 5 transition_type 0x4eb-0x4ec (1)
0x4e0|                                    04         |            .   |      [32]: 4 transition_type 0x4ec-0x4ed (1)
0x4e0|                                       05      |             .  |      [33]: 5 transition_type 0x4ed-0x4ee (1)
0x4e0|                                          04   |              . |      [34]: 4 transition_type 0x4ee-0x4ef (1)
0x4e0|                                             05|               .|      [35]: 5 transition_type 0x4ef-0x4f0 (1)
0x4f0|04                                             |.               |      [36]: 4 transition_type 0x4f0-0x4f1 (1)
0x4f0|   05                                          | .              |      [37]: 5 transition_type 0x4f1-0x4f2 (1)
0x4f0|      04                                       |  .             |      [38]: 4 transition_type 0x4f2-0x4f3 (1)
0x4f0|         05                                    |   .            |      [39]: 5 transition_type 0x4f3-0x4f4 (1)
0x4f0|            04                                 |    .           |      [40]: 4 transition_type 0x4f4-0x4f5 (1)
0x4f0|               05                              |     .          |      [41]: 5 transition_type 0x4f5-0x4f6 (1)
0x4f0|                  04                           |      .         |      [42]: 4 transition_type 0x4f6-0x4f7 (1)
0x4f0|                     05                        |       .        |      [43]: 5 transition_type 0x4f7-0x4f8 (1)
0x4f0|                        04                     |        .       |      [44]: 4 transition_type 0x4f8-0x4f9 (1)
0x4f0|                           05                  |         .      |      [45]: 5 transition_type 0x4f9-0x4fa (1)
0x4f0|                              04               |          .     |      [46]: 4 transition_type 0x4fa-0x4fb (1)
0x4f0|                                 05            |           .    |      [47]: 5 transition_type 0x4fb-0x4fc (1)
0x4f0|                                    04         |            .   |      [48]: 4 transition_type 0x4fc-0x4fd (1)
0x4f0|                                       05      |             .  |      [49]: 5 transition_type 0x4fd-0x4fe (1)
0x4f0|                                          04   |              . |      [50]: 4 transition_type 0x4fe-0x4ff (1)
0x4f0|                                             05|               .|      [51]: 5 transition_type 0x4ff-0x500 (1)
0x500|04                                             |.               |      [52]: 4 transition_type 0x500-0x501 (1)
0x500|   05                                          | .              |      [53]: 5 transition_type 0x501-0x502 (1)
0x500|      04                                       |  .             |      [54]: 4 transition_type 0x502-0x503 (1)
0x500|         05                                    |   .            |      [55]: 5 transition_type 0x503-0x504 (1)
0x500|            04                                 |    .           |      [56]: 4 transition_type 0x504-0x505 (1)
0x500|               05                              |     .          |      [57]: 5 transition_type 0x505-0x506 (1)
0x500|                  04                           |      .         |      [58]: 4 transition_type 0x506-0x507 (1)
0x500|                     05                        |       .        |      [59]: 5 transition_type 0x507-0x508 (1)
0x500|                        04                     |        .       |      [60]: 4 transition_type 0x508-0x509 (1)
0x500|                           06                  |         .      |      [61]: 6 transition_type 0x509-0x50a (1)
0x500|                              07               |          .     |      [62]: 7 transition_type 0x50a-0x50b (1)
0x500|                                 04            |           .    |      [63]: 4 transition_type 0x50b-0x50c (1)
0x500|                                    04         |            .   |      [64]: 4 transition_type 0x50c-0x50d (1)
     |                                               |                |    local_time_type_records[0:9]: 0x50d-0x543 (54)
     |                                               |                |      [0]{}: local_time_type 0x50d-0x513 (6)
0x500|                                       00 00 51|             ..Q|        utoff: 20928 (valid) 0x50d-0x511 (4)
0x510|c0                                             |.               |
0x510|   00                                          | .              |        dst: 0 (valid) 0x511-0x512 (1)
0x510|      00                                       |  .             |        idx: 0 (valid) 0x512-0x513 (1)
     |                                               |                |      [1]{}: local_time_type 0x513-0x519 (6)
0x510|         00 00 54 60                           |   ..T`         |        utoff: 21600 (valid) 0x513-0x517 (4)
0x510|                     00                        |       .        |        dst: 0 (valid) 0x517-0x518 (1)
0x510|                        04                     |        .       |        idx: 4 (valid) 0x518-0x519 (1)
     |                                               |                |      [2]{}: local_time_type 0x519-0x51f (6)
0x510|                           00 00 70 80         |         ..p.   |        utoff: 28800 (valid) 0x519-0x51d (4)
0x510|                                       01      |             .  |        dst: 1 (valid) 0x51d-0x51e (1)
0x510|                                          08   |              . |        idx: 8 (valid) 0x51e-0x51f (1)
     |                                               |                |      [3]{}: local_time_type 0x51f-0x525 (6)
0x510|                                             00|               .|        utoff: 25200 (valid) 0x51f-0x523 (4)
0x520|00 62 70                                       |.bp             |
0x520|         00                                    |   .            |        dst: 0 (valid) 0x523-0x524 (1)
0x520|            0c                                 |    .           |        idx: 12 (valid) 0x524-0x525 (1)
     |                                               |                |      [4]{}: local_time_type 0x525-0x52b (6)
0x520|               00 00 62 70                     |     ..bp       |        utoff: 25200 (valid) 0x525-0x529 (4)
0x520|                           00                  |         .      |        dst: 0 (valid) 0x529-0x52a (1)
0x520|                              0c               |          .     |        idx: 12 (valid) 0x52a-0x52b (1)
     |                                               |                |      [5]{}: local_time_type 0x52b-0x531 (6)
0x520|                                 00 00 70 80   |           ..p. |        utoff: 28800 (valid) 0x52b-0x52f (4)
0x520|                                             01|               .|        dst: 1 (valid) 0x52f-0x530 (1)
0x530|08                                             |.               |        idx: 8 (valid) 0x530-0x531 (1)
     |                                               |                |      [6]{}: local_time_type 0x531-0x537 (6)
0x530|   00 00 62 70                                 | ..bp           |        utoff: 25200 (valid) 0x531-0x535 (4)
0x530|               01                              |     .          |        dst: 1 (valid) 0x535-0x536 (1)
0x530|                  0c                           |      .         |        idx: 12 (valid) 0x536-0x537 (1)
     |                                               |                |      [7]{}: local_time_type 0x537-0x53d (6)
0x530|                     00 00 54 60               |       ..T`     |        utoff: 21600 (valid) 0x537-0x53b (4)
0x530|                                 00            |           .    |        dst: 0 (valid) 0x53b-0x53c (1)
0x530|                                    04         |            .   |        idx: 4 (valid) 0x53c-0x53d (1)
     |                                               |                |      [8]{}: local_time_type 0x53d-0x543 (6)
0x530|                                       00 00 62|             ..b|        utoff: 25200 (valid) 0x53d-0x541 (4)
0x540|70                                             |p               |
0x540|   00                                          | .              |        dst: 0 (valid) 0x541-0x542 (1)
0x540|      0c                                       |  .             |        idx: 12 (valid) 0x542-0x543 (1)
     |                                               |                |    time_zone_designations[0:4]: 0x543-0x553 (16)
0x540|         4c 4d 54 00                           |   LMT.         |      [0]: "LMT" time_zone_designation 0x543-0x547 (4)
0x540|                     2b 30 36 00               |       +06.     |      [1]: "+06" time_zone_designation 0x547-0x54b (4)
0x540|                                 2b 30 38 00   |           +08. |      [2]: "+08" time_zone_designation 0x54b-0x54f (4)
0x540|                                             2b|               +|      [3]: "+07" time_zone_designation 0x54f-0x553 (4)
0x550|30 37 00                                       |07.             |
     |                                               |                |    leap_second_records[0:27]: 0x553-0x697 (324)
     |                                               |                |      [0]{}: leap_second_record 0x553-0x55f (12)
0x550|         00 00 00 00 04 b2 58 00               |   ......X.     |        occur: "1972-07-01T00:00:00Z" (78796800) 0x553-0x55b (8)
0x550|                                 00 00 00 01   |           .... |        corr: 1 0x55b-0x55f (4)
     |                                               |                |      [1]{}: leap_second_record 0x55f-0x56b (12)
0x550|                                             00|               .|        occur: "1973-01-01T00:00:01Z" (94694401) 0x55f-0x567 (8)
0x560|00 00 00 05 a4 ec 01                           |.......         |
0x560|                     00 00 00 02               |       ....     |        corr: 2 0x567-0x56b (4)
     |                                               |                |      [2]{}: leap_second_record 0x56b-0x577 (12)
0x560|                                 00 00 00 00 07|           .....|        occur: "1974-01-01T00:00:02Z" (126230402) 0x56b-0x573 (8)
0x570|86 1f 82                                       |...             |
0x570|         00 00 00 03                           |   ....         |        corr: 3 0x573-0x577 (4)
     |                                               |                |      [3]{}: leap_second_record 0x577-0x583 (12)
0x570|                     00 00 00 00 09 67 53 03   |       .....gS. |        occur: "1975-01-01T00:00:03Z" (157766403) 0x577-0x57f (8)
0x570|                                             00|               .|        corr: 4 0x57f-0x583 (4)
0x580|00 00 04                                       |...             |
     |                                               |                |      [4]{}: leap_second_record 0x583-0x58f (12)
0x580|         00 00 00 00 0b 48 86 84               |   .....H..     |        occur: "1976-01-01T00:00:04Z" (189302404) 0x583-0x58b (8)
0x580|                                 00 00 00 05   |           .... |        corr: 5 0x58b-0x58f (4)
     |                                               |                |      [5]{}: leap_second_record 0x58f-0x59b (12)
0x580|                                             00|               .|        occur: "1977-01-01T00:00:05Z" (220924805) 0x58f-0x597 (8)
0x590|00 00 00 0d 2b 0b 85                           |....+..         |
0x590|                     00 00 00 06               |       ....     |        corr: 6 0x597-0x59b (4)
     |                                               |                |      [6]{}: leap_second_record 0x59b-0x5a7 (12)
0x590|                                 00 00 00 00 0f|           .....|        occur: "1978-01-01T00:00:06Z" (252460806) 0x59b-0x5a3 (8)
0x5a0|0c 3f 06                                       |.?.             |
0x5a0|         00 00 00 07                           |   ....         |        corr: 7 0x5a3-0x5a7 (4)
     |                                               |                |      [7]{}: leap_second_record 0x5a7-0x5b3 (12)
0x5a0|                     00 00 00 00 10 ed 72 87   |       ......r. |        occur: "1979-01-01T00:00:07Z" (283996807) 0x5a7-0x5af (8)
0x5a0|                                             00|               .|        corr: 8 0x5af-0x5b3 (4)
0x5b0|00 00 08                                       |...             |
     |                                               |                |      [8]{}: leap_second_record 0x5b3-0x5bf (12)
0x5b0|         00 00 00 00 12 ce a6 08               |   ........     |        occur: "1980-01-01T00:00:08Z" (315532808) 0x5b3-0x5bb (8)
0x5b0|                                 00 00 00 09   |           .... |        corr: 9 0x5bb-0x5bf (4)
     |                                               |                |      [9]{}: leap_second_record 0x5bf-0x5cb (12)
0x5b0|                                             00|               .|        occur: "1981-07-01T00:00:09Z" (362793609) 0x5bf-0x5c7 (8)
0x5c0|00 00 00 15 9f ca 89                           |.......         |
0x5c0|                     00 00 00 0a               |       ....     |        corr: 10 0x5c7-0x5cb (4)
     |                                               |                |      [10]{}: leap_second_record 0x5cb-0x5d7 (12)
0x5c0|                                 00 00 00 00 17|           .....|        occur: "1982-07-01T00:00:10Z" (394329610) 0x5cb-0x5d3 (8)
0x5d0|80 fe 0a                                       |...             |
0x5d0|         00 00 00 0b                           |   ....         |        corr: 11 0x5d3-0x5d7 (4)
     |                                               |                |      [11]{}: leap_second_record 0x5d7-0x5e3 (12)
0x5d0|                     00 00 00 00 19 62 31 8b   |       .....b1. |        occur: "1983-07-01T00:00:11Z" (425865611) 0x5d7-0x5df (8)
0x5d0|                                             00|               .|        corr: 12 0x5df-0x5e3 (4)
0x5e0|00 00 0c                                       |...             |
     |                                               |                |      [12]{}: leap_second_record 0x5e3-0x5ef (12)
0x5e0|         00 00 00 00 1d 25 ea 0c               |   .....%..     |        occur: "1985-07-01T00:00:12Z" (489024012) 0x5e3-0x5eb (8)
0x5e0|                                 00 00 00 0d   |           .... |        corr: 13 0x5eb-0x5ef (4)
     |                                               |                |      [13]{}: leap_second_record 0x5ef-0x5fb (12)
0x5e0|                                             00|               .|        occur: "1988-01-01T00:00:13Z" (567993613) 0x5ef-0x5f7 (8)
0x5f0|00 00 00 21 da e5 0d                           |...!...         |
0x5f0|                     00 00 00 0e               |       ....     |        corr: 14 0x5f7-0x5fb (4)
     |                                               |                |      [14]{}: leap_second_record 0x5fb-0x607 (12)
0x5f0|                                 00 00 00 00 25|           ....%|        occur: "1990-01-01T00:00:14Z" (631152014) 0x5fb-0x603 (8)
0x600|9e 9d 8e                                       |...             |
0x600|         00 00 00 0f                           |   ....         |        corr: 15 0x603-0x607 (4)
     |                                               |                |      [15]{}: leap_second_record 0x607-0x613 (12)
0x600|                     00 00 00 00 27 7f d1 0f   |       ....'... |        occur: "1991-01-01T00:00:15Z" (662688015) 0x607-0x60f (8)
0x600|                                             00|               .|        corr: 16 0x60f-0x613 (4)
0x610|00 00 10                                       |...             |
     |                                               |                |      [16]{}: leap_second_record 0x613-0x61f (12)
0x610|         00 00 00 00 2a 50 f5 90               |   ....*P..     |        occur: "1992-07-01T00:00:16Z" (709948816) 0x613-0x61b (8)
0x610|                                 00 00 00 11   |           .... |        corr: 17 0x61b-0x61f (4)
     |                                               |                |      [17]{}: leap_second_record 0x61f-0x62b (12)
0x610|                                             00|               .|        occur: "1993-07-01T00:00:17Z" (741484817) 0x61f-0x627 (8)
0x620|00 00 00 2c 32 29 11                           |...,2).         |
0x620|                     00 00 00 12               |       ....     |        corr: 18 0x627-0x62b (4)
     |                                               |                |      [18]{}: leap_second_record 0x62b-0x637 (12)
0x620|                                 00 00 00 00 2e|           .....|        occur: "1994-07-01T00:00:18Z" (773020818) 0x62b-0x633 (8)
0x630|13 5c 92                                       |.\.             |
0x630|         00 00 00 13                           |   ....         |        corr: 19 0x633-0x637 (4)
     |                                               |                |      [19]{}: leap_second_record 0x637-0x643 (12)
0x630|                     00 00 00 00 30 e7 24 13   |       ....0.$. |        occur: "1996-01-01T00:00:19Z" (820454419) 0x637-0x63f (8)
0x630|                                             00|               .|        corr: 20 0x63f-0x643 (4)
0x640|00 00 14                                       |...             |
     |                                               |                |      [20]{}: leap_second_record 0x643-0x64f (12)
0x640|         00 00 00 00 33 b8 48 94               |   ....3.H.     |        occur: "1997-07-01T00:00:20Z" (867715220) 0x643-0x64b (8)
0x640|                                 00 00 00 15   |           .... |        corr: 21 0x64b-0x64f (4)
     |                                               |                |      [21]{}: leap_second_record 0x64f-0x65b (12)
0x640|                                             00|               .|        occur: "1999-01-01T00:00:21Z" (915148821) 0x64f-0x657 (8)
0x650|00 00 00 36 8c 10 15                           |...6...         |
0x650|                     00 00 00 16               |       ....     |        corr: 22 0x657-0x65b (4)
     |                                               |                |      [22]{}: leap_second_record 0x65b-0x667 (12)
0x650|                                 00 00 00 00 43|           ....C|        occur: "2006-01-01T00:00:22Z" (1136073622) 0x65b-0x663 (8)
0x660|b7 1b 96                                       |...             |
0x660|         00 00 00 17                           |   ....         |        corr: 23 0x663-0x667 (4)
     |                                               |                |      [23]{}: leap_second_record 0x667-0x673 (12)
0x660|                     00 00 00 00 49 5c 07 97   |       ....I\.. |        occur: "2009-01-01T00:00:23Z" (1230768023) 0x667-0x66f (8)
0x660|                                             00|               .|        corr: 24 0x66f-0x673 (4)
0x670|00 00 18                                       |...             |
     |                                               |                |      [24]{}: leap_second_record 0x673-0x67f (12)
0x670|         00 00 00 00 4f ef 93 18               |   ....O...     |        occur: "2012-07-01T00:00:24Z" (1341100824) 0x673-0x67b (8)
0x670|                                 00 00 00 19   |           .... |        corr: 25 0x67b-0x67f (4)
     |                                               |                |      [25]{}: leap_second_record 0x67f-0x68b (12)
0x670|                                             00|               .|        occur: "2015-07-01T00:00:25Z" (1435708825) 0x67f-0x687 (8)
0x680|00 00 00 55 93 2d 99                           |...U.-.         |
0x680|                     00 00 00 1a               |       ....     |        corr: 26 0x687-0x68b (4)
     |                                               |                |      [26]{}: leap_second_record 0x68b-0x697 (12)
0x680|                                 00 00 00 00 58|           ....X|        occur: "2017-01-01T00:00:26Z" (1483228826) 0x68b-0x693 (8)
0x690|68 46 9a                                       |hF.             |
0x690|         00 00 00 1b                           |   ....         |        corr: 27 0x693-0x697 (4)
     |                                               |                |    standard_wall_indicators[0:9]: 0x697-0x6a0 (9)
0x690|                     00                        |       .        |      [0]: 0 standard_wall_indicator (valid) 0x697-0x698 (1)
0x690|                        00                     |        .       |      [1]: 0 standard_wall_indicator (valid) 0x698-0x699 (1)
0x690|                           00                  |         .      |      [2]: 0 standard_wall_indicator (valid) 0x699-0x69a (1)
0x690|                              00               |          .     |      [3]: 0 standard_wall_indicator (valid) 0x69a-0x69b (1)
0x690|                                 01            |           .    |      [4]: 1 standard_wall_indicator (valid) 0x69b-0x69c (1)
0x690|                                    01         |            .   |      [5]: 1 standard_wall_indicator (valid) 0x69c-0x69d (1)
0x690|                                       01      |             .  |      [6]: 1 standard_wall_indicator (valid) 0x69d-0x69e (1)
0x690|                                          01   |              . |      [7]: 1 standard_wall_indicator (valid) 0x69e-0x69f (1)
0x690|                                             01|               .|      [8]: 1 standard_wall_indicator (valid) 0x69f-0x6a0 (1)
     |                                               |                |    ut_local_indicators[0:0]: 0x6a0-0x6a0 (0)
     |                                               |                |  footer{}: 0x6a0-0x6a2 (2)
0x6a0|0a                                             |.               |    nl1: 10 (valid) 0x6a0-0x6a1 (1)
     |                                               |                |    tz_string: "" 0x6a1-0x6a1 (0)
0x6a0|   0a|                                         | .|             |    nl2: 10 (valid) 0x6a1-0x6a2 (1)
