$ fq -d tzif dv Nuuk
     |00 01 02 03 04 05 06 07 08 09 0a 0b 0c 0d 0e 0f|0123456789abcdef|.{}: Nuuk (tzif) 0x0-0x7bc (1980)
     |                                               |                |  v1header{}: 0x0-0x2c (44)
0x000|54 5a 69 66                                    |TZif            |    magic: 0x545a6966 (valid) 0x0-0x4 (4)
0x000|            32                                 |    2           |    ver: "2" (0x32) (valid) 0x4-0x5 (1)
0x000|               00 00 00 00 00 00 00 00 00 00 00|     ...........|    reserved: raw bits 0x5-0x14 (15)
0x010|00 00 00 00                                    |....            |
0x010|            00 00 00 05                        |    ....        |    isutcnt: 5 0x14-0x18 (4)
0x010|                        00 00 00 05            |        ....    |    isstdcnt: 5 0x18-0x1c (4)
0x010|                                    00 00 00 1b|            ....|    leapcnt: 27 0x1c-0x20 (4)
0x020|00 00 00 59                                    |...Y            |    timecnt: 89 0x20-0x24 (4)
0x020|            00 00 00 05                        |    ....        |    typecnt: 5 0x24-0x28 (4)
0x020|                        00 00 00 0c            |        ....    |    charcnt: 12 0x28-0x2c (4)
     |                                               |                |  v1datablock{}: 0x2c-0x2f5 (713)
     |                                               |                |    transition_times[0:89]: 0x2c-0x190 (356)
0x020|                                    9b 80 68 00|            ..h.|      [0]: "1916-07-28T03:26:56Z" (-1686083584) transition_time 0x2c-0x30 (4)
0x030|13 4d 7c 59                                    |.M|Y            |      [1]: "1980-04-06T05:00:09Z" (323845209) transition_time 0x30-0x34 (4)
0x030|            14 33 fa 99                        |    .3..        |      [2]: "1980-09-28T01:00:09Z" (338950809) transition_time 0x34-0x38 (4)
0x030|                        15 23 eb 99            |        .#..    |      [3]: "1981-03-29T01:00:09Z" (354675609) transition_time 0x38-0x3c (4)
0x030|                                    16 13 dc 9a|            ....|      [4]: "1981-09-27T01:00:10Z" (370400410) transition_time 0x3c-0x40 (4)
0x040|17 03 cd 9a                                    |....            |      [5]: "1982-03-28T01:00:10Z" (386125210) transition_time 0x40-0x44 (4)
0x040|            17 f3 be 9b                        |    ....        |      [6]: "1982-09-26T01:00:11Z" (401850011) transition_time 0x44-0x48 (4)
0x040|                        18 e3 af 9b            |        ....    |      [7]: "1983-03-27T01:00:11Z" (417574811) transition_time 0x48-0x4c (4)
0x040|                                    19 d3 a0 9c|            ....|      [8]: "1983-09-25T01:00:12Z" (433299612) transition_time 0x4c-0x50 (4)
0x050|1a c3 91 9c                                    |....            |      [9]: "1984-03-25T01:00:12Z" (449024412) transition_time 0x50-0x54 (4)
0x050|            1b bc bd 1c                        |    ....        |      [10]: "1984-09-30T01:00:12Z" (465354012) transition_time 0x54-0x58 (4)
0x050|                        1c ac ae 1c            |        ....    |      [11]: "1985-03-31T01:00:12Z" (481078812) transition_time 0x58-0x5c (4)
0x050|                                    1d 9c 9f 1d|            ....|      [12]: "1985-09-29T01:00:13Z" (496803613) transition_time 0x5c-0x60 (4)
0x060|1e 8c 90 1d                                    |....            |      [13]: "1986-03-30T01:00:13Z" (512528413) transition_time 0x60-0x64 (4)
0x060|            1f 7c 81 1d                        |    .|..        |      [14]: "1986-09-28T01:00:13Z" (528253213) transition_time 0x64-0x68 (4)
0x060|                        20 6c 72 1d            |         lr.    |      [15]: "1987-03-29T01:00:13Z" (543978013) transition_time 0x68-0x6c (4)
0x060|                                    21 5c 63 1d|            !\c.|      [16]: "1987-09-27T01:00:13Z" (559702813) transition_time 0x6c-0x70 (4)
0x070|22 4c 54 1e                                    |"LT.            |      [17]: "1988-03-27T01:00:14Z" (575427614) transition_time 0x70-0x74 (4)
0x070|            23 3c 45 1e                        |    #<E.        |      [18]: "1988-09-25T01:00:14Z" (591152414) transition_time 0x74-0x78 (4)
0x070|                        24 2c 36 1e            |        $,6.    |      [19]: "1989-03-26T01:00:14Z" (606877214) transition_time 0x78-0x7c (4)
0x070|                                    25 1c 27 1e|            %.'.|      [20]: "1989-09-24T01:00:14Z" (622602014) transition_time 0x7c-0x80 (4)
0x080|26 0c 18 1f                                    |&...            |      [21]: "1990-03-25T01:00:15Z" (638326815) transition_time 0x80-0x84 (4)
0x080|            27 05 43 9f                        |    '.C.        |      [22]: "1990-09-30T01:00:15Z" (654656415) transition_time 0x84-0x88 (4)
0x080|                        27 f5 34 a0            |        '.4.    |      [23]: "1991-03-31T01:00:16Z" (670381216) transition_time 0x88-0x8c (4)
0x080|                                    28 e5 25 a0|            (.%.|      [24]: "1991-09-29T01:00:16Z" (686106016) transition_time 0x8c-0x90 (4)
0x090|29 d5 16 a0                                    |)...            |      [25]: "1992-03-29T01:00:16Z" (701830816) transition_time 0x90-0x94 (4)
0x090|            2a c5 07 a1                        |    *...        |      [26]: "1992-09-27T01:00:17Z" (717555617) transition_time 0x94-0x98 (4)
0x090|                        2b b4 f8 a1            |        +...    |      [27]: "1993-03-28T01:00:17Z" (733280417) transition_time 0x98-0x9c (4)
0x090|                                    2c a4 e9 a2|            ,...|      [28]: "1993-09-26T01:00:18Z" (749005218) transition_time 0x9c-0xa0 (4)
0x0a0|2d 94 da a2                                    |-...            |      [29]: "1994-03-27T01:00:18Z" (764730018) transition_time 0xa0-0xa4 (4)
0x0a0|            2e 84 cb a3                        |    ....        |      [30]: "1994-09-25T01:00:19Z" (780454819) transition_time 0xa4-0xa8 (4)
0x0a0|                        2f 74 bc a3            |        /t..    |      [31]: "1995-03-26T01:00:19Z" (796179619) transition_time 0xa8-0xac (4)
0x0a0|                                    30 64 ad a3|            0d..|      [32]: "1995-09-24T01:00:19Z" (811904419) transition_time 0xac-0xb0 (4)
0x0b0|31 5d d9 24                                    |1].$            |      [33]: "1996-03-31T01:00:20Z" (828234020) transition_time 0xb0-0xb4 (4)
0x0b0|            32 72 b4 24                        |    2r.$        |      [34]: "1996-10-27T01:00:20Z" (846378020) transition_time 0xb4-0xb8 (4)
0x0b0|                        33 3d bb 24            |        3=.$    |      [35]: "1997-03-30T01:00:20Z" (859683620) transition_time 0xb8-0xbc (4)
0x0b0|                                    34 52 96 25|            4R.%|      [36]: "1997-10-26T01:00:21Z" (877827621) transition_time 0xbc-0xc0 (4)
0x0c0|35 1d 9d 25                                    |5..%            |      [37]: "1998-03-29T01:00:21Z" (891133221) transition_time 0xc0-0xc4 (4)
0x0c0|            36 32 78 25                        |    62x%        |      [38]: "1998-10-25T01:00:21Z" (909277221) transition_time 0xc4-0xc8 (4)
0x0c0|                        36 fd 7f 26            |        6..&    |      [39]: "1999-03-28T01:00:22Z" (922582822) transition_time 0xc8-0xcc (4)
0x0c0|                                    38 1b 94 a6|            8...|      [40]: "1999-10-31T01:00:22Z" (941331622) transition_time 0xcc-0xd0 (4)
0x0d0|38 dd 61 26                                    |8.a&            |      [41]: "2000-03-26T01:00:22Z" (954032422) transition_time 0xd0-0xd4 (4)
0x0d0|            39 fb 76 a6                        |    9.v.        |      [42]: "2000-10-29T01:00:22Z" (972781222) transition_time 0xd4-0xd8 (4)
0x0d0|                        3a bd 43 26            |        :.C&    |      [43]: "2001-03-25T01:00:22Z" (985482022) transition_time 0xd8-0xdc (4)
0x0d0|                                    3b db 58 a6|            ;.X.|      [44]: "2001-10-28T01:00:22Z" (1004230822) transition_time 0xdc-0xe0 (4)
0x0e0|3c a6 5f a6                                    |<._.            |      [45]: "2002-03-31T01:00:22Z" (1017536422) transition_time 0xe0-0xe4 (4)
0x0e0|            3d bb 3a a6                        |    =.:.        |      [46]: "2002-10-27T01:00:22Z" (1035680422) transition_time 0xe4-0xe8 (4)
0x0e0|                        3e 86 41 a6            |        >.A.    |      [47]: "2003-03-30T01:00:22Z" (1048986022) transition_time 0xe8-0xec (4)
0x0e0|                                    3f 9b 1c a6|            ?...|      [48]: "2003-10-26T01:00:22Z" (1067130022) transition_time 0xec-0xf0 (4)
0x0f0|40 66 23 a6                                    |@f#.            |      [49]: "2004-03-28T01:00:22Z" (1080435622) transition_time 0xf0-0xf4 (4)
0x0f0|            41 84 39 26                        |    A.9&        |      [50]: "2004-10-31T01:00:22Z" (1099184422) transition_time 0xf4-0xf8 (4)
0x0f0|                        42 46 05 a6            |        BF..    |      [51]: "2005-03-27T01:00:22Z" (1111885222) transition_time 0xf8-0xfc (4)
0x0f0|                                    43 64 1b 26|            Cd.&|      [52]: "2005-10-30T01:00:22Z" (1130634022) transition_time 0xfc-0x100 (4)
0x100|44 25 e7 a7                                    |D%..            |      [53]: "2006-03-26T01:00:23Z" (1143334823) transition_time 0x100-0x104 (4)
0x100|            45 43 fd 27                        |    EC.'        |      [54]: "2006-10-29T01:00:23Z" (1162083623) transition_time 0x104-0x108 (4)
0x100|                        46 05 c9 a7            |        F...    |      [55]: "2007-03-25T01:00:23Z" (1174784423) transition_time 0x108-0x10c (4)
0x100|                                    47 23 df 27|            G#.'|      [56]: "2007-10-28T01:00:23Z" (1193533223) transition_time 0x10c-0x110 (4)
0x110|47 ee e6 27                                    |G..'            |      [57]: "2008-03-30T01:00:23Z" (1206838823) transition_time 0x110-0x114 (4)
0x110|            49 03 c1 27                        |    I..'        |      [58]: "2008-10-26T01:00:23Z" (1224982823) transition_time 0x114-0x118 (4)
0x110|                        49 ce c8 28            |        I..(    |      [59]: "2009-03-29T01:00:24Z" (1238288424) transition_time 0x118-0x11c (4)
0x110|                                    4a e3 a3 28|            J..(|      [60]: "2009-10-25T01:00:24Z" (1256432424) transition_time 0x11c-0x120 (4)
0x120|4b ae aa 28                                    |K..(            |      [61]: "2010-03-28T01:00:24Z" (1269738024) transition_time 0x120-0x124 (4)
0x120|            4c cc bf a8                        |    L...        |      [62]: "2010-10-31T01:00:24Z" (1288486824) transition_time 0x124-0x128 (4)
0x120|                        4d 8e 8c 28            |        M..(    |      [63]: "2011-03-27T01:00:24Z" (1301187624) transition_time 0x128-0x12c (4)
0x120|                                    4e ac a1 a8|            N...|      [64]: "2011-10-30T01:00:24Z" (1319936424) transition_time 0x12c-0x130 (4)
0x130|4f 6e 6e 28                                    |Onn(            |      [65]: "2012-03-25T01:00:24Z" (1332637224) transition_time 0x130-0x134 (4)
0x130|            50 8c 83 a9                        |    P...        |      [66]: "2012-10-28T01:00:25Z" (1351386025) transition_time 0x134-0x138 (4)
0x130|                        51 57 8a a9            |        QW..    |      [67]: "2013-03-31T01:00:25Z" (1364691625) transition_time 0x138-0x13c (4)
0x130|                                    52 6c 65 a9|            Rle.|      [68]: "2013-10-27T01:00:25Z" (1382835625) transition_time 0x13c-0x140 (4)
0x140|53 37 6c a9                                    |S7l.            |      [69]: "2014-03-30T01:00:25Z" (1396141225) transition_time 0x140-0x144 (4)
0x140|            54 4c 47 a9                        |    TLG.        |      [70]: "2014-10-26T01:00:25Z" (1414285225) transition_time 0x144-0x148 (4)
0x140|                        55 17 4e a9            |        U.N.    |      [71]: "2015-03-29T01:00:25Z" (1427590825) transition_time 0x148-0x14c (4)
0x140|                                    56 2c 29 aa|            V,).|      [72]: "2015-10-25T01:00:26Z" (1445734826) transition_time 0x14c-0x150 (4)
0x150|56 f7 30 aa                                    |V.0.            |      [73]: "2016-03-27T01:00:26Z" (1459040426) transition_time 0x150-0x154 (4)
0x150|            58 15 46 2a                        |    X.F*        |      [74]: "2016-10-30T01:00:26Z" (1477789226) transition_time 0x154-0x158 (4)
0x150|                        58 d7 12 ab            |        X...    |      [75]: "2017-03-26T01:00:27Z" (1490490027) transition_time 0x158-0x15c (4)
0x150|                                    59 f5 28 2b|            Y.(+|      [76]: "2017-10-29T01:00:27Z" (1509238827) transition_time 0x15c-0x160 (4)
0x160|5a b6 f4 ab                                    |Z...            |      [77]: "2018-03-25T01:00:27Z" (1521939627) transition_time 0x160-0x164 (4)
0x160|            5b d5 0a 2b                        |    [..+        |      [78]: "2018-10-28T01:00:27Z" (1540688427) transition_time 0x164-0x168 (4)
0x160|                        5c a0 11 2b            |        \..+    |      [79]: "2019-03-31T01:00:27Z" (1553994027) transition_time 0x168-0x16c (4)
0x160|                                    5d b4 ec 2b|            ]..+|      [80]: "2019-10-27T01:00:27Z" (1572138027) transition_time 0x16c-0x170 (4)
0x170|5e 7f f3 2b                                    |^..+            |      [81]: "2020-03-29T01:00:27Z" (1585443627) transition_time 0x170-0x174 (4)
0x170|            5f 94 ce 2b                        |    _..+        |      [82]: "2020-10-25T01:00:27Z" (1603587627) transition_time 0x174-0x178 (4)
0x170|                        60 5f d5 2b            |        `_.+    |      [83]: "2021-03-28T01:00:27Z" (1616893227) transition_time 0x178-0x17c (4)
0x170|                                    61 7d ea ab|            a}..|      [84]: "2021-10-31T01:00:27Z" (1635642027) transition_time 0x17c-0x180 (4)
0x180|62 3f b7 2b                                    |b?.+            |      [85]: "2022-03-27T01:00:27Z" (1648342827) transition_time 0x180-0x184 (4)
0x180|            63 5d cc ab                        |    c]..        |      [86]: "2022-10-30T01:00:27Z" (1667091627) transition_time 0x184-0x188 (4)
0x180|                        64 1f 99 2b            |        d..+    |      [87]: "2023-03-26T01:00:27Z" (1679792427) transition_time 0x188-0x18c (4)
0x180|                                    64 9b 78 1b|            d.x.|      [88]: "2023-06-28T00:00:27Z" (1687910427) transition_time 0x18c-0x190 (4)
     |                                               |                |    transition_types[0:89]: 0x190-0x1e9 (89)
0x190|01                                             |.               |      [0]: 1 transition_type 0x190-0x191 (1)
0x190|   04                                          | .              |      [1]: 4 transition_type 0x191-0x192 (1)
0x190|      02                                       |  .             |      [2]: 2 transition_type 0x192-0x193 (1)
0x190|         03                                    |   .            |      [3]: 3 transition_type 0x193-0x194 (1)
0x190|            02                                 |    .           |      [4]: 2 transition_type 0x194-0x195 (1)
0x190|               03                              |     .          |      [5]: 3 transition_type 0x195-0x196 (1)
0x190|                  02                           |      .         |      [6]: 2 transition_type 0x196-0x197 (1)
0x190|                     03                        |       .        |      [7]: 3 transition_type 0x197-0x198 (1)
0x190|                        02                     |        .       |      [8]: 2 transition_type 0x198-0x199 (1)
0x190|                           03                  |         .      |      [9]: 3 transition_type 0x199-0x19a (1)
0x190|                              02               |          .     |      [10]: 2 transition_type 0x19a-0x19b (1)
0x190|                                 03            |           .    |      [11]: 3 transition_type 0x19b-0x19c (1)
0x190|                                    02         |            .   |      [12]: 2 transition_type 0x19c-0x19d (1)
0x190|                                       03      |             .  |      [13]: 3 transition_type 0x19d-0x19e (1)
0x190|                                          02   |              . |      [14]: 2 transition_type 0x19e-0x19f (1)
0x190|                                             03|               .|      [15]: 3 transition_type 0x19f-0x1a0 (1)
0x1a0|02                                             |.               |      [16]: 2 transition_type 0x1a0-0x1a1 (1)
0x1a0|   03                                          | .              |      [17]: 3 transition_type 0x1a1-0x1a2 (1)
0x1a0|      02                                       |  .             |      [18]: 2 transition_type 0x1a2-0x1a3 (1)
0x1a0|         03                                    |   .            |      [19]: 3 transition_type 0x1a3-0x1a4 (1)
0x1a0|            02                                 |    .           |      [20]: 2 transition_type 0x1a4-0x1a5 (1)
0x1a0|               03                              |     .          |      [21]: 3 transition_type 0x1a5-0x1a6 (1)
0x1a0|                  02                           |      .         |      [22]: 2 transition_type 0x1a6-0x1a7 (1)
0x1a0|                     03                        |       .        |      [23]: 3 transition_type 0x1a7-0x1a8 (1)
0x1a0|                        02                     |        .       |      [24]: 2 transition_type 0x1a8-0x1a9 (1)
0x1a0|                           03                  |         .      |      [25]: 3 transition_type 0x1a9-0x1aa (1)
0x1a0|                              02               |          .     |      [26]: 2 transition_type 0x1aa-0x1ab (1)
0x1a0|                                 03            |           .    |      [27]: 3 transition_type 0x1ab-0x1ac (1)
0x1a0|                                    02         |            .   |      [28]: 2 transition_type 0x1ac-0x1ad (1)
0x1a0|                                       03      |             .  |      [29]: 3 transition_type 0x1ad-0x1ae (1)
0x1a0|                                          02   |              . |      [30]: 2 transition_type 0x1ae-0x1af (1)
0x1a0|                                             03|               .|      [31]: 3 transition_type 0x1af-0x1b0 (1)
0x1b0|02                                             |.               |      [32]: 2 transition_type 0x1b0-0x1b1 (1)
0x1b0|   03                                          | .              |      [33]: 3 transition_type 0x1b1-0x1b2 (1)
0x1b0|      02                                       |  .             |      [34]: 2 transition_type 0x1b2-0x1b3 (1)
0x1b0|         03                                    |   .            |      [35]: 3 transition_type 0x1b3-0x1b4 (1)
0x1b0|            02                                 |    .           |      [36]: 2 transition_type 0x1b4-0x1b5 (1)
0x1b0|               03                              |     .          |      [37]: 3 transition_type 0x1b5-0x1b6 (1)
0x1b0|                  02                           |      .         |      [38]: 2 transition_type 0x1b6-0x1b7 (1)
0x1b0|                     03                        |       .        |      [39]: 3 transition_type 0x1b7-0x1b8 (1)
0x1b0|                        02                     |        .       |      [40]: 2 transition_type 0x1b8-0x1b9 (1)
0x1b0|                           03                  |         .      |      [41]: 3 transition_type 0x1b9-0x1ba (1)
0x1b0|                              02               |          .     |      [42]: 2 transition_type 0x1ba-0x1bb (1)
0x1b0|                                 03            |           .    |      [43]: 3 transition_type 0x1bb-0x1bc (1)
0x1b0|                                    02         |            .   |      [44]: 2 transition_type 0x1bc-0x1bd (1)
0x1b0|                                       03      |             .  |      [45]: 3 transition_type 0x1bd-0x1be (1)
0x1b0|                                          02   |              . |      [46]: 2 transition_type 0x1be-0x1bf (1)
0x1b0|                                             03|               .|      [47]: 3 transition_type 0x1bf-0x1c0 (1)
0x1c0|02                                             |.               |      [48]: 2 transition_type 0x1c0-0x1c1 (1)
0x1c0|   03                                          | .              |      [49]: 3 transition_type 0x1c1-0x1c2 (1)
0x1c0|      02                                       |  .             |      [50]: 2 transition_type 0x1c2-0x1c3 (1)
0x1c0|         03                                    |   .            |      [51]: 3 transition_type 0x1c3-0x1c4 (1)
0x1c0|            02                                 |    .           |      [52]: 2 transition_type 0x1c4-0x1c5 (1)
0x1c0|               03                              |     .          |      [53]: 3 transition_type 0x1c5-0x1c6 (1)
0x1c0|                  02                           |      .         |      [54]: 2 transition_type 0x1c6-0x1c7 (1)
0x1c0|                     03                        |       .        |      [55]: 3 transition_type 0x1c7-0x1c8 (1)
0x1c0|                        02                     |        .       |      [56]: 2 transition_type 0x1c8-0x1c9 (1)
0x1c0|                           03                  |         .      |      [57]: 3 transition_type 0x1c9-0x1ca (1)
0x1c0|                              02               |          .     |      [58]: 2 transition_type 0x1ca-0x1cb (1)
0x1c0|                                 03            |           .    |      [59]: 3 transition_type 0x1cb-0x1cc (1)
0x1c0|                                    02         |            .   |      [60]: 2 transition_type 0x1cc-0x1cd (1)
0x1c0|                                       03      |             .  |      [61]: 3 transition_type 0x1cd-0x1ce (1)
0x1c0|                                          02   |              . |      [62]: 2 transition_type 0x1ce-0x1cf (1)
0x1c0|                                             03|               .|      [63]: 3 transition_type 0x1cf-0x1d0 (1)
0x1d0|02                                             |.               |      [64]: 2 transition_type 0x1d0-0x1d1 (1)
0x1d0|   03                                          | .              |      [65]: 3 transition_type 0x1d1-0x1d2 (1)
0x1d0|      02                                       |  .             |      [66]: 2 transition_type 0x1d2-0x1d3 (1)
0x1d0|         03                                    |   .            |      [67]: 3 transition_type 0x1d3-0x1d4 (1)
0x1d0|            02                                 |    .           |      [68]: 2 transition_type 0x1d4-0x1d5 (1)
0x1d0|               03                              |     .          |      [69]: 3 transition_type 0x1d5-0x1d6 (1)
0x1d0|                  02                           |      .         |      [70]: 2 transition_type 0x1d6-0x1d7 (1)
0x1d0|                     03                        |       .        |      [71]: 3 transition_type 0x1d7-0x1d8 (1)
0x1d0|                        02                     |        .       |      [72]: 2 transition_type 0x1d8-0x1d9 (1)
0x1d0|                           03                  |         .      |      [73]: 3 transition_type 0x1d9-0x1da (1)
0x1d0|                              02               |          .     |      [74]: 2 transition_type 0x1da-0x1db (1)
0x1d0|                                 03            |           .    |      [75]: 3 transition_type 0x1db-0x1dc (1)
0x1d0|                                    02         |            .   |      [76]: 2 transition_type 0x1dc-0x1dd (1)
0x1d0|                                       03      |             .  |      [77]: 3 transition_type 0x1dd-0x1de (1)
0x1d0|                                          02   |              . |      [78]: 2 transition_type 0x1de-0x1df (1)
0x1d0|                                             03|               .|      [79]: 3 transition_type 0x1df-0x1e0 (1)
0x1e0|02                                             |.               |      [80]: 2 transition_type 0x1e0-0x1e1 (1)
0x1e0|   03                                          | .              |      [81]: 3 transition_type 0x1e1-0x1e2 (1)
0x1e0|      02                                       |  .             |      [82]: 2 transition_type 0x1e2-0x1e3 (1)
0x1e0|         03                                    |   .            |      [83]: 3 transition_type 0x1e3-0x1e4 (1)
0x1e0|            02                                 |    .           |      [84]: 2 transition_type 0x1e4-0x1e5 (1)
0x1e0|               03                              |     .          |      [85]: 3 transition_type 0x1e5-0x1e6 (1)
0x1e0|                  02                           |      .         |      [86]: 2 transition_type 0x1e6-0x1e7 (1)
0x1e0|                     03                        |       .        |      [87]: 3 transition_type 0x1e7-0x1e8 (1)
0x1e0|                        03                     |        .       |      [88]: 3 transition_type 0x1e8-0x1e9 (1)
     |                                               |                |    local_time_type_records[0:5]: 0x1e9-0x207 (30)
     |                                               |                |      [0]{}: local_time_type 0x1e9-0x1ef (6)
0x1e0|                           ff ff cf 80         |         ....   |        utoff: -12416 (valid) 0x1e9-0x1ed (4)
0x1e0|                                       00      |             .  |        dst: 0 (valid) 0x1ed-0x1ee (1)
0x1e0|                                          00   |              . |        idx: 0 (valid) 0x1ee-0x1ef (1)
     |                                               |                |      [1]{}: local_time_type 0x1ef-0x1f5 (6)
0x1e0|                                             ff|               .|        utoff: -10800 (valid) 0x1ef-0x1f3 (4)
0x1f0|ff d5 d0                                       |...             |
0x1f0|         00                                    |   .            |        dst: 0 (valid) 0x1f3-0x1f4 (1)
0x1f0|            04                                 |    .           |        idx: 4 (valid) 0x1f4-0x1f5 (1)
     |                                               |                |      [2]{}: local_time_type 0x1f5-0x1fb (6)
0x1f0|               ff ff d5 d0                     |     ....       |        utoff: -10800 (valid) 0x1f5-0x1f9 (4)
0x1f0|                           00                  |         .      |        dst: 0 (valid) 0x1f9-0x1fa (1)
0x1f0|                              04               |          .     |        idx: 4 (valid) 0x1fa-0x1fb (1)
     |                                               |                |      [3]{}: local_time_type 0x1fb-0x201 (6)
0x1f0|                                 ff ff e3 e0   |           .... |        utoff: -7200 (valid) 0x1fb-0x1ff (4)
0x1f0|                                             01|               .|        dst: 1 (valid) 0x1ff-0x200 (1)
0x200|08                                             |.               |        idx: 8 (valid) 0x200-0x201 (1)
     |                                               |                |      [4]{}: local_time_type 0x201-0x207 (6)
0x200|   ff ff e3 e0                                 | ....           |        utoff: -7200 (valid) 0x201-0x205 (4)
0x200|               01                              |     .          |        dst: 1 (valid) 0x205-0x206 (1)
0x200|                  08                           |      .         |        idx: 8 (valid) 0x206-0x207 (1)
     |                                               |                |    time_zone_designations[0:3]: 0x207-0x213 (12)
0x200|                     4c 4d 54 00               |       LMT.     |      [0]: "LMT" time_zone_designation 0x207-0x20b (4)
0x200|                                 2d 30 33 00   |           -03. |      [1]: "-03" time_zone_designation 0x20b-0x20f (4)
0x200|                                             2d|               -|      [2]: "-02" time_zone_designation 0x20f-0x213 (4)
0x210|30 32 00                                       |02.             |
     |                                               |                |    leap_second_records[0:27]: 0x213-0x2eb (216)
     |                                               |                |      [0]{}: leap_second_record 0x213-0x21b (8)
0x210|         04 b2 58 00                           |   ..X.         |        occur: "1972-07-01T00:00:00Z" (78796800) 0x213-0x217 (4)
0x210|                     00 00 00 01               |       ....     |        corr: 1 0x217-0x21b (4)
     |                                               |                |      [1]{}: leap_second_record 0x21b-0x223 (8)
0x210|                                 05 a4 ec 01   |           .... |        occur: "1973-01-01T00:00:01Z" (94694401) 0x21b-0x21f (4)
0x210|                                             00|               .|        corr: 2 0x21f-0x223 (4)
0x220|00 00 02                                       |...             |
     |                                               |                |      [2]{}: leap_second_record 0x223-0x22b (8)
0x220|         07 86 1f 82                           |   ....         |        occur: "1974-01-01T00:00:02Z" (126230402) 0x223-0x227 (4)
0x220|                     00 00 00 03               |       ....     |        corr: 3 0x227-0x22b (4)
     |                                               |                |      [3]{}: leap_second_record 0x22b-0x233 (8)
0x220|                                 09 67 53 03   |           .gS. |        occur: "1975-01-01T00:00:03Z" (157766403) 0x22b-0x22f (4)
0x220|                                             00|               .|        corr: 4 0x22f-0x233 (4)
0x230|00 00 04                                       |...             |
     |                                               |                |      [4]{}: leap_second_record 0x233-0x23b (8)
0x230|         0b 48 86 84                           |   .H..         |        occur: "1976-01-01T00:00:04Z" (189302404) 0x233-0x237 (4)
0x230|                     00 00 00 05               |       ....     |        corr: 5 0x237-0x23b (4)
     |                                               |                |      [5]{}: leap_second_record 0x23b-0x243 (8)
0x230|                                 0d 2b 0b 85   |           .+.. |        occur: "1977-01-01T00:00:05Z" (220924805) 0x23b-0x23f (4)
0x230|                                             00|               .|        corr: 6 0x23f-0x243 (4)
0x240|00 00 06                                       |...             |
     |                                               |                |      [6]{}: leap_second_record 0x243-0x24b (8)
0x240|         0f 0c 3f 06                           |   ..?.         |        occur: "1978-01-01T00:00:06Z" (252460806) 0x243-0x247 (4)
0x240|                     00 00 00 07               |       ....     |        corr: 7 0x247-0x24b (4)
     |                                               |                |      [7]{}: leap_second_record 0x24b-0x253 (8)
0x240|                                 10 ed 72 87   |           ..r. |        occur: "1979-01-01T00:00:07Z" (283996807) 0x24b-0x24f (4)
0x240|                                             00|               .|        corr: 8 0x24f-0x253 (4)
0x250|00 00 08                                       |...             |
     |                                               |                |      [8]{}: leap_second_record 0x253-0x25b (8)
0x250|         12 ce a6 08                           |   ....         |        occur: "1980-01-01T00:00:08Z" (315532808) 0x253-0x257 (4)
0x250|                     00 00 00 09               |       ....     |        corr: 9 0x257-0x25b (4)
     |                                               |                |      [9]{}: leap_second_record 0x25b-0x263 (8)
0x250|                                 15 9f ca 89   |           .... |        occur: "1981-07-01T00:00:09Z" (362793609) 0x25b-0x25f (4)
0x250|                                             00|               .|        corr: 10 0x25f-0x263 (4)
0x260|00 00 0a                                       |...             |
     |                                               |                |      [10]{}: leap_second_record 0x263-0x26b (8)
0x260|         17 80 fe 0a                           |   ....         |        occur: "1982-07-01T00:00:10Z" (394329610) 0x263-0x267 (4)
0x260|                     00 00 00 0b               |       ....     |        corr: 11 0x267-0x26b (4)
     |                                               |                |      [11]{}: leap_second_record 0x26b-0x273 (8)
0x260|                                 19 62 31 8b   |           .b1. |        occur: "1983-07-01T00:00:11Z" (425865611) 0x26b-0x26f (4)
0x260|                                             00|               .|        corr: 12 0x26f-0x273 (4)
0x270|00 00 0c                                       |...             |
     |                                               |                |      [12]{}: leap_second_record 0x273-0x27b (8)
0x270|         1d 25 ea 0c                           |   .%..         |        occur: "1985-07-01T00:00:12Z" (489024012) 0x273-0x277 (4)
0x270|                     00 00 00 0d               |       ....     |        corr: 13 0x277-0x27b (4)
     |                                               |                |      [13]{}: leap_second_record 0x27b-0x283 (8)
0x270|                                 21 da e5 0d   |           !... |        occur: "1988-01-01T00:00:13Z" (567993613) 0x27b-0x27f (4)
0x270|                                             00|               .|        corr: 14 0x27f-0x283 (4)
0x280|00 00 0e                                       |...             |
     |                                               |                |      [14]{}: leap_second_record 0x283-0x28b (8)
0x280|         25 9e 9d 8e                           |   %...         |        occur: "1990-01-01T00:00:14Z" (631152014) 0x283-0x287 (4)
0x280|                     00 00 00 0f               |       ....     |        corr: 15 0x287-0x28b (4)
     |                                               |                |      [15]{}: leap_second_record 0x28b-0x293 (8)
0x280|                                 27 7f d1 0f   |           '... |        occur: "1991-01-01T00:00:15Z" (662688015) 0x28b-0x28f (4)
0x280|                                             00|               .|        corr: 16 0x28f-0x293 (4)
0x290|00 00 10                                       |...             |
     |                                               |                |      [16]{}: leap_second_record 0x293-0x29b (8)
0x290|         2a 50 f5 90                           |   *P..         |        occur: "1992-07-01T00:00:16Z" (709948816) 0x293-0x297 (4)
0x290|                     00 00 00 11               |       ....     |        corr: 17 0x297-0x29b (4)
     |                                               |                |      [17]{}: leap_second_record 0x29b-0x2a3 (8)
0x290|                                 2c 32 29 11   |           ,2). |        occur: "1993-07-01T00:00:17Z" (741484817) 0x29b-0x29f (4)
0x290|                                             00|               .|        corr: 18 0x29f-0x2a3 (4)
0x2a0|00 00 12                                       |...             |
     |                                               |                |      [18]{}: leap_second_record 0x2a3-0x2ab (8)
0x2a0|         2e 13 5c 92                           |   ..\.         |        occur: "1994-07-01T00:00:18Z" (773020818) 0x2a3-0x2a7 (4)
0x2a0|                     00 00 00 13               |       ....     |        corr: 19 0x2a7-0x2ab (4)
     |                                               |                |      [19]{}: leap_second_record 0x2ab-0x2b3 (8)
0x2a0|                                 30 e7 24 13   |           0.$. |        occur: "1996-01-01T00:00:19Z" (820454419) 0x2ab-0x2af (4)
0x2a0|                                             00|               .|        corr: 20 0x2af-0x2b3 (4)
0x2b0|00 00 14                                       |...             |
     |                                               |                |      [20]{}: leap_second_record 0x2b3-0x2bb (8)
0x2b0|         33 b8 48 94                           |   3.H.         |        occur: "1997-07-01T00:00:20Z" (867715220) 0x2b3-0x2b7 (4)
0x2b0|                     00 00 00 15               |       ....     |        corr: 21 0x2b7-0x2bb (4)
     |                                               |                |      [21]{}: leap_second_record 0x2bb-0x2c3 (8)
0x2b0|                                 36 8c 10 15   |           6... |        occur: "1999-01-01T00:00:21Z" (915148821) 0x2bb-0x2bf (4)
0x2b0|                                             00|               .|        corr: 22 0x2bf-0x2c3 (4)
0x2c0|00 00 16                                       |...             |
     |                                               |                |      [22]{}: leap_second_record 0x2c3-0x2cb (8)
0x2c0|         43 b7 1b 96                           |   C...         |        occur: "2006-01-01T00:00:22Z" (1136073622) 0x2c3-0x2c7 (4)
0x2c0|                     00 00 00 17               |       ....     |        corr: 23 0x2c7-0x2cb (4)
     |                                               |                |      [23]{}: leap_second_record 0x2cb-0x2d3 (8)
0x2c0|                                 49 5c 07 97   |           I\.. |        occur: "2009-01-01T00:00:23Z" (1230768023) 0x2cb-0x2cf (4)
0x2c0|                                             00|               .|        corr: 24 0x2cf-0x2d3 (4)
0x2d0|00 00 18                                       |...             |
     |                                               |                |      [24]{}: leap_second_record 0x2d3-0x2db (8)
0x2d0|         4f ef 93 18                           |   O...         |        occur: "2012-07-01T00:00:24Z" (1341100824) 0x2d3-0x2d7 (4)
0x2d0|                     00 00 00 19               |       ....     |        corr: 25 0x2d7-0x2db (4)
     |                                               |                |      [25]{}: leap_second_record 0x2db-0x2e3 (8)
0x2d0|                                 55 93 2d 99   |           U.-. |        occur: "2015-07-01T00:00:25Z" (1435708825) 0x2db-0x2df (4)
0x2d0|                                             00|               .|        corr: 26 0x2df-0x2e3 (4)
0x2e0|00 00 1a                                       |...             |
     |                                               |                |      [26]{}: leap_second_record 0x2e3-0x2eb (8)
0x2e0|         58 68 46 9a                           |   XhF.         |        occur: "2017-01-01T00:00:26Z" (1483228826) 0x2e3-0x2e7 (4)
0x2e0|                     00 00 00 1b               |       ....     |        corr: 27 0x2e7-0x2eb (4)
     |                                               |                |    standard_wall_indicators[0:5]: 0x2eb-0x2f0 (5)
0x2e0|                                 00            |           .    |      [0]: 0 standard_wall_indicator (valid) 0x2eb-0x2ec (1)
0x2e0|                                    00         |            .   |      [1]: 0 standard_wall_indicator (valid) 0x2ec-0x2ed (1)
0x2e0|                                       01      |             .  |      [2]: 1 standard_wall_indicator (valid) 0x2ed-0x2ee (1)
0x2e0|                                          01   |              . |      [3]: 1 standard_wall_indicator (valid) 0x2ee-0x2ef (1)
0x2e0|                                             00|               .|      [4]: 0 standard_wall_indicator (valid) 0x2ef-0x2f0 (1)
     |                                               |                |    ut_local_indicators[0:5]: 0x2f0-0x2f5 (5)
0x2f0|00                                             |.               |      [0]: 0 ut_local_indicator (valid) 0x2f0-0x2f1 (1)
0x2f0|   00                                          | .              |      [1]: 0 ut_local_indicator (valid) 0x2f1-0x2f2 (1)
0x2f0|      01                                       |  .             |      [2]: 1 ut_local_indicator (valid) 0x2f2-0x2f3 (1)
0x2f0|         01                                    |   .            |      [3]: 1 ut_local_indicator (valid) 0x2f3-0x2f4 (1)
0x2f0|            00                                 |    .           |      [4]: 0 ut_local_indicator (valid) 0x2f4-0x2f5 (1)
     |                                               |                |  v2plusheader{}: 0x2f5-0x321 (44)
0x2f0|               54 5a 69 66                     |     TZif       |    magic: 0x545a6966 (valid) 0x2f5-0x2f9 (4)
0x2f0|                           32                  |         2      |    ver: "2" (0x32) (valid) 0x2f9-0x2fa (1)
0x2f0|                              00 00 00 00 00 00|          ......|    reserved: raw bits 0x2fa-0x309 (15)
0x300|00 00 00 00 00 00 00 00 00                     |.........       |
0x300|                           00 00 00 05         |         ....   |    isutcnt: 5 0x309-0x30d (4)
0x300|                                       00 00 00|             ...|    isstdcnt: 5 0x30d-0x311 (4)
0x310|05                                             |.               |
0x310|   00 00 00 1b                                 | ....           |    leapcnt: 27 0x311-0x315 (4)
0x310|               00 00 00 59                     |     ...Y       |    timecnt: 89 0x315-0x319 (4)
0x310|                           00 00 00 05         |         ....   |    typecnt: 5 0x319-0x31d (4)
0x310|                                       00 00 00|             ...|    charcnt: 12 0x31d-0x321 (4)
0x320|0c                                             |.               |
     |                                               |                |  v2plusdatablock{}: 0x321-0x7ba (1177)
     |                                               |                |    transition_times[0:89]: 0x321-0x5e9 (712)
0x320|   ff ff ff ff 9b 80 68 00                     | ......h.       |      [0]: "1916-07-28T03:26:56Z" (-1686083584) transition_time 0x321-0x329 (8)
0x320|                           00 00 00 00 13 4d 7c|         .....M||      [1]: "1980-04-06T05:00:09Z" (323845209) transition_time 0x329-0x331 (8)
0x330|59                                             |Y               |
0x330|   00 00 00 00 14 33 fa 99                     | .....3..       |      [2]: "1980-09-28T01:00:09Z" (338950809) transition_time 0x331-0x339 (8)
0x330|                           00 00 00 00 15 23 eb|         .....#.|      [3]: "1981-03-29T01:00:09Z" (354675609) transition_time 0x339-0x341 (8)
0x340|99                                             |.               |
0x340|   00 00 00 00 16 13 dc 9a                     | ........       |      [4]: "1981-09-27T01:00:10Z" (370400410) transition_time 0x341-0x349 (8)
0x340|                           00 00 00 00 17 03 cd|         .......|      [5]: "1982-03-28T01:00:10Z" (386125210) transition_time 0x349-0x351 (8)
0x350|9a                                             |.               |
0x350|   00 00 00 00 17 f3 be 9b                     | ........       |      [6]: "1982-09-26T01:00:11Z" (401850011) transition_time 0x351-0x359 (8)
0x350|                           00 00 00 00 18 e3 af|         .......|      [7]: "1983-03-27T01:00:11Z" (417574811) transition_time 0x359-0x361 (8)
0x360|9b                                             |.               |
0x360|   00 00 00 00 19 d3 a0 9c                     | ........       |      [8]: "1983-09-25T01:00:12Z" (433299612) transition_time 0x361-0x369 (8)
0x360|                           00 00 00 00 1a c3 91|         .......|      [9]: "1984-03-25T01:00:12Z" (449024412) transition_time 0x369-0x371 (8)
0x370|9c                                             |.               |
0x370|   00 00 00 00 1b bc bd 1c                     | ........       |      [10]: "1984-09-30T01:00:12Z" (465354012) transition_time 0x371-0x379 (8)
0x370|                           00 00 00 00 1c ac ae|         .......|      [11]: "1985-03-31T01:00:12Z" (481078812) transition_time 0x379-0x381 (8)
0x380|1c                                             |.               |
0x380|   00 00 00 00 1d 9c 9f 1d                     | ........       |      [12]: "1985-09-29T01:00:13Z" (496803613) transition_time 0x381-0x389 (8)
0x380|                           00 00 00 00 1e 8c 90|         .......|      [13]: "1986-03-30T01:00:13Z" (512528413) transition_time 0x389-0x391 (8)
0x390|1d                                             |.               |
0x390|   00 00 00 00 1f 7c 81 1d                     | .....|..       |      [14]: "1986-09-28T01:00:13Z" (528253213) transition_time 0x391-0x399 (8)
0x390|                           00 00 00 00 20 6c 72|         .... lr|      [15]: "1987-03-29T01:00:13Z" (543978013) transition_time 0x399-0x3a1 (8)
0x3a0|1d                                             |.               |
0x3a0|   00 00 00 00 21 5c 63 1d                     | ....!\c.       |      [16]: "1987-09-27T01:00:13Z" (559702813) transition_time 0x3a1-0x3a9 (8)
0x3a0|                           00 00 00 00 22 4c 54|         ...."LT|      [17]: "1988-03-27T01:00:14Z" (575427614) transition_time 0x3a9-0x3b1 (8)
0x3b0|1e                                             |.               |
0x3b0|   00 00 00 00 23 3c 45 1e                     | ....#<E.       |      [18]: "1988-09-25T01:00:14Z" (591152414) transition_time 0x3b1-0x3b9 (8)
0x3b0|                           00 00 00 00 24 2c 36|         ....$,6|      [19]: "1989-03-26T01:00:14Z" (606877214) transition_time 0x3b9-0x3c1 (8)
0x3c0|1e                                             |.               |
0x3c0|   00 00 00 00 25 1c 27 1e                     | ....%.'.       |      [20]: "1989-09-24T01:00:14Z" (622602014) transition_time 0x3c1-0x3c9 (8)
0x3c0|                           00 00 00 00 26 0c 18|         ....&..|      [21]: "1990-03-25T01:00:15Z" (638326815) transition_time 0x3c9-0x3d1 (8)
0x3d0|1f                                             |.               |
0x3d0|   00 00 00 00 27 05 43 9f                     | ....'.C.       |      [22]: "1990-09-30T01:00:15Z" (654656415) transition_time 0x3d1-0x3d9 (8)
0x3d0|                           00 00 00 00 27 f5 34|         ....'.4|      [23]: "1991-03-31T01:00:16Z" (670381216) transition_time 0x3d9-0x3e1 (8)
0x3e0|a0                                             |.               |
0x3e0|   00 00 00 00 28 e5 25 a0                     | ....(.%.       |      [24]: "1991-09-29T01:00:16Z" (686106016) transition_time 0x3e1-0x3e9 (8)
0x3e0|                           00 00 00 00 29 d5 16|         ....)..|      [25]: "1992-03-29T01:00:16Z" (701830816) transition_time 0x3e9-0x3f1 (8)
0x3f0|a0                                             |.               |
0x3f0|   00 00 00 00 2a c5 07 a1                     | ....*...       |      [26]: "1992-09-27T01:00:17Z" (717555617) transition_time 0x3f1-0x3f9 (8)
0x3f0|                           00 00 00 00 2b b4 f8|         ....+..|      [27]: "1993-03-28T01:00:17Z" (733280417) transition_time 0x3f9-0x401 (8)
0x400|a1                                             |.               |
0x400|   00 00 00 00 2c a4 e9 a2                     | ....,...       |      [28]: "1993-09-26T01:00:18Z" (749005218) transition_time 0x401-0x409 (8)
0x400|                           00 00 00 00 2d 94 da|         ....-..|      [29]: "1994-03-27T01:00:18Z" (764730018) transition_time 0x409-0x411 (8)
0x410|a2                                             |.               |
0x410|   00 00 00 00 2e 84 cb a3                     | ........       |      [30]: "1994-09-25T01:00:19Z" (780454819) transition_time 0x411-0x419 (8)
0x410|                           00 00 00 00 2f 74 bc|         ..../t.|      [31]: "1995-03-26T01:00:19Z" (796179619) transition_time 0x419-0x421 (8)
0x420|a3                                             |.               |
0x420|   00 00 00 00 30 64 ad a3                     | ....0d..       |      [32]: "1995-09-24T01:00:19Z" (811904419) transition_time 0x421-0x429 (8)
0x420|                           00 00 00 00 31 5d d9|         ....1].|      [33]: "1996-03-31T01:00:20Z" (828234020) transition_time 0x429-0x431 (8)
0x430|24                                             |$               |
0x430|   00 00 00 00 32 72 b4 24                     | ....2r.$       |      [34]: "1996-10-27T01:00:20Z" (846378020) transition_time 0x431-0x439 (8)
0x430|                           00 00 00 00 33 3d bb|         ....3=.|      [35]: "1997-03-30T01:00:20Z" (859683620) transition_time 0x439-0x441 (8)
0x440|24                                             |$               |
0x440|   00 00 00 00 34 52 96 25                     | ....4R.%       |      [36]: "1997-10-26T01:00:21Z" (877827621) transition_time 0x441-0x449 (8)
0x440|                           00 00 00 00 35 1d 9d|         ....5..|      [37]: "1998-03-29T01:00:21Z" (891133221) transition_time 0x449-0x451 (8)
0x450|25                                             |%               |
0x450|   00 00 00 00 36 32 78 25                     | ....62x%       |      [38]: "1998-10-25T01:00:21Z" (909277221) transition_time 0x451-0x459 (8)
0x450|                           00 00 00 00 36 fd 7f|         ....6..|      [39]: "1999-03-28T01:00:22Z" (922582822) transition_time 0x459-0x461 (8)
0x460|26                                             |&               |
0x460|   00 00 00 00 38 1b 94 a6                     | ....8...       |      [40]: "1999-10-31T01:00:22Z" (941331622) transition_time 0x461-0x469 (8)
0x460|                           00 00 00 00 38 dd 61|         ....8.a|      [41]: "2000-03-26T01:00:22Z" (954032422) transition_time 0x469-0x471 (8)
0x470|26                                             |&               |
0x470|   00 00 00 00 39 fb 76 a6                     | ....9.v.       |      [42]: "2000-10-29T01:00:22Z" (972781222) transition_time 0x471-0x479 (8)
0x470|                           00 00 00 00 3a bd 43|         ....:.C|      [43]: "2001-03-25T01:00:22Z" (985482022) transition_time 0x479-0x481 (8)
0x480|26                                             |&               |
0x480|   00 00 00 00 3b db 58 a6                     | ....;.X.       |      [44]: "2001-10-28T01:00:22Z" (1004230822) transition_time 0x481-0x489 (8)
0x480|                           00 00 00 00 3c a6 5f|         ....<._|      [45]: "2002-03-31T01:00:22Z" (1017536422) transition_time 0x489-0x491 (8)
0x490|a6                                             |.               |
0x490|   00 00 00 00 3d bb 3a a6                     | ....=.:.       |      [46]: "2002-10-27T01:00:22Z" (1035680422) transition_time 0x491-0x499 (8)
0x490|                           00 00 00 00 3e 86 41|         ....>.A|      [47]: "2003-03-30T01:00:22Z" (1048986022) transition_time 0x499-0x4a1 (8)
0x4a0|a6                                             |.               |
0x4a0|   00 00 00 00 3f 9b 1c a6                     | ....?...       |      [48]: "2003-10-26T01:00:22Z" (1067130022) transition_time 0x4a1-0x4a9 (8)
0x4a0|                           00 00 00 00 40 66 23|         ....@f#|      [49]: "2004-03-28T01:00:22Z" (1080435622) transition_time 0x4a9-0x4b1 (8)
0x4b0|a6                                             |.               |
0x4b0|   00 00 00 00 41 84 39 26                     | ....A.9&       |      [50]: "2004-10-31T01:00:22Z" (1099184422) transition_time 0x4b1-0x4b9 (8)
0x4b0|                           00 00 00 00 42 46 05|         ....BF.|      [51]: "2005-03-27T01:00:22Z" (1111885222) transition_time 0x4b9-0x4c1 (8)
0x4c0|a6                                             |.               |
0x4c0|   00 00 00 00 43 64 1b 26                     | ....Cd.&       |      [52]: "2005-10-30T01:00:22Z" (1130634022) transition_time 0x4c1-0x4c9 (8)
0x4c0|                           00 00 00 00 44 25 e7|         ....D%.|      [53]: "2006-03-26T01:00:23Z" (1143334823) transition_time 0x4c9-0x4d1 (8)
0x4d0|a7                                             |.               |
0x4d0|   00 00 00 00 45 43 fd 27                     | ....EC.'       |      [54]: "2006-10-29T01:00:23Z" (1162083623) transition_time 0x4d1-0x4d9 (8)
0x4d0|                           00 00 00 00 46 05 c9|         ....F..|      [55]: "2007-03-25T01:00:23Z" (1174784423) transition_time 0x4d9-0x4e1 (8)
0x4e0|a7                                             |.               |
0x4e0|   00 00 00 00 47 23 df 27                     | ....G#.'       |      [56]: "2007-10-28T01:00:23Z" (1193533223) transition_time 0x4e1-0x4e9 (8)
0x4e0|                           00 00 00 00 47 ee e6|         ....G..|      [57]: "2008-03-30T01:00:23Z" (1206838823) transition_time 0x4e9-0x4f1 (8)
0x4f0|27                                             |'               |
0x4f0|   00 00 00 00 49 03 c1 27                     | ....I..'       |      [58]: "2008-10-26T01:00:23Z" (1224982823) transition_time 0x4f1-0x4f9 (8)
0x4f0|                           00 00 00 00 49 ce c8|         ....I..|      [59]: "2009-03-29T01:00:24Z" (1238288424) transition_time 0x4f9-0x501 (8)
0x500|28                                             |(               |
0x500|   00 00 00 00 4a e3 a3 28                     | ....J..(       |      [60]: "2009-10-25T01:00:24Z" (1256432424) transition_time 0x501-0x509 (8)
0x500|                           00 00 00 00 4b ae aa|         ....K..|      [61]: "2010-03-28T01:00:24Z" (1269738024) transition_time 0x509-0x511 (8)
0x510|28                                             |(               |
0x510|   00 00 00 00 4c cc bf a8                     | ....L...       |      [62]: "2010-10-31T01:00:24Z" (1288486824) transition_time 0x511-0x519 (8)
0x510|                           00 00 00 00 4d 8e 8c|         ....M..|      [63]: "2011-03-27T01:00:24Z" (1301187624) transition_time 0x519-0x521 (8)
0x520|28                                             |(               |
0x520|   00 00 00 00 4e ac a1 a8                     | ....N...       |      [64]: "2011-10-30T01:00:24Z" (1319936424) transition_time 0x521-0x529 (8)
0x520|                           00 00 00 00 4f 6e 6e|         ....Onn|      [65]: "2012-03-25T01:00:24Z" (1332637224) transition_time 0x529-0x531 (8)
0x530|28                                             |(               |
0x530|   00 00 00 00 50 8c 83 a9                     | ....P...       |      [66]: "2012-10-28T01:00:25Z" (1351386025) transition_time 0x531-0x539 (8)
0x530|                           00 00 00 00 51 57 8a|         ....QW.|      [67]: "2013-03-31T01:00:25Z" (1364691625) transition_time 0x539-0x541 (8)
0x540|a9                                             |.               |
0x540|   00 00 00 00 52 6c 65 a9                     | ....Rle.       |      [68]: "2013-10-27T01:00:25Z" (1382835625) transition_time 0x541-0x549 (8)
0x540|                           00 00 00 00 53 37 6c|         ....S7l|      [69]: "2014-03-30T01:00:25Z" (1396141225) transition_time 0x549-0x551 (8)
0x550|a9                                             |.               |
0x550|   00 00 00 00 54 4c 47 a9                     | ....TLG.       |      [70]: "2014-10-26T01:00:25Z" (1414285225) transition_time 0x551-0x559 (8)
0x550|                           00 00 00 00 55 17 4e|         ....U.N|      [71]: "2015-03-29T01:00:25Z" (1427590825) transition_time 0x559-0x561 (8)
0x560|a9                                             |.               |
0x560|   00 00 00 00 56 2c 29 aa                     | ....V,).       |      [72]: "2015-10-25T01:00:26Z" (1445734826) transition_time 0x561-0x569 (8)
0x560|                           00 00 00 00 56 f7 30|         ....V.0|      [73]: "2016-03-27T01:00:26Z" (1459040426) transition_time 0x569-0x571 (8)
0x570|aa                                             |.               |
0x570|   00 00 00 00 58 15 46 2a                     | ....X.F*       |      [74]: "2016-10-30T01:00:26Z" (1477789226) transition_time 0x571-0x579 (8)
0x570|                           00 00 00 00 58 d7 12|         ....X..|      [75]: "2017-03-26T01:00:27Z" (1490490027) transition_time 0x579-0x581 (8)
0x580|ab                                             |.               |
0x580|   00 00 00 00 59 f5 28 2b                     | ....Y.(+       |      [76]: "2017-10-29T01:00:27Z" (1509238827) transition_time 0x581-0x589 (8)
0x580|                           00 00 00 00 5a b6 f4|         ....Z..|      [77]: "2018-03-25T01:00:27Z" (1521939627) transition_time 0x589-0x591 (8)
0x590|ab                                             |.               |
0x590|   00 00 00 00 5b d5 0a 2b                     | ....[..+       |      [78]: "2018-10-28T01:00:27Z" (1540688427) transition_time 0x591-0x599 (8)
0x590|                           00 00 00 00 5c a0 11|         ....\..|      [79]: "2019-03-31T01:00:27Z" (1553994027) transition_time 0x599-0x5a1 (8)
0x5a0|2b                                             |+               |
0x5a0|   00 00 00 00 5d b4 ec 2b                     | ....]..+       |      [80]: "2019-10-27T01:00:27Z" (1572138027) transition_time 0x5a1-0x5a9 (8)
0x5a0|                           00 00 00 00 5e 7f f3|         ....^..|      [81]: "2020-03-29T01:00:27Z" (1585443627) transition_time 0x5a9-0x5b1 (8)
0x5b0|2b                                             |+               |
0x5b0|   00 00 00 00 5f 94 ce 2b                     | ...._..+       |      [82]: "2020-10-25T01:00:27Z" (1603587627) transition_time 0x5b1-0x5b9 (8)
0x5b0|                           00 00 00 00 60 5f d5|         ....`_.|      [83]: "2021-03-28T01:00:27Z" (1616893227) transition_time 0x5b9-0x5c1 (8)
0x5c0|2b                                             |+               |
0x5c0|   00 00 00 00 61 7d ea ab                     | ....a}..       |      [84]: "2021-10-31T01:00:27Z" (1635642027) transition_time 0x5c1-0x5c9 (8)
0x5c0|                           00 00 00 00 62 3f b7|         ....b?.|      [85]: "2022-03-27T01:00:27Z" (1648342827) transition_time 0x5c9-0x5d1 (8)
0x5d0|2b                                             |+               |
0x5d0|   00 00 00 00 63 5d cc ab                     | ....c]..       |      [86]: "2022-10-30T01:00:27Z" (1667091627) transition_time 0x5d1-0x5d9 (8)
0x5d0|                           00 00 00 00 64 1f 99|         ....d..|      [87]: "2023-03-26T01:00:27Z" (1679792427) transition_time 0x5d9-0x5e1 (8)
0x5e0|2b                                             |+               |
0x5e0|   00 00 00 00 64 9b 78 1b                     | ....d.x.       |      [88]: "2023-06-28T00:00:27Z" (1687910427) transition_time 0x5e1-0x5e9 (8)
     |                                               |                |    transition_types[0:89]: 0x5e9-0x642 (89)
0x5e0|                           01                  |         .      |      [0]: 1 transition_type 0x5e9-0x5ea (1)
0x5e0|                              04               |          .     |      [1]: 4 transition_type 0x5ea-0x5eb (1)
0x5e0|                                 02            |           .    |      [2]: 2 transition_type 0x5eb-0x5ec (1)
0x5e0|                                    03         |            .   |      [3]: 3 transition_type 0x5ec-0x5ed (1)
0x5e0|                                       02      |             .  |      [4]: 2 transition_type 0x5ed-0x5ee (1)
0x5e0|                                          03   |              . |      [5]: 3 transition_type 0x5ee-0x5ef (1)
0x5e0|                                             02|               .|      [6]: 2 transition_type 0x5ef-0x5f0 (1)
0x5f0|03                                             |.               |      [7]: 3 transition_type 0x5f0-0x5f1 (1)
0x5f0|   02                                          | .              |      [8]: 2 transition_type 0x5f1-0x5f2 (1)
0x5f0|      03                                       |  .             |      [9]: 3 transition_type 0x5f2-0x5f3 (1)
0x5f0|         02                                    |   .            |      [10]: 2 transition_type 0x5f3-0x5f4 (1)
0x5f0|            03                                 |    .           |      [11]: 3 transition_type 0x5f4-0x5f5 (1)
0x5f0|               02                              |     .          |      [12]: 2 transition_type 0x5f5-0x5f6 (1)
0x5f0|                  03                           |      .         |      [13]: 3 transition_type 0x5f6-0x5f7 (1)
0x5f0|                     02                        |       .        |      [14]: 2 transition_type 0x5f7-0x5f8 (1)
0x5f0|                        03                     |        .       |      [15]: 3 transition_type 0x5f8-0x5f9 (1)
0x5f0|                           02                  |         .      |      [16]: 2 transition_type 0x5f9-0x5fa (1)
0x5f0|                              03               |          .     |      [17]: 3 transition_type 0x5fa-0x5fb (1)
0x5f0|                                 02            |           .    |      [18]: 2 transition_type 0x5fb-0x5fc (1)
0x5f0|                                    03         |            .   |      [19]: 3 transition_type 0x5fc-0x5fd (1)
0x5f0|                                       02      |             .  |      [20]: 2 transition_type 0x5fd-0x5fe (1)
0x5f0|                                          03   |              . |      [21]: 3 transition_type 0x5fe-0x5ff (1)
0x5f0|                                             02|               .|      [22]: 2 transition_type 0x5ff-0x600 (1)
0x600|03                                             |.               |      [23]: 3 transition_type 0x600-0x601 (1)
0x600|   02                                          | .              |      [24]: 2 transition_type 0x601-0x602 (1)
0x600|      03                                       |  .             |      [25]: 3 transition_type 0x602-0x603 (1)
0x600|         02                                    |   .            |      [26]: 2 transition_type 0x603-0x604 (1)
0x600|            03                                 |    .           |      [27]: 3 transition_type 0x604-0x605 (1)
0x600|               02                              |     .          |      [28]: 2 transition_type 0x605-0x606 (1)
0x600|                  03                           |      .         |      [29]: 3 transition_type 0x606-0x607 (1)
0x600|                     02                        |       .        |      [30]: 2 transition_type 0x607-0x608 (1)
0x600|                        03                     |        .       |      [31]: 3 transition_type 0x608-0x609 (1)
0x600|                           02                  |         .      |      [32]: 2 transition_type 0x609-0x60a (1)
0x600|                              03               |          .     |      [33]: 3 transition_type 0x60a-0x60b (1)
0x600|                                 02            |           .    |      [34]: 2 transition_type 0x60b-0x60c (1)
0x600|                                    03         |            .   |      [35]: 3 transition_type 0x60c-0x60d (1)
0x600|                                       02      |             .  |      [36]: 2 transition_type 0x60d-0x60e (1)
0x600|                                          03   |              . |      [37]: 3 transition_type 0x60e-0x60f (1)
0x600|                                             02|               .|      [38]: 2 transition_type 0x60f-0x610 (1)
0x610|03                                             |.               |      [39]: 3 transition_type 0x610-0x611 (1)
0x610|   02                                          | .              |      [40]: 2 transition_type 0x611-0x612 (1)
0x610|      03                                       |  .             |      [41]: 3 transition_type 0x612-0x613 (1)
0x610|         02                                    |   .            |      [42]: 2 transition_type 0x613-0x614 (1)
0x610|            03                                 |    .           |      [43]: 3 transition_type 0x614-0x615 (1)
0x610|               02                              |     .          |      [44]: 2 transition_type 0x615-0x616 (1)
0x610|                  03                           |      .         |      [45]: 3 transition_type 0x616-0x617 (1)
0x610|                     02                        |       .        |      [46]: 2 transition_type 0x617-0x618 (1)
0x610|                        03                     |        .       |      [47]: 3 transition_type 0x618-0x619 (1)
0x610|                           02                  |         .      |      [48]: 2 transition_type 0x619-0x61a (1)
0x610|                              03               |          .     |      [49]: 3 transition_type 0x61a-0x61b (1)
0x610|                                 02            |           .    |      [50]: 2 transition_type 0x61b-0x61c (1)
0x610|                                    03         |            .   |      [51]: 3 transition_type 0x61c-0x61d (1)
0x610|                                       02      |             .  |      [52]: 2 transition_type 0x61d-0x61e (1)
0x610|                                          03   |              . |      [53]: 3 transition_type 0x61e-0x61f (1)
0x610|                                             02|               .|      [54]: 2 transition_type 0x61f-0x620 (1)
0x620|03                                             |.               |      [55]: 3 transition_type 0x620-0x621 (1)
0x620|   02                                          | .              |      [56]: 2 transition_type 0x621-0x622 (1)
0x620|      03                                       |  .             |      [57]: 3 transition_type 0x622-0x623 (1)
0x620|         02                                    |   .            |      [58]: 2 transition_type 0x623-0x624 (1)
0x620|            03                                 |    .           |      [59]: 3 transition_type 0x624-0x625 (1)
0x620|               02                              |     .          |      [60]: 2 transition_type 0x625-0x626 (1)
0x620|                  03                           |      .         |      [61]: 3 transition_type 0x626-0x627 (1)
0x620|                     02                        |       .        |      [62]: 2 transition_type 0x627-0x628 (1)
0x620|                        03                     |        .       |      [63]: 3 transition_type 0x628-0x629 (1)
0x620|                           02                  |         .      |      [64]: 2 transition_type 0x629-0x62a (1)
0x620|                              03               |          .     |      [65]: 3 transition_type 0x62a-0x62b (1)
0x620|                                 02            |           .    |      [66]: 2 transition_type 0x62b-0x62c (1)
0x620|                                    03         |            .   |      [67]: 3 transition_type 0x62c-0x62d (1)
0x620|                                       02      |             .  |      [68]: 2 transition_type 0x62d-0x62e (1)
0x620|                                          03   |              . |      [69]: 3 transition_type 0x62e-0x62f (1)
0x620|                                             02|               .|      [70]: 2 transition_type 0x62f-0x630 (1)
0x630|03                                             |.               |      [71]: 3 transition_type 0x630-0x631 (1)
0x630|   02                                          | .              |      [72]: 2 transition_type 0x631-0x632 (1)
0x630|      03                                       |  .             |      [73]: 3 transition_type 0x632-0x633 (1)
0x630|         02                                    |   .            |      [74]: 2 transition_type 0x633-0x634 (1)
0x630|            03                                 |    .           |      [75]: 3 transition_type 0x634-0x635 (1)
0x630|               02                              |     .          |      [76]: 2 transition_type 0x635-0x636 (1)
0x630|                  03                           |      .         |      [77]: 3 transition_type 0x636-0x637 (1)
0x630|                     02                        |       .        |      [78]: 2 transition_type 0x637-0x638 (1)
0x630|                        03                     |        .       |      [79]: 3 transition_type 0x638-0x639 (1)
0x630|                           02                  |         .      |      [80]: 2 transition_type 0x639-0x63a (1)
0x630|                              03               |          .     |      [81]: 3 transition_type 0x63a-0x63b (1)
0x630|                                 02            |           .    |      [82]: 2 transition_type 0x63b-0x63c (1)
0x630|                                    03         |            .   |      [83]: 3 transition_type 0x63c-0x63d (1)
0x630|                                       02      |             .  |      [84]: 2 transition_type 0x63d-0x63e (1)
0x630|                                          03   |              . |      [85]: 3 transition_type 0x63e-0x63f (1)
0x630|                                             02|               .|      [86]: 2 transition_type 0x63f-0x640 (1)
0x640|03                                             |.               |      [87]: 3 transition_type 0x640-0x641 (1)
0x640|   03                                          | .              |      [88]: 3 transition_type 0x641-0x642 (1)
     |                                               |                |    local_time_type_records[0:5]: 0x642-0x660 (30)
     |                                               |                |      [0]{}: local_time_type 0x642-0x648 (6)
0x640|      ff ff cf 80                              |  ....          |        utoff: -12416 (valid) 0x642-0x646 (4)
0x640|                  00                           |      .         |        dst: 0 (valid) 0x646-0x647 (1)
0x640|                     00                        |       .        |        idx: 0 (valid) 0x647-0x648 (1)
     |                                               |                |      [1]{}: local_time_type 0x648-0x64e (6)
0x640|                        ff ff d5 d0            |        ....    |        utoff: -10800 (valid) 0x648-0x64c (4)
0x640|                                    00         |            .   |        dst: 0 (valid) 0x64c-0x64d (1)
0x640|                                       04      |             .  |        idx: 4 (valid) 0x64d-0x64e (1)
     |                                               |                |      [2]{}: local_time_type 0x64e-0x654 (6)
0x640|                                          ff ff|              ..|        utoff: -10800 (valid) 0x64e-0x652 (4)
0x650|d5 d0                                          |..              |
0x650|      00                                       |  .             |        dst: 0 (valid) 0x652-0x653 (1)
0x650|         04                                    |   .            |        idx: 4 (valid) 0x653-0x654 (1)
     |                                               |                |      [3]{}: local_time_type 0x654-0x65a (6)
0x650|            ff ff e3 e0                        |    ....        |        utoff: -7200 (valid) 0x654-0x658 (4)
0x650|                        01                     |        .       |        dst: 1 (valid) 0x658-0x659 (1)
0x650|                           08                  |         .      |        idx: 8 (valid) 0x659-0x65a (1)
     |                                               |                |      [4]{}: local_time_type 0x65a-0x660 (6)
0x650|                              ff ff e3 e0      |          ....  |        utoff: -7200 (valid) 0x65a-0x65e (4)
0x650|                                          01   |              . |        dst: 1 (valid) 0x65e-0x65f (1)
0x650|                                             08|               .|        idx: 8 (valid) 0x65f-0x660 (1)
     |                                               |                |    time_zone_designations[0:3]: 0x660-0x66c (12)
0x660|4c 4d 54 00                                    |LMT.            |      [0]: "LMT" time_zone_designation 0x660-0x664 (4)
0x660|            2d 30 33 00                        |    -03.        |      [1]: "-03" time_zone_designation 0x664-0x668 (4)
0x660|                        2d 30 32 00            |        -02.    |      [2]: "-02" time_zone_designation 0x668-0x66c (4)
     |                                               |                |    leap_second_records[0:27]: 0x66c-0x7b0 (324)
     |                                               |                |      [0]{}: leap_second_record 0x66c-0x678 (12)
0x660|                                    00 00 00 00|            ....|        occur: "1972-07-01T00:00:00Z" (78796800) 0x66c-0x674 (8)
0x670|04 b2 58 00                                    |..X.            |
0x670|            00 00 00 01                        |    ....        |        corr: 1 0x674-0x678 (4)
     |                                               |                |      [1]{}: leap_second_record 0x678-0x684 (12)
0x670|                        00 00 00 00 05 a4 ec 01|        ........|        occur: "1973-01-01T00:00:01Z" (94694401) 0x678-0x680 (8)
0x680|00 00 00 02                                    |....            |        corr: 2 0x680-0x684 (4)
     |                                               |                |      [2]{}: leap_second_record 0x684-0x690 (12)
0x680|            00 00 00 00 07 86 1f 82            |    ........    |        occur: "1974-01-01T00:00:02Z" (126230402) 0x684-0x68c (8)
0x680|                                    00 00 00 03|            ....|        corr: 3 0x68c-0x690 (4)
     |                                               |                |      [3]{}: leap_second_record 0x690-0x69c (12)
0x690|00 00 00 00 09 67 53 03                        |.....gS.        |        occur: "1975-01-01T00:00:03Z" (157766403) 0x690-0x698 (8)
0x690|                        00 00 00 04            |        ....    |        corr: 4 0x698-0x69c (4)
     |                                               |                |      [4]{}: leap_second_record 0x69c-0x6a8 (12)
0x690|                                    00 00 00 00|            ....|        occur: "1976-01-01T00:00:04Z" (189302404) 0x69c-0x6a4 (8)
0x6a0|0b 48 86 84                                    |.H..            |
0x6a0|            00 00 00 05                        |    ....        |        corr: 5 0x6a4-0x6a8 (4)
     |                                               |                |      [5]{}: leap_second_record 0x6a8-0x6b4 (12)
0x6a0|                        00 00 00 00 0d 2b 0b 85|        .....+..|        occur: "1977-01-01T00:00:05Z" (220924805) 0x6a8-0x6b0 (8)
0x6b0|00 00 00 06                                    |....            |        corr: 6 0x6b0-0x6b4 (4)
     |                                               |                |      [6]{}: leap_second_record 0x6b4-0x6c0 (12)
0x6b0|            00 00 00 00 0f 0c 3f 06            |    ......?.    |        occur: "1978-01-01T00:00:06Z" (252460806) 0x6b4-0x6bc (8)
0x6b0|                                    00 00 00 07|            ....|        corr: 7 0x6bc-0x6c0 (4)
     |                                               |                |      [7]{}: leap_second_record 0x6c0-0x6cc (12)
0x6c0|00 00 00 00 10 ed 72 87                        |......r.        |        occur: "1979-01-01T00:00:07Z" (283996807) 0x6c0-0x6c8 (8)
0x6c0|                        00 00 00 08            |        ....    |        corr: 8 0x6c8-0x6cc (4)
     |                                               |                |      [8]{}: leap_second_record 0x6cc-0x6d8 (12)
0x6c0|                                    00 00 00 00|            ....|        occur: "1980-01-01T00:00:08Z" (315532808) 0x6cc-0x6d4 (8)
0x6d0|12 ce a6 08                                    |....            |
0x6d0|            00 00 00 09                        |    ....        |        corr: 9 0x6d4-0x6d8 (4)
     |                                               |                |      [9]{}: leap_second_record 0x6d8-0x6e4 (12)
0x6d0|                        00 00 00 00 15 9f ca 89|        ........|        occur: "1981-07-01T00:00:09Z" (362793609) 0x6d8-0x6e0 (8)
0x6e0|00 00 00 0a                                    |....            |        corr: 10 0x6e0-0x6e4 (4)
     |                                               |                |      [10]{}: leap_second_record 0x6e4-0x6f0 (12)
0x6e0|            00 00 00 00 17 80 fe 0a            |    ........    |        occur: "1982-07-01T00:00:10Z" (394329610) 0x6e4-0x6ec (8)
0x6e0|                                    00 00 00 0b|            ....|        corr: 11 0x6ec-0x6f0 (4)
     |                                               |                |      [11]{}: leap_second_record 0x6f0-0x6fc (12)
0x6f0|00 00 00 00 19 62 31 8b                        |.....b1.        |        occur: "1983-07-01T00:00:11Z" (425865611) 0x6f0-0x6f8 (8)
0x6f0|                        00 00 00 0c            |        ....    |        corr: 12 0x6f8-0x6fc (4)
     |                                               |                |      [12]{}: leap_second_record 0x6fc-0x708 (12)
0x6f0|                                    00 00 00 00|            ....|        occur: "1985-07-01T00:00:12Z" (489024012) 0x6fc-0x704 (8)
0x700|1d 25 ea 0c                                    |.%..            |
0x700|            00 00 00 0d                        |    ....        |        corr: 13 0x704-0x708 (4)
     |                                               |                |      [13]{}: leap_second_record 0x708-0x714 (12)
0x700|                        00 00 00 00 21 da e5 0d|        ....!...|        occur: "1988-01-01T00:00:13Z" (567993613) 0x708-0x710 (8)
0x710|00 00 00 0e                                    |....            |        corr: 14 0x710-0x714 (4)
     |                                               |                |      [14]{}: leap_second_record 0x714-0x720 (12)
0x710|            00 00 00 00 25 9e 9d 8e            |    ....%...    |        occur: "1990-01-01T00:00:14Z" (631152014) 0x714-0x71c (8)
0x710|                                    00 00 00 0f|            ....|        corr: 15 0x71c-0x720 (4)
     |                                               |                |      [15]{}: leap_second_record 0x720-0x72c (12)
0x720|00 00 00 00 27 7f d1 0f                        |....'...        |        occur: "1991-01-01T00:00:15Z" (662688015) 0x720-0x728 (8)
0x720|                        00 00 00 10            |        ....    |        corr: 16 0x728-0x72c (4)
     |                                               |                |      [16]{}: leap_second_record 0x72c-0x738 (12)
0x720|                                    00 00 00 00|            ....|        occur: "1992-07-01T00:00:16Z" (709948816) 0x72c-0x734 (8)
0x730|2a 50 f5 90                                    |*P..            |
0x730|            00 00 00 11                        |    ....        |        corr: 17 0x734-0x738 (4)
     |                                               |                |      [17]{}: leap_second_record 0x738-0x744 (12)
0x730|                        00 00 00 00 2c 32 29 11|        ....,2).|        occur: "1993-07-01T00:00:17Z" (741484817) 0x738-0x740 (8)
0x740|00 00 00 12                                    |....            |        corr: 18 0x740-0x744 (4)
     |                                               |                |      [18]{}: leap_second_record 0x744-0x750 (12)
0x740|            00 00 00 00 2e 13 5c 92            |    ......\.    |        occur: "1994-07-01T00:00:18Z" (773020818) 0x744-0x74c (8)
0x740|                                    00 00 00 13|            ....|        corr: 19 0x74c-0x750 (4)
     |                                               |                |      [19]{}: leap_second_record 0x750-0x75c (12)
0x750|00 00 00 00 30 e7 24 13                        |....0.$.        |        occur: "1996-01-01T00:00:19Z" (820454419) 0x750-0x758 (8)
0x750|                        00 00 00 14            |        ....    |        corr: 20 0x758-0x75c (4)
     |                                               |                |      [20]{}: leap_second_record 0x75c-0x768 (12)
0x750|                                    00 00 00 00|            ....|        occur: "1997-07-01T00:00:20Z" (867715220) 0x75c-0x764 (8)
0x760|33 b8 48 94                                    |3.H.            |
0x760|            00 00 00 15                        |    ....        |        corr: 21 0x764-0x768 (4)
     |                                               |                |      [21]{}: leap_second_record 0x768-0x774 (12)
0x760|                        00 00 00 00 36 8c 10 15|        ....6...|        occur: "1999-01-01T00:00:21Z" (915148821) 0x768-0x770 (8)
0x770|00 00 00 16                                    |....            |        corr: 22 0x770-0x774 (4)
     |                                               |                |      [22]{}: leap_second_record 0x774-0x780 (12)
0x770|            00 00 00 00 43 b7 1b 96            |    ....C...    |        occur: "2006-01-01T00:00:22Z" (1136073622) 0x774-0x77c (8)
0x770|                                    00 00 00 17|            ....|        corr: 23 0x77c-0x780 (4)
     |                                               |                |      [23]{}: leap_second_record 0x780-0x78c (12)
0x780|00 00 00 00 49 5c 07 97                        |....I\..        |        occur: "2009-01-01T00:00:23Z" (1230768023) 0x780-0x788 (8)
0x780|                        00 00 00 18            |        ....    |        corr: 24 0x788-0x78c (4)
     |                                               |                |      [24]{}: leap_second_record 0x78c-0x798 (12)
0x780|                                    00 00 00 00|            ....|        occur: "2012-07-01T00:00:24Z" (1341100824) 0x78c-0x794 (8)
0x790|4f ef 93 18                                    |O...            |
0x790|            00 00 00 19                        |    ....        |        corr: 25 0x794-0x798 (4)
     |                                               |                |      [25]{}: leap_second_record 0x798-0x7a4 (12)
0x790|                        00 00 00 00 55 93 2d 99|        ....U.-.|        occur: "2015-07-01T00:00:25Z" (1435708825) 0x798-0x7a0 (8)
0x7a0|00 00 00 1a                                    |....            |        corr: 26 0x7a0-0x7a4 (4)
     |                                               |                |      [26]{}: leap_second_record 0x7a4-0x7b0 (12)
0x7a0|            00 00 00 00 58 68 46 9a            |    ....XhF.    |        occur: "2017-01-01T00:00:26Z" (1483228826) 0x7a4-0x7ac (8)
0x7a0|                                    00 00 00 1b|            ....|        corr: 27 0x7ac-0x7b0 (4)
     |                                               |                |    standard_wall_indicators[0:5]: 0x7b0-0x7b5 (5)
0x7b0|00                                             |.               |      [0]: 0 standard_wall_indicator (valid) 0x7b0-0x7b1 (1)
0x7b0|   00                                          | .              |      [1]: 0 standard_wall_indicator (valid) 0x7b1-0x7b2 (1)
0x7b0|      01                                       |  .             |      [2]: 1 standard_wall_indicator (valid) 0x7b2-0x7b3 (1)
0x7b0|         01                                    |   .            |      [3]: 1 standard_wall_indicator (valid) 0x7b3-0x7b4 (1)
0x7b0|            00                                 |    .           |      [4]: 0 standard_wall_indicator (valid) 0x7b4-0x7b5 (1)
     |                                               |                |    ut_local_indicators[0:5]: 0x7b5-0x7ba (5)
0x7b0|               00                              |     .          |      [0]: 0 ut_local_indicator (valid) 0x7b5-0x7b6 (1)
0x7b0|                  00                           |      .         |      [1]: 0 ut_local_indicator (valid) 0x7b6-0x7b7 (1)
0x7b0|                     01                        |       .        |      [2]: 1 ut_local_indicator (valid) 0x7b7-0x7b8 (1)
0x7b0|                        01                     |        .       |      [3]: 1 ut_local_indicator (valid) 0x7b8-0x7b9 (1)
0x7b0|                           00                  |         .      |      [4]: 0 ut_local_indicator (valid) 0x7b9-0x7ba (1)
     |                                               |                |  footer{}: 0x7ba-0x7bc (2)
0x7b0|                              0a               |          .     |    nl1: 10 (valid) 0x7ba-0x7bb (1)
     |                                               |                |    tz_string: "" 0x7bb-0x7bb (0)
0x7b0|                                 0a|           |           .|   |    nl2: 10 (valid) 0x7bb-0x7bc (1)
