$ fq -d tzif dv Nuuk
     |00 01 02 03 04 05 06 07 08 09 0a 0b 0c 0d 0e 0f|0123456789abcdef|.{}: Nuuk (tzif) 0x0-0x7bb.7 (1980)
     |                                               |                |  v1header{}: 0x0-0x2b.7 (44)
0x000|54 5a 69 66                                    |TZif            |    magic: 0x545a6966 (valid) 0x0-0x3.7 (4)
0x000|            32                                 |    2           |    ver: "2" (0x32) (valid) 0x4-0x4.7 (1)
0x000|               00 00 00 00 00 00 00 00 00 00 00|     ...........|    reserved: raw bits 0x5-0x13.7 (15)
0x010|00 00 00 00                                    |....            |
0x010|            00 00 00 05                        |    ....        |    isutcnt: 5 0x14-0x17.7 (4)
0x010|                        00 00 00 05            |        ....    |    isstdcnt: 5 0x18-0x1b.7 (4)
0x010|                                    00 00 00 1b|            ....|    leapcnt: 27 0x1c-0x1f.7 (4)
0x020|00 00 00 59                                    |...Y            |    timecnt: 89 0x20-0x23.7 (4)
0x020|            00 00 00 05                        |    ....        |    typecnt: 5 0x24-0x27.7 (4)
0x020|                        00 00 00 0c            |        ....    |    charcnt: 12 0x28-0x2b.7 (4)
     |                                               |                |  v1datablock{}: 0x2c-0x2f4.7 (713)
     |                                               |                |    transition_times[0:89]: 0x2c-0x18f.7 (356)
0x020|                                    9b 80 68 00|            ..h.|      [0]: "1916-07-28T03:26:56Z" (-1686083584) transition_time 0x2c-0x2f.7 (4)
0x030|13 4d 7c 59                                    |.M|Y            |      [1]: "1980-04-06T05:00:09Z" (323845209) transition_time 0x30-0x33.7 (4)
0x030|            14 33 fa 99                        |    .3..        |      [2]: "1980-09-28T01:00:09Z" (338950809) transition_time 0x34-0x37.7 (4)
0x030|                        15 23 eb 99            |        .#..    |      [3]: "1981-03-29T01:00:09Z" (354675609) transition_time 0x38-0x3b.7 (4)
0x030|                                    16 13 dc 9a|            ....|      [4]: "1981-09-27T01:00:10Z" (370400410) transition_time 0x3c-0x3f.7 (4)
0x040|17 03 cd 9a                                    |....            |      [5]: "1982-03-28T01:00:10Z" (386125210) transition_time 0x40-0x43.7 (4)
0x040|            17 f3 be 9b                        |    ....        |      [6]: "1982-09-26T01:00:11Z" (401850011) transition_time 0x44-0x47.7 (4)
0x040|                        18 e3 af 9b            |        ....    |      [7]: "1983-03-27T01:00:11Z" (417574811) transition_time 0x48-0x4b.7 (4)
0x040|                                    19 d3 a0 9c|            ....|      [8]: "1983-09-25T01:00:12Z" (433299612) transition_time 0x4c-0x4f.7 (4)
0x050|1a c3 91 9c                                    |....            |      [9]: "1984-03-25T01:00:12Z" (449024412) transition_time 0x50-0x53.7 (4)
0x050|            1b bc bd 1c                        |    ....        |      [10]: "1984-09-30T01:00:12Z" (465354012) transition_time 0x54-0x57.7 (4)
0x050|                        1c ac ae 1c            |        ....    |      [11]: "1985-03-31T01:00:12Z" (481078812) transition_time 0x58-0x5b.7 (4)
0x050|                                    1d 9c 9f 1d|            ....|      [12]: "1985-09-29T01:00:13Z" (496803613) transition_time 0x5c-0x5f.7 (4)
0x060|1e 8c 90 1d                                    |....            |      [13]: "1986-03-30T01:00:13Z" (512528413) transition_time 0x60-0x63.7 (4)
0x060|            1f 7c 81 1d                        |    .|..        |      [14]: "1986-09-28T01:00:13Z" (528253213) transition_time 0x64-0x67.7 (4)
0x060|                        20 6c 72 1d            |         lr.    |      [15]: "1987-03-29T01:00:13Z" (543978013) transition_time 0x68-0x6b.7 (4)
0x060|                                    21 5c 63 1d|            !\c.|      [16]: "1987-09-27T01:00:13Z" (559702813) transition_time 0x6c-0x6f.7 (4)
0x070|22 4c 54 1e                                    |"LT.            |      [17]: "1988-03-27T01:00:14Z" (575427614) transition_time 0x70-0x73.7 (4)
0x070|            23 3c 45 1e                        |    #<E.        |      [18]: "1988-09-25T01:00:14Z" (591152414) transition_time 0x74-0x77.7 (4)
0x070|                        24 2c 36 1e            |        $,6.    |      [19]: "1989-03-26T01:00:14Z" (606877214) transition_time 0x78-0x7b.7 (4)
0x070|                                    25 1c 27 1e|            %.'.|      [20]: "1989-09-24T01:00:14Z" (622602014) transition_time 0x7c-0x7f.7 (4)
0x080|26 0c 18 1f                                    |&...            |      [21]: "1990-03-25T01:00:15Z" (638326815) transition_time 0x80-0x83.7 (4)
0x080|            27 05 43 9f                        |    '.C.        |      [22]: "1990-09-30T01:00:15Z" (654656415) transition_time 0x84-0x87.7 (4)
0x080|                        27 f5 34 a0            |        '.4.    |      [23]: "1991-03-31T01:00:16Z" (670381216) transition_time 0x88-0x8b.7 (4)
0x080|                                    28 e5 25 a0|            (.%.|      [24]: "1991-09-29T01:00:16Z" (686106016) transition_time 0x8c-0x8f.7 (4)
0x090|29 d5 16 a0                                    |)...            |      [25]: "1992-03-29T01:00:16Z" (701830816) transition_time 0x90-0x93.7 (4)
0x090|            2a c5 07 a1                        |    *...        |      [26]: "1992-09-27T01:00:17Z" (717555617) transition_time 0x94-0x97.7 (4)
0x090|                        2b b4 f8 a1            |        +...    |      [27]: "1993-03-28T01:00:17Z" (733280417) transition_time 0x98-0x9b.7 (4)
0x090|                                    2c a4 e9 a2|            ,...|      [28]: "1993-09-26T01:00:18Z" (749005218) transition_time 0x9c-0x9f.7 (4)
0x0a0|2d 94 da a2                                    |-...            |      [29]: "1994-03-27T01:00:18Z" (764730018) transition_time 0xa0-0xa3.7 (4)
0x0a0|            2e 84 cb a3                        |    ....        |      [30]: "1994-09-25T01:00:19Z" (780454819) transition_time 0xa4-0xa7.7 (4)
0x0a0|                        2f 74 bc a3            |        /t..    |      [31]: "1995-03-26T01:00:19Z" (796179619) transition_time 0xa8-0xab.7 (4)
0x0a0|                                    30 64 ad a3|            0d..|      [32]: "1995-09-24T01:00:19Z" (811904419) transition_time 0xac-0xaf.7 (4)
0x0b0|31 5d d9 24                                    |1].$            |      [33]: "1996-03-31T01:00:20Z" (828234020) transition_time 0xb0-0xb3.7 (4)
0x0b0|            32 72 b4 24                        |    2r.$        |      [34]: "1996-10-27T01:00:20Z" (846378020) transition_time 0xb4-0xb7.7 (4)
0x0b0|                        33 3d bb 24            |        3=.$    |      [35]: "1997-03-30T01:00:20Z" (859683620) transition_time 0xb8-0xbb.7 (4)
0x0b0|                                    34 52 96 25|            4R.%|      [36]: "1997-10-26T01:00:21Z" (877827621) transition_time 0xbc-0xbf.7 (4)
0x0c0|35 1d 9d 25                                    |5..%            |      [37]: "1998-03-29T01:00:21Z" (891133221) transition_time 0xc0-0xc3.7 (4)
0x0c0|            36 32 78 25                        |    62x%        |      [38]: "1998-10-25T01:00:21Z" (909277221) transition_time 0xc4-0xc7.7 (4)
0x0c0|                        36 fd 7f 26            |        6..&    |      [39]: "1999-03-28T01:00:22Z" (922582822) transition_time 0xc8-0xcb.7 (4)
0x0c0|                                    38 1b 94 a6|            8...|      [40]: "1999-10-31T01:00:22Z" (941331622) transition_time 0xcc-0xcf.7 (4)
0x0d0|38 dd 61 26                                    |8.a&            |      [41]: "2000-03-26T01:00:22Z" (954032422) transition_time 0xd0-0xd3.7 (4)
0x0d0|            39 fb 76 a6                        |    9.v.        |      [42]: "2000-10-29T01:00:22Z" (972781222) transition_time 0xd4-0xd7.7 (4)
0x0d0|                        3a bd 43 26            |        :.C&    |      [43]: "2001-03-25T01:00:22Z" (985482022) transition_time 0xd8-0xdb.7 (4)
0x0d0|                                    3b db 58 a6|            ;.X.|      [44]: "2001-10-28T01:00:22Z" (1004230822) transition_time 0xdc-0xdf.7 (4)
0x0e0|3c a6 5f a6                                    |<._.            |      [45]: "2002-03-31T01:00:22Z" (1017536422) transition_time 0xe0-0xe3.7 (4)
0x0e0|            3d bb 3a a6                        |    =.:.        |      [46]: "2002-10-27T01:00:22Z" (1035680422) transition_time 0xe4-0xe7.7 (4)
0x0e0|                        3e 86 41 a6            |        >.A.    |      [47]: "2003-03-30T01:00:22Z" (1048986022) transition_time 0xe8-0xeb.7 (4)
0x0e0|                                    3f 9b 1c a6|            ?...|      [48]: "2003-10-26T01:00:22Z" (1067130022) transition_time 0xec-0xef.7 (4)
0x0f0|40 66 23 a6                                    |@f#.            |      [49]: "2004-03-28T01:00:22Z" (1080435622) transition_time 0xf0-0xf3.7 (4)
0x0f0|            41 84 39 26                        |    A.9&        |      [50]: "2004-10-31T01:00:22Z" (1099184422) transition_time 0xf4-0xf7.7 (4)
0x0f0|                        42 46 05 a6            |        BF..    |      [51]: "2005-03-27T01:00:22Z" (1111885222) transition_time 0xf8-0xfb.7 (4)
0x0f0|                                    43 64 1b 26|            Cd.&|      [52]: "2005-10-30T01:00:22Z" (1130634022) transition_time 0xfc-0xff.7 (4)
0x100|44 25 e7 a7                                    |D%..            |      [53]: "2006-03-26T01:00:23Z" (1143334823) transition_time 0x100-0x103.7 (4)
0x100|            45 43 fd 27                        |    EC.'        |      [54]: "2006-10-29T01:00:23Z" (1162083623) transition_time 0x104-0x107.7 (4)
0x100|                        46 05 c9 a7            |        F...    |      [55]: "2007-03-25T01:00:23Z" (1174784423) transition_time 0x108-0x10b.7 (4)
0x100|                                    47 23 df 27|            G#.'|      [56]: "2007-10-28T01:00:23Z" (1193533223) transition_time 0x10c-0x10f.7 (4)
0x110|47 ee e6 27                                    |G..'            |      [57]: "2008-03-30T01:00:23Z" (1206838823) transition_time 0x110-0x113.7 (4)
0x110|            49 03 c1 27                        |    I..'        |      [58]: "2008-10-26T01:00:23Z" (1224982823) transition_time 0x114-0x117.7 (4)
0x110|                        49 ce c8 28            |        I..(    |      [59]: "2009-03-29T01:00:24Z" (1238288424) transition_time 0x118-0x11b.7 (4)
0x110|                                    4a e3 a3 28|            J..(|      [60]: "2009-10-25T01:00:24Z" (1256432424) transition_time 0x11c-0x11f.7 (4)
0x120|4b ae aa 28                                    |K..(            |      [61]: "2010-03-28T01:00:24Z" (1269738024) transition_time 0x120-0x123.7 (4)
0x120|            4c cc bf a8                        |    L...        |      [62]: "2010-10-31T01:00:24Z" (1288486824) transition_time 0x124-0x127.7 (4)
0x120|                        4d 8e 8c 28            |        M..(    |      [63]: "2011-03-27T01:00:24Z" (1301187624) transition_time 0x128-0x12b.7 (4)
0x120|                                    4e ac a1 a8|            N...|      [64]: "2011-10-30T01:00:24Z" (1319936424) transition_time 0x12c-0x12f.7 (4)
0x130|4f 6e 6e 28                                    |Onn(            |      [65]: "2012-03-25T01:00:24Z" (1332637224) transition_time 0x130-0x133.7 (4)
0x130|            50 8c 83 a9                        |    P...        |      [66]: "2012-10-28T01:00:25Z" (1351386025) transition_time 0x134-0x137.7 (4)
0x130|                        51 57 8a a9            |        QW..    |      [67]: "2013-03-31T01:00:25Z" (1364691625) transition_time 0x138-0x13b.7 (4)
0x130|                                    52 6c 65 a9|            Rle.|      [68]: "2013-10-27T01:00:25Z" (1382835625) transition_time 0x13c-0x13f.7 (4)
0x140|53 37 6c a9                                    |S7l.            |      [69]: "2014-03-30T01:00:25Z" (1396141225) transition_time 0x140-0x143.7 (4)
0x140|            54 4c 47 a9                        |    TLG.        |      [70]: "2014-10-26T01:00:25Z" (1414285225) transition_time 0x144-0x147.7 (4)
0x140|                        55 17 4e a9            |        U.N.    |      [71]: "2015-03-29T01:00:25Z" (1427590825) transition_time 0x148-0x14b.7 (4)
0x140|                                    56 2c 29 aa|            V,).|      [72]: "2015-10-25T01:00:26Z" (1445734826) transition_time 0x14c-0x14f.7 (4)
0x150|56 f7 30 aa                                    |V.0.            |      [73]: "2016-03-27T01:00:26Z" (1459040426) transition_time 0x150-0x153.7 (4)
0x150|            58 15 46 2a                        |    X.F*        |      [74]: "2016-10-30T01:00:26Z" (1477789226) transition_time 0x154-0x157.7 (4)
0x150|                        58 d7 12 ab            |        X...    |      [75]: "2017-03-26T01:00:27Z" (1490490027) transition_time 0x158-0x15b.7 (4)
0x150|                                    59 f5 28 2b|            Y.(+|      [76]: "2017-10-29T01:00:27Z" (1509238827) transition_time 0x15c-0x15f.7 (4)
0x160|5a b6 f4 ab                                    |Z...            |      [77]: "2018-03-25T01:00:27Z" (1521939627) transition_time 0x160-0x163.7 (4)
0x160|            5b d5 0a 2b                        |    [..+        |      [78]: "2018-10-28T01:00:27Z" (1540688427) transition_time 0x164-0x167.7 (4)
0x160|                        5c a0 11 2b            |        \..+    |      [79]: "2019-03-31T01:00:27Z" (1553994027) transition_time 0x168-0x16b.7 (4)
0x160|                                    5d b4 ec 2b|            ]..+|      [80]: "2019-10-27T01:00:27Z" (1572138027) transition_time 0x16c-0x16f.7 (4)
0x170|5e 7f f3 2b                                    |^..+            |      [81]: "2020-03-29T01:00:27Z" (1585443627) transition_time 0x170-0x173.7 (4)
0x170|            5f 94 ce 2b                        |    _..+        |      [82]: "2020-10-25T01:00:27Z" (1603587627) transition_time 0x174-0x177.7 (4)
0x170|                        60 5f d5 2b            |        `_.+    |      [83]: "2021-03-28T01:00:27Z" (1616893227) transition_time 0x178-0x17b.7 (4)
0x170|                                    61 7d ea ab|            a}..|      [84]: "2021-10-31T01:00:27Z" (1635642027) transition_time 0x17c-0x17f.7 (4)
0x180|62 3f b7 2b                                    |b?.+            |      [85]: "2022-03-27T01:00:27Z" (1648342827) transition_time 0x180-0x183.7 (4)
0x180|            63 5d cc ab                        |    c]..        |      [86]: "2022-10-30T01:00:27Z" (1667091627) transition_time 0x184-0x187.7 (4)
0x180|                        64 1f 99 2b            |        d..+    |      [87]: "2023-03-26T01:00:27Z" (1679792427) transition_time 0x188-0x18b.7 (4)
0x180|                                    64 9b 78 1b|            d.x.|      [88]: "2023-06-28T00:00:27Z" (1687910427) transition_time 0x18c-0x18f.7 (4)
     |                                               |                |    transition_types[0:89]: 0x190-0x1e8.7 (89)
0x190|01                                             |.               |      [0]: 1 transition_type 0x190-0x190.7 (1)
0x190|   04                                          | .              |      [1]: 4 transition_type 0x191-0x191.7 (1)
0x190|      02                                       |  .             |      [2]: 2 transition_type 0x192-0x192.7 (1)
0x190|         03                                    |   .            |      [3]: 3 transition_type 0x193-0x193.7 (1)
0x190|            02                                 |    .           |      [4]: 2 transition_type 0x194-0x194.7 (1)
0x190|               03                              |     .          |      [5]: 3 transition_type 0x195-0x195.7 (1)
0x190|                  02                           |      .         |      [6]: 2 transition_type 0x196-0x196.7 (1)
0x190|                     03                        |       .        |      [7]: 3 transition_type 0x197-0x197.7 (1)
0x190|                        02                     |        .       |      [8]: 2 transition_type 0x198-0x198.7 (1)
0x190|                           03                  |         .      |      [9]: 3 transition_type 0x199-0x199.7 (1)
0x190|                              02               |          .     |      [10]: 2 transition_type 0x19a-0x19a.7 (1)
0x190|                                 03            |           .    |      [11]: 3 transition_type 0x19b-0x19b.7 (1)
0x190|                                    02         |            .   |      [12]: 2 transition_type 0x19c-0x19c.7 (1)
0x190|                                       03      |             .  |      [13]: 3 transition_type 0x19d-0x19d.7 (1)
0x190|                                          02   |              . |      [14]: 2 transition_type 0x19e-0x19e.7 (1)
0x190|                                             03|               .|      [15]: 3 transition_type 0x19f-0x19f.7 (1)
0x1a0|02                                             |.               |      [16]: 2 transition_type 0x1a0-0x1a0.7 (1)
0x1a0|   03                                          | .              |      [17]: 3 transition_type 0x1a1-0x1a1.7 (1)
0x1a0|      02                                       |  .             |      [18]: 2 transition_type 0x1a2-0x1a2.7 (1)
0x1a0|         03                                    |   .            |      [19]: 3 transition_type 0x1a3-0x1a3.7 (1)
0x1a0|            02                                 |    .           |      [20]: 2 transition_type 0x1a4-0x1a4.7 (1)
0x1a0|               03                              |     .          |      [21]: 3 transition_type 0x1a5-0x1a5.7 (1)
0x1a0|                  02                           |      .         |      [22]: 2 transition_type 0x1a6-0x1a6.7 (1)
0x1a0|                     03                        |       .        |      [23]: 3 transition_type 0x1a7-0x1a7.7 (1)
0x1a0|                        02                     |        .       |      [24]: 2 transition_type 0x1a8-0x1a8.7 (1)
0x1a0|                           03                  |         .      |      [25]: 3 transition_type 0x1a9-0x1a9.7 (1)
0x1a0|                              02               |          .     |      [26]: 2 transition_type 0x1aa-0x1aa.7 (1)
0x1a0|                                 03            |           .    |      [27]: 3 transition_type 0x1ab-0x1ab.7 (1)
0x1a0|                                    02         |            .   |      [28]: 2 transition_type 0x1ac-0x1ac.7 (1)
0x1a0|                                       03      |             .  |      [29]: 3 transition_type 0x1ad-0x1ad.7 (1)
0x1a0|                                          02   |              . |      [30]: 2 transition_type 0x1ae-0x1ae.7 (1)
0x1a0|                                             03|               .|      [31]: 3 transition_type 0x1af-0x1af.7 (1)
0x1b0|02                                             |.               |      [32]: 2 transition_type 0x1b0-0x1b0.7 (1)
0x1b0|   03                                          | .              |      [33]: 3 transition_type 0x1b1-0x1b1.7 (1)
0x1b0|      02                                       |  .             |      [34]: 2 transition_type 0x1b2-0x1b2.7 (1)
0x1b0|         03                                    |   .            |      [35]: 3 transition_type 0x1b3-0x1b3.7 (1)
0x1b0|            02                                 |    .           |      [36]: 2 transition_type 0x1b4-0x1b4.7 (1)
0x1b0|               03                              |     .          |      [37]: 3 transition_type 0x1b5-0x1b5.7 (1)
0x1b0|                  02                           |      .         |      [38]: 2 transition_type 0x1b6-0x1b6.7 (1)
0x1b0|                     03                        |       .        |      [39]: 3 transition_type 0x1b7-0x1b7.7 (1)
0x1b0|                        02                     |        .       |      [40]: 2 transition_type 0x1b8-0x1b8.7 (1)
0x1b0|                           03                  |         .      |      [41]: 3 transition_type 0x1b9-0x1b9.7 (1)
0x1b0|                              02               |          .     |      [42]: 2 transition_type 0x1ba-0x1ba.7 (1)
0x1b0|                                 03            |           .    |      [43]: 3 transition_type 0x1bb-0x1bb.7 (1)
0x1b0|                                    02         |            .   |      [44]: 2 transition_type 0x1bc-0x1bc.7 (1)
0x1b0|                                       03      |             .  |      [45]: 3 transition_type 0x1bd-0x1bd.7 (1)
0x1b0|                                          02   |              . |      [46]: 2 transition_type 0x1be-0x1be.7 (1)
0x1b0|                                             03|               .|      [47]: 3 transition_type 0x1bf-0x1bf.7 (1)
0x1c0|02                                             |.               |      [48]: 2 transition_type 0x1c0-0x1c0.7 (1)
0x1c0|   03                                          | .              |      [49]: 3 transition_type 0x1c1-0x1c1.7 (1)
0x1c0|      02                                       |  .             |      [50]: 2 transition_type 0x1c2-0x1c2.7 (1)
0x1c0|         03                                    |   .            |      [51]: 3 transition_type 0x1c3-0x1c3.7 (1)
0x1c0|            02                                 |    .           |      [52]: 2 transition_type 0x1c4-0x1c4.7 (1)
0x1c0|               03                              |     .          |      [53]: 3 transition_type 0x1c5-0x1c5.7 (1)
0x1c0|                  02                           |      .         |      [54]: 2 transition_type 0x1c6-0x1c6.7 (1)
0x1c0|                     03                        |       .        |      [55]: 3 transition_type 0x1c7-0x1c7.7 (1)
0x1c0|                        02                     |        .       |      [56]: 2 transition_type 0x1c8-0x1c8.7 (1)
0x1c0|                           03                  |         .      |      [57]: 3 transition_type 0x1c9-0x1c9.7 (1)
0x1c0|                              02               |          .     |      [58]: 2 transition_type 0x1ca-0x1ca.7 (1)
0x1c0|                                 03            |           .    |      [59]: 3 transition_type 0x1cb-0x1cb.7 (1)
0x1c0|                                    02         |            .   |      [60]: 2 transition_type 0x1cc-0x1cc.7 (1)
0x1c0|                                       03      |             .  |      [61]: 3 transition_type 0x1cd-0x1cd.7 (1)
0x1c0|                                          02   |              . |      [62]: 2 transition_type 0x1ce-0x1ce.7 (1)
0x1c0|                                             03|               .|      [63]: 3 transition_type 0x1cf-0x1cf.7 (1)
0x1d0|02                                             |.               |      [64]: 2 transition_type 0x1d0-0x1d0.7 (1)
0x1d0|   03                                          | .              |      [65]: 3 transition_type 0x1d1-0x1d1.7 (1)
0x1d0|      02                                       |  .             |      [66]: 2 transition_type 0x1d2-0x1d2.7 (1)
0x1d0|         03                                    |   .            |      [67]: 3 transition_type 0x1d3-0x1d3.7 (1)
0x1d0|            02                                 |    .           |      [68]: 2 transition_type 0x1d4-0x1d4.7 (1)
0x1d0|               03                              |     .          |      [69]: 3 transition_type 0x1d5-0x1d5.7 (1)
0x1d0|                  02                           |      .         |      [70]: 2 transition_type 0x1d6-0x1d6.7 (1)
0x1d0|                     03                        |       .        |      [71]: 3 transition_type 0x1d7-0x1d7.7 (1)
0x1d0|                        02                     |        .       |      [72]: 2 transition_type 0x1d8-0x1d8.7 (1)
0x1d0|                           03                  |         .      |      [73]: 3 transition_type 0x1d9-0x1d9.7 (1)
0x1d0|                              02               |          .     |      [74]: 2 transition_type 0x1da-0x1da.7 (1)
0x1d0|                                 03            |           .    |      [75]: 3 transition_type 0x1db-0x1db.7 (1)
0x1d0|                                    02         |            .   |      [76]: 2 transition_type 0x1dc-0x1dc.7 (1)
0x1d0|                                       03      |             .  |      [77]: 3 transition_type 0x1dd-0x1dd.7 (1)
0x1d0|                                          02   |              . |      [78]: 2 transition_type 0x1de-0x1de.7 (1)
0x1d0|                                             03|               .|      [79]: 3 transition_type 0x1df-0x1df.7 (1)
0x1e0|02                                             |.               |      [80]: 2 transition_type 0x1e0-0x1e0.7 (1)
0x1e0|   03                                          | .              |      [81]: 3 transition_type 0x1e1-0x1e1.7 (1)
0x1e0|      02                                       |  .             |      [82]: 2 transition_type 0x1e2-0x1e2.7 (1)
0x1e0|         03                                    |   .            |      [83]: 3 transition_type 0x1e3-0x1e3.7 (1)
0x1e0|            02                                 |    .           |      [84]: 2 transition_type 0x1e4-0x1e4.7 (1)
0x1e0|               03                              |     .          |      [85]: 3 transition_type 0x1e5-0x1e5.7 (1)
0x1e0|                  02                           |      .         |      [86]: 2 transition_type 0x1e6-0x1e6.7 (1)
0x1e0|                     03                        |       .        |      [87]: 3 transition_type 0x1e7-0x1e7.7 (1)
0x1e0|                        03                     |        .       |      [88]: 3 transition_type 0x1e8-0x1e8.7 (1)
     |                                               |                |    local_time_type_records[0:5]: 0x1e9-0x206.7 (30)
     |                                               |                |      [0]{}: local_time_type 0x1e9-0x1ee.7 (6)
0x1e0|                           ff ff cf 80         |         ....   |        utoff: -12416 (valid) 0x1e9-0x1ec.7 (4)
0x1e0|                                       00      |             .  |        dst: 0 (valid) 0x1ed-0x1ed.7 (1)
0x1e0|                                          00   |              . |        idx: 0 (valid) 0x1ee-0x1ee.7 (1)
     |                                               |                |      [1]{}: local_time_type 0x1ef-0x1f4.7 (6)
0x1e0|                                             ff|               .|        utoff: -10800 (valid) 0x1ef-0x1f2.7 (4)
0x1f0|ff d5 d0                                       |...             |
0x1f0|         00                                    |   .            |        dst: 0 (valid) 0x1f3-0x1f3.7 (1)
0x1f0|            04                                 |    .           |        idx: 4 (valid) 0x1f4-0x1f4.7 (1)
     |                                               |                |      [2]{}: local_time_type 0x1f5-0x1fa.7 (6)
0x1f0|               ff ff d5 d0                     |     ....       |        utoff: -10800 (valid) 0x1f5-0x1f8.7 (4)
0x1f0|                           00                  |         .      |        dst: 0 (valid) 0x1f9-0x1f9.7 (1)
0x1f0|                              04               |          .     |        idx: 4 (valid) 0x1fa-0x1fa.7 (1)
     |                                               |                |      [3]{}: local_time_type 0x1fb-0x200.7 (6)
0x1f0|                                 ff ff e3 e0   |           .... |        utoff: -7200 (valid) 0x1fb-0x1fe.7 (4)
0x1f0|                                             01|               .|        dst: 1 (valid) 0x1ff-0x1ff.7 (1)
0x200|08                                             |.               |        idx: 8 (valid) 0x200-0x200.7 (1)
     |                                               |                |      [4]{}: local_time_type 0x201-0x206.7 (6)
0x200|   ff ff e3 e0                                 | ....           |        utoff: -7200 (valid) 0x201-0x204.7 (4)
0x200|               01                              |     .          |        dst: 1 (valid) 0x205-0x205.7 (1)
0x200|                  08                           |      .         |        idx: 8 (valid) 0x206-0x206.7 (1)
     |                                               |                |    time_zone_designations[0:3]: 0x207-0x212.7 (12)
0x200|                     4c 4d 54 00               |       LMT.     |      [0]: "LMT" time_zone_designation 0x207-0x20a.7 (4)
0x200|                                 2d 30 33 00   |           -03. |      [1]: "-03" time_zone_designation 0x20b-0x20e.7 (4)
0x200|                                             2d|               -|      [2]: "-02" time_zone_designation 0x20f-0x212.7 (4)
0x210|30 32 00                                       |02.             |
     |                                               |                |    leap_second_records[0:27]: 0x213-0x2ea.7 (216)
     |                                               |                |      [0]{}: leap_second_record 0x213-0x21a.7 (8)
0x210|         04 b2 58 00                           |   ..X.         |        occur: "1972-07-01T00:00:00Z" (78796800) 0x213-0x216.7 (4)
0x210|                     00 00 00 01               |       ....     |        corr: 1 0x217-0x21a.7 (4)
     |                                               |                |      [1]{}: leap_second_record 0x21b-0x222.7 (8)
0x210|                                 05 a4 ec 01   |           .... |        occur: "1973-01-01T00:00:01Z" (94694401) 0x21b-0x21e.7 (4)
0x210|                                             00|               .|        corr: 2 0x21f-0x222.7 (4)
0x220|00 00 02                                       |...             |
     |                                               |                |      [2]{}: leap_second_record 0x223-0x22a.7 (8)
0x220|         07 86 1f 82                           |   ....         |        occur: "1974-01-01T00:00:02Z" (126230402) 0x223-0x226.7 (4)
0x220|                     00 00 00 03               |       ....     |        corr: 3 0x227-0x22a.7 (4)
     |                                               |                |      [3]{}: leap_second_record 0x22b-0x232.7 (8)
0x220|                                 09 67 53 03   |           .gS. |        occur: "1975-01-01T00:00:03Z" (157766403) 0x22b-0x22e.7 (4)
0x220|                                             00|               .|        corr: 4 0x22f-0x232.7 (4)
0x230|00 00 04                                       |...             |
     |                                               |                |      [4]{}: leap_second_record 0x233-0x23a.7 (8)
0x230|         0b 48 86 84                           |   .H..         |        occur: "1976-01-01T00:00:04Z" (189302404) 0x233-0x236.7 (4)
0x230|                     00 00 00 05               |       ....     |        corr: 5 0x237-0x23a.7 (4)
     |                                               |                |      [5]{}: leap_second_record 0x23b-0x242.7 (8)
0x230|                                 0d 2b 0b 85   |           .+.. |        occur: "1977-01-01T00:00:05Z" (220924805) 0x23b-0x23e.7 (4)
0x230|                                             00|               .|        corr: 6 0x23f-0x242.7 (4)
0x240|00 00 06                                       |...             |
     |                                               |                |      [6]{}: leap_second_record 0x243-0x24a.7 (8)
0x240|         0f 0c 3f 06                           |   ..?.         |        occur: "1978-01-01T00:00:06Z" (252460806) 0x243-0x246.7 (4)
0x240|                     00 00 00 07               |       ....     |        corr: 7 0x247-0x24a.7 (4)
     |                                               |                |      [7]{}: leap_second_record 0x24b-0x252.7 (8)
0x240|                                 10 ed 72 87   |           ..r. |        occur: "1979-01-01T00:00:07Z" (283996807) 0x24b-0x24e.7 (4)
0x240|                                             00|               .|        corr: 8 0x24f-0x252.7 (4)
0x250|00 00 08                                       |...             |
     |                                               |                |      [8]{}: leap_second_record 0x253-0x25a.7 (8)
0x250|         12 ce a6 08                           |   ....         |        occur: "1980-01-01T00:00:08Z" (315532808) 0x253-0x256.7 (4)
0x250|                     00 00 00 09               |       ....     |        corr: 9 0x257-0x25a.7 (4)
     |                                               |                |      [9]{}: leap_second_record 0x25b-0x262.7 (8)
0x250|                                 15 9f ca 89   |           .... |        occur: "1981-07-01T00:00:09Z" (362793609) 0x25b-0x25e.7 (4)
0x250|                                             00|               .|        corr: 10 0x25f-0x262.7 (4)
0x260|00 00 0a                                       |...             |
     |                                               |                |      [10]{}: leap_second_record 0x263-0x26a.7 (8)
0x260|         17 80 fe 0a                           |   ....         |        occur: "1982-07-01T00:00:10Z" (394329610) 0x263-0x266.7 (4)
0x260|                     00 00 00 0b               |       ....     |        corr: 11 0x267-0x26a.7 (4)
     |                                               |                |      [11]{}: leap_second_record 0x26b-0x272.7 (8)
0x260|                                 19 62 31 8b   |           .b1. |        occur: "1983-07-01T00:00:11Z" (425865611) 0x26b-0x26e.7 (4)
0x260|                                             00|               .|        corr: 12 0x26f-0x272.7 (4)
0x270|00 00 0c                                       |...             |
     |                                               |                |      [12]{}: leap_second_record 0x273-0x27a.7 (8)
0x270|         1d 25 ea 0c                           |   .%..         |        occur: "1985-07-01T00:00:12Z" (489024012) 0x273-0x276.7 (4)
0x270|                     00 00 00 0d               |       ....     |        corr: 13 0x277-0x27a.7 (4)
     |                                               |                |      [13]{}: leap_second_record 0x27b-0x282.7 (8)
0x270|                                 21 da e5 0d   |           !... |        occur: "1988-01-01T00:00:13Z" (567993613) 0x27b-0x27e.7 (4)
0x270|                                             00|               .|        corr: 14 0x27f-0x282.7 (4)
0x280|00 00 0e                                       |...             |
     |                                               |                |      [14]{}: leap_second_record 0x283-0x28a.7 (8)
0x280|         25 9e 9d 8e                           |   %...         |        occur: "1990-01-01T00:00:14Z" (631152014) 0x283-0x286.7 (4)
0x280|                     00 00 00 0f               |       ....     |        corr: 15 0x287-0x28a.7 (4)
     |                                               |                |      [15]{}: leap_second_record 0x28b-0x292.7 (8)
0x280|                                 27 7f d1 0f   |           '... |        occur: "1991-01-01T00:00:15Z" (662688015) 0x28b-0x28e.7 (4)
0x280|                                             00|               .|        corr: 16 0x28f-0x292.7 (4)
0x290|00 00 10                                       |...             |
     |                                               |                |      [16]{}: leap_second_record 0x293-0x29a.7 (8)
0x290|         2a 50 f5 90                           |   *P..         |        occur: "1992-07-01T00:00:16Z" (709948816) 0x293-0x296.7 (4)
0x290|                     00 00 00 11               |       ....     |        corr: 17 0x297-0x29a.7 (4)
     |                                               |                |      [17]{}: leap_second_record 0x29b-0x2a2.7 (8)
0x290|                                 2c 32 29 11   |           ,2). |        occur: "1993-07-01T00:00:17Z" (741484817) 0x29b-0x29e.7 (4)
0x290|                                             00|               .|        corr: 18 0x29f-0x2a2.7 (4)
0x2a0|00 00 12                                       |...             |
     |                                               |                |      [18]{}: leap_second_record 0x2a3-0x2aa.7 (8)
0x2a0|         2e 13 5c 92                           |   ..\.         |        occur: "1994-07-01T00:00:18Z" (773020818) 0x2a3-0x2a6.7 (4)
0x2a0|                     00 00 00 13               |       ....     |        corr: 19 0x2a7-0x2aa.7 (4)
     |                                               |                |      [19]{}: leap_second_record 0x2ab-0x2b2.7 (8)
0x2a0|                                 30 e7 24 13   |           0.$. |        occur: "1996-01-01T00:00:19Z" (820454419) 0x2ab-0x2ae.7 (4)
0x2a0|                                             00|               .|        corr: 20 0x2af-0x2b2.7 (4)
0x2b0|00 00 14                                       |...             |
     |                                               |                |      [20]{}: leap_second_record 0x2b3-0x2ba.7 (8)
0x2b0|         33 b8 48 94                           |   3.H.         |        occur: "1997-07-01T00:00:20Z" (867715220) 0x2b3-0x2b6.7 (4)
0x2b0|                     00 00 00 15               |       ....     |        corr: 21 0x2b7-0x2ba.7 (4)
     |                                               |                |      [21]{}: leap_second_record 0x2bb-0x2c2.7 (8)
0x2b0|                                 36 8c 10 15   |           6... |        occur: "1999-01-01T00:00:21Z" (915148821) 0x2bb-0x2be.7 (4)
0x2b0|                                             00|               .|        corr: 22 0x2bf-0x2c2.7 (4)
0x2c0|00 00 16                                       |...             |
     |                                               |                |      [22]{}: leap_second_record 0x2c3-0x2ca.7 (8)
0x2c0|         43 b7 1b 96                           |   C...         |        occur: "2006-01-01T00:00:22Z" (1136073622) 0x2c3-0x2c6.7 (4)
0x2c0|                     00 00 00 17               |       ....     |        corr: 23 0x2c7-0x2ca.7 (4)
     |                                               |                |      [23]{}: leap_second_record 0x2cb-0x2d2.7 (8)
0x2c0|                                 49 5c 07 97   |           I\.. |        occur: "2009-01-01T00:00:23Z" (1230768023) 0x2cb-0x2ce.7 (4)
0x2c0|                                             00|               .|        corr: 24 0x2cf-0x2d2.7 (4)
0x2d0|00 00 18                                       |...             |
     |                                               |                |      [24]{}: leap_second_record 0x2d3-0x2da.7 (8)
0x2d0|         4f ef 93 18                           |   O...         |        occur: "2012-07-01T00:00:24Z" (1341100824) 0x2d3-0x2d6.7 (4)
0x2d0|                     00 00 00 19               |       ....     |        corr: 25 0x2d7-0x2da.7 (4)
     |                                               |                |      [25]{}: leap_second_record 0x2db-0x2e2.7 (8)
0x2d0|                                 55 93 2d 99   |           U.-. |        occur: "2015-07-01T00:00:25Z" (1435708825) 0x2db-0x2de.7 (4)
0x2d0|                                             00|               .|        corr: 26 0x2df-0x2e2.7 (4)
0x2e0|00 00 1a                                       |...             |
     |                                               |                |      [26]{}: leap_second_record 0x2e3-0x2ea.7 (8)
0x2e0|         58 68 46 9a                           |   XhF.         |        occur: "2017-01-01T00:00:26Z" (1483228826) 0x2e3-0x2e6.7 (4)
0x2e0|                     00 00 00 1b               |       ....     |        corr: 27 0x2e7-0x2ea.7 (4)
     |                                               |                |    standard_wall_indicators[0:5]: 0x2eb-0x2ef.7 (5)
0x2e0|                                 00            |           .    |      [0]: 0 standard_wall_indicator (valid) 0x2eb-0x2eb.7 (1)
0x2e0|                                    00         |            .   |      [1]: 0 standard_wall_indicator (valid) 0x2ec-0x2ec.7 (1)
0x2e0|                                       01      |             .  |      [2]: 1 standard_wall_indicator (valid) 0x2ed-0x2ed.7 (1)
0x2e0|                                          01   |              . |      [3]: 1 standard_wall_indicator (valid) 0x2ee-0x2ee.7 (1)
0x2e0|                                             00|               .|      [4]: 0 standard_wall_indicator (valid) 0x2ef-0x2ef.7 (1)
     |                                               |                |    ut_local_indicators[0:5]: 0x2f0-0x2f4.7 (5)
0x2f0|00                                             |.               |      [0]: 0 ut_local_indicator (valid) 0x2f0-0x2f0.7 (1)
0x2f0|   00                                          | .              |      [1]: 0 ut_local_indicator (valid) 0x2f1-0x2f1.7 (1)
0x2f0|      01                                       |  .             |      [2]: 1 ut_local_indicator (valid) 0x2f2-0x2f2.7 (1)
0x2f0|         01                                    |   .            |      [3]: 1 ut_local_indicator (valid) 0x2f3-0x2f3.7 (1)
0x2f0|            00                                 |    .           |      [4]: 0 ut_local_indicator (valid) 0x2f4-0x2f4.7 (1)
     |                                               |                |  v2plusheader{}: 0x2f5-0x320.7 (44)
0x2f0|               54 5a 69 66                     |     TZif       |    magic: 0x545a6966 (valid) 0x2f5-0x2f8.7 (4)
0x2f0|                           32                  |         2      |    ver: "2" (0x32) (valid) 0x2f9-0x2f9.7 (1)
0x2f0|                              00 00 00 00 00 00|          ......|    reserved: raw bits 0x2fa-0x308.7 (15)
0x300|00 00 00 00 00 00 00 00 00                     |.........       |
0x300|                           00 00 00 05         |         ....   |    isutcnt: 5 0x309-0x30c.7 (4)
0x300|                                       00 00 00|             ...|    isstdcnt: 5 0x30d-0x310.7 (4)
0x310|05                                             |.               |
0x310|   00 00 00 1b                                 | ....           |    leapcnt: 27 0x311-0x314.7 (4)
0x310|               00 00 00 59                     |     ...Y       |    timecnt: 89 0x315-0x318.7 (4)
0x310|                           00 00 00 05         |         ....   |    typecnt: 5 0x319-0x31c.7 (4)
0x310|                                       00 00 00|             ...|    charcnt: 12 0x31d-0x320.7 (4)
0x320|0c                                             |.               |
     |                                               |                |  v2plusdatablock{}: 0x321-0x7b9.7 (1177)
     |                                               |                |    transition_times[0:89]: 0x321-0x5e8.7 (712)
0x320|   ff ff ff ff 9b 80 68 00                     | ......h.       |      [0]: "1916-07-28T03:26:56Z" (-1686083584) transition_time 0x321-0x328.7 (8)
0x320|                           00 00 00 00 13 4d 7c|         .....M||      [1]: "1980-04-06T05:00:09Z" (323845209) transition_time 0x329-0x330.7 (8)
0x330|59                                             |Y               |
0x330|   00 00 00 00 14 33 fa 99                     | .....3..       |      [2]: "1980-09-28T01:00:09Z" (338950809) transition_time 0x331-0x338.7 (8)
0x330|                           00 00 00 00 15 23 eb|         .....#.|      [3]: "1981-03-29T01:00:09Z" (354675609) transition_time 0x339-0x340.7 (8)
0x340|99                                             |.               |
0x340|   00 00 00 00 16 13 dc 9a                     | ........       |      [4]: "1981-09-27T01:00:10Z" (370400410) transition_time 0x341-0x348.7 (8)
0x340|                           00 00 00 00 17 03 cd|         .......|      [5]: "1982-03-28T01:00:10Z" (386125210) transition_time 0x349-0x350.7 (8)
0x350|9a                                             |.               |
0x350|   00 00 00 00 17 f3 be 9b                     | ........       |      [6]: "1982-09-26T01:00:11Z" (401850011) transition_time 0x351-0x358.7 (8)
0x350|                           00 00 00 00 18 e3 af|         .......|      [7]: "1983-03-27T01:00:11Z" (417574811) transition_time 0x359-0x360.7 (8)
0x360|9b                                             |.               |
0x360|   00 00 00 00 19 d3 a0 9c                     | ........       |      [8]: "1983-09-25T01:00:12Z" (433299612) transition_time 0x361-0x368.7 (8)
0x360|                           00 00 00 00 1a c3 91|         .......|      [9]: "1984-03-25T01:00:12Z" (449024412) transition_time 0x369-0x370.7 (8)
0x370|9c                                             |.               |
0x370|   00 00 00 00 1b bc bd 1c                     | ........       |      [10]: "1984-09-30T01:00:12Z" (465354012) transition_time 0x371-0x378.7 (8)
0x370|                           00 00 00 00 1c ac ae|         .......|      [11]: "1985-03-31T01:00:12Z" (481078812) transition_time 0x379-0x380.7 (8)
0x380|1c                                             |.               |
0x380|   00 00 00 00 1d 9c 9f 1d                     | ........       |      [12]: "1985-09-29T01:00:13Z" (496803613) transition_time 0x381-0x388.7 (8)
0x380|                           00 00 00 00 1e 8c 90|         .......|      [13]: "1986-03-30T01:00:13Z" (512528413) transition_time 0x389-0x390.7 (8)
0x390|1d                                             |.               |
0x390|   00 00 00 00 1f 7c 81 1d                     | .....|..       |      [14]: "1986-09-28T01:00:13Z" (528253213) transition_time 0x391-0x398.7 (8)
0x390|                           00 00 00 00 20 6c 72|         .... lr|      [15]: "1987-03-29T01:00:13Z" (543978013) transition_time 0x399-0x3a0.7 (8)
0x3a0|1d                                             |.               |
0x3a0|   00 00 00 00 21 5c 63 1d                     | ....!\c.       |      [16]: "1987-09-27T01:00:13Z" (559702813) transition_time 0x3a1-0x3a8.7 (8)
0x3a0|                           00 00 00 00 22 4c 54|         ...."LT|      [17]: "1988-03-27T01:00:14Z" (575427614) transition_time 0x3a9-0x3b0.7 (8)
0x3b0|1e                                             |.               |
0x3b0|   00 00 00 00 23 3c 45 1e                     | ....#<E.       |      [18]: "1988-09-25T01:00:14Z" (591152414) transition_time 0x3b1-0x3b8.7 (8)
0x3b0|                           00 00 00 00 24 2c 36|         ....$,6|      [19]: "1989-03-26T01:00:14Z" (606877214) transition_time 0x3b9-0x3c0.7 (8)
0x3c0|1e                                             |.               |
0x3c0|   00 00 00 00 25 1c 27 1e                     | ....%.'.       |      [20]: "1989-09-24T01:00:14Z" (622602014) transition_time 0x3c1-0x3c8.7 (8)
0x3c0|                           00 00 00 00 26 0c 18|         ....&..|      [21]: "1990-03-25T01:00:15Z" (638326815) transition_time 0x3c9-0x3d0.7 (8)
0x3d0|1f                                             |.               |
0x3d0|   00 00 00 00 27 05 43 9f                     | ....'.C.       |      [22]: "1990-09-30T01:00:15Z" (654656415) transition_time 0x3d1-0x3d8.7 (8)
0x3d0|                           00 00 00 00 27 f5 34|         ....'.4|      [23]: "1991-03-31T01:00:16Z" (670381216) transition_time 0x3d9-0x3e0.7 (8)
0x3e0|a0                                             |.               |
0x3e0|   00 00 00 00 28 e5 25 a0                     | ....(.%.       |      [24]: "1991-09-29T01:00:16Z" (686106016) transition_time 0x3e1-0x3e8.7 (8)
0x3e0|                           00 00 00 00 29 d5 16|         ....)..|      [25]: "1992-03-29T01:00:16Z" (701830816) transition_time 0x3e9-0x3f0.7 (8)
0x3f0|a0                                             |.               |
0x3f0|   00 00 00 00 2a c5 07 a1                     | ....*...       |      [26]: "1992-09-27T01:00:17Z" (717555617) transition_time 0x3f1-0x3f8.7 (8)
0x3f0|                           00 00 00 00 2b b4 f8|         ....+..|      [27]: "1993-03-28T01:00:17Z" (733280417) transition_time 0x3f9-0x400.7 (8)
0x400|a1                                             |.               |
0x400|   00 00 00 00 2c a4 e9 a2                     | ....,...       |      [28]: "1993-09-26T01:00:18Z" (749005218) transition_time 0x401-0x408.7 (8)
0x400|                           00 00 00 00 2d 94 da|         ....-..|      [29]: "1994-03-27T01:00:18Z" (764730018) transition_time 0x409-0x410.7 (8)
0x410|a2                                             |.               |
0x410|   00 00 00 00 2e 84 cb a3                     | ........       |      [30]: "1994-09-25T01:00:19Z" (780454819) transition_time 0x411-0x418.7 (8)
0x410|                           00 00 00 00 2f 74 bc|         ..../t.|      [31]: "1995-03-26T01:00:19Z" (796179619) transition_time 0x419-0x420.7 (8)
0x420|a3                                             |.               |
0x420|   00 00 00 00 30 64 ad a3                     | ....0d..       |      [32]: "1995-09-24T01:00:19Z" (811904419) transition_time 0x421-0x428.7 (8)
0x420|                           00 00 00 00 31 5d d9|         ....1].|      [33]: "1996-03-31T01:00:20Z" (828234020) transition_time 0x429-0x430.7 (8)
0x430|24                                             |$               |
0x430|   00 00 00 00 32 72 b4 24                     | ....2r.$       |      [34]: "1996-10-27T01:00:20Z" (846378020) transition_time 0x431-0x438.7 (8)
0x430|                           00 00 00 00 33 3d bb|         ....3=.|      [35]: "1997-03-30T01:00:20Z" (859683620) transition_time 0x439-0x440.7 (8)
0x440|24                                             |$               |
0x440|   00 00 00 00 34 52 96 25                     | ....4R.%       |      [36]: "1997-10-26T01:00:21Z" (877827621) transition_time 0x441-0x448.7 (8)
0x440|                           00 00 00 00 35 1d 9d|         ....5..|      [37]: "1998-03-29T01:00:21Z" (891133221) transition_time 0x449-0x450.7 (8)
0x450|25                                             |%               |
0x450|   00 00 00 00 36 32 78 25                     | ....62x%       |      [38]: "1998-10-25T01:00:21Z" (909277221) transition_time 0x451-0x458.7 (8)
0x450|                           00 00 00 00 36 fd 7f|         ....6..|      [39]: "1999-03-28T01:00:22Z" (922582822) transition_time 0x459-0x460.7 (8)
0x460|26                                             |&               |
0x460|   00 00 00 00 38 1b 94 a6                     | ....8...       |      [40]: "1999-10-31T01:00:22Z" (941331622) transition_time 0x461-0x468.7 (8)
0x460|                           00 00 00 00 38 dd 61|         ....8.a|      [41]: "2000-03-26T01:00:22Z" (954032422) transition_time 0x469-0x470.7 (8)
0x470|26                                             |&               |
0x470|   00 00 00 00 39 fb 76 a6                     | ....9.v.       |      [42]: "2000-10-29T01:00:22Z" (972781222) transition_time 0x471-0x478.7 (8)
0x470|                           00 00 00 00 3a bd 43|         ....:.C|      [43]: "2001-03-25T01:00:22Z" (985482022) transition_time 0x479-0x480.7 (8)
0x480|26                                             |&               |
0x480|   00 00 00 00 3b db 58 a6                     | ....;.X.       |      [44]: "2001-10-28T01:00:22Z" (1004230822) transition_time 0x481-0x488.7 (8)
0x480|                           00 00 00 00 3c a6 5f|         ....<._|      [45]: "2002-03-31T01:00:22Z" (1017536422) transition_time 0x489-0x490.7 (8)
0x490|a6                                             |.               |
0x490|   00 00 00 00 3d bb 3a a6                     | ....=.:.       |      [46]: "2002-10-27T01:00:22Z" (1035680422) transition_time 0x491-0x498.7 (8)
0x490|                           00 00 00 00 3e 86 41|         ....>.A|      [47]: "2003-03-30T01:00:22Z" (1048986022) transition_time 0x499-0x4a0.7 (8)
0x4a0|a6                                             |.               |
0x4a0|   00 00 00 00 3f 9b 1c a6                     | ....?...       |      [48]: "2003-10-26T01:00:22Z" (1067130022) transition_time 0x4a1-0x4a8.7 (8)
0x4a0|                           00 00 00 00 40 66 23|         ....@f#|      [49]: "2004-03-28T01:00:22Z" (1080435622) transition_time 0x4a9-0x4b0.7 (8)
0x4b0|a6                                             |.               |
0x4b0|   00 00 00 00 41 84 39 26                     | ....A.9&       |      [50]: "2004-10-31T01:00:22Z" (1099184422) transition_time 0x4b1-0x4b8.7 (8)
0x4b0|                           00 00 00 00 42 46 05|         ....BF.|      [51]: "2005-03-27T01:00:22Z" (1111885222) transition_time 0x4b9-0x4c0.7 (8)
0x4c0|a6                                             |.               |
0x4c0|   00 00 00 00 43 64 1b 26                     | ....Cd.&       |      [52]: "2005-10-30T01:00:22Z" (1130634022) transition_time 0x4c1-0x4c8.7 (8)
0x4c0|                           00 00 00 00 44 25 e7|         ....D%.|      [53]: "2006-03-26T01:00:23Z" (1143334823) transition_time 0x4c9-0x4d0.7 (8)
0x4d0|a7                                             |.               |
0x4d0|   00 00 00 00 45 43 fd 27                     | ....EC.'       |      [54]: "2006-10-29T01:00:23Z" (1162083623) transition_time 0x4d1-0x4d8.7 (8)
0x4d0|                           00 00 00 00 46 05 c9|         ....F..|      [55]: "2007-03-25T01:00:23Z" (1174784423) transition_time 0x4d9-0x4e0.7 (8)
0x4e0|a7                                             |.               |
0x4e0|   00 00 00 00 47 23 df 27                     | ....G#.'       |      [56]: "2007-10-28T01:00:23Z" (1193533223) transition_time 0x4e1-0x4e8.7 (8)
0x4e0|                           00 00 00 00 47 ee e6|         ....G..|      [57]: "2008-03-30T01:00:23Z" (1206838823) transition_time 0x4e9-0x4f0.7 (8)
0x4f0|27                                             |'               |
0x4f0|   00 00 00 00 49 03 c1 27                     | ....I..'       |      [58]: "2008-10-26T01:00:23Z" (1224982823) transition_time 0x4f1-0x4f8.7 (8)
0x4f0|                           00 00 00 00 49 ce c8|         ....I..|      [59]: "2009-03-29T01:00:24Z" (1238288424) transition_time 0x4f9-0x500.7 (8)
0x500|28                                             |(               |
0x500|   00 00 00 00 4a e3 a3 28                     | ....J..(       |      [60]: "2009-10-25T01:00:24Z" (1256432424) transition_time 0x501-0x508.7 (8)
0x500|                           00 00 00 00 4b ae aa|         ....K..|      [61]: "2010-03-28T01:00:24Z" (1269738024) transition_time 0x509-0x510.7 (8)
0x510|28                                             |(               |
0x510|   00 00 00 00 4c cc bf a8                     | ....L...       |      [62]: "2010-10-31T01:00:24Z" (1288486824) transition_time 0x511-0x518.7 (8)
0x510|                           00 00 00 00 4d 8e 8c|         ....M..|      [63]: "2011-03-27T01:00:24Z" (1301187624) transition_time 0x519-0x520.7 (8)
0x520|28                                             |(               |
0x520|   00 00 00 00 4e ac a1 a8                     | ....N...       |      [64]: "2011-10-30T01:00:24Z" (1319936424) transition_time 0x521-0x528.7 (8)
0x520|                           00 00 00 00 4f 6e 6e|         ....Onn|      [65]: "2012-03-25T01:00:24Z" (1332637224) transition_time 0x529-0x530.7 (8)
0x530|28                                             |(               |
0x530|   00 00 00 00 50 8c 83 a9                     | ....P...       |      [66]: "2012-10-28T01:00:25Z" (1351386025) transition_time 0x531-0x538.7 (8)
0x530|                           00 00 00 00 51 57 8a|         ....QW.|      [67]: "2013-03-31T01:00:25Z" (1364691625) transition_time 0x539-0x540.7 (8)
0x540|a9                                             |.               |
0x540|   00 00 00 00 52 6c 65 a9                     | ....Rle.       |      [68]: "2013-10-27T01:00:25Z" (1382835625) transition_time 0x541-0x548.7 (8)
0x540|                           00 00 00 00 53 37 6c|         ....S7l|      [69]: "2014-03-30T01:00:25Z" (1396141225) transition_time 0x549-0x550.7 (8)
0x550|a9                                             |.               |
0x550|   00 00 00 00 54 4c 47 a9                     | ....TLG.       |      [70]: "2014-10-26T01:00:25Z" (1414285225) transition_time 0x551-0x558.7 (8)
0x550|                           00 00 00 00 55 17 4e|         ....U.N|      [71]: "2015-03-29T01:00:25Z" (1427590825) transition_time 0x559-0x560.7 (8)
0x560|a9                                             |.               |
0x560|   00 00 00 00 56 2c 29 aa                     | ....V,).       |      [72]: "2015-10-25T01:00:26Z" (1445734826) transition_time 0x561-0x568.7 (8)
0x560|                           00 00 00 00 56 f7 30|         ....V.0|      [73]: "2016-03-27T01:00:26Z" (1459040426) transition_time 0x569-0x570.7 (8)
0x570|aa                                             |.               |
0x570|   00 00 00 00 58 15 46 2a                     | ....X.F*       |      [74]: "2016-10-30T01:00:26Z" (1477789226) transition_time 0x571-0x578.7 (8)
0x570|                           00 00 00 00 58 d7 12|         ....X..|      [75]: "2017-03-26T01:00:27Z" (1490490027) transition_time 0x579-0x580.7 (8)
0x580|ab                                             |.               |
0x580|   00 00 00 00 59 f5 28 2b                     | ....Y.(+       |      [76]: "2017-10-29T01:00:27Z" (1509238827) transition_time 0x581-0x588.7 (8)
0x580|                           00 00 00 00 5a b6 f4|         ....Z..|      [77]: "2018-03-25T01:00:27Z" (1521939627) transition_time 0x589-0x590.7 (8)
0x590|ab                                             |.               |
0x590|   00 00 00 00 5b d5 0a 2b                     | ....[..+       |      [78]: "2018-10-28T01:00:27Z" (1540688427) transition_time 0x591-0x598.7 (8)
0x590|                           00 00 00 00 5c a0 11|         ....\..|      [79]: "2019-03-31T01:00:27Z" (1553994027) transition_time 0x599-0x5a0.7 (8)
0x5a0|2b                                             |+               |
0x5a0|   00 00 00 00 5d b4 ec 2b                     | ....]..+       |      [80]: "2019-10-27T01:00:27Z" (1572138027) transition_time 0x5a1-0x5a8.7 (8)
0x5a0|                           00 00 00 00 5e 7f f3|         ....^..|      [81]: "2020-03-29T01:00:27Z" (1585443627) transition_time 0x5a9-0x5b0.7 (8)
0x5b0|2b                                             |+               |
0x5b0|   00 00 00 00 5f 94 ce 2b                     | ...._..+       |      [82]: "2020-10-25T01:00:27Z" (1603587627) transition_time 0x5b1-0x5b8.7 (8)
0x5b0|                           00 00 00 00 60 5f d5|         ....`_.|      [83]: "2021-03-28T01:00:27Z" (1616893227) transition_time 0x5b9-0x5c0.7 (8)
0x5c0|2b                                             |+               |
0x5c0|   00 00 00 00 61 7d ea ab                     | ....a}..       |      [84]: "2021-10-31T01:00:27Z" (1635642027) transition_time 0x5c1-0x5c8.7 (8)
0x5c0|                           00 00 00 00 62 3f b7|         ....b?.|      [85]: "2022-03-27T01:00:27Z" (1648342827) transition_time 0x5c9-0x5d0.7 (8)
0x5d0|2b                                             |+               |
0x5d0|   00 00 00 00 63 5d cc ab                     | ....c]..       |      [86]: "2022-10-30T01:00:27Z" (1667091627) transition_time 0x5d1-0x5d8.7 (8)
0x5d0|                           00 00 00 00 64 1f 99|         ....d..|      [87]: "2023-03-26T01:00:27Z" (1679792427) transition_time 0x5d9-0x5e0.7 (8)
0x5e0|2b                                             |+               |
0x5e0|   00 00 00 00 64 9b 78 1b                     | ....d.x.       |      [88]: "2023-06-28T00:00:27Z" (1687910427) transition_time 0x5e1-0x5e8.7 (8)
     |                                               |                |    transition_types[0:89]: 0x5e9-0x641.7 (89)
0x5e0|                           01                  |         .      |      [0]: 1 transition_type 0x5e9-0x5e9.7 (1)
0x5e0|                              04               |          .     |      [1]: 4 transition_type 0x5ea-0x5ea.7 (1)
0x5e0|                                 02            |           .    |      [2]: 2 transition_type 0x5eb-0x5eb.7 (1)
0x5e0|                                    03         |            .   |      [3]: 3 transition_type 0x5ec-0x5ec.7 (1)
0x5e0|                                       02      |             .  |      [4]: 2 transition_type 0x5ed-0x5ed.7 (1)
0x5e0|                                          03   |              . |      [5]: 3 transition_type 0x5ee-0x5ee.7 (1)
0x5e0|                                             02|               .|      [6]: 2 transition_type 0x5ef-0x5ef.7 (1)
0x5f0|03                                             |.               |      [7]: 3 transition_type 0x5f0-0x5f0.7 (1)
0x5f0|   02                                          | .              |      [8]: 2 transition_type 0x5f1-0x5f1.7 (1)
0x5f0|      03                                       |  .             |      [9]: 3 transition_type 0x5f2-0x5f2.7 (1)
0x5f0|         02                                    |   .            |      [10]: 2 transition_type 0x5f3-0x5f3.7 (1)
0x5f0|            03                                 |    .           |      [11]: 3 transition_type 0x5f4-0x5f4.7 (1)
0x5f0|               02                              |     .          |      [12]: 2 transition_type 0x5f5-0x5f5.7 (1)
0x5f0|                  03                           |      .         |      [13]: 3 transition_type 0x5f6-0x5f6.7 (1)
0x5f0|                     02                        |       .        |      [14]: 2 transition_type 0x5f7-0x5f7.7 (1)
0x5f0|                        03                     |        .       |      [15]: 3 transition_type 0x5f8-0x5f8.7 (1)
0x5f0|                           02                  |         .      |      [16]: 2 transition_type 0x5f9-0x5f9.7 (1)
0x5f0|                              03               |          .     |      [17]: 3 transition_type 0x5fa-0x5fa.7 (1)
0x5f0|                                 02            |           .    |      [18]: 2 transition_type 0x5fb-0x5fb.7 (1)
0x5f0|                                    03         |            .   |      [19]: 3 transition_type 0x5fc-0x5fc.7 (1)
0x5f0|                                       02      |             .  |      [20]: 2 transition_type 0x5fd-0x5fd.7 (1)
0x5f0|                                          03   |              . |      [21]: 3 transition_type 0x5fe-0x5fe.7 (1)
0x5f0|                                             02|               .|      [22]: 2 transition_type 0x5ff-0x5ff.7 (1)
0x600|03                                             |.               |      [23]: 3 transition_type 0x600-0x600.7 (1)
0x600|   02                                          | .              |      [24]: 2 transition_type 0x601-0x601.7 (1)
0x600|      03                                       |  .             |      [25]: 3 transition_type 0x602-0x602.7 (1)
0x600|         02                                    |   .            |      [26]: 2 transition_type 0x603-0x603.7 (1)
0x600|            03                                 |    .           |      [27]: 3 transition_type 0x604-0x604.7 (1)
0x600|               02                              |     .          |      [28]: 2 transition_type 0x605-0x605.7 (1)
0x600|                  03                           |      .         |      [29]: 3 transition_type 0x606-0x606.7 (1)
0x600|                     02                        |       .        |      [30]: 2 transition_type 0x607-0x607.7 (1)
0x600|                        03                     |        .       |      [31]: 3 transition_type 0x608-0x608.7 (1)
0x600|                           02                  |         .      |      [32]: 2 transition_type 0x609-0x609.7 (1)
0x600|                              03               |          .     |      [33]: 3 transition_type 0x60a-0x60a.7 (1)
0x600|                                 02            |           .    |      [34]: 2 transition_type 0x60b-0x60b.7 (1)
0x600|                                    03         |            .   |      [35]: 3 transition_type 0x60c-0x60c.7 (1)
0x600|                                       02      |             .  |      [36]: 2 transition_type 0x60d-0x60d.7 (1)
0x600|                                          03   |              . |      [37]: 3 transition_type 0x60e-0x60e.7 (1)
0x600|                                             02|               .|      [38]: 2 transition_type 0x60f-0x60f.7 (1)
0x610|03                                             |.               |      [39]: 3 transition_type 0x610-0x610.7 (1)
0x610|   02                                          | .              |      [40]: 2 transition_type 0x611-0x611.7 (1)
0x610|      03                                       |  .             |      [41]: 3 transition_type 0x612-0x612.7 (1)
0x610|         02                                    |   .            |      [42]: 2 transition_type 0x613-0x613.7 (1)
0x610|            03                                 |    .           |      [43]: 3 transition_type 0x614-0x614.7 (1)
0x610|               02                              |     .          |      [44]: 2 transition_type 0x615-0x615.7 (1)
0x610|                  03                           |      .         |      [45]: 3 transition_type 0x616-0x616.7 (1)
0x610|                     02                        |       .        |      [46]: 2 transition_type 0x617-0x617.7 (1)
0x610|                        03                     |        .       |      [47]: 3 transition_type 0x618-0x618.7 (1)
0x610|                           02                  |         .      |      [48]: 2 transition_type 0x619-0x619.7 (1)
0x610|                              03               |          .     |      [49]: 3 transition_type 0x61a-0x61a.7 (1)
0x610|                                 02            |           .    |      [50]: 2 transition_type 0x61b-0x61b.7 (1)
0x610|                                    03         |            .   |      [51]: 3 transition_type 0x61c-0x61c.7 (1)
0x610|                                       02      |             .  |      [52]: 2 transition_type 0x61d-0x61d.7 (1)
0x610|                                          03   |              . |      [53]: 3 transition_type 0x61e-0x61e.7 (1)
0x610|                                             02|               .|      [54]: 2 transition_type 0x61f-0x61f.7 (1)
0x620|03                                             |.               |      [55]: 3 transition_type 0x620-0x620.7 (1)
0x620|   02                                          | .              |      [56]: 2 transition_type 0x621-0x621.7 (1)
0x620|      03                                       |  .             |      [57]: 3 transition_type 0x622-0x622.7 (1)
0x620|         02                                    |   .            |      [58]: 2 transition_type 0x623-0x623.7 (1)
0x620|            03                                 |    .           |      [59]: 3 transition_type 0x624-0x624.7 (1)
0x620|               02                              |     .          |      [60]: 2 transition_type 0x625-0x625.7 (1)
0x620|                  03                           |      .         |      [61]: 3 transition_type 0x626-0x626.7 (1)
0x620|                     02                        |       .        |      [62]: 2 transition_type 0x627-0x627.7 (1)
0x620|                        03                     |        .       |      [63]: 3 transition_type 0x628-0x628.7 (1)
0x620|                           02                  |         .      |      [64]: 2 transition_type 0x629-0x629.7 (1)
0x620|                              03               |          .     |      [65]: 3 transition_type 0x62a-0x62a.7 (1)
0x620|                                 02            |           .    |      [66]: 2 transition_type 0x62b-0x62b.7 (1)
0x620|                                    03         |            .   |      [67]: 3 transition_type 0x62c-0x62c.7 (1)
0x620|                                       02      |             .  |      [68]: 2 transition_type 0x62d-0x62d.7 (1)
0x620|                                          03   |              . |      [69]: 3 transition_type 0x62e-0x62e.7 (1)
0x620|                                             02|               .|      [70]: 2 transition_type 0x62f-0x62f.7 (1)
0x630|03                                             |.               |      [71]: 3 transition_type 0x630-0x630.7 (1)
0x630|   02                                          | .              |      [72]: 2 transition_type 0x631-0x631.7 (1)
0x630|      03                                       |  .             |      [73]: 3 transition_type 0x632-0x632.7 (1)
0x630|         02                                    |   .            |      [74]: 2 transition_type 0x633-0x633.7 (1)
0x630|            03                                 |    .           |      [75]: 3 transition_type 0x634-0x634.7 (1)
0x630|               02                              |     .          |      [76]: 2 transition_type 0x635-0x635.7 (1)
0x630|                  03                           |      .         |      [77]: 3 transition_type 0x636-0x636.7 (1)
0x630|                     02                        |       .        |      [78]: 2 transition_type 0x637-0x637.7 (1)
0x630|                        03                     |        .       |      [79]: 3 transition_type 0x638-0x638.7 (1)
0x630|                           02                  |         .      |      [80]: 2 transition_type 0x639-0x639.7 (1)
0x630|                              03               |          .     |      [81]: 3 transition_type 0x63a-0x63a.7 (1)
0x630|                                 02            |           .    |      [82]: 2 transition_type 0x63b-0x63b.7 (1)
0x630|                                    03         |            .   |      [83]: 3 transition_type 0x63c-0x63c.7 (1)
0x630|                                       02      |             .  |      [84]: 2 transition_type 0x63d-0x63d.7 (1)
0x630|                                          03   |              . |      [85]: 3 transition_type 0x63e-0x63e.7 (1)
0x630|                                             02|               .|      [86]: 2 transition_type 0x63f-0x63f.7 (1)
0x640|03                                             |.               |      [87]: 3 transition_type 0x640-0x640.7 (1)
0x640|   03                                          | .              |      [88]: 3 transition_type 0x641-0x641.7 (1)
     |                                               |                |    local_time_type_records[0:5]: 0x642-0x65f.7 (30)
     |                                               |                |      [0]{}: local_time_type 0x642-0x647.7 (6)
0x640|      ff ff cf 80                              |  ....          |        utoff: -12416 (valid) 0x642-0x645.7 (4)
0x640|                  00                           |      .         |        dst: 0 (valid) 0x646-0x646.7 (1)
0x640|                     00                        |       .        |        idx: 0 (valid) 0x647-0x647.7 (1)
     |                                               |                |      [1]{}: local_time_type 0x648-0x64d.7 (6)
0x640|                        ff ff d5 d0            |        ....    |        utoff: -10800 (valid) 0x648-0x64b.7 (4)
0x640|                                    00         |            .   |        dst: 0 (valid) 0x64c-0x64c.7 (1)
0x640|                                       04      |             .  |        idx: 4 (valid) 0x64d-0x64d.7 (1)
     |                                               |                |      [2]{}: local_time_type 0x64e-0x653.7 (6)
0x640|                                          ff ff|              ..|        utoff: -10800 (valid) 0x64e-0x651.7 (4)
0x650|d5 d0                                          |..              |
0x650|      00                                       |  .             |        dst: 0 (valid) 0x652-0x652.7 (1)
0x650|         04                                    |   .            |        idx: 4 (valid) 0x653-0x653.7 (1)
     |                                               |                |      [3]{}: local_time_type 0x654-0x659.7 (6)
0x650|            ff ff e3 e0                        |    ....        |        utoff: -7200 (valid) 0x654-0x657.7 (4)
0x650|                        01                     |        .       |        dst: 1 (valid) 0x658-0x658.7 (1)
0x650|                           08                  |         .      |        idx: 8 (valid) 0x659-0x659.7 (1)
     |                                               |                |      [4]{}: local_time_type 0x65a-0x65f.7 (6)
0x650|                              ff ff e3 e0      |          ....  |        utoff: -7200 (valid) 0x65a-0x65d.7 (4)
0x650|                                          01   |              . |        dst: 1 (valid) 0x65e-0x65e.7 (1)
0x650|                                             08|               .|        idx: 8 (valid) 0x65f-0x65f.7 (1)
     |                                               |                |    time_zone_designations[0:3]: 0x660-0x66b.7 (12)
0x660|4c 4d 54 00                                    |LMT.            |      [0]: "LMT" time_zone_designation 0x660-0x663.7 (4)
0x660|            2d 30 33 00                        |    -03.        |      [1]: "-03" time_zone_designation 0x664-0x667.7 (4)
0x660|                        2d 30 32 00            |        -02.    |      [2]: "-02" time_zone_designation 0x668-0x66b.7 (4)
     |                                               |                |    leap_second_records[0:27]: 0x66c-0x7af.7 (324)
     |                                               |                |      [0]{}: leap_second_record 0x66c-0x677.7 (12)
0x660|                                    00 00 00 00|            ....|        occur: "1972-07-01T00:00:00Z" (78796800) 0x66c-0x673.7 (8)
0x670|04 b2 58 00                                    |..X.            |
0x670|            00 00 00 01                        |    ....        |        corr: 1 0x674-0x677.7 (4)
     |                                               |                |      [1]{}: leap_second_record 0x678-0x683.7 (12)
0x670|                        00 00 00 00 05 a4 ec 01|        ........|        occur: "1973-01-01T00:00:01Z" (94694401) 0x678-0x67f.7 (8)
0x680|00 00 00 02                                    |....            |        corr: 2 0x680-0x683.7 (4)
     |                                               |                |      [2]{}: leap_second_record 0x684-0x68f.7 (12)
0x680|            00 00 00 00 07 86 1f 82            |    ........    |        occur: "1974-01-01T00:00:02Z" (126230402) 0x684-0x68b.7 (8)
0x680|                                    00 00 00 03|            ....|        corr: 3 0x68c-0x68f.7 (4)
     |                                               |                |      [3]{}: leap_second_record 0x690-0x69b.7 (12)
0x690|00 00 00 00 09 67 53 03                        |.....gS.        |        occur: "1975-01-01T00:00:03Z" (157766403) 0x690-0x697.7 (8)
0x690|                        00 00 00 04            |        ....    |        corr: 4 0x698-0x69b.7 (4)
     |                                               |                |      [4]{}: leap_second_record 0x69c-0x6a7.7 (12)
0x690|                                    00 00 00 00|            ....|        occur: "1976-01-01T00:00:04Z" (189302404) 0x69c-0x6a3.7 (8)
0x6a0|0b 48 86 84                                    |.H..            |
0x6a0|            00 00 00 05                        |    ....        |        corr: 5 0x6a4-0x6a7.7 (4)
     |                                               |                |      [5]{}: leap_second_record 0x6a8-0x6b3.7 (12)
0x6a0|                        00 00 00 00 0d 2b 0b 85|        .....+..|        occur: "1977-01-01T00:00:05Z" (220924805) 0x6a8-0x6af.7 (8)
0x6b0|00 00 00 06                                    |....            |        corr: 6 0x6b0-0x6b3.7 (4)
     |                                               |                |      [6]{}: leap_second_record 0x6b4-0x6bf.7 (12)
0x6b0|            00 00 00 00 0f 0c 3f 06            |    ......?.    |        occur: "1978-01-01T00:00:06Z" (252460806) 0x6b4-0x6bb.7 (8)
0x6b0|                                    00 00 00 07|            ....|        corr: 7 0x6bc-0x6bf.7 (4)
     |                                               |                |      [7]{}: leap_second_record 0x6c0-0x6cb.7 (12)
0x6c0|00 00 00 00 10 ed 72 87                        |......r.        |        occur: "1979-01-01T00:00:07Z" (283996807) 0x6c0-0x6c7.7 (8)
0x6c0|                        00 00 00 08            |        ....    |        corr: 8 0x6c8-0x6cb.7 (4)
     |                                               |                |      [8]{}: leap_second_record 0x6cc-0x6d7.7 (12)
0x6c0|                                    00 00 00 00|            ....|        occur: "1980-01-01T00:00:08Z" (315532808) 0x6cc-0x6d3.7 (8)
0x6d0|12 ce a6 08                                    |....            |
0x6d0|            00 00 00 09                        |    ....        |        corr: 9 0x6d4-0x6d7.7 (4)
     |                                               |                |      [9]{}: leap_second_record 0x6d8-0x6e3.7 (12)
0x6d0|                        00 00 00 00 15 9f ca 89|        ........|        occur: "1981-07-01T00:00:09Z" (362793609) 0x6d8-0x6df.7 (8)
0x6e0|00 00 00 0a                                    |....            |        corr: 10 0x6e0-0x6e3.7 (4)
     |                                               |                |      [10]{}: leap_second_record 0x6e4-0x6ef.7 (12)
0x6e0|            00 00 00 00 17 80 fe 0a            |    ........    |        occur: "1982-07-01T00:00:10Z" (394329610) 0x6e4-0x6eb.7 (8)
0x6e0|                                    00 00 00 0b|            ....|        corr: 11 0x6ec-0x6ef.7 (4)
     |                                               |                |      [11]{}: leap_second_record 0x6f0-0x6fb.7 (12)
0x6f0|00 00 00 00 19 62 31 8b                        |.....b1.        |        occur: "1983-07-01T00:00:11Z" (425865611) 0x6f0-0x6f7.7 (8)
0x6f0|                        00 00 00 0c            |        ....    |        corr: 12 0x6f8-0x6fb.7 (4)
     |                                               |                |      [12]{}: leap_second_record 0x6fc-0x707.7 (12)
0x6f0|                                    00 00 00 00|            ....|        occur: "1985-07-01T00:00:12Z" (489024012) 0x6fc-0x703.7 (8)
0x700|1d 25 ea 0c                                    |.%..            |
0x700|            00 00 00 0d                        |    ....        |        corr: 13 0x704-0x707.7 (4)
     |                                               |                |      [13]{}: leap_second_record 0x708-0x713.7 (12)
0x700|                        00 00 00 00 21 da e5 0d|        ....!...|        occur: "1988-01-01T00:00:13Z" (567993613) 0x708-0x70f.7 (8)
0x710|00 00 00 0e                                    |....            |        corr: 14 0x710-0x713.7 (4)
     |                                               |                |      [14]{}: leap_second_record 0x714-0x71f.7 (12)
0x710|            00 00 00 00 25 9e 9d 8e            |    ....%...    |        occur: "1990-01-01T00:00:14Z" (631152014) 0x714-0x71b.7 (8)
0x710|                                    00 00 00 0f|            ....|        corr: 15 0x71c-0x71f.7 (4)
     |                                               |                |      [15]{}: leap_second_record 0x720-0x72b.7 (12)
0x720|00 00 00 00 27 7f d1 0f                        |....'...        |        occur: "1991-01-01T00:00:15Z" (662688015) 0x720-0x727.7 (8)
0x720|                        00 00 00 10            |        ....    |        corr: 16 0x728-0x72b.7 (4)
     |                                               |                |      [16]{}: leap_second_record 0x72c-0x737.7 (12)
0x720|                                    00 00 00 00|            ....|        occur: "1992-07-01T00:00:16Z" (709948816) 0x72c-0x733.7 (8)
0x730|2a 50 f5 90                                    |*P..            |
0x730|            00 00 00 11                        |    ....        |        corr: 17 0x734-0x737.7 (4)
     |                                               |                |      [17]{}: leap_second_record 0x738-0x743.7 (12)
0x730|                        00 00 00 00 2c 32 29 11|        ....,2).|        occur: "1993-07-01T00:00:17Z" (741484817) 0x738-0x73f.7 (8)
0x740|00 00 00 12                                    |....            |        corr: 18 0x740-0x743.7 (4)
     |                                               |                |      [18]{}: leap_second_record 0x744-0x74f.7 (12)
0x740|            00 00 00 00 2e 13 5c 92            |    ......\.    |        occur: "1994-07-01T00:00:18Z" (773020818) 0x744-0x74b.7 (8)
0x740|                                    00 00 00 13|            ....|        corr: 19 0x74c-0x74f.7 (4)
     |                                               |                |      [19]{}: leap_second_record 0x750-0x75b.7 (12)
0x750|00 00 00 00 30 e7 24 13                        |....0.$.        |        occur: "1996-01-01T00:00:19Z" (820454419) 0x750-0x757.7 (8)
0x750|                        00 00 00 14            |        ....    |        corr: 20 0x758-0x75b.7 (4)
     |                                               |                |      [20]{}: leap_second_record 0x75c-0x767.7 (12)
0x750|                                    00 00 00 00|            ....|        occur: "1997-07-01T00:00:20Z" (867715220) 0x75c-0x763.7 (8)
0x760|33 b8 48 94                                    |3.H.            |
0x760|            00 00 00 15                        |    ....        |        corr: 21 0x764-0x767.7 (4)
     |                                               |                |      [21]{}: leap_second_record 0x768-0x773.7 (12)
0x760|                        00 00 00 00 36 8c 10 15|        ....6...|        occur: "1999-01-01T00:00:21Z" (915148821) 0x768-0x76f.7 (8)
0x770|00 00 00 16                                    |....            |        corr: 22 0x770-0x773.7 (4)
     |                                               |                |      [22]{}: leap_second_record 0x774-0x77f.7 (12)
0x770|            00 00 00 00 43 b7 1b 96            |    ....C...    |        occur: "2006-01-01T00:00:22Z" (1136073622) 0x774-0x77b.7 (8)
0x770|                                    00 00 00 17|            ....|        corr: 23 0x77c-0x77f.7 (4)
     |                                               |                |      [23]{}: leap_second_record 0x780-0x78b.7 (12)
0x780|00 00 00 00 49 5c 07 97                        |....I\..        |        occur: "2009-01-01T00:00:23Z" (1230768023) 0x780-0x787.7 (8)
0x780|                        00 00 00 18            |        ....    |        corr: 24 0x788-0x78b.7 (4)
     |                                               |                |      [24]{}: leap_second_record 0x78c-0x797.7 (12)
0x780|                                    00 00 00 00|            ....|        occur: "2012-07-01T00:00:24Z" (1341100824) 0x78c-0x793.7 (8)
0x790|4f ef 93 18                                    |O...            |
0x790|            00 00 00 19                        |    ....        |        corr: 25 0x794-0x797.7 (4)
     |                                               |                |      [25]{}: leap_second_record 0x798-0x7a3.7 (12)
0x790|                        00 00 00 00 55 93 2d 99|        ....U.-.|        occur: "2015-07-01T00:00:25Z" (1435708825) 0x798-0x79f.7 (8)
0x7a0|00 00 00 1a                                    |....            |        corr: 26 0x7a0-0x7a3.7 (4)
     |                                               |                |      [26]{}: leap_second_record 0x7a4-0x7af.7 (12)
0x7a0|            00 00 00 00 58 68 46 9a            |    ....XhF.    |        occur: "2017-01-01T00:00:26Z" (1483228826) 0x7a4-0x7ab.7 (8)
0x7a0|                                    00 00 00 1b|            ....|        corr: 27 0x7ac-0x7af.7 (4)
     |                                               |                |    standard_wall_indicators[0:5]: 0x7b0-0x7b4.7 (5)
0x7b0|00                                             |.               |      [0]: 0 standard_wall_indicator (valid) 0x7b0-0x7b0.7 (1)
0x7b0|   00                                          | .              |      [1]: 0 standard_wall_indicator (valid) 0x7b1-0x7b1.7 (1)
0x7b0|      01                                       |  .             |      [2]: 1 standard_wall_indicator (valid) 0x7b2-0x7b2.7 (1)
0x7b0|         01                                    |   .            |      [3]: 1 standard_wall_indicator (valid) 0x7b3-0x7b3.7 (1)
0x7b0|            00                                 |    .           |      [4]: 0 standard_wall_indicator (valid) 0x7b4-0x7b4.7 (1)
     |                                               |                |    ut_local_indicators[0:5]: 0x7b5-0x7b9.7 (5)
0x7b0|               00                              |     .          |      [0]: 0 ut_local_indicator (valid) 0x7b5-0x7b5.7 (1)
0x7b0|                  00                           |      .         |      [1]: 0 ut_local_indicator (valid) 0x7b6-0x7b6.7 (1)
0x7b0|                     01                        |       .        |      [2]: 1 ut_local_indicator (valid) 0x7b7-0x7b7.7 (1)
0x7b0|                        01                     |        .       |      [3]: 1 ut_local_indicator (valid) 0x7b8-0x7b8.7 (1)
0x7b0|                           00                  |         .      |      [4]: 0 ut_local_indicator (valid) 0x7b9-0x7b9.7 (1)
     |                                               |                |  footer{}: 0x7ba-0x7bb.7 (2)
0x7b0|                              0a               |          .     |    nl1: 10 (valid) 0x7ba-0x7ba.7 (1)
     |                                               |                |    tz_string: "" 0x7bb-NA (0)
0x7b0|                                 0a|           |           .|   |    nl2: 10 (valid) 0x7bb-0x7bb.7 (1)
