$ fq -d tzif dv Omsk
     |00 01 02 03 04 05 06 07 08 09 0a 0b 0c 0d 0e 0f|0123456789abcdef|.{}: Omsk (tzif) 0x0-0x6cb.7 (1740)
     |                                               |                |  v1header{}: 0x0-0x2b.7 (44)
0x000|54 5a 69 66                                    |TZif            |    magic: 0x545a6966 (valid) 0x0-0x3.7 (4)
0x000|            32                                 |    2           |    ver: "2" (0x32) (valid) 0x4-0x4.7 (1)
0x000|               00 00 00 00 00 00 00 00 00 00 00|     ...........|    reserved: raw bits 0x5-0x13.7 (15)
0x010|00 00 00 00                                    |....            |
0x010|            00 00 00 00                        |    ....        |    isutcnt: 0 0x14-0x17.7 (4)
0x010|                        00 00 00 0b            |        ....    |    isstdcnt: 11 0x18-0x1b.7 (4)
0x010|                                    00 00 00 1b|            ....|    leapcnt: 27 0x1c-0x1f.7 (4)
0x020|00 00 00 42                                    |...B            |    timecnt: 66 0x20-0x23.7 (4)
0x020|            00 00 00 0b                        |    ....        |    typecnt: 11 0x24-0x27.7 (4)
0x020|                        00 00 00 10            |        ....    |    charcnt: 16 0x28-0x2b.7 (4)
     |                                               |                |  v1datablock{}: 0x2c-0x2aa.7 (639)
     |                                               |                |    transition_times[0:66]: 0x2c-0x133.7 (264)
0x020|                                    a1 b3 40 b6|            ..@.|      [0]: "1919-11-13T19:06:30Z" (-1582088010) transition_time 0x2c-0x2f.7 (4)
0x030|b5 a3 ef 30                                    |...0            |      [1]: "1930-06-20T19:00:00Z" (-1247547600) transition_time 0x30-0x33.7 (4)
0x030|            15 27 7d a9                        |    .'}.        |      [2]: "1981-03-31T18:00:09Z" (354909609) transition_time 0x34-0x37.7 (4)
0x030|                        16 18 b2 1a            |        ....    |      [3]: "1981-09-30T17:00:10Z" (370717210) transition_time 0x38-0x3b.7 (4)
0x030|                                    17 08 b1 2a|            ...*|      [4]: "1982-03-31T18:00:10Z" (386445610) transition_time 0x3c-0x3f.7 (4)
0x040|17 f9 e5 9b                                    |....            |      [5]: "1982-09-30T17:00:11Z" (402253211) transition_time 0x40-0x43.7 (4)
0x040|            18 e9 e4 ab                        |    ....        |      [6]: "1983-03-31T18:00:11Z" (417981611) transition_time 0x44-0x47.7 (4)
0x040|                        19 db 19 1c            |        ....    |      [7]: "1983-09-30T17:00:12Z" (433789212) transition_time 0x48-0x4b.7 (4)
0x040|                                    1a cc 69 ac|            ..i.|      [8]: "1984-03-31T18:00:12Z" (449604012) transition_time 0x4c-0x4f.7 (4)
0x050|1b bc 76 cc                                    |..v.            |      [9]: "1984-09-29T20:00:12Z" (465336012) transition_time 0x50-0x53.7 (4)
0x050|            1c ac 67 cc                        |    ..g.        |      [10]: "1985-03-30T20:00:12Z" (481060812) transition_time 0x54-0x57.7 (4)
0x050|                        1d 9c 58 cd            |        ..X.    |      [11]: "1985-09-28T20:00:13Z" (496785613) transition_time 0x58-0x5b.7 (4)
0x050|                                    1e 8c 49 cd|            ..I.|      [12]: "1986-03-29T20:00:13Z" (512510413) transition_time 0x5c-0x5f.7 (4)
0x060|1f 7c 3a cd                                    |.|:.            |      [13]: "1986-09-27T20:00:13Z" (528235213) transition_time 0x60-0x63.7 (4)
0x060|            20 6c 2b cd                        |     l+.        |      [14]: "1987-03-28T20:00:13Z" (543960013) transition_time 0x64-0x67.7 (4)
0x060|                        21 5c 1c cd            |        !\..    |      [15]: "1987-09-26T20:00:13Z" (559684813) transition_time 0x68-0x6b.7 (4)
0x060|                                    22 4c 0d ce|            "L..|      [16]: "1988-03-26T20:00:14Z" (575409614) transition_time 0x6c-0x6f.7 (4)
0x070|23 3b fe ce                                    |#;..            |      [17]: "1988-09-24T20:00:14Z" (591134414) transition_time 0x70-0x73.7 (4)
0x070|            24 2b ef ce                        |    $+..        |      [18]: "1989-03-25T20:00:14Z" (606859214) transition_time 0x74-0x77.7 (4)
0x070|                        25 1b e0 ce            |        %...    |      [19]: "1989-09-23T20:00:14Z" (622584014) transition_time 0x78-0x7b.7 (4)
0x070|                                    26 0b d1 cf|            &...|      [20]: "1990-03-24T20:00:15Z" (638308815) transition_time 0x7c-0x7f.7 (4)
0x080|27 04 fd 4f                                    |'..O            |      [21]: "1990-09-29T20:00:15Z" (654638415) transition_time 0x80-0x83.7 (4)
0x080|            27 f4 ee 50                        |    '..P        |      [22]: "1991-03-30T20:00:16Z" (670363216) transition_time 0x84-0x87.7 (4)
0x080|                        28 e4 ed 60            |        (..`    |      [23]: "1991-09-28T21:00:16Z" (686091616) transition_time 0x88-0x8b.7 (4)
0x080|                                    29 78 95 60|            )x.`|      [24]: "1992-01-18T21:00:16Z" (695768416) transition_time 0x8c-0x8f.7 (4)
0x090|29 d4 d0 50                                    |)..P            |      [25]: "1992-03-28T20:00:16Z" (701812816) transition_time 0x90-0x93.7 (4)
0x090|            2a c4 c1 51                        |    *..Q        |      [26]: "1992-09-26T20:00:17Z" (717537617) transition_time 0x94-0x97.7 (4)
0x090|                        2b b4 b2 51            |        +..Q    |      [27]: "1993-03-27T20:00:17Z" (733262417) transition_time 0x98-0x9b.7 (4)
0x090|                                    2c a4 a3 52|            ,..R|      [28]: "1993-09-25T20:00:18Z" (748987218) transition_time 0x9c-0x9f.7 (4)
0x0a0|2d 94 94 52                                    |-..R            |      [29]: "1994-03-26T20:00:18Z" (764712018) transition_time 0xa0-0xa3.7 (4)
0x0a0|            2e 84 85 53                        |    ...S        |      [30]: "1994-09-24T20:00:19Z" (780436819) transition_time 0xa4-0xa7.7 (4)
0x0a0|                        2f 74 76 53            |        /tvS    |      [31]: "1995-03-25T20:00:19Z" (796161619) transition_time 0xa8-0xab.7 (4)
0x0a0|                                    30 64 67 53|            0dgS|      [32]: "1995-09-23T20:00:19Z" (811886419) transition_time 0xac-0xaf.7 (4)
0x0b0|31 5d 92 d4                                    |1]..            |      [33]: "1996-03-30T20:00:20Z" (828216020) transition_time 0xb0-0xb3.7 (4)
0x0b0|            32 72 6d d4                        |    2rm.        |      [34]: "1996-10-26T20:00:20Z" (846360020) transition_time 0xb4-0xb7.7 (4)
0x0b0|                        33 3d 74 d4            |        3=t.    |      [35]: "1997-03-29T20:00:20Z" (859665620) transition_time 0xb8-0xbb.7 (4)
0x0b0|                                    34 52 4f d5|            4RO.|      [36]: "1997-10-25T20:00:21Z" (877809621) transition_time 0xbc-0xbf.7 (4)
0x0c0|35 1d 56 d5                                    |5.V.            |      [37]: "1998-03-28T20:00:21Z" (891115221) transition_time 0xc0-0xc3.7 (4)
0x0c0|            36 32 31 d5                        |    621.        |      [38]: "1998-10-24T20:00:21Z" (909259221) transition_time 0xc4-0xc7.7 (4)
0x0c0|                        36 fd 38 d6            |        6.8.    |      [39]: "1999-03-27T20:00:22Z" (922564822) transition_time 0xc8-0xcb.7 (4)
0x0c0|                                    38 1b 4e 56|            8.NV|      [40]: "1999-10-30T20:00:22Z" (941313622) transition_time 0xcc-0xcf.7 (4)
0x0d0|38 dd 1a d6                                    |8...            |      [41]: "2000-03-25T20:00:22Z" (954014422) transition_time 0xd0-0xd3.7 (4)
0x0d0|            39 fb 30 56                        |    9.0V        |      [42]: "2000-10-28T20:00:22Z" (972763222) transition_time 0xd4-0xd7.7 (4)
0x0d0|                        3a bc fc d6            |        :...    |      [43]: "2001-03-24T20:00:22Z" (985464022) transition_time 0xd8-0xdb.7 (4)
0x0d0|                                    3b db 12 56|            ;..V|      [44]: "2001-10-27T20:00:22Z" (1004212822) transition_time 0xdc-0xdf.7 (4)
0x0e0|3c a6 19 56                                    |<..V            |      [45]: "2002-03-30T20:00:22Z" (1017518422) transition_time 0xe0-0xe3.7 (4)
0x0e0|            3d ba f4 56                        |    =..V        |      [46]: "2002-10-26T20:00:22Z" (1035662422) transition_time 0xe4-0xe7.7 (4)
0x0e0|                        3e 85 fb 56            |        >..V    |      [47]: "2003-03-29T20:00:22Z" (1048968022) transition_time 0xe8-0xeb.7 (4)
0x0e0|                                    3f 9a d6 56|            ?..V|      [48]: "2003-10-25T20:00:22Z" (1067112022) transition_time 0xec-0xef.7 (4)
0x0f0|40 65 dd 56                                    |@e.V            |      [49]: "2004-03-27T20:00:22Z" (1080417622) transition_time 0xf0-0xf3.7 (4)
0x0f0|            41 83 f2 d6                        |    A...        |      [50]: "2004-10-30T20:00:22Z" (1099166422) transition_time 0xf4-0xf7.7 (4)
0x0f0|                        42 45 bf 56            |        BE.V    |      [51]: "2005-03-26T20:00:22Z" (1111867222) transition_time 0xf8-0xfb.7 (4)
0x0f0|                                    43 63 d4 d6|            Cc..|      [52]: "2005-10-29T20:00:22Z" (1130616022) transition_time 0xfc-0xff.7 (4)
0x100|44 25 a1 57                                    |D%.W            |      [53]: "2006-03-25T20:00:23Z" (1143316823) transition_time 0x100-0x103.7 (4)
0x100|            45 43 b6 d7                        |    EC..        |      [54]: "2006-10-28T20:00:23Z" (1162065623) transition_time 0x104-0x107.7 (4)
0x100|                        46 05 83 57            |        F..W    |      [55]: "2007-03-24T20:00:23Z" (1174766423) transition_time 0x108-0x10b.7 (4)
0x100|                                    47 23 98 d7|            G#..|      [56]: "2007-10-27T20:00:23Z" (1193515223) transition_time 0x10c-0x10f.7 (4)
0x110|47 ee 9f d7                                    |G...            |      [57]: "2008-03-29T20:00:23Z" (1206820823) transition_time 0x110-0x113.7 (4)
0x110|            49 03 7a d7                        |    I.z.        |      [58]: "2008-10-25T20:00:23Z" (1224964823) transition_time 0x114-0x117.7 (4)
0x110|                        49 ce 81 d8            |        I...    |      [59]: "2009-03-28T20:00:24Z" (1238270424) transition_time 0x118-0x11b.7 (4)
0x110|                                    4a e3 5c d8|            J.\.|      [60]: "2009-10-24T20:00:24Z" (1256414424) transition_time 0x11c-0x11f.7 (4)
0x120|4b ae 63 d8                                    |K.c.            |      [61]: "2010-03-27T20:00:24Z" (1269720024) transition_time 0x120-0x123.7 (4)
0x120|            4c cc 79 58                        |    L.yX        |      [62]: "2010-10-30T20:00:24Z" (1288468824) transition_time 0x124-0x127.7 (4)
0x120|                        4d 8e 45 d8            |        M.E.    |      [63]: "2011-03-26T20:00:24Z" (1301169624) transition_time 0x128-0x12b.7 (4)
0x120|                                    54 4b f3 49|            TK.I|      [64]: "2014-10-25T19:00:25Z" (1414263625) transition_time 0x12c-0x12f.7 (4)
0x130|64 9b 78 1b                                    |d.x.            |      [65]: "2023-06-28T00:00:27Z" (1687910427) transition_time 0x130-0x133.7 (4)
     |                                               |                |    transition_types[0:66]: 0x134-0x175.7 (66)
0x130|            01                                 |    .           |      [0]: 1 transition_type 0x134-0x134.7 (1)
0x130|               03                              |     .          |      [1]: 3 transition_type 0x135-0x135.7 (1)
0x130|                  02                           |      .         |      [2]: 2 transition_type 0x136-0x136.7 (1)
0x130|                     03                        |       .        |      [3]: 3 transition_type 0x137-0x137.7 (1)
0x130|                        02                     |        .       |      [4]: 2 transition_type 0x138-0x138.7 (1)
0x130|                           03                  |         .      |      [5]: 3 transition_type 0x139-0x139.7 (1)
0x130|                              02               |          .     |      [6]: 2 transition_type 0x13a-0x13a.7 (1)
0x130|                                 03            |           .    |      [7]: 3 transition_type 0x13b-0x13b.7 (1)
0x130|                                    02         |            .   |      [8]: 2 transition_type 0x13c-0x13c.7 (1)
0x130|                                       04      |             .  |      [9]: 4 transition_type 0x13d-0x13d.7 (1)
0x130|                                          05   |              . |      [10]: 5 transition_type 0x13e-0x13e.7 (1)
0x130|                                             04|               .|      [11]: 4 transition_type 0x13f-0x13f.7 (1)
0x140|05                                             |.               |      [12]: 5 transition_type 0x140-0x140.7 (1)
0x140|   04                                          | .              |      [13]: 4 transition_type 0x141-0x141.7 (1)
0x140|      05                                       |  .             |      [14]: 5 transition_type 0x142-0x142.7 (1)
0x140|         04                                    |   .            |      [15]: 4 transition_type 0x143-0x143.7 (1)
0x140|            05                                 |    .           |      [16]: 5 transition_type 0x144-0x144.7 (1)
0x140|               04                              |     .          |      [17]: 4 transition_type 0x145-0x145.7 (1)
0x140|                  05                           |      .         |      [18]: 5 transition_type 0x146-0x146.7 (1)
0x140|                     04                        |       .        |      [19]: 4 transition_type 0x147-0x147.7 (1)
0x140|                        05                     |        .       |      [20]: 5 transition_type 0x148-0x148.7 (1)
0x140|                           04                  |         .      |      [21]: 4 transition_type 0x149-0x149.7 (1)
0x140|                              06               |          .     |      [22]: 6 transition_type 0x14a-0x14a.7 (1)
0x140|                                 07            |           .    |      [23]: 7 transition_type 0x14b-0x14b.7 (1)
0x140|                                    04         |            .   |      [24]: 4 transition_type 0x14c-0x14c.7 (1)
0x140|                                       05      |             .  |      [25]: 5 transition_type 0x14d-0x14d.7 (1)
0x140|                                          04   |              . |      [26]: 4 transition_type 0x14e-0x14e.7 (1)
0x140|                                             05|               .|      [27]: 5 transition_type 0x14f-0x14f.7 (1)
0x150|04                                             |.               |      [28]: 4 transition_type 0x150-0x150.7 (1)
0x150|   05                                          | .              |      [29]: 5 transition_type 0x151-0x151.7 (1)
0x150|      04                                       |  .             |      [30]: 4 transition_type 0x152-0x152.7 (1)
0x150|         05                                    |   .            |      [31]: 5 transition_type 0x153-0x153.7 (1)
0x150|            04                                 |    .           |      [32]: 4 transition_type 0x154-0x154.7 (1)
0x150|               05                              |     .          |      [33]: 5 transition_type 0x155-0x155.7 (1)
0x150|                  04                           |      .         |      [34]: 4 transition_type 0x156-0x156.7 (1)
0x150|                     05                        |       .        |      [35]: 5 transition_type 0x157-0x157.7 (1)
0x150|                        04                     |        .       |      [36]: 4 transition_type 0x158-0x158.7 (1)
0x150|                           05                  |         .      |      [37]: 5 transition_type 0x159-0x159.7 (1)
0x150|                              04               |          .     |      [38]: 4 transition_type 0x15a-0x15a.7 (1)
0x150|                                 05            |           .    |      [39]: 5 transition_type 0x15b-0x15b.7 (1)
0x150|                                    04         |            .   |      [40]: 4 transition_type 0x15c-0x15c.7 (1)
0x150|                                       05      |             .  |      [41]: 5 transition_type 0x15d-0x15d.7 (1)
0x150|                                          04   |              . |      [42]: 4 transition_type 0x15e-0x15e.7 (1)
0x150|                                             05|               .|      [43]: 5 transition_type 0x15f-0x15f.7 (1)
0x160|04                                             |.               |      [44]: 4 transition_type 0x160-0x160.7 (1)
0x160|   05                                          | .              |      [45]: 5 transition_type 0x161-0x161.7 (1)
0x160|      04                                       |  .             |      [46]: 4 transition_type 0x162-0x162.7 (1)
0x160|         05                                    |   .            |      [47]: 5 transition_type 0x163-0x163.7 (1)
0x160|            04                                 |    .           |      [48]: 4 transition_type 0x164-0x164.7 (1)
0x160|               05                              |     .          |      [49]: 5 transition_type 0x165-0x165.7 (1)
0x160|                  04                           |      .         |      [50]: 4 transition_type 0x166-0x166.7 (1)
0x160|                     05                        |       .        |      [51]: 5 transition_type 0x167-0x167.7 (1)
0x160|                        04                     |        .       |      [52]: 4 transition_type 0x168-0x168.7 (1)
0x160|                           05                  |         .      |      [53]: 5 transition_type 0x169-0x169.7 (1)
0x160|                              04               |          .     |      [54]: 4 transition_type 0x16a-0x16a.7 (1)
0x160|                                 05            |           .    |      [55]: 5 transition_type 0x16b-0x16b.7 (1)
0x160|                                    04         |            .   |      [56]: 4 transition_type 0x16c-0x16c.7 (1)
0x160|                                       05      |             .  |      [57]: 5 transition_type 0x16d-0x16d.7 (1)
0x160|                                          04   |              . |      [58]: 4 transition_type 0x16e-0x16e.7 (1)
0x160|                                             05|               .|      [59]: 5 transition_type 0x16f-0x16f.7 (1)
0x170|04                                             |.               |      [60]: 4 transition_type 0x170-0x170.7 (1)
0x170|   05                                          | .              |      [61]: 5 transition_type 0x171-0x171.7 (1)
0x170|      04                                       |  .             |      [62]: 4 transition_type 0x172-0x172.7 (1)
0x170|         08                                    |   .            |      [63]: 8 transition_type 0x173-0x173.7 (1)
0x170|            04                                 |    .           |      [64]: 4 transition_type 0x174-0x174.7 (1)
0x170|               04                              |     .          |      [65]: 4 transition_type 0x175-0x175.7 (1)
     |                                               |                |    local_time_type_records[0:11]: 0x176-0x1b7.7 (66)
     |                                               |                |      [0]{}: local_time_type 0x176-0x17b.7 (6)
0x170|                  00 00 44 ca                  |      ..D.      |        utoff: 17610 (valid) 0x176-0x179.7 (4)
0x170|                              00               |          .     |        dst: 0 (valid) 0x17a-0x17a.7 (1)
0x170|                                 00            |           .    |        idx: 0 (valid) 0x17b-0x17b.7 (1)
     |                                               |                |      [1]{}: local_time_type 0x17c-0x181.7 (6)
0x170|                                    00 00 46 50|            ..FP|        utoff: 18000 (valid) 0x17c-0x17f.7 (4)
0x180|00                                             |.               |        dst: 0 (valid) 0x180-0x180.7 (1)
0x180|   04                                          | .              |        idx: 4 (valid) 0x181-0x181.7 (1)
     |                                               |                |      [2]{}: local_time_type 0x182-0x187.7 (6)
0x180|      00 00 62 70                              |  ..bp          |        utoff: 25200 (valid) 0x182-0x185.7 (4)
0x180|                  01                           |      .         |        dst: 1 (valid) 0x186-0x186.7 (1)
0x180|                     08                        |       .        |        idx: 8 (valid) 0x187-0x187.7 (1)
     |                                               |                |      [3]{}: local_time_type 0x188-0x18d.7 (6)
0x180|                        00 00 54 60            |        ..T`    |        utoff: 21600 (valid) 0x188-0x18b.7 (4)
0x180|                                    00         |            .   |        dst: 0 (valid) 0x18c-0x18c.7 (1)
0x180|                                       0c      |             .  |        idx: 12 (valid) 0x18d-0x18d.7 (1)
     |                                               |                |      [4]{}: local_time_type 0x18e-0x193.7 (6)
0x180|                                          00 00|              ..|        utoff: 21600 (valid) 0x18e-0x191.7 (4)
0x190|54 60                                          |T`              |
0x190|      00                                       |  .             |        dst: 0 (valid) 0x192-0x192.7 (1)
0x190|         0c                                    |   .            |        idx: 12 (valid) 0x193-0x193.7 (1)
     |                                               |                |      [5]{}: local_time_type 0x194-0x199.7 (6)
0x190|            00 00 62 70                        |    ..bp        |        utoff: 25200 (valid) 0x194-0x197.7 (4)
0x190|                        01                     |        .       |        dst: 1 (valid) 0x198-0x198.7 (1)
0x190|                           08                  |         .      |        idx: 8 (valid) 0x199-0x199.7 (1)
     |                                               |                |      [6]{}: local_time_type 0x19a-0x19f.7 (6)
0x190|                              00 00 54 60      |          ..T`  |        utoff: 21600 (valid) 0x19a-0x19d.7 (4)
0x190|                                          01   |              . |        dst: 1 (valid) 0x19e-0x19e.7 (1)
0x190|                                             0c|               .|        idx: 12 (valid) 0x19f-0x19f.7 (1)
     |                                               |                |      [7]{}: local_time_type 0x1a0-0x1a5.7 (6)
0x1a0|00 00 46 50                                    |..FP            |        utoff: 18000 (valid) 0x1a0-0x1a3.7 (4)
0x1a0|            00                                 |    .           |        dst: 0 (valid) 0x1a4-0x1a4.7 (1)
0x1a0|               04                              |     .          |        idx: 4 (valid) 0x1a5-0x1a5.7 (1)
     |                                               |                |      [8]{}: local_time_type 0x1a6-0x1ab.7 (6)
0x1a0|                  00 00 62 70                  |      ..bp      |        utoff: 25200 (valid) 0x1a6-0x1a9.7 (4)
0x1a0|                              00               |          .     |        dst: 0 (valid) 0x1aa-0x1aa.7 (1)
0x1a0|                                 08            |           .    |        idx: 8 (valid) 0x1ab-0x1ab.7 (1)
     |                                               |                |      [9]{}: local_time_type 0x1ac-0x1b1.7 (6)
0x1a0|                                    00 00 62 70|            ..bp|        utoff: 25200 (valid) 0x1ac-0x1af.7 (4)
0x1b0|01                                             |.               |        dst: 1 (valid) 0x1b0-0x1b0.7 (1)
0x1b0|   08                                          | .              |        idx: 8 (valid) 0x1b1-0x1b1.7 (1)
     |                                               |                |      [10]{}: local_time_type 0x1b2-0x1b7.7 (6)
0x1b0|      00 00 54 60                              |  ..T`          |        utoff: 21600 (valid) 0x1b2-0x1b5.7 (4)
0x1b0|                  00                           |      .         |        dst: 0 (valid) 0x1b6-0x1b6.7 (1)
0x1b0|                     0c                        |       .        |        idx: 12 (valid) 0x1b7-0x1b7.7 (1)
     |                                               |                |    time_zone_designations[0:4]: 0x1b8-0x1c7.7 (16)
0x1b0|                        4c 4d 54 00            |        LMT.    |      [0]: "LMT" time_zone_designation 0x1b8-0x1bb.7 (4)
0x1b0|                                    2b 30 35 00|            +05.|      [1]: "+05" time_zone_designation 0x1bc-0x1bf.7 (4)
0x1c0|2b 30 37 00                                    |+07.            |      [2]: "+07" time_zone_designation 0x1c0-0x1c3.7 (4)
0x1c0|            2b 30 36 00                        |    +06.        |      [3]: "+06" time_zone_designation 0x1c4-0x1c7.7 (4)
     |                                               |                |    leap_second_records[0:27]: 0x1c8-0x29f.7 (216)
     |                                               |                |      [0]{}: leap_second_record 0x1c8-0x1cf.7 (8)
0x1c0|                        04 b2 58 00            |        ..X.    |        occur: "1972-07-01T00:00:00Z" (78796800) 0x1c8-0x1cb.7 (4)
0x1c0|                                    00 00 00 01|            ....|        corr: 1 0x1cc-0x1cf.7 (4)
     |                                               |                |      [1]{}: leap_second_record 0x1d0-0x1d7.7 (8)
0x1d0|05 a4 ec 01                                    |....            |        occur: "1973-01-01T00:00:01Z" (94694401) 0x1d0-0x1d3.7 (4)
0x1d0|            00 00 00 02                        |    ....        |        corr: 2 0x1d4-0x1d7.7 (4)
     |                                               |                |      [2]{}: leap_second_record 0x1d8-0x1df.7 (8)
0x1d0|                        07 86 1f 82            |        ....    |        occur: "1974-01-01T00:00:02Z" (126230402) 0x1d8-0x1db.7 (4)
0x1d0|                                    00 00 00 03|            ....|        corr: 3 0x1dc-0x1df.7 (4)
     |                                               |                |      [3]{}: leap_second_record 0x1e0-0x1e7.7 (8)
0x1e0|09 67 53 03                                    |.gS.            |        occur: "1975-01-01T00:00:03Z" (157766403) 0x1e0-0x1e3.7 (4)
0x1e0|            00 00 00 04                        |    ....        |        corr: 4 0x1e4-0x1e7.7 (4)
     |                                               |                |      [4]{}: leap_second_record 0x1e8-0x1ef.7 (8)
0x1e0|                        0b 48 86 84            |        .H..    |        occur: "1976-01-01T00:00:04Z" (189302404) 0x1e8-0x1eb.7 (4)
0x1e0|                                    00 00 00 05|            ....|        corr: 5 0x1ec-0x1ef.7 (4)
     |                                               |                |      [5]{}: leap_second_record 0x1f0-0x1f7.7 (8)
0x1f0|0d 2b 0b 85                                    |.+..            |        occur: "1977-01-01T00:00:05Z" (220924805) 0x1f0-0x1f3.7 (4)
0x1f0|            00 00 00 06                        |    ....        |        corr: 6 0x1f4-0x1f7.7 (4)
     |                                               |                |      [6]{}: leap_second_record 0x1f8-0x1ff.7 (8)
0x1f0|                        0f 0c 3f 06            |        ..?.    |        occur: "1978-01-01T00:00:06Z" (252460806) 0x1f8-0x1fb.7 (4)
0x1f0|                                    00 00 00 07|            ....|        corr: 7 0x1fc-0x1ff.7 (4)
     |                                               |                |      [7]{}: leap_second_record 0x200-0x207.7 (8)
0x200|10 ed 72 87                                    |..r.            |        occur: "1979-01-01T00:00:07Z" (283996807) 0x200-0x203.7 (4)
0x200|            00 00 00 08                        |    ....        |        corr: 8 0x204-0x207.7 (4)
     |                                               |                |      [8]{}: leap_second_record 0x208-0x20f.7 (8)
0x200|                        12 ce a6 08            |        ....    |        occur: "1980-01-01T00:00:08Z" (315532808) 0x208-0x20b.7 (4)
0x200|                                    00 00 00 09|            ....|        corr: 9 0x20c-0x20f.7 (4)
     |                                               |                |      [9]{}: leap_second_record 0x210-0x217.7 (8)
0x210|15 9f ca 89                                    |....            |        occur: "1981-07-01T00:00:09Z" (362793609) 0x210-0x213.7 (4)
0x210|            00 00 00 0a                        |    ....        |        corr: 10 0x214-0x217.7 (4)
     |                                               |                |      [10]{}: leap_second_record 0x218-0x21f.7 (8)
0x210|                        17 80 fe 0a            |        ....    |        occur: "1982-07-01T00:00:10Z" (394329610) 0x218-0x21b.7 (4)
0x210|                                    00 00 00 0b|            ....|        corr: 11 0x21c-0x21f.7 (4)
     |                                               |                |      [11]{}: leap_second_record 0x220-0x227.7 (8)
0x220|19 62 31 8b                                    |.b1.            |        occur: "1983-07-01T00:00:11Z" (425865611) 0x220-0x223.7 (4)
0x220|            00 00 00 0c                        |    ....        |        corr: 12 0x224-0x227.7 (4)
     |                                               |                |      [12]{}: leap_second_record 0x228-0x22f.7 (8)
0x220|                        1d 25 ea 0c            |        .%..    |        occur: "1985-07-01T00:00:12Z" (489024012) 0x228-0x22b.7 (4)
0x220|                                    00 00 00 0d|            ....|        corr: 13 0x22c-0x22f.7 (4)
     |                                               |                |      [13]{}: leap_second_record 0x230-0x237.7 (8)
0x230|21 da e5 0d                                    |!...            |        occur: "1988-01-01T00:00:13Z" (567993613) 0x230-0x233.7 (4)
0x230|            00 00 00 0e                        |    ....        |        corr: 14 0x234-0x237.7 (4)
     |                                               |                |      [14]{}: leap_second_record 0x238-0x23f.7 (8)
0x230|                        25 9e 9d 8e            |        %...    |        occur: "1990-01-01T00:00:14Z" (631152014) 0x238-0x23b.7 (4)
0x230|                                    00 00 00 0f|            ....|        corr: 15 0x23c-0x23f.7 (4)
     |                                               |                |      [15]{}: leap_second_record 0x240-0x247.7 (8)
0x240|27 7f d1 0f                                    |'...            |        occur: "1991-01-01T00:00:15Z" (662688015) 0x240-0x243.7 (4)
0x240|            00 00 00 10                        |    ....        |        corr: 16 0x244-0x247.7 (4)
     |                                               |                |      [16]{}: leap_second_record 0x248-0x24f.7 (8)
0x240|                        2a 50 f5 90            |        *P..    |        occur: "1992-07-01T00:00:16Z" (709948816) 0x248-0x24b.7 (4)
0x240|                                    00 00 00 11|            ....|        corr: 17 0x24c-0x24f.7 (4)
     |                                               |                |      [17]{}: leap_second_record 0x250-0x257.7 (8)
0x250|2c 32 29 11                                    |,2).            |        occur: "1993-07-01T00:00:17Z" (741484817) 0x250-0x253.7 (4)
0x250|            00 00 00 12                        |    ....        |        corr: 18 0x254-0x257.7 (4)
     |                                               |                |      [18]{}: leap_second_record 0x258-0x25f.7 (8)
0x250|                        2e 13 5c 92            |        ..\.    |        occur: "1994-07-01T00:00:18Z" (773020818) 0x258-0x25b.7 (4)
0x250|                                    00 00 00 13|            ....|        corr: 19 0x25c-0x25f.7 (4)
     |                                               |                |      [19]{}: leap_second_record 0x260-0x267.7 (8)
0x260|30 e7 24 13                                    |0.$.            |        occur: "1996-01-01T00:00:19Z" (820454419) 0x260-0x263.7 (4)
0x260|            00 00 00 14                        |    ....        |        corr: 20 0x264-0x267.7 (4)
     |                                               |                |      [20]{}: leap_second_record 0x268-0x26f.7 (8)
0x260|                        33 b8 48 94            |        3.H.    |        occur: "1997-07-01T00:00:20Z" (867715220) 0x268-0x26b.7 (4)
0x260|                                    00 00 00 15|            ....|        corr: 21 0x26c-0x26f.7 (4)
     |                                               |                |      [21]{}: leap_second_record 0x270-0x277.7 (8)
0x270|36 8c 10 15                                    |6...            |        occur: "1999-01-01T00:00:21Z" (915148821) 0x270-0x273.7 (4)
0x270|            00 00 00 16                        |    ....        |        corr: 22 0x274-0x277.7 (4)
     |                                               |                |      [22]{}: leap_second_record 0x278-0x27f.7 (8)
0x270|                        43 b7 1b 96            |        C...    |        occur: "2006-01-01T00:00:22Z" (1136073622) 0x278-0x27b.7 (4)
0x270|                                    00 00 00 17|            ....|        corr: 23 0x27c-0x27f.7 (4)
     |                                               |                |      [23]{}: leap_second_record 0x280-0x287.7 (8)
0x280|49 5c 07 97                                    |I\..            |        occur: "2009-01-01T00:00:23Z" (1230768023) 0x280-0x283.7 (4)
0x280|            00 00 00 18                        |    ....        |        corr: 24 0x284-0x287.7 (4)
     |                                               |                |      [24]{}: leap_second_record 0x288-0x28f.7 (8)
0x280|                        4f ef 93 18            |        O...    |        occur: "2012-07-01T00:00:24Z" (1341100824) 0x288-0x28b.7 (4)
0x280|                                    00 00 00 19|            ....|        corr: 25 0x28c-0x28f.7 (4)
     |                                               |                |      [25]{}: leap_second_record 0x290-0x297.7 (8)
0x290|55 93 2d 99                                    |U.-.            |        occur: "2015-07-01T00:00:25Z" (1435708825) 0x290-0x293.7 (4)
0x290|            00 00 00 1a                        |    ....        |        corr: 26 0x294-0x297.7 (4)
     |                                               |                |      [26]{}: leap_second_record 0x298-0x29f.7 (8)
0x290|                        58 68 46 9a            |        XhF.    |        occur: "2017-01-01T00:00:26Z" (1483228826) 0x298-0x29b.7 (4)
0x290|                                    00 00 00 1b|            ....|        corr: 27 0x29c-0x29f.7 (4)
     |                                               |                |    standard_wall_indicators[0:11]: 0x2a0-0x2aa.7 (11)
0x2a0|00                                             |.               |      [0]: 0 standard_wall_indicator (valid) 0x2a0-0x2a0.7 (1)
0x2a0|   00                                          | .              |      [1]: 0 standard_wall_indicator (valid) 0x2a1-0x2a1.7 (1)
0x2a0|      00                                       |  .             |      [2]: 0 standard_wall_indicator (valid) 0x2a2-0x2a2.7 (1)
0x2a0|         00                                    |   .            |      [3]: 0 standard_wall_indicator (valid) 0x2a3-0x2a3.7 (1)
0x2a0|            01                                 |    .           |      [4]: 1 standard_wall_indicator (valid) 0x2a4-0x2a4.7 (1)
0x2a0|               01                              |     .          |      [5]: 1 standard_wall_indicator (valid) 0x2a5-0x2a5.7 (1)
0x2a0|                  01                           |      .         |      [6]: 1 standard_wall_indicator (valid) 0x2a6-0x2a6.7 (1)
0x2a0|                     01                        |       .        |      [7]: 1 standard_wall_indicator (valid) 0x2a7-0x2a7.7 (1)
0x2a0|                        01                     |        .       |      [8]: 1 standard_wall_indicator (valid) 0x2a8-0x2a8.7 (1)
0x2a0|                           01                  |         .      |      [9]: 1 standard_wall_indicator (valid) 0x2a9-0x2a9.7 (1)
0x2a0|                              01               |          .     |      [10]: 1 standard_wall_indicator (valid) 0x2aa-0x2aa.7 (1)
     |                                               |                |    ut_local_indicators[0:0]: 0x2ab-NA (0)
     |                                               |                |  v2plusheader{}: 0x2ab-0x2d6.7 (44)
0x2a0|                                 54 5a 69 66   |           TZif |    magic: 0x545a6966 (valid) 0x2ab-0x2ae.7 (4)
0x2a0|                                             32|               2|    ver: "2" (0x32) (valid) 0x2af-0x2af.7 (1)
0x2b0|00 00 00 00 00 00 00 00 00 00 00 00 00 00 00   |............... |    reserved: raw bits 0x2b0-0x2be.7 (15)
0x2b0|                                             00|               .|    isutcnt: 0 0x2bf-0x2c2.7 (4)
0x2c0|00 00 00                                       |...             |
0x2c0|         00 00 00 0b                           |   ....         |    isstdcnt: 11 0x2c3-0x2c6.7 (4)
0x2c0|                     00 00 00 1b               |       ....     |    leapcnt: 27 0x2c7-0x2ca.7 (4)
0x2c0|                                 00 00 00 42   |           ...B |    timecnt: 66 0x2cb-0x2ce.7 (4)
0x2c0|                                             00|               .|    typecnt: 11 0x2cf-0x2d2.7 (4)
0x2d0|00 00 0b                                       |...             |
0x2d0|         00 00 00 10                           |   ....         |    charcnt: 16 0x2d3-0x2d6.7 (4)
     |                                               |                |  v2plusdatablock{}: 0x2d7-0x6c9.7 (1011)
     |                                               |                |    transition_times[0:66]: 0x2d7-0x4e6.7 (528)
0x2d0|                     ff ff ff ff a1 b3 40 b6   |       ......@. |      [0]: "1919-11-13T19:06:30Z" (-1582088010) transition_time 0x2d7-0x2de.7 (8)
0x2d0|                                             ff|               .|      [1]: "1930-06-20T19:00:00Z" (-1247547600) transition_time 0x2df-0x2e6.7 (8)
0x2e0|ff ff ff b5 a3 ef 30                           |......0         |
0x2e0|                     00 00 00 00 15 27 7d a9   |       .....'}. |      [2]: "1981-03-31T18:00:09Z" (354909609) transition_time 0x2e7-0x2ee.7 (8)
0x2e0|                                             00|               .|      [3]: "1981-09-30T17:00:10Z" (370717210) transition_time 0x2ef-0x2f6.7 (8)
0x2f0|00 00 00 16 18 b2 1a                           |.......         |
0x2f0|                     00 00 00 00 17 08 b1 2a   |       .......* |      [4]: "1982-03-31T18:00:10Z" (386445610) transition_time 0x2f7-0x2fe.7 (8)
0x2f0|                                             00|               .|      [5]: "1982-09-30T17:00:11Z" (402253211) transition_time 0x2ff-0x306.7 (8)
0x300|00 00 00 17 f9 e5 9b                           |.......         |
0x300|                     00 00 00 00 18 e9 e4 ab   |       ........ |      [6]: "1983-03-31T18:00:11Z" (417981611) transition_time 0x307-0x30e.7 (8)
0x300|                                             00|               .|      [7]: "1983-09-30T17:00:12Z" (433789212) transition_time 0x30f-0x316.7 (8)
0x310|00 00 00 19 db 19 1c                           |.......         |
0x310|                     00 00 00 00 1a cc 69 ac   |       ......i. |      [8]: "1984-03-31T18:00:12Z" (449604012) transition_time 0x317-0x31e.7 (8)
0x310|                                             00|               .|      [9]: "1984-09-29T20:00:12Z" (465336012) transition_time 0x31f-0x326.7 (8)
0x320|00 00 00 1b bc 76 cc                           |.....v.         |
0x320|                     00 00 00 00 1c ac 67 cc   |       ......g. |      [10]: "1985-03-30T20:00:12Z" (481060812) transition_time 0x327-0x32e.7 (8)
0x320|                                             00|               .|      [11]: "1985-09-28T20:00:13Z" (496785613) transition_time 0x32f-0x336.7 (8)
0x330|00 00 00 1d 9c 58 cd                           |.....X.         |
0x330|                     00 00 00 00 1e 8c 49 cd   |       ......I. |      [12]: "1986-03-29T20:00:13Z" (512510413) transition_time 0x337-0x33e.7 (8)
0x330|                                             00|               .|      [13]: "1986-09-27T20:00:13Z" (528235213) transition_time 0x33f-0x346.7 (8)
0x340|00 00 00 1f 7c 3a cd                           |....|:.         |
0x340|                     00 00 00 00 20 6c 2b cd   |       .... l+. |      [14]: "1987-03-28T20:00:13Z" (543960013) transition_time 0x347-0x34e.7 (8)
0x340|                                             00|               .|      [15]: "1987-09-26T20:00:13Z" (559684813) transition_time 0x34f-0x356.7 (8)
0x350|00 00 00 21 5c 1c cd                           |...!\..         |
0x350|                     00 00 00 00 22 4c 0d ce   |       ...."L.. |      [16]: "1988-03-26T20:00:14Z" (575409614) transition_time 0x357-0x35e.7 (8)
0x350|                                             00|               .|      [17]: "1988-09-24T20:00:14Z" (591134414) transition_time 0x35f-0x366.7 (8)
0x360|00 00 00 23 3b fe ce                           |...#;..         |
0x360|                     00 00 00 00 24 2b ef ce   |       ....$+.. |      [18]: "1989-03-25T20:00:14Z" (606859214) transition_time 0x367-0x36e.7 (8)
0x360|                                             00|               .|      [19]: "1989-09-23T20:00:14Z" (622584014) transition_time 0x36f-0x376.7 (8)
0x370|00 00 00 25 1b e0 ce                           |...%...         |
0x370|                     00 00 00 00 26 0b d1 cf   |       ....&... |      [20]: "1990-03-24T20:00:15Z" (638308815) transition_time 0x377-0x37e.7 (8)
0x370|                                             00|               .|      [21]: "1990-09-29T20:00:15Z" (654638415) transition_time 0x37f-0x386.7 (8)
0x380|00 00 00 27 04 fd 4f                           |...'..O         |
0x380|                     00 00 00 00 27 f4 ee 50   |       ....'..P |      [22]: "1991-03-30T20:00:16Z" (670363216) transition_time 0x387-0x38e.7 (8)
0x380|                                             00|               .|      [23]: "1991-09-28T21:00:16Z" (686091616) transition_time 0x38f-0x396.7 (8)
0x390|00 00 00 28 e4 ed 60                           |...(..`         |
0x390|                     00 00 00 00 29 78 95 60   |       ....)x.` |      [24]: "1992-01-18T21:00:16Z" (695768416) transition_time 0x397-0x39e.7 (8)
0x390|                                             00|               .|      [25]: "1992-03-28T20:00:16Z" (701812816) transition_time 0x39f-0x3a6.7 (8)
0x3a0|00 00 00 29 d4 d0 50                           |...)..P         |
0x3a0|                     00 00 00 00 2a c4 c1 51   |       ....*..Q |      [26]: "1992-09-26T20:00:17Z" (717537617) transition_time 0x3a7-0x3ae.7 (8)
0x3a0|                                             00|               .|      [27]: "1993-03-27T20:00:17Z" (733262417) transition_time 0x3af-0x3b6.7 (8)
0x3b0|00 00 00 2b b4 b2 51                           |...+..Q         |
0x3b0|                     00 00 00 00 2c a4 a3 52   |       ....,..R |      [28]: "1993-09-25T20:00:18Z" (748987218) transition_time 0x3b7-0x3be.7 (8)
0x3b0|                                             00|               .|      [29]: "1994-03-26T20:00:18Z" (764712018) transition_time 0x3bf-0x3c6.7 (8)
0x3c0|00 00 00 2d 94 94 52                           |...-..R         |
0x3c0|                     00 00 00 00 2e 84 85 53   |       .......S |      [30]: "1994-09-24T20:00:19Z" (780436819) transition_time 0x3c7-0x3ce.7 (8)
0x3c0|                                             00|               .|      [31]: "1995-03-25T20:00:19Z" (796161619) transition_time 0x3cf-0x3d6.7 (8)
0x3d0|00 00 00 2f 74 76 53                           |.../tvS         |
0x3d0|                     00 00 00 00 30 64 67 53   |       ....0dgS |      [32]: "1995-09-23T20:00:19Z" (811886419) transition_time 0x3d7-0x3de.7 (8)
0x3d0|                                             00|               .|      [33]: "1996-03-30T20:00:20Z" (828216020) transition_time 0x3df-0x3e6.7 (8)
0x3e0|00 00 00 31 5d 92 d4                           |...1]..         |
0x3e0|                     00 00 00 00 32 72 6d d4   |       ....2rm. |      [34]: "1996-10-26T20:00:20Z" (846360020) transition_time 0x3e7-0x3ee.7 (8)
0x3e0|                                             00|               .|      [35]: "1997-03-29T20:00:20Z" (859665620) transition_time 0x3ef-0x3f6.7 (8)
0x3f0|00 00 00 33 3d 74 d4                           |...3=t.         |
0x3f0|                     00 00 00 00 34 52 4f d5   |       ....4RO. |      [36]: "1997-10-25T20:00:21Z" (877809621) transition_time 0x3f7-0x3fe.7 (8)
0x3f0|                                             00|               .|      [37]: "1998-03-28T20:00:21Z" (891115221) transition_time 0x3ff-0x406.7 (8)
0x400|00 00 00 35 1d 56 d5                           |...5.V.         |
0x400|                     00 00 00 00 36 32 31 d5   |       ....621. |      [38]: "1998-10-24T20:00:21Z" (909259221) transition_time 0x407-0x40e.7 (8)
0x400|                                             00|               .|      [39]: "1999-03-27T20:00:22Z" (922564822) transition_time 0x40f-0x416.7 (8)
0x410|00 00 00 36 fd 38 d6                           |...6.8.         |
0x410|                     00 00 00 00 38 1b 4e 56   |       ....8.NV |      [40]: "1999-10-30T20:00:22Z" (941313622) transition_time 0x417-0x41e.7 (8)
0x410|                                             00|               .|      [41]: "2000-03-25T20:00:22Z" (954014422) transition_time 0x41f-0x426.7 (8)
0x420|00 00 00 38 dd 1a d6                           |...8...         |
0x420|                     00 00 00 00 39 fb 30 56   |       ....9.0V |      [42]: "2000-10-28T20:00:22Z" (972763222) transition_time 0x427-0x42e.7 (8)
0x420|                                             00|               .|      [43]: "2001-03-24T20:00:22Z" (985464022) transition_time 0x42f-0x436.7 (8)
0x430|00 00 00 3a bc fc d6                           |...:...         |
0x430|                     00 00 00 00 3b db 12 56   |       ....;..V |      [44]: "2001-10-27T20:00:22Z" (1004212822) transition_time 0x437-0x43e.7 (8)
0x430|                                             00|               .|      [45]: "2002-03-30T20:00:22Z" (1017518422) transition_time 0x43f-0x446.7 (8)
0x440|00 00 00 3c a6 19 56                           |...<..V         |
0x440|                     00 00 00 00 3d ba f4 56   |       ....=..V |      [46]: "2002-10-26T20:00:22Z" (1035662422) transition_time 0x447-0x44e.7 (8)
0x440|                                             00|               .|      [47]: "2003-03-29T20:00:22Z" (1048968022) transition_time 0x44f-0x456.7 (8)
0x450|00 00 00 3e 85 fb 56                           |...>..V         |
0x450|                     00 00 00 00 3f 9a d6 56   |       ....?..V |      [48]: "2003-10-25T20:00:22Z" (1067112022) transition_time 0x457-0x45e.7 (8)
0x450|                                             00|               .|      [49]: "2004-03-27T20:00:22Z" (1080417622) transition_time 0x45f-0x466.7 (8)
0x460|00 00 00 40 65 dd 56                           |...@e.V         |
0x460|                     00 00 00 00 41 83 f2 d6   |       ....A... |      [50]: "2004-10-30T20:00:22Z" (1099166422) transition_time 0x467-0x46e.7 (8)
0x460|                                             00|               .|      [51]: "2005-03-26T20:00:22Z" (1111867222) transition_time 0x46f-0x476.7 (8)
0x470|00 00 00 42 45 bf 56                           |...BE.V         |
0x470|                     00 00 00 00 43 63 d4 d6   |       ....Cc.. |      [52]: "2005-10-29T20:00:22Z" (1130616022) transition_time 0x477-0x47e.7 (8)
0x470|                                             00|               .|      [53]: "2006-03-25T20:00:23Z" (1143316823) transition_time 0x47f-0x486.7 (8)
0x480|00 00 00 44 25 a1 57                           |...D%.W         |
0x480|                     00 00 00 00 45 43 b6 d7   |       ....EC.. |      [54]: "2006-10-28T20:00:23Z" (1162065623) transition_time 0x487-0x48e.7 (8)
0x480|                                             00|               .|      [55]: "2007-03-24T20:00:23Z" (1174766423) transition_time 0x48f-0x496.7 (8)
0x490|00 00 00 46 05 83 57                           |...F..W         |
0x490|                     00 00 00 00 47 23 98 d7   |       ....G#.. |      [56]: "2007-10-27T20:00:23Z" (1193515223) transition_time 0x497-0x49e.7 (8)
0x490|                                             00|               .|      [57]: "2008-03-29T20:00:23Z" (1206820823) transition_time 0x49f-0x4a6.7 (8)
0x4a0|00 00 00 47 ee 9f d7                           |...G...         |
0x4a0|                     00 00 00 00 49 03 7a d7   |       ....I.z. |      [58]: "2008-10-25T20:00:23Z" (1224964823) transition_time 0x4a7-0x4ae.7 (8)
0x4a0|                                             00|               .|      [59]: "2009-03-28T20:00:24Z" (1238270424) transition_time 0x4af-0x4b6.7 (8)
0x4b0|00 00 00 49 ce 81 d8                           |...I...         |
0x4b0|                     00 00 00 00 4a e3 5c d8   |       ....J.\. |      [60]: "2009-10-24T20:00:24Z" (1256414424) transition_time 0x4b7-0x4be.7 (8)
0x4b0|                                             00|               .|      [61]: "2010-03-27T20:00:24Z" (1269720024) transition_time 0x4bf-0x4c6.7 (8)
0x4c0|00 00 00 4b ae 63 d8                           |...K.c.         |
0x4c0|                     00 00 00 00 4c cc 79 58   |       ....L.yX |      [62]: "2010-10-30T20:00:24Z" (1288468824) transition_time 0x4c7-0x4ce.7 (8)
0x4c0|                                             00|               .|      [63]: "2011-03-26T20:00:24Z" (1301169624) transition_time 0x4cf-0x4d6.7 (8)
0x4d0|00 00 00 4d 8e 45 d8                           |...M.E.         |
0x4d0|                     00 00 00 00 54 4b f3 49   |       ....TK.I |      [64]: "2014-10-25T19:00:25Z" (1414263625) transition_time 0x4d7-0x4de.7 (8)
0x4d0|                                             00|               .|      [65]: "2023-06-28T00:00:27Z" (1687910427) transition_time 0x4df-0x4e6.7 (8)
0x4e0|00 00 00 64 9b 78 1b                           |...d.x.         |
     |                                               |                |    transition_types[0:66]: 0x4e7-0x528.7 (66)
0x4e0|                     01                        |       .        |      [0]: 1 transition_type 0x4e7-0x4e7.7 (1)
0x4e0|                        03                     |        .       |      [1]: 3 transition_type 0x4e8-0x4e8.7 (1)
0x4e0|                           02                  |         .      |      [2]: 2 transition_type 0x4e9-0x4e9.7 (1)
0x4e0|                              03               |          .     |      [3]: 3 transition_type 0x4ea-0x4ea.7 (1)
0x4e0|                                 02            |           .    |      [4]: 2 transition_type 0x4eb-0x4eb.7 (1)
0x4e0|                                    03         |            .   |      [5]: 3 transition_type 0x4ec-0x4ec.7 (1)
0x4e0|                                       02      |             .  |      [6]: 2 transition_type 0x4ed-0x4ed.7 (1)
0x4e0|                                          03   |              . |      [7]: 3 transition_type 0x4ee-0x4ee.7 (1)
0x4e0|                                             02|               .|      [8]: 2 transition_type 0x4ef-0x4ef.7 (1)
0x4f0|04                                             |.               |      [9]: 4 transition_type 0x4f0-0x4f0.7 (1)
0x4f0|   05                                          | .              |      [10]: 5 transition_type 0x4f1-0x4f1.7 (1)
0x4f0|      04                                       |  .             |      [11]: 4 transition_type 0x4f2-0x4f2.7 (1)
0x4f0|         05                                    |   .            |      [12]: 5 transition_type 0x4f3-0x4f3.7 (1)
0x4f0|            04                                 |    .           |      [13]: 4 transition_type 0x4f4-0x4f4.7 (1)
0x4f0|               05                              |     .          |      [14]: 5 transition_type 0x4f5-0x4f5.7 (1)
0x4f0|                  04                           |      .         |      [15]: 4 transition_type 0x4f6-0x4f6.7 (1)
0x4f0|                     05                        |       .        |      [16]: 5 transition_type 0x4f7-0x4f7.7 (1)
0x4f0|                        04                     |        .       |      [17]: 4 transition_type 0x4f8-0x4f8.7 (1)
0x4f0|                           05                  |         .      |      [18]: 5 transition_type 0x4f9-0x4f9.7 (1)
0x4f0|                              04               |          .     |      [19]: 4 transition_type 0x4fa-0x4fa.7 (1)
0x4f0|                                 05            |           .    |      [20]: 5 transition_type 0x4fb-0x4fb.7 (1)
0x4f0|                                    04         |            .   |      [21]: 4 transition_type 0x4fc-0x4fc.7 (1)
0x4f0|                                       06      |             .  |      [22]: 6 transition_type 0x4fd-0x4fd.7 (1)
0x4f0|                                          07   |              . |      [23]: 7 transition_type 0x4fe-0x4fe.7 (1)
0x4f0|                                             04|               .|      [24]: 4 transition_type 0x4ff-0x4ff.7 (1)
0x500|05                                             |.               |      [25]: 5 transition_type 0x500-0x500.7 (1)
0x500|   04                                          | .              |      [26]: 4 transition_type 0x501-0x501.7 (1)
0x500|      05                                       |  .             |      [27]: 5 transition_type 0x502-0x502.7 (1)
0x500|         04                                    |   .            |      [28]: 4 transition_type 0x503-0x503.7 (1)
0x500|            05                                 |    .           |      [29]: 5 transition_type 0x504-0x504.7 (1)
0x500|               04                              |     .          |      [30]: 4 transition_type 0x505-0x505.7 (1)
0x500|                  05                           |      .         |      [31]: 5 transition_type 0x506-0x506.7 (1)
0x500|                     04                        |       .        |      [32]: 4 transition_type 0x507-0x507.7 (1)
0x500|                        05                     |        .       |      [33]: 5 transition_type 0x508-0x508.7 (1)
0x500|                           04                  |         .      |      [34]: 4 transition_type 0x509-0x509.7 (1)
0x500|                              05               |          .     |      [35]: 5 transition_type 0x50a-0x50a.7 (1)
0x500|                                 04            |           .    |      [36]: 4 transition_type 0x50b-0x50b.7 (1)
0x500|                                    05         |            .   |      [37]: 5 transition_type 0x50c-0x50c.7 (1)
0x500|                                       04      |             .  |      [38]: 4 transition_type 0x50d-0x50d.7 (1)
0x500|                                          05   |              . |      [39]: 5 transition_type 0x50e-0x50e.7 (1)
0x500|                                             04|               .|      [40]: 4 transition_type 0x50f-0x50f.7 (1)
0x510|05                                             |.               |      [41]: 5 transition_type 0x510-0x510.7 (1)
0x510|   04                                          | .              |      [42]: 4 transition_type 0x511-0x511.7 (1)
0x510|      05                                       |  .             |      [43]: 5 transition_type 0x512-0x512.7 (1)
0x510|         04                                    |   .            |      [44]: 4 transition_type 0x513-0x513.7 (1)
0x510|            05                                 |    .           |      [45]: 5 transition_type 0x514-0x514.7 (1)
0x510|               04                              |     .          |      [46]: 4 transition_type 0x515-0x515.7 (1)
0x510|                  05                           |      .         |      [47]: 5 transition_type 0x516-0x516.7 (1)
0x510|                     04                        |       .        |      [48]: 4 transition_type 0x517-0x517.7 (1)
0x510|                        05                     |        .       |      [49]: 5 transition_type 0x518-0x518.7 (1)
0x510|                           04                  |         .      |      [50]: 4 transition_type 0x519-0x519.7 (1)
0x510|                              05               |          .     |      [51]: 5 transition_type 0x51a-0x51a.7 (1)
0x510|                                 04            |           .    |      [52]: 4 transition_type 0x51b-0x51b.7 (1)
0x510|                                    05         |            .   |      [53]: 5 transition_type 0x51c-0x51c.7 (1)
0x510|                                       04      |             .  |      [54]: 4 transition_type 0x51d-0x51d.7 (1)
0x510|                                          05   |              . |      [55]: 5 transition_type 0x51e-0x51e.7 (1)
0x510|                                             04|               .|      [56]: 4 transition_type 0x51f-0x51f.7 (1)
0x520|05                                             |.               |      [57]: 5 transition_type 0x520-0x520.7 (1)
0x520|   04                                          | .              |      [58]: 4 transition_type 0x521-0x521.7 (1)
0x520|      05                                       |  .             |      [59]: 5 transition_type 0x522-0x522.7 (1)
0x520|         04                                    |   .            |      [60]: 4 transition_type 0x523-0x523.7 (1)
0x520|            05                                 |    .           |      [61]: 5 transition_type 0x524-0x524.7 (1)
0x520|               04                              |     .          |      [62]: 4 transition_type 0x525-0x525.7 (1)
0x520|                  08                           |      .         |      [63]: 8 transition_type 0x526-0x526.7 (1)
0x520|                     04                        |       .        |      [64]: 4 transition_type 0x527-0x527.7 (1)
0x520|                        04                     |        .       |      [65]: 4 transition_type 0x528-0x528.7 (1)
     |                                               |                |    local_time_type_records[0:11]: 0x529-0x56a.7 (66)
     |                                               |                |      [0]{}: local_time_type 0x529-0x52e.7 (6)
0x520|                           00 00 44 ca         |         ..D.   |        utoff: 17610 (valid) 0x529-0x52c.7 (4)
0x520|                                       00      |             .  |        dst: 0 (valid) 0x52d-0x52d.7 (1)
0x520|                                          00   |              . |        idx: 0 (valid) 0x52e-0x52e.7 (1)
     |                                               |                |      [1]{}: local_time_type 0x52f-0x534.7 (6)
0x520|                                             00|               .|        utoff: 18000 (valid) 0x52f-0x532.7 (4)
0x530|00 46 50                                       |.FP             |
0x530|         00                                    |   .            |        dst: 0 (valid) 0x533-0x533.7 (1)
0x530|            04                                 |    .           |        idx: 4 (valid) 0x534-0x534.7 (1)
     |                                               |                |      [2]{}: local_time_type 0x535-0x53a.7 (6)
0x530|               00 00 62 70                     |     ..bp       |        utoff: 25200 (valid) 0x535-0x538.7 (4)
0x530|                           01                  |         .      |        dst: 1 (valid) 0x539-0x539.7 (1)
0x530|                              08               |          .     |        idx: 8 (valid) 0x53a-0x53a.7 (1)
     |                                               |                |      [3]{}: local_time_type 0x53b-0x540.7 (6)
0x530|                                 00 00 54 60   |           ..T` |        utoff: 21600 (valid) 0x53b-0x53e.7 (4)
0x530|                                             00|               .|        dst: 0 (valid) 0x53f-0x53f.7 (1)
0x540|0c                                             |.               |        idx: 12 (valid) 0x540-0x540.7 (1)
     |                                               |                |      [4]{}: local_time_type 0x541-0x546.7 (6)
0x540|   00 00 54 60                                 | ..T`           |        utoff: 21600 (valid) 0x541-0x544.7 (4)
0x540|               00                              |     .          |        dst: 0 (valid) 0x545-0x545.7 (1)
0x540|                  0c                           |      .         |        idx: 12 (valid) 0x546-0x546.7 (1)
     |                                               |                |      [5]{}: local_time_type 0x547-0x54c.7 (6)
0x540|                     00 00 62 70               |       ..bp     |        utoff: 25200 (valid) 0x547-0x54a.7 (4)
0x540|                                 01            |           .    |        dst: 1 (valid) 0x54b-0x54b.7 (1)
0x540|                                    08         |            .   |        idx: 8 (valid) 0x54c-0x54c.7 (1)
     |                                               |                |      [6]{}: local_time_type 0x54d-0x552.7 (6)
0x540|                                       00 00 54|             ..T|        utoff: 21600 (valid) 0x54d-0x550.7 (4)
0x550|60                                             |`               |
0x550|   01                                          | .              |        dst: 1 (valid) 0x551-0x551.7 (1)
0x550|      0c                                       |  .             |        idx: 12 (valid) 0x552-0x552.7 (1)
     |                                               |                |      [7]{}: local_time_type 0x553-0x558.7 (6)
0x550|         00 00 46 50                           |   ..FP         |        utoff: 18000 (valid) 0x553-0x556.7 (4)
0x550|                     00                        |       .        |        dst: 0 (valid) 0x557-0x557.7 (1)
0x550|                        04                     |        .       |        idx: 4 (valid) 0x558-0x558.7 (1)
     |                                               |                |      [8]{}: local_time_type 0x559-0x55e.7 (6)
0x550|                           00 00 62 70         |         ..bp   |        utoff: 25200 (valid) 0x559-0x55c.7 (4)
0x550|                                       00      |             .  |        dst: 0 (valid) 0x55d-0x55d.7 (1)
0x550|                                          08   |              . |        idx: 8 (valid) 0x55e-0x55e.7 (1)
     |                                               |                |      [9]{}: local_time_type 0x55f-0x564.7 (6)
0x550|                                             00|               .|        utoff: 25200 (valid) 0x55f-0x562.7 (4)
0x560|00 62 70                                       |.bp             |
0x560|         01                                    |   .            |        dst: 1 (valid) 0x563-0x563.7 (1)
0x560|            08                                 |    .           |        idx: 8 (valid) 0x564-0x564.7 (1)
     |                                               |                |      [10]{}: local_time_type 0x565-0x56a.7 (6)
0x560|               00 00 54 60                     |     ..T`       |        utoff: 21600 (valid) 0x565-0x568.7 (4)
0x560|                           00                  |         .      |        dst: 0 (valid) 0x569-0x569.7 (1)
0x560|                              0c               |          .     |        idx: 12 (valid) 0x56a-0x56a.7 (1)
     |                                               |                |    time_zone_designations[0:4]: 0x56b-0x57a.7 (16)
0x560|                                 4c 4d 54 00   |           LMT. |      [0]: "LMT" time_zone_designation 0x56b-0x56e.7 (4)
0x560|                                             2b|               +|      [1]: "+05" time_zone_designation 0x56f-0x572.7 (4)
0x570|30 35 00                                       |05.             |
0x570|         2b 30 37 00                           |   +07.         |      [2]: "+07" time_zone_designation 0x573-0x576.7 (4)
0x570|                     2b 30 36 00               |       +06.     |      [3]: "+06" time_zone_designation 0x577-0x57a.7 (4)
     |                                               |                |    leap_second_records[0:27]: 0x57b-0x6be.7 (324)
     |                                               |                |      [0]{}: leap_second_record 0x57b-0x586.7 (12)
0x570|                                 00 00 00 00 04|           .....|        occur: "1972-07-01T00:00:00Z" (78796800) 0x57b-0x582.7 (8)
0x580|b2 58 00                                       |.X.             |
0x580|         00 00 00 01                           |   ....         |        corr: 1 0x583-0x586.7 (4)
     |                                               |                |      [1]{}: leap_second_record 0x587-0x592.7 (12)
0x580|                     00 00 00 00 05 a4 ec 01   |       ........ |        occur: "1973-01-01T00:00:01Z" (94694401) 0x587-0x58e.7 (8)
0x580|                                             00|               .|        corr: 2 0x58f-0x592.7 (4)
0x590|00 00 02                                       |...             |
     |                                               |                |      [2]{}: leap_second_record 0x593-0x59e.7 (12)
0x590|         00 00 00 00 07 86 1f 82               |   ........     |        occur: "1974-01-01T00:00:02Z" (126230402) 0x593-0x59a.7 (8)
0x590|                                 00 00 00 03   |           .... |        corr: 3 0x59b-0x59e.7 (4)
     |                                               |                |      [3]{}: leap_second_record 0x59f-0x5aa.7 (12)
0x590|                                             00|               .|        occur: "1975-01-01T00:00:03Z" (157766403) 0x59f-0x5a6.7 (8)
0x5a0|00 00 00 09 67 53 03                           |....gS.         |
0x5a0|                     00 00 00 04               |       ....     |        corr: 4 0x5a7-0x5aa.7 (4)
     |                                               |                |      [4]{}: leap_second_record 0x5ab-0x5b6.7 (12)
0x5a0|                                 00 00 00 00 0b|           .....|        occur: "1976-01-01T00:00:04Z" (189302404) 0x5ab-0x5b2.7 (8)
0x5b0|48 86 84                                       |H..             |
0x5b0|         00 00 00 05                           |   ....         |        corr: 5 0x5b3-0x5b6.7 (4)
     |                                               |                |      [5]{}: leap_second_record 0x5b7-0x5c2.7 (12)
0x5b0|                     00 00 00 00 0d 2b 0b 85   |       .....+.. |        occur: "1977-01-01T00:00:05Z" (220924805) 0x5b7-0x5be.7 (8)
0x5b0|                                             00|               .|        corr: 6 0x5bf-0x5c2.7 (4)
0x5c0|00 00 06                                       |...             |
     |                                               |                |      [6]{}: leap_second_record 0x5c3-0x5ce.7 (12)
0x5c0|         00 00 00 00 0f 0c 3f 06               |   ......?.     |        occur: "1978-01-01T00:00:06Z" (252460806) 0x5c3-0x5ca.7 (8)
0x5c0|                                 00 00 00 07   |           .... |        corr: 7 0x5cb-0x5ce.7 (4)
     |                                               |                |      [7]{}: leap_second_record 0x5cf-0x5da.7 (12)
0x5c0|                                             00|               .|        occur: "1979-01-01T00:00:07Z" (283996807) 0x5cf-0x5d6.7 (8)
0x5d0|00 00 00 10 ed 72 87                           |.....r.         |
0x5d0|                     00 00 00 08               |       ....     |        corr: 8 0x5d7-0x5da.7 (4)
     |                                               |                |      [8]{}: leap_second_record 0x5db-0x5e6.7 (12)
0x5d0|                                 00 00 00 00 12|           .....|        occur: "1980-01-01T00:00:08Z" (315532808) 0x5db-0x5e2.7 (8)
0x5e0|ce a6 08                                       |...             |
0x5e0|         00 00 00 09                           |   ....         |        corr: 9 0x5e3-0x5e6.7 (4)
     |                                               |                |      [9]{}: leap_second_record 0x5e7-0x5f2.7 (12)
0x5e0|                     00 00 00 00 15 9f ca 89   |       ........ |        occur: "1981-07-01T00:00:09Z" (362793609) 0x5e7-0x5ee.7 (8)
0x5e0|                                             00|               .|        corr: 10 0x5ef-0x5f2.7 (4)
0x5f0|00 00 0a                                       |...             |
     |                                               |                |      [10]{}: leap_second_record 0x5f3-0x5fe.7 (12)
0x5f0|         00 00 00 00 17 80 fe 0a               |   ........     |        occur: "1982-07-01T00:00:10Z" (394329610) 0x5f3-0x5fa.7 (8)
0x5f0|                                 00 00 00 0b   |           .... |        corr: 11 0x5fb-0x5fe.7 (4)
     |                                               |                |      [11]{}: leap_second_record 0x5ff-0x60a.7 (12)
0x5f0|                                             00|               .|        occur: "1983-07-01T00:00:11Z" (425865611) 0x5ff-0x606.7 (8)
0x600|00 00 00 19 62 31 8b                           |....b1.         |
0x600|                     00 00 00 0c               |       ....     |        corr: 12 0x607-0x60a.7 (4)
     |                                               |                |      [12]{}: leap_second_record 0x60b-0x616.7 (12)
0x600|                                 00 00 00 00 1d|           .....|        occur: "1985-07-01T00:00:12Z" (489024012) 0x60b-0x612.7 (8)
0x610|25 ea 0c                                       |%..             |
0x610|         00 00 00 0d                           |   ....         |        corr: 13 0x613-0x616.7 (4)
     |                                               |                |      [13]{}: leap_second_record 0x617-0x622.7 (12)
0x610|                     00 00 00 00 21 da e5 0d   |       ....!... |        occur: "1988-01-01T00:00:13Z" (567993613) 0x617-0x61e.7 (8)
0x610|                                             00|               .|        corr: 14 0x61f-0x622.7 (4)
0x620|00 00 0e                                       |...             |
     |                                               |                |      [14]{}: leap_second_record 0x623-0x62e.7 (12)
0x620|         00 00 00 00 25 9e 9d 8e               |   ....%...     |        occur: "1990-01-01T00:00:14Z" (631152014) 0x623-0x62a.7 (8)
0x620|                                 00 00 00 0f   |           .... |        corr: 15 0x62b-0x62e.7 (4)
     |                                               |                |      [15]{}: leap_second_record 0x62f-0x63a.7 (12)
0x620|                                             00|               .|        occur: "1991-01-01T00:00:15Z" (662688015) 0x62f-0x636.7 (8)
0x630|00 00 00 27 7f d1 0f                           |...'...         |
0x630|                     00 00 00 10               |       ....     |        corr: 16 0x637-0x63a.7 (4)
     |                                               |                |      [16]{}: leap_second_record 0x63b-0x646.7 (12)
0x630|                                 00 00 00 00 2a|           ....*|        occur: "1992-07-01T00:00:16Z" (709948816) 0x63b-0x642.7 (8)
0x640|50 f5 90                                       |P..             |
0x640|         00 00 00 11                           |   ....         |        corr: 17 0x643-0x646.7 (4)
     |                                               |                |      [17]{}: leap_second_record 0x647-0x652.7 (12)
0x640|                     00 00 00 00 2c 32 29 11   |       ....,2). |        occur: "1993-07-01T00:00:17Z" (741484817) 0x647-0x64e.7 (8)
0x640|                                             00|               .|        corr: 18 0x64f-0x652.7 (4)
0x650|00 00 12                                       |...             |
     |                                               |                |      [18]{}: leap_second_record 0x653-0x65e.7 (12)
0x650|         00 00 00 00 2e 13 5c 92               |   ......\.     |        occur: "1994-07-01T00:00:18Z" (773020818) 0x653-0x65a.7 (8)
0x650|                                 00 00 00 13   |           .... |        corr: 19 0x65b-0x65e.7 (4)
     |                                               |                |      [19]{}: leap_second_record 0x65f-0x66a.7 (12)
0x650|                                             00|               .|        occur: "1996-01-01T00:00:19Z" (820454419) 0x65f-0x666.7 (8)
0x660|00 00 00 30 e7 24 13                           |...0.$.         |
0x660|                     00 00 00 14               |       ....     |        corr: 20 0x667-0x66a.7 (4)
     |                                               |                |      [20]{}: leap_second_record 0x66b-0x676.7 (12)
0x660|                                 00 00 00 00 33|           ....3|        occur: "1997-07-01T00:00:20Z" (867715220) 0x66b-0x672.7 (8)
0x670|b8 48 94                                       |.H.             |
0x670|         00 00 00 15                           |   ....         |        corr: 21 0x673-0x676.7 (4)
     |                                               |                |      [21]{}: leap_second_record 0x677-0x682.7 (12)
0x670|                     00 00 00 00 36 8c 10 15   |       ....6... |        occur: "1999-01-01T00:00:21Z" (915148821) 0x677-0x67e.7 (8)
0x670|                                             00|               .|        corr: 22 0x67f-0x682.7 (4)
0x680|00 00 16                                       |...             |
     |                                               |                |      [22]{}: leap_second_record 0x683-0x68e.7 (12)
0x680|         00 00 00 00 43 b7 1b 96               |   ....C...     |        occur: "2006-01-01T00:00:22Z" (1136073622) 0x683-0x68a.7 (8)
0x680|                                 00 00 00 17   |           .... |        corr: 23 0x68b-0x68e.7 (4)
     |                                               |                |      [23]{}: leap_second_record 0x68f-0x69a.7 (12)
0x680|                                             00|               .|        occur: "2009-01-01T00:00:23Z" (1230768023) 0x68f-0x696.7 (8)
0x690|00 00 00 49 5c 07 97                           |...I\..         |
0x690|                     00 00 00 18               |       ....     |        corr: 24 0x697-0x69a.7 (4)
     |                                               |                |      [24]{}: leap_second_record 0x69b-0x6a6.7 (12)
0x690|                                 00 00 00 00 4f|           ....O|        occur: "2012-07-01T00:00:24Z" (1341100824) 0x69b-0x6a2.7 (8)
0x6a0|ef 93 18                                       |...             |
0x6a0|         00 00 00 19                           |   ....         |        corr: 25 0x6a3-0x6a6.7 (4)
     |                                               |                |      [25]{}: leap_second_record 0x6a7-0x6b2.7 (12)
0x6a0|                     00 00 00 00 55 93 2d 99   |       ....U.-. |        occur: "2015-07-01T00:00:25Z" (1435708825) 0x6a7-0x6ae.7 (8)
0x6a0|                                             00|               .|        corr: 26 0x6af-0x6b2.7 (4)
0x6b0|00 00 1a                                       |...             |
     |                                               |                |      [26]{}: leap_second_record 0x6b3-0x6be.7 (12)
0x6b0|         00 00 00 00 58 68 46 9a               |   ....XhF.     |        occur: "2017-01-01T00:00:26Z" (1483228826) 0x6b3-0x6ba.7 (8)
0x6b0|                                 00 00 00 1b   |           .... |        corr: 27 0x6bb-0x6be.7 (4)
     |                                               |                |    standard_wall_indicators[0:11]: 0x6bf-0x6c9.7 (11)
0x6b0|                                             00|               .|      [0]: 0 standard_wall_indicator (valid) 0x6bf-0x6bf.7 (1)
0x6c0|00                                             |.               |      [1]: 0 standard_wall_indicator (valid) 0x6c0-0x6c0.7 (1)
0x6c0|   00                                          | .              |      [2]: 0 standard_wall_indicator (valid) 0x6c1-0x6c1.7 (1)
0x6c0|      00                                       |  .             |      [3]: 0 standard_wall_indicator (valid) 0x6c2-0x6c2.7 (1)
0x6c0|         01                                    |   .            |      [4]: 1 standard_wall_indicator (valid) 0x6c3-0x6c3.7 (1)
0x6c0|            01                                 |    .           |      [5]: 1 standard_wall_indicator (valid) 0x6c4-0x6c4.7 (1)
0x6c0|               01                              |     .          |      [6]: 1 standard_wall_indicator (valid) 0x6c5-0x6c5.7 (1)
0x6c0|                  01                           |      .         |      [7]: 1 standard_wall_indicator (valid) 0x6c6-0x6c6.7 (1)
0x6c0|                     01                        |       .        |      [8]: 1 standard_wall_indicator (valid) 0x6c7-0x6c7.7 (1)
0x6c0|                        01                     |        .       |      [9]: 1 standard_wall_indicator (valid) 0x6c8-0x6c8.7 (1)
0x6c0|                           01                  |         .      |      [10]: 1 standard_wall_indicator (valid) 0x6c9-0x6c9.7 (1)
     |                                               |                |    ut_local_indicators[0:0]: 0x6ca-NA (0)
     |                                               |                |  footer{}: 0x6ca-0x6cb.7 (2)
0x6c0|                              0a               |          .     |    nl1: 10 (valid) 0x6ca-0x6ca.7 (1)
     |                                               |                |    tz_string: "" 0x6cb-NA (0)
0x6c0|                                 0a|           |           .|   |    nl2: 10 (valid) 0x6cb-0x6cb.7 (1)
