$ fq -d tzif dv Oral
     |00 01 02 03 04 05 06 07 08 09 0a 0b 0c 0d 0e 0f|0123456789abcdef|.{}: Oral (tzif) 0x0-0x602 (1538)
     |                                               |                |  v1header{}: 0x0-0x2c (44)
0x000|54 5a 69 66                                    |TZif            |    magic: 0x545a6966 (valid) 0x0-0x4 (4)
0x000|            32                                 |    2           |    ver: "2" (0x32) (valid) 0x4-0x5 (1)
0x000|               00 00 00 00 00 00 00 00 00 00 00|     ...........|    reserved: raw bits 0x5-0x14 (15)
0x010|00 00 00 00                                    |....            |
0x010|            00 00 00 00                        |    ....        |    isutcnt: 0 0x14-0x18 (4)
0x010|                        00 00 00 0a            |        ....    |    isstdcnt: 10 0x18-0x1c (4)
0x010|                                    00 00 00 1b|            ....|    leapcnt: 27 0x1c-0x20 (4)
0x020|00 00 00 34                                    |...4            |    timecnt: 52 0x20-0x24 (4)
0x020|            00 00 00 0a                        |    ....        |    typecnt: 10 0x24-0x28 (4)
0x020|                        00 00 00 14            |        ....    |    charcnt: 20 0x28-0x2c (4)
     |                                               |                |  v1datablock{}: 0x2c-0x262 (566)
     |                                               |                |    transition_times[0:52]: 0x2c-0xfc (208)
0x020|                                    aa 19 93 dc|            ....|      [0]: "1924-05-01T20:34:36Z" (-1441164324) transition_time 0x2c-0x30 (4)
0x030|b5 a4 0b 50                                    |...P            |      [1]: "1930-06-20T21:00:00Z" (-1247540400) transition_time 0x30-0x34 (4)
0x030|            15 27 8b b9                        |    .'..        |      [2]: "1981-03-31T19:00:09Z" (354913209) transition_time 0x34-0x38 (4)
0x030|                        16 18 c0 2a            |        ...*    |      [3]: "1981-09-30T18:00:10Z" (370720810) transition_time 0x38-0x3c (4)
0x030|                                    17 08 b1 2a|            ...*|      [4]: "1982-03-31T18:00:10Z" (386445610) transition_time 0x3c-0x40 (4)
0x040|17 f9 f3 ab                                    |....            |      [5]: "1982-09-30T18:00:11Z" (402256811) transition_time 0x40-0x44 (4)
0x040|            18 e9 f2 bb                        |    ....        |      [6]: "1983-03-31T19:00:11Z" (417985211) transition_time 0x44-0x48 (4)
0x040|                        19 db 27 2c            |        ..',    |      [7]: "1983-09-30T18:00:12Z" (433792812) transition_time 0x48-0x4c (4)
0x040|                                    1a cc 77 bc|            ..w.|      [8]: "1984-03-31T19:00:12Z" (449607612) transition_time 0x4c-0x50 (4)
0x050|1b bc 84 dc                                    |....            |      [9]: "1984-09-29T21:00:12Z" (465339612) transition_time 0x50-0x54 (4)
0x050|            1c ac 75 dc                        |    ..u.        |      [10]: "1985-03-30T21:00:12Z" (481064412) transition_time 0x54-0x58 (4)
0x050|                        1d 9c 66 dd            |        ..f.    |      [11]: "1985-09-28T21:00:13Z" (496789213) transition_time 0x58-0x5c (4)
0x050|                                    1e 8c 57 dd|            ..W.|      [12]: "1986-03-29T21:00:13Z" (512514013) transition_time 0x5c-0x60 (4)
0x060|1f 7c 48 dd                                    |.|H.            |      [13]: "1986-09-27T21:00:13Z" (528238813) transition_time 0x60-0x64 (4)
0x060|            20 6c 39 dd                        |     l9.        |      [14]: "1987-03-28T21:00:13Z" (543963613) transition_time 0x64-0x68 (4)
0x060|                        21 5c 2a dd            |        !\*.    |      [15]: "1987-09-26T21:00:13Z" (559688413) transition_time 0x68-0x6c (4)
0x060|                                    22 4c 1b de|            "L..|      [16]: "1988-03-26T21:00:14Z" (575413214) transition_time 0x6c-0x70 (4)
0x070|23 3c 0c de                                    |#<..            |      [17]: "1988-09-24T21:00:14Z" (591138014) transition_time 0x70-0x74 (4)
0x070|            24 2b fd de                        |    $+..        |      [18]: "1989-03-25T21:00:14Z" (606862814) transition_time 0x74-0x78 (4)
0x070|                        25 1b fc ee            |        %...    |      [19]: "1989-09-23T22:00:14Z" (622591214) transition_time 0x78-0x7c (4)
0x070|                                    26 0b ed ef|            &...|      [20]: "1990-03-24T22:00:15Z" (638316015) transition_time 0x7c-0x80 (4)
0x080|27 05 19 6f                                    |'..o            |      [21]: "1990-09-29T22:00:15Z" (654645615) transition_time 0x80-0x84 (4)
0x080|            27 f5 0a 70                        |    '..p        |      [22]: "1991-03-30T22:00:16Z" (670370416) transition_time 0x84-0x88 (4)
0x080|                        28 e4 fb 70            |        (..p    |      [23]: "1991-09-28T22:00:16Z" (686095216) transition_time 0x88-0x8c (4)
0x080|                                    29 78 a3 70|            )x.p|      [24]: "1992-01-18T22:00:16Z" (695772016) transition_time 0x8c-0x90 (4)
0x090|29 d4 de 60                                    |)..`            |      [25]: "1992-03-28T21:00:16Z" (701816416) transition_time 0x90-0x94 (4)
0x090|            2a c4 dd 71                        |    *..q        |      [26]: "1992-09-26T22:00:17Z" (717544817) transition_time 0x94-0x98 (4)
0x090|                        2b b4 ce 71            |        +..q    |      [27]: "1993-03-27T22:00:17Z" (733269617) transition_time 0x98-0x9c (4)
0x090|                                    2c a4 bf 72|            ,..r|      [28]: "1993-09-25T22:00:18Z" (748994418) transition_time 0x9c-0xa0 (4)
0x0a0|2d 94 b0 72                                    |-..r            |      [29]: "1994-03-26T22:00:18Z" (764719218) transition_time 0xa0-0xa4 (4)
0x0a0|            2e 84 a1 73                        |    ...s        |      [30]: "1994-09-24T22:00:19Z" (780444019) transition_time 0xa4-0xa8 (4)
0x0a0|                        2f 74 92 73            |        /t.s    |      [31]: "1995-03-25T22:00:19Z" (796168819) transition_time 0xa8-0xac (4)
0x0a0|                                    30 64 83 73|            0d.s|      [32]: "1995-09-23T22:00:19Z" (811893619) transition_time 0xac-0xb0 (4)
0x0b0|31 5d ae f4                                    |1]..            |      [33]: "1996-03-30T22:00:20Z" (828223220) transition_time 0xb0-0xb4 (4)
0x0b0|            32 72 89 f4                        |    2r..        |      [34]: "1996-10-26T22:00:20Z" (846367220) transition_time 0xb4-0xb8 (4)
0x0b0|                        33 3d 90 f4            |        3=..    |      [35]: "1997-03-29T22:00:20Z" (859672820) transition_time 0xb8-0xbc (4)
0x0b0|                                    34 52 6b f5|            4Rk.|      [36]: "1997-10-25T22:00:21Z" (877816821) transition_time 0xbc-0xc0 (4)
0x0c0|35 1d 72 f5                                    |5.r.            |      [37]: "1998-03-28T22:00:21Z" (891122421) transition_time 0xc0-0xc4 (4)
0x0c0|            36 32 4d f5                        |    62M.        |      [38]: "1998-10-24T22:00:21Z" (909266421) transition_time 0xc4-0xc8 (4)
0x0c0|                        36 fd 54 f6            |        6.T.    |      [39]: "1999-03-27T22:00:22Z" (922572022) transition_time 0xc8-0xcc (4)
0x0c0|                                    38 1b 6a 76|            8.jv|      [40]: "1999-10-30T22:00:22Z" (941320822) transition_time 0xcc-0xd0 (4)
0x0d0|38 dd 36 f6                                    |8.6.            |      [41]: "2000-03-25T22:00:22Z" (954021622) transition_time 0xd0-0xd4 (4)
0x0d0|            39 fb 4c 76                        |    9.Lv        |      [42]: "2000-10-28T22:00:22Z" (972770422) transition_time 0xd4-0xd8 (4)
0x0d0|                        3a bd 18 f6            |        :...    |      [43]: "2001-03-24T22:00:22Z" (985471222) transition_time 0xd8-0xdc (4)
0x0d0|                                    3b db 2e 76|            ;..v|      [44]: "2001-10-27T22:00:22Z" (1004220022) transition_time 0xdc-0xe0 (4)
0x0e0|3c a6 35 76                                    |<.5v            |      [45]: "2002-03-30T22:00:22Z" (1017525622) transition_time 0xe0-0xe4 (4)
0x0e0|            3d bb 10 76                        |    =..v        |      [46]: "2002-10-26T22:00:22Z" (1035669622) transition_time 0xe4-0xe8 (4)
0x0e0|                        3e 86 17 76            |        >..v    |      [47]: "2003-03-29T22:00:22Z" (1048975222) transition_time 0xe8-0xec (4)
0x0e0|                                    3f 9a f2 76|            ?..v|      [48]: "2003-10-25T22:00:22Z" (1067119222) transition_time 0xec-0xf0 (4)
0x0f0|40 65 f9 76                                    |@e.v            |      [49]: "2004-03-27T22:00:22Z" (1080424822) transition_time 0xf0-0xf4 (4)
0x0f0|            41 84 0e f6                        |    A...        |      [50]: "2004-10-30T22:00:22Z" (1099173622) transition_time 0xf4-0xf8 (4)
0x0f0|                        64 9b 78 1b            |        d.x.    |      [51]: "2023-06-28T00:00:27Z" (1687910427) transition_time 0xf8-0xfc (4)
     |                                               |                |    transition_types[0:52]: 0xfc-0x130 (52)
0x0f0|                                    01         |            .   |      [0]: 1 transition_type 0xfc-0xfd (1)
0x0f0|                                       02      |             .  |      [1]: 2 transition_type 0xfd-0xfe (1)
0x0f0|                                          03   |              . |      [2]: 3 transition_type 0xfe-0xff (1)
0x0f0|                                             04|               .|      [3]: 4 transition_type 0xff-0x100 (1)
0x100|03                                             |.               |      [4]: 3 transition_type 0x100-0x101 (1)
0x100|   02                                          | .              |      [5]: 2 transition_type 0x101-0x102 (1)
0x100|      03                                       |  .             |      [6]: 3 transition_type 0x102-0x103 (1)
0x100|         02                                    |   .            |      [7]: 2 transition_type 0x103-0x104 (1)
0x100|            03                                 |    .           |      [8]: 3 transition_type 0x104-0x105 (1)
0x100|               05                              |     .          |      [9]: 5 transition_type 0x105-0x106 (1)
0x100|                  06                           |      .         |      [10]: 6 transition_type 0x106-0x107 (1)
0x100|                     05                        |       .        |      [11]: 5 transition_type 0x107-0x108 (1)
0x100|                        06                     |        .       |      [12]: 6 transition_type 0x108-0x109 (1)
0x100|                           05                  |         .      |      [13]: 5 transition_type 0x109-0x10a (1)
0x100|                              06               |          .     |      [14]: 6 transition_type 0x10a-0x10b (1)
0x100|                                 05            |           .    |      [15]: 5 transition_type 0x10b-0x10c (1)
0x100|                                    06         |            .   |      [16]: 6 transition_type 0x10c-0x10d (1)
0x100|                                       05      |             .  |      [17]: 5 transition_type 0x10d-0x10e (1)
0x100|                                          07   |              . |      [18]: 7 transition_type 0x10e-0x10f (1)
0x100|                                             08|               .|      [19]: 8 transition_type 0x10f-0x110 (1)
0x110|07                                             |.               |      [20]: 7 transition_type 0x110-0x111 (1)
0x110|   08                                          | .              |      [21]: 8 transition_type 0x111-0x112 (1)
0x110|      07                                       |  .             |      [22]: 7 transition_type 0x112-0x113 (1)
0x110|         08                                    |   .            |      [23]: 8 transition_type 0x113-0x114 (1)
0x110|            05                                 |    .           |      [24]: 5 transition_type 0x114-0x115 (1)
0x110|               07                              |     .          |      [25]: 7 transition_type 0x115-0x116 (1)
0x110|                  08                           |      .         |      [26]: 8 transition_type 0x116-0x117 (1)
0x110|                     07                        |       .        |      [27]: 7 transition_type 0x117-0x118 (1)
0x110|                        08                     |        .       |      [28]: 8 transition_type 0x118-0x119 (1)
0x110|                           07                  |         .      |      [29]: 7 transition_type 0x119-0x11a (1)
0x110|                              08               |          .     |      [30]: 8 transition_type 0x11a-0x11b (1)
0x110|                                 07            |           .    |      [31]: 7 transition_type 0x11b-0x11c (1)
0x110|                                    08         |            .   |      [32]: 8 transition_type 0x11c-0x11d (1)
0x110|                                       07      |             .  |      [33]: 7 transition_type 0x11d-0x11e (1)
0x110|                                          08   |              . |      [34]: 8 transition_type 0x11e-0x11f (1)
0x110|                                             07|               .|      [35]: 7 transition_type 0x11f-0x120 (1)
0x120|08                                             |.               |      [36]: 8 transition_type 0x120-0x121 (1)
0x120|   07                                          | .              |      [37]: 7 transition_type 0x121-0x122 (1)
0x120|      08                                       |  .             |      [38]: 8 transition_type 0x122-0x123 (1)
0x120|         07                                    |   .            |      [39]: 7 transition_type 0x123-0x124 (1)
0x120|            08                                 |    .           |      [40]: 8 transition_type 0x124-0x125 (1)
0x120|               07                              |     .          |      [41]: 7 transition_type 0x125-0x126 (1)
0x120|                  08                           |      .         |      [42]: 8 transition_type 0x126-0x127 (1)
0x120|                     07                        |       .        |      [43]: 7 transition_type 0x127-0x128 (1)
0x120|                        08                     |        .       |      [44]: 8 transition_type 0x128-0x129 (1)
0x120|                           07                  |         .      |      [45]: 7 transition_type 0x129-0x12a (1)
0x120|                              08               |          .     |      [46]: 8 transition_type 0x12a-0x12b (1)
0x120|                                 07            |           .    |      [47]: 7 transition_type 0x12b-0x12c (1)
0x120|                                    08         |            .   |      [48]: 8 transition_type 0x12c-0x12d (1)
0x120|                                       07      |             .  |      [49]: 7 transition_type 0x12d-0x12e (1)
0x120|                                          05   |              . |      [50]: 5 transition_type 0x12e-0x12f (1)
0x120|                                             05|               .|      [51]: 5 transition_type 0x12f-0x130 (1)
     |                                               |                |    local_time_type_records[0:10]: 0x130-0x16c (60)
     |                                               |                |      [0]{}: local_time_type 0x130-0x136 (6)
0x130|00 00 30 24                                    |..0$            |        utoff: 12324 (valid) 0x130-0x134 (4)
0x130|            00                                 |    .           |        dst: 0 (valid) 0x134-0x135 (1)
0x130|               00                              |     .          |        idx: 0 (valid) 0x135-0x136 (1)
     |                                               |                |      [1]{}: local_time_type 0x136-0x13c (6)
0x130|                  00 00 2a 30                  |      ..*0      |        utoff: 10800 (valid) 0x136-0x13a (4)
0x130|                              00               |          .     |        dst: 0 (valid) 0x13a-0x13b (1)
0x130|                                 04            |           .    |        idx: 4 (valid) 0x13b-0x13c (1)
     |                                               |                |      [2]{}: local_time_type 0x13c-0x142 (6)
0x130|                                    00 00 46 50|            ..FP|        utoff: 18000 (valid) 0x13c-0x140 (4)
0x140|00                                             |.               |        dst: 0 (valid) 0x140-0x141 (1)
0x140|   08                                          | .              |        idx: 8 (valid) 0x141-0x142 (1)
     |                                               |                |      [3]{}: local_time_type 0x142-0x148 (6)
0x140|      00 00 54 60                              |  ..T`          |        utoff: 21600 (valid) 0x142-0x146 (4)
0x140|                  01                           |      .         |        dst: 1 (valid) 0x146-0x147 (1)
0x140|                     0c                        |       .        |        idx: 12 (valid) 0x147-0x148 (1)
     |                                               |                |      [4]{}: local_time_type 0x148-0x14e (6)
0x140|                        00 00 54 60            |        ..T`    |        utoff: 21600 (valid) 0x148-0x14c (4)
0x140|                                    00         |            .   |        dst: 0 (valid) 0x14c-0x14d (1)
0x140|                                       0c      |             .  |        idx: 12 (valid) 0x14d-0x14e (1)
     |                                               |                |      [5]{}: local_time_type 0x14e-0x154 (6)
0x140|                                          00 00|              ..|        utoff: 18000 (valid) 0x14e-0x152 (4)
0x150|46 50                                          |FP              |
0x150|      00                                       |  .             |        dst: 0 (valid) 0x152-0x153 (1)
0x150|         08                                    |   .            |        idx: 8 (valid) 0x153-0x154 (1)
     |                                               |                |      [6]{}: local_time_type 0x154-0x15a (6)
0x150|            00 00 54 60                        |    ..T`        |        utoff: 21600 (valid) 0x154-0x158 (4)
0x150|                        01                     |        .       |        dst: 1 (valid) 0x158-0x159 (1)
0x150|                           0c                  |         .      |        idx: 12 (valid) 0x159-0x15a (1)
     |                                               |                |      [7]{}: local_time_type 0x15a-0x160 (6)
0x150|                              00 00 46 50      |          ..FP  |        utoff: 18000 (valid) 0x15a-0x15e (4)
0x150|                                          01   |              . |        dst: 1 (valid) 0x15e-0x15f (1)
0x150|                                             08|               .|        idx: 8 (valid) 0x15f-0x160 (1)
     |                                               |                |      [8]{}: local_time_type 0x160-0x166 (6)
0x160|00 00 38 40                                    |..8@            |        utoff: 14400 (valid) 0x160-0x164 (4)
0x160|            00                                 |    .           |        dst: 0 (valid) 0x164-0x165 (1)
0x160|               10                              |     .          |        idx: 16 (valid) 0x165-0x166 (1)
     |                                               |                |      [9]{}: local_time_type 0x166-0x16c (6)
0x160|                  00 00 46 50                  |      ..FP      |        utoff: 18000 (valid) 0x166-0x16a (4)
0x160|                              00               |          .     |        dst: 0 (valid) 0x16a-0x16b (1)
0x160|                                 08            |           .    |        idx: 8 (valid) 0x16b-0x16c (1)
     |                                               |                |    time_zone_designations[0:5]: 0x16c-0x180 (20)
0x160|                                    4c 4d 54 00|            LMT.|      [0]: "LMT" time_zone_designation 0x16c-0x170 (4)
0x170|2b 30 33 00                                    |+03.            |      [1]: "+03" time_zone_designation 0x170-0x174 (4)
0x170|            2b 30 35 00                        |    +05.        |      [2]: "+05" time_zone_designation 0x174-0x178 (4)
0x170|                        2b 30 36 00            |        +06.    |      [3]: "+06" time_zone_designation 0x178-0x17c (4)
0x170|                                    2b 30 34 00|            +04.|      [4]: "+04" time_zone_designation 0x17c-0x180 (4)
     |                                               |                |    leap_second_records[0:27]: 0x180-0x258 (216)
     |                                               |                |      [0]{}: leap_second_record 0x180-0x188 (8)
0x180|04 b2 58 00                                    |..X.            |        occur: "1972-07-01T00:00:00Z" (78796800) 0x180-0x184 (4)
0x180|            00 00 00 01                        |    ....        |        corr: 1 0x184-0x188 (4)
     |                                               |                |      [1]{}: leap_second_record 0x188-0x190 (8)
0x180|                        05 a4 ec 01            |        ....    |        occur: "1973-01-01T00:00:01Z" (94694401) 0x188-0x18c (4)
0x180|                                    00 00 00 02|            ....|        corr: 2 0x18c-0x190 (4)
     |                                               |                |      [2]{}: leap_second_record 0x190-0x198 (8)
0x190|07 86 1f 82                                    |....            |        occur: "1974-01-01T00:00:02Z" (126230402) 0x190-0x194 (4)
0x190|            00 00 00 03                        |    ....        |        corr: 3 0x194-0x198 (4)
     |                                               |                |      [3]{}: leap_second_record 0x198-0x1a0 (8)
0x190|                        09 67 53 03            |        .gS.    |        occur: "1975-01-01T00:00:03Z" (157766403) 0x198-0x19c (4)
0x190|                                    00 00 00 04|            ....|        corr: 4 0x19c-0x1a0 (4)
     |                                               |                |      [4]{}: leap_second_record 0x1a0-0x1a8 (8)
0x1a0|0b 48 86 84                                    |.H..            |        occur: "1976-01-01T00:00:04Z" (189302404) 0x1a0-0x1a4 (4)
0x1a0|            00 00 00 05                        |    ....        |        corr: 5 0x1a4-0x1a8 (4)
     |                                               |                |      [5]{}: leap_second_record 0x1a8-0x1b0 (8)
0x1a0|                        0d 2b 0b 85            |        .+..    |        occur: "1977-01-01T00:00:05Z" (220924805) 0x1a8-0x1ac (4)
0x1a0|                                    00 00 00 06|            ....|        corr: 6 0x1ac-0x1b0 (4)
     |                                               |                |      [6]{}: leap_second_record 0x1b0-0x1b8 (8)
0x1b0|0f 0c 3f 06                                    |..?.            |        occur: "1978-01-01T00:00:06Z" (252460806) 0x1b0-0x1b4 (4)
0x1b0|            00 00 00 07                        |    ....        |        corr: 7 0x1b4-0x1b8 (4)
     |                                               |                |      [7]{}: leap_second_record 0x1b8-0x1c0 (8)
0x1b0|                        10 ed 72 87            |        ..r.    |        occur: "1979-01-01T00:00:07Z" (283996807) 0x1b8-0x1bc (4)
0x1b0|                                    00 00 00 08|            ....|        corr: 8 0x1bc-0x1c0 (4)
     |                                               |                |      [8]{}: leap_second_record 0x1c0-0x1c8 (8)
0x1c0|12 ce a6 08                                    |....            |        occur: "1980-01-01T00:00:08Z" (315532808) 0x1c0-0x1c4 (4)
0x1c0|            00 00 00 09                        |    ....        |        corr: 9 0x1c4-0x1c8 (4)
     |                                               |                |      [9]{}: leap_second_record 0x1c8-0x1d0 (8)
0x1c0|                        15 9f ca 89            |        ....    |        occur: "1981-07-01T00:00:09Z" (362793609) 0x1c8-0x1cc (4)
0x1c0|                                    00 00 00 0a|            ....|        corr: 10 0x1cc-0x1d0 (4)
     |                                               |                |      [10]{}: leap_second_record 0x1d0-0x1d8 (8)
0x1d0|17 80 fe 0a                                    |....            |        occur: "1982-07-01T00:00:10Z" (394329610) 0x1d0-0x1d4 (4)
0x1d0|            00 00 00 0b                        |    ....        |        corr: 11 0x1d4-0x1d8 (4)
     |                                               |                |      [11]{}: leap_second_record 0x1d8-0x1e0 (8)
0x1d0|                        19 62 31 8b            |        .b1.    |        occur: "1983-07-01T00:00:11Z" (425865611) 0x1d8-0x1dc (4)
0x1d0|                                    00 00 00 0c|            ....|        corr: 12 0x1dc-0x1e0 (4)
     |                                               |                |      [12]{}: leap_second_record 0x1e0-0x1e8 (8)
0x1e0|1d 25 ea 0c                                    |.%..            |        occur: "1985-07-01T00:00:12Z" (489024012) 0x1e0-0x1e4 (4)
0x1e0|            00 00 00 0d                        |    ....        |        corr: 13 0x1e4-0x1e8 (4)
     |                                               |                |      [13]{}: leap_second_record 0x1e8-0x1f0 (8)
0x1e0|                        21 da e5 0d            |        !...    |        occur: "1988-01-01T00:00:13Z" (567993613) 0x1e8-0x1ec (4)
0x1e0|                                    00 00 00 0e|            ....|        corr: 14 0x1ec-0x1f0 (4)
     |                                               |                |      [14]{}: leap_second_record 0x1f0-0x1f8 (8)
0x1f0|25 9e 9d 8e                                    |%...            |        occur: "1990-01-01T00:00:14Z" (631152014) 0x1f0-0x1f4 (4)
0x1f0|            00 00 00 0f                        |    ....        |        corr: 15 0x1f4-0x1f8 (4)
     |                                               |                |      [15]{}: leap_second_record 0x1f8-0x200 (8)
0x1f0|                        27 7f d1 0f            |        '...    |        occur: "1991-01-01T00:00:15Z" (662688015) 0x1f8-0x1fc (4)
0x1f0|                                    00 00 00 10|            ....|        corr: 16 0x1fc-0x200 (4)
     |                                               |                |      [16]{}: leap_second_record 0x200-0x208 (8)
0x200|2a 50 f5 90                                    |*P..            |        occur: "1992-07-01T00:00:16Z" (709948816) 0x200-0x204 (4)
0x200|            00 00 00 11                        |    ....        |        corr: 17 0x204-0x208 (4)
     |                                               |                |      [17]{}: leap_second_record 0x208-0x210 (8)
0x200|                        2c 32 29 11            |        ,2).    |        occur: "1993-07-01T00:00:17Z" (741484817) 0x208-0x20c (4)
0x200|                                    00 00 00 12|            ....|        corr: 18 0x20c-0x210 (4)
     |                                               |                |      [18]{}: leap_second_record 0x210-0x218 (8)
0x210|2e 13 5c 92                                    |..\.            |        occur: "1994-07-01T00:00:18Z" (773020818) 0x210-0x214 (4)
0x210|            00 00 00 13                        |    ....        |        corr: 19 0x214-0x218 (4)
     |                                               |                |      [19]{}: leap_second_record 0x218-0x220 (8)
0x210|                        30 e7 24 13            |        0.$.    |        occur: "1996-01-01T00:00:19Z" (820454419) 0x218-0x21c (4)
0x210|                                    00 00 00 14|            ....|        corr: 20 0x21c-0x220 (4)
     |                                               |                |      [20]{}: leap_second_record 0x220-0x228 (8)
0x220|33 b8 48 94                                    |3.H.            |        occur: "1997-07-01T00:00:20Z" (867715220) 0x220-0x224 (4)
0x220|            00 00 00 15                        |    ....        |        corr: 21 0x224-0x228 (4)
     |                                               |                |      [21]{}: leap_second_record 0x228-0x230 (8)
0x220|                        36 8c 10 15            |        6...    |        occur: "1999-01-01T00:00:21Z" (915148821) 0x228-0x22c (4)
0x220|                                    00 00 00 16|            ....|        corr: 22 0x22c-0x230 (4)
     |                                               |                |      [22]{}: leap_second_record 0x230-0x238 (8)
0x230|43 b7 1b 96                                    |C...            |        occur: "2006-01-01T00:00:22Z" (1136073622) 0x230-0x234 (4)
0x230|            00 00 00 17                        |    ....        |        corr: 23 0x234-0x238 (4)
     |                                               |                |      [23]{}: leap_second_record 0x238-0x240 (8)
0x230|                        49 5c 07 97            |        I\..    |        occur: "2009-01-01T00:00:23Z" (1230768023) 0x238-0x23c (4)
0x230|                                    00 00 00 18|            ....|        corr: 24 0x23c-0x240 (4)
     |                                               |                |      [24]{}: leap_second_record 0x240-0x248 (8)
0x240|4f ef 93 18                                    |O...            |        occur: "2012-07-01T00:00:24Z" (1341100824) 0x240-0x244 (4)
0x240|            00 00 00 19                        |    ....        |        corr: 25 0x244-0x248 (4)
     |                                               |                |      [25]{}: leap_second_record 0x248-0x250 (8)
0x240|                        55 93 2d 99            |        U.-.    |        occur: "2015-07-01T00:00:25Z" (1435708825) 0x248-0x24c (4)
0x240|                                    00 00 00 1a|            ....|        corr: 26 0x24c-0x250 (4)
     |                                               |                |      [26]{}: leap_second_record 0x250-0x258 (8)
0x250|58 68 46 9a                                    |XhF.            |        occur: "2017-01-01T00:00:26Z" (1483228826) 0x250-0x254 (4)
0x250|            00 00 00 1b                        |    ....        |        corr: 27 0x254-0x258 (4)
     |                                               |                |    standard_wall_indicators[0:10]: 0x258-0x262 (10)
0x250|                        00                     |        .       |      [0]: 0 standard_wall_indicator (valid) 0x258-0x259 (1)
0x250|                           00                  |         .      |      [1]: 0 standard_wall_indicator (valid) 0x259-0x25a (1)
0x250|                              00               |          .     |      [2]: 0 standard_wall_indicator (valid) 0x25a-0x25b (1)
0x250|                                 00            |           .    |      [3]: 0 standard_wall_indicator (valid) 0x25b-0x25c (1)
0x250|                                    00         |            .   |      [4]: 0 standard_wall_indicator (valid) 0x25c-0x25d (1)
0x250|                                       01      |             .  |      [5]: 1 standard_wall_indicator (valid) 0x25d-0x25e (1)
0x250|                                          01   |              . |      [6]: 1 standard_wall_indicator (valid) 0x25e-0x25f (1)
0x250|                                             01|               .|      [7]: 1 standard_wall_indicator (valid) 0x25f-0x260 (1)
0x260|01                                             |.               |      [8]: 1 standard_wall_indicator (valid) 0x260-0x261 (1)
0x260|   01                                          | .              |      [9]: 1 standard_wall_indicator (valid) 0x261-0x262 (1)
     |                                               |                |    ut_local_indicators[0:0]: 0x262-0x262 (0)
     |                                               |                |  v2plusheader{}: 0x262-0x28e (44)
0x260|      54 5a 69 66                              |  TZif          |    magic: 0x545a6966 (valid) 0x262-0x266 (4)
0x260|                  32                           |      2         |    ver: "2" (0x32) (valid) 0x266-0x267 (1)
0x260|                     00 00 00 00 00 00 00 00 00|       .........|    reserved: raw bits 0x267-0x276 (15)
0x270|00 00 00 00 00 00                              |......          |
0x270|                  00 00 00 00                  |      ....      |    isutcnt: 0 0x276-0x27a (4)
0x270|                              00 00 00 0a      |          ....  |    isstdcnt: 10 0x27a-0x27e (4)
0x270|                                          00 00|              ..|    leapcnt: 27 0x27e-0x282 (4)
0x280|00 1b                                          |..              |
0x280|      00 00 00 34                              |  ...4          |    timecnt: 52 0x282-0x286 (4)
0x280|                  00 00 00 0a                  |      ....      |    typecnt: 10 0x286-0x28a (4)
0x280|                              00 00 00 14      |          ....  |    charcnt: 20 0x28a-0x28e (4)
     |                                               |                |  v2plusdatablock{}: 0x28e-0x600 (882)
     |                                               |                |    transition_times[0:52]: 0x28e-0x42e (416)
0x280|                                          ff ff|              ..|      [0]: "1924-05-01T20:34:36Z" (-1441164324) transition_time 0x28e-0x296 (8)
0x290|ff ff aa 19 93 dc                              |......          |
0x290|                  ff ff ff ff b5 a4 0b 50      |      .......P  |      [1]: "1930-06-20T21:00:00Z" (-1247540400) transition_time 0x296-0x29e (8)
0x290|                                          00 00|              ..|      [2]: "1981-03-31T19:00:09Z" (354913209) transition_time 0x29e-0x2a6 (8)
0x2a0|00 00 15 27 8b b9                              |...'..          |
0x2a0|                  00 00 00 00 16 18 c0 2a      |      .......*  |      [3]: "1981-09-30T18:00:10Z" (370720810) transition_time 0x2a6-0x2ae (8)
0x2a0|                                          00 00|              ..|      [4]: "1982-03-31T18:00:10Z" (386445610) transition_time 0x2ae-0x2b6 (8)
0x2b0|00 00 17 08 b1 2a                              |.....*          |
0x2b0|                  00 00 00 00 17 f9 f3 ab      |      ........  |      [5]: "1982-09-30T18:00:11Z" (402256811) transition_time 0x2b6-0x2be (8)
0x2b0|                                          00 00|              ..|      [6]: "1983-03-31T19:00:11Z" (417985211) transition_time 0x2be-0x2c6 (8)
0x2c0|00 00 18 e9 f2 bb                              |......          |
0x2c0|                  00 00 00 00 19 db 27 2c      |      ......',  |      [7]: "1983-09-30T18:00:12Z" (433792812) transition_time 0x2c6-0x2ce (8)
0x2c0|                                          00 00|              ..|      [8]: "1984-03-31T19:00:12Z" (449607612) transition_time 0x2ce-0x2d6 (8)
0x2d0|00 00 1a cc 77 bc                              |....w.          |
0x2d0|                  00 00 00 00 1b bc 84 dc      |      ........  |      [9]: "1984-09-29T21:00:12Z" (465339612) transition_time 0x2d6-0x2de (8)
0x2d0|                                          00 00|              ..|      [10]: "1985-03-30T21:00:12Z" (481064412) transition_time 0x2de-0x2e6 (8)
0x2e0|00 00 1c ac 75 dc                              |....u.          |
0x2e0|                  00 00 00 00 1d 9c 66 dd      |      ......f.  |      [11]: "1985-09-28T21:00:13Z" (496789213) transition_time 0x2e6-0x2ee (8)
0x2e0|                                          00 00|              ..|      [12]: "1986-03-29T21:00:13Z" (512514013) transition_time 0x2ee-0x2f6 (8)
0x2f0|00 00 1e 8c 57 dd                              |....W.          |
0x2f0|                  00 00 00 00 1f 7c 48 dd      |      .....|H.  |      [13]: "1986-09-27T21:00:13Z" (528238813) transition_time 0x2f6-0x2fe (8)
0x2f0|                                          00 00|              ..|      [14]: "1987-03-28T21:00:13Z" (543963613) transition_time 0x2fe-0x306 (8)
0x300|00 00 20 6c 39 dd                              |.. l9.          |
0x300|                  00 00 00 00 21 5c 2a dd      |      ....!\*.  |      [15]: "1987-09-26T21:00:13Z" (559688413) transition_time 0x306-0x30e (8)
0x300|                                          00 00|              ..|      [16]: "1988-03-26T21:00:14Z" (575413214) transition_time 0x30e-0x316 (8)
0x310|00 00 22 4c 1b de                              |.."L..          |
0x310|                  00 00 00 00 23 3c 0c de      |      ....#<..  |      [17]: "1988-09-24T21:00:14Z" (591138014) transition_time 0x316-0x31e (8)
0x310|                                          00 00|              ..|      [18]: "1989-03-25T21:00:14Z" (606862814) transition_time 0x31e-0x326 (8)
0x320|00 00 24 2b fd de                              |..$+..          |
0x320|                  00 00 00 00 25 1b fc ee      |      ....%...  |      [19]: "1989-09-23T22:00:14Z" (622591214) transition_time 0x326-0x32e (8)
0x320|                                          00 00|              ..|      [20]: "1990-03-24T22:00:15Z" (638316015) transition_time 0x32e-0x336 (8)
0x330|00 00 26 0b ed ef                              |..&...          |
0x330|                  00 00 00 00 27 05 19 6f      |      ....'..o  |      [21]: "1990-09-29T22:00:15Z" (654645615) transition_time 0x336-0x33e (8)
0x330|                                          00 00|              ..|      [22]: "1991-03-30T22:00:16Z" (670370416) transition_time 0x33e-0x346 (8)
0x340|00 00 27 f5 0a 70                              |..'..p          |
0x340|                  00 00 00 00 28 e4 fb 70      |      ....(..p  |      [23]: "1991-09-28T22:00:16Z" (686095216) transition_time 0x346-0x34e (8)
0x340|                                          00 00|              ..|      [24]: "1992-01-18T22:00:16Z" (695772016) transition_time 0x34e-0x356 (8)
0x350|00 00 29 78 a3 70                              |..)x.p          |
0x350|                  00 00 00 00 29 d4 de 60      |      ....)..`  |      [25]: "1992-03-28T21:00:16Z" (701816416) transition_time 0x356-0x35e (8)
0x350|                                          00 00|              ..|      [26]: "1992-09-26T22:00:17Z" (717544817) transition_time 0x35e-0x366 (8)
0x360|00 00 2a c4 dd 71                              |..*..q          |
0x360|                  00 00 00 00 2b b4 ce 71      |      ....+..q  |      [27]: "1993-03-27T22:00:17Z" (733269617) transition_time 0x366-0x36e (8)
0x360|                                          00 00|              ..|      [28]: "1993-09-25T22:00:18Z" (748994418) transition_time 0x36e-0x376 (8)
0x370|00 00 2c a4 bf 72                              |..,..r          |
0x370|                  00 00 00 00 2d 94 b0 72      |      ....-..r  |      [29]: "1994-03-26T22:00:18Z" (764719218) transition_time 0x376-0x37e (8)
0x370|                                          00 00|              ..|      [30]: "1994-09-24T22:00:19Z" (780444019) transition_time 0x37e-0x386 (8)
0x380|00 00 2e 84 a1 73                              |.....s          |
0x380|                  00 00 00 00 2f 74 92 73      |      ..../t.s  |      [31]: "1995-03-25T22:00:19Z" (796168819) transition_time 0x386-0x38e (8)
0x380|                                          00 00|              ..|      [32]: "1995-09-23T22:00:19Z" (811893619) transition_time 0x38e-0x396 (8)
0x390|00 00 30 64 83 73                              |..0d.s          |
0x390|                  00 00 00 00 31 5d ae f4      |      ....1]..  |      [33]: "1996-03-30T22:00:20Z" (828223220) transition_time 0x396-0x39e (8)
0x390|                                          00 00|              ..|      [34]: "1996-10-26T22:00:20Z" (846367220) transition_time 0x39e-0x3a6 (8)
0x3a0|00 00 32 72 89 f4                              |..2r..          |
0x3a0|                  00 00 00 00 33 3d 90 f4      |      ....3=..  |      [35]: "1997-03-29T22:00:20Z" (859672820) transition_time 0x3a6-0x3ae (8)
0x3a0|                                          00 00|              ..|      [36]: "1997-10-25T22:00:21Z" (877816821) transition_time 0x3ae-0x3b6 (8)
0x3b0|00 00 34 52 6b f5                              |..4Rk.          |
0x3b0|                  00 00 00 00 35 1d 72 f5      |      ....5.r.  |      [37]: "1998-03-28T22:00:21Z" (891122421) transition_time 0x3b6-0x3be (8)
0x3b0|                                          00 00|              ..|      [38]: "1998-10-24T22:00:21Z" (909266421) transition_time 0x3be-0x3c6 (8)
0x3c0|00 00 36 32 4d f5                              |..62M.          |
0x3c0|                  00 00 00 00 36 fd 54 f6      |      ....6.T.  |      [39]: "1999-03-27T22:00:22Z" (922572022) transition_time 0x3c6-0x3ce (8)
0x3c0|                                          00 00|              ..|      [40]: "1999-10-30T22:00:22Z" (941320822) transition_time 0x3ce-0x3d6 (8)
0x3d0|00 00 38 1b 6a 76                              |..8.jv          |
0x3d0|                  00 00 00 00 38 dd 36 f6      |      ....8.6.  |      [41]: "2000-03-25T22:00:22Z" (954021622) transition_time 0x3d6-0x3de (8)
0x3d0|                                          00 00|              ..|      [42]: "2000-10-28T22:00:22Z" (972770422) transition_time 0x3de-0x3e6 (8)
0x3e0|00 00 39 fb 4c 76                              |..9.Lv          |
0x3e0|                  00 00 00 00 3a bd 18 f6      |      ....:...  |      [43]: "2001-03-24T22:00:22Z" (985471222) transition_time 0x3e6-0x3ee (8)
0x3e0|                                          00 00|              ..|      [44]: "2001-10-27T22:00:22Z" (1004220022) transition_time 0x3ee-0x3f6 (8)
0x3f0|00 00 3b db 2e 76                              |..;..v          |
0x3f0|                  00 00 00 00 3c a6 35 76      |      ....<.5v  |      [45]: "2002-03-30T22:00:22Z" (1017525622) transition_time 0x3f6-0x3fe (8)
0x3f0|                                          00 00|              ..|      [46]: "2002-10-26T22:00:22Z" (1035669622) transition_time 0x3fe-0x406 (8)
0x400|00 00 3d bb 10 76                              |..=..v          |
0x400|                  00 00 00 00 3e 86 17 76      |      ....>..v  |      [47]: "2003-03-29T22:00:22Z" (1048975222) transition_time 0x406-0x40e (8)
0x400|                                          00 00|              ..|      [48]: "2003-10-25T22:00:22Z" (1067119222) transition_time 0x40e-0x416 (8)
0x410|00 00 3f 9a f2 76                              |..?..v          |
0x410|                  00 00 00 00 40 65 f9 76      |      ....@e.v  |      [49]: "2004-03-27T22:00:22Z" (1080424822) transition_time 0x416-0x41e (8)
0x410|                                          00 00|              ..|      [50]: "2004-10-30T22:00:22Z" (1099173622) transition_time 0x41e-0x426 (8)
0x420|00 00 41 84 0e f6                              |..A...          |
0x420|                  00 00 00 00 64 9b 78 1b      |      ....d.x.  |      [51]: "2023-06-28T00:00:27Z" (1687910427) transition_time 0x426-0x42e (8)
     |                                               |                |    transition_types[0:52]: 0x42e-0x462 (52)
0x420|                                          01   |              . |      [0]: 1 transition_type 0x42e-0x42f (1)
0x420|                                             02|               .|      [1]: 2 transition_type 0x42f-0x430 (1)
0x430|03                                             |.               |      [2]: 3 transition_type 0x430-0x431 (1)
0x430|   04                                          | .              |      [3]: 4 transition_type 0x431-0x432 (1)
0x430|      03                                       |  .             |      [4]: 3 transition_type 0x432-0x433 (1)
0x430|         02                                    |   .            |      [5]: 2 transition_type 0x433-0x434 (1)
0x430|            03                                 |    .           |      [6]: 3 transition_type 0x434-0x435 (1)
0x430|               02                              |     .          |      [7]: 2 transition_type 0x435-0x436 (1)
0x430|                  03                           |      .         |      [8]: 3 transition_type 0x436-0x437 (1)
0x430|                     05                        |       .        |      [9]: 5 transition_type 0x437-0x438 (1)
0x430|                        06                     |        .       |      [10]: 6 transition_type 0x438-0x439 (1)
0x430|                           05                  |         .      |      [11]: 5 transition_type 0x439-0x43a (1)
0x430|                              06               |          .     |      [12]: 6 transition_type 0x43a-0x43b (1)
0x430|                                 05            |           .    |      [13]: 5 transition_type 0x43b-0x43c (1)
0x430|                                    06         |            .   |      [14]: 6 transition_type 0x43c-0x43d (1)
0x430|                                       05      |             .  |      [15]: 5 transition_type 0x43d-0x43e (1)
0x430|                                          06   |              . |      [16]: 6 transition_type 0x43e-0x43f (1)
0x430|                                             05|               .|      [17]: 5 transition_type 0x43f-0x440 (1)
0x440|07                                             |.               |      [18]: 7 transition_type 0x440-0x441 (1)
0x440|   08                                          | .              |      [19]: 8 transition_type 0x441-0x442 (1)
0x440|      07                                       |  .             |      [20]: 7 transition_type 0x442-0x443 (1)
0x440|         08                                    |   .            |      [21]: 8 transition_type 0x443-0x444 (1)
0x440|            07                                 |    .           |      [22]: 7 transition_type 0x444-0x445 (1)
0x440|               08                              |     .          |      [23]: 8 transition_type 0x445-0x446 (1)
0x440|                  05                           |      .         |      [24]: 5 transition_type 0x446-0x447 (1)
0x440|                     07                        |       .        |      [25]: 7 transition_type 0x447-0x448 (1)
0x440|                        08                     |        .       |      [26]: 8 transition_type 0x448-0x449 (1)
0x440|                           07                  |         .      |      [27]: 7 transition_type 0x449-0x44a (1)
0x440|                              08               |          .     |      [28]: 8 transition_type 0x44a-0x44b (1)
0x440|                                 07            |           .    |      [29]: 7 transition_type 0x44b-0x44c (1)
0x440|                                    08         |            .   |      [30]: 8 transition_type 0x44c-0x44d (1)
0x440|                                       07      |             .  |      [31]: 7 transition_type 0x44d-0x44e (1)
0x440|                                          08   |              . |      [32]: 8 transition_type 0x44e-0x44f (1)
0x440|                                             07|               .|      [33]: 7 transition_type 0x44f-0x450 (1)
0x450|08                                             |.               |      [34]: 8 transition_type 0x450-0x451 (1)
0x450|   07                                          | .              |      [35]: 7 transition_type 0x451-0x452 (1)
0x450|      08                                       |  .             |      [36]: 8 transition_type 0x452-0x453 (1)
0x450|         07                                    |   .            |      [37]: 7 transition_type 0x453-0x454 (1)
0x450|            08                                 |    .           |      [38]: 8 transition_type 0x454-0x455 (1)
0x450|               07                              |     .          |      [39]: 7 transition_type 0x455-0x456 (1)
0x450|                  08                           |      .         |      [40]: 8 transition_type 0x456-0x457 (1)
0x450|                     07                        |       .        |      [41]: 7 transition_type 0x457-0x458 (1)
0x450|                        08                     |        .       |      [42]: 8 transition_type 0x458-0x459 (1)
0x450|                           07                  |         .      |      [43]: 7 transition_type 0x459-0x45a (1)
0x450|                              08               |          .     |      [44]: 8 transition_type 0x45a-0x45b (1)
0x450|                                 07            |           .    |      [45]: 7 transition_type 0x45b-0x45c (1)
0x450|                                    08         |            .   |      [46]: 8 transition_type 0x45c-0x45d (1)
0x450|                                       07      |             .  |      [47]: 7 transition_type 0x45d-0x45e (1)
0x450|                                          08   |              . |      [48]: 8 transition_type 0x45e-0x45f (1)
0x450|                                             07|               .|      [49]: 7 transition_type 0x45f-0x460 (1)
0x460|05                                             |.               |      [50]: 5 transition_type 0x460-0x461 (1)
0x460|   05                                          | .              |      [51]: 5 transition_type 0x461-0x462 (1)
     |                                               |                |    local_time_type_records[0:10]: 0x462-0x49e (60)
     |                                               |                |      [0]{}: local_time_type 0x462-0x468 (6)
0x460|      00 00 30 24                              |  ..0$          |        utoff: 12324 (valid) 0x462-0x466 (4)
0x460|                  00                           |      .         |        dst: 0 (valid) 0x466-0x467 (1)
0x460|                     00                        |       .        |        idx: 0 (valid) 0x467-0x468 (1)
     |                                               |                |      [1]{}: local_time_type 0x468-0x46e (6)
0x460|                        00 00 2a 30            |        ..*0    |        utoff: 10800 (valid) 0x468-0x46c (4)
0x460|                                    00         |            .   |        dst: 0 (valid) 0x46c-0x46d (1)
0x460|                                       04      |             .  |        idx: 4 (valid) 0x46d-0x46e (1)
     |                                               |                |      [2]{}: local_time_type 0x46e-0x474 (6)
0x460|                                          00 00|              ..|        utoff: 18000 (valid) 0x46e-0x472 (4)
0x470|46 50                                          |FP              |
0x470|      00                                       |  .             |        dst: 0 (valid) 0x472-0x473 (1)
0x470|         08                                    |   .            |        idx: 8 (valid) 0x473-0x474 (1)
     |                                               |                |      [3]{}: local_time_type 0x474-0x47a (6)
0x470|            00 00 54 60                        |    ..T`        |        utoff: 21600 (valid) 0x474-0x478 (4)
0x470|                        01                     |        .       |        dst: 1 (valid) 0x478-0x479 (1)
0x470|                           0c                  |         .      |        idx: 12 (valid) 0x479-0x47a (1)
     |                                               |                |      [4]{}: local_time_type 0x47a-0x480 (6)
0x470|                              00 00 54 60      |          ..T`  |        utoff: 21600 (valid) 0x47a-0x47e (4)
0x470|                                          00   |              . |        dst: 0 (valid) 0x47e-0x47f (1)
0x470|                                             0c|               .|        idx: 12 (valid) 0x47f-0x480 (1)
     |                                               |                |      [5]{}: local_time_type 0x480-0x486 (6)
0x480|00 00 46 50                                    |..FP            |        utoff: 18000 (valid) 0x480-0x484 (4)
0x480|            00                                 |    .           |        dst: 0 (valid) 0x484-0x485 (1)
0x480|               08                              |     .          |        idx: 8 (valid) 0x485-0x486 (1)
     |                                               |                |      [6]{}: local_time_type 0x486-0x48c (6)
0x480|                  00 00 54 60                  |      ..T`      |        utoff: 21600 (valid) 0x486-0x48a (4)
0x480|                              01               |          .     |        dst: 1 (valid) 0x48a-0x48b (1)
0x480|                                 0c            |           .    |        idx: 12 (valid) 0x48b-0x48c (1)
     |                                               |                |      [7]{}: local_time_type 0x48c-0x492 (6)
0x480|                                    00 00 46 50|            ..FP|        utoff: 18000 (valid) 0x48c-0x490 (4)
0x490|01                                             |.               |        dst: 1 (valid) 0x490-0x491 (1)
0x490|   08                                          | .              |        idx: 8 (valid) 0x491-0x492 (1)
     |                                               |                |      [8]{}: local_time_type 0x492-0x498 (6)
0x490|      00 00 38 40                              |  ..8@          |        utoff: 14400 (valid) 0x492-0x496 (4)
0x490|                  00                           |      .         |        dst: 0 (valid) 0x496-0x497 (1)
0x490|                     10                        |       .        |        idx: 16 (valid) 0x497-0x498 (1)
     |                                               |                |      [9]{}: local_time_type 0x498-0x49e (6)
0x490|                        00 00 46 50            |        ..FP    |        utoff: 18000 (valid) 0x498-0x49c (4)
0x490|                                    00         |            .   |        dst: 0 (valid) 0x49c-0x49d (1)
0x490|                                       08      |             .  |        idx: 8 (valid) 0x49d-0x49e (1)
     |                                               |                |    time_zone_designations[0:5]: 0x49e-0x4b2 (20)
0x490|                                          4c 4d|              LM|      [0]: "LMT" time_zone_designation 0x49e-0x4a2 (4)
0x4a0|54 00                                          |T.              |
0x4a0|      2b 30 33 00                              |  +03.          |      [1]: "+03" time_zone_designation 0x4a2-0x4a6 (4)
0x4a0|                  2b 30 35 00                  |      +05.      |      [2]: "+05" time_zone_designation 0x4a6-0x4aa (4)
0x4a0|                              2b 30 36 00      |          +06.  |      [3]: "+06" time_zone_designation 0x4aa-0x4ae (4)
0x4a0|                                          2b 30|              +0|      [4]: "+04" time_zone_designation 0x4ae-0x4b2 (4)
0x4b0|34 00                                          |4.              |
     |                                               |                |    leap_second_records[0:27]: 0x4b2-0x5f6 (324)
     |                                               |                |      [0]{}: leap_second_record 0x4b2-0x4be (12)
0x4b0|      00 00 00 00 04 b2 58 00                  |  ......X.      |        occur: "1972-07-01T00:00:00Z" (78796800) 0x4b2-0x4ba (8)
0x4b0|                              00 00 00 01      |          ....  |        corr: 1 0x4ba-0x4be (4)
     |                                               |                |      [1]{}: leap_second_record 0x4be-0x4ca (12)
0x4b0|                                          00 00|              ..|        occur: "1973-01-01T00:00:01Z" (94694401) 0x4be-0x4c6 (8)
0x4c0|00 00 05 a4 ec 01                              |......          |
0x4c0|                  00 00 00 02                  |      ....      |        corr: 2 0x4c6-0x4ca (4)
     |                                               |                |      [2]{}: leap_second_record 0x4ca-0x4d6 (12)
0x4c0|                              00 00 00 00 07 86|          ......|        occur: "1974-01-01T00:00:02Z" (126230402) 0x4ca-0x4d2 (8)
0x4d0|1f 82                                          |..              |
0x4d0|      00 00 00 03                              |  ....          |        corr: 3 0x4d2-0x4d6 (4)
     |                                               |                |      [3]{}: leap_second_record 0x4d6-0x4e2 (12)
0x4d0|                  00 00 00 00 09 67 53 03      |      .....gS.  |        occur: "1975-01-01T00:00:03Z" (157766403) 0x4d6-0x4de (8)
0x4d0|                                          00 00|              ..|        corr: 4 0x4de-0x4e2 (4)
0x4e0|00 04                                          |..              |
     |                                               |                |      [4]{}: leap_second_record 0x4e2-0x4ee (12)
0x4e0|      00 00 00 00 0b 48 86 84                  |  .....H..      |        occur: "1976-01-01T00:00:04Z" (189302404) 0x4e2-0x4ea (8)
0x4e0|                              00 00 00 05      |          ....  |        corr: 5 0x4ea-0x4ee (4)
     |                                               |                |      [5]{}: leap_second_record 0x4ee-0x4fa (12)
0x4e0|                                          00 00|              ..|        occur: "1977-01-01T00:00:05Z" (220924805) 0x4ee-0x4f6 (8)
0x4f0|00 00 0d 2b 0b 85                              |...+..          |
0x4f0|                  00 00 00 06                  |      ....      |        corr: 6 0x4f6-0x4fa (4)
     |                                               |                |      [6]{}: leap_second_record 0x4fa-0x506 (12)
0x4f0|                              00 00 00 00 0f 0c|          ......|        occur: "1978-01-01T00:00:06Z" (252460806) 0x4fa-0x502 (8)
0x500|3f 06                                          |?.              |
0x500|      00 00 00 07                              |  ....          |        corr: 7 0x502-0x506 (4)
     |                                               |                |      [7]{}: leap_second_record 0x506-0x512 (12)
0x500|                  00 00 00 00 10 ed 72 87      |      ......r.  |        occur: "1979-01-01T00:00:07Z" (283996807) 0x506-0x50e (8)
0x500|                                          00 00|              ..|        corr: 8 0x50e-0x512 (4)
0x510|00 08                                          |..              |
     |                                               |                |      [8]{}: leap_second_record 0x512-0x51e (12)
0x510|      00 00 00 00 12 ce a6 08                  |  ........      |        occur: "1980-01-01T00:00:08Z" (315532808) 0x512-0x51a (8)
0x510|                              00 00 00 09      |          ....  |        corr: 9 0x51a-0x51e (4)
     |                                               |                |      [9]{}: leap_second_record 0x51e-0x52a (12)
0x510|                                          00 00|              ..|        occur: "1981-07-01T00:00:09Z" (362793609) 0x51e-0x526 (8)
0x520|00 00 15 9f ca 89                              |......          |
0x520|                  00 00 00 0a                  |      ....      |        corr: 10 0x526-0x52a (4)
     |                                               |                |      [10]{}: leap_second_record 0x52a-0x536 (12)
0x520|                              00 00 00 00 17 80|          ......|        occur: "1982-07-01T00:00:10Z" (394329610) 0x52a-0x532 (8)
0x530|fe 0a                                          |..              |
0x530|      00 00 00 0b                              |  ....          |        corr: 11 0x532-0x536 (4)
     |                                               |                |      [11]{}: leap_second_record 0x536-0x542 (12)
0x530|                  00 00 00 00 19 62 31 8b      |      .....b1.  |        occur: "1983-07-01T00:00:11Z" (425865611) 0x536-0x53e (8)
0x530|                                          00 00|              ..|        corr: 12 0x53e-0x542 (4)
0x540|00 0c                                          |..              |
     |                                               |                |      [12]{}: leap_second_record 0x542-0x54e (12)
0x540|      00 00 00 00 1d 25 ea 0c                  |  .....%..      |        occur: "1985-07-01T00:00:12Z" (489024012) 0x542-0x54a (8)
0x540|                              00 00 00 0d      |          ....  |        corr: 13 0x54a-0x54e (4)
     |                                               |                |      [13]{}: leap_second_record 0x54e-0x55a (12)
0x540|                                          00 00|              ..|        occur: "1988-01-01T00:00:13Z" (567993613) 0x54e-0x556 (8)
0x550|00 00 21 da e5 0d                              |..!...          |
0x550|                  00 00 00 0e                  |      ....      |        corr: 14 0x556-0x55a (4)
     |                                               |                |      [14]{}: leap_second_record 0x55a-0x566 (12)
0x550|                              00 00 00 00 25 9e|          ....%.|        occur: "1990-01-01T00:00:14Z" (631152014) 0x55a-0x562 (8)
0x560|9d 8e                                          |..              |
0x560|      00 00 00 0f                              |  ....          |        corr: 15 0x562-0x566 (4)
     |                                               |                |      [15]{}: leap_second_record 0x566-0x572 (12)
0x560|                  00 00 00 00 27 7f d1 0f      |      ....'...  |        occur: "1991-01-01T00:00:15Z" (662688015) 0x566-0x56e (8)
0x560|                                          00 00|              ..|        corr: 16 0x56e-0x572 (4)
0x570|00 10                                          |..              |
     |                                               |                |      [16]{}: leap_second_record 0x572-0x57e (12)
0x570|      00 00 00 00 2a 50 f5 90                  |  ....*P..      |        occur: "1992-07-01T00:00:16Z" (709948816) 0x572-0x57a (8)
0x570|                              00 00 00 11      |          ....  |        corr: 17 0x57a-0x57e (4)
     |                                               |                |      [17]{}: leap_second_record 0x57e-0x58a (12)
0x570|                                          00 00|              ..|        occur: "1993-07-01T00:00:17Z" (741484817) 0x57e-0x586 (8)
0x580|00 00 2c 32 29 11                              |..,2).          |
0x580|                  00 00 00 12                  |      ....      |        corr: 18 0x586-0x58a (4)
     |                                               |                |      [18]{}: leap_second_record 0x58a-0x596 (12)
0x580|                              00 00 00 00 2e 13|          ......|        occur: "1994-07-01T00:00:18Z" (773020818) 0x58a-0x592 (8)
0x590|5c 92                                          |\.              |
0x590|      00 00 00 13                              |  ....          |        corr: 19 0x592-0x596 (4)
     |                                               |                |      [19]{}: leap_second_record 0x596-0x5a2 (12)
0x590|                  00 00 00 00 30 e7 24 13      |      ....0.$.  |        occur: "1996-01-01T00:00:19Z" (820454419) 0x596-0x59e (8)
0x590|                                          00 00|              ..|        corr: 20 0x59e-0x5a2 (4)
0x5a0|00 14                                          |..              |
     |                                               |                |      [20]{}: leap_second_record 0x5a2-0x5ae (12)
0x5a0|      00 00 00 00 33 b8 48 94                  |  ....3.H.      |        occur: "1997-07-01T00:00:20Z" (867715220) 0x5a2-0x5aa (8)
0x5a0|                              00 00 00 15      |          ....  |        corr: 21 0x5aa-0x5ae (4)
     |                                               |                |      [21]{}: leap_second_record 0x5ae-0x5ba (12)
0x5a0|                                          00 00|              ..|        occur: "1999-01-01T00:00:21Z" (915148821) 0x5ae-0x5b6 (8)
0x5b0|00 00 36 8c 10 15                              |..6...          |
0x5b0|                  00 00 00 16                  |      ....      |        corr: 22 0x5b6-0x5ba (4)
     |                                               |                |      [22]{}: leap_second_record 0x5ba-0x5c6 (12)
0x5b0|                              00 00 00 00 43 b7|          ....C.|        occur: "2006-01-01T00:00:22Z" (1136073622) 0x5ba-0x5c2 (8)
0x5c0|1b 96                                          |..              |
0x5c0|      00 00 00 17                              |  ....          |        corr: 23 0x5c2-0x5c6 (4)
     |                                               |                |      [23]{}: leap_second_record 0x5c6-0x5d2 (12)
0x5c0|                  00 00 00 00 49 5c 07 97      |      ....I\..  |        occur: "2009-01-01T00:00:23Z" (1230768023) 0x5c6-0x5ce (8)
0x5c0|                                          00 00|              ..|        corr: 24 0x5ce-0x5d2 (4)
0x5d0|00 18                                          |..              |
     |                                               |                |      [24]{}: leap_second_record 0x5d2-0x5de (12)
0x5d0|      00 00 00 00 4f ef 93 18                  |  ....O...      |        occur: "2012-07-01T00:00:24Z" (1341100824) 0x5d2-0x5da (8)
0x5d0|                              00 00 00 19      |          ....  |        corr: 25 0x5da-0x5de (4)
     |                                               |                |      [25]{}: leap_second_record 0x5de-0x5ea (12)
0x5d0|                                          00 00|              ..|        occur: "2015-07-01T00:00:25Z" (1435708825) 0x5de-0x5e6 (8)
0x5e0|00 00 55 93 2d 99                              |..U.-.          |
0x5e0|                  00 00 00 1a                  |      ....      |        corr: 26 0x5e6-0x5ea (4)
     |                                               |                |      [26]{}: leap_second_record 0x5ea-0x5f6 (12)
0x5e0|                              00 00 00 00 58 68|          ....Xh|        occur: "2017-01-01T00:00:26Z" (1483228826) 0x5ea-0x5f2 (8)
0x5f0|46 9a                                          |F.              |
0x5f0|      00 00 00 1b                              |  ....          |        corr: 27 0x5f2-0x5f6 (4)
     |                                               |                |    standard_wall_indicators[0:10]: 0x5f6-0x600 (10)
0x5f0|                  00                           |      .         |      [0]: 0 standard_wall_indicator (valid) 0x5f6-0x5f7 (1)
0x5f0|                     00                        |       .        |      [1]: 0 standard_wall_indicator (valid) 0x5f7-0x5f8 (1)
0x5f0|                        00                     |        .       |      [2]: 0 standard_wall_indicator (valid) 0x5f8-0x5f9 (1)
0x5f0|                           00                  |         .      |      [3]: 0 standard_wall_indicator (valid) 0x5f9-0x5fa (1)
0x5f0|                              00               |          .     |      [4]: 0 standard_wall_indicator (valid) 0x5fa-0x5fb (1)
0x5f0|                                 01            |           .    |      [5]: 1 standard_wall_indicator (valid) 0x5fb-0x5fc (1)
0x5f0|                                    01         |            .   |      [6]: 1 standard_wall_indicator (valid) 0x5fc-0x5fd (1)
0x5f0|                                       01      |             .  |      [7]: 1 standard_wall_indicator (valid) 0x5fd-0x5fe (1)
0x5f0|                                          01   |              . |      [8]: 1 standard_wall_indicator (valid) 0x5fe-0x5ff (1)
0x5f0|                                             01|               .|      [9]: 1 standard_wall_indicator (valid) 0x5ff-0x600 (1)
     |                                               |                |    ut_local_indicators[0:0]: 0x600-0x600 (0)
     |                                               |                |  footer{}: 0x600-0x602 (2)
0x600|0a                                             |.               |    nl1: 10 (valid) 0x600-0x601 (1)
     |                                               |                |    tz_string: "" 0x601-0x601 (0)
0x600|   0a|                                         | .|             |    nl2: 10 (valid) 0x601-0x602 (1)
