$ fq -d tzif dv Palau
    |00 01 02 03 04 05 06 07 08 09 0a 0b 0c 0d 0e 0f|0123456789abcdef|.{}: Palau (tzif) 0x0-0xb3.7 (180)
    |                                               |                |  v1header{}: 0x0-0x2b.7 (44)
0x00|54 5a 69 66                                    |TZif            |    magic: 0x545a6966 (valid) 0x0-0x3.7 (4)
0x00|            32                                 |    2           |    ver: "2" (0x32) (valid) 0x4-0x4.7 (1)
0x00|               00 00 00 00 00 00 00 00 00 00 00|     ...........|    reserved: raw bits 0x5-0x13.7 (15)
0x10|00 00 00 00                                    |....            |
0x10|            00 00 00 00                        |    ....        |    isutcnt: 0 0x14-0x17.7 (4)
0x10|                        00 00 00 00            |        ....    |    isstdcnt: 0 0x18-0x1b.7 (4)
0x10|                                    00 00 00 00|            ....|    leapcnt: 0 0x1c-0x1f.7 (4)
0x20|00 00 00 02                                    |....            |    timecnt: 2 0x20-0x23.7 (4)
0x20|            00 00 00 02                        |    ....        |    typecnt: 2 0x24-0x27.7 (4)
0x20|                        00 00 00 08            |        ....    |    charcnt: 8 0x28-0x2b.7 (4)
    |                                               |                |  v1datablock{}: 0x2c-0x49.7 (30)
    |                                               |                |    transition_times[0:2]: 0x2c-0x33.7 (8)
0x20|                                    80 00 00 00|            ....|      [0]: "1901-12-13T20:45:52Z" (-2147483648) transition_time 0x2c-0x2f.7 (4)
0x30|7f ff ff ff                                    |....            |      [1]: "2038-01-19T03:14:07Z" (2147483647) transition_time 0x30-0x33.7 (4)
    |                                               |                |    transition_types[0:2]: 0x34-0x35.7 (2)
0x30|            01                                 |    .           |      [0]: 1 transition_type 0x34-0x34.7 (1)
0x30|               01                              |     .          |      [1]: 1 transition_type 0x35-0x35.7 (1)
    |                                               |                |    local_time_type_records[0:2]: 0x36-0x41.7 (12)
    |                                               |                |      [0]{}: local_time_type 0x36-0x3b.7 (6)
0x30|                  ff ff 2c 94                  |      ..,.      |        utoff: -54124 (valid) 0x36-0x39.7 (4)
0x30|                              00               |          .     |        dst: 0 (valid) 0x3a-0x3a.7 (1)
0x30|                                 00            |           .    |        idx: 0 (valid) 0x3b-0x3b.7 (1)
    |                                               |                |      [1]{}: local_time_type 0x3c-0x41.7 (6)
0x30|                                    00 00 7e 90|            ..~.|        utoff: 32400 (valid) 0x3c-0x3f.7 (4)
0x40|00                                             |.               |        dst: 0 (valid) 0x40-0x40.7 (1)
0x40|   04                                          | .              |        idx: 4 (valid) 0x41-0x41.7 (1)
    |                                               |                |    time_zone_designations[0:2]: 0x42-0x49.7 (8)
0x40|      4c 4d 54 00                              |  LMT.          |      [0]: "LMT" time_zone_designation 0x42-0x45.7 (4)
0x40|                  2b 30 39 00                  |      +09.      |      [1]: "+09" time_zone_designation 0x46-0x49.7 (4)
    |                                               |                |    leap_second_records[0:0]: 0x4a-NA (0)
    |                                               |                |    standard_wall_indicators[0:0]: 0x4a-NA (0)
    |                                               |                |    ut_local_indicators[0:0]: 0x4a-NA (0)
    |                                               |                |  v2plusheader{}: 0x4a-0x75.7 (44)
0x40|                              54 5a 69 66      |          TZif  |    magic: 0x545a6966 (valid) 0x4a-0x4d.7 (4)
0x40|                                          32   |              2 |    ver: "2" (0x32) (valid) 0x4e-0x4e.7 (1)
0x40|                                             00|               .|    reserved: raw bits 0x4f-0x5d.7 (15)
0x50|00 00 00 00 00 00 00 00 00 00 00 00 00 00      |..............  |
0x50|                                          00 00|              ..|    isutcnt: 0 0x5e-0x61.7 (4)
0x60|00 00                                          |..              |
0x60|      00 00 00 00                              |  ....          |    isstdcnt: 0 0x62-0x65.7 (4)
0x60|                  00 00 00 00                  |      ....      |    leapcnt: 0 0x66-0x69.7 (4)
0x60|                              00 00 00 03      |          ....  |    timecnt: 3 0x6a-0x6d.7 (4)
0x60|                                          00 00|              ..|    typecnt: 3 0x6e-0x71.7 (4)
0x70|00 03                                          |..              |
0x70|      00 00 00 08                              |  ....          |    charcnt: 8 0x72-0x75.7 (4)
    |                                               |                |  v2plusdatablock{}: 0x76-0xaa.7 (53)
    |                                               |                |    transition_times[0:3]: 0x76-0x8d.7 (24)
0x70|                  ff ff ff ff 14 e1 cf 6c      |      .......l  |      [0]: "1844-12-31T15:02:04Z" (-3944624276) transition_time 0x76-0x7d.7 (8)
0x70|                                          ff ff|              ..|      [1]: "1900-12-31T15:02:04Z" (-2177485076) transition_time 0x7e-0x85.7 (8)
0x80|ff ff 7e 36 36 ec                              |..~66.          |
0x80|                  00 00 00 00 7f ff ff ff      |      ........  |      [2]: "2038-01-19T03:14:07Z" (2147483647) transition_time 0x86-0x8d.7 (8)
    |                                               |                |    transition_types[0:3]: 0x8e-0x90.7 (3)
0x80|                                          01   |              . |      [0]: 1 transition_type 0x8e-0x8e.7 (1)
0x80|                                             02|               .|      [1]: 2 transition_type 0x8f-0x8f.7 (1)
0x90|02                                             |.               |      [2]: 2 transition_type 0x90-0x90.7 (1)
    |                                               |                |    local_time_type_records[0:3]: 0x91-0xa2.7 (18)
    |                                               |                |      [0]{}: local_time_type 0x91-0x96.7 (6)
0x90|   ff ff 2c 94                                 | ..,.           |        utoff: -54124 (valid) 0x91-0x94.7 (4)
0x90|               00                              |     .          |        dst: 0 (valid) 0x95-0x95.7 (1)
0x90|                  00                           |      .         |        idx: 0 (valid) 0x96-0x96.7 (1)
    |                                               |                |      [1]{}: local_time_type 0x97-0x9c.7 (6)
0x90|                     00 00 7e 14               |       ..~.     |        utoff: 32276 (valid) 0x97-0x9a.7 (4)
0x90|                                 00            |           .    |        dst: 0 (valid) 0x9b-0x9b.7 (1)
0x90|                                    00         |            .   |        idx: 0 (valid) 0x9c-0x9c.7 (1)
    |                                               |                |      [2]{}: local_time_type 0x9d-0xa2.7 (6)
0x90|                                       00 00 7e|             ..~|        utoff: 32400 (valid) 0x9d-0xa0.7 (4)
0xa0|90                                             |.               |
0xa0|   00                                          | .              |        dst: 0 (valid) 0xa1-0xa1.7 (1)
0xa0|      04                                       |  .             |        idx: 4 (valid) 0xa2-0xa2.7 (1)
    |                                               |                |    time_zone_designations[0:2]: 0xa3-0xaa.7 (8)
0xa0|         4c 4d 54 00                           |   LMT.         |      [0]: "LMT" time_zone_designation 0xa3-0xa6.7 (4)
0xa0|                     2b 30 39 00               |       +09.     |      [1]: "+09" time_zone_designation 0xa7-0xaa.7 (4)
    |                                               |                |    leap_second_records[0:0]: 0xab-NA (0)
    |                                               |                |    standard_wall_indicators[0:0]: 0xab-NA (0)
    |                                               |                |    ut_local_indicators[0:0]: 0xab-NA (0)
    |                                               |                |  footer{}: 0xab-0xb3.7 (9)
0xa0|                                 0a            |           .    |    nl1: 10 (valid) 0xab-0xab.7 (1)
0xa0|                                    3c 2b 30 39|            <+09|    tz_string: "<+09>-9" 0xac-0xb2.7 (7)
0xb0|3e 2d 39                                       |>-9             |
0xb0|         0a|                                   |   .|           |    nl2: 10 (valid) 0xb3-0xb3.7 (1)
