$ fq -d tzif dv Palmer
     |00 01 02 03 04 05 06 07 08 09 0a 0b 0c 0d 0e 0f|0123456789abcdef|.{}: Palmer (tzif) 0x0-0x79f.7 (1952)
     |                                               |                |  v1header{}: 0x0-0x2b.7 (44)
0x000|54 5a 69 66                                    |TZif            |    magic: 0x545a6966 (valid) 0x0-0x3.7 (4)
0x000|            32                                 |    2           |    ver: "2" (0x32) (valid) 0x4-0x4.7 (1)
0x000|               00 00 00 00 00 00 00 00 00 00 00|     ...........|    reserved: raw bits 0x5-0x13.7 (15)
0x010|00 00 00 00                                    |....            |
0x010|            00 00 00 08                        |    ....        |    isutcnt: 8 0x14-0x17.7 (4)
0x010|                        00 00 00 08            |        ....    |    isstdcnt: 8 0x18-0x1b.7 (4)
0x010|                                    00 00 00 1b|            ....|    leapcnt: 27 0x1c-0x1f.7 (4)
0x020|00 00 00 53                                    |...S            |    timecnt: 83 0x20-0x23.7 (4)
0x020|            00 00 00 08                        |    ....        |    typecnt: 8 0x24-0x27.7 (4)
0x020|                        00 00 00 10            |        ....    |    charcnt: 16 0x28-0x2b.7 (4)
     |                                               |                |  v1datablock{}: 0x2c-0x2f2.7 (711)
     |                                               |                |    transition_times[0:83]: 0x2c-0x177.7 (332)
0x020|                                    f6 98 ad 00|            ....|      [0]: "1965-01-01T00:00:00Z" (-157766400) transition_time 0x2c-0x2f.7 (4)
0x030|f6 e6 9f b0                                    |....            |      [1]: "1965-03-01T03:00:00Z" (-152658000) transition_time 0x30-0x33.7 (4)
0x030|            f8 13 43 c0                        |    ..C.        |      [2]: "1965-10-15T04:00:00Z" (-132955200) transition_time 0x34-0x37.7 (4)
0x030|                        f8 c7 d3 30            |        ...0    |      [3]: "1966-03-01T03:00:00Z" (-121122000) transition_time 0x38-0x3b.7 (4)
0x030|                                    f9 f4 77 40|            ..w@|      [4]: "1966-10-15T04:00:00Z" (-101419200) transition_time 0x3c-0x3f.7 (4)
0x040|fa d3 36 b0                                    |..6.            |      [5]: "1967-04-02T03:00:00Z" (-86821200) transition_time 0x40-0x43.7 (4)
0x040|            fb c3 35 c0                        |    ..5.        |      [6]: "1967-10-01T04:00:00Z" (-71092800) transition_time 0x44-0x47.7 (4)
0x040|                        fc bc 53 30            |        ..S0    |      [7]: "1968-04-07T03:00:00Z" (-54766800) transition_time 0x48-0x4b.7 (4)
0x040|                                    fd ac 52 40|            ..R@|      [8]: "1968-10-06T04:00:00Z" (-39038400) transition_time 0x4c-0x4f.7 (4)
0x050|fe 9c 35 30                                    |..50            |      [9]: "1969-04-06T03:00:00Z" (-23317200) transition_time 0x50-0x53.7 (4)
0x050|            ff 8c 34 40                        |    ..4@        |      [10]: "1969-10-05T04:00:00Z" (-7588800) transition_time 0x54-0x57.7 (4)
0x050|                        07 a3 4a b3            |        ..J.    |      [11]: "1974-01-23T03:00:03Z" (128142003) transition_time 0x58-0x5b.7 (4)
0x050|                                    08 24 6f a3|            .$o.|      [12]: "1974-05-01T02:00:03Z" (136605603) transition_time 0x5c-0x5f.7 (4)
0x060|17 30 bc ba                                    |.0..            |      [13]: "1982-05-01T03:00:10Z" (389070010) transition_time 0x60-0x63.7 (4)
0x060|            18 06 5d cb                        |    ..].        |      [14]: "1982-10-10T04:00:11Z" (403070411) transition_time 0x64-0x67.7 (4)
0x060|                        18 d1 56 bb            |        ..V.    |      [15]: "1983-03-13T03:00:11Z" (416372411) transition_time 0x68-0x6b.7 (4)
0x060|                                    19 e6 3f cc|            ..?.|      [16]: "1983-10-09T04:00:12Z" (434520012) transition_time 0x6c-0x6f.7 (4)
0x070|1a b1 38 bc                                    |..8.            |      [17]: "1984-03-11T03:00:12Z" (447822012) transition_time 0x70-0x73.7 (4)
0x070|            1b cf 5c 4c                        |    ..\L        |      [18]: "1984-10-14T04:00:12Z" (466574412) transition_time 0x74-0x77.7 (4)
0x070|                        1c 91 1a bc            |        ....    |      [19]: "1985-03-10T03:00:12Z" (479271612) transition_time 0x78-0x7b.7 (4)
0x070|                                    1d af 3e 4d|            ..>M|      [20]: "1985-10-13T04:00:13Z" (498024013) transition_time 0x7c-0x7f.7 (4)
0x080|1e 70 fc bd                                    |.p..            |      [21]: "1986-03-09T03:00:13Z" (510721213) transition_time 0x80-0x83.7 (4)
0x080|            1f 8f 20 4d                        |    .. M        |      [22]: "1986-10-12T04:00:13Z" (529473613) transition_time 0x84-0x87.7 (4)
0x080|                        20 7f 03 3d            |         ..=    |      [23]: "1987-04-12T03:00:13Z" (545194813) transition_time 0x88-0x8b.7 (4)
0x080|                                    21 6f 02 4d|            !o.M|      [24]: "1987-10-11T04:00:13Z" (560923213) transition_time 0x8c-0x8f.7 (4)
0x090|22 39 fb 3e                                    |"9.>            |      [25]: "1988-03-13T03:00:14Z" (574225214) transition_time 0x90-0x93.7 (4)
0x090|            23 4e e4 4e                        |    #N.N        |      [26]: "1988-10-09T04:00:14Z" (592372814) transition_time 0x94-0x97.7 (4)
0x090|                        24 19 dd 3e            |        $..>    |      [27]: "1989-03-12T03:00:14Z" (605674814) transition_time 0x98-0x9b.7 (4)
0x090|                                    25 38 00 ce|            %8..|      [28]: "1989-10-15T04:00:14Z" (624427214) transition_time 0x9c-0x9f.7 (4)
0x0a0|25 f9 bf 3f                                    |%..?            |      [29]: "1990-03-11T03:00:15Z" (637124415) transition_time 0xa0-0xa3.7 (4)
0x0a0|            26 f2 f8 cf                        |    &...        |      [30]: "1990-09-16T04:00:15Z" (653457615) transition_time 0xa4-0xa7.7 (4)
0x0a0|                        27 d9 a1 40            |        '..@    |      [31]: "1991-03-10T03:00:16Z" (668574016) transition_time 0xa8-0xab.7 (4)
0x0a0|                                    28 f7 c4 d0|            (...|      [32]: "1991-10-13T04:00:16Z" (687326416) transition_time 0xac-0xaf.7 (4)
0x0b0|29 c2 bd c0                                    |)...            |      [33]: "1992-03-15T03:00:16Z" (700628416) transition_time 0xb0-0xb3.7 (4)
0x0b0|            2a d7 a6 d1                        |    *...        |      [34]: "1992-10-11T04:00:17Z" (718776017) transition_time 0xb4-0xb7.7 (4)
0x0b0|                        2b a2 9f c1            |        +...    |      [35]: "1993-03-14T03:00:17Z" (732078017) transition_time 0xb8-0xbb.7 (4)
0x0b0|                                    2c b7 88 d2|            ,...|      [36]: "1993-10-10T04:00:18Z" (750225618) transition_time 0xbc-0xbf.7 (4)
0x0c0|2d 82 81 c2                                    |-...            |      [37]: "1994-03-13T03:00:18Z" (763527618) transition_time 0xc0-0xc3.7 (4)
0x0c0|            2e 97 6a d3                        |    ..j.        |      [38]: "1994-10-09T04:00:19Z" (781675219) transition_time 0xc4-0xc7.7 (4)
0x0c0|                        2f 62 63 c3            |        /bc.    |      [39]: "1995-03-12T03:00:19Z" (794977219) transition_time 0xc8-0xcb.7 (4)
0x0c0|                                    30 80 87 53|            0..S|      [40]: "1995-10-15T04:00:19Z" (813729619) transition_time 0xcc-0xcf.7 (4)
0x0d0|31 42 45 c4                                    |1BE.            |      [41]: "1996-03-10T03:00:20Z" (826426820) transition_time 0xd0-0xd3.7 (4)
0x0d0|            32 60 69 54                        |    2`iT        |      [42]: "1996-10-13T04:00:20Z" (845179220) transition_time 0xd4-0xd7.7 (4)
0x0d0|                        33 3d d7 44            |        3=.D    |      [43]: "1997-03-30T03:00:20Z" (859690820) transition_time 0xd8-0xdb.7 (4)
0x0d0|                                    34 40 4b 55|            4@KU|      [44]: "1997-10-12T04:00:21Z" (876628821) transition_time 0xdc-0xdf.7 (4)
0x0e0|35 0b 44 45                                    |5.DE            |      [45]: "1998-03-15T03:00:21Z" (889930821) transition_time 0xe0-0xe3.7 (4)
0x0e0|            36 0d b8 55                        |    6..U        |      [46]: "1998-09-27T04:00:21Z" (906868821) transition_time 0xe4-0xe7.7 (4)
0x0e0|                        37 06 d5 c6            |        7...    |      [47]: "1999-04-04T03:00:22Z" (923194822) transition_time 0xe8-0xeb.7 (4)
0x0e0|                                    38 00 0f 56|            8..V|      [48]: "1999-10-10T04:00:22Z" (939528022) transition_time 0xec-0xef.7 (4)
0x0f0|38 cb 08 46                                    |8..F            |      [49]: "2000-03-12T03:00:22Z" (952830022) transition_time 0xf0-0xf3.7 (4)
0x0f0|            39 e9 2b d6                        |    9.+.        |      [50]: "2000-10-15T04:00:22Z" (971582422) transition_time 0xf4-0xf7.7 (4)
0x0f0|                        3a aa ea 46            |        :..F    |      [51]: "2001-03-11T03:00:22Z" (984279622) transition_time 0xf8-0xfb.7 (4)
0x0f0|                                    3b c9 0d d6|            ;...|      [52]: "2001-10-14T04:00:22Z" (1003032022) transition_time 0xfc-0xff.7 (4)
0x100|3c 8a cc 46                                    |<..F            |      [53]: "2002-03-10T03:00:22Z" (1015729222) transition_time 0x100-0x103.7 (4)
0x100|            3d a8 ef d6                        |    =...        |      [54]: "2002-10-13T04:00:22Z" (1034481622) transition_time 0x104-0x107.7 (4)
0x100|                        3e 6a ae 46            |        >j.F    |      [55]: "2003-03-09T03:00:22Z" (1047178822) transition_time 0x108-0x10b.7 (4)
0x100|                                    3f 88 d1 d6|            ?...|      [56]: "2003-10-12T04:00:22Z" (1065931222) transition_time 0x10c-0x10f.7 (4)
0x110|40 53 ca c6                                    |@S..            |      [57]: "2004-03-14T03:00:22Z" (1079233222) transition_time 0x110-0x113.7 (4)
0x110|            41 68 b3 d6                        |    Ah..        |      [58]: "2004-10-10T04:00:22Z" (1097380822) transition_time 0x114-0x117.7 (4)
0x110|                        42 33 ac c6            |        B3..    |      [59]: "2005-03-13T03:00:22Z" (1110682822) transition_time 0x118-0x11b.7 (4)
0x110|                                    43 48 95 d6|            CH..|      [60]: "2005-10-09T04:00:22Z" (1128830422) transition_time 0x11c-0x11f.7 (4)
0x120|44 13 8e c7                                    |D...            |      [61]: "2006-03-12T03:00:23Z" (1142132423) transition_time 0x120-0x123.7 (4)
0x120|            45 31 b2 57                        |    E1.W        |      [62]: "2006-10-15T04:00:23Z" (1160884823) transition_time 0x124-0x127.7 (4)
0x120|                        45 f3 70 c7            |        E.p.    |      [63]: "2007-03-11T03:00:23Z" (1173582023) transition_time 0x128-0x12b.7 (4)
0x120|                                    47 11 94 57|            G..W|      [64]: "2007-10-14T04:00:23Z" (1192334423) transition_time 0x12c-0x12f.7 (4)
0x130|47 ef 02 47                                    |G..G            |      [65]: "2008-03-30T03:00:23Z" (1206846023) transition_time 0x130-0x133.7 (4)
0x130|            48 f1 76 57                        |    H.vW        |      [66]: "2008-10-12T04:00:23Z" (1223784023) transition_time 0x134-0x137.7 (4)
0x130|                        49 bc 6f 48            |        I.oH    |      [67]: "2009-03-15T03:00:24Z" (1237086024) transition_time 0x138-0x13b.7 (4)
0x130|                                    4a d1 58 58|            J.XX|      [68]: "2009-10-11T04:00:24Z" (1255233624) transition_time 0x13c-0x13f.7 (4)
0x140|4b b8 00 c8                                    |K...            |      [69]: "2010-04-04T03:00:24Z" (1270350024) transition_time 0x140-0x143.7 (4)
0x140|            4c b1 3a 58                        |    L.:X        |      [70]: "2010-10-10T04:00:24Z" (1286683224) transition_time 0x144-0x147.7 (4)
0x140|                        4d c6 07 48            |        M..H    |      [71]: "2011-05-08T03:00:24Z" (1304823624) transition_time 0x148-0x14b.7 (4)
0x140|                                    4e 50 82 d8|            NP..|      [72]: "2011-08-21T04:00:24Z" (1313899224) transition_time 0x14c-0x14f.7 (4)
0x150|4f 9c ae c8                                    |O...            |      [73]: "2012-04-29T03:00:24Z" (1335668424) transition_time 0x150-0x153.7 (4)
0x150|            50 42 d9 d9                        |    PB..        |      [74]: "2012-09-02T04:00:25Z" (1346558425) transition_time 0x154-0x157.7 (4)
0x150|                        51 7c 90 c9            |        Q|..    |      [75]: "2013-04-28T03:00:25Z" (1367118025) transition_time 0x158-0x15b.7 (4)
0x150|                                    52 2b f6 59|            R+.Y|      [76]: "2013-09-08T04:00:25Z" (1378612825) transition_time 0x15c-0x15f.7 (4)
0x160|53 5c 72 c9                                    |S\r.            |      [77]: "2014-04-27T03:00:25Z" (1398567625) transition_time 0x160-0x163.7 (4)
0x160|            54 0b d8 59                        |    T..Y        |      [78]: "2014-09-07T04:00:25Z" (1410062425) transition_time 0x164-0x167.7 (4)
0x160|                        57 37 e6 4a            |        W7.J    |      [79]: "2016-05-15T03:00:26Z" (1463281226) transition_time 0x168-0x16b.7 (4)
0x160|                                    57 af ec da|            W...|      [80]: "2016-08-14T04:00:26Z" (1471147226) transition_time 0x16c-0x16f.7 (4)
0x170|58 43 86 ca                                    |XC..            |      [81]: "2016-12-04T03:00:26Z" (1480820426) transition_time 0x170-0x173.7 (4)
0x170|            64 9b 78 1b                        |    d.x.        |      [82]: "2023-06-28T00:00:27Z" (1687910427) transition_time 0x174-0x177.7 (4)
     |                                               |                |    transition_types[0:83]: 0x178-0x1ca.7 (83)
0x170|                        02                     |        .       |      [0]: 2 transition_type 0x178-0x178.7 (1)
0x170|                           01                  |         .      |      [1]: 1 transition_type 0x179-0x179.7 (1)
0x170|                              02               |          .     |      [2]: 2 transition_type 0x17a-0x17a.7 (1)
0x170|                                 01            |           .    |      [3]: 1 transition_type 0x17b-0x17b.7 (1)
0x170|                                    02         |            .   |      [4]: 2 transition_type 0x17c-0x17c.7 (1)
0x170|                                       01      |             .  |      [5]: 1 transition_type 0x17d-0x17d.7 (1)
0x170|                                          02   |              . |      [6]: 2 transition_type 0x17e-0x17e.7 (1)
0x170|                                             01|               .|      [7]: 1 transition_type 0x17f-0x17f.7 (1)
0x180|02                                             |.               |      [8]: 2 transition_type 0x180-0x180.7 (1)
0x180|   01                                          | .              |      [9]: 1 transition_type 0x181-0x181.7 (1)
0x180|      04                                       |  .             |      [10]: 4 transition_type 0x182-0x182.7 (1)
0x180|         03                                    |   .            |      [11]: 3 transition_type 0x183-0x183.7 (1)
0x180|            04                                 |    .           |      [12]: 4 transition_type 0x184-0x184.7 (1)
0x180|               01                              |     .          |      [13]: 1 transition_type 0x185-0x185.7 (1)
0x180|                  05                           |      .         |      [14]: 5 transition_type 0x186-0x186.7 (1)
0x180|                     06                        |       .        |      [15]: 6 transition_type 0x187-0x187.7 (1)
0x180|                        05                     |        .       |      [16]: 5 transition_type 0x188-0x188.7 (1)
0x180|                           06                  |         .      |      [17]: 6 transition_type 0x189-0x189.7 (1)
0x180|                              05               |          .     |      [18]: 5 transition_type 0x18a-0x18a.7 (1)
0x180|                                 06            |           .    |      [19]: 6 transition_type 0x18b-0x18b.7 (1)
0x180|                                    05         |            .   |      [20]: 5 transition_type 0x18c-0x18c.7 (1)
0x180|                                       06      |             .  |      [21]: 6 transition_type 0x18d-0x18d.7 (1)
0x180|                                          05   |              . |      [22]: 5 transition_type 0x18e-0x18e.7 (1)
0x180|                                             06|               .|      [23]: 6 transition_type 0x18f-0x18f.7 (1)
0x190|05                                             |.               |      [24]: 5 transition_type 0x190-0x190.7 (1)
0x190|   06                                          | .              |      [25]: 6 transition_type 0x191-0x191.7 (1)
0x190|      05                                       |  .             |      [26]: 5 transition_type 0x192-0x192.7 (1)
0x190|         06                                    |   .            |      [27]: 6 transition_type 0x193-0x193.7 (1)
0x190|            05                                 |    .           |      [28]: 5 transition_type 0x194-0x194.7 (1)
0x190|               06                              |     .          |      [29]: 6 transition_type 0x195-0x195.7 (1)
0x190|                  05                           |      .         |      [30]: 5 transition_type 0x196-0x196.7 (1)
0x190|                     06                        |       .        |      [31]: 6 transition_type 0x197-0x197.7 (1)
0x190|                        05                     |        .       |      [32]: 5 transition_type 0x198-0x198.7 (1)
0x190|                           06                  |         .      |      [33]: 6 transition_type 0x199-0x199.7 (1)
0x190|                              05               |          .     |      [34]: 5 transition_type 0x19a-0x19a.7 (1)
0x190|                                 06            |           .    |      [35]: 6 transition_type 0x19b-0x19b.7 (1)
0x190|                                    05         |            .   |      [36]: 5 transition_type 0x19c-0x19c.7 (1)
0x190|                                       06      |             .  |      [37]: 6 transition_type 0x19d-0x19d.7 (1)
0x190|                                          05   |              . |      [38]: 5 transition_type 0x19e-0x19e.7 (1)
0x190|                                             06|               .|      [39]: 6 transition_type 0x19f-0x19f.7 (1)
0x1a0|05                                             |.               |      [40]: 5 transition_type 0x1a0-0x1a0.7 (1)
0x1a0|   06                                          | .              |      [41]: 6 transition_type 0x1a1-0x1a1.7 (1)
0x1a0|      05                                       |  .             |      [42]: 5 transition_type 0x1a2-0x1a2.7 (1)
0x1a0|         06                                    |   .            |      [43]: 6 transition_type 0x1a3-0x1a3.7 (1)
0x1a0|            05                                 |    .           |      [44]: 5 transition_type 0x1a4-0x1a4.7 (1)
0x1a0|               06                              |     .          |      [45]: 6 transition_type 0x1a5-0x1a5.7 (1)
0x1a0|                  05                           |      .         |      [46]: 5 transition_type 0x1a6-0x1a6.7 (1)
0x1a0|                     06                        |       .        |      [47]: 6 transition_type 0x1a7-0x1a7.7 (1)
0x1a0|                        05                     |        .       |      [48]: 5 transition_type 0x1a8-0x1a8.7 (1)
0x1a0|                           06                  |         .      |      [49]: 6 transition_type 0x1a9-0x1a9.7 (1)
0x1a0|                              05               |          .     |      [50]: 5 transition_type 0x1aa-0x1aa.7 (1)
0x1a0|                                 06            |           .    |      [51]: 6 transition_type 0x1ab-0x1ab.7 (1)
0x1a0|                                    05         |            .   |      [52]: 5 transition_type 0x1ac-0x1ac.7 (1)
0x1a0|                                       06      |             .  |      [53]: 6 transition_type 0x1ad-0x1ad.7 (1)
0x1a0|                                          05   |              . |      [54]: 5 transition_type 0x1ae-0x1ae.7 (1)
0x1a0|                                             06|               .|      [55]: 6 transition_type 0x1af-0x1af.7 (1)
0x1b0|05                                             |.               |      [56]: 5 transition_type 0x1b0-0x1b0.7 (1)
0x1b0|   06                                          | .              |      [57]: 6 transition_type 0x1b1-0x1b1.7 (1)
0x1b0|      05                                       |  .             |      [58]: 5 transition_type 0x1b2-0x1b2.7 (1)
0x1b0|         06                                    |   .            |      [59]: 6 transition_type 0x1b3-0x1b3.7 (1)
0x1b0|            05                                 |    .           |      [60]: 5 transition_type 0x1b4-0x1b4.7 (1)
0x1b0|               06                              |     .          |      [61]: 6 transition_type 0x1b5-0x1b5.7 (1)
0x1b0|                  05                           |      .         |      [62]: 5 transition_type 0x1b6-0x1b6.7 (1)
0x1b0|                     06                        |       .        |      [63]: 6 transition_type 0x1b7-0x1b7.7 (1)
0x1b0|                        05                     |        .       |      [64]: 5 transition_type 0x1b8-0x1b8.7 (1)
0x1b0|                           06                  |         .      |      [65]: 6 transition_type 0x1b9-0x1b9.7 (1)
0x1b0|                              05               |          .     |      [66]: 5 transition_type 0x1ba-0x1ba.7 (1)
0x1b0|                                 06            |           .    |      [67]: 6 transition_type 0x1bb-0x1bb.7 (1)
0x1b0|                                    05         |            .   |      [68]: 5 transition_type 0x1bc-0x1bc.7 (1)
0x1b0|                                       06      |             .  |      [69]: 6 transition_type 0x1bd-0x1bd.7 (1)
0x1b0|                                          05   |              . |      [70]: 5 transition_type 0x1be-0x1be.7 (1)
0x1b0|                                             06|               .|      [71]: 6 transition_type 0x1bf-0x1bf.7 (1)
0x1c0|05                                             |.               |      [72]: 5 transition_type 0x1c0-0x1c0.7 (1)
0x1c0|   06                                          | .              |      [73]: 6 transition_type 0x1c1-0x1c1.7 (1)
0x1c0|      05                                       |  .             |      [74]: 5 transition_type 0x1c2-0x1c2.7 (1)
0x1c0|         06                                    |   .            |      [75]: 6 transition_type 0x1c3-0x1c3.7 (1)
0x1c0|            05                                 |    .           |      [76]: 5 transition_type 0x1c4-0x1c4.7 (1)
0x1c0|               06                              |     .          |      [77]: 6 transition_type 0x1c5-0x1c5.7 (1)
0x1c0|                  05                           |      .         |      [78]: 5 transition_type 0x1c6-0x1c6.7 (1)
0x1c0|                     06                        |       .        |      [79]: 6 transition_type 0x1c7-0x1c7.7 (1)
0x1c0|                        05                     |        .       |      [80]: 5 transition_type 0x1c8-0x1c8.7 (1)
0x1c0|                           04                  |         .      |      [81]: 4 transition_type 0x1c9-0x1c9.7 (1)
0x1c0|                              04               |          .     |      [82]: 4 transition_type 0x1ca-0x1ca.7 (1)
     |                                               |                |    local_time_type_records[0:8]: 0x1cb-0x1fa.7 (48)
     |                                               |                |      [0]{}: local_time_type 0x1cb-0x1d0.7 (6)
0x1c0|                                 00 00 00 00   |           .... |        utoff: 0 (valid) 0x1cb-0x1ce.7 (4)
0x1c0|                                             00|               .|        dst: 0 (valid) 0x1cf-0x1cf.7 (1)
0x1d0|00                                             |.               |        idx: 0 (valid) 0x1d0-0x1d0.7 (1)
     |                                               |                |      [1]{}: local_time_type 0x1d1-0x1d6.7 (6)
0x1d0|   ff ff c7 c0                                 | ....           |        utoff: -14400 (valid) 0x1d1-0x1d4.7 (4)
0x1d0|               00                              |     .          |        dst: 0 (valid) 0x1d5-0x1d5.7 (1)
0x1d0|                  04                           |      .         |        idx: 4 (valid) 0x1d6-0x1d6.7 (1)
     |                                               |                |      [2]{}: local_time_type 0x1d7-0x1dc.7 (6)
0x1d0|                     ff ff d5 d0               |       ....     |        utoff: -10800 (valid) 0x1d7-0x1da.7 (4)
0x1d0|                                 01            |           .    |        dst: 1 (valid) 0x1db-0x1db.7 (1)
0x1d0|                                    08         |            .   |        idx: 8 (valid) 0x1dc-0x1dc.7 (1)
     |                                               |                |      [3]{}: local_time_type 0x1dd-0x1e2.7 (6)
0x1d0|                                       ff ff e3|             ...|        utoff: -7200 (valid) 0x1dd-0x1e0.7 (4)
0x1e0|e0                                             |.               |
0x1e0|   01                                          | .              |        dst: 1 (valid) 0x1e1-0x1e1.7 (1)
0x1e0|      0c                                       |  .             |        idx: 12 (valid) 0x1e2-0x1e2.7 (1)
     |                                               |                |      [4]{}: local_time_type 0x1e3-0x1e8.7 (6)
0x1e0|         ff ff d5 d0                           |   ....         |        utoff: -10800 (valid) 0x1e3-0x1e6.7 (4)
0x1e0|                     00                        |       .        |        dst: 0 (valid) 0x1e7-0x1e7.7 (1)
0x1e0|                        08                     |        .       |        idx: 8 (valid) 0x1e8-0x1e8.7 (1)
     |                                               |                |      [5]{}: local_time_type 0x1e9-0x1ee.7 (6)
0x1e0|                           ff ff d5 d0         |         ....   |        utoff: -10800 (valid) 0x1e9-0x1ec.7 (4)
0x1e0|                                       01      |             .  |        dst: 1 (valid) 0x1ed-0x1ed.7 (1)
0x1e0|                                          08   |              . |        idx: 8 (valid) 0x1ee-0x1ee.7 (1)
     |                                               |                |      [6]{}: local_time_type 0x1ef-0x1f4.7 (6)
0x1e0|                                             ff|               .|        utoff: -14400 (valid) 0x1ef-0x1f2.7 (4)
0x1f0|ff c7 c0                                       |...             |
0x1f0|         00                                    |   .            |        dst: 0 (valid) 0x1f3-0x1f3.7 (1)
0x1f0|            04                                 |    .           |        idx: 4 (valid) 0x1f4-0x1f4.7 (1)
     |                                               |                |      [7]{}: local_time_type 0x1f5-0x1fa.7 (6)
0x1f0|               ff ff d5 d0                     |     ....       |        utoff: -10800 (valid) 0x1f5-0x1f8.7 (4)
0x1f0|                           00                  |         .      |        dst: 0 (valid) 0x1f9-0x1f9.7 (1)
0x1f0|                              08               |          .     |        idx: 8 (valid) 0x1fa-0x1fa.7 (1)
     |                                               |                |    time_zone_designations[0:4]: 0x1fb-0x20a.7 (16)
0x1f0|                                 2d 30 30 00   |           -00. |      [0]: "-00" time_zone_designation 0x1fb-0x1fe.7 (4)
0x1f0|                                             2d|               -|      [1]: "-04" time_zone_designation 0x1ff-0x202.7 (4)
0x200|30 34 00                                       |04.             |
0x200|         2d 30 33 00                           |   -03.         |      [2]: "-03" time_zone_designation 0x203-0x206.7 (4)
0x200|                     2d 30 32 00               |       -02.     |      [3]: "-02" time_zone_designation 0x207-0x20a.7 (4)
     |                                               |                |    leap_second_records[0:27]: 0x20b-0x2e2.7 (216)
     |                                               |                |      [0]{}: leap_second_record 0x20b-0x212.7 (8)
0x200|                                 04 b2 58 00   |           ..X. |        occur: "1972-07-01T00:00:00Z" (78796800) 0x20b-0x20e.7 (4)
0x200|                                             00|               .|        corr: 1 0x20f-0x212.7 (4)
0x210|00 00 01                                       |...             |
     |                                               |                |      [1]{}: leap_second_record 0x213-0x21a.7 (8)
0x210|         05 a4 ec 01                           |   ....         |        occur: "1973-01-01T00:00:01Z" (94694401) 0x213-0x216.7 (4)
0x210|                     00 00 00 02               |       ....     |        corr: 2 0x217-0x21a.7 (4)
     |                                               |                |      [2]{}: leap_second_record 0x21b-0x222.7 (8)
0x210|                                 07 86 1f 82   |           .... |        occur: "1974-01-01T00:00:02Z" (126230402) 0x21b-0x21e.7 (4)
0x210|                                             00|               .|        corr: 3 0x21f-0x222.7 (4)
0x220|00 00 03                                       |...             |
     |                                               |                |      [3]{}: leap_second_record 0x223-0x22a.7 (8)
0x220|         09 67 53 03                           |   .gS.         |        occur: "1975-01-01T00:00:03Z" (157766403) 0x223-0x226.7 (4)
0x220|                     00 00 00 04               |       ....     |        corr: 4 0x227-0x22a.7 (4)
     |                                               |                |      [4]{}: leap_second_record 0x22b-0x232.7 (8)
0x220|                                 0b 48 86 84   |           .H.. |        occur: "1976-01-01T00:00:04Z" (189302404) 0x22b-0x22e.7 (4)
0x220|                                             00|               .|        corr: 5 0x22f-0x232.7 (4)
0x230|00 00 05                                       |...             |
     |                                               |                |      [5]{}: leap_second_record 0x233-0x23a.7 (8)
0x230|         0d 2b 0b 85                           |   .+..         |        occur: "1977-01-01T00:00:05Z" (220924805) 0x233-0x236.7 (4)
0x230|                     00 00 00 06               |       ....     |        corr: 6 0x237-0x23a.7 (4)
     |                                               |                |      [6]{}: leap_second_record 0x23b-0x242.7 (8)
0x230|                                 0f 0c 3f 06   |           ..?. |        occur: "1978-01-01T00:00:06Z" (252460806) 0x23b-0x23e.7 (4)
0x230|                                             00|               .|        corr: 7 0x23f-0x242.7 (4)
0x240|00 00 07                                       |...             |
     |                                               |                |      [7]{}: leap_second_record 0x243-0x24a.7 (8)
0x240|         10 ed 72 87                           |   ..r.         |        occur: "1979-01-01T00:00:07Z" (283996807) 0x243-0x246.7 (4)
0x240|                     00 00 00 08               |       ....     |        corr: 8 0x247-0x24a.7 (4)
     |                                               |                |      [8]{}: leap_second_record 0x24b-0x252.7 (8)
0x240|                                 12 ce a6 08   |           .... |        occur: "1980-01-01T00:00:08Z" (315532808) 0x24b-0x24e.7 (4)
0x240|                                             00|               .|        corr: 9 0x24f-0x252.7 (4)
0x250|00 00 09                                       |...             |
     |                                               |                |      [9]{}: leap_second_record 0x253-0x25a.7 (8)
0x250|         15 9f ca 89                           |   ....         |        occur: "1981-07-01T00:00:09Z" (362793609) 0x253-0x256.7 (4)
0x250|                     00 00 00 0a               |       ....     |        corr: 10 0x257-0x25a.7 (4)
     |                                               |                |      [10]{}: leap_second_record 0x25b-0x262.7 (8)
0x250|                                 17 80 fe 0a   |           .... |        occur: "1982-07-01T00:00:10Z" (394329610) 0x25b-0x25e.7 (4)
0x250|                                             00|               .|        corr: 11 0x25f-0x262.7 (4)
0x260|00 00 0b                                       |...             |
     |                                               |                |      [11]{}: leap_second_record 0x263-0x26a.7 (8)
0x260|         19 62 31 8b                           |   .b1.         |        occur: "1983-07-01T00:00:11Z" (425865611) 0x263-0x266.7 (4)
0x260|                     00 00 00 0c               |       ....     |        corr: 12 0x267-0x26a.7 (4)
     |                                               |                |      [12]{}: leap_second_record 0x26b-0x272.7 (8)
0x260|                                 1d 25 ea 0c   |           .%.. |        occur: "1985-07-01T00:00:12Z" (489024012) 0x26b-0x26e.7 (4)
0x260|                                             00|               .|        corr: 13 0x26f-0x272.7 (4)
0x270|00 00 0d                                       |...             |
     |                                               |                |      [13]{}: leap_second_record 0x273-0x27a.7 (8)
0x270|         21 da e5 0d                           |   !...         |        occur: "1988-01-01T00:00:13Z" (567993613) 0x273-0x276.7 (4)
0x270|                     00 00 00 0e               |       ....     |        corr: 14 0x277-0x27a.7 (4)
     |                                               |                |      [14]{}: leap_second_record 0x27b-0x282.7 (8)
0x270|                                 25 9e 9d 8e   |           %... |        occur: "1990-01-01T00:00:14Z" (631152014) 0x27b-0x27e.7 (4)
0x270|                                             00|               .|        corr: 15 0x27f-0x282.7 (4)
0x280|00 00 0f                                       |...             |
     |                                               |                |      [15]{}: leap_second_record 0x283-0x28a.7 (8)
0x280|         27 7f d1 0f                           |   '...         |        occur: "1991-01-01T00:00:15Z" (662688015) 0x283-0x286.7 (4)
0x280|                     00 00 00 10               |       ....     |        corr: 16 0x287-0x28a.7 (4)
     |                                               |                |      [16]{}: leap_second_record 0x28b-0x292.7 (8)
0x280|                                 2a 50 f5 90   |           *P.. |        occur: "1992-07-01T00:00:16Z" (709948816) 0x28b-0x28e.7 (4)
0x280|                                             00|               .|        corr: 17 0x28f-0x292.7 (4)
0x290|00 00 11                                       |...             |
     |                                               |                |      [17]{}: leap_second_record 0x293-0x29a.7 (8)
0x290|         2c 32 29 11                           |   ,2).         |        occur: "1993-07-01T00:00:17Z" (741484817) 0x293-0x296.7 (4)
0x290|                     00 00 00 12               |       ....     |        corr: 18 0x297-0x29a.7 (4)
     |                                               |                |      [18]{}: leap_second_record 0x29b-0x2a2.7 (8)
0x290|                                 2e 13 5c 92   |           ..\. |        occur: "1994-07-01T00:00:18Z" (773020818) 0x29b-0x29e.7 (4)
0x290|                                             00|               .|        corr: 19 0x29f-0x2a2.7 (4)
0x2a0|00 00 13                                       |...             |
     |                                               |                |      [19]{}: leap_second_record 0x2a3-0x2aa.7 (8)
0x2a0|         30 e7 24 13                           |   0.$.         |        occur: "1996-01-01T00:00:19Z" (820454419) 0x2a3-0x2a6.7 (4)
0x2a0|                     00 00 00 14               |       ....     |        corr: 20 0x2a7-0x2aa.7 (4)
     |                                               |                |      [20]{}: leap_second_record 0x2ab-0x2b2.7 (8)
0x2a0|                                 33 b8 48 94   |           3.H. |        occur: "1997-07-01T00:00:20Z" (867715220) 0x2ab-0x2ae.7 (4)
0x2a0|                                             00|               .|        corr: 21 0x2af-0x2b2.7 (4)
0x2b0|00 00 15                                       |...             |
     |                                               |                |      [21]{}: leap_second_record 0x2b3-0x2ba.7 (8)
0x2b0|         36 8c 10 15                           |   6...         |        occur: "1999-01-01T00:00:21Z" (915148821) 0x2b3-0x2b6.7 (4)
0x2b0|                     00 00 00 16               |       ....     |        corr: 22 0x2b7-0x2ba.7 (4)
     |                                               |                |      [22]{}: leap_second_record 0x2bb-0x2c2.7 (8)
0x2b0|                                 43 b7 1b 96   |           C... |        occur: "2006-01-01T00:00:22Z" (1136073622) 0x2bb-0x2be.7 (4)
0x2b0|                                             00|               .|        corr: 23 0x2bf-0x2c2.7 (4)
0x2c0|00 00 17                                       |...             |
     |                                               |                |      [23]{}: leap_second_record 0x2c3-0x2ca.7 (8)
0x2c0|         49 5c 07 97                           |   I\..         |        occur: "2009-01-01T00:00:23Z" (1230768023) 0x2c3-0x2c6.7 (4)
0x2c0|                     00 00 00 18               |       ....     |        corr: 24 0x2c7-0x2ca.7 (4)
     |                                               |                |      [24]{}: leap_second_record 0x2cb-0x2d2.7 (8)
0x2c0|                                 4f ef 93 18   |           O... |        occur: "2012-07-01T00:00:24Z" (1341100824) 0x2cb-0x2ce.7 (4)
0x2c0|                                             00|               .|        corr: 25 0x2cf-0x2d2.7 (4)
0x2d0|00 00 19                                       |...             |
     |                                               |                |      [25]{}: leap_second_record 0x2d3-0x2da.7 (8)
0x2d0|         55 93 2d 99                           |   U.-.         |        occur: "2015-07-01T00:00:25Z" (1435708825) 0x2d3-0x2d6.7 (4)
0x2d0|                     00 00 00 1a               |       ....     |        corr: 26 0x2d7-0x2da.7 (4)
     |                                               |                |      [26]{}: leap_second_record 0x2db-0x2e2.7 (8)
0x2d0|                                 58 68 46 9a   |           XhF. |        occur: "2017-01-01T00:00:26Z" (1483228826) 0x2db-0x2de.7 (4)
0x2d0|                                             00|               .|        corr: 27 0x2df-0x2e2.7 (4)
0x2e0|00 00 1b                                       |...             |
     |                                               |                |    standard_wall_indicators[0:8]: 0x2e3-0x2ea.7 (8)
0x2e0|         00                                    |   .            |      [0]: 0 standard_wall_indicator (valid) 0x2e3-0x2e3.7 (1)
0x2e0|            00                                 |    .           |      [1]: 0 standard_wall_indicator (valid) 0x2e4-0x2e4.7 (1)
0x2e0|               00                              |     .          |      [2]: 0 standard_wall_indicator (valid) 0x2e5-0x2e5.7 (1)
0x2e0|                  00                           |      .         |      [3]: 0 standard_wall_indicator (valid) 0x2e6-0x2e6.7 (1)
0x2e0|                     00                        |       .        |      [4]: 0 standard_wall_indicator (valid) 0x2e7-0x2e7.7 (1)
0x2e0|                        01                     |        .       |      [5]: 1 standard_wall_indicator (valid) 0x2e8-0x2e8.7 (1)
0x2e0|                           01                  |         .      |      [6]: 1 standard_wall_indicator (valid) 0x2e9-0x2e9.7 (1)
0x2e0|                              00               |          .     |      [7]: 0 standard_wall_indicator (valid) 0x2ea-0x2ea.7 (1)
     |                                               |                |    ut_local_indicators[0:8]: 0x2eb-0x2f2.7 (8)
0x2e0|                                 00            |           .    |      [0]: 0 ut_local_indicator (valid) 0x2eb-0x2eb.7 (1)
0x2e0|                                    00         |            .   |      [1]: 0 ut_local_indicator (valid) 0x2ec-0x2ec.7 (1)
0x2e0|                                       00      |             .  |      [2]: 0 ut_local_indicator (valid) 0x2ed-0x2ed.7 (1)
0x2e0|                                          00   |              . |      [3]: 0 ut_local_indicator (valid) 0x2ee-0x2ee.7 (1)
0x2e0|                                             00|               .|      [4]: 0 ut_local_indicator (valid) 0x2ef-0x2ef.7 (1)
0x2f0|01                                             |.               |      [5]: 1 ut_local_indicator (valid) 0x2f0-0x2f0.7 (1)
0x2f0|   01                                          | .              |      [6]: 1 ut_local_indicator (valid) 0x2f1-0x2f1.7 (1)
0x2f0|      00                                       |  .             |      [7]: 0 ut_local_indicator (valid) 0x2f2-0x2f2.7 (1)
     |                                               |                |  v2plusheader{}: 0x2f3-0x31e.7 (44)
0x2f0|         54 5a 69 66                           |   TZif         |    magic: 0x545a6966 (valid) 0x2f3-0x2f6.7 (4)
0x2f0|                     32                        |       2        |    ver: "2" (0x32) (valid) 0x2f7-0x2f7.7 (1)
0x2f0|                        00 00 00 00 00 00 00 00|        ........|    reserved: raw bits 0x2f8-0x306.7 (15)
0x300|00 00 00 00 00 00 00                           |.......         |
0x300|                     00 00 00 08               |       ....     |    isutcnt: 8 0x307-0x30a.7 (4)
0x300|                                 00 00 00 08   |           .... |    isstdcnt: 8 0x30b-0x30e.7 (4)
0x300|                                             00|               .|    leapcnt: 27 0x30f-0x312.7 (4)
0x310|00 00 1b                                       |...             |
0x310|         00 00 00 53                           |   ...S         |    timecnt: 83 0x313-0x316.7 (4)
0x310|                     00 00 00 08               |       ....     |    typecnt: 8 0x317-0x31a.7 (4)
0x310|                                 00 00 00 10   |           .... |    charcnt: 16 0x31b-0x31e.7 (4)
     |                                               |                |  v2plusdatablock{}: 0x31f-0x79d.7 (1151)
     |                                               |                |    transition_times[0:83]: 0x31f-0x5b6.7 (664)
0x310|                                             ff|               .|      [0]: "1965-01-01T00:00:00Z" (-157766400) transition_time 0x31f-0x326.7 (8)
0x320|ff ff ff f6 98 ad 00                           |.......         |
0x320|                     ff ff ff ff f6 e6 9f b0   |       ........ |      [1]: "1965-03-01T03:00:00Z" (-152658000) transition_time 0x327-0x32e.7 (8)
0x320|                                             ff|               .|      [2]: "1965-10-15T04:00:00Z" (-132955200) transition_time 0x32f-0x336.7 (8)
0x330|ff ff ff f8 13 43 c0                           |.....C.         |
0x330|                     ff ff ff ff f8 c7 d3 30   |       .......0 |      [3]: "1966-03-01T03:00:00Z" (-121122000) transition_time 0x337-0x33e.7 (8)
0x330|                                             ff|               .|      [4]: "1966-10-15T04:00:00Z" (-101419200) transition_time 0x33f-0x346.7 (8)
0x340|ff ff ff f9 f4 77 40                           |.....w@         |
0x340|                     ff ff ff ff fa d3 36 b0   |       ......6. |      [5]: "1967-04-02T03:00:00Z" (-86821200) transition_time 0x347-0x34e.7 (8)
0x340|                                             ff|               .|      [6]: "1967-10-01T04:00:00Z" (-71092800) transition_time 0x34f-0x356.7 (8)
0x350|ff ff ff fb c3 35 c0                           |.....5.         |
0x350|                     ff ff ff ff fc bc 53 30   |       ......S0 |      [7]: "1968-04-07T03:00:00Z" (-54766800) transition_time 0x357-0x35e.7 (8)
0x350|                                             ff|               .|      [8]: "1968-10-06T04:00:00Z" (-39038400) transition_time 0x35f-0x366.7 (8)
0x360|ff ff ff fd ac 52 40                           |.....R@         |
0x360|                     ff ff ff ff fe 9c 35 30   |       ......50 |      [9]: "1969-04-06T03:00:00Z" (-23317200) transition_time 0x367-0x36e.7 (8)
0x360|                                             ff|               .|      [10]: "1969-10-05T04:00:00Z" (-7588800) transition_time 0x36f-0x376.7 (8)
0x370|ff ff ff ff 8c 34 40                           |.....4@         |
0x370|                     00 00 00 00 07 a3 4a b3   |       ......J. |      [11]: "1974-01-23T03:00:03Z" (128142003) transition_time 0x377-0x37e.7 (8)
0x370|                                             00|               .|      [12]: "1974-05-01T02:00:03Z" (136605603) transition_time 0x37f-0x386.7 (8)
0x380|00 00 00 08 24 6f a3                           |....$o.         |
0x380|                     00 00 00 00 17 30 bc ba   |       .....0.. |      [13]: "1982-05-01T03:00:10Z" (389070010) transition_time 0x387-0x38e.7 (8)
0x380|                                             00|               .|      [14]: "1982-10-10T04:00:11Z" (403070411) transition_time 0x38f-0x396.7 (8)
0x390|00 00 00 18 06 5d cb                           |.....].         |
0x390|                     00 00 00 00 18 d1 56 bb   |       ......V. |      [15]: "1983-03-13T03:00:11Z" (416372411) transition_time 0x397-0x39e.7 (8)
0x390|                                             00|               .|      [16]: "1983-10-09T04:00:12Z" (434520012) transition_time 0x39f-0x3a6.7 (8)
0x3a0|00 00 00 19 e6 3f cc                           |.....?.         |
0x3a0|                     00 00 00 00 1a b1 38 bc   |       ......8. |      [17]: "1984-03-11T03:00:12Z" (447822012) transition_time 0x3a7-0x3ae.7 (8)
0x3a0|                                             00|               .|      [18]: "1984-10-14T04:00:12Z" (466574412) transition_time 0x3af-0x3b6.7 (8)
0x3b0|00 00 00 1b cf 5c 4c                           |.....\L         |
0x3b0|                     00 00 00 00 1c 91 1a bc   |       ........ |      [19]: "1985-03-10T03:00:12Z" (479271612) transition_time 0x3b7-0x3be.7 (8)
0x3b0|                                             00|               .|      [20]: "1985-10-13T04:00:13Z" (498024013) transition_time 0x3bf-0x3c6.7 (8)
0x3c0|00 00 00 1d af 3e 4d                           |.....>M         |
0x3c0|                     00 00 00 00 1e 70 fc bd   |       .....p.. |      [21]: "1986-03-09T03:00:13Z" (510721213) transition_time 0x3c7-0x3ce.7 (8)
0x3c0|                                             00|               .|      [22]: "1986-10-12T04:00:13Z" (529473613) transition_time 0x3cf-0x3d6.7 (8)
0x3d0|00 00 00 1f 8f 20 4d                           |..... M         |
0x3d0|                     00 00 00 00 20 7f 03 3d   |       .... ..= |      [23]: "1987-04-12T03:00:13Z" (545194813) transition_time 0x3d7-0x3de.7 (8)
0x3d0|                                             00|               .|      [24]: "1987-10-11T04:00:13Z" (560923213) transition_time 0x3df-0x3e6.7 (8)
0x3e0|00 00 00 21 6f 02 4d                           |...!o.M         |
0x3e0|                     00 00 00 00 22 39 fb 3e   |       ...."9.> |      [25]: "1988-03-13T03:00:14Z" (574225214) transition_time 0x3e7-0x3ee.7 (8)
0x3e0|                                             00|               .|      [26]: "1988-10-09T04:00:14Z" (592372814) transition_time 0x3ef-0x3f6.7 (8)
0x3f0|00 00 00 23 4e e4 4e                           |...#N.N         |
0x3f0|                     00 00 00 00 24 19 dd 3e   |       ....$..> |      [27]: "1989-03-12T03:00:14Z" (605674814) transition_time 0x3f7-0x3fe.7 (8)
0x3f0|                                             00|               .|      [28]: "1989-10-15T04:00:14Z" (624427214) transition_time 0x3ff-0x406.7 (8)
0x400|00 00 00 25 38 00 ce                           |...%8..         |
0x400|                     00 00 00 00 25 f9 bf 3f   |       ....%..? |      [29]: "1990-03-11T03:00:15Z" (637124415) transition_time 0x407-0x40e.7 (8)
0x400|                                             00|               .|      [30]: "1990-09-16T04:00:15Z" (653457615) transition_time 0x40f-0x416.7 (8)
0x410|00 00 00 26 f2 f8 cf                           |...&...         |
0x410|                     00 00 00 00 27 d9 a1 40   |       ....'..@ |      [31]: "1991-03-10T03:00:16Z" (668574016) transition_time 0x417-0x41e.7 (8)
0x410|                                             00|               .|      [32]: "1991-10-13T04:00:16Z" (687326416) transition_time 0x41f-0x426.7 (8)
0x420|00 00 00 28 f7 c4 d0                           |...(...         |
0x420|                     00 00 00 00 29 c2 bd c0   |       ....)... |      [33]: "1992-03-15T03:00:16Z" (700628416) transition_time 0x427-0x42e.7 (8)
0x420|                                             00|               .|      [34]: "1992-10-11T04:00:17Z" (718776017) transition_time 0x42f-0x436.7 (8)
0x430|00 00 00 2a d7 a6 d1                           |...*...         |
0x430|                     00 00 00 00 2b a2 9f c1   |       ....+... |      [35]: "1993-03-14T03:00:17Z" (732078017) transition_time 0x437-0x43e.7 (8)
0x430|                                             00|               .|      [36]: "1993-10-10T04:00:18Z" (750225618) transition_time 0x43f-0x446.7 (8)
0x440|00 00 00 2c b7 88 d2                           |...,...         |
0x440|                     00 00 00 00 2d 82 81 c2   |       ....-... |      [37]: "1994-03-13T03:00:18Z" (763527618) transition_time 0x447-0x44e.7 (8)
0x440|                                             00|               .|      [38]: "1994-10-09T04:00:19Z" (781675219) transition_time 0x44f-0x456.7 (8)
0x450|00 00 00 2e 97 6a d3                           |.....j.         |
0x450|                     00 00 00 00 2f 62 63 c3   |       ..../bc. |      [39]: "1995-03-12T03:00:19Z" (794977219) transition_time 0x457-0x45e.7 (8)
0x450|                                             00|               .|      [40]: "1995-10-15T04:00:19Z" (813729619) transition_time 0x45f-0x466.7 (8)
0x460|00 00 00 30 80 87 53                           |...0..S         |
0x460|                     00 00 00 00 31 42 45 c4   |       ....1BE. |      [41]: "1996-03-10T03:00:20Z" (826426820) transition_time 0x467-0x46e.7 (8)
0x460|                                             00|               .|      [42]: "1996-10-13T04:00:20Z" (845179220) transition_time 0x46f-0x476.7 (8)
0x470|00 00 00 32 60 69 54                           |...2`iT         |
0x470|                     00 00 00 00 33 3d d7 44   |       ....3=.D |      [43]: "1997-03-30T03:00:20Z" (859690820) transition_time 0x477-0x47e.7 (8)
0x470|                                             00|               .|      [44]: "1997-10-12T04:00:21Z" (876628821) transition_time 0x47f-0x486.7 (8)
0x480|00 00 00 34 40 4b 55                           |...4@KU         |
0x480|                     00 00 00 00 35 0b 44 45   |       ....5.DE |      [45]: "1998-03-15T03:00:21Z" (889930821) transition_time 0x487-0x48e.7 (8)
0x480|                                             00|               .|      [46]: "1998-09-27T04:00:21Z" (906868821) transition_time 0x48f-0x496.7 (8)
0x490|00 00 00 36 0d b8 55                           |...6..U         |
0x490|                     00 00 00 00 37 06 d5 c6   |       ....7... |      [47]: "1999-04-04T03:00:22Z" (923194822) transition_time 0x497-0x49e.7 (8)
0x490|                                             00|               .|      [48]: "1999-10-10T04:00:22Z" (939528022) transition_time 0x49f-0x4a6.7 (8)
0x4a0|00 00 00 38 00 0f 56                           |...8..V         |
0x4a0|                     00 00 00 00 38 cb 08 46   |       ....8..F |      [49]: "2000-03-12T03:00:22Z" (952830022) transition_time 0x4a7-0x4ae.7 (8)
0x4a0|                                             00|               .|      [50]: "2000-10-15T04:00:22Z" (971582422) transition_time 0x4af-0x4b6.7 (8)
0x4b0|00 00 00 39 e9 2b d6                           |...9.+.         |
0x4b0|                     00 00 00 00 3a aa ea 46   |       ....:..F |      [51]: "2001-03-11T03:00:22Z" (984279622) transition_time 0x4b7-0x4be.7 (8)
0x4b0|                                             00|               .|      [52]: "2001-10-14T04:00:22Z" (1003032022) transition_time 0x4bf-0x4c6.7 (8)
0x4c0|00 00 00 3b c9 0d d6                           |...;...         |
0x4c0|                     00 00 00 00 3c 8a cc 46   |       ....<..F |      [53]: "2002-03-10T03:00:22Z" (1015729222) transition_time 0x4c7-0x4ce.7 (8)
0x4c0|                                             00|               .|      [54]: "2002-10-13T04:00:22Z" (1034481622) transition_time 0x4cf-0x4d6.7 (8)
0x4d0|00 00 00 3d a8 ef d6                           |...=...         |
0x4d0|                     00 00 00 00 3e 6a ae 46   |       ....>j.F |      [55]: "2003-03-09T03:00:22Z" (1047178822) transition_time 0x4d7-0x4de.7 (8)
0x4d0|                                             00|               .|      [56]: "2003-10-12T04:00:22Z" (1065931222) transition_time 0x4df-0x4e6.7 (8)
0x4e0|00 00 00 3f 88 d1 d6                           |...?...         |
0x4e0|                     00 00 00 00 40 53 ca c6   |       ....@S.. |      [57]: "2004-03-14T03:00:22Z" (1079233222) transition_time 0x4e7-0x4ee.7 (8)
0x4e0|                                             00|               .|      [58]: "2004-10-10T04:00:22Z" (1097380822) transition_time 0x4ef-0x4f6.7 (8)
0x4f0|00 00 00 41 68 b3 d6                           |...Ah..         |
0x4f0|                     00 00 00 00 42 33 ac c6   |       ....B3.. |      [59]: "2005-03-13T03:00:22Z" (1110682822) transition_time 0x4f7-0x4fe.7 (8)
0x4f0|                                             00|               .|      [60]: "2005-10-09T04:00:22Z" (1128830422) transition_time 0x4ff-0x506.7 (8)
0x500|00 00 00 43 48 95 d6                           |...CH..         |
0x500|                     00 00 00 00 44 13 8e c7   |       ....D... |      [61]: "2006-03-12T03:00:23Z" (1142132423) transition_time 0x507-0x50e.7 (8)
0x500|                                             00|               .|      [62]: "2006-10-15T04:00:23Z" (1160884823) transition_time 0x50f-0x516.7 (8)
0x510|00 00 00 45 31 b2 57                           |...E1.W         |
0x510|                     00 00 00 00 45 f3 70 c7   |       ....E.p. |      [63]: "2007-03-11T03:00:23Z" (1173582023) transition_time 0x517-0x51e.7 (8)
0x510|                                             00|               .|      [64]: "2007-10-14T04:00:23Z" (1192334423) transition_time 0x51f-0x526.7 (8)
0x520|00 00 00 47 11 94 57                           |...G..W         |
0x520|                     00 00 00 00 47 ef 02 47   |       ....G..G |      [65]: "2008-03-30T03:00:23Z" (1206846023) transition_time 0x527-0x52e.7 (8)
0x520|                                             00|               .|      [66]: "2008-10-12T04:00:23Z" (1223784023) transition_time 0x52f-0x536.7 (8)
0x530|00 00 00 48 f1 76 57                           |...H.vW         |
0x530|                     00 00 00 00 49 bc 6f 48   |       ....I.oH |      [67]: "2009-03-15T03:00:24Z" (1237086024) transition_time 0x537-0x53e.7 (8)
0x530|                                             00|               .|      [68]: "2009-10-11T04:00:24Z" (1255233624) transition_time 0x53f-0x546.7 (8)
0x540|00 00 00 4a d1 58 58                           |...J.XX         |
0x540|                     00 00 00 00 4b b8 00 c8   |       ....K... |      [69]: "2010-04-04T03:00:24Z" (1270350024) transition_time 0x547-0x54e.7 (8)
0x540|                                             00|               .|      [70]: "2010-10-10T04:00:24Z" (1286683224) transition_time 0x54f-0x556.7 (8)
0x550|00 00 00 4c b1 3a 58                           |...L.:X         |
0x550|                     00 00 00 00 4d c6 07 48   |       ....M..H |      [71]: "2011-05-08T03:00:24Z" (1304823624) transition_time 0x557-0x55e.7 (8)
0x550|                                             00|               .|      [72]: "2011-08-21T04:00:24Z" (1313899224) transition_time 0x55f-0x566.7 (8)
0x560|00 00 00 4e 50 82 d8                           |...NP..         |
0x560|                     00 00 00 00 4f 9c ae c8   |       ....O... |      [73]: "2012-04-29T03:00:24Z" (1335668424) transition_time 0x567-0x56e.7 (8)
0x560|                                             00|               .|      [74]: "2012-09-02T04:00:25Z" (1346558425) transition_time 0x56f-0x576.7 (8)
0x570|00 00 00 50 42 d9 d9                           |...PB..         |
0x570|                     00 00 00 00 51 7c 90 c9   |       ....Q|.. |      [75]: "2013-04-28T03:00:25Z" (1367118025) transition_time 0x577-0x57e.7 (8)
0x570|                                             00|               .|      [76]: "2013-09-08T04:00:25Z" (1378612825) transition_time 0x57f-0x586.7 (8)
0x580|00 00 00 52 2b f6 59                           |...R+.Y         |
0x580|                     00 00 00 00 53 5c 72 c9   |       ....S\r. |      [77]: "2014-04-27T03:00:25Z" (1398567625) transition_time 0x587-0x58e.7 (8)
0x580|                                             00|               .|      [78]: "2014-09-07T04:00:25Z" (1410062425) transition_time 0x58f-0x596.7 (8)
0x590|00 00 00 54 0b d8 59                           |...T..Y         |
0x590|                     00 00 00 00 57 37 e6 4a   |       ....W7.J |      [79]: "2016-05-15T03:00:26Z" (1463281226) transition_time 0x597-0x59e.7 (8)
0x590|                                             00|               .|      [80]: "2016-08-14T04:00:26Z" (1471147226) transition_time 0x59f-0x5a6.7 (8)
0x5a0|00 00 00 57 af ec da                           |...W...         |
0x5a0|                     00 00 00 00 58 43 86 ca   |       ....XC.. |      [81]: "2016-12-04T03:00:26Z" (1480820426) transition_time 0x5a7-0x5ae.7 (8)
0x5a0|                                             00|               .|      [82]: "2023-06-28T00:00:27Z" (1687910427) transition_time 0x5af-0x5b6.7 (8)
0x5b0|00 00 00 64 9b 78 1b                           |...d.x.         |
     |                                               |                |    transition_types[0:83]: 0x5b7-0x609.7 (83)
0x5b0|                     02                        |       .        |      [0]: 2 transition_type 0x5b7-0x5b7.7 (1)
0x5b0|                        01                     |        .       |      [1]: 1 transition_type 0x5b8-0x5b8.7 (1)
0x5b0|                           02                  |         .      |      [2]: 2 transition_type 0x5b9-0x5b9.7 (1)
0x5b0|                              01               |          .     |      [3]: 1 transition_type 0x5ba-0x5ba.7 (1)
0x5b0|                                 02            |           .    |      [4]: 2 transition_type 0x5bb-0x5bb.7 (1)
0x5b0|                                    01         |            .   |      [5]: 1 transition_type 0x5bc-0x5bc.7 (1)
0x5b0|                                       02      |             .  |      [6]: 2 transition_type 0x5bd-0x5bd.7 (1)
0x5b0|                                          01   |              . |      [7]: 1 transition_type 0x5be-0x5be.7 (1)
0x5b0|                                             02|               .|      [8]: 2 transition_type 0x5bf-0x5bf.7 (1)
0x5c0|01                                             |.               |      [9]: 1 transition_type 0x5c0-0x5c0.7 (1)
0x5c0|   04                                          | .              |      [10]: 4 transition_type 0x5c1-0x5c1.7 (1)
0x5c0|      03                                       |  .             |      [11]: 3 transition_type 0x5c2-0x5c2.7 (1)
0x5c0|         04                                    |   .            |      [12]: 4 transition_type 0x5c3-0x5c3.7 (1)
0x5c0|            01                                 |    .           |      [13]: 1 transition_type 0x5c4-0x5c4.7 (1)
0x5c0|               05                              |     .          |      [14]: 5 transition_type 0x5c5-0x5c5.7 (1)
0x5c0|                  06                           |      .         |      [15]: 6 transition_type 0x5c6-0x5c6.7 (1)
0x5c0|                     05                        |       .        |      [16]: 5 transition_type 0x5c7-0x5c7.7 (1)
0x5c0|                        06                     |        .       |      [17]: 6 transition_type 0x5c8-0x5c8.7 (1)
0x5c0|                           05                  |         .      |      [18]: 5 transition_type 0x5c9-0x5c9.7 (1)
0x5c0|                              06               |          .     |      [19]: 6 transition_type 0x5ca-0x5ca.7 (1)
0x5c0|                                 05            |           .    |      [20]: 5 transition_type 0x5cb-0x5cb.7 (1)
0x5c0|                                    06         |            .   |      [21]: 6 transition_type 0x5cc-0x5cc.7 (1)
0x5c0|                                       05      |             .  |      [22]: 5 transition_type 0x5cd-0x5cd.7 (1)
0x5c0|                                          06   |              . |      [23]: 6 transition_type 0x5ce-0x5ce.7 (1)
0x5c0|                                             05|               .|      [24]: 5 transition_type 0x5cf-0x5cf.7 (1)
0x5d0|06                                             |.               |      [25]: 6 transition_type 0x5d0-0x5d0.7 (1)
0x5d0|   05                                          | .              |      [26]: 5 transition_type 0x5d1-0x5d1.7 (1)
0x5d0|      06                                       |  .             |      [27]: 6 transition_type 0x5d2-0x5d2.7 (1)
0x5d0|         05                                    |   .            |      [28]: 5 transition_type 0x5d3-0x5d3.7 (1)
0x5d0|            06                                 |    .           |      [29]: 6 transition_type 0x5d4-0x5d4.7 (1)
0x5d0|               05                              |     .          |      [30]: 5 transition_type 0x5d5-0x5d5.7 (1)
0x5d0|                  06                           |      .         |      [31]: 6 transition_type 0x5d6-0x5d6.7 (1)
0x5d0|                     05                        |       .        |      [32]: 5 transition_type 0x5d7-0x5d7.7 (1)
0x5d0|                        06                     |        .       |      [33]: 6 transition_type 0x5d8-0x5d8.7 (1)
0x5d0|                           05                  |         .      |      [34]: 5 transition_type 0x5d9-0x5d9.7 (1)
0x5d0|                              06               |          .     |      [35]: 6 transition_type 0x5da-0x5da.7 (1)
0x5d0|                                 05            |           .    |      [36]: 5 transition_type 0x5db-0x5db.7 (1)
0x5d0|                                    06         |            .   |      [37]: 6 transition_type 0x5dc-0x5dc.7 (1)
0x5d0|                                       05      |             .  |      [38]: 5 transition_type 0x5dd-0x5dd.7 (1)
0x5d0|                                          06   |              . |      [39]: 6 transition_type 0x5de-0x5de.7 (1)
0x5d0|                                             05|               .|      [40]: 5 transition_type 0x5df-0x5df.7 (1)
0x5e0|06                                             |.               |      [41]: 6 transition_type 0x5e0-0x5e0.7 (1)
0x5e0|   05                                          | .              |      [42]: 5 transition_type 0x5e1-0x5e1.7 (1)
0x5e0|      06                                       |  .             |      [43]: 6 transition_type 0x5e2-0x5e2.7 (1)
0x5e0|         05                                    |   .            |      [44]: 5 transition_type 0x5e3-0x5e3.7 (1)
0x5e0|            06                                 |    .           |      [45]: 6 transition_type 0x5e4-0x5e4.7 (1)
0x5e0|               05                              |     .          |      [46]: 5 transition_type 0x5e5-0x5e5.7 (1)
0x5e0|                  06                           |      .         |      [47]: 6 transition_type 0x5e6-0x5e6.7 (1)
0x5e0|                     05                        |       .        |      [48]: 5 transition_type 0x5e7-0x5e7.7 (1)
0x5e0|                        06                     |        .       |      [49]: 6 transition_type 0x5e8-0x5e8.7 (1)
0x5e0|                           05                  |         .      |      [50]: 5 transition_type 0x5e9-0x5e9.7 (1)
0x5e0|                              06               |          .     |      [51]: 6 transition_type 0x5ea-0x5ea.7 (1)
0x5e0|                                 05            |           .    |      [52]: 5 transition_type 0x5eb-0x5eb.7 (1)
0x5e0|                                    06         |            .   |      [53]: 6 transition_type 0x5ec-0x5ec.7 (1)
0x5e0|                                       05      |             .  |      [54]: 5 transition_type 0x5ed-0x5ed.7 (1)
0x5e0|                                          06   |              . |      [55]: 6 transition_type 0x5ee-0x5ee.7 (1)
0x5e0|                                             05|               .|      [56]: 5 transition_type 0x5ef-0x5ef.7 (1)
0x5f0|06                                             |.               |      [57]: 6 transition_type 0x5f0-0x5f0.7 (1)
0x5f0|   05                                          | .              |      [58]: 5 transition_type 0x5f1-0x5f1.7 (1)
0x5f0|      06                                       |  .             |      [59]: 6 transition_type 0x5f2-0x5f2.7 (1)
0x5f0|         05                                    |   .            |      [60]: 5 transition_type 0x5f3-0x5f3.7 (1)
0x5f0|            06                                 |    .           |      [61]: 6 transition_type 0x5f4-0x5f4.7 (1)
0x5f0|               05                              |     .          |      [62]: 5 transition_type 0x5f5-0x5f5.7 (1)
0x5f0|                  06                           |      .         |      [63]: 6 transition_type 0x5f6-0x5f6.7 (1)
0x5f0|                     05                        |       .        |      [64]: 5 transition_type 0x5f7-0x5f7.7 (1)
0x5f0|                        06                     |        .       |      [65]: 6 transition_type 0x5f8-0x5f8.7 (1)
0x5f0|                           05                  |         .      |      [66]: 5 transition_type 0x5f9-0x5f9.7 (1)
0x5f0|                              06               |          .     |      [67]: 6 transition_type 0x5fa-0x5fa.7 (1)
0x5f0|                                 05            |           .    |      [68]: 5 transition_type 0x5fb-0x5fb.7 (1)
0x5f0|                                    06         |            .   |      [69]: 6 transition_type 0x5fc-0x5fc.7 (1)
0x5f0|                                       05      |             .  |      [70]: 5 transition_type 0x5fd-0x5fd.7 (1)
0x5f0|                                          06   |              . |      [71]: 6 transition_type 0x5fe-0x5fe.7 (1)
0x5f0|                                             05|               .|      [72]: 5 transition_type 0x5ff-0x5ff.7 (1)
0x600|06                                             |.               |      [73]: 6 transition_type 0x600-0x600.7 (1)
0x600|   05                                          | .              |      [74]: 5 transition_type 0x601-0x601.7 (1)
0x600|      06                                       |  .             |      [75]: 6 transition_type 0x602-0x602.7 (1)
0x600|         05                                    |   .            |      [76]: 5 transition_type 0x603-0x603.7 (1)
0x600|            06                                 |    .           |      [77]: 6 transition_type 0x604-0x604.7 (1)
0x600|               05                              |     .          |      [78]: 5 transition_type 0x605-0x605.7 (1)
0x600|                  06                           |      .         |      [79]: 6 transition_type 0x606-0x606.7 (1)
0x600|                     05                        |       .        |      [80]: 5 transition_type 0x607-0x607.7 (1)
0x600|                        04                     |        .       |      [81]: 4 transition_type 0x608-0x608.7 (1)
0x600|                           04                  |         .      |      [82]: 4 transition_type 0x609-0x609.7 (1)
     |                                               |                |    local_time_type_records[0:8]: 0x60a-0x639.7 (48)
     |                                               |                |      [0]{}: local_time_type 0x60a-0x60f.7 (6)
0x600|                              00 00 00 00      |          ....  |        utoff: 0 (valid) 0x60a-0x60d.7 (4)
0x600|                                          00   |              . |        dst: 0 (valid) 0x60e-0x60e.7 (1)
0x600|                                             00|               .|        idx: 0 (valid) 0x60f-0x60f.7 (1)
     |                                               |                |      [1]{}: local_time_type 0x610-0x615.7 (6)
0x610|ff ff c7 c0                                    |....            |        utoff: -14400 (valid) 0x610-0x613.7 (4)
0x610|            00                                 |    .           |        dst: 0 (valid) 0x614-0x614.7 (1)
0x610|               04                              |     .          |        idx: 4 (valid) 0x615-0x615.7 (1)
     |                                               |                |      [2]{}: local_time_type 0x616-0x61b.7 (6)
0x610|                  ff ff d5 d0                  |      ....      |        utoff: -10800 (valid) 0x616-0x619.7 (4)
0x610|                              01               |          .     |        dst: 1 (valid) 0x61a-0x61a.7 (1)
0x610|                                 08            |           .    |        idx: 8 (valid) 0x61b-0x61b.7 (1)
     |                                               |                |      [3]{}: local_time_type 0x61c-0x621.7 (6)
0x610|                                    ff ff e3 e0|            ....|        utoff: -7200 (valid) 0x61c-0x61f.7 (4)
0x620|01                                             |.               |        dst: 1 (valid) 0x620-0x620.7 (1)
0x620|   0c                                          | .              |        idx: 12 (valid) 0x621-0x621.7 (1)
     |                                               |                |      [4]{}: local_time_type 0x622-0x627.7 (6)
0x620|      ff ff d5 d0                              |  ....          |        utoff: -10800 (valid) 0x622-0x625.7 (4)
0x620|                  00                           |      .         |        dst: 0 (valid) 0x626-0x626.7 (1)
0x620|                     08                        |       .        |        idx: 8 (valid) 0x627-0x627.7 (1)
     |                                               |                |      [5]{}: local_time_type 0x628-0x62d.7 (6)
0x620|                        ff ff d5 d0            |        ....    |        utoff: -10800 (valid) 0x628-0x62b.7 (4)
0x620|                                    01         |            .   |        dst: 1 (valid) 0x62c-0x62c.7 (1)
0x620|                                       08      |             .  |        idx: 8 (valid) 0x62d-0x62d.7 (1)
     |                                               |                |      [6]{}: local_time_type 0x62e-0x633.7 (6)
0x620|                                          ff ff|              ..|        utoff: -14400 (valid) 0x62e-0x631.7 (4)
0x630|c7 c0                                          |..              |
0x630|      00                                       |  .             |        dst: 0 (valid) 0x632-0x632.7 (1)
0x630|         04                                    |   .            |        idx: 4 (valid) 0x633-0x633.7 (1)
     |                                               |                |      [7]{}: local_time_type 0x634-0x639.7 (6)
0x630|            ff ff d5 d0                        |    ....        |        utoff: -10800 (valid) 0x634-0x637.7 (4)
0x630|                        00                     |        .       |        dst: 0 (valid) 0x638-0x638.7 (1)
0x630|                           08                  |         .      |        idx: 8 (valid) 0x639-0x639.7 (1)
     |                                               |                |    time_zone_designations[0:4]: 0x63a-0x649.7 (16)
0x630|                              2d 30 30 00      |          -00.  |      [0]: "-00" time_zone_designation 0x63a-0x63d.7 (4)
0x630|                                          2d 30|              -0|      [1]: "-04" time_zone_designation 0x63e-0x641.7 (4)
0x640|34 00                                          |4.              |
0x640|      2d 30 33 00                              |  -03.          |      [2]: "-03" time_zone_designation 0x642-0x645.7 (4)
0x640|                  2d 30 32 00                  |      -02.      |      [3]: "-02" time_zone_designation 0x646-0x649.7 (4)
     |                                               |                |    leap_second_records[0:27]: 0x64a-0x78d.7 (324)
     |                                               |                |      [0]{}: leap_second_record 0x64a-0x655.7 (12)
0x640|                              00 00 00 00 04 b2|          ......|        occur: "1972-07-01T00:00:00Z" (78796800) 0x64a-0x651.7 (8)
0x650|58 00                                          |X.              |
0x650|      00 00 00 01                              |  ....          |        corr: 1 0x652-0x655.7 (4)
     |                                               |                |      [1]{}: leap_second_record 0x656-0x661.7 (12)
0x650|                  00 00 00 00 05 a4 ec 01      |      ........  |        occur: "1973-01-01T00:00:01Z" (94694401) 0x656-0x65d.7 (8)
0x650|                                          00 00|              ..|        corr: 2 0x65e-0x661.7 (4)
0x660|00 02                                          |..              |
     |                                               |                |      [2]{}: leap_second_record 0x662-0x66d.7 (12)
0x660|      00 00 00 00 07 86 1f 82                  |  ........      |        occur: "1974-01-01T00:00:02Z" (126230402) 0x662-0x669.7 (8)
0x660|                              00 00 00 03      |          ....  |        corr: 3 0x66a-0x66d.7 (4)
     |                                               |                |      [3]{}: leap_second_record 0x66e-0x679.7 (12)
0x660|                                          00 00|              ..|        occur: "1975-01-01T00:00:03Z" (157766403) 0x66e-0x675.7 (8)
0x670|00 00 09 67 53 03                              |...gS.          |
0x670|                  00 00 00 04                  |      ....      |        corr: 4 0x676-0x679.7 (4)
     |                                               |                |      [4]{}: leap_second_record 0x67a-0x685.7 (12)
0x670|                              00 00 00 00 0b 48|          .....H|        occur: "1976-01-01T00:00:04Z" (189302404) 0x67a-0x681.7 (8)
0x680|86 84                                          |..              |
0x680|      00 00 00 05                              |  ....          |        corr: 5 0x682-0x685.7 (4)
     |                                               |                |      [5]{}: leap_second_record 0x686-0x691.7 (12)
0x680|                  00 00 00 00 0d 2b 0b 85      |      .....+..  |        occur: "1977-01-01T00:00:05Z" (220924805) 0x686-0x68d.7 (8)
0x680|                                          00 00|              ..|        corr: 6 0x68e-0x691.7 (4)
0x690|00 06                                          |..              |
     |                                               |                |      [6]{}: leap_second_record 0x692-0x69d.7 (12)
0x690|      00 00 00 00 0f 0c 3f 06                  |  ......?.      |        occur: "1978-01-01T00:00:06Z" (252460806) 0x692-0x699.7 (8)
0x690|                              00 00 00 07      |          ....  |        corr: 7 0x69a-0x69d.7 (4)
     |                                               |                |      [7]{}: leap_second_record 0x69e-0x6a9.7 (12)
0x690|                                          00 00|              ..|        occur: "1979-01-01T00:00:07Z" (283996807) 0x69e-0x6a5.7 (8)
0x6a0|00 00 10 ed 72 87                              |....r.          |
0x6a0|                  00 00 00 08                  |      ....      |        corr: 8 0x6a6-0x6a9.7 (4)
     |                                               |                |      [8]{}: leap_second_record 0x6aa-0x6b5.7 (12)
0x6a0|                              00 00 00 00 12 ce|          ......|        occur: "1980-01-01T00:00:08Z" (315532808) 0x6aa-0x6b1.7 (8)
0x6b0|a6 08                                          |..              |
0x6b0|      00 00 00 09                              |  ....          |        corr: 9 0x6b2-0x6b5.7 (4)
     |                                               |                |      [9]{}: leap_second_record 0x6b6-0x6c1.7 (12)
0x6b0|                  00 00 00 00 15 9f ca 89      |      ........  |        occur: "1981-07-01T00:00:09Z" (362793609) 0x6b6-0x6bd.7 (8)
0x6b0|                                          00 00|              ..|        corr: 10 0x6be-0x6c1.7 (4)
0x6c0|00 0a                                          |..              |
     |                                               |                |      [10]{}: leap_second_record 0x6c2-0x6cd.7 (12)
0x6c0|      00 00 00 00 17 80 fe 0a                  |  ........      |        occur: "1982-07-01T00:00:10Z" (394329610) 0x6c2-0x6c9.7 (8)
0x6c0|                              00 00 00 0b      |          ....  |        corr: 11 0x6ca-0x6cd.7 (4)
     |                                               |                |      [11]{}: leap_second_record 0x6ce-0x6d9.7 (12)
0x6c0|                                          00 00|              ..|        occur: "1983-07-01T00:00:11Z" (425865611) 0x6ce-0x6d5.7 (8)
0x6d0|00 00 19 62 31 8b                              |...b1.          |
0x6d0|                  00 00 00 0c                  |      ....      |        corr: 12 0x6d6-0x6d9.7 (4)
     |                                               |                |      [12]{}: leap_second_record 0x6da-0x6e5.7 (12)
0x6d0|                              00 00 00 00 1d 25|          .....%|        occur: "1985-07-01T00:00:12Z" (489024012) 0x6da-0x6e1.7 (8)
0x6e0|ea 0c                                          |..              |
0x6e0|      00 00 00 0d                              |  ....          |        corr: 13 0x6e2-0x6e5.7 (4)
     |                                               |                |      [13]{}: leap_second_record 0x6e6-0x6f1.7 (12)
0x6e0|                  00 00 00 00 21 da e5 0d      |      ....!...  |        occur: "1988-01-01T00:00:13Z" (567993613) 0x6e6-0x6ed.7 (8)
0x6e0|                                          00 00|              ..|        corr: 14 0x6ee-0x6f1.7 (4)
0x6f0|00 0e                                          |..              |
     |                                               |                |      [14]{}: leap_second_record 0x6f2-0x6fd.7 (12)
0x6f0|      00 00 00 00 25 9e 9d 8e                  |  ....%...      |        occur: "1990-01-01T00:00:14Z" (631152014) 0x6f2-0x6f9.7 (8)
0x6f0|                              00 00 00 0f      |          ....  |        corr: 15 0x6fa-0x6fd.7 (4)
     |                                               |                |      [15]{}: leap_second_record 0x6fe-0x709.7 (12)
0x6f0|                                          00 00|              ..|        occur: "1991-01-01T00:00:15Z" (662688015) 0x6fe-0x705.7 (8)
0x700|00 00 27 7f d1 0f                              |..'...          |
0x700|                  00 00 00 10                  |      ....      |        corr: 16 0x706-0x709.7 (4)
     |                                               |                |      [16]{}: leap_second_record 0x70a-0x715.7 (12)
0x700|                              00 00 00 00 2a 50|          ....*P|        occur: "1992-07-01T00:00:16Z" (709948816) 0x70a-0x711.7 (8)
0x710|f5 90                                          |..              |
0x710|      00 00 00 11                              |  ....          |        corr: 17 0x712-0x715.7 (4)
     |                                               |                |      [17]{}: leap_second_record 0x716-0x721.7 (12)
0x710|                  00 00 00 00 2c 32 29 11      |      ....,2).  |        occur: "1993-07-01T00:00:17Z" (741484817) 0x716-0x71d.7 (8)
0x710|                                          00 00|              ..|        corr: 18 0x71e-0x721.7 (4)
0x720|00 12                                          |..              |
     |                                               |                |      [18]{}: leap_second_record 0x722-0x72d.7 (12)
0x720|      00 00 00 00 2e 13 5c 92                  |  ......\.      |        occur: "1994-07-01T00:00:18Z" (773020818) 0x722-0x729.7 (8)
0x720|                              00 00 00 13      |          ....  |        corr: 19 0x72a-0x72d.7 (4)
     |                                               |                |      [19]{}: leap_second_record 0x72e-0x739.7 (12)
0x720|                                          00 00|              ..|        occur: "1996-01-01T00:00:19Z" (820454419) 0x72e-0x735.7 (8)
0x730|00 00 30 e7 24 13                              |..0.$.          |
0x730|                  00 00 00 14                  |      ....      |        corr: 20 0x736-0x739.7 (4)
     |                                               |                |      [20]{}: leap_second_record 0x73a-0x745.7 (12)
0x730|                              00 00 00 00 33 b8|          ....3.|        occur: "1997-07-01T00:00:20Z" (867715220) 0x73a-0x741.7 (8)
0x740|48 94                                          |H.              |
0x740|      00 00 00 15                              |  ....          |        corr: 21 0x742-0x745.7 (4)
     |                                               |                |      [21]{}: leap_second_record 0x746-0x751.7 (12)
0x740|                  00 00 00 00 36 8c 10 15      |      ....6...  |        occur: "1999-01-01T00:00:21Z" (915148821) 0x746-0x74d.7 (8)
0x740|                                          00 00|              ..|        corr: 22 0x74e-0x751.7 (4)
0x750|00 16                                          |..              |
     |                                               |                |      [22]{}: leap_second_record 0x752-0x75d.7 (12)
0x750|      00 00 00 00 43 b7 1b 96                  |  ....C...      |        occur: "2006-01-01T00:00:22Z" (1136073622) 0x752-0x759.7 (8)
0x750|                              00 00 00 17      |          ....  |        corr: 23 0x75a-0x75d.7 (4)
     |                                               |                |      [23]{}: leap_second_record 0x75e-0x769.7 (12)
0x750|                                          00 00|              ..|        occur: "2009-01-01T00:00:23Z" (1230768023) 0x75e-0x765.7 (8)
0x760|00 00 49 5c 07 97                              |..I\..          |
0x760|                  00 00 00 18                  |      ....      |        corr: 24 0x766-0x769.7 (4)
     |                                               |                |      [24]{}: leap_second_record 0x76a-0x775.7 (12)
0x760|                              00 00 00 00 4f ef|          ....O.|        occur: "2012-07-01T00:00:24Z" (1341100824) 0x76a-0x771.7 (8)
0x770|93 18                                          |..              |
0x770|      00 00 00 19                              |  ....          |        corr: 25 0x772-0x775.7 (4)
     |                                               |                |      [25]{}: leap_second_record 0x776-0x781.7 (12)
0x770|                  00 00 00 00 55 93 2d 99      |      ....U.-.  |        occur: "2015-07-01T00:00:25Z" (1435708825) 0x776-0x77d.7 (8)
0x770|                                          00 00|              ..|        corr: 26 0x77e-0x781.7 (4)
0x780|00 1a                                          |..              |
     |                                               |                |      [26]{}: leap_second_record 0x782-0x78d.7 (12)
0x780|      00 00 00 00 58 68 46 9a                  |  ....XhF.      |        occur: "2017-01-01T00:00:26Z" (1483228826) 0x782-0x789.7 (8)
0x780|                              00 00 00 1b      |          ....  |        corr: 27 0x78a-0x78d.7 (4)
     |                                               |                |    standard_wall_indicators[0:8]: 0x78e-0x795.7 (8)
0x780|                                          00   |              . |      [0]: 0 standard_wall_indicator (valid) 0x78e-0x78e.7 (1)
0x780|                                             00|               .|      [1]: 0 standard_wall_indicator (valid) 0x78f-0x78f.7 (1)
0x790|00                                             |.               |      [2]: 0 standard_wall_indicator (valid) 0x790-0x790.7 (1)
0x790|   00                                          | .              |      [3]: 0 standard_wall_indicator (valid) 0x791-0x791.7 (1)
0x790|      00                                       |  .             |      [4]: 0 standard_wall_indicator (valid) 0x792-0x792.7 (1)
0x790|         01                                    |   .            |      [5]: 1 standard_wall_indicator (valid) 0x793-0x793.7 (1)
0x790|            01                                 |    .           |      [6]: 1 standard_wall_indicator (valid) 0x794-0x794.7 (1)
0x790|               00                              |     .          |      [7]: 0 standard_wall_indicator (valid) 0x795-0x795.7 (1)
     |                                               |                |    ut_local_indicators[0:8]: 0x796-0x79d.7 (8)
0x790|                  00                           |      .         |      [0]: 0 ut_local_indicator (valid) 0x796-0x796.7 (1)
0x790|                     00                        |       .        |      [1]: 0 ut_local_indicator (valid) 0x797-0x797.7 (1)
0x790|                        00                     |        .       |      [2]: 0 ut_local_indicator (valid) 0x798-0x798.7 (1)
0x790|                           00                  |         .      |      [3]: 0 ut_local_indicator (valid) 0x799-0x799.7 (1)
0x790|                              00               |          .     |      [4]: 0 ut_local_indicator (valid) 0x79a-0x79a.7 (1)
0x790|                                 01            |           .    |      [5]: 1 ut_local_indicator (valid) 0x79b-0x79b.7 (1)
0x790|                                    01         |            .   |      [6]: 1 ut_local_indicator (valid) 0x79c-0x79c.7 (1)
0x790|                                       00      |             .  |      [7]: 0 ut_local_indicator (valid) 0x79d-0x79d.7 (1)
     |                                               |                |  footer{}: 0x79e-0x79f.7 (2)
0x790|                                          0a   |              . |    nl1: 10 (valid) 0x79e-0x79e.7 (1)
     |                                               |                |    tz_string: "" 0x79f-NA (0)
0x790|                                             0a|               .|    nl2: 10 (valid) 0x79f-0x79f.7 (1)
