$ fq -d tzif dv Panama
     |00 01 02 03 04 05 06 07 08 09 0a 0b 0c 0d 0e 0f|0123456789abcdef|.{}: Panama (tzif) 0x0-0x2dc (732)
     |                                               |                |  v1header{}: 0x0-0x2c (44)
0x000|54 5a 69 66                                    |TZif            |    magic: 0x545a6966 (valid) 0x0-0x4 (4)
0x000|            32                                 |    2           |    ver: "2" (0x32) (valid) 0x4-0x5 (1)
0x000|               00 00 00 00 00 00 00 00 00 00 00|     ...........|    reserved: raw bits 0x5-0x14 (15)
0x010|00 00 00 00                                    |....            |
0x010|            00 00 00 00                        |    ....        |    isutcnt: 0 0x14-0x18 (4)
0x010|                        00 00 00 00            |        ....    |    isstdcnt: 0 0x18-0x1c (4)
0x010|                                    00 00 00 1b|            ....|    leapcnt: 27 0x1c-0x20 (4)
0x020|00 00 00 03                                    |....            |    timecnt: 3 0x20-0x24 (4)
0x020|            00 00 00 03                        |    ....        |    typecnt: 3 0x24-0x28 (4)
0x020|                        00 00 00 0c            |        ....    |    charcnt: 12 0x28-0x2c (4)
     |                                               |                |  v1datablock{}: 0x2c-0x131 (261)
     |                                               |                |    transition_times[0:3]: 0x2c-0x38 (12)
0x020|                                    80 00 00 00|            ....|      [0]: "1901-12-13T20:45:52Z" (-2147483648) transition_time 0x2c-0x30 (4)
0x030|8b f4 61 e8                                    |..a.            |      [1]: "1908-04-22T05:19:36Z" (-1946918424) transition_time 0x30-0x34 (4)
0x030|            64 9b 78 1b                        |    d.x.        |      [2]: "2023-06-28T00:00:27Z" (1687910427) transition_time 0x34-0x38 (4)
     |                                               |                |    transition_types[0:3]: 0x38-0x3b (3)
0x030|                        01                     |        .       |      [0]: 1 transition_type 0x38-0x39 (1)
0x030|                           02                  |         .      |      [1]: 2 transition_type 0x39-0x3a (1)
0x030|                              02               |          .     |      [2]: 2 transition_type 0x3a-0x3b (1)
     |                                               |                |    local_time_type_records[0:3]: 0x3b-0x4d (18)
     |                                               |                |      [0]{}: local_time_type 0x3b-0x41 (6)
0x030|                                 ff ff b5 70   |           ...p |        utoff: -19088 (valid) 0x3b-0x3f (4)
0x030|                                             00|               .|        dst: 0 (valid) 0x3f-0x40 (1)
0x040|00                                             |.               |        idx: 0 (valid) 0x40-0x41 (1)
     |                                               |                |      [1]{}: local_time_type 0x41-0x47 (6)
0x040|   ff ff b5 18                                 | ....           |        utoff: -19176 (valid) 0x41-0x45 (4)
0x040|               00                              |     .          |        dst: 0 (valid) 0x45-0x46 (1)
0x040|                  04                           |      .         |        idx: 4 (valid) 0x46-0x47 (1)
     |                                               |                |      [2]{}: local_time_type 0x47-0x4d (6)
0x040|                     ff ff b9 b0               |       ....     |        utoff: -18000 (valid) 0x47-0x4b (4)
0x040|                                 00            |           .    |        dst: 0 (valid) 0x4b-0x4c (1)
0x040|                                    08         |            .   |        idx: 8 (valid) 0x4c-0x4d (1)
     |                                               |                |    time_zone_designations[0:3]: 0x4d-0x59 (12)
0x040|                                       4c 4d 54|             LMT|      [0]: "LMT" time_zone_designation 0x4d-0x51 (4)
0x050|00                                             |.               |
0x050|   43 4d 54 00                                 | CMT.           |      [1]: "CMT" time_zone_designation 0x51-0x55 (4)
0x050|               45 53 54 00                     |     EST.       |      [2]: "EST" time_zone_designation 0x55-0x59 (4)
     |                                               |                |    leap_second_records[0:27]: 0x59-0x131 (216)
     |                                               |                |      [0]{}: leap_second_record 0x59-0x61 (8)
0x050|                           04 b2 58 00         |         ..X.   |        occur: "1972-07-01T00:00:00Z" (78796800) 0x59-0x5d (4)
0x050|                                       00 00 00|             ...|        corr: 1 0x5d-0x61 (4)
0x060|01                                             |.               |
     |                                               |                |      [1]{}: leap_second_record 0x61-0x69 (8)
0x060|   05 a4 ec 01                                 | ....           |        occur: "1973-01-01T00:00:01Z" (94694401) 0x61-0x65 (4)
0x060|               00 00 00 02                     |     ....       |        corr: 2 0x65-0x69 (4)
     |                                               |                |      [2]{}: leap_second_record 0x69-0x71 (8)
0x060|                           07 86 1f 82         |         ....   |        occur: "1974-01-01T00:00:02Z" (126230402) 0x69-0x6d (4)
0x060|                                       00 00 00|             ...|        corr: 3 0x6d-0x71 (4)
0x070|03                                             |.               |
     |                                               |                |      [3]{}: leap_second_record 0x71-0x79 (8)
0x070|   09 67 53 03                                 | .gS.           |        occur: "1975-01-01T00:00:03Z" (157766403) 0x71-0x75 (4)
0x070|               00 00 00 04                     |     ....       |        corr: 4 0x75-0x79 (4)
     |                                               |                |      [4]{}: leap_second_record 0x79-0x81 (8)
0x070|                           0b 48 86 84         |         .H..   |        occur: "1976-01-01T00:00:04Z" (189302404) 0x79-0x7d (4)
0x070|                                       00 00 00|             ...|        corr: 5 0x7d-0x81 (4)
0x080|05                                             |.               |
     |                                               |                |      [5]{}: leap_second_record 0x81-0x89 (8)
0x080|   0d 2b 0b 85                                 | .+..           |        occur: "1977-01-01T00:00:05Z" (220924805) 0x81-0x85 (4)
0x080|               00 00 00 06                     |     ....       |        corr: 6 0x85-0x89 (4)
     |                                               |                |      [6]{}: leap_second_record 0x89-0x91 (8)
0x080|                           0f 0c 3f 06         |         ..?.   |        occur: "1978-01-01T00:00:06Z" (252460806) 0x89-0x8d (4)
0x080|                                       00 00 00|             ...|        corr: 7 0x8d-0x91 (4)
0x090|07                                             |.               |
     |                                               |                |      [7]{}: leap_second_record 0x91-0x99 (8)
0x090|   10 ed 72 87                                 | ..r.           |        occur: "1979-01-01T00:00:07Z" (283996807) 0x91-0x95 (4)
0x090|               00 00 00 08                     |     ....       |        corr: 8 0x95-0x99 (4)
     |                                               |                |      [8]{}: leap_second_record 0x99-0xa1 (8)
0x090|                           12 ce a6 08         |         ....   |        occur: "1980-01-01T00:00:08Z" (315532808) 0x99-0x9d (4)
0x090|                                       00 00 00|             ...|        corr: 9 0x9d-0xa1 (4)
0x0a0|09                                             |.               |
     |                                               |                |      [9]{}: leap_second_record 0xa1-0xa9 (8)
0x0a0|   15 9f ca 89                                 | ....           |        occur: "1981-07-01T00:00:09Z" (362793609) 0xa1-0xa5 (4)
0x0a0|               00 00 00 0a                     |     ....       |        corr: 10 0xa5-0xa9 (4)
     |                                               |                |      [10]{}: leap_second_record 0xa9-0xb1 (8)
0x0a0|                           17 80 fe 0a         |         ....   |        occur: "1982-07-01T00:00:10Z" (394329610) 0xa9-0xad (4)
0x0a0|                                       00 00 00|             ...|        corr: 11 0xad-0xb1 (4)
0x0b0|0b                                             |.               |
     |                                               |                |      [11]{}: leap_second_record 0xb1-0xb9 (8)
0x0b0|   19 62 31 8b                                 | .b1.           |        occur: "1983-07-01T00:00:11Z" (425865611) 0xb1-0xb5 (4)
0x0b0|               00 00 00 0c                     |     ....       |        corr: 12 0xb5-0xb9 (4)
     |                                               |                |      [12]{}: leap_second_record 0xb9-0xc1 (8)
0x0b0|                           1d 25 ea 0c         |         .%..   |        occur: "1985-07-01T00:00:12Z" (489024012) 0xb9-0xbd (4)
0x0b0|                                       00 00 00|             ...|        corr: 13 0xbd-0xc1 (4)
0x0c0|0d                                             |.               |
     |                                               |                |      [13]{}: leap_second_record 0xc1-0xc9 (8)
0x0c0|   21 da e5 0d                                 | !...           |        occur: "1988-01-01T00:00:13Z" (567993613) 0xc1-0xc5 (4)
0x0c0|               00 00 00 0e                     |     ....       |        corr: 14 0xc5-0xc9 (4)
     |                                               |                |      [14]{}: leap_second_record 0xc9-0xd1 (8)
0x0c0|                           25 9e 9d 8e         |         %...   |        occur: "1990-01-01T00:00:14Z" (631152014) 0xc9-0xcd (4)
0x0c0|                                       00 00 00|             ...|        corr: 15 0xcd-0xd1 (4)
0x0d0|0f                                             |.               |
     |                                               |                |      [15]{}: leap_second_record 0xd1-0xd9 (8)
0x0d0|   27 7f d1 0f                                 | '...           |        occur: "1991-01-01T00:00:15Z" (662688015) 0xd1-0xd5 (4)
0x0d0|               00 00 00 10                     |     ....       |        corr: 16 0xd5-0xd9 (4)
     |                                               |                |      [16]{}: leap_second_record 0xd9-0xe1 (8)
0x0d0|                           2a 50 f5 90         |         *P..   |        occur: "1992-07-01T00:00:16Z" (709948816) 0xd9-0xdd (4)
0x0d0|                                       00 00 00|             ...|        corr: 17 0xdd-0xe1 (4)
0x0e0|11                                             |.               |
     |                                               |                |      [17]{}: leap_second_record 0xe1-0xe9 (8)
0x0e0|   2c 32 29 11                                 | ,2).           |        occur: "1993-07-01T00:00:17Z" (741484817) 0xe1-0xe5 (4)
0x0e0|               00 00 00 12                     |     ....       |        corr: 18 0xe5-0xe9 (4)
     |                                               |                |      [18]{}: leap_second_record 0xe9-0xf1 (8)
0x0e0|                           2e 13 5c 92         |         ..\.   |        occur: "1994-07-01T00:00:18Z" (773020818) 0xe9-0xed (4)
0x0e0|                                       00 00 00|             ...|        corr: 19 0xed-0xf1 (4)
0x0f0|13                                             |.               |
     |                                               |                |      [19]{}: leap_second_record 0xf1-0xf9 (8)
0x0f0|   30 e7 24 13                                 | 0.$.           |        occur: "1996-01-01T00:00:19Z" (820454419) 0xf1-0xf5 (4)
0x0f0|               00 00 00 14                     |     ....       |        corr: 20 0xf5-0xf9 (4)
     |                                               |                |      [20]{}: leap_second_record 0xf9-0x101 (8)
0x0f0|                           33 b8 48 94         |         3.H.   |        occur: "1997-07-01T00:00:20Z" (867715220) 0xf9-0xfd (4)
0x0f0|                                       00 00 00|             ...|        corr: 21 0xfd-0x101 (4)
0x100|15                                             |.               |
     |                                               |                |      [21]{}: leap_second_record 0x101-0x109 (8)
0x100|   36 8c 10 15                                 | 6...           |        occur: "1999-01-01T00:00:21Z" (915148821) 0x101-0x105 (4)
0x100|               00 00 00 16                     |     ....       |        corr: 22 0x105-0x109 (4)
     |                                               |                |      [22]{}: leap_second_record 0x109-0x111 (8)
0x100|                           43 b7 1b 96         |         C...   |        occur: "2006-01-01T00:00:22Z" (1136073622) 0x109-0x10d (4)
0x100|                                       00 00 00|             ...|        corr: 23 0x10d-0x111 (4)
0x110|17                                             |.               |
     |                                               |                |      [23]{}: leap_second_record 0x111-0x119 (8)
0x110|   49 5c 07 97                                 | I\..           |        occur: "2009-01-01T00:00:23Z" (1230768023) 0x111-0x115 (4)
0x110|               00 00 00 18                     |     ....       |        corr: 24 0x115-0x119 (4)
     |                                               |                |      [24]{}: leap_second_record 0x119-0x121 (8)
0x110|                           4f ef 93 18         |         O...   |        occur: "2012-07-01T00:00:24Z" (1341100824) 0x119-0x11d (4)
0x110|                                       00 00 00|             ...|        corr: 25 0x11d-0x121 (4)
0x120|19                                             |.               |
     |                                               |                |      [25]{}: leap_second_record 0x121-0x129 (8)
0x120|   55 93 2d 99                                 | U.-.           |        occur: "2015-07-01T00:00:25Z" (1435708825) 0x121-0x125 (4)
0x120|               00 00 00 1a                     |     ....       |        corr: 26 0x125-0x129 (4)
     |                                               |                |      [26]{}: leap_second_record 0x129-0x131 (8)
0x120|                           58 68 46 9a         |         XhF.   |        occur: "2017-01-01T00:00:26Z" (1483228826) 0x129-0x12d (4)
0x120|                                       00 00 00|             ...|        corr: 27 0x12d-0x131 (4)
0x130|1b                                             |.               |
     |                                               |                |    standard_wall_indicators[0:0]: 0x131-0x131 (0)
     |                                               |                |    ut_local_indicators[0:0]: 0x131-0x131 (0)
     |                                               |                |  v2plusheader{}: 0x131-0x15d (44)
0x130|   54 5a 69 66                                 | TZif           |    magic: 0x545a6966 (valid) 0x131-0x135 (4)
0x130|               32                              |     2          |    ver: "2" (0x32) (valid) 0x135-0x136 (1)
0x130|                  00 00 00 00 00 00 00 00 00 00|      ..........|    reserved: raw bits 0x136-0x145 (15)
0x140|00 00 00 00 00                                 |.....           |
0x140|               00 00 00 00                     |     ....       |    isutcnt: 0 0x145-0x149 (4)
0x140|                           00 00 00 00         |         ....   |    isstdcnt: 0 0x149-0x14d (4)
0x140|                                       00 00 00|             ...|    leapcnt: 27 0x14d-0x151 (4)
0x150|1b                                             |.               |
0x150|   00 00 00 03                                 | ....           |    timecnt: 3 0x151-0x155 (4)
0x150|               00 00 00 03                     |     ....       |    typecnt: 3 0x155-0x159 (4)
0x150|                           00 00 00 0c         |         ....   |    charcnt: 12 0x159-0x15d (4)
     |                                               |                |  v2plusdatablock{}: 0x15d-0x2da (381)
     |                                               |                |    transition_times[0:3]: 0x15d-0x175 (24)
0x150|                                       ff ff ff|             ...|      [0]: "1890-01-01T05:18:08Z" (-2524502512) transition_time 0x15d-0x165 (8)
0x160|ff 69 87 26 10                                 |.i.&.           |
0x160|               ff ff ff ff 8b f4 61 e8         |     ......a.   |      [1]: "1908-04-22T05:19:36Z" (-1946918424) transition_time 0x165-0x16d (8)
0x160|                                       00 00 00|             ...|      [2]: "2023-06-28T00:00:27Z" (1687910427) transition_time 0x16d-0x175 (8)
0x170|00 64 9b 78 1b                                 |.d.x.           |
     |                                               |                |    transition_types[0:3]: 0x175-0x178 (3)
0x170|               01                              |     .          |      [0]: 1 transition_type 0x175-0x176 (1)
0x170|                  02                           |      .         |      [1]: 2 transition_type 0x176-0x177 (1)
0x170|                     02                        |       .        |      [2]: 2 transition_type 0x177-0x178 (1)
     |                                               |                |    local_time_type_records[0:3]: 0x178-0x18a (18)
     |                                               |                |      [0]{}: local_time_type 0x178-0x17e (6)
0x170|                        ff ff b5 70            |        ...p    |        utoff: -19088 (valid) 0x178-0x17c (4)
0x170|                                    00         |            .   |        dst: 0 (valid) 0x17c-0x17d (1)
0x170|                                       00      |             .  |        idx: 0 (valid) 0x17d-0x17e (1)
     |                                               |                |      [1]{}: local_time_type 0x17e-0x184 (6)
0x170|                                          ff ff|              ..|        utoff: -19176 (valid) 0x17e-0x182 (4)
0x180|b5 18                                          |..              |
0x180|      00                                       |  .             |        dst: 0 (valid) 0x182-0x183 (1)
0x180|         04                                    |   .            |        idx: 4 (valid) 0x183-0x184 (1)
     |                                               |                |      [2]{}: local_time_type 0x184-0x18a (6)
0x180|            ff ff b9 b0                        |    ....        |        utoff: -18000 (valid) 0x184-0x188 (4)
0x180|                        00                     |        .       |        dst: 0 (valid) 0x188-0x189 (1)
0x180|                           08                  |         .      |        idx: 8 (valid) 0x189-0x18a (1)
     |                                               |                |    time_zone_designations[0:3]: 0x18a-0x196 (12)
0x180|                              4c 4d 54 00      |          LMT.  |      [0]: "LMT" time_zone_designation 0x18a-0x18e (4)
0x180|                                          43 4d|              CM|      [1]: "CMT" time_zone_designation 0x18e-0x192 (4)
0x190|54 00                                          |T.              |
0x190|      45 53 54 00                              |  EST.          |      [2]: "EST" time_zone_designation 0x192-0x196 (4)
     |                                               |                |    leap_second_records[0:27]: 0x196-0x2da (324)
     |                                               |                |      [0]{}: leap_second_record 0x196-0x1a2 (12)
0x190|                  00 00 00 00 04 b2 58 00      |      ......X.  |        occur: "1972-07-01T00:00:00Z" (78796800) 0x196-0x19e (8)
0x190|                                          00 00|              ..|        corr: 1 0x19e-0x1a2 (4)
0x1a0|00 01                                          |..              |
     |                                               |                |      [1]{}: leap_second_record 0x1a2-0x1ae (12)
0x1a0|      00 00 00 00 05 a4 ec 01                  |  ........      |        occur: "1973-01-01T00:00:01Z" (94694401) 0x1a2-0x1aa (8)
0x1a0|                              00 00 00 02      |          ....  |        corr: 2 0x1aa-0x1ae (4)
     |                                               |                |      [2]{}: leap_second_record 0x1ae-0x1ba (12)
0x1a0|                                          00 00|              ..|        occur: "1974-01-01T00:00:02Z" (126230402) 0x1ae-0x1b6 (8)
0x1b0|00 00 07 86 1f 82                              |......          |
0x1b0|                  00 00 00 03                  |      ....      |        corr: 3 0x1b6-0x1ba (4)
     |                                               |                |      [3]{}: leap_second_record 0x1ba-0x1c6 (12)
0x1b0|                              00 00 00 00 09 67|          .....g|        occur: "1975-01-01T00:00:03Z" (157766403) 0x1ba-0x1c2 (8)
0x1c0|53 03                                          |S.              |
0x1c0|      00 00 00 04                              |  ....          |        corr: 4 0x1c2-0x1c6 (4)
     |                                               |                |      [4]{}: leap_second_record 0x1c6-0x1d2 (12)
0x1c0|                  00 00 00 00 0b 48 86 84      |      .....H..  |        occur: "1976-01-01T00:00:04Z" (189302404) 0x1c6-0x1ce (8)
0x1c0|                                          00 00|              ..|        corr: 5 0x1ce-0x1d2 (4)
0x1d0|00 05                                          |..              |
     |                                               |                |      [5]{}: leap_second_record 0x1d2-0x1de (12)
0x1d0|      00 00 00 00 0d 2b 0b 85                  |  .....+..      |        occur: "1977-01-01T00:00:05Z" (220924805) 0x1d2-0x1da (8)
0x1d0|                              00 00 00 06      |          ....  |        corr: 6 0x1da-0x1de (4)
     |                                               |                |      [6]{}: leap_second_record 0x1de-0x1ea (12)
0x1d0|                                          00 00|              ..|        occur: "1978-01-01T00:00:06Z" (252460806) 0x1de-0x1e6 (8)
0x1e0|00 00 0f 0c 3f 06                              |....?.          |
0x1e0|                  00 00 00 07                  |      ....      |        corr: 7 0x1e6-0x1ea (4)
     |                                               |                |      [7]{}: leap_second_record 0x1ea-0x1f6 (12)
0x1e0|                              00 00 00 00 10 ed|          ......|        occur: "1979-01-01T00:00:07Z" (283996807) 0x1ea-0x1f2 (8)
0x1f0|72 87                                          |r.              |
0x1f0|      00 00 00 08                              |  ....          |        corr: 8 0x1f2-0x1f6 (4)
     |                                               |                |      [8]{}: leap_second_record 0x1f6-0x202 (12)
0x1f0|                  00 00 00 00 12 ce a6 08      |      ........  |        occur: "1980-01-01T00:00:08Z" (315532808) 0x1f6-0x1fe (8)
0x1f0|                                          00 00|              ..|        corr: 9 0x1fe-0x202 (4)
0x200|00 09                                          |..              |
     |                                               |                |      [9]{}: leap_second_record 0x202-0x20e (12)
0x200|      00 00 00 00 15 9f ca 89                  |  ........      |        occur: "1981-07-01T00:00:09Z" (362793609) 0x202-0x20a (8)
0x200|                              00 00 00 0a      |          ....  |        corr: 10 0x20a-0x20e (4)
     |                                               |                |      [10]{}: leap_second_record 0x20e-0x21a (12)
0x200|                                          00 00|              ..|        occur: "1982-07-01T00:00:10Z" (394329610) 0x20e-0x216 (8)
0x210|00 00 17 80 fe 0a                              |......          |
0x210|                  00 00 00 0b                  |      ....      |        corr: 11 0x216-0x21a (4)
     |                                               |                |      [11]{}: leap_second_record 0x21a-0x226 (12)
0x210|                              00 00 00 00 19 62|          .....b|        occur: "1983-07-01T00:00:11Z" (425865611) 0x21a-0x222 (8)
0x220|31 8b                                          |1.              |
0x220|      00 00 00 0c                              |  ....          |        corr: 12 0x222-0x226 (4)
     |                                               |                |      [12]{}: leap_second_record 0x226-0x232 (12)
0x220|                  00 00 00 00 1d 25 ea 0c      |      .....%..  |        occur: "1985-07-01T00:00:12Z" (489024012) 0x226-0x22e (8)
0x220|                                          00 00|              ..|        corr: 13 0x22e-0x232 (4)
0x230|00 0d                                          |..              |
     |                                               |                |      [13]{}: leap_second_record 0x232-0x23e (12)
0x230|      00 00 00 00 21 da e5 0d                  |  ....!...      |        occur: "1988-01-01T00:00:13Z" (567993613) 0x232-0x23a (8)
0x230|                              00 00 00 0e      |          ....  |        corr: 14 0x23a-0x23e (4)
     |                                               |                |      [14]{}: leap_second_record 0x23e-0x24a (12)
0x230|                                          00 00|              ..|        occur: "1990-01-01T00:00:14Z" (631152014) 0x23e-0x246 (8)
0x240|00 00 25 9e 9d 8e                              |..%...          |
0x240|                  00 00 00 0f                  |      ....      |        corr: 15 0x246-0x24a (4)
     |                                               |                |      [15]{}: leap_second_record 0x24a-0x256 (12)
0x240|                              00 00 00 00 27 7f|          ....'.|        occur: "1991-01-01T00:00:15Z" (662688015) 0x24a-0x252 (8)
0x250|d1 0f                                          |..              |
0x250|      00 00 00 10                              |  ....          |        corr: 16 0x252-0x256 (4)
     |                                               |                |      [16]{}: leap_second_record 0x256-0x262 (12)
0x250|                  00 00 00 00 2a 50 f5 90      |      ....*P..  |        occur: "1992-07-01T00:00:16Z" (709948816) 0x256-0x25e (8)
0x250|                                          00 00|              ..|        corr: 17 0x25e-0x262 (4)
0x260|00 11                                          |..              |
     |                                               |                |      [17]{}: leap_second_record 0x262-0x26e (12)
0x260|      00 00 00 00 2c 32 29 11                  |  ....,2).      |        occur: "1993-07-01T00:00:17Z" (741484817) 0x262-0x26a (8)
0x260|                              00 00 00 12      |          ....  |        corr: 18 0x26a-0x26e (4)
     |                                               |                |      [18]{}: leap_second_record 0x26e-0x27a (12)
0x260|                                          00 00|              ..|        occur: "1994-07-01T00:00:18Z" (773020818) 0x26e-0x276 (8)
0x270|00 00 2e 13 5c 92                              |....\.          |
0x270|                  00 00 00 13                  |      ....      |        corr: 19 0x276-0x27a (4)
     |                                               |                |      [19]{}: leap_second_record 0x27a-0x286 (12)
0x270|                              00 00 00 00 30 e7|          ....0.|        occur: "1996-01-01T00:00:19Z" (820454419) 0x27a-0x282 (8)
0x280|24 13                                          |$.              |
0x280|      00 00 00 14                              |  ....          |        corr: 20 0x282-0x286 (4)
     |                                               |                |      [20]{}: leap_second_record 0x286-0x292 (12)
0x280|                  00 00 00 00 33 b8 48 94      |      ....3.H.  |        occur: "1997-07-01T00:00:20Z" (867715220) 0x286-0x28e (8)
0x280|                                          00 00|              ..|        corr: 21 0x28e-0x292 (4)
0x290|00 15                                          |..              |
     |                                               |                |      [21]{}: leap_second_record 0x292-0x29e (12)
0x290|      00 00 00 00 36 8c 10 15                  |  ....6...      |        occur: "1999-01-01T00:00:21Z" (915148821) 0x292-0x29a (8)
0x290|                              00 00 00 16      |          ....  |        corr: 22 0x29a-0x29e (4)
     |                                               |                |      [22]{}: leap_second_record 0x29e-0x2aa (12)
0x290|                                          00 00|              ..|        occur: "2006-01-01T00:00:22Z" (1136073622) 0x29e-0x2a6 (8)
0x2a0|00 00 43 b7 1b 96                              |..C...          |
0x2a0|                  00 00 00 17                  |      ....      |        corr: 23 0x2a6-0x2aa (4)
     |                                               |                |      [23]{}: leap_second_record 0x2aa-0x2b6 (12)
0x2a0|                              00 00 00 00 49 5c|          ....I\|        occur: "2009-01-01T00:00:23Z" (1230768023) 0x2aa-0x2b2 (8)
0x2b0|07 97                                          |..              |
0x2b0|      00 00 00 18                              |  ....          |        corr: 24 0x2b2-0x2b6 (4)
     |                                               |                |      [24]{}: leap_second_record 0x2b6-0x2c2 (12)
0x2b0|                  00 00 00 00 4f ef 93 18      |      ....O...  |        occur: "2012-07-01T00:00:24Z" (1341100824) 0x2b6-0x2be (8)
0x2b0|                                          00 00|              ..|        corr: 25 0x2be-0x2c2 (4)
0x2c0|00 19                                          |..              |
     |                                               |                |      [25]{}: leap_second_record 0x2c2-0x2ce (12)
0x2c0|      00 00 00 00 55 93 2d 99                  |  ....U.-.      |        occur: "2015-07-01T00:00:25Z" (1435708825) 0x2c2-0x2ca (8)
0x2c0|                              00 00 00 1a      |          ....  |        corr: 26 0x2ca-0x2ce (4)
     |                                               |                |      [26]{}: leap_second_record 0x2ce-0x2da (12)
0x2c0|                                          00 00|              ..|        occur: "2017-01-01T00:00:26Z" (1483228826) 0x2ce-0x2d6 (8)
0x2d0|00 00 58 68 46 9a                              |..XhF.          |
0x2d0|                  00 00 00 1b                  |      ....      |        corr: 27 0x2d6-0x2da (4)
     |                                               |                |    standard_wall_indicators[0:0]: 0x2da-0x2da (0)
     |                                               |                |    ut_local_indicators[0:0]: 0x2da-0x2da (0)
     |                                               |                |  footer{}: 0x2da-0x2dc (2)
0x2d0|                              0a               |          .     |    nl1: 10 (valid) 0x2da-0x2db (1)
     |                                               |                |    tz_string: "" 0x2db-0x2db (0)
0x2d0|                                 0a|           |           .|   |    nl2: 10 (valid) 0x2db-0x2dc (1)
