$ fq -d tzif dv Pangnirtung
     |00 01 02 03 04 05 06 07 08 09 0a 0b 0c 0d 0e 0f|0123456789abcdef|.{}: Pangnirtung (tzif) 0x0-0x8ab.7 (2220)
     |                                               |                |  v1header{}: 0x0-0x2b.7 (44)
0x000|54 5a 69 66                                    |TZif            |    magic: 0x545a6966 (valid) 0x0-0x3.7 (4)
0x000|            32                                 |    2           |    ver: "2" (0x32) (valid) 0x4-0x4.7 (1)
0x000|               00 00 00 00 00 00 00 00 00 00 00|     ...........|    reserved: raw bits 0x5-0x13.7 (15)
0x010|00 00 00 00                                    |....            |
0x010|            00 00 00 0c                        |    ....        |    isutcnt: 12 0x14-0x17.7 (4)
0x010|                        00 00 00 0c            |        ....    |    isstdcnt: 12 0x18-0x1b.7 (4)
0x010|                                    00 00 00 1b|            ....|    leapcnt: 27 0x1c-0x1f.7 (4)
0x020|00 00 00 5e                                    |...^            |    timecnt: 94 0x20-0x23.7 (4)
0x020|            00 00 00 0c                        |    ....        |    typecnt: 12 0x24-0x27.7 (4)
0x020|                        00 00 00 29            |        ...)    |    charcnt: 41 0x28-0x2b.7 (4)
     |                                               |                |  v1datablock{}: 0x2c-0x362.7 (823)
     |                                               |                |    transition_times[0:94]: 0x2c-0x1a3.7 (376)
0x020|                                    a3 d5 52 80|            ..R.|      [0]: "1921-01-01T00:00:00Z" (-1546300800) transition_time 0x2c-0x2f.7 (4)
0x030|cb 88 e2 60                                    |...`            |      [1]: "1942-02-09T06:00:00Z" (-880221600) transition_time 0x30-0x33.7 (4)
0x030|            d2 23 f4 70                        |    .#.p        |      [2]: "1945-08-14T23:00:00Z" (-769395600) transition_time 0x34-0x37.7 (4)
0x030|                        d2 60 ed d0            |        .`..    |      [3]: "1945-09-30T05:00:00Z" (-765399600) transition_time 0x38-0x3b.7 (4)
0x030|                                    f7 2f 30 40|            ./0@|      [4]: "1965-04-25T04:00:00Z" (-147902400) transition_time 0x3c-0x3f.7 (4)
0x040|f8 28 5b c0                                    |.([.            |      [5]: "1965-10-31T04:00:00Z" (-131572800) transition_time 0x40-0x43.7 (4)
0x040|            13 69 39 e9                        |    .i9.        |      [6]: "1980-04-27T06:00:09Z" (325663209) transition_time 0x44-0x47.7 (4)
0x040|                        14 59 1c d9            |        .Y..    |      [7]: "1980-10-26T05:00:09Z" (341384409) transition_time 0x48-0x4b.7 (4)
0x040|                                    15 49 1b e9|            .I..|      [8]: "1981-04-26T06:00:09Z" (357112809) transition_time 0x4c-0x4f.7 (4)
0x050|16 38 fe da                                    |.8..            |      [9]: "1981-10-25T05:00:10Z" (372834010) transition_time 0x50-0x53.7 (4)
0x050|            17 28 fd ea                        |    .(..        |      [10]: "1982-04-25T06:00:10Z" (388562410) transition_time 0x54-0x57.7 (4)
0x050|                        18 22 1b 5b            |        .".[    |      [11]: "1982-10-31T05:00:11Z" (404888411) transition_time 0x58-0x5b.7 (4)
0x050|                                    19 08 df eb|            ....|      [12]: "1983-04-24T06:00:11Z" (420012011) transition_time 0x5c-0x5f.7 (4)
0x060|1a 01 fd 5c                                    |...\            |      [13]: "1983-10-30T05:00:12Z" (436338012) transition_time 0x60-0x63.7 (4)
0x060|            1a f1 fc 6c                        |    ...l        |      [14]: "1984-04-29T06:00:12Z" (452066412) transition_time 0x64-0x67.7 (4)
0x060|                        1b e1 df 5c            |        ...\    |      [15]: "1984-10-28T05:00:12Z" (467787612) transition_time 0x68-0x6b.7 (4)
0x060|                                    1c d1 de 6c|            ...l|      [16]: "1985-04-28T06:00:12Z" (483516012) transition_time 0x6c-0x6f.7 (4)
0x070|1d c1 c1 5d                                    |...]            |      [17]: "1985-10-27T05:00:13Z" (499237213) transition_time 0x70-0x73.7 (4)
0x070|            1e b1 c0 6d                        |    ...m        |      [18]: "1986-04-27T06:00:13Z" (514965613) transition_time 0x74-0x77.7 (4)
0x070|                        1f a1 a3 5d            |        ...]    |      [19]: "1986-10-26T05:00:13Z" (530686813) transition_time 0x78-0x7b.7 (4)
0x070|                                    20 75 f2 ed|             u..|      [20]: "1987-04-05T06:00:13Z" (544600813) transition_time 0x7c-0x7f.7 (4)
0x080|21 81 85 5d                                    |!..]            |      [21]: "1987-10-25T05:00:13Z" (562136413) transition_time 0x80-0x83.7 (4)
0x080|            22 55 d4 ee                        |    "U..        |      [22]: "1988-04-03T06:00:14Z" (576050414) transition_time 0x84-0x87.7 (4)
0x080|                        23 6a a1 de            |        #j..    |      [23]: "1988-10-30T05:00:14Z" (594190814) transition_time 0x88-0x8b.7 (4)
0x080|                                    24 35 b6 ee|            $5..|      [24]: "1989-04-02T06:00:14Z" (607500014) transition_time 0x8c-0x8f.7 (4)
0x090|25 4a 83 de                                    |%J..            |      [25]: "1989-10-29T05:00:14Z" (625640414) transition_time 0x90-0x93.7 (4)
0x090|            26 15 98 ef                        |    &...        |      [26]: "1990-04-01T06:00:15Z" (638949615) transition_time 0x94-0x97.7 (4)
0x090|                        27 2a 65 df            |        '*e.    |      [27]: "1990-10-28T05:00:15Z" (657090015) transition_time 0x98-0x9b.7 (4)
0x090|                                    27 fe b5 70|            '..p|      [28]: "1991-04-07T06:00:16Z" (671004016) transition_time 0x9c-0x9f.7 (4)
0x0a0|29 0a 47 e0                                    |).G.            |      [29]: "1991-10-27T05:00:16Z" (688539616) transition_time 0xa0-0xa3.7 (4)
0x0a0|            29 de 97 70                        |    )..p        |      [30]: "1992-04-05T06:00:16Z" (702453616) transition_time 0xa4-0xa7.7 (4)
0x0a0|                        2a ea 29 e1            |        *.).    |      [31]: "1992-10-25T05:00:17Z" (719989217) transition_time 0xa8-0xab.7 (4)
0x0a0|                                    2b be 79 71|            +.yq|      [32]: "1993-04-04T06:00:17Z" (733903217) transition_time 0xac-0xaf.7 (4)
0x0b0|2c d3 46 62                                    |,.Fb            |      [33]: "1993-10-31T05:00:18Z" (752043618) transition_time 0xb0-0xb3.7 (4)
0x0b0|            2d 9e 5b 72                        |    -.[r        |      [34]: "1994-04-03T06:00:18Z" (765352818) transition_time 0xb4-0xb7.7 (4)
0x0b0|                        2e b3 28 63            |        ..(c    |      [35]: "1994-10-30T05:00:19Z" (783493219) transition_time 0xb8-0xbb.7 (4)
0x0b0|                                    2f 7e 3d 73|            /~=s|      [36]: "1995-04-02T06:00:19Z" (796802419) transition_time 0xbc-0xbf.7 (4)
0x0c0|30 93 18 73                                    |0..s            |      [37]: "1995-10-29T06:00:19Z" (814946419) transition_time 0xc0-0xc3.7 (4)
0x0c0|            31 67 68 04                        |    1gh.        |      [38]: "1996-04-07T07:00:20Z" (828860420) transition_time 0xc4-0xc7.7 (4)
0x0c0|                        32 72 fa 74            |        2r.t    |      [39]: "1996-10-27T06:00:20Z" (846396020) transition_time 0xc8-0xcb.7 (4)
0x0c0|                                    33 47 4a 04|            3GJ.|      [40]: "1997-04-06T07:00:20Z" (860310020) transition_time 0xcc-0xcf.7 (4)
0x0d0|34 52 dc 75                                    |4R.u            |      [41]: "1997-10-26T06:00:21Z" (877845621) transition_time 0xd0-0xd3.7 (4)
0x0d0|            35 27 2c 05                        |    5',.        |      [42]: "1998-04-05T07:00:21Z" (891759621) transition_time 0xd4-0xd7.7 (4)
0x0d0|                        36 32 be 75            |        62.u    |      [43]: "1998-10-25T06:00:21Z" (909295221) transition_time 0xd8-0xdb.7 (4)
0x0d0|                                    37 07 0e 06|            7...|      [44]: "1999-04-04T07:00:22Z" (923209222) transition_time 0xdc-0xdf.7 (4)
0x0e0|38 1b da f6                                    |8...            |      [45]: "1999-10-31T06:00:22Z" (941349622) transition_time 0xe0-0xe3.7 (4)
0x0e0|            38 e6 fe 16                        |    8...        |      [46]: "2000-04-02T08:00:22Z" (954662422) transition_time 0xe4-0xe7.7 (4)
0x0e0|                        39 fb cb 06            |        9...    |      [47]: "2000-10-29T07:00:22Z" (972802822) transition_time 0xe8-0xeb.7 (4)
0x0e0|                                    3a c6 d2 06|            :...|      [48]: "2001-04-01T07:00:22Z" (986108422) transition_time 0xec-0xef.7 (4)
0x0f0|3b db 9e f6                                    |;...            |      [49]: "2001-10-28T06:00:22Z" (1004248822) transition_time 0xf0-0xf3.7 (4)
0x0f0|            3c af ee 86                        |    <...        |      [50]: "2002-04-07T07:00:22Z" (1018162822) transition_time 0xf4-0xf7.7 (4)
0x0f0|                        3d bb 80 f6            |        =...    |      [51]: "2002-10-27T06:00:22Z" (1035698422) transition_time 0xf8-0xfb.7 (4)
0x0f0|                                    3e 8f d0 86|            >...|      [52]: "2003-04-06T07:00:22Z" (1049612422) transition_time 0xfc-0xff.7 (4)
0x100|3f 9b 62 f6                                    |?.b.            |      [53]: "2003-10-26T06:00:22Z" (1067148022) transition_time 0x100-0x103.7 (4)
0x100|            40 6f b2 86                        |    @o..        |      [54]: "2004-04-04T07:00:22Z" (1081062022) transition_time 0x104-0x107.7 (4)
0x100|                        41 84 7f 76            |        A..v    |      [55]: "2004-10-31T06:00:22Z" (1099202422) transition_time 0x108-0x10b.7 (4)
0x100|                                    42 4f 94 86|            BO..|      [56]: "2005-04-03T07:00:22Z" (1112511622) transition_time 0x10c-0x10f.7 (4)
0x110|43 64 61 76                                    |Cdav            |      [57]: "2005-10-30T06:00:22Z" (1130652022) transition_time 0x110-0x113.7 (4)
0x110|            44 2f 76 87                        |    D/v.        |      [58]: "2006-04-02T07:00:23Z" (1143961223) transition_time 0x114-0x117.7 (4)
0x110|                        45 44 43 77            |        EDCw    |      [59]: "2006-10-29T06:00:23Z" (1162101623) transition_time 0x118-0x11b.7 (4)
0x110|                                    45 f3 a9 07|            E...|      [60]: "2007-03-11T07:00:23Z" (1173596423) transition_time 0x11c-0x11f.7 (4)
0x120|47 2d 5f f7                                    |G-_.            |      [61]: "2007-11-04T06:00:23Z" (1194156023) transition_time 0x120-0x123.7 (4)
0x120|            47 d3 8b 07                        |    G...        |      [62]: "2008-03-09T07:00:23Z" (1205046023) transition_time 0x124-0x127.7 (4)
0x120|                        49 0d 41 f7            |        I.A.    |      [63]: "2008-11-02T06:00:23Z" (1225605623) transition_time 0x128-0x12b.7 (4)
0x120|                                    49 b3 6d 08|            I.m.|      [64]: "2009-03-08T07:00:24Z" (1236495624) transition_time 0x12c-0x12f.7 (4)
0x130|4a ed 23 f8                                    |J.#.            |      [65]: "2009-11-01T06:00:24Z" (1257055224) transition_time 0x130-0x133.7 (4)
0x130|            4b 9c 89 88                        |    K...        |      [66]: "2010-03-14T07:00:24Z" (1268550024) transition_time 0x134-0x137.7 (4)
0x130|                        4c d6 40 78            |        L.@x    |      [67]: "2010-11-07T06:00:24Z" (1289109624) transition_time 0x138-0x13b.7 (4)
0x130|                                    4d 7c 6b 88|            M|k.|      [68]: "2011-03-13T07:00:24Z" (1299999624) transition_time 0x13c-0x13f.7 (4)
0x140|4e b6 22 78                                    |N."x            |      [69]: "2011-11-06T06:00:24Z" (1320559224) transition_time 0x140-0x143.7 (4)
0x140|            4f 5c 4d 88                        |    O\M.        |      [70]: "2012-03-11T07:00:24Z" (1331449224) transition_time 0x144-0x147.7 (4)
0x140|                        50 96 04 79            |        P..y    |      [71]: "2012-11-04T06:00:25Z" (1352008825) transition_time 0x148-0x14b.7 (4)
0x140|                                    51 3c 2f 89|            Q</.|      [72]: "2013-03-10T07:00:25Z" (1362898825) transition_time 0x14c-0x14f.7 (4)
0x150|52 75 e6 79                                    |Ru.y            |      [73]: "2013-11-03T06:00:25Z" (1383458425) transition_time 0x150-0x153.7 (4)
0x150|            53 1c 11 89                        |    S...        |      [74]: "2014-03-09T07:00:25Z" (1394348425) transition_time 0x154-0x157.7 (4)
0x150|                        54 55 c8 79            |        TU.y    |      [75]: "2014-11-02T06:00:25Z" (1414908025) transition_time 0x158-0x15b.7 (4)
0x150|                                    54 fb f3 89|            T...|      [76]: "2015-03-08T07:00:25Z" (1425798025) transition_time 0x15c-0x15f.7 (4)
0x160|56 35 aa 7a                                    |V5.z            |      [77]: "2015-11-01T06:00:26Z" (1446357626) transition_time 0x160-0x163.7 (4)
0x160|            56 e5 10 0a                        |    V...        |      [78]: "2016-03-13T07:00:26Z" (1457852426) transition_time 0x164-0x167.7 (4)
0x160|                        58 1e c6 fa            |        X...    |      [79]: "2016-11-06T06:00:26Z" (1478412026) transition_time 0x168-0x16b.7 (4)
0x160|                                    58 c4 f2 0b|            X...|      [80]: "2017-03-12T07:00:27Z" (1489302027) transition_time 0x16c-0x16f.7 (4)
0x170|59 fe a8 fb                                    |Y...            |      [81]: "2017-11-05T06:00:27Z" (1509861627) transition_time 0x170-0x173.7 (4)
0x170|            5a a4 d4 0b                        |    Z...        |      [82]: "2018-03-11T07:00:27Z" (1520751627) transition_time 0x174-0x177.7 (4)
0x170|                        5b de 8a fb            |        [...    |      [83]: "2018-11-04T06:00:27Z" (1541311227) transition_time 0x178-0x17b.7 (4)
0x170|                                    5c 84 b6 0b|            \...|      [84]: "2019-03-10T07:00:27Z" (1552201227) transition_time 0x17c-0x17f.7 (4)
0x180|5d be 6c fb                                    |].l.            |      [85]: "2019-11-03T06:00:27Z" (1572760827) transition_time 0x180-0x183.7 (4)
0x180|            5e 64 98 0b                        |    ^d..        |      [86]: "2020-03-08T07:00:27Z" (1583650827) transition_time 0x184-0x187.7 (4)
0x180|                        5f 9e 4e fb            |        _.N.    |      [87]: "2020-11-01T06:00:27Z" (1604210427) transition_time 0x188-0x18b.7 (4)
0x180|                                    60 4d b4 8b|            `M..|      [88]: "2021-03-14T07:00:27Z" (1615705227) transition_time 0x18c-0x18f.7 (4)
0x190|61 87 6b 7b                                    |a.k{            |      [89]: "2021-11-07T06:00:27Z" (1636264827) transition_time 0x190-0x193.7 (4)
0x190|            62 2d 96 8b                        |    b-..        |      [90]: "2022-03-13T07:00:27Z" (1647154827) transition_time 0x194-0x197.7 (4)
0x190|                        63 67 4d 7b            |        cgM{    |      [91]: "2022-11-06T06:00:27Z" (1667714427) transition_time 0x198-0x19b.7 (4)
0x190|                                    64 0d 78 8b|            d.x.|      [92]: "2023-03-12T07:00:27Z" (1678604427) transition_time 0x19c-0x19f.7 (4)
0x1a0|64 9b 78 1b                                    |d.x.            |      [93]: "2023-06-28T00:00:27Z" (1687910427) transition_time 0x1a0-0x1a3.7 (4)
     |                                               |                |    transition_types[0:94]: 0x1a4-0x201.7 (94)
0x1a0|            03                                 |    .           |      [0]: 3 transition_type 0x1a4-0x1a4.7 (1)
0x1a0|               01                              |     .          |      [1]: 1 transition_type 0x1a5-0x1a5.7 (1)
0x1a0|                  02                           |      .         |      [2]: 2 transition_type 0x1a6-0x1a6.7 (1)
0x1a0|                     03                        |       .        |      [3]: 3 transition_type 0x1a7-0x1a7.7 (1)
0x1a0|                        04                     |        .       |      [4]: 4 transition_type 0x1a8-0x1a8.7 (1)
0x1a0|                           03                  |         .      |      [5]: 3 transition_type 0x1a9-0x1a9.7 (1)
0x1a0|                              05               |          .     |      [6]: 5 transition_type 0x1aa-0x1aa.7 (1)
0x1a0|                                 03            |           .    |      [7]: 3 transition_type 0x1ab-0x1ab.7 (1)
0x1a0|                                    05         |            .   |      [8]: 5 transition_type 0x1ac-0x1ac.7 (1)
0x1a0|                                       03      |             .  |      [9]: 3 transition_type 0x1ad-0x1ad.7 (1)
0x1a0|                                          05   |              . |      [10]: 5 transition_type 0x1ae-0x1ae.7 (1)
0x1a0|                                             03|               .|      [11]: 3 transition_type 0x1af-0x1af.7 (1)
0x1b0|05                                             |.               |      [12]: 5 transition_type 0x1b0-0x1b0.7 (1)
0x1b0|   03                                          | .              |      [13]: 3 transition_type 0x1b1-0x1b1.7 (1)
0x1b0|      05                                       |  .             |      [14]: 5 transition_type 0x1b2-0x1b2.7 (1)
0x1b0|         03                                    |   .            |      [15]: 3 transition_type 0x1b3-0x1b3.7 (1)
0x1b0|            05                                 |    .           |      [16]: 5 transition_type 0x1b4-0x1b4.7 (1)
0x1b0|               03                              |     .          |      [17]: 3 transition_type 0x1b5-0x1b5.7 (1)
0x1b0|                  05                           |      .         |      [18]: 5 transition_type 0x1b6-0x1b6.7 (1)
0x1b0|                     03                        |       .        |      [19]: 3 transition_type 0x1b7-0x1b7.7 (1)
0x1b0|                        05                     |        .       |      [20]: 5 transition_type 0x1b8-0x1b8.7 (1)
0x1b0|                           03                  |         .      |      [21]: 3 transition_type 0x1b9-0x1b9.7 (1)
0x1b0|                              05               |          .     |      [22]: 5 transition_type 0x1ba-0x1ba.7 (1)
0x1b0|                                 03            |           .    |      [23]: 3 transition_type 0x1bb-0x1bb.7 (1)
0x1b0|                                    05         |            .   |      [24]: 5 transition_type 0x1bc-0x1bc.7 (1)
0x1b0|                                       03      |             .  |      [25]: 3 transition_type 0x1bd-0x1bd.7 (1)
0x1b0|                                          05   |              . |      [26]: 5 transition_type 0x1be-0x1be.7 (1)
0x1b0|                                             03|               .|      [27]: 3 transition_type 0x1bf-0x1bf.7 (1)
0x1c0|05                                             |.               |      [28]: 5 transition_type 0x1c0-0x1c0.7 (1)
0x1c0|   03                                          | .              |      [29]: 3 transition_type 0x1c1-0x1c1.7 (1)
0x1c0|      05                                       |  .             |      [30]: 5 transition_type 0x1c2-0x1c2.7 (1)
0x1c0|         03                                    |   .            |      [31]: 3 transition_type 0x1c3-0x1c3.7 (1)
0x1c0|            05                                 |    .           |      [32]: 5 transition_type 0x1c4-0x1c4.7 (1)
0x1c0|               03                              |     .          |      [33]: 3 transition_type 0x1c5-0x1c5.7 (1)
0x1c0|                  05                           |      .         |      [34]: 5 transition_type 0x1c6-0x1c6.7 (1)
0x1c0|                     03                        |       .        |      [35]: 3 transition_type 0x1c7-0x1c7.7 (1)
0x1c0|                        06                     |        .       |      [36]: 6 transition_type 0x1c8-0x1c8.7 (1)
0x1c0|                           07                  |         .      |      [37]: 7 transition_type 0x1c9-0x1c9.7 (1)
0x1c0|                              06               |          .     |      [38]: 6 transition_type 0x1ca-0x1ca.7 (1)
0x1c0|                                 07            |           .    |      [39]: 7 transition_type 0x1cb-0x1cb.7 (1)
0x1c0|                                    06         |            .   |      [40]: 6 transition_type 0x1cc-0x1cc.7 (1)
0x1c0|                                       07      |             .  |      [41]: 7 transition_type 0x1cd-0x1cd.7 (1)
0x1c0|                                          06   |              . |      [42]: 6 transition_type 0x1ce-0x1ce.7 (1)
0x1c0|                                             07|               .|      [43]: 7 transition_type 0x1cf-0x1cf.7 (1)
0x1d0|06                                             |.               |      [44]: 6 transition_type 0x1d0-0x1d0.7 (1)
0x1d0|   08                                          | .              |      [45]: 8 transition_type 0x1d1-0x1d1.7 (1)
0x1d0|      09                                       |  .             |      [46]: 9 transition_type 0x1d2-0x1d2.7 (1)
0x1d0|         07                                    |   .            |      [47]: 7 transition_type 0x1d3-0x1d3.7 (1)
0x1d0|            06                                 |    .           |      [48]: 6 transition_type 0x1d4-0x1d4.7 (1)
0x1d0|               07                              |     .          |      [49]: 7 transition_type 0x1d5-0x1d5.7 (1)
0x1d0|                  06                           |      .         |      [50]: 6 transition_type 0x1d6-0x1d6.7 (1)
0x1d0|                     07                        |       .        |      [51]: 7 transition_type 0x1d7-0x1d7.7 (1)
0x1d0|                        06                     |        .       |      [52]: 6 transition_type 0x1d8-0x1d8.7 (1)
0x1d0|                           07                  |         .      |      [53]: 7 transition_type 0x1d9-0x1d9.7 (1)
0x1d0|                              06               |          .     |      [54]: 6 transition_type 0x1da-0x1da.7 (1)
0x1d0|                                 07            |           .    |      [55]: 7 transition_type 0x1db-0x1db.7 (1)
0x1d0|                                    06         |            .   |      [56]: 6 transition_type 0x1dc-0x1dc.7 (1)
0x1d0|                                       07      |             .  |      [57]: 7 transition_type 0x1dd-0x1dd.7 (1)
0x1d0|                                          06   |              . |      [58]: 6 transition_type 0x1de-0x1de.7 (1)
0x1d0|                                             07|               .|      [59]: 7 transition_type 0x1df-0x1df.7 (1)
0x1e0|06                                             |.               |      [60]: 6 transition_type 0x1e0-0x1e0.7 (1)
0x1e0|   07                                          | .              |      [61]: 7 transition_type 0x1e1-0x1e1.7 (1)
0x1e0|      06                                       |  .             |      [62]: 6 transition_type 0x1e2-0x1e2.7 (1)
0x1e0|         07                                    |   .            |      [63]: 7 transition_type 0x1e3-0x1e3.7 (1)
0x1e0|            06                                 |    .           |      [64]: 6 transition_type 0x1e4-0x1e4.7 (1)
0x1e0|               07                              |     .          |      [65]: 7 transition_type 0x1e5-0x1e5.7 (1)
0x1e0|                  06                           |      .         |      [66]: 6 transition_type 0x1e6-0x1e6.7 (1)
0x1e0|                     07                        |       .        |      [67]: 7 transition_type 0x1e7-0x1e7.7 (1)
0x1e0|                        06                     |        .       |      [68]: 6 transition_type 0x1e8-0x1e8.7 (1)
0x1e0|                           07                  |         .      |      [69]: 7 transition_type 0x1e9-0x1e9.7 (1)
0x1e0|                              06               |          .     |      [70]: 6 transition_type 0x1ea-0x1ea.7 (1)
0x1e0|                                 07            |           .    |      [71]: 7 transition_type 0x1eb-0x1eb.7 (1)
0x1e0|                                    06         |            .   |      [72]: 6 transition_type 0x1ec-0x1ec.7 (1)
0x1e0|                                       07      |             .  |      [73]: 7 transition_type 0x1ed-0x1ed.7 (1)
0x1e0|                                          06   |              . |      [74]: 6 transition_type 0x1ee-0x1ee.7 (1)
0x1e0|                                             07|               .|      [75]: 7 transition_type 0x1ef-0x1ef.7 (1)
0x1f0|06                                             |.               |      [76]: 6 transition_type 0x1f0-0x1f0.7 (1)
0x1f0|   07                                          | .              |      [77]: 7 transition_type 0x1f1-0x1f1.7 (1)
0x1f0|      06                                       |  .             |      [78]: 6 transition_type 0x1f2-0x1f2.7 (1)
0x1f0|         07                                    |   .            |      [79]: 7 transition_type 0x1f3-0x1f3.7 (1)
0x1f0|            06                                 |    .           |      [80]: 6 transition_type 0x1f4-0x1f4.7 (1)
0x1f0|               07                              |     .          |      [81]: 7 transition_type 0x1f5-0x1f5.7 (1)
0x1f0|                  06                           |      .         |      [82]: 6 transition_type 0x1f6-0x1f6.7 (1)
0x1f0|                     07                        |       .        |      [83]: 7 transition_type 0x1f7-0x1f7.7 (1)
0x1f0|                        06                     |        .       |      [84]: 6 transition_type 0x1f8-0x1f8.7 (1)
0x1f0|                           07                  |         .      |      [85]: 7 transition_type 0x1f9-0x1f9.7 (1)
0x1f0|                              06               |          .     |      [86]: 6 transition_type 0x1fa-0x1fa.7 (1)
0x1f0|                                 07            |           .    |      [87]: 7 transition_type 0x1fb-0x1fb.7 (1)
0x1f0|                                    06         |            .   |      [88]: 6 transition_type 0x1fc-0x1fc.7 (1)
0x1f0|                                       07      |             .  |      [89]: 7 transition_type 0x1fd-0x1fd.7 (1)
0x1f0|                                          06   |              . |      [90]: 6 transition_type 0x1fe-0x1fe.7 (1)
0x1f0|                                             07|               .|      [91]: 7 transition_type 0x1ff-0x1ff.7 (1)
0x200|06                                             |.               |      [92]: 6 transition_type 0x200-0x200.7 (1)
0x200|   06                                          | .              |      [93]: 6 transition_type 0x201-0x201.7 (1)
     |                                               |                |    local_time_type_records[0:12]: 0x202-0x249.7 (72)
     |                                               |                |      [0]{}: local_time_type 0x202-0x207.7 (6)
0x200|      00 00 00 00                              |  ....          |        utoff: 0 (valid) 0x202-0x205.7 (4)
0x200|                  00                           |      .         |        dst: 0 (valid) 0x206-0x206.7 (1)
0x200|                     00                        |       .        |        idx: 0 (valid) 0x207-0x207.7 (1)
     |                                               |                |      [1]{}: local_time_type 0x208-0x20d.7 (6)
0x200|                        ff ff d5 d0            |        ....    |        utoff: -10800 (valid) 0x208-0x20b.7 (4)
0x200|                                    01         |            .   |        dst: 1 (valid) 0x20c-0x20c.7 (1)
0x200|                                       04      |             .  |        idx: 4 (valid) 0x20d-0x20d.7 (1)
     |                                               |                |      [2]{}: local_time_type 0x20e-0x213.7 (6)
0x200|                                          ff ff|              ..|        utoff: -10800 (valid) 0x20e-0x211.7 (4)
0x210|d5 d0                                          |..              |
0x210|      01                                       |  .             |        dst: 1 (valid) 0x212-0x212.7 (1)
0x210|         08                                    |   .            |        idx: 8 (valid) 0x213-0x213.7 (1)
     |                                               |                |      [3]{}: local_time_type 0x214-0x219.7 (6)
0x210|            ff ff c7 c0                        |    ....        |        utoff: -14400 (valid) 0x214-0x217.7 (4)
0x210|                        00                     |        .       |        dst: 0 (valid) 0x218-0x218.7 (1)
0x210|                           0c                  |         .      |        idx: 12 (valid) 0x219-0x219.7 (1)
     |                                               |                |      [4]{}: local_time_type 0x21a-0x21f.7 (6)
0x210|                              ff ff e3 e0      |          ....  |        utoff: -7200 (valid) 0x21a-0x21d.7 (4)
0x210|                                          01   |              . |        dst: 1 (valid) 0x21e-0x21e.7 (1)
0x210|                                             10|               .|        idx: 16 (valid) 0x21f-0x21f.7 (1)
     |                                               |                |      [5]{}: local_time_type 0x220-0x225.7 (6)
0x220|ff ff d5 d0                                    |....            |        utoff: -10800 (valid) 0x220-0x223.7 (4)
0x220|            01                                 |    .           |        dst: 1 (valid) 0x224-0x224.7 (1)
0x220|               15                              |     .          |        idx: 21 (valid) 0x225-0x225.7 (1)
     |                                               |                |      [6]{}: local_time_type 0x226-0x22b.7 (6)
0x220|                  ff ff c7 c0                  |      ....      |        utoff: -14400 (valid) 0x226-0x229.7 (4)
0x220|                              01               |          .     |        dst: 1 (valid) 0x22a-0x22a.7 (1)
0x220|                                 19            |           .    |        idx: 25 (valid) 0x22b-0x22b.7 (1)
     |                                               |                |      [7]{}: local_time_type 0x22c-0x231.7 (6)
0x220|                                    ff ff b9 b0|            ....|        utoff: -18000 (valid) 0x22c-0x22f.7 (4)
0x230|00                                             |.               |        dst: 0 (valid) 0x230-0x230.7 (1)
0x230|   1d                                          | .              |        idx: 29 (valid) 0x231-0x231.7 (1)
     |                                               |                |      [8]{}: local_time_type 0x232-0x237.7 (6)
0x230|      ff ff ab a0                              |  ....          |        utoff: -21600 (valid) 0x232-0x235.7 (4)
0x230|                  00                           |      .         |        dst: 0 (valid) 0x236-0x236.7 (1)
0x230|                     21                        |       !        |        idx: 33 (valid) 0x237-0x237.7 (1)
     |                                               |                |      [9]{}: local_time_type 0x238-0x23d.7 (6)
0x230|                        ff ff b9 b0            |        ....    |        utoff: -18000 (valid) 0x238-0x23b.7 (4)
0x230|                                    01         |            .   |        dst: 1 (valid) 0x23c-0x23c.7 (1)
0x230|                                       25      |             %  |        idx: 37 (valid) 0x23d-0x23d.7 (1)
     |                                               |                |      [10]{}: local_time_type 0x23e-0x243.7 (6)
0x230|                                          ff ff|              ..|        utoff: -14400 (valid) 0x23e-0x241.7 (4)
0x240|c7 c0                                          |..              |
0x240|      01                                       |  .             |        dst: 1 (valid) 0x242-0x242.7 (1)
0x240|         19                                    |   .            |        idx: 25 (valid) 0x243-0x243.7 (1)
     |                                               |                |      [11]{}: local_time_type 0x244-0x249.7 (6)
0x240|            ff ff b9 b0                        |    ....        |        utoff: -18000 (valid) 0x244-0x247.7 (4)
0x240|                        00                     |        .       |        dst: 0 (valid) 0x248-0x248.7 (1)
0x240|                           1d                  |         .      |        idx: 29 (valid) 0x249-0x249.7 (1)
     |                                               |                |    time_zone_designations[0:10]: 0x24a-0x272.7 (41)
0x240|                              2d 30 30 00      |          -00.  |      [0]: "-00" time_zone_designation 0x24a-0x24d.7 (4)
0x240|                                          41 57|              AW|      [1]: "AWT" time_zone_designation 0x24e-0x251.7 (4)
0x250|54 00                                          |T.              |
0x250|      41 50 54 00                              |  APT.          |      [2]: "APT" time_zone_designation 0x252-0x255.7 (4)
0x250|                  41 53 54 00                  |      AST.      |      [3]: "AST" time_zone_designation 0x256-0x259.7 (4)
0x250|                              41 44 44 54 00   |          ADDT. |      [4]: "ADDT" time_zone_designation 0x25a-0x25e.7 (5)
0x250|                                             41|               A|      [5]: "ADT" time_zone_designation 0x25f-0x262.7 (4)
0x260|44 54 00                                       |DT.             |
0x260|         45 44 54 00                           |   EDT.         |      [6]: "EDT" time_zone_designation 0x263-0x266.7 (4)
0x260|                     45 53 54 00               |       EST.     |      [7]: "EST" time_zone_designation 0x267-0x26a.7 (4)
0x260|                                 43 53 54 00   |           CST. |      [8]: "CST" time_zone_designation 0x26b-0x26e.7 (4)
0x260|                                             43|               C|      [9]: "CDT" time_zone_designation 0x26f-0x272.7 (4)
0x270|44 54 00                                       |DT.             |
     |                                               |                |    leap_second_records[0:27]: 0x273-0x34a.7 (216)
     |                                               |                |      [0]{}: leap_second_record 0x273-0x27a.7 (8)
0x270|         04 b2 58 00                           |   ..X.         |        occur: "1972-07-01T00:00:00Z" (78796800) 0x273-0x276.7 (4)
0x270|                     00 00 00 01               |       ....     |        corr: 1 0x277-0x27a.7 (4)
     |                                               |                |      [1]{}: leap_second_record 0x27b-0x282.7 (8)
0x270|                                 05 a4 ec 01   |           .... |        occur: "1973-01-01T00:00:01Z" (94694401) 0x27b-0x27e.7 (4)
0x270|                                             00|               .|        corr: 2 0x27f-0x282.7 (4)
0x280|00 00 02                                       |...             |
     |                                               |                |      [2]{}: leap_second_record 0x283-0x28a.7 (8)
0x280|         07 86 1f 82                           |   ....         |        occur: "1974-01-01T00:00:02Z" (126230402) 0x283-0x286.7 (4)
0x280|                     00 00 00 03               |       ....     |        corr: 3 0x287-0x28a.7 (4)
     |                                               |                |      [3]{}: leap_second_record 0x28b-0x292.7 (8)
0x280|                                 09 67 53 03   |           .gS. |        occur: "1975-01-01T00:00:03Z" (157766403) 0x28b-0x28e.7 (4)
0x280|                                             00|               .|        corr: 4 0x28f-0x292.7 (4)
0x290|00 00 04                                       |...             |
     |                                               |                |      [4]{}: leap_second_record 0x293-0x29a.7 (8)
0x290|         0b 48 86 84                           |   .H..         |        occur: "1976-01-01T00:00:04Z" (189302404) 0x293-0x296.7 (4)
0x290|                     00 00 00 05               |       ....     |        corr: 5 0x297-0x29a.7 (4)
     |                                               |                |      [5]{}: leap_second_record 0x29b-0x2a2.7 (8)
0x290|                                 0d 2b 0b 85   |           .+.. |        occur: "1977-01-01T00:00:05Z" (220924805) 0x29b-0x29e.7 (4)
0x290|                                             00|               .|        corr: 6 0x29f-0x2a2.7 (4)
0x2a0|00 00 06                                       |...             |
     |                                               |                |      [6]{}: leap_second_record 0x2a3-0x2aa.7 (8)
0x2a0|         0f 0c 3f 06                           |   ..?.         |        occur: "1978-01-01T00:00:06Z" (252460806) 0x2a3-0x2a6.7 (4)
0x2a0|                     00 00 00 07               |       ....     |        corr: 7 0x2a7-0x2aa.7 (4)
     |                                               |                |      [7]{}: leap_second_record 0x2ab-0x2b2.7 (8)
0x2a0|                                 10 ed 72 87   |           ..r. |        occur: "1979-01-01T00:00:07Z" (283996807) 0x2ab-0x2ae.7 (4)
0x2a0|                                             00|               .|        corr: 8 0x2af-0x2b2.7 (4)
0x2b0|00 00 08                                       |...             |
     |                                               |                |      [8]{}: leap_second_record 0x2b3-0x2ba.7 (8)
0x2b0|         12 ce a6 08                           |   ....         |        occur: "1980-01-01T00:00:08Z" (315532808) 0x2b3-0x2b6.7 (4)
0x2b0|                     00 00 00 09               |       ....     |        corr: 9 0x2b7-0x2ba.7 (4)
     |                                               |                |      [9]{}: leap_second_record 0x2bb-0x2c2.7 (8)
0x2b0|                                 15 9f ca 89   |           .... |        occur: "1981-07-01T00:00:09Z" (362793609) 0x2bb-0x2be.7 (4)
0x2b0|                                             00|               .|        corr: 10 0x2bf-0x2c2.7 (4)
0x2c0|00 00 0a                                       |...             |
     |                                               |                |      [10]{}: leap_second_record 0x2c3-0x2ca.7 (8)
0x2c0|         17 80 fe 0a                           |   ....         |        occur: "1982-07-01T00:00:10Z" (394329610) 0x2c3-0x2c6.7 (4)
0x2c0|                     00 00 00 0b               |       ....     |        corr: 11 0x2c7-0x2ca.7 (4)
     |                                               |                |      [11]{}: leap_second_record 0x2cb-0x2d2.7 (8)
0x2c0|                                 19 62 31 8b   |           .b1. |        occur: "1983-07-01T00:00:11Z" (425865611) 0x2cb-0x2ce.7 (4)
0x2c0|                                             00|               .|        corr: 12 0x2cf-0x2d2.7 (4)
0x2d0|00 00 0c                                       |...             |
     |                                               |                |      [12]{}: leap_second_record 0x2d3-0x2da.7 (8)
0x2d0|         1d 25 ea 0c                           |   .%..         |        occur: "1985-07-01T00:00:12Z" (489024012) 0x2d3-0x2d6.7 (4)
0x2d0|                     00 00 00 0d               |       ....     |        corr: 13 0x2d7-0x2da.7 (4)
     |                                               |                |      [13]{}: leap_second_record 0x2db-0x2e2.7 (8)
0x2d0|                                 21 da e5 0d   |           !... |        occur: "1988-01-01T00:00:13Z" (567993613) 0x2db-0x2de.7 (4)
0x2d0|                                             00|               .|        corr: 14 0x2df-0x2e2.7 (4)
0x2e0|00 00 0e                                       |...             |
     |                                               |                |      [14]{}: leap_second_record 0x2e3-0x2ea.7 (8)
0x2e0|         25 9e 9d 8e                           |   %...         |        occur: "1990-01-01T00:00:14Z" (631152014) 0x2e3-0x2e6.7 (4)
0x2e0|                     00 00 00 0f               |       ....     |        corr: 15 0x2e7-0x2ea.7 (4)
     |                                               |                |      [15]{}: leap_second_record 0x2eb-0x2f2.7 (8)
0x2e0|                                 27 7f d1 0f   |           '... |        occur: "1991-01-01T00:00:15Z" (662688015) 0x2eb-0x2ee.7 (4)
0x2e0|                                             00|               .|        corr: 16 0x2ef-0x2f2.7 (4)
0x2f0|00 00 10                                       |...             |
     |                                               |                |      [16]{}: leap_second_record 0x2f3-0x2fa.7 (8)
0x2f0|         2a 50 f5 90                           |   *P..         |        occur: "1992-07-01T00:00:16Z" (709948816) 0x2f3-0x2f6.7 (4)
0x2f0|                     00 00 00 11               |       ....     |        corr: 17 0x2f7-0x2fa.7 (4)
     |                                               |                |      [17]{}: leap_second_record 0x2fb-0x302.7 (8)
0x2f0|                                 2c 32 29 11   |           ,2). |        occur: "1993-07-01T00:00:17Z" (741484817) 0x2fb-0x2fe.7 (4)
0x2f0|                                             00|               .|        corr: 18 0x2ff-0x302.7 (4)
0x300|00 00 12                                       |...             |
     |                                               |                |      [18]{}: leap_second_record 0x303-0x30a.7 (8)
0x300|         2e 13 5c 92                           |   ..\.         |        occur: "1994-07-01T00:00:18Z" (773020818) 0x303-0x306.7 (4)
0x300|                     00 00 00 13               |       ....     |        corr: 19 0x307-0x30a.7 (4)
     |                                               |                |      [19]{}: leap_second_record 0x30b-0x312.7 (8)
0x300|                                 30 e7 24 13   |           0.$. |        occur: "1996-01-01T00:00:19Z" (820454419) 0x30b-0x30e.7 (4)
0x300|                                             00|               .|        corr: 20 0x30f-0x312.7 (4)
0x310|00 00 14                                       |...             |
     |                                               |                |      [20]{}: leap_second_record 0x313-0x31a.7 (8)
0x310|         33 b8 48 94                           |   3.H.         |        occur: "1997-07-01T00:00:20Z" (867715220) 0x313-0x316.7 (4)
0x310|                     00 00 00 15               |       ....     |        corr: 21 0x317-0x31a.7 (4)
     |                                               |                |      [21]{}: leap_second_record 0x31b-0x322.7 (8)
0x310|                                 36 8c 10 15   |           6... |        occur: "1999-01-01T00:00:21Z" (915148821) 0x31b-0x31e.7 (4)
0x310|                                             00|               .|        corr: 22 0x31f-0x322.7 (4)
0x320|00 00 16                                       |...             |
     |                                               |                |      [22]{}: leap_second_record 0x323-0x32a.7 (8)
0x320|         43 b7 1b 96                           |   C...         |        occur: "2006-01-01T00:00:22Z" (1136073622) 0x323-0x326.7 (4)
0x320|                     00 00 00 17               |       ....     |        corr: 23 0x327-0x32a.7 (4)
     |                                               |                |      [23]{}: leap_second_record 0x32b-0x332.7 (8)
0x320|                                 49 5c 07 97   |           I\.. |        occur: "2009-01-01T00:00:23Z" (1230768023) 0x32b-0x32e.7 (4)
0x320|                                             00|               .|        corr: 24 0x32f-0x332.7 (4)
0x330|00 00 18                                       |...             |
     |                                               |                |      [24]{}: leap_second_record 0x333-0x33a.7 (8)
0x330|         4f ef 93 18                           |   O...         |        occur: "2012-07-01T00:00:24Z" (1341100824) 0x333-0x336.7 (4)
0x330|                     00 00 00 19               |       ....     |        corr: 25 0x337-0x33a.7 (4)
     |                                               |                |      [25]{}: leap_second_record 0x33b-0x342.7 (8)
0x330|                                 55 93 2d 99   |           U.-. |        occur: "2015-07-01T00:00:25Z" (1435708825) 0x33b-0x33e.7 (4)
0x330|                                             00|               .|        corr: 26 0x33f-0x342.7 (4)
0x340|00 00 1a                                       |...             |
     |                                               |                |      [26]{}: leap_second_record 0x343-0x34a.7 (8)
0x340|         58 68 46 9a                           |   XhF.         |        occur: "2017-01-01T00:00:26Z" (1483228826) 0x343-0x346.7 (4)
0x340|                     00 00 00 1b               |       ....     |        corr: 27 0x347-0x34a.7 (4)
     |                                               |                |    standard_wall_indicators[0:12]: 0x34b-0x356.7 (12)
0x340|                                 00            |           .    |      [0]: 0 standard_wall_indicator (valid) 0x34b-0x34b.7 (1)
0x340|                                    00         |            .   |      [1]: 0 standard_wall_indicator (valid) 0x34c-0x34c.7 (1)
0x340|                                       01      |             .  |      [2]: 1 standard_wall_indicator (valid) 0x34d-0x34d.7 (1)
0x340|                                          00   |              . |      [3]: 0 standard_wall_indicator (valid) 0x34e-0x34e.7 (1)
0x340|                                             00|               .|      [4]: 0 standard_wall_indicator (valid) 0x34f-0x34f.7 (1)
0x350|00                                             |.               |      [5]: 0 standard_wall_indicator (valid) 0x350-0x350.7 (1)
0x350|   00                                          | .              |      [6]: 0 standard_wall_indicator (valid) 0x351-0x351.7 (1)
0x350|      00                                       |  .             |      [7]: 0 standard_wall_indicator (valid) 0x352-0x352.7 (1)
0x350|         00                                    |   .            |      [8]: 0 standard_wall_indicator (valid) 0x353-0x353.7 (1)
0x350|            00                                 |    .           |      [9]: 0 standard_wall_indicator (valid) 0x354-0x354.7 (1)
0x350|               00                              |     .          |      [10]: 0 standard_wall_indicator (valid) 0x355-0x355.7 (1)
0x350|                  00                           |      .         |      [11]: 0 standard_wall_indicator (valid) 0x356-0x356.7 (1)
     |                                               |                |    ut_local_indicators[0:12]: 0x357-0x362.7 (12)
0x350|                     00                        |       .        |      [0]: 0 ut_local_indicator (valid) 0x357-0x357.7 (1)
0x350|                        00                     |        .       |      [1]: 0 ut_local_indicator (valid) 0x358-0x358.7 (1)
0x350|                           01                  |         .      |      [2]: 1 ut_local_indicator (valid) 0x359-0x359.7 (1)
0x350|                              00               |          .     |      [3]: 0 ut_local_indicator (valid) 0x35a-0x35a.7 (1)
0x350|                                 00            |           .    |      [4]: 0 ut_local_indicator (valid) 0x35b-0x35b.7 (1)
0x350|                                    00         |            .   |      [5]: 0 ut_local_indicator (valid) 0x35c-0x35c.7 (1)
0x350|                                       00      |             .  |      [6]: 0 ut_local_indicator (valid) 0x35d-0x35d.7 (1)
0x350|                                          00   |              . |      [7]: 0 ut_local_indicator (valid) 0x35e-0x35e.7 (1)
0x350|                                             00|               .|      [8]: 0 ut_local_indicator (valid) 0x35f-0x35f.7 (1)
0x360|00                                             |.               |      [9]: 0 ut_local_indicator (valid) 0x360-0x360.7 (1)
0x360|   00                                          | .              |      [10]: 0 ut_local_indicator (valid) 0x361-0x361.7 (1)
0x360|      00                                       |  .             |      [11]: 0 ut_local_indicator (valid) 0x362-0x362.7 (1)
     |                                               |                |  v2plusheader{}: 0x363-0x38e.7 (44)
0x360|         54 5a 69 66                           |   TZif         |    magic: 0x545a6966 (valid) 0x363-0x366.7 (4)
0x360|                     32                        |       2        |    ver: "2" (0x32) (valid) 0x367-0x367.7 (1)
0x360|                        00 00 00 00 00 00 00 00|        ........|    reserved: raw bits 0x368-0x376.7 (15)
0x370|00 00 00 00 00 00 00                           |.......         |
0x370|                     00 00 00 0c               |       ....     |    isutcnt: 12 0x377-0x37a.7 (4)
0x370|                                 00 00 00 0c   |           .... |    isstdcnt: 12 0x37b-0x37e.7 (4)
0x370|                                             00|               .|    leapcnt: 27 0x37f-0x382.7 (4)
0x380|00 00 1b                                       |...             |
0x380|         00 00 00 5e                           |   ...^         |    timecnt: 94 0x383-0x386.7 (4)
0x380|                     00 00 00 0c               |       ....     |    typecnt: 12 0x387-0x38a.7 (4)
0x380|                                 00 00 00 29   |           ...) |    charcnt: 41 0x38b-0x38e.7 (4)
     |                                               |                |  v2plusdatablock{}: 0x38f-0x8a9.7 (1307)
     |                                               |                |    transition_times[0:94]: 0x38f-0x67e.7 (752)
0x380|                                             ff|               .|      [0]: "1921-01-01T00:00:00Z" (-1546300800) transition_time 0x38f-0x396.7 (8)
0x390|ff ff ff a3 d5 52 80                           |.....R.         |
0x390|                     ff ff ff ff cb 88 e2 60   |       .......` |      [1]: "1942-02-09T06:00:00Z" (-880221600) transition_time 0x397-0x39e.7 (8)
0x390|                                             ff|               .|      [2]: "1945-08-14T23:00:00Z" (-769395600) transition_time 0x39f-0x3a6.7 (8)
0x3a0|ff ff ff d2 23 f4 70                           |....#.p         |
0x3a0|                     ff ff ff ff d2 60 ed d0   |       .....`.. |      [3]: "1945-09-30T05:00:00Z" (-765399600) transition_time 0x3a7-0x3ae.7 (8)
0x3a0|                                             ff|               .|      [4]: "1965-04-25T04:00:00Z" (-147902400) transition_time 0x3af-0x3b6.7 (8)
0x3b0|ff ff ff f7 2f 30 40                           |..../0@         |
0x3b0|                     ff ff ff ff f8 28 5b c0   |       .....([. |      [5]: "1965-10-31T04:00:00Z" (-131572800) transition_time 0x3b7-0x3be.7 (8)
0x3b0|                                             00|               .|      [6]: "1980-04-27T06:00:09Z" (325663209) transition_time 0x3bf-0x3c6.7 (8)
0x3c0|00 00 00 13 69 39 e9                           |....i9.         |
0x3c0|                     00 00 00 00 14 59 1c d9   |       .....Y.. |      [7]: "1980-10-26T05:00:09Z" (341384409) transition_time 0x3c7-0x3ce.7 (8)
0x3c0|                                             00|               .|      [8]: "1981-04-26T06:00:09Z" (357112809) transition_time 0x3cf-0x3d6.7 (8)
0x3d0|00 00 00 15 49 1b e9                           |....I..         |
0x3d0|                     00 00 00 00 16 38 fe da   |       .....8.. |      [9]: "1981-10-25T05:00:10Z" (372834010) transition_time 0x3d7-0x3de.7 (8)
0x3d0|                                             00|               .|      [10]: "1982-04-25T06:00:10Z" (388562410) transition_time 0x3df-0x3e6.7 (8)
0x3e0|00 00 00 17 28 fd ea                           |....(..         |
0x3e0|                     00 00 00 00 18 22 1b 5b   |       .....".[ |      [11]: "1982-10-31T05:00:11Z" (404888411) transition_time 0x3e7-0x3ee.7 (8)
0x3e0|                                             00|               .|      [12]: "1983-04-24T06:00:11Z" (420012011) transition_time 0x3ef-0x3f6.7 (8)
0x3f0|00 00 00 19 08 df eb                           |.......         |
0x3f0|                     00 00 00 00 1a 01 fd 5c   |       .......\ |      [13]: "1983-10-30T05:00:12Z" (436338012) transition_time 0x3f7-0x3fe.7 (8)
0x3f0|                                             00|               .|      [14]: "1984-04-29T06:00:12Z" (452066412) transition_time 0x3ff-0x406.7 (8)
0x400|00 00 00 1a f1 fc 6c                           |......l         |
0x400|                     00 00 00 00 1b e1 df 5c   |       .......\ |      [15]: "1984-10-28T05:00:12Z" (467787612) transition_time 0x407-0x40e.7 (8)
0x400|                                             00|               .|      [16]: "1985-04-28T06:00:12Z" (483516012) transition_time 0x40f-0x416.7 (8)
0x410|00 00 00 1c d1 de 6c                           |......l         |
0x410|                     00 00 00 00 1d c1 c1 5d   |       .......] |      [17]: "1985-10-27T05:00:13Z" (499237213) transition_time 0x417-0x41e.7 (8)
0x410|                                             00|               .|      [18]: "1986-04-27T06:00:13Z" (514965613) transition_time 0x41f-0x426.7 (8)
0x420|00 00 00 1e b1 c0 6d                           |......m         |
0x420|                     00 00 00 00 1f a1 a3 5d   |       .......] |      [19]: "1986-10-26T05:00:13Z" (530686813) transition_time 0x427-0x42e.7 (8)
0x420|                                             00|               .|      [20]: "1987-04-05T06:00:13Z" (544600813) transition_time 0x42f-0x436.7 (8)
0x430|00 00 00 20 75 f2 ed                           |... u..         |
0x430|                     00 00 00 00 21 81 85 5d   |       ....!..] |      [21]: "1987-10-25T05:00:13Z" (562136413) transition_time 0x437-0x43e.7 (8)
0x430|                                             00|               .|      [22]: "1988-04-03T06:00:14Z" (576050414) transition_time 0x43f-0x446.7 (8)
0x440|00 00 00 22 55 d4 ee                           |..."U..         |
0x440|                     00 00 00 00 23 6a a1 de   |       ....#j.. |      [23]: "1988-10-30T05:00:14Z" (594190814) transition_time 0x447-0x44e.7 (8)
0x440|                                             00|               .|      [24]: "1989-04-02T06:00:14Z" (607500014) transition_time 0x44f-0x456.7 (8)
0x450|00 00 00 24 35 b6 ee                           |...$5..         |
0x450|                     00 00 00 00 25 4a 83 de   |       ....%J.. |      [25]: "1989-10-29T05:00:14Z" (625640414) transition_time 0x457-0x45e.7 (8)
0x450|                                             00|               .|      [26]: "1990-04-01T06:00:15Z" (638949615) transition_time 0x45f-0x466.7 (8)
0x460|00 00 00 26 15 98 ef                           |...&...         |
0x460|                     00 00 00 00 27 2a 65 df   |       ....'*e. |      [27]: "1990-10-28T05:00:15Z" (657090015) transition_time 0x467-0x46e.7 (8)
0x460|                                             00|               .|      [28]: "1991-04-07T06:00:16Z" (671004016) transition_time 0x46f-0x476.7 (8)
0x470|00 00 00 27 fe b5 70                           |...'..p         |
0x470|                     00 00 00 00 29 0a 47 e0   |       ....).G. |      [29]: "1991-10-27T05:00:16Z" (688539616) transition_time 0x477-0x47e.7 (8)
0x470|                                             00|               .|      [30]: "1992-04-05T06:00:16Z" (702453616) transition_time 0x47f-0x486.7 (8)
0x480|00 00 00 29 de 97 70                           |...)..p         |
0x480|                     00 00 00 00 2a ea 29 e1   |       ....*.). |      [31]: "1992-10-25T05:00:17Z" (719989217) transition_time 0x487-0x48e.7 (8)
0x480|                                             00|               .|      [32]: "1993-04-04T06:00:17Z" (733903217) transition_time 0x48f-0x496.7 (8)
0x490|00 00 00 2b be 79 71                           |...+.yq         |
0x490|                     00 00 00 00 2c d3 46 62   |       ....,.Fb |      [33]: "1993-10-31T05:00:18Z" (752043618) transition_time 0x497-0x49e.7 (8)
0x490|                                             00|               .|      [34]: "1994-04-03T06:00:18Z" (765352818) transition_time 0x49f-0x4a6.7 (8)
0x4a0|00 00 00 2d 9e 5b 72                           |...-.[r         |
0x4a0|                     00 00 00 00 2e b3 28 63   |       ......(c |      [35]: "1994-10-30T05:00:19Z" (783493219) transition_time 0x4a7-0x4ae.7 (8)
0x4a0|                                             00|               .|      [36]: "1995-04-02T06:00:19Z" (796802419) transition_time 0x4af-0x4b6.7 (8)
0x4b0|00 00 00 2f 7e 3d 73                           |.../~=s         |
0x4b0|                     00 00 00 00 30 93 18 73   |       ....0..s |      [37]: "1995-10-29T06:00:19Z" (814946419) transition_time 0x4b7-0x4be.7 (8)
0x4b0|                                             00|               .|      [38]: "1996-04-07T07:00:20Z" (828860420) transition_time 0x4bf-0x4c6.7 (8)
0x4c0|00 00 00 31 67 68 04                           |...1gh.         |
0x4c0|                     00 00 00 00 32 72 fa 74   |       ....2r.t |      [39]: "1996-10-27T06:00:20Z" (846396020) transition_time 0x4c7-0x4ce.7 (8)
0x4c0|                                             00|               .|      [40]: "1997-04-06T07:00:20Z" (860310020) transition_time 0x4cf-0x4d6.7 (8)
0x4d0|00 00 00 33 47 4a 04                           |...3GJ.         |
0x4d0|                     00 00 00 00 34 52 dc 75   |       ....4R.u |      [41]: "1997-10-26T06:00:21Z" (877845621) transition_time 0x4d7-0x4de.7 (8)
0x4d0|                                             00|               .|      [42]: "1998-04-05T07:00:21Z" (891759621) transition_time 0x4df-0x4e6.7 (8)
0x4e0|00 00 00 35 27 2c 05                           |...5',.         |
0x4e0|                     00 00 00 00 36 32 be 75   |       ....62.u |      [43]: "1998-10-25T06:00:21Z" (909295221) transition_time 0x4e7-0x4ee.7 (8)
0x4e0|                                             00|               .|      [44]: "1999-04-04T07:00:22Z" (923209222) transition_time 0x4ef-0x4f6.7 (8)
0x4f0|00 00 00 37 07 0e 06                           |...7...         |
0x4f0|                     00 00 00 00 38 1b da f6   |       ....8... |      [45]: "1999-10-31T06:00:22Z" (941349622) transition_time 0x4f7-0x4fe.7 (8)
0x4f0|                                             00|               .|      [46]: "2000-04-02T08:00:22Z" (954662422) transition_time 0x4ff-0x506.7 (8)
0x500|00 00 00 38 e6 fe 16                           |...8...         |
0x500|                     00 00 00 00 39 fb cb 06   |       ....9... |      [47]: "2000-10-29T07:00:22Z" (972802822) transition_time 0x507-0x50e.7 (8)
0x500|                                             00|               .|      [48]: "2001-04-01T07:00:22Z" (986108422) transition_time 0x50f-0x516.7 (8)
0x510|00 00 00 3a c6 d2 06                           |...:...         |
0x510|                     00 00 00 00 3b db 9e f6   |       ....;... |      [49]: "2001-10-28T06:00:22Z" (1004248822) transition_time 0x517-0x51e.7 (8)
0x510|                                             00|               .|      [50]: "2002-04-07T07:00:22Z" (1018162822) transition_time 0x51f-0x526.7 (8)
0x520|00 00 00 3c af ee 86                           |...<...         |
0x520|                     00 00 00 00 3d bb 80 f6   |       ....=... |      [51]: "2002-10-27T06:00:22Z" (1035698422) transition_time 0x527-0x52e.7 (8)
0x520|                                             00|               .|      [52]: "2003-04-06T07:00:22Z" (1049612422) transition_time 0x52f-0x536.7 (8)
0x530|00 00 00 3e 8f d0 86                           |...>...         |
0x530|                     00 00 00 00 3f 9b 62 f6   |       ....?.b. |      [53]: "2003-10-26T06:00:22Z" (1067148022) transition_time 0x537-0x53e.7 (8)
0x530|                                             00|               .|      [54]: "2004-04-04T07:00:22Z" (1081062022) transition_time 0x53f-0x546.7 (8)
0x540|00 00 00 40 6f b2 86                           |...@o..         |
0x540|                     00 00 00 00 41 84 7f 76   |       ....A..v |      [55]: "2004-10-31T06:00:22Z" (1099202422) transition_time 0x547-0x54e.7 (8)
0x540|                                             00|               .|      [56]: "2005-04-03T07:00:22Z" (1112511622) transition_time 0x54f-0x556.7 (8)
0x550|00 00 00 42 4f 94 86                           |...BO..         |
0x550|                     00 00 00 00 43 64 61 76   |       ....Cdav |      [57]: "2005-10-30T06:00:22Z" (1130652022) transition_time 0x557-0x55e.7 (8)
0x550|                                             00|               .|      [58]: "2006-04-02T07:00:23Z" (1143961223) transition_time 0x55f-0x566.7 (8)
0x560|00 00 00 44 2f 76 87                           |...D/v.         |
0x560|                     00 00 00 00 45 44 43 77   |       ....EDCw |      [59]: "2006-10-29T06:00:23Z" (1162101623) transition_time 0x567-0x56e.7 (8)
0x560|                                             00|               .|      [60]: "2007-03-11T07:00:23Z" (1173596423) transition_time 0x56f-0x576.7 (8)
0x570|00 00 00 45 f3 a9 07                           |...E...         |
0x570|                     00 00 00 00 47 2d 5f f7   |       ....G-_. |      [61]: "2007-11-04T06:00:23Z" (1194156023) transition_time 0x577-0x57e.7 (8)
0x570|                                             00|               .|      [62]: "2008-03-09T07:00:23Z" (1205046023) transition_time 0x57f-0x586.7 (8)
0x580|00 00 00 47 d3 8b 07                           |...G...         |
0x580|                     00 00 00 00 49 0d 41 f7   |       ....I.A. |      [63]: "2008-11-02T06:00:23Z" (1225605623) transition_time 0x587-0x58e.7 (8)
0x580|                                             00|               .|      [64]: "2009-03-08T07:00:24Z" (1236495624) transition_time 0x58f-0x596.7 (8)
0x590|00 00 00 49 b3 6d 08                           |...I.m.         |
0x590|                     00 00 00 00 4a ed 23 f8   |       ....J.#. |      [65]: "2009-11-01T06:00:24Z" (1257055224) transition_time 0x597-0x59e.7 (8)
0x590|                                             00|               .|      [66]: "2010-03-14T07:00:24Z" (1268550024) transition_time 0x59f-0x5a6.7 (8)
0x5a0|00 00 00 4b 9c 89 88                           |...K...         |
0x5a0|                     00 00 00 00 4c d6 40 78   |       ....L.@x |      [67]: "2010-11-07T06:00:24Z" (1289109624) transition_time 0x5a7-0x5ae.7 (8)
0x5a0|                                             00|               .|      [68]: "2011-03-13T07:00:24Z" (1299999624) transition_time 0x5af-0x5b6.7 (8)
0x5b0|00 00 00 4d 7c 6b 88                           |...M|k.         |
0x5b0|                     00 00 00 00 4e b6 22 78   |       ....N."x |      [69]: "2011-11-06T06:00:24Z" (1320559224) transition_time 0x5b7-0x5be.7 (8)
0x5b0|                                             00|               .|      [70]: "2012-03-11T07:00:24Z" (1331449224) transition_time 0x5bf-0x5c6.7 (8)
0x5c0|00 00 00 4f 5c 4d 88                           |...O\M.         |
0x5c0|                     00 00 00 00 50 96 04 79   |       ....P..y |      [71]: "2012-11-04T06:00:25Z" (1352008825) transition_time 0x5c7-0x5ce.7 (8)
0x5c0|                                             00|               .|      [72]: "2013-03-10T07:00:25Z" (1362898825) transition_time 0x5cf-0x5d6.7 (8)
0x5d0|00 00 00 51 3c 2f 89                           |...Q</.         |
0x5d0|                     00 00 00 00 52 75 e6 79   |       ....Ru.y |      [73]: "2013-11-03T06:00:25Z" (1383458425) transition_time 0x5d7-0x5de.7 (8)
0x5d0|                                             00|               .|      [74]: "2014-03-09T07:00:25Z" (1394348425) transition_time 0x5df-0x5e6.7 (8)
0x5e0|00 00 00 53 1c 11 89                           |...S...         |
0x5e0|                     00 00 00 00 54 55 c8 79   |       ....TU.y |      [75]: "2014-11-02T06:00:25Z" (1414908025) transition_time 0x5e7-0x5ee.7 (8)
0x5e0|                                             00|               .|      [76]: "2015-03-08T07:00:25Z" (1425798025) transition_time 0x5ef-0x5f6.7 (8)
0x5f0|00 00 00 54 fb f3 89                           |...T...         |
0x5f0|                     00 00 00 00 56 35 aa 7a   |       ....V5.z |      [77]: "2015-11-01T06:00:26Z" (1446357626) transition_time 0x5f7-0x5fe.7 (8)
0x5f0|                                             00|               .|      [78]: "2016-03-13T07:00:26Z" (1457852426) transition_time 0x5ff-0x606.7 (8)
0x600|00 00 00 56 e5 10 0a                           |...V...         |
0x600|                     00 00 00 00 58 1e c6 fa   |       ....X... |      [79]: "2016-11-06T06:00:26Z" (1478412026) transition_time 0x607-0x60e.7 (8)
0x600|                                             00|               .|      [80]: "2017-03-12T07:00:27Z" (1489302027) transition_time 0x60f-0x616.7 (8)
0x610|00 00 00 58 c4 f2 0b                           |...X...         |
0x610|                     00 00 00 00 59 fe a8 fb   |       ....Y... |      [81]: "2017-11-05T06:00:27Z" (1509861627) transition_time 0x617-0x61e.7 (8)
0x610|                                             00|               .|      [82]: "2018-03-11T07:00:27Z" (1520751627) transition_time 0x61f-0x626.7 (8)
0x620|00 00 00 5a a4 d4 0b                           |...Z...         |
0x620|                     00 00 00 00 5b de 8a fb   |       ....[... |      [83]: "2018-11-04T06:00:27Z" (1541311227) transition_time 0x627-0x62e.7 (8)
0x620|                                             00|               .|      [84]: "2019-03-10T07:00:27Z" (1552201227) transition_time 0x62f-0x636.7 (8)
0x630|00 00 00 5c 84 b6 0b                           |...\...         |
0x630|                     00 00 00 00 5d be 6c fb   |       ....].l. |      [85]: "2019-11-03T06:00:27Z" (1572760827) transition_time 0x637-0x63e.7 (8)
0x630|                                             00|               .|      [86]: "2020-03-08T07:00:27Z" (1583650827) transition_time 0x63f-0x646.7 (8)
0x640|00 00 00 5e 64 98 0b                           |...^d..         |
0x640|                     00 00 00 00 5f 9e 4e fb   |       ...._.N. |      [87]: "2020-11-01T06:00:27Z" (1604210427) transition_time 0x647-0x64e.7 (8)
0x640|                                             00|               .|      [88]: "2021-03-14T07:00:27Z" (1615705227) transition_time 0x64f-0x656.7 (8)
0x650|00 00 00 60 4d b4 8b                           |...`M..         |
0x650|                     00 00 00 00 61 87 6b 7b   |       ....a.k{ |      [89]: "2021-11-07T06:00:27Z" (1636264827) transition_time 0x657-0x65e.7 (8)
0x650|                                             00|               .|      [90]: "2022-03-13T07:00:27Z" (1647154827) transition_time 0x65f-0x666.7 (8)
0x660|00 00 00 62 2d 96 8b                           |...b-..         |
0x660|                     00 00 00 00 63 67 4d 7b   |       ....cgM{ |      [91]: "2022-11-06T06:00:27Z" (1667714427) transition_time 0x667-0x66e.7 (8)
0x660|                                             00|               .|      [92]: "2023-03-12T07:00:27Z" (1678604427) transition_time 0x66f-0x676.7 (8)
0x670|00 00 00 64 0d 78 8b                           |...d.x.         |
0x670|                     00 00 00 00 64 9b 78 1b   |       ....d.x. |      [93]: "2023-06-28T00:00:27Z" (1687910427) transition_time 0x677-0x67e.7 (8)
     |                                               |                |    transition_types[0:94]: 0x67f-0x6dc.7 (94)
0x670|                                             03|               .|      [0]: 3 transition_type 0x67f-0x67f.7 (1)
0x680|01                                             |.               |      [1]: 1 transition_type 0x680-0x680.7 (1)
0x680|   02                                          | .              |      [2]: 2 transition_type 0x681-0x681.7 (1)
0x680|      03                                       |  .             |      [3]: 3 transition_type 0x682-0x682.7 (1)
0x680|         04                                    |   .            |      [4]: 4 transition_type 0x683-0x683.7 (1)
0x680|            03                                 |    .           |      [5]: 3 transition_type 0x684-0x684.7 (1)
0x680|               05                              |     .          |      [6]: 5 transition_type 0x685-0x685.7 (1)
0x680|                  03                           |      .         |      [7]: 3 transition_type 0x686-0x686.7 (1)
0x680|                     05                        |       .        |      [8]: 5 transition_type 0x687-0x687.7 (1)
0x680|                        03                     |        .       |      [9]: 3 transition_type 0x688-0x688.7 (1)
0x680|                           05                  |         .      |      [10]: 5 transition_type 0x689-0x689.7 (1)
0x680|                              03               |          .     |      [11]: 3 transition_type 0x68a-0x68a.7 (1)
0x680|                                 05            |           .    |      [12]: 5 transition_type 0x68b-0x68b.7 (1)
0x680|                                    03         |            .   |      [13]: 3 transition_type 0x68c-0x68c.7 (1)
0x680|                                       05      |             .  |      [14]: 5 transition_type 0x68d-0x68d.7 (1)
0x680|                                          03   |              . |      [15]: 3 transition_type 0x68e-0x68e.7 (1)
0x680|                                             05|               .|      [16]: 5 transition_type 0x68f-0x68f.7 (1)
0x690|03                                             |.               |      [17]: 3 transition_type 0x690-0x690.7 (1)
0x690|   05                                          | .              |      [18]: 5 transition_type 0x691-0x691.7 (1)
0x690|      03                                       |  .             |      [19]: 3 transition_type 0x692-0x692.7 (1)
0x690|         05                                    |   .            |      [20]: 5 transition_type 0x693-0x693.7 (1)
0x690|            03                                 |    .           |      [21]: 3 transition_type 0x694-0x694.7 (1)
0x690|               05                              |     .          |      [22]: 5 transition_type 0x695-0x695.7 (1)
0x690|                  03                           |      .         |      [23]: 3 transition_type 0x696-0x696.7 (1)
0x690|                     05                        |       .        |      [24]: 5 transition_type 0x697-0x697.7 (1)
0x690|                        03                     |        .       |      [25]: 3 transition_type 0x698-0x698.7 (1)
0x690|                           05                  |         .      |      [26]: 5 transition_type 0x699-0x699.7 (1)
0x690|                              03               |          .     |      [27]: 3 transition_type 0x69a-0x69a.7 (1)
0x690|                                 05            |           .    |      [28]: 5 transition_type 0x69b-0x69b.7 (1)
0x690|                                    03         |            .   |      [29]: 3 transition_type 0x69c-0x69c.7 (1)
0x690|                                       05      |             .  |      [30]: 5 transition_type 0x69d-0x69d.7 (1)
0x690|                                          03   |              . |      [31]: 3 transition_type 0x69e-0x69e.7 (1)
0x690|                                             05|               .|      [32]: 5 transition_type 0x69f-0x69f.7 (1)
0x6a0|03                                             |.               |      [33]: 3 transition_type 0x6a0-0x6a0.7 (1)
0x6a0|   05                                          | .              |      [34]: 5 transition_type 0x6a1-0x6a1.7 (1)
0x6a0|      03                                       |  .             |      [35]: 3 transition_type 0x6a2-0x6a2.7 (1)
0x6a0|         06                                    |   .            |      [36]: 6 transition_type 0x6a3-0x6a3.7 (1)
0x6a0|            07                                 |    .           |      [37]: 7 transition_type 0x6a4-0x6a4.7 (1)
0x6a0|               06                              |     .          |      [38]: 6 transition_type 0x6a5-0x6a5.7 (1)
0x6a0|                  07                           |      .         |      [39]: 7 transition_type 0x6a6-0x6a6.7 (1)
0x6a0|                     06                        |       .        |      [40]: 6 transition_type 0x6a7-0x6a7.7 (1)
0x6a0|                        07                     |        .       |      [41]: 7 transition_type 0x6a8-0x6a8.7 (1)
0x6a0|                           06                  |         .      |      [42]: 6 transition_type 0x6a9-0x6a9.7 (1)
0x6a0|                              07               |          .     |      [43]: 7 transition_type 0x6aa-0x6aa.7 (1)
0x6a0|                                 06            |           .    |      [44]: 6 transition_type 0x6ab-0x6ab.7 (1)
0x6a0|                                    08         |            .   |      [45]: 8 transition_type 0x6ac-0x6ac.7 (1)
0x6a0|                                       09      |             .  |      [46]: 9 transition_type 0x6ad-0x6ad.7 (1)
0x6a0|                                          07   |              . |      [47]: 7 transition_type 0x6ae-0x6ae.7 (1)
0x6a0|                                             06|               .|      [48]: 6 transition_type 0x6af-0x6af.7 (1)
0x6b0|07                                             |.               |      [49]: 7 transition_type 0x6b0-0x6b0.7 (1)
0x6b0|   06                                          | .              |      [50]: 6 transition_type 0x6b1-0x6b1.7 (1)
0x6b0|      07                                       |  .             |      [51]: 7 transition_type 0x6b2-0x6b2.7 (1)
0x6b0|         06                                    |   .            |      [52]: 6 transition_type 0x6b3-0x6b3.7 (1)
0x6b0|            07                                 |    .           |      [53]: 7 transition_type 0x6b4-0x6b4.7 (1)
0x6b0|               06                              |     .          |      [54]: 6 transition_type 0x6b5-0x6b5.7 (1)
0x6b0|                  07                           |      .         |      [55]: 7 transition_type 0x6b6-0x6b6.7 (1)
0x6b0|                     06                        |       .        |      [56]: 6 transition_type 0x6b7-0x6b7.7 (1)
0x6b0|                        07                     |        .       |      [57]: 7 transition_type 0x6b8-0x6b8.7 (1)
0x6b0|                           06                  |         .      |      [58]: 6 transition_type 0x6b9-0x6b9.7 (1)
0x6b0|                              07               |          .     |      [59]: 7 transition_type 0x6ba-0x6ba.7 (1)
0x6b0|                                 06            |           .    |      [60]: 6 transition_type 0x6bb-0x6bb.7 (1)
0x6b0|                                    07         |            .   |      [61]: 7 transition_type 0x6bc-0x6bc.7 (1)
0x6b0|                                       06      |             .  |      [62]: 6 transition_type 0x6bd-0x6bd.7 (1)
0x6b0|                                          07   |              . |      [63]: 7 transition_type 0x6be-0x6be.7 (1)
0x6b0|                                             06|               .|      [64]: 6 transition_type 0x6bf-0x6bf.7 (1)
0x6c0|07                                             |.               |      [65]: 7 transition_type 0x6c0-0x6c0.7 (1)
0x6c0|   06                                          | .              |      [66]: 6 transition_type 0x6c1-0x6c1.7 (1)
0x6c0|      07                                       |  .             |      [67]: 7 transition_type 0x6c2-0x6c2.7 (1)
0x6c0|         06                                    |   .            |      [68]: 6 transition_type 0x6c3-0x6c3.7 (1)
0x6c0|            07                                 |    .           |      [69]: 7 transition_type 0x6c4-0x6c4.7 (1)
0x6c0|               06                              |     .          |      [70]: 6 transition_type 0x6c5-0x6c5.7 (1)
0x6c0|                  07                           |      .         |      [71]: 7 transition_type 0x6c6-0x6c6.7 (1)
0x6c0|                     06                        |       .        |      [72]: 6 transition_type 0x6c7-0x6c7.7 (1)
0x6c0|                        07                     |        .       |      [73]: 7 transition_type 0x6c8-0x6c8.7 (1)
0x6c0|                           06                  |         .      |      [74]: 6 transition_type 0x6c9-0x6c9.7 (1)
0x6c0|                              07               |          .     |      [75]: 7 transition_type 0x6ca-0x6ca.7 (1)
0x6c0|                                 06            |           .    |      [76]: 6 transition_type 0x6cb-0x6cb.7 (1)
0x6c0|                                    07         |            .   |      [77]: 7 transition_type 0x6cc-0x6cc.7 (1)
0x6c0|                                       06      |             .  |      [78]: 6 transition_type 0x6cd-0x6cd.7 (1)
0x6c0|                                          07   |              . |      [79]: 7 transition_type 0x6ce-0x6ce.7 (1)
0x6c0|                                             06|               .|      [80]: 6 transition_type 0x6cf-0x6cf.7 (1)
0x6d0|07                                             |.               |      [81]: 7 transition_type 0x6d0-0x6d0.7 (1)
0x6d0|   06                                          | .              |      [82]: 6 transition_type 0x6d1-0x6d1.7 (1)
0x6d0|      07                                       |  .             |      [83]: 7 transition_type 0x6d2-0x6d2.7 (1)
0x6d0|         06                                    |   .            |      [84]: 6 transition_type 0x6d3-0x6d3.7 (1)
0x6d0|            07                                 |    .           |      [85]: 7 transition_type 0x6d4-0x6d4.7 (1)
0x6d0|               06                              |     .          |      [86]: 6 transition_type 0x6d5-0x6d5.7 (1)
0x6d0|                  07                           |      .         |      [87]: 7 transition_type 0x6d6-0x6d6.7 (1)
0x6d0|                     06                        |       .        |      [88]: 6 transition_type 0x6d7-0x6d7.7 (1)
0x6d0|                        07                     |        .       |      [89]: 7 transition_type 0x6d8-0x6d8.7 (1)
0x6d0|                           06                  |         .      |      [90]: 6 transition_type 0x6d9-0x6d9.7 (1)
0x6d0|                              07               |          .     |      [91]: 7 transition_type 0x6da-0x6da.7 (1)
0x6d0|                                 06            |           .    |      [92]: 6 transition_type 0x6db-0x6db.7 (1)
0x6d0|                                    06         |            .   |      [93]: 6 transition_type 0x6dc-0x6dc.7 (1)
     |                                               |                |    local_time_type_records[0:12]: 0x6dd-0x724.7 (72)
     |                                               |                |      [0]{}: local_time_type 0x6dd-0x6e2.7 (6)
0x6d0|                                       00 00 00|             ...|        utoff: 0 (valid) 0x6dd-0x6e0.7 (4)
0x6e0|00                                             |.               |
0x6e0|   00                                          | .              |        dst: 0 (valid) 0x6e1-0x6e1.7 (1)
0x6e0|      00                                       |  .             |        idx: 0 (valid) 0x6e2-0x6e2.7 (1)
     |                                               |                |      [1]{}: local_time_type 0x6e3-0x6e8.7 (6)
0x6e0|         ff ff d5 d0                           |   ....         |        utoff: -10800 (valid) 0x6e3-0x6e6.7 (4)
0x6e0|                     01                        |       .        |        dst: 1 (valid) 0x6e7-0x6e7.7 (1)
0x6e0|                        04                     |        .       |        idx: 4 (valid) 0x6e8-0x6e8.7 (1)
     |                                               |                |      [2]{}: local_time_type 0x6e9-0x6ee.7 (6)
0x6e0|                           ff ff d5 d0         |         ....   |        utoff: -10800 (valid) 0x6e9-0x6ec.7 (4)
0x6e0|                                       01      |             .  |        dst: 1 (valid) 0x6ed-0x6ed.7 (1)
0x6e0|                                          08   |              . |        idx: 8 (valid) 0x6ee-0x6ee.7 (1)
     |                                               |                |      [3]{}: local_time_type 0x6ef-0x6f4.7 (6)
0x6e0|                                             ff|               .|        utoff: -14400 (valid) 0x6ef-0x6f2.7 (4)
0x6f0|ff c7 c0                                       |...             |
0x6f0|         00                                    |   .            |        dst: 0 (valid) 0x6f3-0x6f3.7 (1)
0x6f0|            0c                                 |    .           |        idx: 12 (valid) 0x6f4-0x6f4.7 (1)
     |                                               |                |      [4]{}: local_time_type 0x6f5-0x6fa.7 (6)
0x6f0|               ff ff e3 e0                     |     ....       |        utoff: -7200 (valid) 0x6f5-0x6f8.7 (4)
0x6f0|                           01                  |         .      |        dst: 1 (valid) 0x6f9-0x6f9.7 (1)
0x6f0|                              10               |          .     |        idx: 16 (valid) 0x6fa-0x6fa.7 (1)
     |                                               |                |      [5]{}: local_time_type 0x6fb-0x700.7 (6)
0x6f0|                                 ff ff d5 d0   |           .... |        utoff: -10800 (valid) 0x6fb-0x6fe.7 (4)
0x6f0|                                             01|               .|        dst: 1 (valid) 0x6ff-0x6ff.7 (1)
0x700|15                                             |.               |        idx: 21 (valid) 0x700-0x700.7 (1)
     |                                               |                |      [6]{}: local_time_type 0x701-0x706.7 (6)
0x700|   ff ff c7 c0                                 | ....           |        utoff: -14400 (valid) 0x701-0x704.7 (4)
0x700|               01                              |     .          |        dst: 1 (valid) 0x705-0x705.7 (1)
0x700|                  19                           |      .         |        idx: 25 (valid) 0x706-0x706.7 (1)
     |                                               |                |      [7]{}: local_time_type 0x707-0x70c.7 (6)
0x700|                     ff ff b9 b0               |       ....     |        utoff: -18000 (valid) 0x707-0x70a.7 (4)
0x700|                                 00            |           .    |        dst: 0 (valid) 0x70b-0x70b.7 (1)
0x700|                                    1d         |            .   |        idx: 29 (valid) 0x70c-0x70c.7 (1)
     |                                               |                |      [8]{}: local_time_type 0x70d-0x712.7 (6)
0x700|                                       ff ff ab|             ...|        utoff: -21600 (valid) 0x70d-0x710.7 (4)
0x710|a0                                             |.               |
0x710|   00                                          | .              |        dst: 0 (valid) 0x711-0x711.7 (1)
0x710|      21                                       |  !             |        idx: 33 (valid) 0x712-0x712.7 (1)
     |                                               |                |      [9]{}: local_time_type 0x713-0x718.7 (6)
0x710|         ff ff b9 b0                           |   ....         |        utoff: -18000 (valid) 0x713-0x716.7 (4)
0x710|                     01                        |       .        |        dst: 1 (valid) 0x717-0x717.7 (1)
0x710|                        25                     |        %       |        idx: 37 (valid) 0x718-0x718.7 (1)
     |                                               |                |      [10]{}: local_time_type 0x719-0x71e.7 (6)
0x710|                           ff ff c7 c0         |         ....   |        utoff: -14400 (valid) 0x719-0x71c.7 (4)
0x710|                                       01      |             .  |        dst: 1 (valid) 0x71d-0x71d.7 (1)
0x710|                                          19   |              . |        idx: 25 (valid) 0x71e-0x71e.7 (1)
     |                                               |                |      [11]{}: local_time_type 0x71f-0x724.7 (6)
0x710|                                             ff|               .|        utoff: -18000 (valid) 0x71f-0x722.7 (4)
0x720|ff b9 b0                                       |...             |
0x720|         00                                    |   .            |        dst: 0 (valid) 0x723-0x723.7 (1)
0x720|            1d                                 |    .           |        idx: 29 (valid) 0x724-0x724.7 (1)
     |                                               |                |    time_zone_designations[0:10]: 0x725-0x74d.7 (41)
0x720|               2d 30 30 00                     |     -00.       |      [0]: "-00" time_zone_designation 0x725-0x728.7 (4)
0x720|                           41 57 54 00         |         AWT.   |      [1]: "AWT" time_zone_designation 0x729-0x72c.7 (4)
0x720|                                       41 50 54|             APT|      [2]: "APT" time_zone_designation 0x72d-0x730.7 (4)
0x730|00                                             |.               |
0x730|   41 53 54 00                                 | AST.           |      [3]: "AST" time_zone_designation 0x731-0x734.7 (4)
0x730|               41 44 44 54 00                  |     ADDT.      |      [4]: "ADDT" time_zone_designation 0x735-0x739.7 (5)
0x730|                              41 44 54 00      |          ADT.  |      [5]: "ADT" time_zone_designation 0x73a-0x73d.7 (4)
0x730|                                          45 44|              ED|      [6]: "EDT" time_zone_designation 0x73e-0x741.7 (4)
0x740|54 00                                          |T.              |
0x740|      45 53 54 00                              |  EST.          |      [7]: "EST" time_zone_designation 0x742-0x745.7 (4)
0x740|                  43 53 54 00                  |      CST.      |      [8]: "CST" time_zone_designation 0x746-0x749.7 (4)
0x740|                              43 44 54 00      |          CDT.  |      [9]: "CDT" time_zone_designation 0x74a-0x74d.7 (4)
     |                                               |                |    leap_second_records[0:27]: 0x74e-0x891.7 (324)
     |                                               |                |      [0]{}: leap_second_record 0x74e-0x759.7 (12)
0x740|                                          00 00|              ..|        occur: "1972-07-01T00:00:00Z" (78796800) 0x74e-0x755.7 (8)
0x750|00 00 04 b2 58 00                              |....X.          |
0x750|                  00 00 00 01                  |      ....      |        corr: 1 0x756-0x759.7 (4)
     |                                               |                |      [1]{}: leap_second_record 0x75a-0x765.7 (12)
0x750|                              00 00 00 00 05 a4|          ......|        occur: "1973-01-01T00:00:01Z" (94694401) 0x75a-0x761.7 (8)
0x760|ec 01                                          |..              |
0x760|      00 00 00 02                              |  ....          |        corr: 2 0x762-0x765.7 (4)
     |                                               |                |      [2]{}: leap_second_record 0x766-0x771.7 (12)
0x760|                  00 00 00 00 07 86 1f 82      |      ........  |        occur: "1974-01-01T00:00:02Z" (126230402) 0x766-0x76d.7 (8)
0x760|                                          00 00|              ..|        corr: 3 0x76e-0x771.7 (4)
0x770|00 03                                          |..              |
     |                                               |                |      [3]{}: leap_second_record 0x772-0x77d.7 (12)
0x770|      00 00 00 00 09 67 53 03                  |  .....gS.      |        occur: "1975-01-01T00:00:03Z" (157766403) 0x772-0x779.7 (8)
0x770|                              00 00 00 04      |          ....  |        corr: 4 0x77a-0x77d.7 (4)
     |                                               |                |      [4]{}: leap_second_record 0x77e-0x789.7 (12)
0x770|                                          00 00|              ..|        occur: "1976-01-01T00:00:04Z" (189302404) 0x77e-0x785.7 (8)
0x780|00 00 0b 48 86 84                              |...H..          |
0x780|                  00 00 00 05                  |      ....      |        corr: 5 0x786-0x789.7 (4)
     |                                               |                |      [5]{}: leap_second_record 0x78a-0x795.7 (12)
0x780|                              00 00 00 00 0d 2b|          .....+|        occur: "1977-01-01T00:00:05Z" (220924805) 0x78a-0x791.7 (8)
0x790|0b 85                                          |..              |
0x790|      00 00 00 06                              |  ....          |        corr: 6 0x792-0x795.7 (4)
     |                                               |                |      [6]{}: leap_second_record 0x796-0x7a1.7 (12)
0x790|                  00 00 00 00 0f 0c 3f 06      |      ......?.  |        occur: "1978-01-01T00:00:06Z" (252460806) 0x796-0x79d.7 (8)
0x790|                                          00 00|              ..|        corr: 7 0x79e-0x7a1.7 (4)
0x7a0|00 07                                          |..              |
     |                                               |                |      [7]{}: leap_second_record 0x7a2-0x7ad.7 (12)
0x7a0|      00 00 00 00 10 ed 72 87                  |  ......r.      |        occur: "1979-01-01T00:00:07Z" (283996807) 0x7a2-0x7a9.7 (8)
0x7a0|                              00 00 00 08      |          ....  |        corr: 8 0x7aa-0x7ad.7 (4)
     |                                               |                |      [8]{}: leap_second_record 0x7ae-0x7b9.7 (12)
0x7a0|                                          00 00|              ..|        occur: "1980-01-01T00:00:08Z" (315532808) 0x7ae-0x7b5.7 (8)
0x7b0|00 00 12 ce a6 08                              |......          |
0x7b0|                  00 00 00 09                  |      ....      |        corr: 9 0x7b6-0x7b9.7 (4)
     |                                               |                |      [9]{}: leap_second_record 0x7ba-0x7c5.7 (12)
0x7b0|                              00 00 00 00 15 9f|          ......|        occur: "1981-07-01T00:00:09Z" (362793609) 0x7ba-0x7c1.7 (8)
0x7c0|ca 89                                          |..              |
0x7c0|      00 00 00 0a                              |  ....          |        corr: 10 0x7c2-0x7c5.7 (4)
     |                                               |                |      [10]{}: leap_second_record 0x7c6-0x7d1.7 (12)
0x7c0|                  00 00 00 00 17 80 fe 0a      |      ........  |        occur: "1982-07-01T00:00:10Z" (394329610) 0x7c6-0x7cd.7 (8)
0x7c0|                                          00 00|              ..|        corr: 11 0x7ce-0x7d1.7 (4)
0x7d0|00 0b                                          |..              |
     |                                               |                |      [11]{}: leap_second_record 0x7d2-0x7dd.7 (12)
0x7d0|      00 00 00 00 19 62 31 8b                  |  .....b1.      |        occur: "1983-07-01T00:00:11Z" (425865611) 0x7d2-0x7d9.7 (8)
0x7d0|                              00 00 00 0c      |          ....  |        corr: 12 0x7da-0x7dd.7 (4)
     |                                               |                |      [12]{}: leap_second_record 0x7de-0x7e9.7 (12)
0x7d0|                                          00 00|              ..|        occur: "1985-07-01T00:00:12Z" (489024012) 0x7de-0x7e5.7 (8)
0x7e0|00 00 1d 25 ea 0c                              |...%..          |
0x7e0|                  00 00 00 0d                  |      ....      |        corr: 13 0x7e6-0x7e9.7 (4)
     |                                               |                |      [13]{}: leap_second_record 0x7ea-0x7f5.7 (12)
0x7e0|                              00 00 00 00 21 da|          ....!.|        occur: "1988-01-01T00:00:13Z" (567993613) 0x7ea-0x7f1.7 (8)
0x7f0|e5 0d                                          |..              |
0x7f0|      00 00 00 0e                              |  ....          |        corr: 14 0x7f2-0x7f5.7 (4)
     |                                               |                |      [14]{}: leap_second_record 0x7f6-0x801.7 (12)
0x7f0|                  00 00 00 00 25 9e 9d 8e      |      ....%...  |        occur: "1990-01-01T00:00:14Z" (631152014) 0x7f6-0x7fd.7 (8)
0x7f0|                                          00 00|              ..|        corr: 15 0x7fe-0x801.7 (4)
0x800|00 0f                                          |..              |
     |                                               |                |      [15]{}: leap_second_record 0x802-0x80d.7 (12)
0x800|      00 00 00 00 27 7f d1 0f                  |  ....'...      |        occur: "1991-01-01T00:00:15Z" (662688015) 0x802-0x809.7 (8)
0x800|                              00 00 00 10      |          ....  |        corr: 16 0x80a-0x80d.7 (4)
     |                                               |                |      [16]{}: leap_second_record 0x80e-0x819.7 (12)
0x800|                                          00 00|              ..|        occur: "1992-07-01T00:00:16Z" (709948816) 0x80e-0x815.7 (8)
0x810|00 00 2a 50 f5 90                              |..*P..          |
0x810|                  00 00 00 11                  |      ....      |        corr: 17 0x816-0x819.7 (4)
     |                                               |                |      [17]{}: leap_second_record 0x81a-0x825.7 (12)
0x810|                              00 00 00 00 2c 32|          ....,2|        occur: "1993-07-01T00:00:17Z" (741484817) 0x81a-0x821.7 (8)
0x820|29 11                                          |).              |
0x820|      00 00 00 12                              |  ....          |        corr: 18 0x822-0x825.7 (4)
     |                                               |                |      [18]{}: leap_second_record 0x826-0x831.7 (12)
0x820|                  00 00 00 00 2e 13 5c 92      |      ......\.  |        occur: "1994-07-01T00:00:18Z" (773020818) 0x826-0x82d.7 (8)
0x820|                                          00 00|              ..|        corr: 19 0x82e-0x831.7 (4)
0x830|00 13                                          |..              |
     |                                               |                |      [19]{}: leap_second_record 0x832-0x83d.7 (12)
0x830|      00 00 00 00 30 e7 24 13                  |  ....0.$.      |        occur: "1996-01-01T00:00:19Z" (820454419) 0x832-0x839.7 (8)
0x830|                              00 00 00 14      |          ....  |        corr: 20 0x83a-0x83d.7 (4)
     |                                               |                |      [20]{}: leap_second_record 0x83e-0x849.7 (12)
0x830|                                          00 00|              ..|        occur: "1997-07-01T00:00:20Z" (867715220) 0x83e-0x845.7 (8)
0x840|00 00 33 b8 48 94                              |..3.H.          |
0x840|                  00 00 00 15                  |      ....      |        corr: 21 0x846-0x849.7 (4)
     |                                               |                |      [21]{}: leap_second_record 0x84a-0x855.7 (12)
0x840|                              00 00 00 00 36 8c|          ....6.|        occur: "1999-01-01T00:00:21Z" (915148821) 0x84a-0x851.7 (8)
0x850|10 15                                          |..              |
0x850|      00 00 00 16                              |  ....          |        corr: 22 0x852-0x855.7 (4)
     |                                               |                |      [22]{}: leap_second_record 0x856-0x861.7 (12)
0x850|                  00 00 00 00 43 b7 1b 96      |      ....C...  |        occur: "2006-01-01T00:00:22Z" (1136073622) 0x856-0x85d.7 (8)
0x850|                                          00 00|              ..|        corr: 23 0x85e-0x861.7 (4)
0x860|00 17                                          |..              |
     |                                               |                |      [23]{}: leap_second_record 0x862-0x86d.7 (12)
0x860|      00 00 00 00 49 5c 07 97                  |  ....I\..      |        occur: "2009-01-01T00:00:23Z" (1230768023) 0x862-0x869.7 (8)
0x860|                              00 00 00 18      |          ....  |        corr: 24 0x86a-0x86d.7 (4)
     |                                               |                |      [24]{}: leap_second_record 0x86e-0x879.7 (12)
0x860|                                          00 00|              ..|        occur: "2012-07-01T00:00:24Z" (1341100824) 0x86e-0x875.7 (8)
0x870|00 00 4f ef 93 18                              |..O...          |
0x870|                  00 00 00 19                  |      ....      |        corr: 25 0x876-0x879.7 (4)
     |                                               |                |      [25]{}: leap_second_record 0x87a-0x885.7 (12)
0x870|                              00 00 00 00 55 93|          ....U.|        occur: "2015-07-01T00:00:25Z" (1435708825) 0x87a-0x881.7 (8)
0x880|2d 99                                          |-.              |
0x880|      00 00 00 1a                              |  ....          |        corr: 26 0x882-0x885.7 (4)
     |                                               |                |      [26]{}: leap_second_record 0x886-0x891.7 (12)
0x880|                  00 00 00 00 58 68 46 9a      |      ....XhF.  |        occur: "2017-01-01T00:00:26Z" (1483228826) 0x886-0x88d.7 (8)
0x880|                                          00 00|              ..|        corr: 27 0x88e-0x891.7 (4)
0x890|00 1b                                          |..              |
     |                                               |                |    standard_wall_indicators[0:12]: 0x892-0x89d.7 (12)
0x890|      00                                       |  .             |      [0]: 0 standard_wall_indicator (valid) 0x892-0x892.7 (1)
0x890|         00                                    |   .            |      [1]: 0 standard_wall_indicator (valid) 0x893-0x893.7 (1)
0x890|            01                                 |    .           |      [2]: 1 standard_wall_indicator (valid) 0x894-0x894.7 (1)
0x890|               00                              |     .          |      [3]: 0 standard_wall_indicator (valid) 0x895-0x895.7 (1)
0x890|                  00                           |      .         |      [4]: 0 standard_wall_indicator (valid) 0x896-0x896.7 (1)
0x890|                     00                        |       .        |      [5]: 0 standard_wall_indicator (valid) 0x897-0x897.7 (1)
0x890|                        00                     |        .       |      [6]: 0 standard_wall_indicator (valid) 0x898-0x898.7 (1)
0x890|                           00                  |         .      |      [7]: 0 standard_wall_indicator (valid) 0x899-0x899.7 (1)
0x890|                              00               |          .     |      [8]: 0 standard_wall_indicator (valid) 0x89a-0x89a.7 (1)
0x890|                                 00            |           .    |      [9]: 0 standard_wall_indicator (valid) 0x89b-0x89b.7 (1)
0x890|                                    00         |            .   |      [10]: 0 standard_wall_indicator (valid) 0x89c-0x89c.7 (1)
0x890|                                       00      |             .  |      [11]: 0 standard_wall_indicator (valid) 0x89d-0x89d.7 (1)
     |                                               |                |    ut_local_indicators[0:12]: 0x89e-0x8a9.7 (12)
0x890|                                          00   |              . |      [0]: 0 ut_local_indicator (valid) 0x89e-0x89e.7 (1)
0x890|                                             00|               .|      [1]: 0 ut_local_indicator (valid) 0x89f-0x89f.7 (1)
0x8a0|01                                             |.               |      [2]: 1 ut_local_indicator (valid) 0x8a0-0x8a0.7 (1)
0x8a0|   00                                          | .              |      [3]: 0 ut_local_indicator (valid) 0x8a1-0x8a1.7 (1)
0x8a0|      00                                       |  .             |      [4]: 0 ut_local_indicator (valid) 0x8a2-0x8a2.7 (1)
0x8a0|         00                                    |   .            |      [5]: 0 ut_local_indicator (valid) 0x8a3-0x8a3.7 (1)
0x8a0|            00                                 |    .           |      [6]: 0 ut_local_indicator (valid) 0x8a4-0x8a4.7 (1)
0x8a0|               00                              |     .          |      [7]: 0 ut_local_indicator (valid) 0x8a5-0x8a5.7 (1)
0x8a0|                  00                           |      .         |      [8]: 0 ut_local_indicator (valid) 0x8a6-0x8a6.7 (1)
0x8a0|                     00                        |       .        |      [9]: 0 ut_local_indicator (valid) 0x8a7-0x8a7.7 (1)
0x8a0|                        00                     |        .       |      [10]: 0 ut_local_indicator (valid) 0x8a8-0x8a8.7 (1)
0x8a0|                           00                  |         .      |      [11]: 0 ut_local_indicator (valid) 0x8a9-0x8a9.7 (1)
     |                                               |                |  footer{}: 0x8aa-0x8ab.7 (2)
0x8a0|                              0a               |          .     |    nl1: 10 (valid) 0x8aa-0x8aa.7 (1)
     |                                               |                |    tz_string: "" 0x8ab-NA (0)
0x8a0|                                 0a|           |           .|   |    nl2: 10 (valid) 0x8ab-0x8ab.7 (1)
