$ fq -d tzif dv Pangnirtung
     |00 01 02 03 04 05 06 07 08 09 0a 0b 0c 0d 0e 0f|0123456789abcdef|.{}: Pangnirtung (tzif) 0x0-0x8ac (2220)
     |                                               |                |  v1header{}: 0x0-0x2c (44)
0x000|54 5a 69 66                                    |TZif            |    magic: 0x545a6966 (valid) 0x0-0x4 (4)
0x000|            32                                 |    2           |    ver: "2" (0x32) (valid) 0x4-0x5 (1)
0x000|               00 00 00 00 00 00 00 00 00 00 00|     ...........|    reserved: raw bits 0x5-0x14 (15)
0x010|00 00 00 00                                    |....            |
0x010|            00 00 00 0c                        |    ....        |    isutcnt: 12 0x14-0x18 (4)
0x010|                        00 00 00 0c            |        ....    |    isstdcnt: 12 0x18-0x1c (4)
0x010|                                    00 00 00 1b|            ....|    leapcnt: 27 0x1c-0x20 (4)
0x020|00 00 00 5e                                    |...^            |    timecnt: 94 0x20-0x24 (4)
0x020|            00 00 00 0c                        |    ....        |    typecnt: 12 0x24-0x28 (4)
0x020|                        00 00 00 29            |        ...)    |    charcnt: 41 0x28-0x2c (4)
     |                                               |                |  v1datablock{}: 0x2c-0x363 (823)
     |                                               |                |    transition_times[0:94]: 0x2c-0x1a4 (376)
0x020|                                    a3 d5 52 80|            ..R.|      [0]: "1921-01-01T00:00:00Z" (-1546300800) transition_time 0x2c-0x30 (4)
0x030|cb 88 e2 60                                    |...`            |      [1]: "1942-02-09T06:00:00Z" (-880221600) transition_time 0x30-0x34 (4)
0x030|            d2 23 f4 70                        |    .#.p        |      [2]: "1945-08-14T23:00:00Z" (-769395600) transition_time 0x34-0x38 (4)
0x030|                        d2 60 ed d0            |        .`..    |      [3]: "1945-09-30T05:00:00Z" (-765399600) transition_time 0x38-0x3c (4)
0x030|                                    f7 2f 30 40|            ./0@|      [4]: "1965-04-25T04:00:00Z" (-147902400) transition_time 0x3c-0x40 (4)
0x040|f8 28 5b c0                                    |.([.            |      [5]: "1965-10-31T04:00:00Z" (-131572800) transition_time 0x40-0x44 (4)
0x040|            13 69 39 e9                        |    .i9.        |      [6]: "1980-04-27T06:00:09Z" (325663209) transition_time 0x44-0x48 (4)
0x040|                        14 59 1c d9            |        .Y..    |      [7]: "1980-10-26T05:00:09Z" (341384409) transition_time 0x48-0x4c (4)
0x040|                                    15 49 1b e9|            .I..|      [8]: "1981-04-26T06:00:09Z" (357112809) transition_time 0x4c-0x50 (4)
0x050|16 38 fe da                                    |.8..            |      [9]: "1981-10-25T05:00:10Z" (372834010) transition_time 0x50-0x54 (4)
0x050|            17 28 fd ea                        |    .(..        |      [10]: "1982-04-25T06:00:10Z" (388562410) transition_time 0x54-0x58 (4)
0x050|                        18 22 1b 5b            |        .".[    |      [11]: "1982-10-31T05:00:11Z" (404888411) transition_time 0x58-0x5c (4)
0x050|                                    19 08 df eb|            ....|      [12]: "1983-04-24T06:00:11Z" (420012011) transition_time 0x5c-0x60 (4)
0x060|1a 01 fd 5c                                    |...\            |      [13]: "1983-10-30T05:00:12Z" (436338012) transition_time 0x60-0x64 (4)
0x060|            1a f1 fc 6c                        |    ...l        |      [14]: "1984-04-29T06:00:12Z" (452066412) transition_time 0x64-0x68 (4)
0x060|                        1b e1 df 5c            |        ...\    |      [15]: "1984-10-28T05:00:12Z" (467787612) transition_time 0x68-0x6c (4)
0x060|                                    1c d1 de 6c|            ...l|      [16]: "1985-04-28T06:00:12Z" (483516012) transition_time 0x6c-0x70 (4)
0x070|1d c1 c1 5d                                    |...]            |      [17]: "1985-10-27T05:00:13Z" (499237213) transition_time 0x70-0x74 (4)
0x070|            1e b1 c0 6d                        |    ...m        |      [18]: "1986-04-27T06:00:13Z" (514965613) transition_time 0x74-0x78 (4)
0x070|                        1f a1 a3 5d            |        ...]    |      [19]: "1986-10-26T05:00:13Z" (530686813) transition_time 0x78-0x7c (4)
0x070|                                    20 75 f2 ed|             u..|      [20]: "1987-04-05T06:00:13Z" (544600813) transition_time 0x7c-0x80 (4)
0x080|21 81 85 5d                                    |!..]            |      [21]: "1987-10-25T05:00:13Z" (562136413) transition_time 0x80-0x84 (4)
0x080|            22 55 d4 ee                        |    "U..        |      [22]: "1988-04-03T06:00:14Z" (576050414) transition_time 0x84-0x88 (4)
0x080|                        23 6a a1 de            |        #j..    |      [23]: "1988-10-30T05:00:14Z" (594190814) transition_time 0x88-0x8c (4)
0x080|                                    24 35 b6 ee|            $5..|      [24]: "1989-04-02T06:00:14Z" (607500014) transition_time 0x8c-0x90 (4)
0x090|25 4a 83 de                                    |%J..            |      [25]: "1989-10-29T05:00:14Z" (625640414) transition_time 0x90-0x94 (4)
0x090|            26 15 98 ef                        |    &...        |      [26]: "1990-04-01T06:00:15Z" (638949615) transition_time 0x94-0x98 (4)
0x090|                        27 2a 65 df            |        '*e.    |      [27]: "1990-10-28T05:00:15Z" (657090015) transition_time 0x98-0x9c (4)
0x090|                                    27 fe b5 70|            '..p|      [28]: "1991-04-07T06:00:16Z" (671004016) transition_time 0x9c-0xa0 (4)
0x0a0|29 0a 47 e0                                    |).G.            |      [29]: "1991-10-27T05:00:16Z" (688539616) transition_time 0xa0-0xa4 (4)
0x0a0|            29 de 97 70                        |    )..p        |      [30]: "1992-04-05T06:00:16Z" (702453616) transition_time 0xa4-0xa8 (4)
0x0a0|                        2a ea 29 e1            |        *.).    |      [31]: "1992-10-25T05:00:17Z" (719989217) transition_time 0xa8-0xac (4)
0x0a0|                                    2b be 79 71|            +.yq|      [32]: "1993-04-04T06:00:17Z" (733903217) transition_time 0xac-0xb0 (4)
0x0b0|2c d3 46 62                                    |,.Fb            |      [33]: "1993-10-31T05:00:18Z" (752043618) transition_time 0xb0-0xb4 (4)
0x0b0|            2d 9e 5b 72                        |    -.[r        |      [34]: "1994-04-03T06:00:18Z" (765352818) transition_time 0xb4-0xb8 (4)
0x0b0|                        2e b3 28 63            |        ..(c    |      [35]: "1994-10-30T05:00:19Z" (783493219) transition_time 0xb8-0xbc (4)
0x0b0|                                    2f 7e 3d 73|            /~=s|      [36]: "1995-04-02T06:00:19Z" (796802419) transition_time 0xbc-0xc0 (4)
0x0c0|30 93 18 73                                    |0..s            |      [37]: "1995-10-29T06:00:19Z" (814946419) transition_time 0xc0-0xc4 (4)
0x0c0|            31 67 68 04                        |    1gh.        |      [38]: "1996-04-07T07:00:20Z" (828860420) transition_time 0xc4-0xc8 (4)
0x0c0|                        32 72 fa 74            |        2r.t    |      [39]: "1996-10-27T06:00:20Z" (846396020) transition_time 0xc8-0xcc (4)
0x0c0|                                    33 47 4a 04|            3GJ.|      [40]: "1997-04-06T07:00:20Z" (860310020) transition_time 0xcc-0xd0 (4)
0x0d0|34 52 dc 75                                    |4R.u            |      [41]: "1997-10-26T06:00:21Z" (877845621) transition_time 0xd0-0xd4 (4)
0x0d0|            35 27 2c 05                        |    5',.        |      [42]: "1998-04-05T07:00:21Z" (891759621) transition_time 0xd4-0xd8 (4)
0x0d0|                        36 32 be 75            |        62.u    |      [43]: "1998-10-25T06:00:21Z" (909295221) transition_time 0xd8-0xdc (4)
0x0d0|                                    37 07 0e 06|            7...|      [44]: "1999-04-04T07:00:22Z" (923209222) transition_time 0xdc-0xe0 (4)
0x0e0|38 1b da f6                                    |8...            |      [45]: "1999-10-31T06:00:22Z" (941349622) transition_time 0xe0-0xe4 (4)
0x0e0|            38 e6 fe 16                        |    8...        |      [46]: "2000-04-02T08:00:22Z" (954662422) transition_time 0xe4-0xe8 (4)
0x0e0|                        39 fb cb 06            |        9...    |      [47]: "2000-10-29T07:00:22Z" (972802822) transition_time 0xe8-0xec (4)
0x0e0|                                    3a c6 d2 06|            :...|      [48]: "2001-04-01T07:00:22Z" (986108422) transition_time 0xec-0xf0 (4)
0x0f0|3b db 9e f6                                    |;...            |      [49]: "2001-10-28T06:00:22Z" (1004248822) transition_time 0xf0-0xf4 (4)
0x0f0|            3c af ee 86                        |    <...        |      [50]: "2002-04-07T07:00:22Z" (1018162822) transition_time 0xf4-0xf8 (4)
0x0f0|                        3d bb 80 f6            |        =...    |      [51]: "2002-10-27T06:00:22Z" (1035698422) transition_time 0xf8-0xfc (4)
0x0f0|                                    3e 8f d0 86|            >...|      [52]: "2003-04-06T07:00:22Z" (1049612422) transition_time 0xfc-0x100 (4)
0x100|3f 9b 62 f6                                    |?.b.            |      [53]: "2003-10-26T06:00:22Z" (1067148022) transition_time 0x100-0x104 (4)
0x100|            40 6f b2 86                        |    @o..        |      [54]: "2004-04-04T07:00:22Z" (1081062022) transition_time 0x104-0x108 (4)
0x100|                        41 84 7f 76            |        A..v    |      [55]: "2004-10-31T06:00:22Z" (1099202422) transition_time 0x108-0x10c (4)
0x100|                                    42 4f 94 86|            BO..|      [56]: "2005-04-03T07:00:22Z" (1112511622) transition_time 0x10c-0x110 (4)
0x110|43 64 61 76                                    |Cdav            |      [57]: "2005-10-30T06:00:22Z" (1130652022) transition_time 0x110-0x114 (4)
0x110|            44 2f 76 87                        |    D/v.        |      [58]: "2006-04-02T07:00:23Z" (1143961223) transition_time 0x114-0x118 (4)
0x110|                        45 44 43 77            |        EDCw    |      [59]: "2006-10-29T06:00:23Z" (1162101623) transition_time 0x118-0x11c (4)
0x110|                                    45 f3 a9 07|            E...|      [60]: "2007-03-11T07:00:23Z" (1173596423) transition_time 0x11c-0x120 (4)
0x120|47 2d 5f f7                                    |G-_.            |      [61]: "2007-11-04T06:00:23Z" (1194156023) transition_time 0x120-0x124 (4)
0x120|            47 d3 8b 07                        |    G...        |      [62]: "2008-03-09T07:00:23Z" (1205046023) transition_time 0x124-0x128 (4)
0x120|                        49 0d 41 f7            |        I.A.    |      [63]: "2008-11-02T06:00:23Z" (1225605623) transition_time 0x128-0x12c (4)
0x120|                                    49 b3 6d 08|            I.m.|      [64]: "2009-03-08T07:00:24Z" (1236495624) transition_time 0x12c-0x130 (4)
0x130|4a ed 23 f8                                    |J.#.            |      [65]: "2009-11-01T06:00:24Z" (1257055224) transition_time 0x130-0x134 (4)
0x130|            4b 9c 89 88                        |    K...        |      [66]: "2010-03-14T07:00:24Z" (1268550024) transition_time 0x134-0x138 (4)
0x130|                        4c d6 40 78            |        L.@x    |      [67]: "2010-11-07T06:00:24Z" (1289109624) transition_time 0x138-0x13c (4)
0x130|                                    4d 7c 6b 88|            M|k.|      [68]: "2011-03-13T07:00:24Z" (1299999624) transition_time 0x13c-0x140 (4)
0x140|4e b6 22 78                                    |N."x            |      [69]: "2011-11-06T06:00:24Z" (1320559224) transition_time 0x140-0x144 (4)
0x140|            4f 5c 4d 88                        |    O\M.        |      [70]: "2012-03-11T07:00:24Z" (1331449224) transition_time 0x144-0x148 (4)
0x140|                        50 96 04 79            |        P..y    |      [71]: "2012-11-04T06:00:25Z" (1352008825) transition_time 0x148-0x14c (4)
0x140|                                    51 3c 2f 89|            Q</.|      [72]: "2013-03-10T07:00:25Z" (1362898825) transition_time 0x14c-0x150 (4)
0x150|52 75 e6 79                                    |Ru.y            |      [73]: "2013-11-03T06:00:25Z" (1383458425) transition_time 0x150-0x154 (4)
0x150|            53 1c 11 89                        |    S...        |      [74]: "2014-03-09T07:00:25Z" (1394348425) transition_time 0x154-0x158 (4)
0x150|                        54 55 c8 79            |        TU.y    |      [75]: "2014-11-02T06:00:25Z" (1414908025) transition_time 0x158-0x15c (4)
0x150|                                    54 fb f3 89|            T...|      [76]: "2015-03-08T07:00:25Z" (1425798025) transition_time 0x15c-0x160 (4)
0x160|56 35 aa 7a                                    |V5.z            |      [77]: "2015-11-01T06:00:26Z" (1446357626) transition_time 0x160-0x164 (4)
0x160|            56 e5 10 0a                        |    V...        |      [78]: "2016-03-13T07:00:26Z" (1457852426) transition_time 0x164-0x168 (4)
0x160|                        58 1e c6 fa            |        X...    |      [79]: "2016-11-06T06:00:26Z" (1478412026) transition_time 0x168-0x16c (4)
0x160|                                    58 c4 f2 0b|            X...|      [80]: "2017-03-12T07:00:27Z" (1489302027) transition_time 0x16c-0x170 (4)
0x170|59 fe a8 fb                                    |Y...            |      [81]: "2017-11-05T06:00:27Z" (1509861627) transition_time 0x170-0x174 (4)
0x170|            5a a4 d4 0b                        |    Z...        |      [82]: "2018-03-11T07:00:27Z" (1520751627) transition_time 0x174-0x178 (4)
0x170|                        5b de 8a fb            |        [...    |      [83]: "2018-11-04T06:00:27Z" (1541311227) transition_time 0x178-0x17c (4)
0x170|                                    5c 84 b6 0b|            \...|      [84]: "2019-03-10T07:00:27Z" (1552201227) transition_time 0x17c-0x180 (4)
0x180|5d be 6c fb                                    |].l.            |      [85]: "2019-11-03T06:00:27Z" (1572760827) transition_time 0x180-0x184 (4)
0x180|            5e 64 98 0b                        |    ^d..        |      [86]: "2020-03-08T07:00:27Z" (1583650827) transition_time 0x184-0x188 (4)
0x180|                        5f 9e 4e fb            |        _.N.    |      [87]: "2020-11-01T06:00:27Z" (1604210427) transition_time 0x188-0x18c (4)
0x180|                                    60 4d b4 8b|            `M..|      [88]: "2021-03-14T07:00:27Z" (1615705227) transition_time 0x18c-0x190 (4)
0x190|61 87 6b 7b                                    |a.k{            |      [89]: "2021-11-07T06:00:27Z" (1636264827) transition_time 0x190-0x194 (4)
0x190|            62 2d 96 8b                        |    b-..        |      [90]: "2022-03-13T07:00:27Z" (1647154827) transition_time 0x194-0x198 (4)
0x190|                        63 67 4d 7b            |        cgM{    |      [91]: "2022-11-06T06:00:27Z" (1667714427) transition_time 0x198-0x19c (4)
0x190|                                    64 0d 78 8b|            d.x.|      [92]: "2023-03-12T07:00:27Z" (1678604427) transition_time 0x19c-0x1a0 (4)
0x1a0|64 9b 78 1b                                    |d.x.            |      [93]: "2023-06-28T00:00:27Z" (1687910427) transition_time 0x1a0-0x1a4 (4)
     |                                               |                |    transition_types[0:94]: 0x1a4-0x202 (94)
0x1a0|            03                                 |    .           |      [0]: 3 transition_type 0x1a4-0x1a5 (1)
0x1a0|               01                              |     .          |      [1]: 1 transition_type 0x1a5-0x1a6 (1)
0x1a0|                  02                           |      .         |      [2]: 2 transition_type 0x1a6-0x1a7 (1)
0x1a0|                     03                        |       .        |      [3]: 3 transition_type 0x1a7-0x1a8 (1)
0x1a0|                        04                     |        .       |      [4]: 4 transition_type 0x1a8-0x1a9 (1)
0x1a0|                           03                  |         .      |      [5]: 3 transition_type 0x1a9-0x1aa (1)
0x1a0|                              05               |          .     |      [6]: 5 transition_type 0x1aa-0x1ab (1)
0x1a0|                                 03            |           .    |      [7]: 3 transition_type 0x1ab-0x1ac (1)
0x1a0|                                    05         |            .   |      [8]: 5 transition_type 0x1ac-0x1ad (1)
0x1a0|                                       03      |             .  |      [9]: 3 transition_type 0x1ad-0x1ae (1)
0x1a0|                                          05   |              . |      [10]: 5 transition_type 0x1ae-0x1af (1)
0x1a0|                                             03|               .|      [11]: 3 transition_type 0x1af-0x1b0 (1)
0x1b0|05                                             |.               |      [12]: 5 transition_type 0x1b0-0x1b1 (1)
0x1b0|   03                                          | .              |      [13]: 3 transition_type 0x1b1-0x1b2 (1)
0x1b0|      05                                       |  .             |      [14]: 5 transition_type 0x1b2-0x1b3 (1)
0x1b0|         03                                    |   .            |      [15]: 3 transition_type 0x1b3-0x1b4 (1)
0x1b0|            05                                 |    .           |      [16]: 5 transition_type 0x1b4-0x1b5 (1)
0x1b0|               03                              |     .          |      [17]: 3 transition_type 0x1b5-0x1b6 (1)
0x1b0|                  05                           |      .         |      [18]: 5 transition_type 0x1b6-0x1b7 (1)
0x1b0|                     03                        |       .        |      [19]: 3 transition_type 0x1b7-0x1b8 (1)
0x1b0|                        05                     |        .       |      [20]: 5 transition_type 0x1b8-0x1b9 (1)
0x1b0|                           03                  |         .      |      [21]: 3 transition_type 0x1b9-0x1ba (1)
0x1b0|                              05               |          .     |      [22]: 5 transition_type 0x1ba-0x1bb (1)
0x1b0|                                 03            |           .    |      [23]: 3 transition_type 0x1bb-0x1bc (1)
0x1b0|                                    05         |            .   |      [24]: 5 transition_type 0x1bc-0x1bd (1)
0x1b0|                                       03      |             .  |      [25]: 3 transition_type 0x1bd-0x1be (1)
0x1b0|                                          05   |              . |      [26]: 5 transition_type 0x1be-0x1bf (1)
0x1b0|                                             03|               .|      [27]: 3 transition_type 0x1bf-0x1c0 (1)
0x1c0|05                                             |.               |      [28]: 5 transition_type 0x1c0-0x1c1 (1)
0x1c0|   03                                          | .              |      [29]: 3 transition_type 0x1c1-0x1c2 (1)
0x1c0|      05                                       |  .             |      [30]: 5 transition_type 0x1c2-0x1c3 (1)
0x1c0|         03                                    |   .            |      [31]: 3 transition_type 0x1c3-0x1c4 (1)
0x1c0|            05                                 |    .           |      [32]: 5 transition_type 0x1c4-0x1c5 (1)
0x1c0|               03                              |     .          |      [33]: 3 transition_type 0x1c5-0x1c6 (1)
0x1c0|                  05                           |      .         |      [34]: 5 transition_type 0x1c6-0x1c7 (1)
0x1c0|                     03                        |       .        |      [35]: 3 transition_type 0x1c7-0x1c8 (1)
0x1c0|                        06                     |        .       |      [36]: 6 transition_type 0x1c8-0x1c9 (1)
0x1c0|                           07                  |         .      |      [37]: 7 transition_type 0x1c9-0x1ca (1)
0x1c0|                              06               |          .     |      [38]: 6 transition_type 0x1ca-0x1cb (1)
0x1c0|                                 07            |           .    |      [39]: 7 transition_type 0x1cb-0x1cc (1)
0x1c0|                                    06         |            .   |      [40]: 6 transition_type 0x1cc-0x1cd (1)
0x1c0|                                       07      |             .  |      [41]: 7 transition_type 0x1cd-0x1ce (1)
0x1c0|                                          06   |              . |      [42]: 6 transition_type 0x1ce-0x1cf (1)
0x1c0|                                             07|               .|      [43]: 7 transition_type 0x1cf-0x1d0 (1)
0x1d0|06                                             |.               |      [44]: 6 transition_type 0x1d0-0x1d1 (1)
0x1d0|   08                                          | .              |      [45]: 8 transition_type 0x1d1-0x1d2 (1)
0x1d0|      09                                       |  .             |      [46]: 9 transition_type 0x1d2-0x1d3 (1)
0x1d0|         07                                    |   .            |      [47]: 7 transition_type 0x1d3-0x1d4 (1)
0x1d0|            06                                 |    .           |      [48]: 6 transition_type 0x1d4-0x1d5 (1)
0x1d0|               07                              |     .          |      [49]: 7 transition_type 0x1d5-0x1d6 (1)
0x1d0|                  06                           |      .         |      [50]: 6 transition_type 0x1d6-0x1d7 (1)
0x1d0|                     07                        |       .        |      [51]: 7 transition_type 0x1d7-0x1d8 (1)
0x1d0|                        06                     |        .       |      [52]: 6 transition_type 0x1d8-0x1d9 (1)
0x1d0|                           07                  |         .      |      [53]: 7 transition_type 0x1d9-0x1da (1)
0x1d0|                              06               |          .     |      [54]: 6 transition_type 0x1da-0x1db (1)
0x1d0|                                 07            |           .    |      [55]: 7 transition_type 0x1db-0x1dc (1)
0x1d0|                                    06         |            .   |      [56]: 6 transition_type 0x1dc-0x1dd (1)
0x1d0|                                       07      |             .  |      [57]: 7 transition_type 0x1dd-0x1de (1)
0x1d0|                                          06   |              . |      [58]: 6 transition_type 0x1de-0x1df (1)
0x1d0|                                             07|               .|      [59]: 7 transition_type 0x1df-0x1e0 (1)
0x1e0|06                                             |.               |      [60]: 6 transition_type 0x1e0-0x1e1 (1)
0x1e0|   07                                          | .              |      [61]: 7 transition_type 0x1e1-0x1e2 (1)
0x1e0|      06                                       |  .             |      [62]: 6 transition_type 0x1e2-0x1e3 (1)
0x1e0|         07                                    |   .            |      [63]: 7 transition_type 0x1e3-0x1e4 (1)
0x1e0|            06                                 |    .           |      [64]: 6 transition_type 0x1e4-0x1e5 (1)
0x1e0|               07                              |     .          |      [65]: 7 transition_type 0x1e5-0x1e6 (1)
0x1e0|                  06                           |      .         |      [66]: 6 transition_type 0x1e6-0x1e7 (1)
0x1e0|                     07                        |       .        |      [67]: 7 transition_type 0x1e7-0x1e8 (1)
0x1e0|                        06                     |        .       |      [68]: 6 transition_type 0x1e8-0x1e9 (1)
0x1e0|                           07                  |         .      |      [69]: 7 transition_type 0x1e9-0x1ea (1)
0x1e0|                              06               |          .     |      [70]: 6 transition_type 0x1ea-0x1eb (1)
0x1e0|                                 07            |           .    |      [71]: 7 transition_type 0x1eb-0x1ec (1)
0x1e0|                                    06         |            .   |      [72]: 6 transition_type 0x1ec-0x1ed (1)
0x1e0|                                       07      |             .  |      [73]: 7 transition_type 0x1ed-0x1ee (1)
0x1e0|                                          06   |              . |      [74]: 6 transition_type 0x1ee-0x1ef (1)
0x1e0|                                             07|               .|      [75]: 7 transition_type 0x1ef-0x1f0 (1)
0x1f0|06                                             |.               |      [76]: 6 transition_type 0x1f0-0x1f1 (1)
0x1f0|   07                                          | .              |      [77]: 7 transition_type 0x1f1-0x1f2 (1)
0x1f0|      06                                       |  .             |      [78]: 6 transition_type 0x1f2-0x1f3 (1)
0x1f0|         07                                    |   .            |      [79]: 7 transition_type 0x1f3-0x1f4 (1)
0x1f0|            06                                 |    .           |      [80]: 6 transition_type 0x1f4-0x1f5 (1)
0x1f0|               07                              |     .          |      [81]: 7 transition_type 0x1f5-0x1f6 (1)
0x1f0|                  06                           |      .         |      [82]: 6 transition_type 0x1f6-0x1f7 (1)
0x1f0|                     07                        |       .        |      [83]: 7 transition_type 0x1f7-0x1f8 (1)
0x1f0|                        06                     |        .       |      [84]: 6 transition_type 0x1f8-0x1f9 (1)
0x1f0|                           07                  |         .      |      [85]: 7 transition_type 0x1f9-0x1fa (1)
0x1f0|                              06               |          .     |      [86]: 6 transition_type 0x1fa-0x1fb (1)
0x1f0|                                 07            |           .    |      [87]: 7 transition_type 0x1fb-0x1fc (1)
0x1f0|                                    06         |            .   |      [88]: 6 transition_type 0x1fc-0x1fd (1)
0x1f0|                                       07      |             .  |      [89]: 7 transition_type 0x1fd-0x1fe (1)
0x1f0|                                          06   |              . |      [90]: 6 transition_type 0x1fe-0x1ff (1)
0x1f0|                                             07|               .|      [91]: 7 transition_type 0x1ff-0x200 (1)
0x200|06                                             |.               |      [92]: 6 transition_type 0x200-0x201 (1)
0x200|   06                                          | .              |      [93]: 6 transition_type 0x201-0x202 (1)
     |                                               |                |    local_time_type_records[0:12]: 0x202-0x24a (72)
     |                                               |                |      [0]{}: local_time_type 0x202-0x208 (6)
0x200|      00 00 00 00                              |  ....          |        utoff: 0 (valid) 0x202-0x206 (4)
0x200|                  00                           |      .         |        dst: 0 (valid) 0x206-0x207 (1)
0x200|                     00                        |       .        |        idx: 0 (valid) 0x207-0x208 (1)
     |                                               |                |      [1]{}: local_time_type 0x208-0x20e (6)
0x200|                        ff ff d5 d0            |        ....    |        utoff: -10800 (valid) 0x208-0x20c (4)
0x200|                                    01         |            .   |        dst: 1 (valid) 0x20c-0x20d (1)
0x200|                                       04      |             .  |        idx: 4 (valid) 0x20d-0x20e (1)
     |                                               |                |      [2]{}: local_time_type 0x20e-0x214 (6)
0x200|                                          ff ff|              ..|        utoff: -10800 (valid) 0x20e-0x212 (4)
0x210|d5 d0                                          |..              |
0x210|      01                                       |  .             |        dst: 1 (valid) 0x212-0x213 (1)
0x210|         08                                    |   .            |        idx: 8 (valid) 0x213-0x214 (1)
     |                                               |                |      [3]{}: local_time_type 0x214-0x21a (6)
0x210|            ff ff c7 c0                        |    ....        |        utoff: -14400 (valid) 0x214-0x218 (4)
0x210|                        00                     |        .       |        dst: 0 (valid) 0x218-0x219 (1)
0x210|                           0c                  |         .      |        idx: 12 (valid) 0x219-0x21a (1)
     |                                               |                |      [4]{}: local_time_type 0x21a-0x220 (6)
0x210|                              ff ff e3 e0      |          ....  |        utoff: -7200 (valid) 0x21a-0x21e (4)
0x210|                                          01   |              . |        dst: 1 (valid) 0x21e-0x21f (1)
0x210|                                             10|               .|        idx: 16 (valid) 0x21f-0x220 (1)
     |                                               |                |      [5]{}: local_time_type 0x220-0x226 (6)
0x220|ff ff d5 d0                                    |....            |        utoff: -10800 (valid) 0x220-0x224 (4)
0x220|            01                                 |    .           |        dst: 1 (valid) 0x224-0x225 (1)
0x220|               15                              |     .          |        idx: 21 (valid) 0x225-0x226 (1)
     |                                               |                |      [6]{}: local_time_type 0x226-0x22c (6)
0x220|                  ff ff c7 c0                  |      ....      |        utoff: -14400 (valid) 0x226-0x22a (4)
0x220|                              01               |          .     |        dst: 1 (valid) 0x22a-0x22b (1)
0x220|                                 19            |           .    |        idx: 25 (valid) 0x22b-0x22c (1)
     |                                               |                |      [7]{}: local_time_type 0x22c-0x232 (6)
0x220|                                    ff ff b9 b0|            ....|        utoff: -18000 (valid) 0x22c-0x230 (4)
0x230|00                                             |.               |        dst: 0 (valid) 0x230-0x231 (1)
0x230|   1d                                          | .              |        idx: 29 (valid) 0x231-0x232 (1)
     |                                               |                |      [8]{}: local_time_type 0x232-0x238 (6)
0x230|      ff ff ab a0                              |  ....          |        utoff: -21600 (valid) 0x232-0x236 (4)
0x230|                  00                           |      .         |        dst: 0 (valid) 0x236-0x237 (1)
0x230|                     21                        |       !        |        idx: 33 (valid) 0x237-0x238 (1)
     |                                               |                |      [9]{}: local_time_type 0x238-0x23e (6)
0x230|                        ff ff b9 b0            |        ....    |        utoff: -18000 (valid) 0x238-0x23c (4)
0x230|                                    01         |            .   |        dst: 1 (valid) 0x23c-0x23d (1)
0x230|                                       25      |             %  |        idx: 37 (valid) 0x23d-0x23e (1)
     |                                               |                |      [10]{}: local_time_type 0x23e-0x244 (6)
0x230|                                          ff ff|              ..|        utoff: -14400 (valid) 0x23e-0x242 (4)
0x240|c7 c0                                          |..              |
0x240|      01                                       |  .             |        dst: 1 (valid) 0x242-0x243 (1)
0x240|         19                                    |   .            |        idx: 25 (valid) 0x243-0x244 (1)
     |                                               |                |      [11]{}: local_time_type 0x244-0x24a (6)
0x240|            ff ff b9 b0                        |    ....        |        utoff: -18000 (valid) 0x244-0x248 (4)
0x240|                        00                     |        .       |        dst: 0 (valid) 0x248-0x249 (1)
0x240|                           1d                  |         .      |        idx: 29 (valid) 0x249-0x24a (1)
     |                                               |                |    time_zone_designations[0:10]: 0x24a-0x273 (41)
0x240|                              2d 30 30 00      |          -00.  |      [0]: "-00" time_zone_designation 0x24a-0x24e (4)
0x240|                                          41 57|              AW|      [1]: "AWT" time_zone_designation 0x24e-0x252 (4)
0x250|54 00                                          |T.              |
0x250|      41 50 54 00                              |  APT.          |      [2]: "APT" time_zone_designation 0x252-0x256 (4)
0x250|                  41 53 54 00                  |      AST.      |      [3]: "AST" time_zone_designation 0x256-0x25a (4)
0x250|                              41 44 44 54 00   |          ADDT. |      [4]: "ADDT" time_zone_designation 0x25a-0x25f (5)
0x250|                                             41|               A|      [5]: "ADT" time_zone_designation 0x25f-0x263 (4)
0x260|44 54 00                                       |DT.             |
0x260|         45 44 54 00                           |   EDT.         |      [6]: "EDT" time_zone_designation 0x263-0x267 (4)
0x260|                     45 53 54 00               |       EST.     |      [7]: "EST" time_zone_designation 0x267-0x26b (4)
0x260|                                 43 53 54 00   |           CST. |      [8]: "CST" time_zone_designation 0x26b-0x26f (4)
0x260|                                             43|               C|      [9]: "CDT" time_zone_designation 0x26f-0x273 (4)
0x270|44 54 00                                       |DT.             |
     |                                               |                |    leap_second_records[0:27]: 0x273-0x34b (216)
     |                                               |                |      [0]{}: leap_second_record 0x273-0x27b (8)
0x270|         04 b2 58 00                           |   ..X.         |        occur: "1972-07-01T00:00:00Z" (78796800) 0x273-0x277 (4)
0x270|                     00 00 00 01               |       ....     |        corr: 1 0x277-0x27b (4)
     |                                               |                |      [1]{}: leap_second_record 0x27b-0x283 (8)
0x270|                                 05 a4 ec 01   |           .... |        occur: "1973-01-01T00:00:01Z" (94694401) 0x27b-0x27f (4)
0x270|                                             00|               .|        corr: 2 0x27f-0x283 (4)
0x280|00 00 02                                       |...             |
     |                                               |                |      [2]{}: leap_second_record 0x283-0x28b (8)
0x280|         07 86 1f 82                           |   ....         |        occur: "1974-01-01T00:00:02Z" (126230402) 0x283-0x287 (4)
0x280|                     00 00 00 03               |       ....     |        corr: 3 0x287-0x28b (4)
     |                                               |                |      [3]{}: leap_second_record 0x28b-0x293 (8)
0x280|                                 09 67 53 03   |           .gS. |        occur: "1975-01-01T00:00:03Z" (157766403) 0x28b-0x28f (4)
0x280|                                             00|               .|        corr: 4 0x28f-0x293 (4)
0x290|00 00 04                                       |...             |
     |                                               |                |      [4]{}: leap_second_record 0x293-0x29b (8)
0x290|         0b 48 86 84                           |   .H..         |        occur: "1976-01-01T00:00:04Z" (189302404) 0x293-0x297 (4)
0x290|                     00 00 00 05               |       ....     |        corr: 5 0x297-0x29b (4)
     |                                               |                |      [5]{}: leap_second_record 0x29b-0x2a3 (8)
0x290|                                 0d 2b 0b 85   |           .+.. |        occur: "1977-01-01T00:00:05Z" (220924805) 0x29b-0x29f (4)
0x290|                                             00|               .|        corr: 6 0x29f-0x2a3 (4)
0x2a0|00 00 06                                       |...             |
     |                                               |                |      [6]{}: leap_second_record 0x2a3-0x2ab (8)
0x2a0|         0f 0c 3f 06                           |   ..?.         |        occur: "1978-01-01T00:00:06Z" (252460806) 0x2a3-0x2a7 (4)
0x2a0|                     00 00 00 07               |       ....     |        corr: 7 0x2a7-0x2ab (4)
     |                                               |                |      [7]{}: leap_second_record 0x2ab-0x2b3 (8)
0x2a0|                                 10 ed 72 87   |           ..r. |        occur: "1979-01-01T00:00:07Z" (283996807) 0x2ab-0x2af (4)
0x2a0|                                             00|               .|        corr: 8 0x2af-0x2b3 (4)
0x2b0|00 00 08                                       |...             |
     |                                               |                |      [8]{}: leap_second_record 0x2b3-0x2bb (8)
0x2b0|         12 ce a6 08                           |   ....         |        occur: "1980-01-01T00:00:08Z" (315532808) 0x2b3-0x2b7 (4)
0x2b0|                     00 00 00 09               |       ....     |        corr: 9 0x2b7-0x2bb (4)
     |                                               |                |      [9]{}: leap_second_record 0x2bb-0x2c3 (8)
0x2b0|                                 15 9f ca 89   |           .... |        occur: "1981-07-01T00:00:09Z" (362793609) 0x2bb-0x2bf (4)
0x2b0|                                             00|               .|        corr: 10 0x2bf-0x2c3 (4)
0x2c0|00 00 0a                                       |...             |
     |                                               |                |      [10]{}: leap_second_record 0x2c3-0x2cb (8)
0x2c0|         17 80 fe 0a                           |   ....         |        occur: "1982-07-01T00:00:10Z" (394329610) 0x2c3-0x2c7 (4)
0x2c0|                     00 00 00 0b               |       ....     |        corr: 11 0x2c7-0x2cb (4)
     |                                               |                |      [11]{}: leap_second_record 0x2cb-0x2d3 (8)
0x2c0|                                 19 62 31 8b   |           .b1. |        occur: "1983-07-01T00:00:11Z" (425865611) 0x2cb-0x2cf (4)
0x2c0|                                             00|               .|        corr: 12 0x2cf-0x2d3 (4)
0x2d0|00 00 0c                                       |...             |
     |                                               |                |      [12]{}: leap_second_record 0x2d3-0x2db (8)
0x2d0|         1d 25 ea 0c                           |   .%..         |        occur: "1985-07-01T00:00:12Z" (489024012) 0x2d3-0x2d7 (4)
0x2d0|                     00 00 00 0d               |       ....     |        corr: 13 0x2d7-0x2db (4)
     |                                               |                |      [13]{}: leap_second_record 0x2db-0x2e3 (8)
0x2d0|                                 21 da e5 0d   |           !... |        occur: "1988-01-01T00:00:13Z" (567993613) 0x2db-0x2df (4)
0x2d0|                                             00|               .|        corr: 14 0x2df-0x2e3 (4)
0x2e0|00 00 0e                                       |...             |
     |                                               |                |      [14]{}: leap_second_record 0x2e3-0x2eb (8)
0x2e0|         25 9e 9d 8e                           |   %...         |        occur: "1990-01-01T00:00:14Z" (631152014) 0x2e3-0x2e7 (4)
0x2e0|                     00 00 00 0f               |       ....     |        corr: 15 0x2e7-0x2eb (4)
     |                                               |                |      [15]{}: leap_second_record 0x2eb-0x2f3 (8)
0x2e0|                                 27 7f d1 0f   |           '... |        occur: "1991-01-01T00:00:15Z" (662688015) 0x2eb-0x2ef (4)
0x2e0|                                             00|               .|        corr: 16 0x2ef-0x2f3 (4)
0x2f0|00 00 10                                       |...             |
     |                                               |                |      [16]{}: leap_second_record 0x2f3-0x2fb (8)
0x2f0|         2a 50 f5 90                           |   *P..         |        occur: "1992-07-01T00:00:16Z" (709948816) 0x2f3-0x2f7 (4)
0x2f0|                     00 00 00 11               |       ....     |        corr: 17 0x2f7-0x2fb (4)
     |                                               |                |      [17]{}: leap_second_record 0x2fb-0x303 (8)
0x2f0|                                 2c 32 29 11   |           ,2). |        occur: "1993-07-01T00:00:17Z" (741484817) 0x2fb-0x2ff (4)
0x2f0|                                             00|               .|        corr: 18 0x2ff-0x303 (4)
0x300|00 00 12                                       |...             |
     |                                               |                |      [18]{}: leap_second_record 0x303-0x30b (8)
0x300|         2e 13 5c 92                           |   ..\.         |        occur: "1994-07-01T00:00:18Z" (773020818) 0x303-0x307 (4)
0x300|                     00 00 00 13               |       ....     |        corr: 19 0x307-0x30b (4)
     |                                               |                |      [19]{}: leap_second_record 0x30b-0x313 (8)
0x300|                                 30 e7 24 13   |           0.$. |        occur: "1996-01-01T00:00:19Z" (820454419) 0x30b-0x30f (4)
0x300|                                             00|               .|        corr: 20 0x30f-0x313 (4)
0x310|00 00 14                                       |...             |
     |                                               |                |      [20]{}: leap_second_record 0x313-0x31b (8)
0x310|         33 b8 48 94                           |   3.H.         |        occur: "1997-07-01T00:00:20Z" (867715220) 0x313-0x317 (4)
0x310|                     00 00 00 15               |       ....     |        corr: 21 0x317-0x31b (4)
     |                                               |                |      [21]{}: leap_second_record 0x31b-0x323 (8)
0x310|                                 36 8c 10 15   |           6... |        occur: "1999-01-01T00:00:21Z" (915148821) 0x31b-0x31f (4)
0x310|                                             00|               .|        corr: 22 0x31f-0x323 (4)
0x320|00 00 16                                       |...             |
     |                                               |                |      [22]{}: leap_second_record 0x323-0x32b (8)
0x320|         43 b7 1b 96                           |   C...         |        occur: "2006-01-01T00:00:22Z" (1136073622) 0x323-0x327 (4)
0x320|                     00 00 00 17               |       ....     |        corr: 23 0x327-0x32b (4)
     |                                               |                |      [23]{}: leap_second_record 0x32b-0x333 (8)
0x320|                                 49 5c 07 97   |           I\.. |        occur: "2009-01-01T00:00:23Z" (1230768023) 0x32b-0x32f (4)
0x320|                                             00|               .|        corr: 24 0x32f-0x333 (4)
0x330|00 00 18                                       |...             |
     |                                               |                |      [24]{}: leap_second_record 0x333-0x33b (8)
0x330|         4f ef 93 18                           |   O...         |        occur: "2012-07-01T00:00:24Z" (1341100824) 0x333-0x337 (4)
0x330|                     00 00 00 19               |       ....     |        corr: 25 0x337-0x33b (4)
     |                                               |                |      [25]{}: leap_second_record 0x33b-0x343 (8)
0x330|                                 55 93 2d 99   |           U.-. |        occur: "2015-07-01T00:00:25Z" (1435708825) 0x33b-0x33f (4)
0x330|                                             00|               .|        corr: 26 0x33f-0x343 (4)
0x340|00 00 1a                                       |...             |
     |                                               |                |      [26]{}: leap_second_record 0x343-0x34b (8)
0x340|         58 68 46 9a                           |   XhF.         |        occur: "2017-01-01T00:00:26Z" (1483228826) 0x343-0x347 (4)
0x340|                     00 00 00 1b               |       ....     |        corr: 27 0x347-0x34b (4)
     |                                               |                |    standard_wall_indicators[0:12]: 0x34b-0x357 (12)
0x340|                                 00            |           .    |      [0]: 0 standard_wall_indicator (valid) 0x34b-0x34c (1)
0x340|                                    00         |            .   |      [1]: 0 standard_wall_indicator (valid) 0x34c-0x34d (1)
0x340|                                       01      |             .  |      [2]: 1 standard_wall_indicator (valid) 0x34d-0x34e (1)
0x340|                                          00   |              . |      [3]: 0 standard_wall_indicator (valid) 0x34e-0x34f (1)
0x340|                                             00|               .|      [4]: 0 standard_wall_indicator (valid) 0x34f-0x350 (1)
0x350|00                                             |.               |      [5]: 0 standard_wall_indicator (valid) 0x350-0x351 (1)
0x350|   00                                          | .              |      [6]: 0 standard_wall_indicator (valid) 0x351-0x352 (1)
0x350|      00                                       |  .             |      [7]: 0 standard_wall_indicator (valid) 0x352-0x353 (1)
0x350|         00                                    |   .            |      [8]: 0 standard_wall_indicator (valid) 0x353-0x354 (1)
0x350|            00                                 |    .           |      [9]: 0 standard_wall_indicator (valid) 0x354-0x355 (1)
0x350|               00                              |     .          |      [10]: 0 standard_wall_indicator (valid) 0x355-0x356 (1)
0x350|                  00                           |      .         |      [11]: 0 standard_wall_indicator (valid) 0x356-0x357 (1)
     |                                               |                |    ut_local_indicators[0:12]: 0x357-0x363 (12)
0x350|                     00                        |       .        |      [0]: 0 ut_local_indicator (valid) 0x357-0x358 (1)
0x350|                        00                     |        .       |      [1]: 0 ut_local_indicator (valid) 0x358-0x359 (1)
0x350|                           01                  |         .      |      [2]: 1 ut_local_indicator (valid) 0x359-0x35a (1)
0x350|                              00               |          .     |      [3]: 0 ut_local_indicator (valid) 0x35a-0x35b (1)
0x350|                                 00            |           .    |      [4]: 0 ut_local_indicator (valid) 0x35b-0x35c (1)
0x350|                                    00         |            .   |      [5]: 0 ut_local_indicator (valid) 0x35c-0x35d (1)
0x350|                                       00      |             .  |      [6]: 0 ut_local_indicator (valid) 0x35d-0x35e (1)
0x350|                                          00   |              . |      [7]: 0 ut_local_indicator (valid) 0x35e-0x35f (1)
0x350|                                             00|               .|      [8]: 0 ut_local_indicator (valid) 0x35f-0x360 (1)
0x360|00                                             |.               |      [9]: 0 ut_local_indicator (valid) 0x360-0x361 (1)
0x360|   00                                          | .              |      [10]: 0 ut_local_indicator (valid) 0x361-0x362 (1)
0x360|      00                                       |  .             |      [11]: 0 ut_local_indicator (valid) 0x362-0x363 (1)
     |                                               |                |  v2plusheader{}: 0x363-0x38f (44)
0x360|         54 5a 69 66                           |   TZif         |    magic: 0x545a6966 (valid) 0x363-0x367 (4)
0x360|                     32                        |       2        |    ver: "2" (0x32) (valid) 0x367-0x368 (1)
0x360|                        00 00 00 00 00 00 00 00|        ........|    reserved: raw bits 0x368-0x377 (15)
0x370|00 00 00 00 00 00 00                           |.......         |
0x370|                     00 00 00 0c               |       ....     |    isutcnt: 12 0x377-0x37b (4)
0x370|                                 00 00 00 0c   |           .... |    isstdcnt: 12 0x37b-0x37f (4)
0x370|                                             00|               .|    leapcnt: 27 0x37f-0x383 (4)
0x380|00 00 1b                                       |...             |
0x380|         00 00 00 5e                           |   ...^         |    timecnt: 94 0x383-0x387 (4)
0x380|                     00 00 00 0c               |       ....     |    typecnt: 12 0x387-0x38b (4)
0x380|                                 00 00 00 29   |           ...) |    charcnt: 41 0x38b-0x38f (4)
     |                                               |                |  v2plusdatablock{}: 0x38f-0x8aa (1307)
     |                                               |                |    transition_times[0:94]: 0x38f-0x67f (752)
0x380|                                             ff|               .|      [0]: "1921-01-01T00:00:00Z" (-1546300800) transition_time 0x38f-0x397 (8)
0x390|ff ff ff a3 d5 52 80                           |.....R.         |
0x390|                     ff ff ff ff cb 88 e2 60   |       .......` |      [1]: "1942-02-09T06:00:00Z" (-880221600) transition_time 0x397-0x39f (8)
0x390|                                             ff|               .|      [2]: "1945-08-14T23:00:00Z" (-769395600) transition_time 0x39f-0x3a7 (8)
0x3a0|ff ff ff d2 23 f4 70                           |....#.p         |
0x3a0|                     ff ff ff ff d2 60 ed d0   |       .....`.. |      [3]: "1945-09-30T05:00:00Z" (-765399600) transition_time 0x3a7-0x3af (8)
0x3a0|                                             ff|               .|      [4]: "1965-04-25T04:00:00Z" (-147902400) transition_time 0x3af-0x3b7 (8)
0x3b0|ff ff ff f7 2f 30 40                           |..../0@         |
0x3b0|                     ff ff ff ff f8 28 5b c0   |       .....([. |      [5]: "1965-10-31T04:00:00Z" (-131572800) transition_time 0x3b7-0x3bf (8)
0x3b0|                                             00|               .|      [6]: "1980-04-27T06:00:09Z" (325663209) transition_time 0x3bf-0x3c7 (8)
0x3c0|00 00 00 13 69 39 e9                           |....i9.         |
0x3c0|                     00 00 00 00 14 59 1c d9   |       .....Y.. |      [7]: "1980-10-26T05:00:09Z" (341384409) transition_time 0x3c7-0x3cf (8)
0x3c0|                                             00|               .|      [8]: "1981-04-26T06:00:09Z" (357112809) transition_time 0x3cf-0x3d7 (8)
0x3d0|00 00 00 15 49 1b e9                           |....I..         |
0x3d0|                     00 00 00 00 16 38 fe da   |       .....8.. |      [9]: "1981-10-25T05:00:10Z" (372834010) transition_time 0x3d7-0x3df (8)
0x3d0|                                             00|               .|      [10]: "1982-04-25T06:00:10Z" (388562410) transition_time 0x3df-0x3e7 (8)
0x3e0|00 00 00 17 28 fd ea                           |....(..         |
0x3e0|                     00 00 00 00 18 22 1b 5b   |       .....".[ |      [11]: "1982-10-31T05:00:11Z" (404888411) transition_time 0x3e7-0x3ef (8)
0x3e0|                                             00|               .|      [12]: "1983-04-24T06:00:11Z" (420012011) transition_time 0x3ef-0x3f7 (8)
0x3f0|00 00 00 19 08 df eb                           |.......         |
0x3f0|                     00 00 00 00 1a 01 fd 5c   |       .......\ |      [13]: "1983-10-30T05:00:12Z" (436338012) transition_time 0x3f7-0x3ff (8)
0x3f0|                                             00|               .|      [14]: "1984-04-29T06:00:12Z" (452066412) transition_time 0x3ff-0x407 (8)
0x400|00 00 00 1a f1 fc 6c                           |......l         |
0x400|                     00 00 00 00 1b e1 df 5c   |       .......\ |      [15]: "1984-10-28T05:00:12Z" (467787612) transition_time 0x407-0x40f (8)
0x400|                                             00|               .|      [16]: "1985-04-28T06:00:12Z" (483516012) transition_time 0x40f-0x417 (8)
0x410|00 00 00 1c d1 de 6c                           |......l         |
0x410|                     00 00 00 00 1d c1 c1 5d   |       .......] |      [17]: "1985-10-27T05:00:13Z" (499237213) transition_time 0x417-0x41f (8)
0x410|                                             00|               .|      [18]: "1986-04-27T06:00:13Z" (514965613) transition_time 0x41f-0x427 (8)
0x420|00 00 00 1e b1 c0 6d                           |......m         |
0x420|                     00 00 00 00 1f a1 a3 5d   |       .......] |      [19]: "1986-10-26T05:00:13Z" (530686813) transition_time 0x427-0x42f (8)
0x420|                                             00|               .|      [20]: "1987-04-05T06:00:13Z" (544600813) transition_time 0x42f-0x437 (8)
0x430|00 00 00 20 75 f2 ed                           |... u..         |
0x430|                     00 00 00 00 21 81 85 5d   |       ....!..] |      [21]: "1987-10-25T05:00:13Z" (562136413) transition_time 0x437-0x43f (8)
0x430|                                             00|               .|      [22]: "1988-04-03T06:00:14Z" (576050414) transition_time 0x43f-0x447 (8)
0x440|00 00 00 22 55 d4 ee                           |..."U..         |
0x440|                     00 00 00 00 23 6a a1 de   |       ....#j.. |      [23]: "1988-10-30T05:00:14Z" (594190814) transition_time 0x447-0x44f (8)
0x440|                                             00|               .|      [24]: "1989-04-02T06:00:14Z" (607500014) transition_time 0x44f-0x457 (8)
0x450|00 00 00 24 35 b6 ee                           |...$5..         |
0x450|                     00 00 00 00 25 4a 83 de   |       ....%J.. |      [25]: "1989-10-29T05:00:14Z" (625640414) transition_time 0x457-0x45f (8)
0x450|                                             00|               .|      [26]: "1990-04-01T06:00:15Z" (638949615) transition_time 0x45f-0x467 (8)
0x460|00 00 00 26 15 98 ef                           |...&...         |
0x460|                     00 00 00 00 27 2a 65 df   |       ....'*e. |      [27]: "1990-10-28T05:00:15Z" (657090015) transition_time 0x467-0x46f (8)
0x460|                                             00|               .|      [28]: "1991-04-07T06:00:16Z" (671004016) transition_time 0x46f-0x477 (8)
0x470|00 00 00 27 fe b5 70                           |...'..p         |
0x470|                     00 00 00 00 29 0a 47 e0   |       ....).G. |      [29]: "1991-10-27T05:00:16Z" (688539616) transition_time 0x477-0x47f (8)
0x470|                                             00|               .|      [30]: "1992-04-05T06:00:16Z" (702453616) transition_time 0x47f-0x487 (8)
0x480|00 00 00 29 de 97 70                           |...)..p         |
0x480|                     00 00 00 00 2a ea 29 e1   |       ....*.). |      [31]: "1992-10-25T05:00:17Z" (719989217) transition_time 0x487-0x48f (8)
0x480|                                             00|               .|      [32]: "1993-04-04T06:00:17Z" (733903217) transition_time 0x48f-0x497 (8)
0x490|00 00 00 2b be 79 71                           |...+.yq         |
0x490|                     00 00 00 00 2c d3 46 62   |       ....,.Fb |      [33]: "1993-10-31T05:00:18Z" (752043618) transition_time 0x497-0x49f (8)
0x490|                                             00|               .|      [34]: "1994-04-03T06:00:18Z" (765352818) transition_time 0x49f-0x4a7 (8)
0x4a0|00 00 00 2d 9e 5b 72                           |...-.[r         |
0x4a0|                     00 00 00 00 2e b3 28 63   |       ......(c |      [35]: "1994-10-30T05:00:19Z" (783493219) transition_time 0x4a7-0x4af (8)
0x4a0|                                             00|               .|      [36]: "1995-04-02T06:00:19Z" (796802419) transition_time 0x4af-0x4b7 (8)
0x4b0|00 00 00 2f 7e 3d 73                           |.../~=s         |
0x4b0|                     00 00 00 00 30 93 18 73   |       ....0..s |      [37]: "1995-10-29T06:00:19Z" (814946419) transition_time 0x4b7-0x4bf (8)
0x4b0|                                             00|               .|      [38]: "1996-04-07T07:00:20Z" (828860420) transition_time 0x4bf-0x4c7 (8)
0x4c0|00 00 00 31 67 68 04                           |...1gh.         |
0x4c0|                     00 00 00 00 32 72 fa 74   |       ....2r.t |      [39]: "1996-10-27T06:00:20Z" (846396020) transition_time 0x4c7-0x4cf (8)
0x4c0|                                             00|               .|      [40]: "1997-04-06T07:00:20Z" (860310020) transition_time 0x4cf-0x4d7 (8)
0x4d0|00 00 00 33 47 4a 04                           |...3GJ.         |
0x4d0|                     00 00 00 00 34 52 dc 75   |       ....4R.u |      [41]: "1997-10-26T06:00:21Z" (877845621) transition_time 0x4d7-0x4df (8)
0x4d0|                                             00|               .|      [42]: "1998-04-05T07:00:21Z" (891759621) transition_time 0x4df-0x4e7 (8)
0x4e0|00 00 00 35 27 2c 05                           |...5',.         |
0x4e0|                     00 00 00 00 36 32 be 75   |       ....62.u |      [43]: "1998-10-25T06:00:21Z" (909295221) transition_time 0x4e7-0x4ef (8)
0x4e0|                                             00|               .|      [44]: "1999-04-04T07:00:22Z" (923209222) transition_time 0x4ef-0x4f7 (8)
0x4f0|00 00 00 37 07 0e 06                           |...7...         |
0x4f0|                     00 00 00 00 38 1b da f6   |       ....8... |      [45]: "1999-10-31T06:00:22Z" (941349622) transition_time 0x4f7-0x4ff (8)
0x4f0|                                             00|               .|      [46]: "2000-04-02T08:00:22Z" (954662422) transition_time 0x4ff-0x507 (8)
0x500|00 00 00 38 e6 fe 16                           |...8...         |
0x500|                     00 00 00 00 39 fb cb 06   |       ....9... |      [47]: "2000-10-29T07:00:22Z" (972802822) transition_time 0x507-0x50f (8)
0x500|                                             00|               .|      [48]: "2001-04-01T07:00:22Z" (986108422) transition_time 0x50f-0x517 (8)
0x510|00 00 00 3a c6 d2 06                           |...:...         |
0x510|                     00 00 00 00 3b db 9e f6   |       ....;... |      [49]: "2001-10-28T06:00:22Z" (1004248822) transition_time 0x517-0x51f (8)
0x510|                                             00|               .|      [50]: "2002-04-07T07:00:22Z" (1018162822) transition_time 0x51f-0x527 (8)
0x520|00 00 00 3c af ee 86                           |...<...         |
0x520|                     00 00 00 00 3d bb 80 f6   |       ....=... |      [51]: "2002-10-27T06:00:22Z" (1035698422) transition_time 0x527-0x52f (8)
0x520|                                             00|               .|      [52]: "2003-04-06T07:00:22Z" (1049612422) transition_time 0x52f-0x537 (8)
0x530|00 00 00 3e 8f d0 86                           |...>...         |
0x530|                     00 00 00 00 3f 9b 62 f6   |       ....?.b. |      [53]: "2003-10-26T06:00:22Z" (1067148022) transition_time 0x537-0x53f (8)
0x530|                                             00|               .|      [54]: "2004-04-04T07:00:22Z" (1081062022) transition_time 0x53f-0x547 (8)
0x540|00 00 00 40 6f b2 86                           |...@o..         |
0x540|                     00 00 00 00 41 84 7f 76   |       ....A..v |      [55]: "2004-10-31T06:00:22Z" (1099202422) transition_time 0x547-0x54f (8)
0x540|                                             00|               .|      [56]: "2005-04-03T07:00:22Z" (1112511622) transition_time 0x54f-0x557 (8)
0x550|00 00 00 42 4f 94 86                           |...BO..         |
0x550|                     00 00 00 00 43 64 61 76   |       ....Cdav |      [57]: "2005-10-30T06:00:22Z" (1130652022) transition_time 0x557-0x55f (8)
0x550|                                             00|               .|      [58]: "2006-04-02T07:00:23Z" (1143961223) transition_time 0x55f-0x567 (8)
0x560|00 00 00 44 2f 76 87                           |...D/v.         |
0x560|                     00 00 00 00 45 44 43 77   |       ....EDCw |      [59]: "2006-10-29T06:00:23Z" (1162101623) transition_time 0x567-0x56f (8)
0x560|                                             00|               .|      [60]: "2007-03-11T07:00:23Z" (1173596423) transition_time 0x56f-0x577 (8)
0x570|00 00 00 45 f3 a9 07                           |...E...         |
0x570|                     00 00 00 00 47 2d 5f f7   |       ....G-_. |      [61]: "2007-11-04T06:00:23Z" (1194156023) transition_time 0x577-0x57f (8)
0x570|                                             00|               .|      [62]: "2008-03-09T07:00:23Z" (1205046023) transition_time 0x57f-0x587 (8)
0x580|00 00 00 47 d3 8b 07                           |...G...         |
0x580|                     00 00 00 00 49 0d 41 f7   |       ....I.A. |      [63]: "2008-11-02T06:00:23Z" (1225605623) transition_time 0x587-0x58f (8)
0x580|                                             00|               .|      [64]: "2009-03-08T07:00:24Z" (1236495624) transition_time 0x58f-0x597 (8)
0x590|00 00 00 49 b3 6d 08                           |...I.m.         |
0x590|                     00 00 00 00 4a ed 23 f8   |       ....J.#. |      [65]: "2009-11-01T06:00:24Z" (1257055224) transition_time 0x597-0x59f (8)
0x590|                                             00|               .|      [66]: "2010-03-14T07:00:24Z" (1268550024) transition_time 0x59f-0x5a7 (8)
0x5a0|00 00 00 4b 9c 89 88                           |...K...         |
0x5a0|                     00 00 00 00 4c d6 40 78   |       ....L.@x |      [67]: "2010-11-07T06:00:24Z" (1289109624) transition_time 0x5a7-0x5af (8)
0x5a0|                                             00|               .|      [68]: "2011-03-13T07:00:24Z" (1299999624) transition_time 0x5af-0x5b7 (8)
0x5b0|00 00 00 4d 7c 6b 88                           |...M|k.         |
0x5b0|                     00 00 00 00 4e b6 22 78   |       ....N."x |      [69]: "2011-11-06T06:00:24Z" (1320559224) transition_time 0x5b7-0x5bf (8)
0x5b0|                                             00|               .|      [70]: "2012-03-11T07:00:24Z" (1331449224) transition_time 0x5bf-0x5c7 (8)
0x5c0|00 00 00 4f 5c 4d 88                           |...O\M.         |
0x5c0|                     00 00 00 00 50 96 04 79   |       ....P..y |      [71]: "2012-11-04T06:00:25Z" (1352008825) transition_time 0x5c7-0x5cf (8)
0x5c0|                                             00|               .|      [72]: "2013-03-10T07:00:25Z" (1362898825) transition_time 0x5cf-0x5d7 (8)
0x5d0|00 00 00 51 3c 2f 89                           |...Q</.         |
0x5d0|                     00 00 00 00 52 75 e6 79   |       ....Ru.y |      [73]: "2013-11-03T06:00:25Z" (1383458425) transition_time 0x5d7-0x5df (8)
0x5d0|                                             00|               .|      [74]: "2014-03-09T07:00:25Z" (1394348425) transition_time 0x5df-0x5e7 (8)
0x5e0|00 00 00 53 1c 11 89                           |...S...         |
0x5e0|                     00 00 00 00 54 55 c8 79   |       ....TU.y |      [75]: "2014-11-02T06:00:25Z" (1414908025) transition_time 0x5e7-0x5ef (8)
0x5e0|                                             00|               .|      [76]: "2015-03-08T07:00:25Z" (1425798025) transition_time 0x5ef-0x5f7 (8)
0x5f0|00 00 00 54 fb f3 89                           |...T...         |
0x5f0|                     00 00 00 00 56 35 aa 7a   |       ....V5.z |      [77]: "2015-11-01T06:00:26Z" (1446357626) transition_time 0x5f7-0x5ff (8)
0x5f0|                                             00|               .|      [78]: "2016-03-13T07:00:26Z" (1457852426) transition_time 0x5ff-0x607 (8)
0x600|00 00 00 56 e5 10 0a                           |...V...         |
0x600|                     00 00 00 00 58 1e c6 fa   |       ....X... |      [79]: "2016-11-06T06:00:26Z" (1478412026) transition_time 0x607-0x60f (8)
0x600|                                             00|               .|      [80]: "2017-03-12T07:00:27Z" (1489302027) transition_time 0x60f-0x617 (8)
0x610|00 00 00 58 c4 f2 0b                           |...X...         |
0x610|                     00 00 00 00 59 fe a8 fb   |       ....Y... |      [81]: "2017-11-05T06:00:27Z" (1509861627) transition_time 0x617-0x61f (8)
0x610|                                             00|               .|      [82]: "2018-03-11T07:00:27Z" (1520751627) transition_time 0x61f-0x627 (8)
0x620|00 00 00 5a a4 d4 0b                           |...Z...         |
0x620|                     00 00 00 00 5b de 8a fb   |       ....[... |      [83]: "2018-11-04T06:00:27Z" (1541311227) transition_time 0x627-0x62f (8)
0x620|                                             00|               .|      [84]: "2019-03-10T07:00:27Z" (1552201227) transition_time 0x62f-0x637 (8)
0x630|00 00 00 5c 84 b6 0b                           |...\...         |
0x630|                     00 00 00 00 5d be 6c fb   |       ....].l. |      [85]: "2019-11-03T06:00:27Z" (1572760827) transition_time 0x637-0x63f (8)
0x630|                                             00|               .|      [86]: "2020-03-08T07:00:27Z" (1583650827) transition_time 0x63f-0x647 (8)
0x640|00 00 00 5e 64 98 0b                           |...^d..         |
0x640|                     00 00 00 00 5f 9e 4e fb   |       ...._.N. |      [87]: "2020-11-01T06:00:27Z" (1604210427) transition_time 0x647-0x64f (8)
0x640|                                             00|               .|      [88]: "2021-03-14T07:00:27Z" (1615705227) transition_time 0x64f-0x657 (8)
0x650|00 00 00 60 4d b4 8b                           |...`M..         |
0x650|                     00 00 00 00 61 87 6b 7b   |       ....a.k{ |      [89]: "2021-11-07T06:00:27Z" (1636264827) transition_time 0x657-0x65f (8)
0x650|                                             00|               .|      [90]: "2022-03-13T07:00:27Z" (1647154827) transition_time 0x65f-0x667 (8)
0x660|00 00 00 62 2d 96 8b                           |...b-..         |
0x660|                     00 00 00 00 63 67 4d 7b   |       ....cgM{ |      [91]: "2022-11-06T06:00:27Z" (1667714427) transition_time 0x667-0x66f (8)
0x660|                                             00|               .|      [92]: "2023-03-12T07:00:27Z" (1678604427) transition_time 0x66f-0x677 (8)
0x670|00 00 00 64 0d 78 8b                           |...d.x.         |
0x670|                     00 00 00 00 64 9b 78 1b   |       ....d.x. |      [93]: "2023-06-28T00:00:27Z" (1687910427) transition_time 0x677-0x67f (8)
     |                                               |                |    transition_types[0:94]: 0x67f-0x6dd (94)
0x670|                                             03|               .|      [0]: 3 transition_type 0x67f-0x680 (1)
0x680|01                                             |.               |      [1]: 1 transition_type 0x680-0x681 (1)
0x680|   02                                          | .              |      [2]: 2 transition_type 0x681-0x682 (1)
0x680|      03                                       |  .             |      [3]: 3 transition_type 0x682-0x683 (1)
0x680|         04                                    |   .            |      [4]: 4 transition_type 0x683-0x684 (1)
0x680|            03                                 |    .           |      [5]: 3 transition_type 0x684-0x685 (1)
0x680|               05                              |     .          |      [6]: 5 transition_type 0x685-0x686 (1)
0x680|                  03                           |      .         |      [7]: 3 transition_type 0x686-0x687 (1)
0x680|                     05                        |       .        |      [8]: 5 transition_type 0x687-0x688 (1)
0x680|                        03                     |        .       |      [9]: 3 transition_type 0x688-0x689 (1)
0x680|                           05                  |         .      |      [10]: 5 transition_type 0x689-0x68a (1)
0x680|                              03               |          .     |      [11]: 3 transition_type 0x68a-0x68b (1)
0x680|                                 05            |           .    |      [12]: 5 transition_type 0x68b-0x68c (1)
0x680|                                    03         |            .   |      [13]: 3 transition_type 0x68c-0x68d (1)
0x680|                                       05      |             .  |      [14]: 5 transition_type 0x68d-0x68e (1)
0x680|                                          03   |              . |      [15]: 3 transition_type 0x68e-0x68f (1)
0x680|                                             05|               .|      [16]: 5 transition_type 0x68f-0x690 (1)
0x690|03                                             |.               |      [17]: 3 transition_type 0x690-0x691 (1)
0x690|   05                                          | .              |      [18]: 5 transition_type 0x691-0x692 (1)
0x690|      03                                       |  .             |      [19]: 3 transition_type 0x692-0x693 (1)
0x690|         05                                    |   .            |      [20]: 5 transition_type 0x693-0x694 (1)
0x690|            03                                 |    .           |      [21]: 3 transition_type 0x694-0x695 (1)
0x690|               05                              |     .          |      [22]: 5 transition_type 0x695-0x696 (1)
0x690|                  03                           |      .         |      [23]: 3 transition_type 0x696-0x697 (1)
0x690|                     05                        |       .        |      [24]: 5 transition_type 0x697-0x698 (1)
0x690|                        03                     |        .       |      [25]: 3 transition_type 0x698-0x699 (1)
0x690|                           05                  |         .      |      [26]: 5 transition_type 0x699-0x69a (1)
0x690|                              03               |          .     |      [27]: 3 transition_type 0x69a-0x69b (1)
0x690|                                 05            |           .    |      [28]: 5 transition_type 0x69b-0x69c (1)
0x690|                                    03         |            .   |      [29]: 3 transition_type 0x69c-0x69d (1)
0x690|                                       05      |             .  |      [30]: 5 transition_type 0x69d-0x69e (1)
0x690|                                          03   |              . |      [31]: 3 transition_type 0x69e-0x69f (1)
0x690|                                             05|               .|      [32]: 5 transition_type 0x69f-0x6a0 (1)
0x6a0|03                                             |.               |      [33]: 3 transition_type 0x6a0-0x6a1 (1)
0x6a0|   05                                          | .              |      [34]: 5 transition_type 0x6a1-0x6a2 (1)
0x6a0|      03                                       |  .             |      [35]: 3 transition_type 0x6a2-0x6a3 (1)
0x6a0|         06                                    |   .            |      [36]: 6 transition_type 0x6a3-0x6a4 (1)
0x6a0|            07                                 |    .           |      [37]: 7 transition_type 0x6a4-0x6a5 (1)
0x6a0|               06                              |     .          |      [38]: 6 transition_type 0x6a5-0x6a6 (1)
0x6a0|                  07                           |      .         |      [39]: 7 transition_type 0x6a6-0x6a7 (1)
0x6a0|                     06                        |       .        |      [40]: 6 transition_type 0x6a7-0x6a8 (1)
0x6a0|                        07                     |        .       |      [41]: 7 transition_type 0x6a8-0x6a9 (1)
0x6a0|                           06                  |         .      |      [42]: 6 transition_type 0x6a9-0x6aa (1)
0x6a0|                              07               |          .     |      [43]: 7 transition_type 0x6aa-0x6ab (1)
0x6a0|                                 06            |           .    |      [44]: 6 transition_type 0x6ab-0x6ac (1)
0x6a0|                                    08         |            .   |      [45]: 8 transition_type 0x6ac-0x6ad (1)
0x6a0|                                       09      |             .  |      [46]: 9 transition_type 0x6ad-0x6ae (1)
0x6a0|                                          07   |              . |      [47]: 7 transition_type 0x6ae-0x6af (1)
0x6a0|                                             06|               .|      [48]: 6 transition_type 0x6af-0x6b0 (1)
0x6b0|07                                             |.               |      [49]: 7 transition_type 0x6b0-0x6b1 (1)
0x6b0|   06                                          | .              |      [50]: 6 transition_type 0x6b1-0x6b2 (1)
0x6b0|      07                                       |  .             |      [51]: 7 transition_type 0x6b2-0x6b3 (1)
0x6b0|         06                                    |   .            |      [52]: 6 transition_type 0x6b3-0x6b4 (1)
0x6b0|            07                                 |    .           |      [53]: 7 transition_type 0x6b4-0x6b5 (1)
0x6b0|               06                              |     .          |      [54]: 6 transition_type 0x6b5-0x6b6 (1)
0x6b0|                  07                           |      .         |      [55]: 7 transition_type 0x6b6-0x6b7 (1)
0x6b0|                     06                        |       .        |      [56]: 6 transition_type 0x6b7-0x6b8 (1)
0x6b0|                        07                     |        .       |      [57]: 7 transition_type 0x6b8-0x6b9 (1)
0x6b0|                           06                  |         .      |      [58]: 6 transition_type 0x6b9-0x6ba (1)
0x6b0|                              07               |          .     |      [59]: 7 transition_type 0x6ba-0x6bb (1)
0x6b0|                                 06            |           .    |      [60]: 6 transition_type 0x6bb-0x6bc (1)
0x6b0|                                    07         |            .   |      [61]: 7 transition_type 0x6bc-0x6bd (1)
0x6b0|                                       06      |             .  |      [62]: 6 transition_type 0x6bd-0x6be (1)
0x6b0|                                          07   |              . |      [63]: 7 transition_type 0x6be-0x6bf (1)
0x6b0|                                             06|               .|      [64]: 6 transition_type 0x6bf-0x6c0 (1)
0x6c0|07                                             |.               |      [65]: 7 transition_type 0x6c0-0x6c1 (1)
0x6c0|   06                                          | .              |      [66]: 6 transition_type 0x6c1-0x6c2 (1)
0x6c0|      07                                       |  .             |      [67]: 7 transition_type 0x6c2-0x6c3 (1)
0x6c0|         06                                    |   .            |      [68]: 6 transition_type 0x6c3-0x6c4 (1)
0x6c0|            07                                 |    .           |      [69]: 7 transition_type 0x6c4-0x6c5 (1)
0x6c0|               06                              |     .          |      [70]: 6 transition_type 0x6c5-0x6c6 (1)
0x6c0|                  07                           |      .         |      [71]: 7 transition_type 0x6c6-0x6c7 (1)
0x6c0|                     06                        |       .        |      [72]: 6 transition_type 0x6c7-0x6c8 (1)
0x6c0|                        07                     |        .       |      [73]: 7 transition_type 0x6c8-0x6c9 (1)
0x6c0|                           06                  |         .      |      [74]: 6 transition_type 0x6c9-0x6ca (1)
0x6c0|                              07               |          .     |      [75]: 7 transition_type 0x6ca-0x6cb (1)
0x6c0|                                 06            |           .    |      [76]: 6 transition_type 0x6cb-0x6cc (1)
0x6c0|                                    07         |            .   |      [77]: 7 transition_type 0x6cc-0x6cd (1)
0x6c0|                                       06      |             .  |      [78]: 6 transition_type 0x6cd-0x6ce (1)
0x6c0|                                          07   |              . |      [79]: 7 transition_type 0x6ce-0x6cf (1)
0x6c0|                                             06|               .|      [80]: 6 transition_type 0x6cf-0x6d0 (1)
0x6d0|07                                             |.               |      [81]: 7 transition_type 0x6d0-0x6d1 (1)
0x6d0|   06                                          | .              |      [82]: 6 transition_type 0x6d1-0x6d2 (1)
0x6d0|      07                                       |  .             |      [83]: 7 transition_type 0x6d2-0x6d3 (1)
0x6d0|         06                                    |   .            |      [84]: 6 transition_type 0x6d3-0x6d4 (1)
0x6d0|            07                                 |    .           |      [85]: 7 transition_type 0x6d4-0x6d5 (1)
0x6d0|               06                              |     .          |      [86]: 6 transition_type 0x6d5-0x6d6 (1)
0x6d0|                  07                           |      .         |      [87]: 7 transition_type 0x6d6-0x6d7 (1)
0x6d0|                     06                        |       .        |      [88]: 6 transition_type 0x6d7-0x6d8 (1)
0x6d0|                        07                     |        .       |      [89]: 7 transition_type 0x6d8-0x6d9 (1)
0x6d0|                           06                  |         .      |      [90]: 6 transition_type 0x6d9-0x6da (1)
0x6d0|                              07               |          .     |      [91]: 7 transition_type 0x6da-0x6db (1)
0x6d0|                                 06            |           .    |      [92]: 6 transition_type 0x6db-0x6dc (1)
0x6d0|                                    06         |            .   |      [93]: 6 transition_type 0x6dc-0x6dd (1)
     |                                               |                |    local_time_type_records[0:12]: 0x6dd-0x725 (72)
     |                                               |                |      [0]{}: local_time_type 0x6dd-0x6e3 (6)
0x6d0|                                       00 00 00|             ...|        utoff: 0 (valid) 0x6dd-0x6e1 (4)
0x6e0|00                                             |.               |
0x6e0|   00                                          | .              |        dst: 0 (valid) 0x6e1-0x6e2 (1)
0x6e0|      00                                       |  .             |        idx: 0 (valid) 0x6e2-0x6e3 (1)
     |                                               |                |      [1]{}: local_time_type 0x6e3-0x6e9 (6)
0x6e0|         ff ff d5 d0                           |   ....         |        utoff: -10800 (valid) 0x6e3-0x6e7 (4)
0x6e0|                     01                        |       .        |        dst: 1 (valid) 0x6e7-0x6e8 (1)
0x6e0|                        04                     |        .       |        idx: 4 (valid) 0x6e8-0x6e9 (1)
     |                                               |                |      [2]{}: local_time_type 0x6e9-0x6ef (6)
0x6e0|                           ff ff d5 d0         |         ....   |        utoff: -10800 (valid) 0x6e9-0x6ed (4)
0x6e0|                                       01      |             .  |        dst: 1 (valid) 0x6ed-0x6ee (1)
0x6e0|                                          08   |              . |        idx: 8 (valid) 0x6ee-0x6ef (1)
     |                                               |                |      [3]{}: local_time_type 0x6ef-0x6f5 (6)
0x6e0|                                             ff|               .|        utoff: -14400 (valid) 0x6ef-0x6f3 (4)
0x6f0|ff c7 c0                                       |...             |
0x6f0|         00                                    |   .            |        dst: 0 (valid) 0x6f3-0x6f4 (1)
0x6f0|            0c                                 |    .           |        idx: 12 (valid) 0x6f4-0x6f5 (1)
     |                                               |                |      [4]{}: local_time_type 0x6f5-0x6fb (6)
0x6f0|               ff ff e3 e0                     |     ....       |        utoff: -7200 (valid) 0x6f5-0x6f9 (4)
0x6f0|                           01                  |         .      |        dst: 1 (valid) 0x6f9-0x6fa (1)
0x6f0|                              10               |          .     |        idx: 16 (valid) 0x6fa-0x6fb (1)
     |                                               |                |      [5]{}: local_time_type 0x6fb-0x701 (6)
0x6f0|                                 ff ff d5 d0   |           .... |        utoff: -10800 (valid) 0x6fb-0x6ff (4)
0x6f0|                                             01|               .|        dst: 1 (valid) 0x6ff-0x700 (1)
0x700|15                                             |.               |        idx: 21 (valid) 0x700-0x701 (1)
     |                                               |                |      [6]{}: local_time_type 0x701-0x707 (6)
0x700|   ff ff c7 c0                                 | ....           |        utoff: -14400 (valid) 0x701-0x705 (4)
0x700|               01                              |     .          |        dst: 1 (valid) 0x705-0x706 (1)
0x700|                  19                           |      .         |        idx: 25 (valid) 0x706-0x707 (1)
     |                                               |                |      [7]{}: local_time_type 0x707-0x70d (6)
0x700|                     ff ff b9 b0               |       ....     |        utoff: -18000 (valid) 0x707-0x70b (4)
0x700|                                 00            |           .    |        dst: 0 (valid) 0x70b-0x70c (1)
0x700|                                    1d         |            .   |        idx: 29 (valid) 0x70c-0x70d (1)
     |                                               |                |      [8]{}: local_time_type 0x70d-0x713 (6)
0x700|                                       ff ff ab|             ...|        utoff: -21600 (valid) 0x70d-0x711 (4)
0x710|a0                                             |.               |
0x710|   00                                          | .              |        dst: 0 (valid) 0x711-0x712 (1)
0x710|      21                                       |  !             |        idx: 33 (valid) 0x712-0x713 (1)
     |                                               |                |      [9]{}: local_time_type 0x713-0x719 (6)
0x710|         ff ff b9 b0                           |   ....         |        utoff: -18000 (valid) 0x713-0x717 (4)
0x710|                     01                        |       .        |        dst: 1 (valid) 0x717-0x718 (1)
0x710|                        25                     |        %       |        idx: 37 (valid) 0x718-0x719 (1)
     |                                               |                |      [10]{}: local_time_type 0x719-0x71f (6)
0x710|                           ff ff c7 c0         |         ....   |        utoff: -14400 (valid) 0x719-0x71d (4)
0x710|                                       01      |             .  |        dst: 1 (valid) 0x71d-0x71e (1)
0x710|                                          19   |              . |        idx: 25 (valid) 0x71e-0x71f (1)
     |                                               |                |      [11]{}: local_time_type 0x71f-0x725 (6)
0x710|                                             ff|               .|        utoff: -18000 (valid) 0x71f-0x723 (4)
0x720|ff b9 b0                                       |...             |
0x720|         00                                    |   .            |        dst: 0 (valid) 0x723-0x724 (1)
0x720|            1d                                 |    .           |        idx: 29 (valid) 0x724-0x725 (1)
     |                                               |                |    time_zone_designations[0:10]: 0x725-0x74e (41)
0x720|               2d 30 30 00                     |     -00.       |      [0]: "-00" time_zone_designation 0x725-0x729 (4)
0x720|                           41 57 54 00         |         AWT.   |      [1]: "AWT" time_zone_designation 0x729-0x72d (4)
0x720|                                       41 50 54|             APT|      [2]: "APT" time_zone_designation 0x72d-0x731 (4)
0x730|00                                             |.               |
0x730|   41 53 54 00                                 | AST.           |      [3]: "AST" time_zone_designation 0x731-0x735 (4)
0x730|               41 44 44 54 00                  |     ADDT.      |      [4]: "ADDT" time_zone_designation 0x735-0x73a (5)
0x730|                              41 44 54 00      |          ADT.  |      [5]: "ADT" time_zone_designation 0x73a-0x73e (4)
0x730|                                          45 44|              ED|      [6]: "EDT" time_zone_designation 0x73e-0x742 (4)
0x740|54 00                                          |T.              |
0x740|      45 53 54 00                              |  EST.          |      [7]: "EST" time_zone_designation 0x742-0x746 (4)
0x740|                  43 53 54 00                  |      CST.      |      [8]: "CST" time_zone_designation 0x746-0x74a (4)
0x740|                              43 44 54 00      |          CDT.  |      [9]: "CDT" time_zone_designation 0x74a-0x74e (4)
     |                                               |                |    leap_second_records[0:27]: 0x74e-0x892 (324)
     |                                               |                |      [0]{}: leap_second_record 0x74e-0x75a (12)
0x740|                                          00 00|              ..|        occur: "1972-07-01T00:00:00Z" (78796800) 0x74e-0x756 (8)
0x750|00 00 04 b2 58 00                              |....X.          |
0x750|                  00 00 00 01                  |      ....      |        corr: 1 0x756-0x75a (4)
     |                                               |                |      [1]{}: leap_second_record 0x75a-0x766 (12)
0x750|                              00 00 00 00 05 a4|          ......|        occur: "1973-01-01T00:00:01Z" (94694401) 0x75a-0x762 (8)
0x760|ec 01                                          |..              |
0x760|      00 00 00 02                              |  ....          |        corr: 2 0x762-0x766 (4)
     |                                               |                |      [2]{}: leap_second_record 0x766-0x772 (12)
0x760|                  00 00 00 00 07 86 1f 82      |      ........  |        occur: "1974-01-01T00:00:02Z" (126230402) 0x766-0x76e (8)
0x760|                                          00 00|              ..|        corr: 3 0x76e-0x772 (4)
0x770|00 03                                          |..              |
     |                                               |                |      [3]{}: leap_second_record 0x772-0x77e (12)
0x770|      00 00 00 00 09 67 53 03                  |  .....gS.      |        occur: "1975-01-01T00:00:03Z" (157766403) 0x772-0x77a (8)
0x770|                              00 00 00 04      |          ....  |        corr: 4 0x77a-0x77e (4)
     |                                               |                |      [4]{}: leap_second_record 0x77e-0x78a (12)
0x770|                                          00 00|              ..|        occur: "1976-01-01T00:00:04Z" (189302404) 0x77e-0x786 (8)
0x780|00 00 0b 48 86 84                              |...H..          |
0x780|                  00 00 00 05                  |      ....      |        corr: 5 0x786-0x78a (4)
     |                                               |                |      [5]{}: leap_second_record 0x78a-0x796 (12)
0x780|                              00 00 00 00 0d 2b|          .....+|        occur: "1977-01-01T00:00:05Z" (220924805) 0x78a-0x792 (8)
0x790|0b 85                                          |..              |
0x790|      00 00 00 06                              |  ....          |        corr: 6 0x792-0x796 (4)
     |                                               |                |      [6]{}: leap_second_record 0x796-0x7a2 (12)
0x790|                  00 00 00 00 0f 0c 3f 06      |      ......?.  |        occur: "1978-01-01T00:00:06Z" (252460806) 0x796-0x79e (8)
0x790|                                          00 00|              ..|        corr: 7 0x79e-0x7a2 (4)
0x7a0|00 07                                          |..              |
     |                                               |                |      [7]{}: leap_second_record 0x7a2-0x7ae (12)
0x7a0|      00 00 00 00 10 ed 72 87                  |  ......r.      |        occur: "1979-01-01T00:00:07Z" (283996807) 0x7a2-0x7aa (8)
0x7a0|                              00 00 00 08      |          ....  |        corr: 8 0x7aa-0x7ae (4)
     |                                               |                |      [8]{}: leap_second_record 0x7ae-0x7ba (12)
0x7a0|                                          00 00|              ..|        occur: "1980-01-01T00:00:08Z" (315532808) 0x7ae-0x7b6 (8)
0x7b0|00 00 12 ce a6 08                              |......          |
0x7b0|                  00 00 00 09                  |      ....      |        corr: 9 0x7b6-0x7ba (4)
     |                                               |                |      [9]{}: leap_second_record 0x7ba-0x7c6 (12)
0x7b0|                              00 00 00 00 15 9f|          ......|        occur: "1981-07-01T00:00:09Z" (362793609) 0x7ba-0x7c2 (8)
0x7c0|ca 89                                          |..              |
0x7c0|      00 00 00 0a                              |  ....          |        corr: 10 0x7c2-0x7c6 (4)
     |                                               |                |      [10]{}: leap_second_record 0x7c6-0x7d2 (12)
0x7c0|                  00 00 00 00 17 80 fe 0a      |      ........  |        occur: "1982-07-01T00:00:10Z" (394329610) 0x7c6-0x7ce (8)
0x7c0|                                          00 00|              ..|        corr: 11 0x7ce-0x7d2 (4)
0x7d0|00 0b                                          |..              |
     |                                               |                |      [11]{}: leap_second_record 0x7d2-0x7de (12)
0x7d0|      00 00 00 00 19 62 31 8b                  |  .....b1.      |        occur: "1983-07-01T00:00:11Z" (425865611) 0x7d2-0x7da (8)
0x7d0|                              00 00 00 0c      |          ....  |        corr: 12 0x7da-0x7de (4)
     |                                               |                |      [12]{}: leap_second_record 0x7de-0x7ea (12)
0x7d0|                                          00 00|              ..|        occur: "1985-07-01T00:00:12Z" (489024012) 0x7de-0x7e6 (8)
0x7e0|00 00 1d 25 ea 0c                              |...%..          |
0x7e0|                  00 00 00 0d                  |      ....      |        corr: 13 0x7e6-0x7ea (4)
     |                                               |                |      [13]{}: leap_second_record 0x7ea-0x7f6 (12)
0x7e0|                              00 00 00 00 21 da|          ....!.|        occur: "1988-01-01T00:00:13Z" (567993613) 0x7ea-0x7f2 (8)
0x7f0|e5 0d                                          |..              |
0x7f0|      00 00 00 0e                              |  ....          |        corr: 14 0x7f2-0x7f6 (4)
     |                                               |                |      [14]{}: leap_second_record 0x7f6-0x802 (12)
0x7f0|                  00 00 00 00 25 9e 9d 8e      |      ....%...  |        occur: "1990-01-01T00:00:14Z" (631152014) 0x7f6-0x7fe (8)
0x7f0|                                          00 00|              ..|        corr: 15 0x7fe-0x802 (4)
0x800|00 0f                                          |..              |
     |                                               |                |      [15]{}: leap_second_record 0x802-0x80e (12)
0x800|      00 00 00 00 27 7f d1 0f                  |  ....'...      |        occur: "1991-01-01T00:00:15Z" (662688015) 0x802-0x80a (8)
0x800|                              00 00 00 10      |          ....  |        corr: 16 0x80a-0x80e (4)
     |                                               |                |      [16]{}: leap_second_record 0x80e-0x81a (12)
0x800|                                          00 00|              ..|        occur: "1992-07-01T00:00:16Z" (709948816) 0x80e-0x816 (8)
0x810|00 00 2a 50 f5 90                              |..*P..          |
0x810|                  00 00 00 11                  |      ....      |        corr: 17 0x816-0x81a (4)
     |                                               |                |      [17]{}: leap_second_record 0x81a-0x826 (12)
0x810|                              00 00 00 00 2c 32|          ....,2|        occur: "1993-07-01T00:00:17Z" (741484817) 0x81a-0x822 (8)
0x820|29 11                                          |).              |
0x820|      00 00 00 12                              |  ....          |        corr: 18 0x822-0x826 (4)
     |                                               |                |      [18]{}: leap_second_record 0x826-0x832 (12)
0x820|                  00 00 00 00 2e 13 5c 92      |      ......\.  |        occur: "1994-07-01T00:00:18Z" (773020818) 0x826-0x82e (8)
0x820|                                          00 00|              ..|        corr: 19 0x82e-0x832 (4)
0x830|00 13                                          |..              |
     |                                               |                |      [19]{}: leap_second_record 0x832-0x83e (12)
0x830|      00 00 00 00 30 e7 24 13                  |  ....0.$.      |        occur: "1996-01-01T00:00:19Z" (820454419) 0x832-0x83a (8)
0x830|                              00 00 00 14      |          ....  |        corr: 20 0x83a-0x83e (4)
     |                                               |                |      [20]{}: leap_second_record 0x83e-0x84a (12)
0x830|                                          00 00|              ..|        occur: "1997-07-01T00:00:20Z" (867715220) 0x83e-0x846 (8)
0x840|00 00 33 b8 48 94                              |..3.H.          |
0x840|                  00 00 00 15                  |      ....      |        corr: 21 0x846-0x84a (4)
     |                                               |                |      [21]{}: leap_second_record 0x84a-0x856 (12)
0x840|                              00 00 00 00 36 8c|          ....6.|        occur: "1999-01-01T00:00:21Z" (915148821) 0x84a-0x852 (8)
0x850|10 15                                          |..              |
0x850|      00 00 00 16                              |  ....          |        corr: 22 0x852-0x856 (4)
     |                                               |                |      [22]{}: leap_second_record 0x856-0x862 (12)
0x850|                  00 00 00 00 43 b7 1b 96      |      ....C...  |        occur: "2006-01-01T00:00:22Z" (1136073622) 0x856-0x85e (8)
0x850|                                          00 00|              ..|        corr: 23 0x85e-0x862 (4)
0x860|00 17                                          |..              |
     |                                               |                |      [23]{}: leap_second_record 0x862-0x86e (12)
0x860|      00 00 00 00 49 5c 07 97                  |  ....I\..      |        occur: "2009-01-01T00:00:23Z" (1230768023) 0x862-0x86a (8)
0x860|                              00 00 00 18      |          ....  |        corr: 24 0x86a-0x86e (4)
     |                                               |                |      [24]{}: leap_second_record 0x86e-0x87a (12)
0x860|                                          00 00|              ..|        occur: "2012-07-01T00:00:24Z" (1341100824) 0x86e-0x876 (8)
0x870|00 00 4f ef 93 18                              |..O...          |
0x870|                  00 00 00 19                  |      ....      |        corr: 25 0x876-0x87a (4)
     |                                               |                |      [25]{}: leap_second_record 0x87a-0x886 (12)
0x870|                              00 00 00 00 55 93|          ....U.|        occur: "2015-07-01T00:00:25Z" (1435708825) 0x87a-0x882 (8)
0x880|2d 99                                          |-.              |
0x880|      00 00 00 1a                              |  ....          |        corr: 26 0x882-0x886 (4)
     |                                               |                |      [26]{}: leap_second_record 0x886-0x892 (12)
0x880|                  00 00 00 00 58 68 46 9a      |      ....XhF.  |        occur: "2017-01-01T00:00:26Z" (1483228826) 0x886-0x88e (8)
0x880|                                          00 00|              ..|        corr: 27 0x88e-0x892 (4)
0x890|00 1b                                          |..              |
     |                                               |                |    standard_wall_indicators[0:12]: 0x892-0x89e (12)
0x890|      00                                       |  .             |      [0]: 0 standard_wall_indicator (valid) 0x892-0x893 (1)
0x890|         00                                    |   .            |      [1]: 0 standard_wall_indicator (valid) 0x893-0x894 (1)
0x890|            01                                 |    .           |      [2]: 1 standard_wall_indicator (valid) 0x894-0x895 (1)
0x890|               00                              |     .          |      [3]: 0 standard_wall_indicator (valid) 0x895-0x896 (1)
0x890|                  00                           |      .         |      [4]: 0 standard_wall_indicator (valid) 0x896-0x897 (1)
0x890|                     00                        |       .        |      [5]: 0 standard_wall_indicator (valid) 0x897-0x898 (1)
0x890|                        00                     |        .       |      [6]: 0 standard_wall_indicator (valid) 0x898-0x899 (1)
0x890|                           00                  |         .      |      [7]: 0 standard_wall_indicator (valid) 0x899-0x89a (1)
0x890|                              00               |          .     |      [8]: 0 standard_wall_indicator (valid) 0x89a-0x89b (1)
0x890|                                 00            |           .    |      [9]: 0 standard_wall_indicator (valid) 0x89b-0x89c (1)
0x890|                                    00         |            .   |      [10]: 0 standard_wall_indicator (valid) 0x89c-0x89d (1)
0x890|                                       00      |             .  |      [11]: 0 standard_wall_indicator (valid) 0x89d-0x89e (1)
     |                                               |                |    ut_local_indicators[0:12]: 0x89e-0x8aa (12)
0x890|                                          00   |              . |      [0]: 0 ut_local_indicator (valid) 0x89e-0x89f (1)
0x890|                                             00|               .|      [1]: 0 ut_local_indicator (valid) 0x89f-0x8a0 (1)
0x8a0|01                                             |.               |      [2]: 1 ut_local_indicator (valid) 0x8a0-0x8a1 (1)
0x8a0|   00                                          | .              |      [3]: 0 ut_local_indicator (valid) 0x8a1-0x8a2 (1)
0x8a0|      00                                       |  .             |      [4]: 0 ut_local_indicator (valid) 0x8a2-0x8a3 (1)
0x8a0|         00                                    |   .            |      [5]: 0 ut_local_indicator (valid) 0x8a3-0x8a4 (1)
0x8a0|            00                                 |    .           |      [6]: 0 ut_local_indicator (valid) 0x8a4-0x8a5 (1)
0x8a0|               00                              |     .          |      [7]: 0 ut_local_indicator (valid) 0x8a5-0x8a6 (1)
0x8a0|                  00                           |      .         |      [8]: 0 ut_local_indicator (valid) 0x8a6-0x8a7 (1)
0x8a0|                     00                        |       .        |      [9]: 0 ut_local_indicator (valid) 0x8a7-0x8a8 (1)
0x8a0|                        00                     |        .       |      [10]: 0 ut_local_indicator (valid) 0x8a8-0x8a9 (1)
0x8a0|                           00                  |         .      |      [11]: 0 ut_local_indicator (valid) 0x8a9-0x8aa (1)
     |                                               |                |  footer{}: 0x8aa-0x8ac (2)
0x8a0|                              0a               |          .     |    nl1: 10 (valid) 0x8aa-0x8ab (1)
     |                                               |                |    tz_string: "" 0x8ab-0x8ab (0)
0x8a0|                                 0a|           |           .|   |    nl2: 10 (valid) 0x8ab-0x8ac (1)
