$ fq -d tzif dv Paris
     |00 01 02 03 04 05 06 07 08 09 0a 0b 0c 0d 0e 0f|0123456789abcdef|.{}: Paris (tzif) 0x0-0xb92 (2962)
     |                                               |                |  v1header{}: 0x0-0x2c (44)
0x000|54 5a 69 66                                    |TZif            |    magic: 0x545a6966 (valid) 0x0-0x4 (4)
0x000|            32                                 |    2           |    ver: "2" (0x32) (valid) 0x4-0x5 (1)
0x000|               00 00 00 00 00 00 00 00 00 00 00|     ...........|    reserved: raw bits 0x5-0x14 (15)
0x010|00 00 00 00                                    |....            |
0x010|            00 00 00 0d                        |    ....        |    isutcnt: 13 0x14-0x18 (4)
0x010|                        00 00 00 0d            |        ....    |    isstdcnt: 13 0x18-0x1c (4)
0x010|                                    00 00 00 00|            ....|    leapcnt: 0 0x1c-0x20 (4)
0x020|00 00 00 b8                                    |....            |    timecnt: 184 0x20-0x24 (4)
0x020|            00 00 00 0d                        |    ....        |    typecnt: 13 0x24-0x28 (4)
0x020|                        00 00 00 1f            |        ....    |    charcnt: 31 0x28-0x2c (4)
     |                                               |                |  v1datablock{}: 0x2c-0x44b (1055)
     |                                               |                |    transition_times[0:184]: 0x2c-0x30c (736)
0x020|                                    80 00 00 00|            ....|      [0]: "1901-12-13T20:45:52Z" (-2147483648) transition_time 0x2c-0x30 (4)
0x030|91 60 50 4f                                    |.`PO            |      [1]: "1911-03-10T23:50:39Z" (-1855958961) transition_time 0x30-0x34 (4)
0x030|            9b 47 78 f0                        |    .Gx.        |      [2]: "1916-06-14T23:00:00Z" (-1689814800) transition_time 0x34-0x38 (4)
0x030|                        9b d7 2c 70            |        ..,p    |      [3]: "1916-10-01T23:00:00Z" (-1680397200) transition_time 0x38-0x3c (4)
0x030|                                    9c bc 91 70|            ...p|      [4]: "1917-03-24T23:00:00Z" (-1665363600) transition_time 0x3c-0x40 (4)
0x040|9d c0 48 f0                                    |..H.            |      [5]: "1917-10-07T23:00:00Z" (-1648342800) transition_time 0x40-0x44 (4)
0x040|            9e 89 fe 70                        |    ...p        |      [6]: "1918-03-09T23:00:00Z" (-1635123600) transition_time 0x44-0x48 (4)
0x040|                        9f a0 2a f0            |        ..*.    |      [7]: "1918-10-06T23:00:00Z" (-1616893200) transition_time 0x48-0x4c (4)
0x040|                                    a0 60 a5 f0|            .`..|      [8]: "1919-03-01T23:00:00Z" (-1604278800) transition_time 0x4c-0x50 (4)
0x050|a1 80 0c f0                                    |....            |      [9]: "1919-10-05T23:00:00Z" (-1585443600) transition_time 0x50-0x54 (4)
0x050|            a2 2e 12 f0                        |    ....        |      [10]: "1920-02-14T23:00:00Z" (-1574038800) transition_time 0x54-0x58 (4)
0x050|                        a3 7a 4c f0            |        .zL.    |      [11]: "1920-10-23T23:00:00Z" (-1552266000) transition_time 0x58-0x5c (4)
0x050|                                    a4 35 81 f0|            .5..|      [12]: "1921-03-14T23:00:00Z" (-1539997200) transition_time 0x5c-0x60 (4)
0x060|a5 5e 23 70                                    |.^#p            |      [13]: "1921-10-25T23:00:00Z" (-1520557200) transition_time 0x60-0x64 (4)
0x060|            a6 25 35 f0                        |    .%5.        |      [14]: "1922-03-25T23:00:00Z" (-1507510800) transition_time 0x64-0x68 (4)
0x060|                        a7 27 9b f0            |        .'..    |      [15]: "1922-10-07T23:00:00Z" (-1490576400) transition_time 0x68-0x6c (4)
0x060|                                    a8 58 26 70|            .X&p|      [16]: "1923-05-26T23:00:00Z" (-1470618000) transition_time 0x6c-0x70 (4)
0x070|a9 07 7d f0                                    |..}.            |      [17]: "1923-10-06T23:00:00Z" (-1459126800) transition_time 0x70-0x74 (4)
0x070|            a9 ee 34 70                        |    ..4p        |      [18]: "1924-03-29T23:00:00Z" (-1444006800) transition_time 0x74-0x78 (4)
0x070|                        aa e7 5f f0            |        .._.    |      [19]: "1924-10-04T23:00:00Z" (-1427677200) transition_time 0x78-0x7c (4)
0x070|                                    ab d7 50 f0|            ..P.|      [20]: "1925-04-04T23:00:00Z" (-1411952400) transition_time 0x7c-0x80 (4)
0x080|ac c7 41 f0                                    |..A.            |      [21]: "1925-10-03T23:00:00Z" (-1396227600) transition_time 0x80-0x84 (4)
0x080|            ad c9 a7 f0                        |    ....        |      [22]: "1926-04-17T23:00:00Z" (-1379293200) transition_time 0x84-0x88 (4)
0x080|                        ae a7 23 f0            |        ..#.    |      [23]: "1926-10-02T23:00:00Z" (-1364778000) transition_time 0x88-0x8c (4)
0x080|                                    af a0 4f 70|            ..Op|      [24]: "1927-04-09T23:00:00Z" (-1348448400) transition_time 0x8c-0x90 (4)
0x090|b0 87 05 f0                                    |....            |      [25]: "1927-10-01T23:00:00Z" (-1333328400) transition_time 0x90-0x94 (4)
0x090|            b1 89 6b f0                        |    ..k.        |      [26]: "1928-04-14T23:00:00Z" (-1316394000) transition_time 0x94-0x98 (4)
0x090|                        b2 70 22 70            |        .p"p    |      [27]: "1928-10-06T23:00:00Z" (-1301274000) transition_time 0x98-0x9c (4)
0x090|                                    b3 72 88 70|            .r.p|      [28]: "1929-04-20T23:00:00Z" (-1284339600) transition_time 0x9c-0xa0 (4)
0x0a0|b4 50 04 70                                    |.P.p            |      [29]: "1929-10-05T23:00:00Z" (-1269824400) transition_time 0xa0-0xa4 (4)
0x0a0|            b5 49 2f f0                        |    .I/.        |      [30]: "1930-04-12T23:00:00Z" (-1253494800) transition_time 0xa4-0xa8 (4)
0x0a0|                        b6 2f e6 70            |        ./.p    |      [31]: "1930-10-04T23:00:00Z" (-1238374800) transition_time 0xa8-0xac (4)
0x0a0|                                    b7 32 4c 70|            .2Lp|      [32]: "1931-04-18T23:00:00Z" (-1221440400) transition_time 0xac-0xb0 (4)
0x0b0|b8 0f c8 70                                    |...p            |      [33]: "1931-10-03T23:00:00Z" (-1206925200) transition_time 0xb0-0xb4 (4)
0x0b0|            b8 ff b9 70                        |    ...p        |      [34]: "1932-04-02T23:00:00Z" (-1191200400) transition_time 0xb4-0xb8 (4)
0x0b0|                        b9 ef aa 70            |        ...p    |      [35]: "1932-10-01T23:00:00Z" (-1175475600) transition_time 0xb8-0xbc (4)
0x0b0|                                    ba d6 60 f0|            ..`.|      [36]: "1933-03-25T23:00:00Z" (-1160355600) transition_time 0xbc-0xc0 (4)
0x0c0|bb d8 c6 f0                                    |....            |      [37]: "1933-10-07T23:00:00Z" (-1143421200) transition_time 0xc0-0xc4 (4)
0x0c0|            bc c8 b7 f0                        |    ....        |      [38]: "1934-04-07T23:00:00Z" (-1127696400) transition_time 0xc4-0xc8 (4)
0x0c0|                        bd b8 a8 f0            |        ....    |      [39]: "1934-10-06T23:00:00Z" (-1111971600) transition_time 0xc8-0xcc (4)
0x0c0|                                    be 9f 5f 70|            .._p|      [40]: "1935-03-30T23:00:00Z" (-1096851600) transition_time 0xcc-0xd0 (4)
0x0d0|bf 98 8a f0                                    |....            |      [41]: "1935-10-05T23:00:00Z" (-1080522000) transition_time 0xd0-0xd4 (4)
0x0d0|            c0 9a f0 f0                        |    ....        |      [42]: "1936-04-18T23:00:00Z" (-1063587600) transition_time 0xd4-0xd8 (4)
0x0d0|                        c1 78 6c f0            |        .xl.    |      [43]: "1936-10-03T23:00:00Z" (-1049072400) transition_time 0xd8-0xdc (4)
0x0d0|                                    c2 68 5d f0|            .h].|      [44]: "1937-04-03T23:00:00Z" (-1033347600) transition_time 0xdc-0xe0 (4)
0x0e0|c3 58 4e f0                                    |.XN.            |      [45]: "1937-10-02T23:00:00Z" (-1017622800) transition_time 0xe0-0xe4 (4)
0x0e0|            c4 3f 05 70                        |    .?.p        |      [46]: "1938-03-26T23:00:00Z" (-1002502800) transition_time 0xe4-0xe8 (4)
0x0e0|                        c5 38 30 f0            |        .80.    |      [47]: "1938-10-01T23:00:00Z" (-986173200) transition_time 0xe8-0xec (4)
0x0e0|                                    c6 3a 96 f0|            .:..|      [48]: "1939-04-15T23:00:00Z" (-969238800) transition_time 0xec-0xf0 (4)
0x0f0|c7 58 ac 70                                    |.X.p            |      [49]: "1939-11-18T23:00:00Z" (-950490000) transition_time 0xf0-0xf4 (4)
0x0f0|            c7 da 09 a0                        |    ....        |      [50]: "1940-02-25T02:00:00Z" (-942012000) transition_time 0xf4-0xf8 (4)
0x0f0|                        c8 6c 27 e0            |        .l'.    |      [51]: "1940-06-14T22:00:00Z" (-932436000) transition_time 0xf8-0xfc (4)
0x0f0|                                    cc e7 4b 10|            ..K.|      [52]: "1942-11-02T01:00:00Z" (-857257200) transition_time 0xfc-0x100 (4)
0x100|cd a9 17 90                                    |....            |      [53]: "1943-03-29T01:00:00Z" (-844556400) transition_time 0x100-0x104 (4)
0x100|            ce a2 43 10                        |    ..C.        |      [54]: "1943-10-04T01:00:00Z" (-828226800) transition_time 0x104-0x108 (4)
0x100|                        cf 92 34 10            |        ..4.    |      [55]: "1944-04-03T01:00:00Z" (-812502000) transition_time 0x108-0x10c (4)
0x100|                                    d0 4f e1 e0|            .O..|      [56]: "1944-08-24T22:00:00Z" (-800071200) transition_time 0x10c-0x110 (4)
0x110|d0 89 f1 f0                                    |....            |      [57]: "1944-10-07T23:00:00Z" (-796266000) transition_time 0x110-0x114 (4)
0x110|            d1 72 16 10                        |    .r..        |      [58]: "1945-04-02T01:00:00Z" (-781052400) transition_time 0x114-0x118 (4)
0x110|                        d2 4e 40 90            |        .N@.    |      [59]: "1945-09-16T01:00:00Z" (-766623600) transition_time 0x118-0x11c (4)
0x110|                                    0b bb 39 00|            ..9.|      [60]: "1976-03-28T00:00:00Z" (196819200) transition_time 0x11c-0x120 (4)
0x120|0c ab 1b f0                                    |....            |      [61]: "1976-09-25T23:00:00Z" (212540400) transition_time 0x120-0x124 (4)
0x120|            0d a4 63 90                        |    ..c.        |      [62]: "1977-04-03T01:00:00Z" (228877200) transition_time 0x124-0x128 (4)
0x120|                        0e 8b 1a 10            |        ....    |      [63]: "1977-09-25T01:00:00Z" (243997200) transition_time 0x128-0x12c (4)
0x120|                                    0f 84 45 90|            ..E.|      [64]: "1978-04-02T01:00:00Z" (260326800) transition_time 0x12c-0x130 (4)
0x130|10 74 36 90                                    |.t6.            |      [65]: "1978-10-01T01:00:00Z" (276051600) transition_time 0x130-0x134 (4)
0x130|            11 64 27 90                        |    .d'.        |      [66]: "1979-04-01T01:00:00Z" (291776400) transition_time 0x134-0x138 (4)
0x130|                        12 54 18 90            |        .T..    |      [67]: "1979-09-30T01:00:00Z" (307501200) transition_time 0x138-0x13c (4)
0x130|                                    13 4d 44 10|            .MD.|      [68]: "1980-04-06T01:00:00Z" (323830800) transition_time 0x13c-0x140 (4)
0x140|14 33 fa 90                                    |.3..            |      [69]: "1980-09-28T01:00:00Z" (338950800) transition_time 0x140-0x144 (4)
0x140|            15 23 eb 90                        |    .#..        |      [70]: "1981-03-29T01:00:00Z" (354675600) transition_time 0x144-0x148 (4)
0x140|                        16 13 dc 90            |        ....    |      [71]: "1981-09-27T01:00:00Z" (370400400) transition_time 0x148-0x14c (4)
0x140|                                    17 03 cd 90|            ....|      [72]: "1982-03-28T01:00:00Z" (386125200) transition_time 0x14c-0x150 (4)
0x150|17 f3 be 90                                    |....            |      [73]: "1982-09-26T01:00:00Z" (401850000) transition_time 0x150-0x154 (4)
0x150|            18 e3 af 90                        |    ....        |      [74]: "1983-03-27T01:00:00Z" (417574800) transition_time 0x154-0x158 (4)
0x150|                        19 d3 a0 90            |        ....    |      [75]: "1983-09-25T01:00:00Z" (433299600) transition_time 0x158-0x15c (4)
0x150|                                    1a c3 91 90|            ....|      [76]: "1984-03-25T01:00:00Z" (449024400) transition_time 0x15c-0x160 (4)
0x160|1b bc bd 10                                    |....            |      [77]: "1984-09-30T01:00:00Z" (465354000) transition_time 0x160-0x164 (4)
0x160|            1c ac ae 10                        |    ....        |      [78]: "1985-03-31T01:00:00Z" (481078800) transition_time 0x164-0x168 (4)
0x160|                        1d 9c 9f 10            |        ....    |      [79]: "1985-09-29T01:00:00Z" (496803600) transition_time 0x168-0x16c (4)
0x160|                                    1e 8c 90 10|            ....|      [80]: "1986-03-30T01:00:00Z" (512528400) transition_time 0x16c-0x170 (4)
0x170|1f 7c 81 10                                    |.|..            |      [81]: "1986-09-28T01:00:00Z" (528253200) transition_time 0x170-0x174 (4)
0x170|            20 6c 72 10                        |     lr.        |      [82]: "1987-03-29T01:00:00Z" (543978000) transition_time 0x174-0x178 (4)
0x170|                        21 5c 63 10            |        !\c.    |      [83]: "1987-09-27T01:00:00Z" (559702800) transition_time 0x178-0x17c (4)
0x170|                                    22 4c 54 10|            "LT.|      [84]: "1988-03-27T01:00:00Z" (575427600) transition_time 0x17c-0x180 (4)
0x180|23 3c 45 10                                    |#<E.            |      [85]: "1988-09-25T01:00:00Z" (591152400) transition_time 0x180-0x184 (4)
0x180|            24 2c 36 10                        |    $,6.        |      [86]: "1989-03-26T01:00:00Z" (606877200) transition_time 0x184-0x188 (4)
0x180|                        25 1c 27 10            |        %.'.    |      [87]: "1989-09-24T01:00:00Z" (622602000) transition_time 0x188-0x18c (4)
0x180|                                    26 0c 18 10|            &...|      [88]: "1990-03-25T01:00:00Z" (638326800) transition_time 0x18c-0x190 (4)
0x190|27 05 43 90                                    |'.C.            |      [89]: "1990-09-30T01:00:00Z" (654656400) transition_time 0x190-0x194 (4)
0x190|            27 f5 34 90                        |    '.4.        |      [90]: "1991-03-31T01:00:00Z" (670381200) transition_time 0x194-0x198 (4)
0x190|                        28 e5 25 90            |        (.%.    |      [91]: "1991-09-29T01:00:00Z" (686106000) transition_time 0x198-0x19c (4)
0x190|                                    29 d5 16 90|            )...|      [92]: "1992-03-29T01:00:00Z" (701830800) transition_time 0x19c-0x1a0 (4)
0x1a0|2a c5 07 90                                    |*...            |      [93]: "1992-09-27T01:00:00Z" (717555600) transition_time 0x1a0-0x1a4 (4)
0x1a0|            2b b4 f8 90                        |    +...        |      [94]: "1993-03-28T01:00:00Z" (733280400) transition_time 0x1a4-0x1a8 (4)
0x1a0|                        2c a4 e9 90            |        ,...    |      [95]: "1993-09-26T01:00:00Z" (749005200) transition_time 0x1a8-0x1ac (4)
0x1a0|                                    2d 94 da 90|            -...|      [96]: "1994-03-27T01:00:00Z" (764730000) transition_time 0x1ac-0x1b0 (4)
0x1b0|2e 84 cb 90                                    |....            |      [97]: "1994-09-25T01:00:00Z" (780454800) transition_time 0x1b0-0x1b4 (4)
0x1b0|            2f 74 bc 90                        |    /t..        |      [98]: "1995-03-26T01:00:00Z" (796179600) transition_time 0x1b4-0x1b8 (4)
0x1b0|                        30 64 ad 90            |        0d..    |      [99]: "1995-09-24T01:00:00Z" (811904400) transition_time 0x1b8-0x1bc (4)
0x1b0|                                    31 5d d9 10|            1]..|      [100]: "1996-03-31T01:00:00Z" (828234000) transition_time 0x1bc-0x1c0 (4)
0x1c0|32 72 b4 10                                    |2r..            |      [101]: "1996-10-27T01:00:00Z" (846378000) transition_time 0x1c0-0x1c4 (4)
0x1c0|            33 3d bb 10                        |    3=..        |      [102]: "1997-03-30T01:00:00Z" (859683600) transition_time 0x1c4-0x1c8 (4)
0x1c0|                        34 52 96 10            |        4R..    |      [103]: "1997-10-26T01:00:00Z" (877827600) transition_time 0x1c8-0x1cc (4)
0x1c0|                                    35 1d 9d 10|            5...|      [104]: "1998-03-29T01:00:00Z" (891133200) transition_time 0x1cc-0x1d0 (4)
0x1d0|36 32 78 10                                    |62x.            |      [105]: "1998-10-25T01:00:00Z" (909277200) transition_time 0x1d0-0x1d4 (4)
0x1d0|            36 fd 7f 10                        |    6...        |      [106]: "1999-03-28T01:00:00Z" (922582800) transition_time 0x1d4-0x1d8 (4)
0x1d0|                        38 1b 94 90            |        8...    |      [107]: "1999-10-31T01:00:00Z" (941331600) transition_time 0x1d8-0x1dc (4)
0x1d0|                                    38 dd 61 10|            8.a.|      [108]: "2000-03-26T01:00:00Z" (954032400) transition_time 0x1dc-0x1e0 (4)
0x1e0|39 fb 76 90                                    |9.v.            |      [109]: "2000-10-29T01:00:00Z" (972781200) transition_time 0x1e0-0x1e4 (4)
0x1e0|            3a bd 43 10                        |    :.C.        |      [110]: "2001-03-25T01:00:00Z" (985482000) transition_time 0x1e4-0x1e8 (4)
0x1e0|                        3b db 58 90            |        ;.X.    |      [111]: "2001-10-28T01:00:00Z" (1004230800) transition_time 0x1e8-0x1ec (4)
0x1e0|                                    3c a6 5f 90|            <._.|      [112]: "2002-03-31T01:00:00Z" (1017536400) transition_time 0x1ec-0x1f0 (4)
0x1f0|3d bb 3a 90                                    |=.:.            |      [113]: "2002-10-27T01:00:00Z" (1035680400) transition_time 0x1f0-0x1f4 (4)
0x1f0|            3e 86 41 90                        |    >.A.        |      [114]: "2003-03-30T01:00:00Z" (1048986000) transition_time 0x1f4-0x1f8 (4)
0x1f0|                        3f 9b 1c 90            |        ?...    |      [115]: "2003-10-26T01:00:00Z" (1067130000) transition_time 0x1f8-0x1fc (4)
0x1f0|                                    40 66 23 90|            @f#.|      [116]: "2004-03-28T01:00:00Z" (1080435600) transition_time 0x1fc-0x200 (4)
0x200|41 84 39 10                                    |A.9.            |      [117]: "2004-10-31T01:00:00Z" (1099184400) transition_time 0x200-0x204 (4)
0x200|            42 46 05 90                        |    BF..        |      [118]: "2005-03-27T01:00:00Z" (1111885200) transition_time 0x204-0x208 (4)
0x200|                        43 64 1b 10            |        Cd..    |      [119]: "2005-10-30T01:00:00Z" (1130634000) transition_time 0x208-0x20c (4)
0x200|                                    44 25 e7 90|            D%..|      [120]: "2006-03-26T01:00:00Z" (1143334800) transition_time 0x20c-0x210 (4)
0x210|45 43 fd 10                                    |EC..            |      [121]: "2006-10-29T01:00:00Z" (1162083600) transition_time 0x210-0x214 (4)
0x210|            46 05 c9 90                        |    F...        |      [122]: "2007-03-25T01:00:00Z" (1174784400) transition_time 0x214-0x218 (4)
0x210|                        47 23 df 10            |        G#..    |      [123]: "2007-10-28T01:00:00Z" (1193533200) transition_time 0x218-0x21c (4)
0x210|                                    47 ee e6 10|            G...|      [124]: "2008-03-30T01:00:00Z" (1206838800) transition_time 0x21c-0x220 (4)
0x220|49 03 c1 10                                    |I...            |      [125]: "2008-10-26T01:00:00Z" (1224982800) transition_time 0x220-0x224 (4)
0x220|            49 ce c8 10                        |    I...        |      [126]: "2009-03-29T01:00:00Z" (1238288400) transition_time 0x224-0x228 (4)
0x220|                        4a e3 a3 10            |        J...    |      [127]: "2009-10-25T01:00:00Z" (1256432400) transition_time 0x228-0x22c (4)
0x220|                                    4b ae aa 10|            K...|      [128]: "2010-03-28T01:00:00Z" (1269738000) transition_time 0x22c-0x230 (4)
0x230|4c cc bf 90                                    |L...            |      [129]: "2010-10-31T01:00:00Z" (1288486800) transition_time 0x230-0x234 (4)
0x230|            4d 8e 8c 10                        |    M...        |      [130]: "2011-03-27T01:00:00Z" (1301187600) transition_time 0x234-0x238 (4)
0x230|                        4e ac a1 90            |        N...    |      [131]: "2011-10-30T01:00:00Z" (1319936400) transition_time 0x238-0x23c (4)
0x230|                                    4f 6e 6e 10|            Onn.|      [132]: "2012-03-25T01:00:00Z" (1332637200) transition_time 0x23c-0x240 (4)
0x240|50 8c 83 90                                    |P...            |      [133]: "2012-10-28T01:00:00Z" (1351386000) transition_time 0x240-0x244 (4)
0x240|            51 57 8a 90                        |    QW..        |      [134]: "2013-03-31T01:00:00Z" (1364691600) transition_time 0x244-0x248 (4)
0x240|                        52 6c 65 90            |        Rle.    |      [135]: "2013-10-27T01:00:00Z" (1382835600) transition_time 0x248-0x24c (4)
0x240|                                    53 37 6c 90|            S7l.|      [136]: "2014-03-30T01:00:00Z" (1396141200) transition_time 0x24c-0x250 (4)
0x250|54 4c 47 90                                    |TLG.            |      [137]: "2014-10-26T01:00:00Z" (1414285200) transition_time 0x250-0x254 (4)
0x250|            55 17 4e 90                        |    U.N.        |      [138]: "2015-03-29T01:00:00Z" (1427590800) transition_time 0x254-0x258 (4)
0x250|                        56 2c 29 90            |        V,).    |      [139]: "2015-10-25T01:00:00Z" (1445734800) transition_time 0x258-0x25c (4)
0x250|                                    56 f7 30 90|            V.0.|      [140]: "2016-03-27T01:00:00Z" (1459040400) transition_time 0x25c-0x260 (4)
0x260|58 15 46 10                                    |X.F.            |      [141]: "2016-10-30T01:00:00Z" (1477789200) transition_time 0x260-0x264 (4)
0x260|            58 d7 12 90                        |    X...        |      [142]: "2017-03-26T01:00:00Z" (1490490000) transition_time 0x264-0x268 (4)
0x260|                        59 f5 28 10            |        Y.(.    |      [143]: "2017-10-29T01:00:00Z" (1509238800) transition_time 0x268-0x26c (4)
0x260|                                    5a b6 f4 90|            Z...|      [144]: "2018-03-25T01:00:00Z" (1521939600) transition_time 0x26c-0x270 (4)
0x270|5b d5 0a 10                                    |[...            |      [145]: "2018-10-28T01:00:00Z" (1540688400) transition_time 0x270-0x274 (4)
0x270|            5c a0 11 10                        |    \...        |      [146]: "2019-03-31T01:00:00Z" (1553994000) transition_time 0x274-0x278 (4)
0x270|                        5d b4 ec 10            |        ]...    |      [147]: "2019-10-27T01:00:00Z" (1572138000) transition_time 0x278-0x27c (4)
0x270|                                    5e 7f f3 10|            ^...|      [148]: "2020-03-29T01:00:00Z" (1585443600) transition_time 0x27c-0x280 (4)
0x280|5f 94 ce 10                                    |_...            |      [149]: "2020-10-25T01:00:00Z" (1603587600) transition_time 0x280-0x284 (4)
0x280|            60 5f d5 10                        |    `_..        |      [150]: "2021-03-28T01:00:00Z" (1616893200) transition_time 0x284-0x288 (4)
0x280|                        61 7d ea 90            |        a}..    |      [151]: "2021-10-31T01:00:00Z" (1635642000) transition_time 0x288-0x28c (4)
0x280|                                    62 3f b7 10|            b?..|      [152]: "2022-03-27T01:00:00Z" (1648342800) transition_time 0x28c-0x290 (4)
0x290|63 5d cc 90                                    |c]..            |      [153]: "2022-10-30T01:00:00Z" (1667091600) transition_time 0x290-0x294 (4)
0x290|            64 1f 99 10                        |    d...        |      [154]: "2023-03-26T01:00:00Z" (1679792400) transition_time 0x294-0x298 (4)
0x290|                        65 3d ae 90            |        e=..    |      [155]: "2023-10-29T01:00:00Z" (1698541200) transition_time 0x298-0x29c (4)
0x290|                                    66 08 b5 90|            f...|      [156]: "2024-03-31T01:00:00Z" (1711846800) transition_time 0x29c-0x2a0 (4)
0x2a0|67 1d 90 90                                    |g...            |      [157]: "2024-10-27T01:00:00Z" (1729990800) transition_time 0x2a0-0x2a4 (4)
0x2a0|            67 e8 97 90                        |    g...        |      [158]: "2025-03-30T01:00:00Z" (1743296400) transition_time 0x2a4-0x2a8 (4)
0x2a0|                        68 fd 72 90            |        h.r.    |      [159]: "2025-10-26T01:00:00Z" (1761440400) transition_time 0x2a8-0x2ac (4)
0x2a0|                                    69 c8 79 90|            i.y.|      [160]: "2026-03-29T01:00:00Z" (1774746000) transition_time 0x2ac-0x2b0 (4)
0x2b0|6a dd 54 90                                    |j.T.            |      [161]: "2026-10-25T01:00:00Z" (1792890000) transition_time 0x2b0-0x2b4 (4)
0x2b0|            6b a8 5b 90                        |    k.[.        |      [162]: "2027-03-28T01:00:00Z" (1806195600) transition_time 0x2b4-0x2b8 (4)
0x2b0|                        6c c6 71 10            |        l.q.    |      [163]: "2027-10-31T01:00:00Z" (1824944400) transition_time 0x2b8-0x2bc (4)
0x2b0|                                    6d 88 3d 90|            m.=.|      [164]: "2028-03-26T01:00:00Z" (1837645200) transition_time 0x2bc-0x2c0 (4)
0x2c0|6e a6 53 10                                    |n.S.            |      [165]: "2028-10-29T01:00:00Z" (1856394000) transition_time 0x2c0-0x2c4 (4)
0x2c0|            6f 68 1f 90                        |    oh..        |      [166]: "2029-03-25T01:00:00Z" (1869094800) transition_time 0x2c4-0x2c8 (4)
0x2c0|                        70 86 35 10            |        p.5.    |      [167]: "2029-10-28T01:00:00Z" (1887843600) transition_time 0x2c8-0x2cc (4)
0x2c0|                                    71 51 3c 10|            qQ<.|      [168]: "2030-03-31T01:00:00Z" (1901149200) transition_time 0x2cc-0x2d0 (4)
0x2d0|72 66 17 10                                    |rf..            |      [169]: "2030-10-27T01:00:00Z" (1919293200) transition_time 0x2d0-0x2d4 (4)
0x2d0|            73 31 1e 10                        |    s1..        |      [170]: "2031-03-30T01:00:00Z" (1932598800) transition_time 0x2d4-0x2d8 (4)
0x2d0|                        74 45 f9 10            |        tE..    |      [171]: "2031-10-26T01:00:00Z" (1950742800) transition_time 0x2d8-0x2dc (4)
0x2d0|                                    75 11 00 10|            u...|      [172]: "2032-03-28T01:00:00Z" (1964048400) transition_time 0x2dc-0x2e0 (4)
0x2e0|76 2f 15 90                                    |v/..            |      [173]: "2032-10-31T01:00:00Z" (1982797200) transition_time 0x2e0-0x2e4 (4)
0x2e0|            76 f0 e2 10                        |    v...        |      [174]: "2033-03-27T01:00:00Z" (1995498000) transition_time 0x2e4-0x2e8 (4)
0x2e0|                        78 0e f7 90            |        x...    |      [175]: "2033-10-30T01:00:00Z" (2014246800) transition_time 0x2e8-0x2ec (4)
0x2e0|                                    78 d0 c4 10|            x...|      [176]: "2034-03-26T01:00:00Z" (2026947600) transition_time 0x2ec-0x2f0 (4)
0x2f0|79 ee d9 90                                    |y...            |      [177]: "2034-10-29T01:00:00Z" (2045696400) transition_time 0x2f0-0x2f4 (4)
0x2f0|            7a b0 a6 10                        |    z...        |      [178]: "2035-03-25T01:00:00Z" (2058397200) transition_time 0x2f4-0x2f8 (4)
0x2f0|                        7b ce bb 90            |        {...    |      [179]: "2035-10-28T01:00:00Z" (2077146000) transition_time 0x2f8-0x2fc (4)
0x2f0|                                    7c 99 c2 90|            |...|      [180]: "2036-03-30T01:00:00Z" (2090451600) transition_time 0x2fc-0x300 (4)
0x300|7d ae 9d 90                                    |}...            |      [181]: "2036-10-26T01:00:00Z" (2108595600) transition_time 0x300-0x304 (4)
0x300|            7e 79 a4 90                        |    ~y..        |      [182]: "2037-03-29T01:00:00Z" (2121901200) transition_time 0x304-0x308 (4)
0x300|                        7f 8e 7f 90            |        ....    |      [183]: "2037-10-25T01:00:00Z" (2140045200) transition_time 0x308-0x30c (4)
     |                                               |                |    transition_types[0:184]: 0x30c-0x3c4 (184)
0x300|                                    01         |            .   |      [0]: 1 transition_type 0x30c-0x30d (1)
0x300|                                       05      |             .  |      [1]: 5 transition_type 0x30d-0x30e (1)
0x300|                                          02   |              . |      [2]: 2 transition_type 0x30e-0x30f (1)
0x300|                                             03|               .|      [3]: 3 transition_type 0x30f-0x310 (1)
0x310|02                                             |.               |      [4]: 2 transition_type 0x310-0x311 (1)
0x310|   03                                          | .              |      [5]: 3 transition_type 0x311-0x312 (1)
0x310|      02                                       |  .             |      [6]: 2 transition_type 0x312-0x313 (1)
0x310|         03                                    |   .            |      [7]: 3 transition_type 0x313-0x314 (1)
0x310|            02                                 |    .           |      [8]: 2 transition_type 0x314-0x315 (1)
0x310|               03                              |     .          |      [9]: 3 transition_type 0x315-0x316 (1)
0x310|                  02                           |      .         |      [10]: 2 transition_type 0x316-0x317 (1)
0x310|                     03                        |       .        |      [11]: 3 transition_type 0x317-0x318 (1)
0x310|                        02                     |        .       |      [12]: 2 transition_type 0x318-0x319 (1)
0x310|                           03                  |         .      |      [13]: 3 transition_type 0x319-0x31a (1)
0x310|                              02               |          .     |      [14]: 2 transition_type 0x31a-0x31b (1)
0x310|                                 03            |           .    |      [15]: 3 transition_type 0x31b-0x31c (1)
0x310|                                    02         |            .   |      [16]: 2 transition_type 0x31c-0x31d (1)
0x310|                                       03      |             .  |      [17]: 3 transition_type 0x31d-0x31e (1)
0x310|                                          02   |              . |      [18]: 2 transition_type 0x31e-0x31f (1)
0x310|                                             03|               .|      [19]: 3 transition_type 0x31f-0x320 (1)
0x320|02                                             |.               |      [20]: 2 transition_type 0x320-0x321 (1)
0x320|   03                                          | .              |      [21]: 3 transition_type 0x321-0x322 (1)
0x320|      02                                       |  .             |      [22]: 2 transition_type 0x322-0x323 (1)
0x320|         03                                    |   .            |      [23]: 3 transition_type 0x323-0x324 (1)
0x320|            02                                 |    .           |      [24]: 2 transition_type 0x324-0x325 (1)
0x320|               03                              |     .          |      [25]: 3 transition_type 0x325-0x326 (1)
0x320|                  02                           |      .         |      [26]: 2 transition_type 0x326-0x327 (1)
0x320|                     03                        |       .        |      [27]: 3 transition_type 0x327-0x328 (1)
0x320|                        02                     |        .       |      [28]: 2 transition_type 0x328-0x329 (1)
0x320|                           03                  |         .      |      [29]: 3 transition_type 0x329-0x32a (1)
0x320|                              02               |          .     |      [30]: 2 transition_type 0x32a-0x32b (1)
0x320|                                 03            |           .    |      [31]: 3 transition_type 0x32b-0x32c (1)
0x320|                                    02         |            .   |      [32]: 2 transition_type 0x32c-0x32d (1)
0x320|                                       03      |             .  |      [33]: 3 transition_type 0x32d-0x32e (1)
0x320|                                          02   |              . |      [34]: 2 transition_type 0x32e-0x32f (1)
0x320|                                             03|               .|      [35]: 3 transition_type 0x32f-0x330 (1)
0x330|02                                             |.               |      [36]: 2 transition_type 0x330-0x331 (1)
0x330|   03                                          | .              |      [37]: 3 transition_type 0x331-0x332 (1)
0x330|      02                                       |  .             |      [38]: 2 transition_type 0x332-0x333 (1)
0x330|         03                                    |   .            |      [39]: 3 transition_type 0x333-0x334 (1)
0x330|            02                                 |    .           |      [40]: 2 transition_type 0x334-0x335 (1)
0x330|               03                              |     .          |      [41]: 3 transition_type 0x335-0x336 (1)
0x330|                  02                           |      .         |      [42]: 2 transition_type 0x336-0x337 (1)
0x330|                     03                        |       .        |      [43]: 3 transition_type 0x337-0x338 (1)
0x330|                        02                     |        .       |      [44]: 2 transition_type 0x338-0x339 (1)
0x330|                           03                  |         .      |      [45]: 3 transition_type 0x339-0x33a (1)
0x330|                              02               |          .     |      [46]: 2 transition_type 0x33a-0x33b (1)
0x330|                                 03            |           .    |      [47]: 3 transition_type 0x33b-0x33c (1)
0x330|                                    02         |            .   |      [48]: 2 transition_type 0x33c-0x33d (1)
0x330|                                       03      |             .  |      [49]: 3 transition_type 0x33d-0x33e (1)
0x330|                                          04   |              . |      [50]: 4 transition_type 0x33e-0x33f (1)
0x330|                                             08|               .|      [51]: 8 transition_type 0x33f-0x340 (1)
0x340|06                                             |.               |      [52]: 6 transition_type 0x340-0x341 (1)
0x340|   07                                          | .              |      [53]: 7 transition_type 0x341-0x342 (1)
0x340|      06                                       |  .             |      [54]: 6 transition_type 0x342-0x343 (1)
0x340|         07                                    |   .            |      [55]: 7 transition_type 0x343-0x344 (1)
0x340|            09                                 |    .           |      [56]: 9 transition_type 0x344-0x345 (1)
0x340|               04                              |     .          |      [57]: 4 transition_type 0x345-0x346 (1)
0x340|                  09                           |      .         |      [58]: 9 transition_type 0x346-0x347 (1)
0x340|                     0a                        |       .        |      [59]: 10 transition_type 0x347-0x348 (1)
0x340|                        08                     |        .       |      [60]: 8 transition_type 0x348-0x349 (1)
0x340|                           0a                  |         .      |      [61]: 10 transition_type 0x349-0x34a (1)
0x340|                              0b               |          .     |      [62]: 11 transition_type 0x34a-0x34b (1)
0x340|                                 0c            |           .    |      [63]: 12 transition_type 0x34b-0x34c (1)
0x340|                                    0b         |            .   |      [64]: 11 transition_type 0x34c-0x34d (1)
0x340|                                       0c      |             .  |      [65]: 12 transition_type 0x34d-0x34e (1)
0x340|                                          0b   |              . |      [66]: 11 transition_type 0x34e-0x34f (1)
0x340|                                             0c|               .|      [67]: 12 transition_type 0x34f-0x350 (1)
0x350|0b                                             |.               |      [68]: 11 transition_type 0x350-0x351 (1)
0x350|   0c                                          | .              |      [69]: 12 transition_type 0x351-0x352 (1)
0x350|      0b                                       |  .             |      [70]: 11 transition_type 0x352-0x353 (1)
0x350|         0c                                    |   .            |      [71]: 12 transition_type 0x353-0x354 (1)
0x350|            0b                                 |    .           |      [72]: 11 transition_type 0x354-0x355 (1)
0x350|               0c                              |     .          |      [73]: 12 transition_type 0x355-0x356 (1)
0x350|                  0b                           |      .         |      [74]: 11 transition_type 0x356-0x357 (1)
0x350|                     0c                        |       .        |      [75]: 12 transition_type 0x357-0x358 (1)
0x350|                        0b                     |        .       |      [76]: 11 transition_type 0x358-0x359 (1)
0x350|                           0c                  |         .      |      [77]: 12 transition_type 0x359-0x35a (1)
0x350|                              0b               |          .     |      [78]: 11 transition_type 0x35a-0x35b (1)
0x350|                                 0c            |           .    |      [79]: 12 transition_type 0x35b-0x35c (1)
0x350|                                    0b         |            .   |      [80]: 11 transition_type 0x35c-0x35d (1)
0x350|                                       0c      |             .  |      [81]: 12 transition_type 0x35d-0x35e (1)
0x350|                                          0b   |              . |      [82]: 11 transition_type 0x35e-0x35f (1)
0x350|                                             0c|               .|      [83]: 12 transition_type 0x35f-0x360 (1)
0x360|0b                                             |.               |      [84]: 11 transition_type 0x360-0x361 (1)
0x360|   0c                                          | .              |      [85]: 12 transition_type 0x361-0x362 (1)
0x360|      0b                                       |  .             |      [86]: 11 transition_type 0x362-0x363 (1)
0x360|         0c                                    |   .            |      [87]: 12 transition_type 0x363-0x364 (1)
0x360|            0b                                 |    .           |      [88]: 11 transition_type 0x364-0x365 (1)
0x360|               0c                              |     .          |      [89]: 12 transition_type 0x365-0x366 (1)
0x360|                  0b                           |      .         |      [90]: 11 transition_type 0x366-0x367 (1)
0x360|                     0c                        |       .        |      [91]: 12 transition_type 0x367-0x368 (1)
0x360|                        0b                     |        .       |      [92]: 11 transition_type 0x368-0x369 (1)
0x360|                           0c                  |         .      |      [93]: 12 transition_type 0x369-0x36a (1)
0x360|                              0b               |          .     |      [94]: 11 transition_type 0x36a-0x36b (1)
0x360|                                 0c            |           .    |      [95]: 12 transition_type 0x36b-0x36c (1)
0x360|                                    0b         |            .   |      [96]: 11 transition_type 0x36c-0x36d (1)
0x360|                                       0c      |             .  |      [97]: 12 transition_type 0x36d-0x36e (1)
0x360|                                          0b   |              . |      [98]: 11 transition_type 0x36e-0x36f (1)
0x360|                                             0c|               .|      [99]: 12 transition_type 0x36f-0x370 (1)
0x370|0b                                             |.               |      [100]: 11 transition_type 0x370-0x371 (1)
0x370|   0c                                          | .              |      [101]: 12 transition_type 0x371-0x372 (1)
0x370|      0b                                       |  .             |      [102]: 11 transition_type 0x372-0x373 (1)
0x370|         0c                                    |   .            |      [103]: 12 transition_type 0x373-0x374 (1)
0x370|            0b                                 |    .           |      [104]: 11 transition_type 0x374-0x375 (1)
0x370|               0c                              |     .          |      [105]: 12 transition_type 0x375-0x376 (1)
0x370|                  0b                           |      .         |      [106]: 11 transition_type 0x376-0x377 (1)
0x370|                     0c                        |       .        |      [107]: 12 transition_type 0x377-0x378 (1)
0x370|                        0b                     |        .       |      [108]: 11 transition_type 0x378-0x379 (1)
0x370|                           0c                  |         .      |      [109]: 12 transition_type 0x379-0x37a (1)
0x370|                              0b               |          .     |      [110]: 11 transition_type 0x37a-0x37b (1)
0x370|                                 0c            |           .    |      [111]: 12 transition_type 0x37b-0x37c (1)
0x370|                                    0b         |            .   |      [112]: 11 transition_type 0x37c-0x37d (1)
0x370|                                       0c      |             .  |      [113]: 12 transition_type 0x37d-0x37e (1)
0x370|                                          0b   |              . |      [114]: 11 transition_type 0x37e-0x37f (1)
0x370|                                             0c|               .|      [115]: 12 transition_type 0x37f-0x380 (1)
0x380|0b                                             |.               |      [116]: 11 transition_type 0x380-0x381 (1)
0x380|   0c                                          | .              |      [117]: 12 transition_type 0x381-0x382 (1)
0x380|      0b                                       |  .             |      [118]: 11 transition_type 0x382-0x383 (1)
0x380|         0c                                    |   .            |      [119]: 12 transition_type 0x383-0x384 (1)
0x380|            0b                                 |    .           |      [120]: 11 transition_type 0x384-0x385 (1)
0x380|               0c                              |     .          |      [121]: 12 transition_type 0x385-0x386 (1)
0x380|                  0b                           |      .         |      [122]: 11 transition_type 0x386-0x387 (1)
0x380|                     0c                        |       .        |      [123]: 12 transition_type 0x387-0x388 (1)
0x380|                        0b                     |        .       |      [124]: 11 transition_type 0x388-0x389 (1)
0x380|                           0c                  |         .      |      [125]: 12 transition_type 0x389-0x38a (1)
0x380|                              0b               |          .     |      [126]: 11 transition_type 0x38a-0x38b (1)
0x380|                                 0c            |           .    |      [127]: 12 transition_type 0x38b-0x38c (1)
0x380|                                    0b         |            .   |      [128]: 11 transition_type 0x38c-0x38d (1)
0x380|                                       0c      |             .  |      [129]: 12 transition_type 0x38d-0x38e (1)
0x380|                                          0b   |              . |      [130]: 11 transition_type 0x38e-0x38f (1)
0x380|                                             0c|               .|      [131]: 12 transition_type 0x38f-0x390 (1)
0x390|0b                                             |.               |      [132]: 11 transition_type 0x390-0x391 (1)
0x390|   0c                                          | .              |      [133]: 12 transition_type 0x391-0x392 (1)
0x390|      0b                                       |  .             |      [134]: 11 transition_type 0x392-0x393 (1)
0x390|         0c                                    |   .            |      [135]: 12 transition_type 0x393-0x394 (1)
0x390|            0b                                 |    .           |      [136]: 11 transition_type 0x394-0x395 (1)
0x390|               0c                              |     .          |      [137]: 12 transition_type 0x395-0x396 (1)
0x390|                  0b                           |      .         |      [138]: 11 transition_type 0x396-0x397 (1)
0x390|                     0c                        |       .        |      [139]: 12 transition_type 0x397-0x398 (1)
0x390|                        0b                     |        .       |      [140]: 11 transition_type 0x398-0x399 (1)
0x390|                           0c                  |         .      |      [141]: 12 transition_type 0x399-0x39a (1)
0x390|                              0b               |          .     |      [142]: 11 transition_type 0x39a-0x39b (1)
0x390|                                 0c            |           .    |      [143]: 12 transition_type 0x39b-0x39c (1)
0x390|                                    0b         |            .   |      [144]: 11 transition_type 0x39c-0x39d (1)
0x390|                                       0c      |             .  |      [145]: 12 transition_type 0x39d-0x39e (1)
0x390|                                          0b   |              . |      [146]: 11 transition_type 0x39e-0x39f (1)
0x390|                                             0c|               .|      [147]: 12 transition_type 0x39f-0x3a0 (1)
0x3a0|0b                                             |.               |      [148]: 11 transition_type 0x3a0-0x3a1 (1)
0x3a0|   0c                                          | .              |      [149]: 12 transition_type 0x3a1-0x3a2 (1)
0x3a0|      0b                                       |  .             |      [150]: 11 transition_type 0x3a2-0x3a3 (1)
0x3a0|         0c                                    |   .            |      [151]: 12 transition_type 0x3a3-0x3a4 (1)
0x3a0|            0b                                 |    .           |      [152]: 11 transition_type 0x3a4-0x3a5 (1)
0x3a0|               0c                              |     .          |      [153]: 12 transition_type 0x3a5-0x3a6 (1)
0x3a0|                  0b                           |      .         |      [154]: 11 transition_type 0x3a6-0x3a7 (1)
0x3a0|                     0c                        |       .        |      [155]: 12 transition_type 0x3a7-0x3a8 (1)
0x3a0|                        0b                     |        .       |      [156]: 11 transition_type 0x3a8-0x3a9 (1)
0x3a0|                           0c                  |         .      |      [157]: 12 transition_type 0x3a9-0x3aa (1)
0x3a0|                              0b               |          .     |      [158]: 11 transition_type 0x3aa-0x3ab (1)
0x3a0|                                 0c            |           .    |      [159]: 12 transition_type 0x3ab-0x3ac (1)
0x3a0|                                    0b         |            .   |      [160]: 11 transition_type 0x3ac-0x3ad (1)
0x3a0|                                       0c      |             .  |      [161]: 12 transition_type 0x3ad-0x3ae (1)
0x3a0|                                          0b   |              . |      [162]: 11 transition_type 0x3ae-0x3af (1)
0x3a0|                                             0c|               .|      [163]: 12 transition_type 0x3af-0x3b0 (1)
0x3b0|0b                                             |.               |      [164]: 11 transition_type 0x3b0-0x3b1 (1)
0x3b0|   0c                                          | .              |      [165]: 12 transition_type 0x3b1-0x3b2 (1)
0x3b0|      0b                                       |  .             |      [166]: 11 transition_type 0x3b2-0x3b3 (1)
0x3b0|         0c                                    |   .            |      [167]: 12 transition_type 0x3b3-0x3b4 (1)
0x3b0|            0b                                 |    .           |      [168]: 11 transition_type 0x3b4-0x3b5 (1)
0x3b0|               0c                              |     .          |      [169]: 12 transition_type 0x3b5-0x3b6 (1)
0x3b0|                  0b                           |      .         |      [170]: 11 transition_type 0x3b6-0x3b7 (1)
0x3b0|                     0c                        |       .        |      [171]: 12 transition_type 0x3b7-0x3b8 (1)
0x3b0|                        0b                     |        .       |      [172]: 11 transition_type 0x3b8-0x3b9 (1)
0x3b0|                           0c                  |         .      |      [173]: 12 transition_type 0x3b9-0x3ba (1)
0x3b0|                              0b               |          .     |      [174]: 11 transition_type 0x3ba-0x3bb (1)
0x3b0|                                 0c            |           .    |      [175]: 12 transition_type 0x3bb-0x3bc (1)
0x3b0|                                    0b         |            .   |      [176]: 11 transition_type 0x3bc-0x3bd (1)
0x3b0|                                       0c      |             .  |      [177]: 12 transition_type 0x3bd-0x3be (1)
0x3b0|                                          0b   |              . |      [178]: 11 transition_type 0x3be-0x3bf (1)
0x3b0|                                             0c|               .|      [179]: 12 transition_type 0x3bf-0x3c0 (1)
0x3c0|0b                                             |.               |      [180]: 11 transition_type 0x3c0-0x3c1 (1)
0x3c0|   0c                                          | .              |      [181]: 12 transition_type 0x3c1-0x3c2 (1)
0x3c0|      0b                                       |  .             |      [182]: 11 transition_type 0x3c2-0x3c3 (1)
0x3c0|         0c                                    |   .            |      [183]: 12 transition_type 0x3c3-0x3c4 (1)
     |                                               |                |    local_time_type_records[0:13]: 0x3c4-0x412 (78)
     |                                               |                |      [0]{}: local_time_type 0x3c4-0x3ca (6)
0x3c0|            00 00 02 31                        |    ...1        |        utoff: 561 (valid) 0x3c4-0x3c8 (4)
0x3c0|                        00                     |        .       |        dst: 0 (valid) 0x3c8-0x3c9 (1)
0x3c0|                           00                  |         .      |        idx: 0 (valid) 0x3c9-0x3ca (1)
     |                                               |                |      [1]{}: local_time_type 0x3ca-0x3d0 (6)
0x3c0|                              00 00 02 31      |          ...1  |        utoff: 561 (valid) 0x3ca-0x3ce (4)
0x3c0|                                          00   |              . |        dst: 0 (valid) 0x3ce-0x3cf (1)
0x3c0|                                             04|               .|        idx: 4 (valid) 0x3cf-0x3d0 (1)
     |                                               |                |      [2]{}: local_time_type 0x3d0-0x3d6 (6)
0x3d0|00 00 0e 10                                    |....            |        utoff: 3600 (valid) 0x3d0-0x3d4 (4)
0x3d0|            01                                 |    .           |        dst: 1 (valid) 0x3d4-0x3d5 (1)
0x3d0|               08                              |     .          |        idx: 8 (valid) 0x3d5-0x3d6 (1)
     |                                               |                |      [3]{}: local_time_type 0x3d6-0x3dc (6)
0x3d0|                  00 00 00 00                  |      ....      |        utoff: 0 (valid) 0x3d6-0x3da (4)
0x3d0|                              00               |          .     |        dst: 0 (valid) 0x3da-0x3db (1)
0x3d0|                                 0d            |           .    |        idx: 13 (valid) 0x3db-0x3dc (1)
     |                                               |                |      [4]{}: local_time_type 0x3dc-0x3e2 (6)
0x3d0|                                    00 00 0e 10|            ....|        utoff: 3600 (valid) 0x3dc-0x3e0 (4)
0x3e0|01                                             |.               |        dst: 1 (valid) 0x3e0-0x3e1 (1)
0x3e0|   08                                          | .              |        idx: 8 (valid) 0x3e1-0x3e2 (1)
     |                                               |                |      [5]{}: local_time_type 0x3e2-0x3e8 (6)
0x3e0|      00 00 00 00                              |  ....          |        utoff: 0 (valid) 0x3e2-0x3e6 (4)
0x3e0|                  00                           |      .         |        dst: 0 (valid) 0x3e6-0x3e7 (1)
0x3e0|                     0d                        |       .        |        idx: 13 (valid) 0x3e7-0x3e8 (1)
     |                                               |                |      [6]{}: local_time_type 0x3e8-0x3ee (6)
0x3e0|                        00 00 0e 10            |        ....    |        utoff: 3600 (valid) 0x3e8-0x3ec (4)
0x3e0|                                    00         |            .   |        dst: 0 (valid) 0x3ec-0x3ed (1)
0x3e0|                                       11      |             .  |        idx: 17 (valid) 0x3ed-0x3ee (1)
     |                                               |                |      [7]{}: local_time_type 0x3ee-0x3f4 (6)
0x3e0|                                          00 00|              ..|        utoff: 7200 (valid) 0x3ee-0x3f2 (4)
0x3f0|1c 20                                          |.               |
0x3f0|      01                                       |  .             |        dst: 1 (valid) 0x3f2-0x3f3 (1)
0x3f0|         15                                    |   .            |        idx: 21 (valid) 0x3f3-0x3f4 (1)
     |                                               |                |      [8]{}: local_time_type 0x3f4-0x3fa (6)
0x3f0|            00 00 1c 20                        |    ...         |        utoff: 7200 (valid) 0x3f4-0x3f8 (4)
0x3f0|                        01                     |        .       |        dst: 1 (valid) 0x3f8-0x3f9 (1)
0x3f0|                           15                  |         .      |        idx: 21 (valid) 0x3f9-0x3fa (1)
     |                                               |                |      [9]{}: local_time_type 0x3fa-0x400 (6)
0x3f0|                              00 00 1c 20      |          ...   |        utoff: 7200 (valid) 0x3fa-0x3fe (4)
0x3f0|                                          01   |              . |        dst: 1 (valid) 0x3fe-0x3ff (1)
0x3f0|                                             1a|               .|        idx: 26 (valid) 0x3ff-0x400 (1)
     |                                               |                |      [10]{}: local_time_type 0x400-0x406 (6)
0x400|00 00 0e 10                                    |....            |        utoff: 3600 (valid) 0x400-0x404 (4)
0x400|            00                                 |    .           |        dst: 0 (valid) 0x404-0x405 (1)
0x400|               11                              |     .          |        idx: 17 (valid) 0x405-0x406 (1)
     |                                               |                |      [11]{}: local_time_type 0x406-0x40c (6)
0x400|                  00 00 1c 20                  |      ...       |        utoff: 7200 (valid) 0x406-0x40a (4)
0x400|                              01               |          .     |        dst: 1 (valid) 0x40a-0x40b (1)
0x400|                                 15            |           .    |        idx: 21 (valid) 0x40b-0x40c (1)
     |                                               |                |      [12]{}: local_time_type 0x40c-0x412 (6)
0x400|                                    00 00 0e 10|            ....|        utoff: 3600 (valid) 0x40c-0x410 (4)
0x410|00                                             |.               |        dst: 0 (valid) 0x410-0x411 (1)
0x410|   11                                          | .              |        idx: 17 (valid) 0x411-0x412 (1)
     |                                               |                |    time_zone_designations[0:7]: 0x412-0x431 (31)
0x410|      4c 4d 54 00                              |  LMT.          |      [0]: "LMT" time_zone_designation 0x412-0x416 (4)
0x410|                  50 4d 54 00                  |      PMT.      |      [1]: "PMT" time_zone_designation 0x416-0x41a (4)
0x410|                              57 45 53 54 00   |          WEST. |      [2]: "WEST" time_zone_designation 0x41a-0x41f (5)
0x410|                                             57|               W|      [3]: "WET" time_zone_designation 0x41f-0x423 (4)
0x420|45 54 00                                       |ET.             |
0x420|         43 45 54 00                           |   CET.         |      [4]: "CET" time_zone_designation 0x423-0x427 (4)
0x420|                     43 45 53 54 00            |       CEST.    |      [5]: "CEST" time_zone_designation 0x427-0x42c (5)
0x420|                                    57 45 4d 54|            WEMT|      [6]: "WEMT" time_zone_designation 0x42c-0x431 (5)
0x430|00                                             |.               |
     |                                               |                |    leap_second_records[0:0]: 0x431-0x431 (0)
     |                                               |                |    standard_wall_indicators[0:13]: 0x431-0x43e (13)
0x430|   00                                          | .              |      [0]: 0 standard_wall_indicator (valid) 0x431-0x432 (1)
0x430|      00                                       |  .             |      [1]: 0 standard_wall_indicator (valid) 0x432-0x433 (1)
0x430|         01                                    |   .            |      [2]: 1 standard_wall_indicator (valid) 0x433-0x434 (1)
0x430|            01                                 |    .           |      [3]: 1 standard_wall_indicator (valid) 0x434-0x435 (1)
0x430|               00                              |     .          |      [4]: 0 standard_wall_indicator (valid) 0x435-0x436 (1)
0x430|                  00                           |      .         |      [5]: 0 standard_wall_indicator (valid) 0x436-0x437 (1)
0x430|                     01                        |       .        |      [6]: 1 standard_wall_indicator (valid) 0x437-0x438 (1)
0x430|                        01                     |        .       |      [7]: 1 standard_wall_indicator (valid) 0x438-0x439 (1)
0x430|                           00                  |         .      |      [8]: 0 standard_wall_indicator (valid) 0x439-0x43a (1)
0x430|                              00               |          .     |      [9]: 0 standard_wall_indicator (valid) 0x43a-0x43b (1)
0x430|                                 00            |           .    |      [10]: 0 standard_wall_indicator (valid) 0x43b-0x43c (1)
0x430|                                    01         |            .   |      [11]: 1 standard_wall_indicator (valid) 0x43c-0x43d (1)
0x430|                                       01      |             .  |      [12]: 1 standard_wall_indicator (valid) 0x43d-0x43e (1)
     |                                               |                |    ut_local_indicators[0:13]: 0x43e-0x44b (13)
0x430|                                          00   |              . |      [0]: 0 ut_local_indicator (valid) 0x43e-0x43f (1)
0x430|                                             00|               .|      [1]: 0 ut_local_indicator (valid) 0x43f-0x440 (1)
0x440|00                                             |.               |      [2]: 0 ut_local_indicator (valid) 0x440-0x441 (1)
0x440|   00                                          | .              |      [3]: 0 ut_local_indicator (valid) 0x441-0x442 (1)
0x440|      00                                       |  .             |      [4]: 0 ut_local_indicator (valid) 0x442-0x443 (1)
0x440|         00                                    |   .            |      [5]: 0 ut_local_indicator (valid) 0x443-0x444 (1)
0x440|            00                                 |    .           |      [6]: 0 ut_local_indicator (valid) 0x444-0x445 (1)
0x440|               00                              |     .          |      [7]: 0 ut_local_indicator (valid) 0x445-0x446 (1)
0x440|                  00                           |      .         |      [8]: 0 ut_local_indicator (valid) 0x446-0x447 (1)
0x440|                     00                        |       .        |      [9]: 0 ut_local_indicator (valid) 0x447-0x448 (1)
0x440|                        00                     |        .       |      [10]: 0 ut_local_indicator (valid) 0x448-0x449 (1)
0x440|                           01                  |         .      |      [11]: 1 ut_local_indicator (valid) 0x449-0x44a (1)
0x440|                              01               |          .     |      [12]: 1 ut_local_indicator (valid) 0x44a-0x44b (1)
     |                                               |                |  v2plusheader{}: 0x44b-0x477 (44)
0x440|                                 54 5a 69 66   |           TZif |    magic: 0x545a6966 (valid) 0x44b-0x44f (4)
0x440|                                             32|               2|    ver: "2" (0x32) (valid) 0x44f-0x450 (1)
0x450|00 00 00 00 00 00 00 00 00 00 00 00 00 00 00   |............... |    reserved: raw bits 0x450-0x45f (15)
0x450|                                             00|               .|    isutcnt: 13 0x45f-0x463 (4)
0x460|00 00 0d                                       |...             |
0x460|         00 00 00 0d                           |   ....         |    isstdcnt: 13 0x463-0x467 (4)
0x460|                     00 00 00 00               |       ....     |    leapcnt: 0 0x467-0x46b (4)
0x460|                                 00 00 00 b8   |           .... |    timecnt: 184 0x46b-0x46f (4)
0x460|                                             00|               .|    typecnt: 13 0x46f-0x473 (4)
0x470|00 00 0d                                       |...             |
0x470|         00 00 00 1f                           |   ....         |    charcnt: 31 0x473-0x477 (4)
     |                                               |                |  v2plusdatablock{}: 0x477-0xb76 (1791)
     |                                               |                |    transition_times[0:184]: 0x477-0xa37 (1472)
0x470|                     ff ff ff ff 6b c9 9b cf   |       ....k... |      [0]: "1891-03-15T23:50:39Z" (-2486592561) transition_time 0x477-0x47f (8)
0x470|                                             ff|               .|      [1]: "1911-03-10T23:50:39Z" (-1855958961) transition_time 0x47f-0x487 (8)
0x480|ff ff ff 91 60 50 4f                           |....`PO         |
0x480|                     ff ff ff ff 9b 47 78 f0   |       .....Gx. |      [2]: "1916-06-14T23:00:00Z" (-1689814800) transition_time 0x487-0x48f (8)
0x480|                                             ff|               .|      [3]: "1916-10-01T23:00:00Z" (-1680397200) transition_time 0x48f-0x497 (8)
0x490|ff ff ff 9b d7 2c 70                           |.....,p         |
0x490|                     ff ff ff ff 9c bc 91 70   |       .......p |      [4]: "1917-03-24T23:00:00Z" (-1665363600) transition_time 0x497-0x49f (8)
0x490|                                             ff|               .|      [5]: "1917-10-07T23:00:00Z" (-1648342800) transition_time 0x49f-0x4a7 (8)
0x4a0|ff ff ff 9d c0 48 f0                           |.....H.         |
0x4a0|                     ff ff ff ff 9e 89 fe 70   |       .......p |      [6]: "1918-03-09T23:00:00Z" (-1635123600) transition_time 0x4a7-0x4af (8)
0x4a0|                                             ff|               .|      [7]: "1918-10-06T23:00:00Z" (-1616893200) transition_time 0x4af-0x4b7 (8)
0x4b0|ff ff ff 9f a0 2a f0                           |.....*.         |
0x4b0|                     ff ff ff ff a0 60 a5 f0   |       .....`.. |      [8]: "1919-03-01T23:00:00Z" (-1604278800) transition_time 0x4b7-0x4bf (8)
0x4b0|                                             ff|               .|      [9]: "1919-10-05T23:00:00Z" (-1585443600) transition_time 0x4bf-0x4c7 (8)
0x4c0|ff ff ff a1 80 0c f0                           |.......         |
0x4c0|                     ff ff ff ff a2 2e 12 f0   |       ........ |      [10]: "1920-02-14T23:00:00Z" (-1574038800) transition_time 0x4c7-0x4cf (8)
0x4c0|                                             ff|               .|      [11]: "1920-10-23T23:00:00Z" (-1552266000) transition_time 0x4cf-0x4d7 (8)
0x4d0|ff ff ff a3 7a 4c f0                           |....zL.         |
0x4d0|                     ff ff ff ff a4 35 81 f0   |       .....5.. |      [12]: "1921-03-14T23:00:00Z" (-1539997200) transition_time 0x4d7-0x4df (8)
0x4d0|                                             ff|               .|      [13]: "1921-10-25T23:00:00Z" (-1520557200) transition_time 0x4df-0x4e7 (8)
0x4e0|ff ff ff a5 5e 23 70                           |....^#p         |
0x4e0|                     ff ff ff ff a6 25 35 f0   |       .....%5. |      [14]: "1922-03-25T23:00:00Z" (-1507510800) transition_time 0x4e7-0x4ef (8)
0x4e0|                                             ff|               .|      [15]: "1922-10-07T23:00:00Z" (-1490576400) transition_time 0x4ef-0x4f7 (8)
0x4f0|ff ff ff a7 27 9b f0                           |....'..         |
0x4f0|                     ff ff ff ff a8 58 26 70   |       .....X&p |      [16]: "1923-05-26T23:00:00Z" (-1470618000) transition_time 0x4f7-0x4ff (8)
0x4f0|                                             ff|               .|      [17]: "1923-10-06T23:00:00Z" (-1459126800) transition_time 0x4ff-0x507 (8)
0x500|ff ff ff a9 07 7d f0                           |.....}.         |
0x500|                     ff ff ff ff a9 ee 34 70   |       ......4p |      [18]: "1924-03-29T23:00:00Z" (-1444006800) transition_time 0x507-0x50f (8)
0x500|                                             ff|               .|      [19]: "1924-10-04T23:00:00Z" (-1427677200) transition_time 0x50f-0x517 (8)
0x510|ff ff ff aa e7 5f f0                           |....._.         |
0x510|                     ff ff ff ff ab d7 50 f0   |       ......P. |      [20]: "1925-04-04T23:00:00Z" (-1411952400) transition_time 0x517-0x51f (8)
0x510|                                             ff|               .|      [21]: "1925-10-03T23:00:00Z" (-1396227600) transition_time 0x51f-0x527 (8)
0x520|ff ff ff ac c7 41 f0                           |.....A.         |
0x520|                     ff ff ff ff ad c9 a7 f0   |       ........ |      [22]: "1926-04-17T23:00:00Z" (-1379293200) transition_time 0x527-0x52f (8)
0x520|                                             ff|               .|      [23]: "1926-10-02T23:00:00Z" (-1364778000) transition_time 0x52f-0x537 (8)
0x530|ff ff ff ae a7 23 f0                           |.....#.         |
0x530|                     ff ff ff ff af a0 4f 70   |       ......Op |      [24]: "1927-04-09T23:00:00Z" (-1348448400) transition_time 0x537-0x53f (8)
0x530|                                             ff|               .|      [25]: "1927-10-01T23:00:00Z" (-1333328400) transition_time 0x53f-0x547 (8)
0x540|ff ff ff b0 87 05 f0                           |.......         |
0x540|                     ff ff ff ff b1 89 6b f0   |       ......k. |      [26]: "1928-04-14T23:00:00Z" (-1316394000) transition_time 0x547-0x54f (8)
0x540|                                             ff|               .|      [27]: "1928-10-06T23:00:00Z" (-1301274000) transition_time 0x54f-0x557 (8)
0x550|ff ff ff b2 70 22 70                           |....p"p         |
0x550|                     ff ff ff ff b3 72 88 70   |       .....r.p |      [28]: "1929-04-20T23:00:00Z" (-1284339600) transition_time 0x557-0x55f (8)
0x550|                                             ff|               .|      [29]: "1929-10-05T23:00:00Z" (-1269824400) transition_time 0x55f-0x567 (8)
0x560|ff ff ff b4 50 04 70                           |....P.p         |
0x560|                     ff ff ff ff b5 49 2f f0   |       .....I/. |      [30]: "1930-04-12T23:00:00Z" (-1253494800) transition_time 0x567-0x56f (8)
0x560|                                             ff|               .|      [31]: "1930-10-04T23:00:00Z" (-1238374800) transition_time 0x56f-0x577 (8)
0x570|ff ff ff b6 2f e6 70                           |..../.p         |
0x570|                     ff ff ff ff b7 32 4c 70   |       .....2Lp |      [32]: "1931-04-18T23:00:00Z" (-1221440400) transition_time 0x577-0x57f (8)
0x570|                                             ff|               .|      [33]: "1931-10-03T23:00:00Z" (-1206925200) transition_time 0x57f-0x587 (8)
0x580|ff ff ff b8 0f c8 70                           |......p         |
0x580|                     ff ff ff ff b8 ff b9 70   |       .......p |      [34]: "1932-04-02T23:00:00Z" (-1191200400) transition_time 0x587-0x58f (8)
0x580|                                             ff|               .|      [35]: "1932-10-01T23:00:00Z" (-1175475600) transition_time 0x58f-0x597 (8)
0x590|ff ff ff b9 ef aa 70                           |......p         |
0x590|                     ff ff ff ff ba d6 60 f0   |       ......`. |      [36]: "1933-03-25T23:00:00Z" (-1160355600) transition_time 0x597-0x59f (8)
0x590|                                             ff|               .|      [37]: "1933-10-07T23:00:00Z" (-1143421200) transition_time 0x59f-0x5a7 (8)
0x5a0|ff ff ff bb d8 c6 f0                           |.......         |
0x5a0|                     ff ff ff ff bc c8 b7 f0   |       ........ |      [38]: "1934-04-07T23:00:00Z" (-1127696400) transition_time 0x5a7-0x5af (8)
0x5a0|                                             ff|               .|      [39]: "1934-10-06T23:00:00Z" (-1111971600) transition_time 0x5af-0x5b7 (8)
0x5b0|ff ff ff bd b8 a8 f0                           |.......         |
0x5b0|                     ff ff ff ff be 9f 5f 70   |       ......_p |      [40]: "1935-03-30T23:00:00Z" (-1096851600) transition_time 0x5b7-0x5bf (8)
0x5b0|                                             ff|               .|      [41]: "1935-10-05T23:00:00Z" (-1080522000) transition_time 0x5bf-0x5c7 (8)
0x5c0|ff ff ff bf 98 8a f0                           |.......         |
0x5c0|                     ff ff ff ff c0 9a f0 f0   |       ........ |      [42]: "1936-04-18T23:00:00Z" (-1063587600) transition_time 0x5c7-0x5cf (8)
0x5c0|                                             ff|               .|      [43]: "1936-10-03T23:00:00Z" (-1049072400) transition_time 0x5cf-0x5d7 (8)
0x5d0|ff ff ff c1 78 6c f0                           |....xl.         |
0x5d0|                     ff ff ff ff c2 68 5d f0   |       .....h]. |      [44]: "1937-04-03T23:00:00Z" (-1033347600) transition_time 0x5d7-0x5df (8)
0x5d0|                                             ff|               .|      [45]: "1937-10-02T23:00:00Z" (-1017622800) transition_time 0x5df-0x5e7 (8)
0x5e0|ff ff ff c3 58 4e f0                           |....XN.         |
0x5e0|                     ff ff ff ff c4 3f 05 70   |       .....?.p |      [46]: "1938-03-26T23:00:00Z" (-1002502800) transition_time 0x5e7-0x5ef (8)
0x5e0|                                             ff|               .|      [47]: "1938-10-01T23:00:00Z" (-986173200) transition_time 0x5ef-0x5f7 (8)
0x5f0|ff ff ff c5 38 30 f0                           |....80.         |
0x5f0|                     ff ff ff ff c6 3a 96 f0   |       .....:.. |      [48]: "1939-04-15T23:00:00Z" (-969238800) transition_time 0x5f7-0x5ff (8)
0x5f0|                                             ff|               .|      [49]: "1939-11-18T23:00:00Z" (-950490000) transition_time 0x5ff-0x607 (8)
0x600|ff ff ff c7 58 ac 70                           |....X.p         |
0x600|                     ff ff ff ff c7 da 09 a0   |       ........ |      [50]: "1940-02-25T02:00:00Z" (-942012000) transition_time 0x607-0x60f (8)
0x600|                                             ff|               .|      [51]: "1940-06-14T22:00:00Z" (-932436000) transition_time 0x60f-0x617 (8)
0x610|ff ff ff c8 6c 27 e0                           |....l'.         |
0x610|                     ff ff ff ff cc e7 4b 10   |       ......K. |      [52]: "1942-11-02T01:00:00Z" (-857257200) transition_time 0x617-0x61f (8)
0x610|                                             ff|               .|      [53]: "1943-03-29T01:00:00Z" (-844556400) transition_time 0x61f-0x627 (8)
0x620|ff ff ff cd a9 17 90                           |.......         |
0x620|                     ff ff ff ff ce a2 43 10   |       ......C. |      [54]: "1943-10-04T01:00:00Z" (-828226800) transition_time 0x627-0x62f (8)
0x620|                                             ff|               .|      [55]: "1944-04-03T01:00:00Z" (-812502000) transition_time 0x62f-0x637 (8)
0x630|ff ff ff cf 92 34 10                           |.....4.         |
0x630|                     ff ff ff ff d0 4f e1 e0   |       .....O.. |      [56]: "1944-08-24T22:00:00Z" (-800071200) transition_time 0x637-0x63f (8)
0x630|                                             ff|               .|      [57]: "1944-10-07T23:00:00Z" (-796266000) transition_time 0x63f-0x647 (8)
0x640|ff ff ff d0 89 f1 f0                           |.......         |
0x640|                     ff ff ff ff d1 72 16 10   |       .....r.. |      [58]: "1945-04-02T01:00:00Z" (-781052400) transition_time 0x647-0x64f (8)
0x640|                                             ff|               .|      [59]: "1945-09-16T01:00:00Z" (-766623600) transition_time 0x64f-0x657 (8)
0x650|ff ff ff d2 4e 40 90                           |....N@.         |
0x650|                     00 00 00 00 0b bb 39 00   |       ......9. |      [60]: "1976-03-28T00:00:00Z" (196819200) transition_time 0x657-0x65f (8)
0x650|                                             00|               .|      [61]: "1976-09-25T23:00:00Z" (212540400) transition_time 0x65f-0x667 (8)
0x660|00 00 00 0c ab 1b f0                           |.......         |
0x660|                     00 00 00 00 0d a4 63 90   |       ......c. |      [62]: "1977-04-03T01:00:00Z" (228877200) transition_time 0x667-0x66f (8)
0x660|                                             00|               .|      [63]: "1977-09-25T01:00:00Z" (243997200) transition_time 0x66f-0x677 (8)
0x670|00 00 00 0e 8b 1a 10                           |.......         |
0x670|                     00 00 00 00 0f 84 45 90   |       ......E. |      [64]: "1978-04-02T01:00:00Z" (260326800) transition_time 0x677-0x67f (8)
0x670|                                             00|               .|      [65]: "1978-10-01T01:00:00Z" (276051600) transition_time 0x67f-0x687 (8)
0x680|00 00 00 10 74 36 90                           |....t6.         |
0x680|                     00 00 00 00 11 64 27 90   |       .....d'. |      [66]: "1979-04-01T01:00:00Z" (291776400) transition_time 0x687-0x68f (8)
0x680|                                             00|               .|      [67]: "1979-09-30T01:00:00Z" (307501200) transition_time 0x68f-0x697 (8)
0x690|00 00 00 12 54 18 90                           |....T..         |
0x690|                     00 00 00 00 13 4d 44 10   |       .....MD. |      [68]: "1980-04-06T01:00:00Z" (323830800) transition_time 0x697-0x69f (8)
0x690|                                             00|               .|      [69]: "1980-09-28T01:00:00Z" (338950800) transition_time 0x69f-0x6a7 (8)
0x6a0|00 00 00 14 33 fa 90                           |....3..         |
0x6a0|                     00 00 00 00 15 23 eb 90   |       .....#.. |      [70]: "1981-03-29T01:00:00Z" (354675600) transition_time 0x6a7-0x6af (8)
0x6a0|                                             00|               .|      [71]: "1981-09-27T01:00:00Z" (370400400) transition_time 0x6af-0x6b7 (8)
0x6b0|00 00 00 16 13 dc 90                           |.......         |
0x6b0|                     00 00 00 00 17 03 cd 90   |       ........ |      [72]: "1982-03-28T01:00:00Z" (386125200) transition_time 0x6b7-0x6bf (8)
0x6b0|                                             00|               .|      [73]: "1982-09-26T01:00:00Z" (401850000) transition_time 0x6bf-0x6c7 (8)
0x6c0|00 00 00 17 f3 be 90                           |.......         |
0x6c0|                     00 00 00 00 18 e3 af 90   |       ........ |      [74]: "1983-03-27T01:00:00Z" (417574800) transition_time 0x6c7-0x6cf (8)
0x6c0|                                             00|               .|      [75]: "1983-09-25T01:00:00Z" (433299600) transition_time 0x6cf-0x6d7 (8)
0x6d0|00 00 00 19 d3 a0 90                           |.......         |
0x6d0|                     00 00 00 00 1a c3 91 90   |       ........ |      [76]: "1984-03-25T01:00:00Z" (449024400) transition_time 0x6d7-0x6df (8)
0x6d0|                                             00|               .|      [77]: "1984-09-30T01:00:00Z" (465354000) transition_time 0x6df-0x6e7 (8)
0x6e0|00 00 00 1b bc bd 10                           |.......         |
0x6e0|                     00 00 00 00 1c ac ae 10   |       ........ |      [78]: "1985-03-31T01:00:00Z" (481078800) transition_time 0x6e7-0x6ef (8)
0x6e0|                                             00|               .|      [79]: "1985-09-29T01:00:00Z" (496803600) transition_time 0x6ef-0x6f7 (8)
0x6f0|00 00 00 1d 9c 9f 10                           |.......         |
0x6f0|                     00 00 00 00 1e 8c 90 10   |       ........ |      [80]: "1986-03-30T01:00:00Z" (512528400) transition_time 0x6f7-0x6ff (8)
0x6f0|                                             00|               .|      [81]: "1986-09-28T01:00:00Z" (528253200) transition_time 0x6ff-0x707 (8)
0x700|00 00 00 1f 7c 81 10                           |....|..         |
0x700|                     00 00 00 00 20 6c 72 10   |       .... lr. |      [82]: "1987-03-29T01:00:00Z" (543978000) transition_time 0x707-0x70f (8)
0x700|                                             00|               .|      [83]: "1987-09-27T01:00:00Z" (559702800) transition_time 0x70f-0x717 (8)
0x710|00 00 00 21 5c 63 10                           |...!\c.         |
0x710|                     00 00 00 00 22 4c 54 10   |       ...."LT. |      [84]: "1988-03-27T01:00:00Z" (575427600) transition_time 0x717-0x71f (8)
0x710|                                             00|               .|      [85]: "1988-09-25T01:00:00Z" (591152400) transition_time 0x71f-0x727 (8)
0x720|00 00 00 23 3c 45 10                           |...#<E.         |
0x720|                     00 00 00 00 24 2c 36 10   |       ....$,6. |      [86]: "1989-03-26T01:00:00Z" (606877200) transition_time 0x727-0x72f (8)
0x720|                                             00|               .|      [87]: "1989-09-24T01:00:00Z" (622602000) transition_time 0x72f-0x737 (8)
0x730|00 00 00 25 1c 27 10                           |...%.'.         |
0x730|                     00 00 00 00 26 0c 18 10   |       ....&... |      [88]: "1990-03-25T01:00:00Z" (638326800) transition_time 0x737-0x73f (8)
0x730|                                             00|               .|      [89]: "1990-09-30T01:00:00Z" (654656400) transition_time 0x73f-0x747 (8)
0x740|00 00 00 27 05 43 90                           |...'.C.         |
0x740|                     00 00 00 00 27 f5 34 90   |       ....'.4. |      [90]: "1991-03-31T01:00:00Z" (670381200) transition_time 0x747-0x74f (8)
0x740|                                             00|               .|      [91]: "1991-09-29T01:00:00Z" (686106000) transition_time 0x74f-0x757 (8)
0x750|00 00 00 28 e5 25 90                           |...(.%.         |
0x750|                     00 00 00 00 29 d5 16 90   |       ....)... |      [92]: "1992-03-29T01:00:00Z" (701830800) transition_time 0x757-0x75f (8)
0x750|                                             00|               .|      [93]: "1992-09-27T01:00:00Z" (717555600) transition_time 0x75f-0x767 (8)
0x760|00 00 00 2a c5 07 90                           |...*...         |
0x760|                     00 00 00 00 2b b4 f8 90   |       ....+... |      [94]: "1993-03-28T01:00:00Z" (733280400) transition_time 0x767-0x76f (8)
0x760|                                             00|               .|      [95]: "1993-09-26T01:00:00Z" (749005200) transition_time 0x76f-0x777 (8)
0x770|00 00 00 2c a4 e9 90                           |...,...         |
0x770|                     00 00 00 00 2d 94 da 90   |       ....-... |      [96]: "1994-03-27T01:00:00Z" (764730000) transition_time 0x777-0x77f (8)
0x770|                                             00|               .|      [97]: "1994-09-25T01:00:00Z" (780454800) transition_time 0x77f-0x787 (8)
0x780|00 00 00 2e 84 cb 90                           |.......         |
0x780|                     00 00 00 00 2f 74 bc 90   |       ..../t.. |      [98]: "1995-03-26T01:00:00Z" (796179600) transition_time 0x787-0x78f (8)
0x780|                                             00|               .|      [99]: "1995-09-24T01:00:00Z" (811904400) transition_time 0x78f-0x797 (8)
0x790|00 00 00 30 64 ad 90                           |...0d..         |
0x790|                     00 00 00 00 31 5d d9 10   |       ....1].. |      [100]: "1996-03-31T01:00:00Z" (828234000) transition_time 0x797-0x79f (8)
0x790|                                             00|               .|      [101]: "1996-10-27T01:00:00Z" (846378000) transition_time 0x79f-0x7a7 (8)
0x7a0|00 00 00 32 72 b4 10                           |...2r..         |
0x7a0|                     00 00 00 00 33 3d bb 10   |       ....3=.. |      [102]: "1997-03-30T01:00:00Z" (859683600) transition_time 0x7a7-0x7af (8)
0x7a0|                                             00|               .|      [103]: "1997-10-26T01:00:00Z" (877827600) transition_time 0x7af-0x7b7 (8)
0x7b0|00 00 00 34 52 96 10                           |...4R..         |
0x7b0|                     00 00 00 00 35 1d 9d 10   |       ....5... |      [104]: "1998-03-29T01:00:00Z" (891133200) transition_time 0x7b7-0x7bf (8)
0x7b0|                                             00|               .|      [105]: "1998-10-25T01:00:00Z" (909277200) transition_time 0x7bf-0x7c7 (8)
0x7c0|00 00 00 36 32 78 10                           |...62x.         |
0x7c0|                     00 00 00 00 36 fd 7f 10   |       ....6... |      [106]: "1999-03-28T01:00:00Z" (922582800) transition_time 0x7c7-0x7cf (8)
0x7c0|                                             00|               .|      [107]: "1999-10-31T01:00:00Z" (941331600) transition_time 0x7cf-0x7d7 (8)
0x7d0|00 00 00 38 1b 94 90                           |...8...         |
0x7d0|                     00 00 00 00 38 dd 61 10   |       ....8.a. |      [108]: "2000-03-26T01:00:00Z" (954032400) transition_time 0x7d7-0x7df (8)
0x7d0|                                             00|               .|      [109]: "2000-10-29T01:00:00Z" (972781200) transition_time 0x7df-0x7e7 (8)
0x7e0|00 00 00 39 fb 76 90                           |...9.v.         |
0x7e0|                     00 00 00 00 3a bd 43 10   |       ....:.C. |      [110]: "2001-03-25T01:00:00Z" (985482000) transition_time 0x7e7-0x7ef (8)
0x7e0|                                             00|               .|      [111]: "2001-10-28T01:00:00Z" (1004230800) transition_time 0x7ef-0x7f7 (8)
0x7f0|00 00 00 3b db 58 90                           |...;.X.         |
0x7f0|                     00 00 00 00 3c a6 5f 90   |       ....<._. |      [112]: "2002-03-31T01:00:00Z" (1017536400) transition_time 0x7f7-0x7ff (8)
0x7f0|                                             00|               .|      [113]: "2002-10-27T01:00:00Z" (1035680400) transition_time 0x7ff-0x807 (8)
0x800|00 00 00 3d bb 3a 90                           |...=.:.         |
0x800|                     00 00 00 00 3e 86 41 90   |       ....>.A. |      [114]: "2003-03-30T01:00:00Z" (1048986000) transition_time 0x807-0x80f (8)
0x800|                                             00|               .|      [115]: "2003-10-26T01:00:00Z" (1067130000) transition_time 0x80f-0x817 (8)
0x810|00 00 00 3f 9b 1c 90                           |...?...         |
0x810|                     00 00 00 00 40 66 23 90   |       ....@f#. |      [116]: "2004-03-28T01:00:00Z" (1080435600) transition_time 0x817-0x81f (8)
0x810|                                             00|               .|      [117]: "2004-10-31T01:00:00Z" (1099184400) transition_time 0x81f-0x827 (8)
0x820|00 00 00 41 84 39 10                           |...A.9.         |
0x820|                     00 00 00 00 42 46 05 90   |       ....BF.. |      [118]: "2005-03-27T01:00:00Z" (1111885200) transition_time 0x827-0x82f (8)
0x820|                                             00|               .|      [119]: "2005-10-30T01:00:00Z" (1130634000) transition_time 0x82f-0x837 (8)
0x830|00 00 00 43 64 1b 10                           |...Cd..         |
0x830|                     00 00 00 00 44 25 e7 90   |       ....D%.. |      [120]: "2006-03-26T01:00:00Z" (1143334800) transition_time 0x837-0x83f (8)
0x830|                                             00|               .|      [121]: "2006-10-29T01:00:00Z" (1162083600) transition_time 0x83f-0x847 (8)
0x840|00 00 00 45 43 fd 10                           |...EC..         |
0x840|                     00 00 00 00 46 05 c9 90   |       ....F... |      [122]: "2007-03-25T01:00:00Z" (1174784400) transition_time 0x847-0x84f (8)
0x840|                                             00|               .|      [123]: "2007-10-28T01:00:00Z" (1193533200) transition_time 0x84f-0x857 (8)
0x850|00 00 00 47 23 df 10                           |...G#..         |
0x850|                     00 00 00 00 47 ee e6 10   |       ....G... |      [124]: "2008-03-30T01:00:00Z" (1206838800) transition_time 0x857-0x85f (8)
0x850|                                             00|               .|      [125]: "2008-10-26T01:00:00Z" (1224982800) transition_time 0x85f-0x867 (8)
0x860|00 00 00 49 03 c1 10                           |...I...         |
0x860|                     00 00 00 00 49 ce c8 10   |       ....I... |      [126]: "2009-03-29T01:00:00Z" (1238288400) transition_time 0x867-0x86f (8)
0x860|                                             00|               .|      [127]: "2009-10-25T01:00:00Z" (1256432400) transition_time 0x86f-0x877 (8)
0x870|00 00 00 4a e3 a3 10                           |...J...         |
0x870|                     00 00 00 00 4b ae aa 10   |       ....K... |      [128]: "2010-03-28T01:00:00Z" (1269738000) transition_time 0x877-0x87f (8)
0x870|                                             00|               .|      [129]: "2010-10-31T01:00:00Z" (1288486800) transition_time 0x87f-0x887 (8)
0x880|00 00 00 4c cc bf 90                           |...L...         |
0x880|                     00 00 00 00 4d 8e 8c 10   |       ....M... |      [130]: "2011-03-27T01:00:00Z" (1301187600) transition_time 0x887-0x88f (8)
0x880|                                             00|               .|      [131]: "2011-10-30T01:00:00Z" (1319936400) transition_time 0x88f-0x897 (8)
0x890|00 00 00 4e ac a1 90                           |...N...         |
0x890|                     00 00 00 00 4f 6e 6e 10   |       ....Onn. |      [132]: "2012-03-25T01:00:00Z" (1332637200) transition_time 0x897-0x89f (8)
0x890|                                             00|               .|      [133]: "2012-10-28T01:00:00Z" (1351386000) transition_time 0x89f-0x8a7 (8)
0x8a0|00 00 00 50 8c 83 90                           |...P...         |
0x8a0|                     00 00 00 00 51 57 8a 90   |       ....QW.. |      [134]: "2013-03-31T01:00:00Z" (1364691600) transition_time 0x8a7-0x8af (8)
0x8a0|                                             00|               .|      [135]: "2013-10-27T01:00:00Z" (1382835600) transition_time 0x8af-0x8b7 (8)
0x8b0|00 00 00 52 6c 65 90                           |...Rle.         |
0x8b0|                     00 00 00 00 53 37 6c 90   |       ....S7l. |      [136]: "2014-03-30T01:00:00Z" (1396141200) transition_time 0x8b7-0x8bf (8)
0x8b0|                                             00|               .|      [137]: "2014-10-26T01:00:00Z" (1414285200) transition_time 0x8bf-0x8c7 (8)
0x8c0|00 00 00 54 4c 47 90                           |...TLG.         |
0x8c0|                     00 00 00 00 55 17 4e 90   |       ....U.N. |      [138]: "2015-03-29T01:00:00Z" (1427590800) transition_time 0x8c7-0x8cf (8)
0x8c0|                                             00|               .|      [139]: "2015-10-25T01:00:00Z" (1445734800) transition_time 0x8cf-0x8d7 (8)
0x8d0|00 00 00 56 2c 29 90                           |...V,).         |
0x8d0|                     00 00 00 00 56 f7 30 90   |       ....V.0. |      [140]: "2016-03-27T01:00:00Z" (1459040400) transition_time 0x8d7-0x8df (8)
0x8d0|                                             00|               .|      [141]: "2016-10-30T01:00:00Z" (1477789200) transition_time 0x8df-0x8e7 (8)
0x8e0|00 00 00 58 15 46 10                           |...X.F.         |
0x8e0|                     00 00 00 00 58 d7 12 90   |       ....X... |      [142]: "2017-03-26T01:00:00Z" (1490490000) transition_time 0x8e7-0x8ef (8)
0x8e0|                                             00|               .|      [143]: "2017-10-29T01:00:00Z" (1509238800) transition_time 0x8ef-0x8f7 (8)
0x8f0|00 00 00 59 f5 28 10                           |...Y.(.         |
0x8f0|                     00 00 00 00 5a b6 f4 90   |       ....Z... |      [144]: "2018-03-25T01:00:00Z" (1521939600) transition_time 0x8f7-0x8ff (8)
0x8f0|                                             00|               .|      [145]: "2018-10-28T01:00:00Z" (1540688400) transition_time 0x8ff-0x907 (8)
0x900|00 00 00 5b d5 0a 10                           |...[...         |
0x900|                     00 00 00 00 5c a0 11 10   |       ....\... |      [146]: "2019-03-31T01:00:00Z" (1553994000) transition_time 0x907-0x90f (8)
0x900|                                             00|               .|      [147]: "2019-10-27T01:00:00Z" (1572138000) transition_time 0x90f-0x917 (8)
0x910|00 00 00 5d b4 ec 10                           |...]...         |
0x910|                     00 00 00 00 5e 7f f3 10   |       ....^... |      [148]: "2020-03-29T01:00:00Z" (1585443600) transition_time 0x917-0x91f (8)
0x910|                                             00|               .|      [149]: "2020-10-25T01:00:00Z" (1603587600) transition_time 0x91f-0x927 (8)
0x920|00 00 00 5f 94 ce 10                           |..._...         |
0x920|                     00 00 00 00 60 5f d5 10   |       ....`_.. |      [150]: "2021-03-28T01:00:00Z" (1616893200) transition_time 0x927-0x92f (8)
0x920|                                             00|               .|      [151]: "2021-10-31T01:00:00Z" (1635642000) transition_time 0x92f-0x937 (8)
0x930|00 00 00 61 7d ea 90                           |...a}..         |
0x930|                     00 00 00 00 62 3f b7 10   |       ....b?.. |      [152]: "2022-03-27T01:00:00Z" (1648342800) transition_time 0x937-0x93f (8)
0x930|                                             00|               .|      [153]: "2022-10-30T01:00:00Z" (1667091600) transition_time 0x93f-0x947 (8)
0x940|00 00 00 63 5d cc 90                           |...c]..         |
0x940|                     00 00 00 00 64 1f 99 10   |       ....d... |      [154]: "2023-03-26T01:00:00Z" (1679792400) transition_time 0x947-0x94f (8)
0x940|                                             00|               .|      [155]: "2023-10-29T01:00:00Z" (1698541200) transition_time 0x94f-0x957 (8)
0x950|00 00 00 65 3d ae 90                           |...e=..         |
0x950|                     00 00 00 00 66 08 b5 90   |       ....f... |      [156]: "2024-03-31T01:00:00Z" (1711846800) transition_time 0x957-0x95f (8)
0x950|                                             00|               .|      [157]: "2024-10-27T01:00:00Z" (1729990800) transition_time 0x95f-0x967 (8)
0x960|00 00 00 67 1d 90 90                           |...g...         |
0x960|                     00 00 00 00 67 e8 97 90   |       ....g... |      [158]: "2025-03-30T01:00:00Z" (1743296400) transition_time 0x967-0x96f (8)
0x960|                                             00|               .|      [159]: "2025-10-26T01:00:00Z" (1761440400) transition_time 0x96f-0x977 (8)
0x970|00 00 00 68 fd 72 90                           |...h.r.         |
0x970|                     00 00 00 00 69 c8 79 90   |       ....i.y. |      [160]: "2026-03-29T01:00:00Z" (1774746000) transition_time 0x977-0x97f (8)
0x970|                                             00|               .|      [161]: "2026-10-25T01:00:00Z" (1792890000) transition_time 0x97f-0x987 (8)
0x980|00 00 00 6a dd 54 90                           |...j.T.         |
0x980|                     00 00 00 00 6b a8 5b 90   |       ....k.[. |      [162]: "2027-03-28T01:00:00Z" (1806195600) transition_time 0x987-0x98f (8)
0x980|                                             00|               .|      [163]: "2027-10-31T01:00:00Z" (1824944400) transition_time 0x98f-0x997 (8)
0x990|00 00 00 6c c6 71 10                           |...l.q.         |
0x990|                     00 00 00 00 6d 88 3d 90   |       ....m.=. |      [164]: "2028-03-26T01:00:00Z" (1837645200) transition_time 0x997-0x99f (8)
0x990|                                             00|               .|      [165]: "2028-10-29T01:00:00Z" (1856394000) transition_time 0x99f-0x9a7 (8)
0x9a0|00 00 00 6e a6 53 10                           |...n.S.         |
0x9a0|                     00 00 00 00 6f 68 1f 90   |       ....oh.. |      [166]: "2029-03-25T01:00:00Z" (1869094800) transition_time 0x9a7-0x9af (8)
0x9a0|                                             00|               .|      [167]: "2029-10-28T01:00:00Z" (1887843600) transition_time 0x9af-0x9b7 (8)
0x9b0|00 00 00 70 86 35 10                           |...p.5.         |
0x9b0|                     00 00 00 00 71 51 3c 10   |       ....qQ<. |      [168]: "2030-03-31T01:00:00Z" (1901149200) transition_time 0x9b7-0x9bf (8)
0x9b0|                                             00|               .|      [169]: "2030-10-27T01:00:00Z" (1919293200) transition_time 0x9bf-0x9c7 (8)
0x9c0|00 00 00 72 66 17 10                           |...rf..         |
0x9c0|                     00 00 00 00 73 31 1e 10   |       ....s1.. |      [170]: "2031-03-30T01:00:00Z" (1932598800) transition_time 0x9c7-0x9cf (8)
0x9c0|                                             00|               .|      [171]: "2031-10-26T01:00:00Z" (1950742800) transition_time 0x9cf-0x9d7 (8)
0x9d0|00 00 00 74 45 f9 10                           |...tE..         |
0x9d0|                     00 00 00 00 75 11 00 10   |       ....u... |      [172]: "2032-03-28T01:00:00Z" (1964048400) transition_time 0x9d7-0x9df (8)
0x9d0|                                             00|               .|      [173]: "2032-10-31T01:00:00Z" (1982797200) transition_time 0x9df-0x9e7 (8)
0x9e0|00 00 00 76 2f 15 90                           |...v/..         |
0x9e0|                     00 00 00 00 76 f0 e2 10   |       ....v... |      [174]: "2033-03-27T01:00:00Z" (1995498000) transition_time 0x9e7-0x9ef (8)
0x9e0|                                             00|               .|      [175]: "2033-10-30T01:00:00Z" (2014246800) transition_time 0x9ef-0x9f7 (8)
0x9f0|00 00 00 78 0e f7 90                           |...x...         |
0x9f0|                     00 00 00 00 78 d0 c4 10   |       ....x... |      [176]: "2034-03-26T01:00:00Z" (2026947600) transition_time 0x9f7-0x9ff (8)
0x9f0|                                             00|               .|      [177]: "2034-10-29T01:00:00Z" (2045696400) transition_time 0x9ff-0xa07 (8)
0xa00|00 00 00 79 ee d9 90                           |...y...         |
0xa00|                     00 00 00 00 7a b0 a6 10   |       ....z... |      [178]: "2035-03-25T01:00:00Z" (2058397200) transition_time 0xa07-0xa0f (8)
0xa00|                                             00|               .|      [179]: "2035-10-28T01:00:00Z" (2077146000) transition_time 0xa0f-0xa17 (8)
0xa10|00 00 00 7b ce bb 90                           |...{...         |
0xa10|                     00 00 00 00 7c 99 c2 90   |       ....|... |      [180]: "2036-03-30T01:00:00Z" (2090451600) transition_time 0xa17-0xa1f (8)
0xa10|                                             00|               .|      [181]: "2036-10-26T01:00:00Z" (2108595600) transition_time 0xa1f-0xa27 (8)
0xa20|00 00 00 7d ae 9d 90                           |...}...         |
0xa20|                     00 00 00 00 7e 79 a4 90   |       ....~y.. |      [182]: "2037-03-29T01:00:00Z" (2121901200) transition_time 0xa27-0xa2f (8)
0xa20|                                             00|               .|      [183]: "2037-10-25T01:00:00Z" (2140045200) transition_time 0xa2f-0xa37 (8)
0xa30|00 00 00 7f 8e 7f 90                           |.......         |
     |                                               |                |    transition_types[0:184]: 0xa37-0xaef (184)
0xa30|                     01                        |       .        |      [0]: 1 transition_type 0xa37-0xa38 (1)
0xa30|                        05                     |        .       |      [1]: 5 transition_type 0xa38-0xa39 (1)
0xa30|                           02                  |         .      |      [2]: 2 transition_type 0xa39-0xa3a (1)
0xa30|                              03               |          .     |      [3]: 3 transition_type 0xa3a-0xa3b (1)
0xa30|                                 02            |           .    |      [4]: 2 transition_type 0xa3b-0xa3c (1)
0xa30|                                    03         |            .   |      [5]: 3 transition_type 0xa3c-0xa3d (1)
0xa30|                                       02      |             .  |      [6]: 2 transition_type 0xa3d-0xa3e (1)
0xa30|                                          03   |              . |      [7]: 3 transition_type 0xa3e-0xa3f (1)
0xa30|                                             02|               .|      [8]: 2 transition_type 0xa3f-0xa40 (1)
0xa40|03                                             |.               |      [9]: 3 transition_type 0xa40-0xa41 (1)
0xa40|   02                                          | .              |      [10]: 2 transition_type 0xa41-0xa42 (1)
0xa40|      03                                       |  .             |      [11]: 3 transition_type 0xa42-0xa43 (1)
0xa40|         02                                    |   .            |      [12]: 2 transition_type 0xa43-0xa44 (1)
0xa40|            03                                 |    .           |      [13]: 3 transition_type 0xa44-0xa45 (1)
0xa40|               02                              |     .          |      [14]: 2 transition_type 0xa45-0xa46 (1)
0xa40|                  03                           |      .         |      [15]: 3 transition_type 0xa46-0xa47 (1)
0xa40|                     02                        |       .        |      [16]: 2 transition_type 0xa47-0xa48 (1)
0xa40|                        03                     |        .       |      [17]: 3 transition_type 0xa48-0xa49 (1)
0xa40|                           02                  |         .      |      [18]: 2 transition_type 0xa49-0xa4a (1)
0xa40|                              03               |          .     |      [19]: 3 transition_type 0xa4a-0xa4b (1)
0xa40|                                 02            |           .    |      [20]: 2 transition_type 0xa4b-0xa4c (1)
0xa40|                                    03         |            .   |      [21]: 3 transition_type 0xa4c-0xa4d (1)
0xa40|                                       02      |             .  |      [22]: 2 transition_type 0xa4d-0xa4e (1)
0xa40|                                          03   |              . |      [23]: 3 transition_type 0xa4e-0xa4f (1)
0xa40|                                             02|               .|      [24]: 2 transition_type 0xa4f-0xa50 (1)
0xa50|03                                             |.               |      [25]: 3 transition_type 0xa50-0xa51 (1)
0xa50|   02                                          | .              |      [26]: 2 transition_type 0xa51-0xa52 (1)
0xa50|      03                                       |  .             |      [27]: 3 transition_type 0xa52-0xa53 (1)
0xa50|         02                                    |   .            |      [28]: 2 transition_type 0xa53-0xa54 (1)
0xa50|            03                                 |    .           |      [29]: 3 transition_type 0xa54-0xa55 (1)
0xa50|               02                              |     .          |      [30]: 2 transition_type 0xa55-0xa56 (1)
0xa50|                  03                           |      .         |      [31]: 3 transition_type 0xa56-0xa57 (1)
0xa50|                     02                        |       .        |      [32]: 2 transition_type 0xa57-0xa58 (1)
0xa50|                        03                     |        .       |      [33]: 3 transition_type 0xa58-0xa59 (1)
0xa50|                           02                  |         .      |      [34]: 2 transition_type 0xa59-0xa5a (1)
0xa50|                              03               |          .     |      [35]: 3 transition_type 0xa5a-0xa5b (1)
0xa50|                                 02            |           .    |      [36]: 2 transition_type 0xa5b-0xa5c (1)
0xa50|                                    03         |            .   |      [37]: 3 transition_type 0xa5c-0xa5d (1)
0xa50|                                       02      |             .  |      [38]: 2 transition_type 0xa5d-0xa5e (1)
0xa50|                                          03   |              . |      [39]: 3 transition_type 0xa5e-0xa5f (1)
0xa50|                                             02|               .|      [40]: 2 transition_type 0xa5f-0xa60 (1)
0xa60|03                                             |.               |      [41]: 3 transition_type 0xa60-0xa61 (1)
0xa60|   02                                          | .              |      [42]: 2 transition_type 0xa61-0xa62 (1)
0xa60|      03                                       |  .             |      [43]: 3 transition_type 0xa62-0xa63 (1)
0xa60|         02                                    |   .            |      [44]: 2 transition_type 0xa63-0xa64 (1)
0xa60|            03                                 |    .           |      [45]: 3 transition_type 0xa64-0xa65 (1)
0xa60|               02                              |     .          |      [46]: 2 transition_type 0xa65-0xa66 (1)
0xa60|                  03                           |      .         |      [47]: 3 transition_type 0xa66-0xa67 (1)
0xa60|                     02                        |       .        |      [48]: 2 transition_type 0xa67-0xa68 (1)
0xa60|                        03                     |        .       |      [49]: 3 transition_type 0xa68-0xa69 (1)
0xa60|                           04                  |         .      |      [50]: 4 transition_type 0xa69-0xa6a (1)
0xa60|                              08               |          .     |      [51]: 8 transition_type 0xa6a-0xa6b (1)
0xa60|                                 06            |           .    |      [52]: 6 transition_type 0xa6b-0xa6c (1)
0xa60|                                    07         |            .   |      [53]: 7 transition_type 0xa6c-0xa6d (1)
0xa60|                                       06      |             .  |      [54]: 6 transition_type 0xa6d-0xa6e (1)
0xa60|                                          07   |              . |      [55]: 7 transition_type 0xa6e-0xa6f (1)
0xa60|                                             09|               .|      [56]: 9 transition_type 0xa6f-0xa70 (1)
0xa70|04                                             |.               |      [57]: 4 transition_type 0xa70-0xa71 (1)
0xa70|   09                                          | .              |      [58]: 9 transition_type 0xa71-0xa72 (1)
0xa70|      0a                                       |  .             |      [59]: 10 transition_type 0xa72-0xa73 (1)
0xa70|         08                                    |   .            |      [60]: 8 transition_type 0xa73-0xa74 (1)
0xa70|            0a                                 |    .           |      [61]: 10 transition_type 0xa74-0xa75 (1)
0xa70|               0b                              |     .          |      [62]: 11 transition_type 0xa75-0xa76 (1)
0xa70|                  0c                           |      .         |      [63]: 12 transition_type 0xa76-0xa77 (1)
0xa70|                     0b                        |       .        |      [64]: 11 transition_type 0xa77-0xa78 (1)
0xa70|                        0c                     |        .       |      [65]: 12 transition_type 0xa78-0xa79 (1)
0xa70|                           0b                  |         .      |      [66]: 11 transition_type 0xa79-0xa7a (1)
0xa70|                              0c               |          .     |      [67]: 12 transition_type 0xa7a-0xa7b (1)
0xa70|                                 0b            |           .    |      [68]: 11 transition_type 0xa7b-0xa7c (1)
0xa70|                                    0c         |            .   |      [69]: 12 transition_type 0xa7c-0xa7d (1)
0xa70|                                       0b      |             .  |      [70]: 11 transition_type 0xa7d-0xa7e (1)
0xa70|                                          0c   |              . |      [71]: 12 transition_type 0xa7e-0xa7f (1)
0xa70|                                             0b|               .|      [72]: 11 transition_type 0xa7f-0xa80 (1)
0xa80|0c                                             |.               |      [73]: 12 transition_type 0xa80-0xa81 (1)
0xa80|   0b                                          | .              |      [74]: 11 transition_type 0xa81-0xa82 (1)
0xa80|      0c                                       |  .             |      [75]: 12 transition_type 0xa82-0xa83 (1)
0xa80|         0b                                    |   .            |      [76]: 11 transition_type 0xa83-0xa84 (1)
0xa80|            0c                                 |    .           |      [77]: 12 transition_type 0xa84-0xa85 (1)
0xa80|               0b                              |     .          |      [78]: 11 transition_type 0xa85-0xa86 (1)
0xa80|                  0c                           |      .         |      [79]: 12 transition_type 0xa86-0xa87 (1)
0xa80|                     0b                        |       .        |      [80]: 11 transition_type 0xa87-0xa88 (1)
0xa80|                        0c                     |        .       |      [81]: 12 transition_type 0xa88-0xa89 (1)
0xa80|                           0b                  |         .      |      [82]: 11 transition_type 0xa89-0xa8a (1)
0xa80|                              0c               |          .     |      [83]: 12 transition_type 0xa8a-0xa8b (1)
0xa80|                                 0b            |           .    |      [84]: 11 transition_type 0xa8b-0xa8c (1)
0xa80|                                    0c         |            .   |      [85]: 12 transition_type 0xa8c-0xa8d (1)
0xa80|                                       0b      |             .  |      [86]: 11 transition_type 0xa8d-0xa8e (1)
0xa80|                                          0c   |              . |      [87]: 12 transition_type 0xa8e-0xa8f (1)
0xa80|                                             0b|               .|      [88]: 11 transition_type 0xa8f-0xa90 (1)
0xa90|0c                                             |.               |      [89]: 12 transition_type 0xa90-0xa91 (1)
0xa90|   0b                                          | .              |      [90]: 11 transition_type 0xa91-0xa92 (1)
0xa90|      0c                                       |  .             |      [91]: 12 transition_type 0xa92-0xa93 (1)
0xa90|         0b                                    |   .            |      [92]: 11 transition_type 0xa93-0xa94 (1)
0xa90|            0c                                 |    .           |      [93]: 12 transition_type 0xa94-0xa95 (1)
0xa90|               0b                              |     .          |      [94]: 11 transition_type 0xa95-0xa96 (1)
0xa90|                  0c                           |      .         |      [95]: 12 transition_type 0xa96-0xa97 (1)
0xa90|                     0b                        |       .        |      [96]: 11 transition_type 0xa97-0xa98 (1)
0xa90|                        0c                     |        .       |      [97]: 12 transition_type 0xa98-0xa99 (1)
0xa90|                           0b                  |         .      |      [98]: 11 transition_type 0xa99-0xa9a (1)
0xa90|                              0c               |          .     |      [99]: 12 transition_type 0xa9a-0xa9b (1)
0xa90|                                 0b            |           .    |      [100]: 11 transition_type 0xa9b-0xa9c (1)
0xa90|                                    0c         |            .   |      [101]: 12 transition_type 0xa9c-0xa9d (1)
0xa90|                                       0b      |             .  |      [102]: 11 transition_type 0xa9d-0xa9e (1)
0xa90|                                          0c   |              . |      [103]: 12 transition_type 0xa9e-0xa9f (1)
0xa90|                                             0b|               .|      [104]: 11 transition_type 0xa9f-0xaa0 (1)
0xaa0|0c                                             |.               |      [105]: 12 transition_type 0xaa0-0xaa1 (1)
0xaa0|   0b                                          | .              |      [106]: 11 transition_type 0xaa1-0xaa2 (1)
0xaa0|      0c                                       |  .             |      [107]: 12 transition_type 0xaa2-0xaa3 (1)
0xaa0|         0b                                    |   .            |      [108]: 11 transition_type 0xaa3-0xaa4 (1)
0xaa0|            0c                                 |    .           |      [109]: 12 transition_type 0xaa4-0xaa5 (1)
0xaa0|               0b                              |     .          |      [110]: 11 transition_type 0xaa5-0xaa6 (1)
0xaa0|                  0c                           |      .         |      [111]: 12 transition_type 0xaa6-0xaa7 (1)
0xaa0|                     0b                        |       .        |      [112]: 11 transition_type 0xaa7-0xaa8 (1)
0xaa0|                        0c                     |        .       |      [113]: 12 transition_type 0xaa8-0xaa9 (1)
0xaa0|                           0b                  |         .      |      [114]: 11 transition_type 0xaa9-0xaaa (1)
0xaa0|                              0c               |          .     |      [115]: 12 transition_type 0xaaa-0xaab (1)
0xaa0|                                 0b            |           .    |      [116]: 11 transition_type 0xaab-0xaac (1)
0xaa0|                                    0c         |            .   |      [117]: 12 transition_type 0xaac-0xaad (1)
0xaa0|                                       0b      |             .  |      [118]: 11 transition_type 0xaad-0xaae (1)
0xaa0|                                          0c   |              . |      [119]: 12 transition_type 0xaae-0xaaf (1)
0xaa0|                                             0b|               .|      [120]: 11 transition_type 0xaaf-0xab0 (1)
0xab0|0c                                             |.               |      [121]: 12 transition_type 0xab0-0xab1 (1)
0xab0|   0b                                          | .              |      [122]: 11 transition_type 0xab1-0xab2 (1)
0xab0|      0c                                       |  .             |      [123]: 12 transition_type 0xab2-0xab3 (1)
0xab0|         0b                                    |   .            |      [124]: 11 transition_type 0xab3-0xab4 (1)
0xab0|            0c                                 |    .           |      [125]: 12 transition_type 0xab4-0xab5 (1)
0xab0|               0b                              |     .          |      [126]: 11 transition_type 0xab5-0xab6 (1)
0xab0|                  0c                           |      .         |      [127]: 12 transition_type 0xab6-0xab7 (1)
0xab0|                     0b                        |       .        |      [128]: 11 transition_type 0xab7-0xab8 (1)
0xab0|                        0c                     |        .       |      [129]: 12 transition_type 0xab8-0xab9 (1)
0xab0|                           0b                  |         .      |      [130]: 11 transition_type 0xab9-0xaba (1)
0xab0|                              0c               |          .     |      [131]: 12 transition_type 0xaba-0xabb (1)
0xab0|                                 0b            |           .    |      [132]: 11 transition_type 0xabb-0xabc (1)
0xab0|                                    0c         |            .   |      [133]: 12 transition_type 0xabc-0xabd (1)
0xab0|                                       0b      |             .  |      [134]: 11 transition_type 0xabd-0xabe (1)
0xab0|                                          0c   |              . |      [135]: 12 transition_type 0xabe-0xabf (1)
0xab0|                                             0b|               .|      [136]: 11 transition_type 0xabf-0xac0 (1)
0xac0|0c                                             |.               |      [137]: 12 transition_type 0xac0-0xac1 (1)
0xac0|   0b                                          | .              |      [138]: 11 transition_type 0xac1-0xac2 (1)
0xac0|      0c                                       |  .             |      [139]: 12 transition_type 0xac2-0xac3 (1)
0xac0|         0b                                    |   .            |      [140]: 11 transition_type 0xac3-0xac4 (1)
0xac0|            0c                                 |    .           |      [141]: 12 transition_type 0xac4-0xac5 (1)
0xac0|               0b                              |     .          |      [142]: 11 transition_type 0xac5-0xac6 (1)
0xac0|                  0c                           |      .         |      [143]: 12 transition_type 0xac6-0xac7 (1)
0xac0|                     0b                        |       .        |      [144]: 11 transition_type 0xac7-0xac8 (1)
0xac0|                        0c                     |        .       |      [145]: 12 transition_type 0xac8-0xac9 (1)
0xac0|                           0b                  |         .      |      [146]: 11 transition_type 0xac9-0xaca (1)
0xac0|                              0c               |          .     |      [147]: 12 transition_type 0xaca-0xacb (1)
0xac0|                                 0b            |           .    |      [148]: 11 transition_type 0xacb-0xacc (1)
0xac0|                                    0c         |            .   |      [149]: 12 transition_type 0xacc-0xacd (1)
0xac0|                                       0b      |             .  |      [150]: 11 transition_type 0xacd-0xace (1)
0xac0|                                          0c   |              . |      [151]: 12 transition_type 0xace-0xacf (1)
0xac0|                                             0b|               .|      [152]: 11 transition_type 0xacf-0xad0 (1)
0xad0|0c                                             |.               |      [153]: 12 transition_type 0xad0-0xad1 (1)
0xad0|   0b                                          | .              |      [154]: 11 transition_type 0xad1-0xad2 (1)
0xad0|      0c                                       |  .             |      [155]: 12 transition_type 0xad2-0xad3 (1)
0xad0|         0b                                    |   .            |      [156]: 11 transition_type 0xad3-0xad4 (1)
0xad0|            0c                                 |    .           |      [157]: 12 transition_type 0xad4-0xad5 (1)
0xad0|               0b                              |     .          |      [158]: 11 transition_type 0xad5-0xad6 (1)
0xad0|                  0c                           |      .         |      [159]: 12 transition_type 0xad6-0xad7 (1)
0xad0|                     0b                        |       .        |      [160]: 11 transition_type 0xad7-0xad8 (1)
0xad0|                        0c                     |        .       |      [161]: 12 transition_type 0xad8-0xad9 (1)
0xad0|                           0b                  |         .      |      [162]: 11 transition_type 0xad9-0xada (1)
0xad0|                              0c               |          .     |      [163]: 12 transition_type 0xada-0xadb (1)
0xad0|                                 0b            |           .    |      [164]: 11 transition_type 0xadb-0xadc (1)
0xad0|                                    0c         |            .   |      [165]: 12 transition_type 0xadc-0xadd (1)
0xad0|                                       0b      |             .  |      [166]: 11 transition_type 0xadd-0xade (1)
0xad0|                                          0c   |              . |      [167]: 12 transition_type 0xade-0xadf (1)
0xad0|                                             0b|               .|      [168]: 11 transition_type 0xadf-0xae0 (1)
0xae0|0c                                             |.               |      [169]: 12 transition_type 0xae0-0xae1 (1)
0xae0|   0b                                          | .              |      [170]: 11 transition_type 0xae1-0xae2 (1)
0xae0|      0c                                       |  .             |      [171]: 12 transition_type 0xae2-0xae3 (1)
0xae0|         0b                                    |   .            |      [172]: 11 transition_type 0xae3-0xae4 (1)
0xae0|            0c                                 |    .           |      [173]: 12 transition_type 0xae4-0xae5 (1)
0xae0|               0b                              |     .          |      [174]: 11 transition_type 0xae5-0xae6 (1)
0xae0|                  0c                           |      .         |      [175]: 12 transition_type 0xae6-0xae7 (1)
0xae0|                     0b                        |       .        |      [176]: 11 transition_type 0xae7-0xae8 (1)
0xae0|                        0c                     |        .       |      [177]: 12 transition_type 0xae8-0xae9 (1)
0xae0|                           0b                  |         .      |      [178]: 11 transition_type 0xae9-0xaea (1)
0xae0|                              0c               |          .     |      [179]: 12 transition_type 0xaea-0xaeb (1)
0xae0|                                 0b            |           .    |      [180]: 11 transition_type 0xaeb-0xaec (1)
0xae0|                                    0c         |            .   |      [181]: 12 transition_type 0xaec-0xaed (1)
0xae0|                                       0b      |             .  |      [182]: 11 transition_type 0xaed-0xaee (1)
0xae0|                                          0c   |              . |      [183]: 12 transition_type 0xaee-0xaef (1)
     |                                               |                |    local_time_type_records[0:13]: 0xaef-0xb3d (78)
     |                                               |                |      [0]{}: local_time_type 0xaef-0xaf5 (6)
0xae0|                                             00|               .|        utoff: 561 (valid) 0xaef-0xaf3 (4)
0xaf0|00 02 31                                       |..1             |
0xaf0|         00                                    |   .            |        dst: 0 (valid) 0xaf3-0xaf4 (1)
0xaf0|            00                                 |    .           |        idx: 0 (valid) 0xaf4-0xaf5 (1)
     |                                               |                |      [1]{}: local_time_type 0xaf5-0xafb (6)
0xaf0|               00 00 02 31                     |     ...1       |        utoff: 561 (valid) 0xaf5-0xaf9 (4)
0xaf0|                           00                  |         .      |        dst: 0 (valid) 0xaf9-0xafa (1)
0xaf0|                              04               |          .     |        idx: 4 (valid) 0xafa-0xafb (1)
     |                                               |                |      [2]{}: local_time_type 0xafb-0xb01 (6)
0xaf0|                                 00 00 0e 10   |           .... |        utoff: 3600 (valid) 0xafb-0xaff (4)
0xaf0|                                             01|               .|        dst: 1 (valid) 0xaff-0xb00 (1)
0xb00|08                                             |.               |        idx: 8 (valid) 0xb00-0xb01 (1)
     |                                               |                |      [3]{}: local_time_type 0xb01-0xb07 (6)
0xb00|   00 00 00 00                                 | ....           |        utoff: 0 (valid) 0xb01-0xb05 (4)
0xb00|               00                              |     .          |        dst: 0 (valid) 0xb05-0xb06 (1)
0xb00|                  0d                           |      .         |        idx: 13 (valid) 0xb06-0xb07 (1)
     |                                               |                |      [4]{}: local_time_type 0xb07-0xb0d (6)
0xb00|                     00 00 0e 10               |       ....     |        utoff: 3600 (valid) 0xb07-0xb0b (4)
0xb00|                                 01            |           .    |        dst: 1 (valid) 0xb0b-0xb0c (1)
0xb00|                                    08         |            .   |        idx: 8 (valid) 0xb0c-0xb0d (1)
     |                                               |                |      [5]{}: local_time_type 0xb0d-0xb13 (6)
0xb00|                                       00 00 00|             ...|        utoff: 0 (valid) 0xb0d-0xb11 (4)
0xb10|00                                             |.               |
0xb10|   00                                          | .              |        dst: 0 (valid) 0xb11-0xb12 (1)
0xb10|      0d                                       |  .             |        idx: 13 (valid) 0xb12-0xb13 (1)
     |                                               |                |      [6]{}: local_time_type 0xb13-0xb19 (6)
0xb10|         00 00 0e 10                           |   ....         |        utoff: 3600 (valid) 0xb13-0xb17 (4)
0xb10|                     00                        |       .        |        dst: 0 (valid) 0xb17-0xb18 (1)
0xb10|                        11                     |        .       |        idx: 17 (valid) 0xb18-0xb19 (1)
     |                                               |                |      [7]{}: local_time_type 0xb19-0xb1f (6)
0xb10|                           00 00 1c 20         |         ...    |        utoff: 7200 (valid) 0xb19-0xb1d (4)
0xb10|                                       01      |             .  |        dst: 1 (valid) 0xb1d-0xb1e (1)
0xb10|                                          15   |              . |        idx: 21 (valid) 0xb1e-0xb1f (1)
     |                                               |                |      [8]{}: local_time_type 0xb1f-0xb25 (6)
0xb10|                                             00|               .|        utoff: 7200 (valid) 0xb1f-0xb23 (4)
0xb20|00 1c 20                                       |..              |
0xb20|         01                                    |   .            |        dst: 1 (valid) 0xb23-0xb24 (1)
0xb20|            15                                 |    .           |        idx: 21 (valid) 0xb24-0xb25 (1)
     |                                               |                |      [9]{}: local_time_type 0xb25-0xb2b (6)
0xb20|               00 00 1c 20                     |     ...        |        utoff: 7200 (valid) 0xb25-0xb29 (4)
0xb20|                           01                  |         .      |        dst: 1 (valid) 0xb29-0xb2a (1)
0xb20|                              1a               |          .     |        idx: 26 (valid) 0xb2a-0xb2b (1)
     |                                               |                |      [10]{}: local_time_type 0xb2b-0xb31 (6)
0xb20|                                 00 00 0e 10   |           .... |        utoff: 3600 (valid) 0xb2b-0xb2f (4)
0xb20|                                             00|               .|        dst: 0 (valid) 0xb2f-0xb30 (1)
0xb30|11                                             |.               |        idx: 17 (valid) 0xb30-0xb31 (1)
     |                                               |                |      [11]{}: local_time_type 0xb31-0xb37 (6)
0xb30|   00 00 1c 20                                 | ...            |        utoff: 7200 (valid) 0xb31-0xb35 (4)
0xb30|               01                              |     .          |        dst: 1 (valid) 0xb35-0xb36 (1)
0xb30|                  15                           |      .         |        idx: 21 (valid) 0xb36-0xb37 (1)
     |                                               |                |      [12]{}: local_time_type 0xb37-0xb3d (6)
0xb30|                     00 00 0e 10               |       ....     |        utoff: 3600 (valid) 0xb37-0xb3b (4)
0xb30|                                 00            |           .    |        dst: 0 (valid) 0xb3b-0xb3c (1)
0xb30|                                    11         |            .   |        idx: 17 (valid) 0xb3c-0xb3d (1)
     |                                               |                |    time_zone_designations[0:7]: 0xb3d-0xb5c (31)
0xb30|                                       4c 4d 54|             LMT|      [0]: "LMT" time_zone_designation 0xb3d-0xb41 (4)
0xb40|00                                             |.               |
0xb40|   50 4d 54 00                                 | PMT.           |      [1]: "PMT" time_zone_designation 0xb41-0xb45 (4)
0xb40|               57 45 53 54 00                  |     WEST.      |      [2]: "WEST" time_zone_designation 0xb45-0xb4a (5)
0xb40|                              57 45 54 00      |          WET.  |      [3]: "WET" time_zone_designation 0xb4a-0xb4e (4)
0xb40|                                          43 45|              CE|      [4]: "CET" time_zone_designation 0xb4e-0xb52 (4)
0xb50|54 00                                          |T.              |
0xb50|      43 45 53 54 00                           |  CEST.         |      [5]: "CEST" time_zone_designation 0xb52-0xb57 (5)
0xb50|                     57 45 4d 54 00            |       WEMT.    |      [6]: "WEMT" time_zone_designation 0xb57-0xb5c (5)
     |                                               |                |    leap_second_records[0:0]: 0xb5c-0xb5c (0)
     |                                               |                |    standard_wall_indicators[0:13]: 0xb5c-0xb69 (13)
0xb50|                                    00         |            .   |      [0]: 0 standard_wall_indicator (valid) 0xb5c-0xb5d (1)
0xb50|                                       00      |             .  |      [1]: 0 standard_wall_indicator (valid) 0xb5d-0xb5e (1)
0xb50|                                          01   |              . |      [2]: 1 standard_wall_indicator (valid) 0xb5e-0xb5f (1)
0xb50|                                             01|               .|      [3]: 1 standard_wall_indicator (valid) 0xb5f-0xb60 (1)
0xb60|00                                             |.               |      [4]: 0 standard_wall_indicator (valid) 0xb60-0xb61 (1)
0xb60|   00                                          | .              |      [5]: 0 standard_wall_indicator (valid) 0xb61-0xb62 (1)
0xb60|      01                                       |  .             |      [6]: 1 standard_wall_indicator (valid) 0xb62-0xb63 (1)
0xb60|         01                                    |   .            |      [7]: 1 standard_wall_indicator (valid) 0xb63-0xb64 (1)
0xb60|            00                                 |    .           |      [8]: 0 standard_wall_indicator (valid) 0xb64-0xb65 (1)
0xb60|               00                              |     .          |      [9]: 0 standard_wall_indicator (valid) 0xb65-0xb66 (1)
0xb60|                  00                           |      .         |      [10]: 0 standard_wall_indicator (valid) 0xb66-0xb67 (1)
0xb60|                     01                        |       .        |      [11]: 1 standard_wall_indicator (valid) 0xb67-0xb68 (1)
0xb60|                        01                     |        .       |      [12]: 1 standard_wall_indicator (valid) 0xb68-0xb69 (1)
     |                                               |                |    ut_local_indicators[0:13]: 0xb69-0xb76 (13)
0xb60|                           00                  |         .      |      [0]: 0 ut_local_indicator (valid) 0xb69-0xb6a (1)
0xb60|                              00               |          .     |      [1]: 0 ut_local_indicator (valid) 0xb6a-0xb6b (1)
0xb60|                                 00            |           .    |      [2]: 0 ut_local_indicator (valid) 0xb6b-0xb6c (1)
0xb60|                                    00         |            .   |      [3]: 0 ut_local_indicator (valid) 0xb6c-0xb6d (1)
0xb60|                                       00      |             .  |      [4]: 0 ut_local_indicator (valid) 0xb6d-0xb6e (1)
0xb60|                                          00   |              . |      [5]: 0 ut_local_indicator (valid) 0xb6e-0xb6f (1)
0xb60|                                             00|               .|      [6]: 0 ut_local_indicator (valid) 0xb6f-0xb70 (1)
0xb70|00                                             |.               |      [7]: 0 ut_local_indicator (valid) 0xb70-0xb71 (1)
0xb70|   00                                          | .              |      [8]: 0 ut_local_indicator (valid) 0xb71-0xb72 (1)
0xb70|      00                                       |  .             |      [9]: 0 ut_local_indicator (valid) 0xb72-0xb73 (1)
0xb70|         00                                    |   .            |      [10]: 0 ut_local_indicator (valid) 0xb73-0xb74 (1)
0xb70|            01                                 |    .           |      [11]: 1 ut_local_indicator (valid) 0xb74-0xb75 (1)
0xb70|               01                              |     .          |      [12]: 1 ut_local_indicator (valid) 0xb75-0xb76 (1)
     |                                               |                |  footer{}: 0xb76-0xb92 (28)
0xb70|                  0a                           |      .         |    nl1: 10 (valid) 0xb76-0xb77 (1)
0xb70|                     43 45 54 2d 31 43 45 53 54|       CET-1CEST|    tz_string: "CET-1CEST,M3.5.0,M10.5.0/3" 0xb77-0xb91 (26)
0xb80|2c 4d 33 2e 35 2e 30 2c 4d 31 30 2e 35 2e 30 2f|,M3.5.0,M10.5.0/|
0xb90|33                                             |3               |
0xb90|   0a|                                         | .|             |    nl2: 10 (valid) 0xb91-0xb92 (1)
