$ fq -d tzif dv Paris
     |00 01 02 03 04 05 06 07 08 09 0a 0b 0c 0d 0e 0f|0123456789abcdef|.{}: Paris (tzif) 0x0-0xb91.7 (2962)
     |                                               |                |  v1header{}: 0x0-0x2b.7 (44)
0x000|54 5a 69 66                                    |TZif            |    magic: 0x545a6966 (valid) 0x0-0x3.7 (4)
0x000|            32                                 |    2           |    ver: "2" (0x32) (valid) 0x4-0x4.7 (1)
0x000|               00 00 00 00 00 00 00 00 00 00 00|     ...........|    reserved: raw bits 0x5-0x13.7 (15)
0x010|00 00 00 00                                    |....            |
0x010|            00 00 00 0d                        |    ....        |    isutcnt: 13 0x14-0x17.7 (4)
0x010|                        00 00 00 0d            |        ....    |    isstdcnt: 13 0x18-0x1b.7 (4)
0x010|                                    00 00 00 00|            ....|    leapcnt: 0 0x1c-0x1f.7 (4)
0x020|00 00 00 b8                                    |....            |    timecnt: 184 0x20-0x23.7 (4)
0x020|            00 00 00 0d                        |    ....        |    typecnt: 13 0x24-0x27.7 (4)
0x020|                        00 00 00 1f            |        ....    |    charcnt: 31 0x28-0x2b.7 (4)
     |                                               |                |  v1datablock{}: 0x2c-0x44a.7 (1055)
     |                                               |                |    transition_times[0:184]: 0x2c-0x30b.7 (736)
0x020|                                    80 00 00 00|            ....|      [0]: "1901-12-13T20:45:52Z" (-2147483648) transition_time 0x2c-0x2f.7 (4)
0x030|91 60 50 4f                                    |.`PO            |      [1]: "1911-03-10T23:50:39Z" (-1855958961) transition_time 0x30-0x33.7 (4)
0x030|            9b 47 78 f0                        |    .Gx.        |      [2]: "1916-06-14T23:00:00Z" (-1689814800) transition_time 0x34-0x37.7 (4)
0x030|                        9b d7 2c 70            |        ..,p    |      [3]: "1916-10-01T23:00:00Z" (-1680397200) transition_time 0x38-0x3b.7 (4)
0x030|                                    9c bc 91 70|            ...p|      [4]: "1917-03-24T23:00:00Z" (-1665363600) transition_time 0x3c-0x3f.7 (4)
0x040|9d c0 48 f0                                    |..H.            |      [5]: "1917-10-07T23:00:00Z" (-1648342800) transition_time 0x40-0x43.7 (4)
0x040|            9e 89 fe 70                        |    ...p        |      [6]: "1918-03-09T23:00:00Z" (-1635123600) transition_time 0x44-0x47.7 (4)
0x040|                        9f a0 2a f0            |        ..*.    |      [7]: "1918-10-06T23:00:00Z" (-1616893200) transition_time 0x48-0x4b.7 (4)
0x040|                                    a0 60 a5 f0|            .`..|      [8]: "1919-03-01T23:00:00Z" (-1604278800) transition_time 0x4c-0x4f.7 (4)
0x050|a1 80 0c f0                                    |....            |      [9]: "1919-10-05T23:00:00Z" (-1585443600) transition_time 0x50-0x53.7 (4)
0x050|            a2 2e 12 f0                        |    ....        |      [10]: "1920-02-14T23:00:00Z" (-1574038800) transition_time 0x54-0x57.7 (4)
0x050|                        a3 7a 4c f0            |        .zL.    |      [11]: "1920-10-23T23:00:00Z" (-1552266000) transition_time 0x58-0x5b.7 (4)
0x050|                                    a4 35 81 f0|            .5..|      [12]: "1921-03-14T23:00:00Z" (-1539997200) transition_time 0x5c-0x5f.7 (4)
0x060|a5 5e 23 70                                    |.^#p            |      [13]: "1921-10-25T23:00:00Z" (-1520557200) transition_time 0x60-0x63.7 (4)
0x060|            a6 25 35 f0                        |    .%5.        |      [14]: "1922-03-25T23:00:00Z" (-1507510800) transition_time 0x64-0x67.7 (4)
0x060|                        a7 27 9b f0            |        .'..    |      [15]: "1922-10-07T23:00:00Z" (-1490576400) transition_time 0x68-0x6b.7 (4)
0x060|                                    a8 58 26 70|            .X&p|      [16]: "1923-05-26T23:00:00Z" (-1470618000) transition_time 0x6c-0x6f.7 (4)
0x070|a9 07 7d f0                                    |..}.            |      [17]: "1923-10-06T23:00:00Z" (-1459126800) transition_time 0x70-0x73.7 (4)
0x070|            a9 ee 34 70                        |    ..4p        |      [18]: "1924-03-29T23:00:00Z" (-1444006800) transition_time 0x74-0x77.7 (4)
0x070|                        aa e7 5f f0            |        .._.    |      [19]: "1924-10-04T23:00:00Z" (-1427677200) transition_time 0x78-0x7b.7 (4)
0x070|                                    ab d7 50 f0|            ..P.|      [20]: "1925-04-04T23:00:00Z" (-1411952400) transition_time 0x7c-0x7f.7 (4)
0x080|ac c7 41 f0                                    |..A.            |      [21]: "1925-10-03T23:00:00Z" (-1396227600) transition_time 0x80-0x83.7 (4)
0x080|            ad c9 a7 f0                        |    ....        |      [22]: "1926-04-17T23:00:00Z" (-1379293200) transition_time 0x84-0x87.7 (4)
0x080|                        ae a7 23 f0            |        ..#.    |      [23]: "1926-10-02T23:00:00Z" (-1364778000) transition_time 0x88-0x8b.7 (4)
0x080|                                    af a0 4f 70|            ..Op|      [24]: "1927-04-09T23:00:00Z" (-1348448400) transition_time 0x8c-0x8f.7 (4)
0x090|b0 87 05 f0                                    |....            |      [25]: "1927-10-01T23:00:00Z" (-1333328400) transition_time 0x90-0x93.7 (4)
0x090|            b1 89 6b f0                        |    ..k.        |      [26]: "1928-04-14T23:00:00Z" (-1316394000) transition_time 0x94-0x97.7 (4)
0x090|                        b2 70 22 70            |        .p"p    |      [27]: "1928-10-06T23:00:00Z" (-1301274000) transition_time 0x98-0x9b.7 (4)
0x090|                                    b3 72 88 70|            .r.p|      [28]: "1929-04-20T23:00:00Z" (-1284339600) transition_time 0x9c-0x9f.7 (4)
0x0a0|b4 50 04 70                                    |.P.p            |      [29]: "1929-10-05T23:00:00Z" (-1269824400) transition_time 0xa0-0xa3.7 (4)
0x0a0|            b5 49 2f f0                        |    .I/.        |      [30]: "1930-04-12T23:00:00Z" (-1253494800) transition_time 0xa4-0xa7.7 (4)
0x0a0|                        b6 2f e6 70            |        ./.p    |      [31]: "1930-10-04T23:00:00Z" (-1238374800) transition_time 0xa8-0xab.7 (4)
0x0a0|                                    b7 32 4c 70|            .2Lp|      [32]: "1931-04-18T23:00:00Z" (-1221440400) transition_time 0xac-0xaf.7 (4)
0x0b0|b8 0f c8 70                                    |...p            |      [33]: "1931-10-03T23:00:00Z" (-1206925200) transition_time 0xb0-0xb3.7 (4)
0x0b0|            b8 ff b9 70                        |    ...p        |      [34]: "1932-04-02T23:00:00Z" (-1191200400) transition_time 0xb4-0xb7.7 (4)
0x0b0|                        b9 ef aa 70            |        ...p    |      [35]: "1932-10-01T23:00:00Z" (-1175475600) transition_time 0xb8-0xbb.7 (4)
0x0b0|                                    ba d6 60 f0|            ..`.|      [36]: "1933-03-25T23:00:00Z" (-1160355600) transition_time 0xbc-0xbf.7 (4)
0x0c0|bb d8 c6 f0                                    |....            |      [37]: "1933-10-07T23:00:00Z" (-1143421200) transition_time 0xc0-0xc3.7 (4)
0x0c0|            bc c8 b7 f0                        |    ....        |      [38]: "1934-04-07T23:00:00Z" (-1127696400) transition_time 0xc4-0xc7.7 (4)
0x0c0|                        bd b8 a8 f0            |        ....    |      [39]: "1934-10-06T23:00:00Z" (-1111971600) transition_time 0xc8-0xcb.7 (4)
0x0c0|                                    be 9f 5f 70|            .._p|      [40]: "1935-03-30T23:00:00Z" (-1096851600) transition_time 0xcc-0xcf.7 (4)
0x0d0|bf 98 8a f0                                    |....            |      [41]: "1935-10-05T23:00:00Z" (-1080522000) transition_time 0xd0-0xd3.7 (4)
0x0d0|            c0 9a f0 f0                        |    ....        |      [42]: "1936-04-18T23:00:00Z" (-1063587600) transition_time 0xd4-0xd7.7 (4)
0x0d0|                        c1 78 6c f0            |        .xl.    |      [43]: "1936-10-03T23:00:00Z" (-1049072400) transition_time 0xd8-0xdb.7 (4)
0x0d0|                                    c2 68 5d f0|            .h].|      [44]: "1937-04-03T23:00:00Z" (-1033347600) transition_time 0xdc-0xdf.7 (4)
0x0e0|c3 58 4e f0                                    |.XN.            |      [45]: "1937-10-02T23:00:00Z" (-1017622800) transition_time 0xe0-0xe3.7 (4)
0x0e0|            c4 3f 05 70                        |    .?.p        |      [46]: "1938-03-26T23:00:00Z" (-1002502800) transition_time 0xe4-0xe7.7 (4)
0x0e0|                        c5 38 30 f0            |        .80.    |      [47]: "1938-10-01T23:00:00Z" (-986173200) transition_time 0xe8-0xeb.7 (4)
0x0e0|                                    c6 3a 96 f0|            .:..|      [48]: "1939-04-15T23:00:00Z" (-969238800) transition_time 0xec-0xef.7 (4)
0x0f0|c7 58 ac 70                                    |.X.p            |      [49]: "1939-11-18T23:00:00Z" (-950490000) transition_time 0xf0-0xf3.7 (4)
0x0f0|            c7 da 09 a0                        |    ....        |      [50]: "1940-02-25T02:00:00Z" (-942012000) transition_time 0xf4-0xf7.7 (4)
0x0f0|                        c8 6c 27 e0            |        .l'.    |      [51]: "1940-06-14T22:00:00Z" (-932436000) transition_time 0xf8-0xfb.7 (4)
0x0f0|                                    cc e7 4b 10|            ..K.|      [52]: "1942-11-02T01:00:00Z" (-857257200) transition_time 0xfc-0xff.7 (4)
0x100|cd a9 17 90                                    |....            |      [53]: "1943-03-29T01:00:00Z" (-844556400) transition_time 0x100-0x103.7 (4)
0x100|            ce a2 43 10                        |    ..C.        |      [54]: "1943-10-04T01:00:00Z" (-828226800) transition_time 0x104-0x107.7 (4)
0x100|                        cf 92 34 10            |        ..4.    |      [55]: "1944-04-03T01:00:00Z" (-812502000) transition_time 0x108-0x10b.7 (4)
0x100|                                    d0 4f e1 e0|            .O..|      [56]: "1944-08-24T22:00:00Z" (-800071200) transition_time 0x10c-0x10f.7 (4)
0x110|d0 89 f1 f0                                    |....            |      [57]: "1944-10-07T23:00:00Z" (-796266000) transition_time 0x110-0x113.7 (4)
0x110|            d1 72 16 10                        |    .r..        |      [58]: "1945-04-02T01:00:00Z" (-781052400) transition_time 0x114-0x117.7 (4)
0x110|                        d2 4e 40 90            |        .N@.    |      [59]: "1945-09-16T01:00:00Z" (-766623600) transition_time 0x118-0x11b.7 (4)
0x110|                                    0b bb 39 00|            ..9.|      [60]: "1976-03-28T00:00:00Z" (196819200) transition_time 0x11c-0x11f.7 (4)
0x120|0c ab 1b f0                                    |....            |      [61]: "1976-09-25T23:00:00Z" (212540400) transition_time 0x120-0x123.7 (4)
0x120|            0d a4 63 90                        |    ..c.        |      [62]: "1977-04-03T01:00:00Z" (228877200) transition_time 0x124-0x127.7 (4)
0x120|                        0e 8b 1a 10            |        ....    |      [63]: "1977-09-25T01:00:00Z" (243997200) transition_time 0x128-0x12b.7 (4)
0x120|                                    0f 84 45 90|            ..E.|      [64]: "1978-04-02T01:00:00Z" (260326800) transition_time 0x12c-0x12f.7 (4)
0x130|10 74 36 90                                    |.t6.            |      [65]: "1978-10-01T01:00:00Z" (276051600) transition_time 0x130-0x133.7 (4)
0x130|            11 64 27 90                        |    .d'.        |      [66]: "1979-04-01T01:00:00Z" (291776400) transition_time 0x134-0x137.7 (4)
0x130|                        12 54 18 90            |        .T..    |      [67]: "1979-09-30T01:00:00Z" (307501200) transition_time 0x138-0x13b.7 (4)
0x130|                                    13 4d 44 10|            .MD.|      [68]: "1980-04-06T01:00:00Z" (323830800) transition_time 0x13c-0x13f.7 (4)
0x140|14 33 fa 90                                    |.3..            |      [69]: "1980-09-28T01:00:00Z" (338950800) transition_time 0x140-0x143.7 (4)
0x140|            15 23 eb 90                        |    .#..        |      [70]: "1981-03-29T01:00:00Z" (354675600) transition_time 0x144-0x147.7 (4)
0x140|                        16 13 dc 90            |        ....    |      [71]: "1981-09-27T01:00:00Z" (370400400) transition_time 0x148-0x14b.7 (4)
0x140|                                    17 03 cd 90|            ....|      [72]: "1982-03-28T01:00:00Z" (386125200) transition_time 0x14c-0x14f.7 (4)
0x150|17 f3 be 90                                    |....            |      [73]: "1982-09-26T01:00:00Z" (401850000) transition_time 0x150-0x153.7 (4)
0x150|            18 e3 af 90                        |    ....        |      [74]: "1983-03-27T01:00:00Z" (417574800) transition_time 0x154-0x157.7 (4)
0x150|                        19 d3 a0 90            |        ....    |      [75]: "1983-09-25T01:00:00Z" (433299600) transition_time 0x158-0x15b.7 (4)
0x150|                                    1a c3 91 90|            ....|      [76]: "1984-03-25T01:00:00Z" (449024400) transition_time 0x15c-0x15f.7 (4)
0x160|1b bc bd 10                                    |....            |      [77]: "1984-09-30T01:00:00Z" (465354000) transition_time 0x160-0x163.7 (4)
0x160|            1c ac ae 10                        |    ....        |      [78]: "1985-03-31T01:00:00Z" (481078800) transition_time 0x164-0x167.7 (4)
0x160|                        1d 9c 9f 10            |        ....    |      [79]: "1985-09-29T01:00:00Z" (496803600) transition_time 0x168-0x16b.7 (4)
0x160|                                    1e 8c 90 10|            ....|      [80]: "1986-03-30T01:00:00Z" (512528400) transition_time 0x16c-0x16f.7 (4)
0x170|1f 7c 81 10                                    |.|..            |      [81]: "1986-09-28T01:00:00Z" (528253200) transition_time 0x170-0x173.7 (4)
0x170|            20 6c 72 10                        |     lr.        |      [82]: "1987-03-29T01:00:00Z" (543978000) transition_time 0x174-0x177.7 (4)
0x170|                        21 5c 63 10            |        !\c.    |      [83]: "1987-09-27T01:00:00Z" (559702800) transition_time 0x178-0x17b.7 (4)
0x170|                                    22 4c 54 10|            "LT.|      [84]: "1988-03-27T01:00:00Z" (575427600) transition_time 0x17c-0x17f.7 (4)
0x180|23 3c 45 10                                    |#<E.            |      [85]: "1988-09-25T01:00:00Z" (591152400) transition_time 0x180-0x183.7 (4)
0x180|            24 2c 36 10                        |    $,6.        |      [86]: "1989-03-26T01:00:00Z" (606877200) transition_time 0x184-0x187.7 (4)
0x180|                        25 1c 27 10            |        %.'.    |      [87]: "1989-09-24T01:00:00Z" (622602000) transition_time 0x188-0x18b.7 (4)
0x180|                                    26 0c 18 10|            &...|      [88]: "1990-03-25T01:00:00Z" (638326800) transition_time 0x18c-0x18f.7 (4)
0x190|27 05 43 90                                    |'.C.            |      [89]: "1990-09-30T01:00:00Z" (654656400) transition_time 0x190-0x193.7 (4)
0x190|            27 f5 34 90                        |    '.4.        |      [90]: "1991-03-31T01:00:00Z" (670381200) transition_time 0x194-0x197.7 (4)
0x190|                        28 e5 25 90            |        (.%.    |      [91]: "1991-09-29T01:00:00Z" (686106000) transition_time 0x198-0x19b.7 (4)
0x190|                                    29 d5 16 90|            )...|      [92]: "1992-03-29T01:00:00Z" (701830800) transition_time 0x19c-0x19f.7 (4)
0x1a0|2a c5 07 90                                    |*...            |      [93]: "1992-09-27T01:00:00Z" (717555600) transition_time 0x1a0-0x1a3.7 (4)
0x1a0|            2b b4 f8 90                        |    +...        |      [94]: "1993-03-28T01:00:00Z" (733280400) transition_time 0x1a4-0x1a7.7 (4)
0x1a0|                        2c a4 e9 90            |        ,...    |      [95]: "1993-09-26T01:00:00Z" (749005200) transition_time 0x1a8-0x1ab.7 (4)
0x1a0|                                    2d 94 da 90|            -...|      [96]: "1994-03-27T01:00:00Z" (764730000) transition_time 0x1ac-0x1af.7 (4)
0x1b0|2e 84 cb 90                                    |....            |      [97]: "1994-09-25T01:00:00Z" (780454800) transition_time 0x1b0-0x1b3.7 (4)
0x1b0|            2f 74 bc 90                        |    /t..        |      [98]: "1995-03-26T01:00:00Z" (796179600) transition_time 0x1b4-0x1b7.7 (4)
0x1b0|                        30 64 ad 90            |        0d..    |      [99]: "1995-09-24T01:00:00Z" (811904400) transition_time 0x1b8-0x1bb.7 (4)
0x1b0|                                    31 5d d9 10|            1]..|      [100]: "1996-03-31T01:00:00Z" (828234000) transition_time 0x1bc-0x1bf.7 (4)
0x1c0|32 72 b4 10                                    |2r..            |      [101]: "1996-10-27T01:00:00Z" (846378000) transition_time 0x1c0-0x1c3.7 (4)
0x1c0|            33 3d bb 10                        |    3=..        |      [102]: "1997-03-30T01:00:00Z" (859683600) transition_time 0x1c4-0x1c7.7 (4)
0x1c0|                        34 52 96 10            |        4R..    |      [103]: "1997-10-26T01:00:00Z" (877827600) transition_time 0x1c8-0x1cb.7 (4)
0x1c0|                                    35 1d 9d 10|            5...|      [104]: "1998-03-29T01:00:00Z" (891133200) transition_time 0x1cc-0x1cf.7 (4)
0x1d0|36 32 78 10                                    |62x.            |      [105]: "1998-10-25T01:00:00Z" (909277200) transition_time 0x1d0-0x1d3.7 (4)
0x1d0|            36 fd 7f 10                        |    6...        |      [106]: "1999-03-28T01:00:00Z" (922582800) transition_time 0x1d4-0x1d7.7 (4)
0x1d0|                        38 1b 94 90            |        8...    |      [107]: "1999-10-31T01:00:00Z" (941331600) transition_time 0x1d8-0x1db.7 (4)
0x1d0|                                    38 dd 61 10|            8.a.|      [108]: "2000-03-26T01:00:00Z" (954032400) transition_time 0x1dc-0x1df.7 (4)
0x1e0|39 fb 76 90                                    |9.v.            |      [109]: "2000-10-29T01:00:00Z" (972781200) transition_time 0x1e0-0x1e3.7 (4)
0x1e0|            3a bd 43 10                        |    :.C.        |      [110]: "2001-03-25T01:00:00Z" (985482000) transition_time 0x1e4-0x1e7.7 (4)
0x1e0|                        3b db 58 90            |        ;.X.    |      [111]: "2001-10-28T01:00:00Z" (1004230800) transition_time 0x1e8-0x1eb.7 (4)
0x1e0|                                    3c a6 5f 90|            <._.|      [112]: "2002-03-31T01:00:00Z" (1017536400) transition_time 0x1ec-0x1ef.7 (4)
0x1f0|3d bb 3a 90                                    |=.:.            |      [113]: "2002-10-27T01:00:00Z" (1035680400) transition_time 0x1f0-0x1f3.7 (4)
0x1f0|            3e 86 41 90                        |    >.A.        |      [114]: "2003-03-30T01:00:00Z" (1048986000) transition_time 0x1f4-0x1f7.7 (4)
0x1f0|                        3f 9b 1c 90            |        ?...    |      [115]: "2003-10-26T01:00:00Z" (1067130000) transition_time 0x1f8-0x1fb.7 (4)
0x1f0|                                    40 66 23 90|            @f#.|      [116]: "2004-03-28T01:00:00Z" (1080435600) transition_time 0x1fc-0x1ff.7 (4)
0x200|41 84 39 10                                    |A.9.            |      [117]: "2004-10-31T01:00:00Z" (1099184400) transition_time 0x200-0x203.7 (4)
0x200|            42 46 05 90                        |    BF..        |      [118]: "2005-03-27T01:00:00Z" (1111885200) transition_time 0x204-0x207.7 (4)
0x200|                        43 64 1b 10            |        Cd..    |      [119]: "2005-10-30T01:00:00Z" (1130634000) transition_time 0x208-0x20b.7 (4)
0x200|                                    44 25 e7 90|            D%..|      [120]: "2006-03-26T01:00:00Z" (1143334800) transition_time 0x20c-0x20f.7 (4)
0x210|45 43 fd 10                                    |EC..            |      [121]: "2006-10-29T01:00:00Z" (1162083600) transition_time 0x210-0x213.7 (4)
0x210|            46 05 c9 90                        |    F...        |      [122]: "2007-03-25T01:00:00Z" (1174784400) transition_time 0x214-0x217.7 (4)
0x210|                        47 23 df 10            |        G#..    |      [123]: "2007-10-28T01:00:00Z" (1193533200) transition_time 0x218-0x21b.7 (4)
0x210|                                    47 ee e6 10|            G...|      [124]: "2008-03-30T01:00:00Z" (1206838800) transition_time 0x21c-0x21f.7 (4)
0x220|49 03 c1 10                                    |I...            |      [125]: "2008-10-26T01:00:00Z" (1224982800) transition_time 0x220-0x223.7 (4)
0x220|            49 ce c8 10                        |    I...        |      [126]: "2009-03-29T01:00:00Z" (1238288400) transition_time 0x224-0x227.7 (4)
0x220|                        4a e3 a3 10            |        J...    |      [127]: "2009-10-25T01:00:00Z" (1256432400) transition_time 0x228-0x22b.7 (4)
0x220|                                    4b ae aa 10|            K...|      [128]: "2010-03-28T01:00:00Z" (1269738000) transition_time 0x22c-0x22f.7 (4)
0x230|4c cc bf 90                                    |L...            |      [129]: "2010-10-31T01:00:00Z" (1288486800) transition_time 0x230-0x233.7 (4)
0x230|            4d 8e 8c 10                        |    M...        |      [130]: "2011-03-27T01:00:00Z" (1301187600) transition_time 0x234-0x237.7 (4)
0x230|                        4e ac a1 90            |        N...    |      [131]: "2011-10-30T01:00:00Z" (1319936400) transition_time 0x238-0x23b.7 (4)
0x230|                                    4f 6e 6e 10|            Onn.|      [132]: "2012-03-25T01:00:00Z" (1332637200) transition_time 0x23c-0x23f.7 (4)
0x240|50 8c 83 90                                    |P...            |      [133]: "2012-10-28T01:00:00Z" (1351386000) transition_time 0x240-0x243.7 (4)
0x240|            51 57 8a 90                        |    QW..        |      [134]: "2013-03-31T01:00:00Z" (1364691600) transition_time 0x244-0x247.7 (4)
0x240|                        52 6c 65 90            |        Rle.    |      [135]: "2013-10-27T01:00:00Z" (1382835600) transition_time 0x248-0x24b.7 (4)
0x240|                                    53 37 6c 90|            S7l.|      [136]: "2014-03-30T01:00:00Z" (1396141200) transition_time 0x24c-0x24f.7 (4)
0x250|54 4c 47 90                                    |TLG.            |      [137]: "2014-10-26T01:00:00Z" (1414285200) transition_time 0x250-0x253.7 (4)
0x250|            55 17 4e 90                        |    U.N.        |      [138]: "2015-03-29T01:00:00Z" (1427590800) transition_time 0x254-0x257.7 (4)
0x250|                        56 2c 29 90            |        V,).    |      [139]: "2015-10-25T01:00:00Z" (1445734800) transition_time 0x258-0x25b.7 (4)
0x250|                                    56 f7 30 90|            V.0.|      [140]: "2016-03-27T01:00:00Z" (1459040400) transition_time 0x25c-0x25f.7 (4)
0x260|58 15 46 10                                    |X.F.            |      [141]: "2016-10-30T01:00:00Z" (1477789200) transition_time 0x260-0x263.7 (4)
0x260|            58 d7 12 90                        |    X...        |      [142]: "2017-03-26T01:00:00Z" (1490490000) transition_time 0x264-0x267.7 (4)
0x260|                        59 f5 28 10            |        Y.(.    |      [143]: "2017-10-29T01:00:00Z" (1509238800) transition_time 0x268-0x26b.7 (4)
0x260|                                    5a b6 f4 90|            Z...|      [144]: "2018-03-25T01:00:00Z" (1521939600) transition_time 0x26c-0x26f.7 (4)
0x270|5b d5 0a 10                                    |[...            |      [145]: "2018-10-28T01:00:00Z" (1540688400) transition_time 0x270-0x273.7 (4)
0x270|            5c a0 11 10                        |    \...        |      [146]: "2019-03-31T01:00:00Z" (1553994000) transition_time 0x274-0x277.7 (4)
0x270|                        5d b4 ec 10            |        ]...    |      [147]: "2019-10-27T01:00:00Z" (1572138000) transition_time 0x278-0x27b.7 (4)
0x270|                                    5e 7f f3 10|            ^...|      [148]: "2020-03-29T01:00:00Z" (1585443600) transition_time 0x27c-0x27f.7 (4)
0x280|5f 94 ce 10                                    |_...            |      [149]: "2020-10-25T01:00:00Z" (1603587600) transition_time 0x280-0x283.7 (4)
0x280|            60 5f d5 10                        |    `_..        |      [150]: "2021-03-28T01:00:00Z" (1616893200) transition_time 0x284-0x287.7 (4)
0x280|                        61 7d ea 90            |        a}..    |      [151]: "2021-10-31T01:00:00Z" (1635642000) transition_time 0x288-0x28b.7 (4)
0x280|                                    62 3f b7 10|            b?..|      [152]: "2022-03-27T01:00:00Z" (1648342800) transition_time 0x28c-0x28f.7 (4)
0x290|63 5d cc 90                                    |c]..            |      [153]: "2022-10-30T01:00:00Z" (1667091600) transition_time 0x290-0x293.7 (4)
0x290|            64 1f 99 10                        |    d...        |      [154]: "2023-03-26T01:00:00Z" (1679792400) transition_time 0x294-0x297.7 (4)
0x290|                        65 3d ae 90            |        e=..    |      [155]: "2023-10-29T01:00:00Z" (1698541200) transition_time 0x298-0x29b.7 (4)
0x290|                                    66 08 b5 90|            f...|      [156]: "2024-03-31T01:00:00Z" (1711846800) transition_time 0x29c-0x29f.7 (4)
0x2a0|67 1d 90 90                                    |g...            |      [157]: "2024-10-27T01:00:00Z" (1729990800) transition_time 0x2a0-0x2a3.7 (4)
0x2a0|            67 e8 97 90                        |    g...        |      [158]: "2025-03-30T01:00:00Z" (1743296400) transition_time 0x2a4-0x2a7.7 (4)
0x2a0|                        68 fd 72 90            |        h.r.    |      [159]: "2025-10-26T01:00:00Z" (1761440400) transition_time 0x2a8-0x2ab.7 (4)
0x2a0|                                    69 c8 79 90|            i.y.|      [160]: "2026-03-29T01:00:00Z" (1774746000) transition_time 0x2ac-0x2af.7 (4)
0x2b0|6a dd 54 90                                    |j.T.            |      [161]: "2026-10-25T01:00:00Z" (1792890000) transition_time 0x2b0-0x2b3.7 (4)
0x2b0|            6b a8 5b 90                        |    k.[.        |      [162]: "2027-03-28T01:00:00Z" (1806195600) transition_time 0x2b4-0x2b7.7 (4)
0x2b0|                        6c c6 71 10            |        l.q.    |      [163]: "2027-10-31T01:00:00Z" (1824944400) transition_time 0x2b8-0x2bb.7 (4)
0x2b0|                                    6d 88 3d 90|            m.=.|      [164]: "2028-03-26T01:00:00Z" (1837645200) transition_time 0x2bc-0x2bf.7 (4)
0x2c0|6e a6 53 10                                    |n.S.            |      [165]: "2028-10-29T01:00:00Z" (1856394000) transition_time 0x2c0-0x2c3.7 (4)
0x2c0|            6f 68 1f 90                        |    oh..        |      [166]: "2029-03-25T01:00:00Z" (1869094800) transition_time 0x2c4-0x2c7.7 (4)
0x2c0|                        70 86 35 10            |        p.5.    |      [167]: "2029-10-28T01:00:00Z" (1887843600) transition_time 0x2c8-0x2cb.7 (4)
0x2c0|                                    71 51 3c 10|            qQ<.|      [168]: "2030-03-31T01:00:00Z" (1901149200) transition_time 0x2cc-0x2cf.7 (4)
0x2d0|72 66 17 10                                    |rf..            |      [169]: "2030-10-27T01:00:00Z" (1919293200) transition_time 0x2d0-0x2d3.7 (4)
0x2d0|            73 31 1e 10                        |    s1..        |      [170]: "2031-03-30T01:00:00Z" (1932598800) transition_time 0x2d4-0x2d7.7 (4)
0x2d0|                        74 45 f9 10            |        tE..    |      [171]: "2031-10-26T01:00:00Z" (1950742800) transition_time 0x2d8-0x2db.7 (4)
0x2d0|                                    75 11 00 10|            u...|      [172]: "2032-03-28T01:00:00Z" (1964048400) transition_time 0x2dc-0x2df.7 (4)
0x2e0|76 2f 15 90                                    |v/..            |      [173]: "2032-10-31T01:00:00Z" (1982797200) transition_time 0x2e0-0x2e3.7 (4)
0x2e0|            76 f0 e2 10                        |    v...        |      [174]: "2033-03-27T01:00:00Z" (1995498000) transition_time 0x2e4-0x2e7.7 (4)
0x2e0|                        78 0e f7 90            |        x...    |      [175]: "2033-10-30T01:00:00Z" (2014246800) transition_time 0x2e8-0x2eb.7 (4)
0x2e0|                                    78 d0 c4 10|            x...|      [176]: "2034-03-26T01:00:00Z" (2026947600) transition_time 0x2ec-0x2ef.7 (4)
0x2f0|79 ee d9 90                                    |y...            |      [177]: "2034-10-29T01:00:00Z" (2045696400) transition_time 0x2f0-0x2f3.7 (4)
0x2f0|            7a b0 a6 10                        |    z...        |      [178]: "2035-03-25T01:00:00Z" (2058397200) transition_time 0x2f4-0x2f7.7 (4)
0x2f0|                        7b ce bb 90            |        {...    |      [179]: "2035-10-28T01:00:00Z" (2077146000) transition_time 0x2f8-0x2fb.7 (4)
0x2f0|                                    7c 99 c2 90|            |...|      [180]: "2036-03-30T01:00:00Z" (2090451600) transition_time 0x2fc-0x2ff.7 (4)
0x300|7d ae 9d 90                                    |}...            |      [181]: "2036-10-26T01:00:00Z" (2108595600) transition_time 0x300-0x303.7 (4)
0x300|            7e 79 a4 90                        |    ~y..        |      [182]: "2037-03-29T01:00:00Z" (2121901200) transition_time 0x304-0x307.7 (4)
0x300|                        7f 8e 7f 90            |        ....    |      [183]: "2037-10-25T01:00:00Z" (2140045200) transition_time 0x308-0x30b.7 (4)
     |                                               |                |    transition_types[0:184]: 0x30c-0x3c3.7 (184)
0x300|                                    01         |            .   |      [0]: 1 transition_type 0x30c-0x30c.7 (1)
0x300|                                       05      |             .  |      [1]: 5 transition_type 0x30d-0x30d.7 (1)
0x300|                                          02   |              . |      [2]: 2 transition_type 0x30e-0x30e.7 (1)
0x300|                                             03|               .|      [3]: 3 transition_type 0x30f-0x30f.7 (1)
0x310|02                                             |.               |      [4]: 2 transition_type 0x310-0x310.7 (1)
0x310|   03                                          | .              |      [5]: 3 transition_type 0x311-0x311.7 (1)
0x310|      02                                       |  .             |      [6]: 2 transition_type 0x312-0x312.7 (1)
0x310|         03                                    |   .            |      [7]: 3 transition_type 0x313-0x313.7 (1)
0x310|            02                                 |    .           |      [8]: 2 transition_type 0x314-0x314.7 (1)
0x310|               03                              |     .          |      [9]: 3 transition_type 0x315-0x315.7 (1)
0x310|                  02                           |      .         |      [10]: 2 transition_type 0x316-0x316.7 (1)
0x310|                     03                        |       .        |      [11]: 3 transition_type 0x317-0x317.7 (1)
0x310|                        02                     |        .       |      [12]: 2 transition_type 0x318-0x318.7 (1)
0x310|                           03                  |         .      |      [13]: 3 transition_type 0x319-0x319.7 (1)
0x310|                              02               |          .     |      [14]: 2 transition_type 0x31a-0x31a.7 (1)
0x310|                                 03            |           .    |      [15]: 3 transition_type 0x31b-0x31b.7 (1)
0x310|                                    02         |            .   |      [16]: 2 transition_type 0x31c-0x31c.7 (1)
0x310|                                       03      |             .  |      [17]: 3 transition_type 0x31d-0x31d.7 (1)
0x310|                                          02   |              . |      [18]: 2 transition_type 0x31e-0x31e.7 (1)
0x310|                                             03|               .|      [19]: 3 transition_type 0x31f-0x31f.7 (1)
0x320|02                                             |.               |      [20]: 2 transition_type 0x320-0x320.7 (1)
0x320|   03                                          | .              |      [21]: 3 transition_type 0x321-0x321.7 (1)
0x320|      02                                       |  .             |      [22]: 2 transition_type 0x322-0x322.7 (1)
0x320|         03                                    |   .            |      [23]: 3 transition_type 0x323-0x323.7 (1)
0x320|            02                                 |    .           |      [24]: 2 transition_type 0x324-0x324.7 (1)
0x320|               03                              |     .          |      [25]: 3 transition_type 0x325-0x325.7 (1)
0x320|                  02                           |      .         |      [26]: 2 transition_type 0x326-0x326.7 (1)
0x320|                     03                        |       .        |      [27]: 3 transition_type 0x327-0x327.7 (1)
0x320|                        02                     |        .       |      [28]: 2 transition_type 0x328-0x328.7 (1)
0x320|                           03                  |         .      |      [29]: 3 transition_type 0x329-0x329.7 (1)
0x320|                              02               |          .     |      [30]: 2 transition_type 0x32a-0x32a.7 (1)
0x320|                                 03            |           .    |      [31]: 3 transition_type 0x32b-0x32b.7 (1)
0x320|                                    02         |            .   |      [32]: 2 transition_type 0x32c-0x32c.7 (1)
0x320|                                       03      |             .  |      [33]: 3 transition_type 0x32d-0x32d.7 (1)
0x320|                                          02   |              . |      [34]: 2 transition_type 0x32e-0x32e.7 (1)
0x320|                                             03|               .|      [35]: 3 transition_type 0x32f-0x32f.7 (1)
0x330|02                                             |.               |      [36]: 2 transition_type 0x330-0x330.7 (1)
0x330|   03                                          | .              |      [37]: 3 transition_type 0x331-0x331.7 (1)
0x330|      02                                       |  .             |      [38]: 2 transition_type 0x332-0x332.7 (1)
0x330|         03                                    |   .            |      [39]: 3 transition_type 0x333-0x333.7 (1)
0x330|            02                                 |    .           |      [40]: 2 transition_type 0x334-0x334.7 (1)
0x330|               03                              |     .          |      [41]: 3 transition_type 0x335-0x335.7 (1)
0x330|                  02                           |      .         |      [42]: 2 transition_type 0x336-0x336.7 (1)
0x330|                     03                        |       .        |      [43]: 3 transition_type 0x337-0x337.7 (1)
0x330|                        02                     |        .       |      [44]: 2 transition_type 0x338-0x338.7 (1)
0x330|                           03                  |         .      |      [45]: 3 transition_type 0x339-0x339.7 (1)
0x330|                              02               |          .     |      [46]: 2 transition_type 0x33a-0x33a.7 (1)
0x330|                                 03            |           .    |      [47]: 3 transition_type 0x33b-0x33b.7 (1)
0x330|                                    02         |            .   |      [48]: 2 transition_type 0x33c-0x33c.7 (1)
0x330|                                       03      |             .  |      [49]: 3 transition_type 0x33d-0x33d.7 (1)
0x330|                                          04   |              . |      [50]: 4 transition_type 0x33e-0x33e.7 (1)
0x330|                                             08|               .|      [51]: 8 transition_type 0x33f-0x33f.7 (1)
0x340|06                                             |.               |      [52]: 6 transition_type 0x340-0x340.7 (1)
0x340|   07                                          | .              |      [53]: 7 transition_type 0x341-0x341.7 (1)
0x340|      06                                       |  .             |      [54]: 6 transition_type 0x342-0x342.7 (1)
0x340|         07                                    |   .            |      [55]: 7 transition_type 0x343-0x343.7 (1)
0x340|            09                                 |    .           |      [56]: 9 transition_type 0x344-0x344.7 (1)
0x340|               04                              |     .          |      [57]: 4 transition_type 0x345-0x345.7 (1)
0x340|                  09                           |      .         |      [58]: 9 transition_type 0x346-0x346.7 (1)
0x340|                     0a                        |       .        |      [59]: 10 transition_type 0x347-0x347.7 (1)
0x340|                        08                     |        .       |      [60]: 8 transition_type 0x348-0x348.7 (1)
0x340|                           0a                  |         .      |      [61]: 10 transition_type 0x349-0x349.7 (1)
0x340|                              0b               |          .     |      [62]: 11 transition_type 0x34a-0x34a.7 (1)
0x340|                                 0c            |           .    |      [63]: 12 transition_type 0x34b-0x34b.7 (1)
0x340|                                    0b         |            .   |      [64]: 11 transition_type 0x34c-0x34c.7 (1)
0x340|                                       0c      |             .  |      [65]: 12 transition_type 0x34d-0x34d.7 (1)
0x340|                                          0b   |              . |      [66]: 11 transition_type 0x34e-0x34e.7 (1)
0x340|                                             0c|               .|      [67]: 12 transition_type 0x34f-0x34f.7 (1)
0x350|0b                                             |.               |      [68]: 11 transition_type 0x350-0x350.7 (1)
0x350|   0c                                          | .              |      [69]: 12 transition_type 0x351-0x351.7 (1)
0x350|      0b                                       |  .             |      [70]: 11 transition_type 0x352-0x352.7 (1)
0x350|         0c                                    |   .            |      [71]: 12 transition_type 0x353-0x353.7 (1)
0x350|            0b                                 |    .           |      [72]: 11 transition_type 0x354-0x354.7 (1)
0x350|               0c                              |     .          |      [73]: 12 transition_type 0x355-0x355.7 (1)
0x350|                  0b                           |      .         |      [74]: 11 transition_type 0x356-0x356.7 (1)
0x350|                     0c                        |       .        |      [75]: 12 transition_type 0x357-0x357.7 (1)
0x350|                        0b                     |        .       |      [76]: 11 transition_type 0x358-0x358.7 (1)
0x350|                           0c                  |         .      |      [77]: 12 transition_type 0x359-0x359.7 (1)
0x350|                              0b               |          .     |      [78]: 11 transition_type 0x35a-0x35a.7 (1)
0x350|                                 0c            |           .    |      [79]: 12 transition_type 0x35b-0x35b.7 (1)
0x350|                                    0b         |            .   |      [80]: 11 transition_type 0x35c-0x35c.7 (1)
0x350|                                       0c      |             .  |      [81]: 12 transition_type 0x35d-0x35d.7 (1)
0x350|                                          0b   |              . |      [82]: 11 transition_type 0x35e-0x35e.7 (1)
0x350|                                             0c|               .|      [83]: 12 transition_type 0x35f-0x35f.7 (1)
0x360|0b                                             |.               |      [84]: 11 transition_type 0x360-0x360.7 (1)
0x360|   0c                                          | .              |      [85]: 12 transition_type 0x361-0x361.7 (1)
0x360|      0b                                       |  .             |      [86]: 11 transition_type 0x362-0x362.7 (1)
0x360|         0c                                    |   .            |      [87]: 12 transition_type 0x363-0x363.7 (1)
0x360|            0b                                 |    .           |      [88]: 11 transition_type 0x364-0x364.7 (1)
0x360|               0c                              |     .          |      [89]: 12 transition_type 0x365-0x365.7 (1)
0x360|                  0b                           |      .         |      [90]: 11 transition_type 0x366-0x366.7 (1)
0x360|                     0c                        |       .        |      [91]: 12 transition_type 0x367-0x367.7 (1)
0x360|                        0b                     |        .       |      [92]: 11 transition_type 0x368-0x368.7 (1)
0x360|                           0c                  |         .      |      [93]: 12 transition_type 0x369-0x369.7 (1)
0x360|                              0b               |          .     |      [94]: 11 transition_type 0x36a-0x36a.7 (1)
0x360|                                 0c            |           .    |      [95]: 12 transition_type 0x36b-0x36b.7 (1)
0x360|                                    0b         |            .   |      [96]: 11 transition_type 0x36c-0x36c.7 (1)
0x360|                                       0c      |             .  |      [97]: 12 transition_type 0x36d-0x36d.7 (1)
0x360|                                          0b   |              . |      [98]: 11 transition_type 0x36e-0x36e.7 (1)
0x360|                                             0c|               .|      [99]: 12 transition_type 0x36f-0x36f.7 (1)
0x370|0b                                             |.               |      [100]: 11 transition_type 0x370-0x370.7 (1)
0x370|   0c                                          | .              |      [101]: 12 transition_type 0x371-0x371.7 (1)
0x370|      0b                                       |  .             |      [102]: 11 transition_type 0x372-0x372.7 (1)
0x370|         0c                                    |   .            |      [103]: 12 transition_type 0x373-0x373.7 (1)
0x370|            0b                                 |    .           |      [104]: 11 transition_type 0x374-0x374.7 (1)
0x370|               0c                              |     .          |      [105]: 12 transition_type 0x375-0x375.7 (1)
0x370|                  0b                           |      .         |      [106]: 11 transition_type 0x376-0x376.7 (1)
0x370|                     0c                        |       .        |      [107]: 12 transition_type 0x377-0x377.7 (1)
0x370|                        0b                     |        .       |      [108]: 11 transition_type 0x378-0x378.7 (1)
0x370|                           0c                  |         .      |      [109]: 12 transition_type 0x379-0x379.7 (1)
0x370|                              0b               |          .     |      [110]: 11 transition_type 0x37a-0x37a.7 (1)
0x370|                                 0c            |           .    |      [111]: 12 transition_type 0x37b-0x37b.7 (1)
0x370|                                    0b         |            .   |      [112]: 11 transition_type 0x37c-0x37c.7 (1)
0x370|                                       0c      |             .  |      [113]: 12 transition_type 0x37d-0x37d.7 (1)
0x370|                                          0b   |              . |      [114]: 11 transition_type 0x37e-0x37e.7 (1)
0x370|                                             0c|               .|      [115]: 12 transition_type 0x37f-0x37f.7 (1)
0x380|0b                                             |.               |      [116]: 11 transition_type 0x380-0x380.7 (1)
0x380|   0c                                          | .              |      [117]: 12 transition_type 0x381-0x381.7 (1)
0x380|      0b                                       |  .             |      [118]: 11 transition_type 0x382-0x382.7 (1)
0x380|         0c                                    |   .            |      [119]: 12 transition_type 0x383-0x383.7 (1)
0x380|            0b                                 |    .           |      [120]: 11 transition_type 0x384-0x384.7 (1)
0x380|               0c                              |     .          |      [121]: 12 transition_type 0x385-0x385.7 (1)
0x380|                  0b                           |      .         |      [122]: 11 transition_type 0x386-0x386.7 (1)
0x380|                     0c                        |       .        |      [123]: 12 transition_type 0x387-0x387.7 (1)
0x380|                        0b                     |        .       |      [124]: 11 transition_type 0x388-0x388.7 (1)
0x380|                           0c                  |         .      |      [125]: 12 transition_type 0x389-0x389.7 (1)
0x380|                              0b               |          .     |      [126]: 11 transition_type 0x38a-0x38a.7 (1)
0x380|                                 0c            |           .    |      [127]: 12 transition_type 0x38b-0x38b.7 (1)
0x380|                                    0b         |            .   |      [128]: 11 transition_type 0x38c-0x38c.7 (1)
0x380|                                       0c      |             .  |      [129]: 12 transition_type 0x38d-0x38d.7 (1)
0x380|                                          0b   |              . |      [130]: 11 transition_type 0x38e-0x38e.7 (1)
0x380|                                             0c|               .|      [131]: 12 transition_type 0x38f-0x38f.7 (1)
0x390|0b                                             |.               |      [132]: 11 transition_type 0x390-0x390.7 (1)
0x390|   0c                                          | .              |      [133]: 12 transition_type 0x391-0x391.7 (1)
0x390|      0b                                       |  .             |      [134]: 11 transition_type 0x392-0x392.7 (1)
0x390|         0c                                    |   .            |      [135]: 12 transition_type 0x393-0x393.7 (1)
0x390|            0b                                 |    .           |      [136]: 11 transition_type 0x394-0x394.7 (1)
0x390|               0c                              |     .          |      [137]: 12 transition_type 0x395-0x395.7 (1)
0x390|                  0b                           |      .         |      [138]: 11 transition_type 0x396-0x396.7 (1)
0x390|                     0c                        |       .        |      [139]: 12 transition_type 0x397-0x397.7 (1)
0x390|                        0b                     |        .       |      [140]: 11 transition_type 0x398-0x398.7 (1)
0x390|                           0c                  |         .      |      [141]: 12 transition_type 0x399-0x399.7 (1)
0x390|                              0b               |          .     |      [142]: 11 transition_type 0x39a-0x39a.7 (1)
0x390|                                 0c            |           .    |      [143]: 12 transition_type 0x39b-0x39b.7 (1)
0x390|                                    0b         |            .   |      [144]: 11 transition_type 0x39c-0x39c.7 (1)
0x390|                                       0c      |             .  |      [145]: 12 transition_type 0x39d-0x39d.7 (1)
0x390|                                          0b   |              . |      [146]: 11 transition_type 0x39e-0x39e.7 (1)
0x390|                                             0c|               .|      [147]: 12 transition_type 0x39f-0x39f.7 (1)
0x3a0|0b                                             |.               |      [148]: 11 transition_type 0x3a0-0x3a0.7 (1)
0x3a0|   0c                                          | .              |      [149]: 12 transition_type 0x3a1-0x3a1.7 (1)
0x3a0|      0b                                       |  .             |      [150]: 11 transition_type 0x3a2-0x3a2.7 (1)
0x3a0|         0c                                    |   .            |      [151]: 12 transition_type 0x3a3-0x3a3.7 (1)
0x3a0|            0b                                 |    .           |      [152]: 11 transition_type 0x3a4-0x3a4.7 (1)
0x3a0|               0c                              |     .          |      [153]: 12 transition_type 0x3a5-0x3a5.7 (1)
0x3a0|                  0b                           |      .         |      [154]: 11 transition_type 0x3a6-0x3a6.7 (1)
0x3a0|                     0c                        |       .        |      [155]: 12 transition_type 0x3a7-0x3a7.7 (1)
0x3a0|                        0b                     |        .       |      [156]: 11 transition_type 0x3a8-0x3a8.7 (1)
0x3a0|                           0c                  |         .      |      [157]: 12 transition_type 0x3a9-0x3a9.7 (1)
0x3a0|                              0b               |          .     |      [158]: 11 transition_type 0x3aa-0x3aa.7 (1)
0x3a0|                                 0c            |           .    |      [159]: 12 transition_type 0x3ab-0x3ab.7 (1)
0x3a0|                                    0b         |            .   |      [160]: 11 transition_type 0x3ac-0x3ac.7 (1)
0x3a0|                                       0c      |             .  |      [161]: 12 transition_type 0x3ad-0x3ad.7 (1)
0x3a0|                                          0b   |              . |      [162]: 11 transition_type 0x3ae-0x3ae.7 (1)
0x3a0|                                             0c|               .|      [163]: 12 transition_type 0x3af-0x3af.7 (1)
0x3b0|0b                                             |.               |      [164]: 11 transition_type 0x3b0-0x3b0.7 (1)
0x3b0|   0c                                          | .              |      [165]: 12 transition_type 0x3b1-0x3b1.7 (1)
0x3b0|      0b                                       |  .             |      [166]: 11 transition_type 0x3b2-0x3b2.7 (1)
0x3b0|         0c                                    |   .            |      [167]: 12 transition_type 0x3b3-0x3b3.7 (1)
0x3b0|            0b                                 |    .           |      [168]: 11 transition_type 0x3b4-0x3b4.7 (1)
0x3b0|               0c                              |     .          |      [169]: 12 transition_type 0x3b5-0x3b5.7 (1)
0x3b0|                  0b                           |      .         |      [170]: 11 transition_type 0x3b6-0x3b6.7 (1)
0x3b0|                     0c                        |       .        |      [171]: 12 transition_type 0x3b7-0x3b7.7 (1)
0x3b0|                        0b                     |        .       |      [172]: 11 transition_type 0x3b8-0x3b8.7 (1)
0x3b0|                           0c                  |         .      |      [173]: 12 transition_type 0x3b9-0x3b9.7 (1)
0x3b0|                              0b               |          .     |      [174]: 11 transition_type 0x3ba-0x3ba.7 (1)
0x3b0|                                 0c            |           .    |      [175]: 12 transition_type 0x3bb-0x3bb.7 (1)
0x3b0|                                    0b         |            .   |      [176]: 11 transition_type 0x3bc-0x3bc.7 (1)
0x3b0|                                       0c      |             .  |      [177]: 12 transition_type 0x3bd-0x3bd.7 (1)
0x3b0|                                          0b   |              . |      [178]: 11 transition_type 0x3be-0x3be.7 (1)
0x3b0|                                             0c|               .|      [179]: 12 transition_type 0x3bf-0x3bf.7 (1)
0x3c0|0b                                             |.               |      [180]: 11 transition_type 0x3c0-0x3c0.7 (1)
0x3c0|   0c                                          | .              |      [181]: 12 transition_type 0x3c1-0x3c1.7 (1)
0x3c0|      0b                                       |  .             |      [182]: 11 transition_type 0x3c2-0x3c2.7 (1)
0x3c0|         0c                                    |   .            |      [183]: 12 transition_type 0x3c3-0x3c3.7 (1)
     |                                               |                |    local_time_type_records[0:13]: 0x3c4-0x411.7 (78)
     |                                               |                |      [0]{}: local_time_type 0x3c4-0x3c9.7 (6)
0x3c0|            00 00 02 31                        |    ...1        |        utoff: 561 (valid) 0x3c4-0x3c7.7 (4)
0x3c0|                        00                     |        .       |        dst: 0 (valid) 0x3c8-0x3c8.7 (1)
0x3c0|                           00                  |         .      |        idx: 0 (valid) 0x3c9-0x3c9.7 (1)
     |                                               |                |      [1]{}: local_time_type 0x3ca-0x3cf.7 (6)
0x3c0|                              00 00 02 31      |          ...1  |        utoff: 561 (valid) 0x3ca-0x3cd.7 (4)
0x3c0|                                          00   |              . |        dst: 0 (valid) 0x3ce-0x3ce.7 (1)
0x3c0|                                             04|               .|        idx: 4 (valid) 0x3cf-0x3cf.7 (1)
     |                                               |                |      [2]{}: local_time_type 0x3d0-0x3d5.7 (6)
0x3d0|00 00 0e 10                                    |....            |        utoff: 3600 (valid) 0x3d0-0x3d3.7 (4)
0x3d0|            01                                 |    .           |        dst: 1 (valid) 0x3d4-0x3d4.7 (1)
0x3d0|               08                              |     .          |        idx: 8 (valid) 0x3d5-0x3d5.7 (1)
     |                                               |                |      [3]{}: local_time_type 0x3d6-0x3db.7 (6)
0x3d0|                  00 00 00 00                  |      ....      |        utoff: 0 (valid) 0x3d6-0x3d9.7 (4)
0x3d0|                              00               |          .     |        dst: 0 (valid) 0x3da-0x3da.7 (1)
0x3d0|                                 0d            |           .    |        idx: 13 (valid) 0x3db-0x3db.7 (1)
     |                                               |                |      [4]{}: local_time_type 0x3dc-0x3e1.7 (6)
0x3d0|                                    00 00 0e 10|            ....|        utoff: 3600 (valid) 0x3dc-0x3df.7 (4)
0x3e0|01                                             |.               |        dst: 1 (valid) 0x3e0-0x3e0.7 (1)
0x3e0|   08                                          | .              |        idx: 8 (valid) 0x3e1-0x3e1.7 (1)
     |                                               |                |      [5]{}: local_time_type 0x3e2-0x3e7.7 (6)
0x3e0|      00 00 00 00                              |  ....          |        utoff: 0 (valid) 0x3e2-0x3e5.7 (4)
0x3e0|                  00                           |      .         |        dst: 0 (valid) 0x3e6-0x3e6.7 (1)
0x3e0|                     0d                        |       .        |        idx: 13 (valid) 0x3e7-0x3e7.7 (1)
     |                                               |                |      [6]{}: local_time_type 0x3e8-0x3ed.7 (6)
0x3e0|                        00 00 0e 10            |        ....    |        utoff: 3600 (valid) 0x3e8-0x3eb.7 (4)
0x3e0|                                    00         |            .   |        dst: 0 (valid) 0x3ec-0x3ec.7 (1)
0x3e0|                                       11      |             .  |        idx: 17 (valid) 0x3ed-0x3ed.7 (1)
     |                                               |                |      [7]{}: local_time_type 0x3ee-0x3f3.7 (6)
0x3e0|                                          00 00|              ..|        utoff: 7200 (valid) 0x3ee-0x3f1.7 (4)
0x3f0|1c 20                                          |.               |
0x3f0|      01                                       |  .             |        dst: 1 (valid) 0x3f2-0x3f2.7 (1)
0x3f0|         15                                    |   .            |        idx: 21 (valid) 0x3f3-0x3f3.7 (1)
     |                                               |                |      [8]{}: local_time_type 0x3f4-0x3f9.7 (6)
0x3f0|            00 00 1c 20                        |    ...         |        utoff: 7200 (valid) 0x3f4-0x3f7.7 (4)
0x3f0|                        01                     |        .       |        dst: 1 (valid) 0x3f8-0x3f8.7 (1)
0x3f0|                           15                  |         .      |        idx: 21 (valid) 0x3f9-0x3f9.7 (1)
     |                                               |                |      [9]{}: local_time_type 0x3fa-0x3ff.7 (6)
0x3f0|                              00 00 1c 20      |          ...   |        utoff: 7200 (valid) 0x3fa-0x3fd.7 (4)
0x3f0|                                          01   |              . |        dst: 1 (valid) 0x3fe-0x3fe.7 (1)
0x3f0|                                             1a|               .|        idx: 26 (valid) 0x3ff-0x3ff.7 (1)
     |                                               |                |      [10]{}: local_time_type 0x400-0x405.7 (6)
0x400|00 00 0e 10                                    |....            |        utoff: 3600 (valid) 0x400-0x403.7 (4)
0x400|            00                                 |    .           |        dst: 0 (valid) 0x404-0x404.7 (1)
0x400|               11                              |     .          |        idx: 17 (valid) 0x405-0x405.7 (1)
     |                                               |                |      [11]{}: local_time_type 0x406-0x40b.7 (6)
0x400|                  00 00 1c 20                  |      ...       |        utoff: 7200 (valid) 0x406-0x409.7 (4)
0x400|                              01               |          .     |        dst: 1 (valid) 0x40a-0x40a.7 (1)
0x400|                                 15            |           .    |        idx: 21 (valid) 0x40b-0x40b.7 (1)
     |                                               |                |      [12]{}: local_time_type 0x40c-0x411.7 (6)
0x400|                                    00 00 0e 10|            ....|        utoff: 3600 (valid) 0x40c-0x40f.7 (4)
0x410|00                                             |.               |        dst: 0 (valid) 0x410-0x410.7 (1)
0x410|   11                                          | .              |        idx: 17 (valid) 0x411-0x411.7 (1)
     |                                               |                |    time_zone_designations[0:7]: 0x412-0x430.7 (31)
0x410|      4c 4d 54 00                              |  LMT.          |      [0]: "LMT" time_zone_designation 0x412-0x415.7 (4)
0x410|                  50 4d 54 00                  |      PMT.      |      [1]: "PMT" time_zone_designation 0x416-0x419.7 (4)
0x410|                              57 45 53 54 00   |          WEST. |      [2]: "WEST" time_zone_designation 0x41a-0x41e.7 (5)
0x410|                                             57|               W|      [3]: "WET" time_zone_designation 0x41f-0x422.7 (4)
0x420|45 54 00                                       |ET.             |
0x420|         43 45 54 00                           |   CET.         |      [4]: "CET" time_zone_designation 0x423-0x426.7 (4)
0x420|                     43 45 53 54 00            |       CEST.    |      [5]: "CEST" time_zone_designation 0x427-0x42b.7 (5)
0x420|                                    57 45 4d 54|            WEMT|      [6]: "WEMT" time_zone_designation 0x42c-0x430.7 (5)
0x430|00                                             |.               |
     |                                               |                |    leap_second_records[0:0]: 0x431-NA (0)
     |                                               |                |    standard_wall_indicators[0:13]: 0x431-0x43d.7 (13)
0x430|   00                                          | .              |      [0]: 0 standard_wall_indicator (valid) 0x431-0x431.7 (1)
0x430|      00                                       |  .             |      [1]: 0 standard_wall_indicator (valid) 0x432-0x432.7 (1)
0x430|         01                                    |   .            |      [2]: 1 standard_wall_indicator (valid) 0x433-0x433.7 (1)
0x430|            01                                 |    .           |      [3]: 1 standard_wall_indicator (valid) 0x434-0x434.7 (1)
0x430|               00                              |     .          |      [4]: 0 standard_wall_indicator (valid) 0x435-0x435.7 (1)
0x430|                  00                           |      .         |      [5]: 0 standard_wall_indicator (valid) 0x436-0x436.7 (1)
0x430|                     01                        |       .        |      [6]: 1 standard_wall_indicator (valid) 0x437-0x437.7 (1)
0x430|                        01                     |        .       |      [7]: 1 standard_wall_indicator (valid) 0x438-0x438.7 (1)
0x430|                           00                  |         .      |      [8]: 0 standard_wall_indicator (valid) 0x439-0x439.7 (1)
0x430|                              00               |          .     |      [9]: 0 standard_wall_indicator (valid) 0x43a-0x43a.7 (1)
0x430|                                 00            |           .    |      [10]: 0 standard_wall_indicator (valid) 0x43b-0x43b.7 (1)
0x430|                                    01         |            .   |      [11]: 1 standard_wall_indicator (valid) 0x43c-0x43c.7 (1)
0x430|                                       01      |             .  |      [12]: 1 standard_wall_indicator (valid) 0x43d-0x43d.7 (1)
     |                                               |                |    ut_local_indicators[0:13]: 0x43e-0x44a.7 (13)
0x430|                                          00   |              . |      [0]: 0 ut_local_indicator (valid) 0x43e-0x43e.7 (1)
0x430|                                             00|               .|      [1]: 0 ut_local_indicator (valid) 0x43f-0x43f.7 (1)
0x440|00                                             |.               |      [2]: 0 ut_local_indicator (valid) 0x440-0x440.7 (1)
0x440|   00                                          | .              |      [3]: 0 ut_local_indicator (valid) 0x441-0x441.7 (1)
0x440|      00                                       |  .             |      [4]: 0 ut_local_indicator (valid) 0x442-0x442.7 (1)
0x440|         00                                    |   .            |      [5]: 0 ut_local_indicator (valid) 0x443-0x443.7 (1)
0x440|            00                                 |    .           |      [6]: 0 ut_local_indicator (valid) 0x444-0x444.7 (1)
0x440|               00                              |     .          |      [7]: 0 ut_local_indicator (valid) 0x445-0x445.7 (1)
0x440|                  00                           |      .         |      [8]: 0 ut_local_indicator (valid) 0x446-0x446.7 (1)
0x440|                     00                        |       .        |      [9]: 0 ut_local_indicator (valid) 0x447-0x447.7 (1)
0x440|                        00                     |        .       |      [10]: 0 ut_local_indicator (valid) 0x448-0x448.7 (1)
0x440|                           01                  |         .      |      [11]: 1 ut_local_indicator (valid) 0x449-0x449.7 (1)
0x440|                              01               |          .     |      [12]: 1 ut_local_indicator (valid) 0x44a-0x44a.7 (1)
     |                                               |                |  v2plusheader{}: 0x44b-0x476.7 (44)
0x440|                                 54 5a 69 66   |           TZif |    magic: 0x545a6966 (valid) 0x44b-0x44e.7 (4)
0x440|                                             32|               2|    ver: "2" (0x32) (valid) 0x44f-0x44f.7 (1)
0x450|00 00 00 00 00 00 00 00 00 00 00 00 00 00 00   |............... |    reserved: raw bits 0x450-0x45e.7 (15)
0x450|                                             00|               .|    isutcnt: 13 0x45f-0x462.7 (4)
0x460|00 00 0d                                       |...             |
0x460|         00 00 00 0d                           |   ....         |    isstdcnt: 13 0x463-0x466.7 (4)
0x460|                     00 00 00 00               |       ....     |    leapcnt: 0 0x467-0x46a.7 (4)
0x460|                                 00 00 00 b8   |           .... |    timecnt: 184 0x46b-0x46e.7 (4)
0x460|                                             00|               .|    typecnt: 13 0x46f-0x472.7 (4)
0x470|00 00 0d                                       |...             |
0x470|         00 00 00 1f                           |   ....         |    charcnt: 31 0x473-0x476.7 (4)
     |                                               |                |  v2plusdatablock{}: 0x477-0xb75.7 (1791)
     |                                               |                |    transition_times[0:184]: 0x477-0xa36.7 (1472)
0x470|                     ff ff ff ff 6b c9 9b cf   |       ....k... |      [0]: "1891-03-15T23:50:39Z" (-2486592561) transition_time 0x477-0x47e.7 (8)
0x470|                                             ff|               .|      [1]: "1911-03-10T23:50:39Z" (-1855958961) transition_time 0x47f-0x486.7 (8)
0x480|ff ff ff 91 60 50 4f                           |....`PO         |
0x480|                     ff ff ff ff 9b 47 78 f0   |       .....Gx. |      [2]: "1916-06-14T23:00:00Z" (-1689814800) transition_time 0x487-0x48e.7 (8)
0x480|                                             ff|               .|      [3]: "1916-10-01T23:00:00Z" (-1680397200) transition_time 0x48f-0x496.7 (8)
0x490|ff ff ff 9b d7 2c 70                           |.....,p         |
0x490|                     ff ff ff ff 9c bc 91 70   |       .......p |      [4]: "1917-03-24T23:00:00Z" (-1665363600) transition_time 0x497-0x49e.7 (8)
0x490|                                             ff|               .|      [5]: "1917-10-07T23:00:00Z" (-1648342800) transition_time 0x49f-0x4a6.7 (8)
0x4a0|ff ff ff 9d c0 48 f0                           |.....H.         |
0x4a0|                     ff ff ff ff 9e 89 fe 70   |       .......p |      [6]: "1918-03-09T23:00:00Z" (-1635123600) transition_time 0x4a7-0x4ae.7 (8)
0x4a0|                                             ff|               .|      [7]: "1918-10-06T23:00:00Z" (-1616893200) transition_time 0x4af-0x4b6.7 (8)
0x4b0|ff ff ff 9f a0 2a f0                           |.....*.         |
0x4b0|                     ff ff ff ff a0 60 a5 f0   |       .....`.. |      [8]: "1919-03-01T23:00:00Z" (-1604278800) transition_time 0x4b7-0x4be.7 (8)
0x4b0|                                             ff|               .|      [9]: "1919-10-05T23:00:00Z" (-1585443600) transition_time 0x4bf-0x4c6.7 (8)
0x4c0|ff ff ff a1 80 0c f0                           |.......         |
0x4c0|                     ff ff ff ff a2 2e 12 f0   |       ........ |      [10]: "1920-02-14T23:00:00Z" (-1574038800) transition_time 0x4c7-0x4ce.7 (8)
0x4c0|                                             ff|               .|      [11]: "1920-10-23T23:00:00Z" (-1552266000) transition_time 0x4cf-0x4d6.7 (8)
0x4d0|ff ff ff a3 7a 4c f0                           |....zL.         |
0x4d0|                     ff ff ff ff a4 35 81 f0   |       .....5.. |      [12]: "1921-03-14T23:00:00Z" (-1539997200) transition_time 0x4d7-0x4de.7 (8)
0x4d0|                                             ff|               .|      [13]: "1921-10-25T23:00:00Z" (-1520557200) transition_time 0x4df-0x4e6.7 (8)
0x4e0|ff ff ff a5 5e 23 70                           |....^#p         |
0x4e0|                     ff ff ff ff a6 25 35 f0   |       .....%5. |      [14]: "1922-03-25T23:00:00Z" (-1507510800) transition_time 0x4e7-0x4ee.7 (8)
0x4e0|                                             ff|               .|      [15]: "1922-10-07T23:00:00Z" (-1490576400) transition_time 0x4ef-0x4f6.7 (8)
0x4f0|ff ff ff a7 27 9b f0                           |....'..         |
0x4f0|                     ff ff ff ff a8 58 26 70   |       .....X&p |      [16]: "1923-05-26T23:00:00Z" (-1470618000) transition_time 0x4f7-0x4fe.7 (8)
0x4f0|                                             ff|               .|      [17]: "1923-10-06T23:00:00Z" (-1459126800) transition_time 0x4ff-0x506.7 (8)
0x500|ff ff ff a9 07 7d f0                           |.....}.         |
0x500|                     ff ff ff ff a9 ee 34 70   |       ......4p |      [18]: "1924-03-29T23:00:00Z" (-1444006800) transition_time 0x507-0x50e.7 (8)
0x500|                                             ff|               .|      [19]: "1924-10-04T23:00:00Z" (-1427677200) transition_time 0x50f-0x516.7 (8)
0x510|ff ff ff aa e7 5f f0                           |....._.         |
0x510|                     ff ff ff ff ab d7 50 f0   |       ......P. |      [20]: "1925-04-04T23:00:00Z" (-1411952400) transition_time 0x517-0x51e.7 (8)
0x510|                                             ff|               .|      [21]: "1925-10-03T23:00:00Z" (-1396227600) transition_time 0x51f-0x526.7 (8)
0x520|ff ff ff ac c7 41 f0                           |.....A.         |
0x520|                     ff ff ff ff ad c9 a7 f0   |       ........ |      [22]: "1926-04-17T23:00:00Z" (-1379293200) transition_time 0x527-0x52e.7 (8)
0x520|                                             ff|               .|      [23]: "1926-10-02T23:00:00Z" (-1364778000) transition_time 0x52f-0x536.7 (8)
0x530|ff ff ff ae a7 23 f0                           |.....#.         |
0x530|                     ff ff ff ff af a0 4f 70   |       ......Op |      [24]: "1927-04-09T23:00:00Z" (-1348448400) transition_time 0x537-0x53e.7 (8)
0x530|                                             ff|               .|      [25]: "1927-10-01T23:00:00Z" (-1333328400) transition_time 0x53f-0x546.7 (8)
0x540|ff ff ff b0 87 05 f0                           |.......         |
0x540|                     ff ff ff ff b1 89 6b f0   |       ......k. |      [26]: "1928-04-14T23:00:00Z" (-1316394000) transition_time 0x547-0x54e.7 (8)
0x540|                                             ff|               .|      [27]: "1928-10-06T23:00:00Z" (-1301274000) transition_time 0x54f-0x556.7 (8)
0x550|ff ff ff b2 70 22 70                           |....p"p         |
0x550|                     ff ff ff ff b3 72 88 70   |       .....r.p |      [28]: "1929-04-20T23:00:00Z" (-1284339600) transition_time 0x557-0x55e.7 (8)
0x550|                                             ff|               .|      [29]: "1929-10-05T23:00:00Z" (-1269824400) transition_time 0x55f-0x566.7 (8)
0x560|ff ff ff b4 50 04 70                           |....P.p         |
0x560|                     ff ff ff ff b5 49 2f f0   |       .....I/. |      [30]: "1930-04-12T23:00:00Z" (-1253494800) transition_time 0x567-0x56e.7 (8)
0x560|                                             ff|               .|      [31]: "1930-10-04T23:00:00Z" (-1238374800) transition_time 0x56f-0x576.7 (8)
0x570|ff ff ff b6 2f e6 70                           |..../.p         |
0x570|                     ff ff ff ff b7 32 4c 70   |       .....2Lp |      [32]: "1931-04-18T23:00:00Z" (-1221440400) transition_time 0x577-0x57e.7 (8)
0x570|                                             ff|               .|      [33]: "1931-10-03T23:00:00Z" (-1206925200) transition_time 0x57f-0x586.7 (8)
0x580|ff ff ff b8 0f c8 70                           |......p         |
0x580|                     ff ff ff ff b8 ff b9 70   |       .......p |      [34]: "1932-04-02T23:00:00Z" (-1191200400) transition_time 0x587-0x58e.7 (8)
0x580|                                             ff|               .|      [35]: "1932-10-01T23:00:00Z" (-1175475600) transition_time 0x58f-0x596.7 (8)
0x590|ff ff ff b9 ef aa 70                           |......p         |
0x590|                     ff ff ff ff ba d6 60 f0   |       ......`. |      [36]: "1933-03-25T23:00:00Z" (-1160355600) transition_time 0x597-0x59e.7 (8)
0x590|                                             ff|               .|      [37]: "1933-10-07T23:00:00Z" (-1143421200) transition_time 0x59f-0x5a6.7 (8)
0x5a0|ff ff ff bb d8 c6 f0                           |.......         |
0x5a0|                     ff ff ff ff bc c8 b7 f0   |       ........ |      [38]: "1934-04-07T23:00:00Z" (-1127696400) transition_time 0x5a7-0x5ae.7 (8)
0x5a0|                                             ff|               .|      [39]: "1934-10-06T23:00:00Z" (-1111971600) transition_time 0x5af-0x5b6.7 (8)
0x5b0|ff ff ff bd b8 a8 f0                           |.......         |
0x5b0|                     ff ff ff ff be 9f 5f 70   |       ......_p |      [40]: "1935-03-30T23:00:00Z" (-1096851600) transition_time 0x5b7-0x5be.7 (8)
0x5b0|                                             ff|               .|      [41]: "1935-10-05T23:00:00Z" (-1080522000) transition_time 0x5bf-0x5c6.7 (8)
0x5c0|ff ff ff bf 98 8a f0                           |.......         |
0x5c0|                     ff ff ff ff c0 9a f0 f0   |       ........ |      [42]: "1936-04-18T23:00:00Z" (-1063587600) transition_time 0x5c7-0x5ce.7 (8)
0x5c0|                                             ff|               .|      [43]: "1936-10-03T23:00:00Z" (-1049072400) transition_time 0x5cf-0x5d6.7 (8)
0x5d0|ff ff ff c1 78 6c f0                           |....xl.         |
0x5d0|                     ff ff ff ff c2 68 5d f0   |       .....h]. |      [44]: "1937-04-03T23:00:00Z" (-1033347600) transition_time 0x5d7-0x5de.7 (8)
0x5d0|                                             ff|               .|      [45]: "1937-10-02T23:00:00Z" (-1017622800) transition_time 0x5df-0x5e6.7 (8)
0x5e0|ff ff ff c3 58 4e f0                           |....XN.         |
0x5e0|                     ff ff ff ff c4 3f 05 70   |       .....?.p |      [46]: "1938-03-26T23:00:00Z" (-1002502800) transition_time 0x5e7-0x5ee.7 (8)
0x5e0|                                             ff|               .|      [47]: "1938-10-01T23:00:00Z" (-986173200) transition_time 0x5ef-0x5f6.7 (8)
0x5f0|ff ff ff c5 38 30 f0                           |....80.         |
0x5f0|                     ff ff ff ff c6 3a 96 f0   |       .....:.. |      [48]: "1939-04-15T23:00:00Z" (-969238800) transition_time 0x5f7-0x5fe.7 (8)
0x5f0|                                             ff|               .|      [49]: "1939-11-18T23:00:00Z" (-950490000) transition_time 0x5ff-0x606.7 (8)
0x600|ff ff ff c7 58 ac 70                           |....X.p         |
0x600|                     ff ff ff ff c7 da 09 a0   |       ........ |      [50]: "1940-02-25T02:00:00Z" (-942012000) transition_time 0x607-0x60e.7 (8)
0x600|                                             ff|               .|      [51]: "1940-06-14T22:00:00Z" (-932436000) transition_time 0x60f-0x616.7 (8)
0x610|ff ff ff c8 6c 27 e0                           |....l'.         |
0x610|                     ff ff ff ff cc e7 4b 10   |       ......K. |      [52]: "1942-11-02T01:00:00Z" (-857257200) transition_time 0x617-0x61e.7 (8)
0x610|                                             ff|               .|      [53]: "1943-03-29T01:00:00Z" (-844556400) transition_time 0x61f-0x626.7 (8)
0x620|ff ff ff cd a9 17 90                           |.......         |
0x620|                     ff ff ff ff ce a2 43 10   |       ......C. |      [54]: "1943-10-04T01:00:00Z" (-828226800) transition_time 0x627-0x62e.7 (8)
0x620|                                             ff|               .|      [55]: "1944-04-03T01:00:00Z" (-812502000) transition_time 0x62f-0x636.7 (8)
0x630|ff ff ff cf 92 34 10                           |.....4.         |
0x630|                     ff ff ff ff d0 4f e1 e0   |       .....O.. |      [56]: "1944-08-24T22:00:00Z" (-800071200) transition_time 0x637-0x63e.7 (8)
0x630|                                             ff|               .|      [57]: "1944-10-07T23:00:00Z" (-796266000) transition_time 0x63f-0x646.7 (8)
0x640|ff ff ff d0 89 f1 f0                           |.......         |
0x640|                     ff ff ff ff d1 72 16 10   |       .....r.. |      [58]: "1945-04-02T01:00:00Z" (-781052400) transition_time 0x647-0x64e.7 (8)
0x640|                                             ff|               .|      [59]: "1945-09-16T01:00:00Z" (-766623600) transition_time 0x64f-0x656.7 (8)
0x650|ff ff ff d2 4e 40 90                           |....N@.         |
0x650|                     00 00 00 00 0b bb 39 00   |       ......9. |      [60]: "1976-03-28T00:00:00Z" (196819200) transition_time 0x657-0x65e.7 (8)
0x650|                                             00|               .|      [61]: "1976-09-25T23:00:00Z" (212540400) transition_time 0x65f-0x666.7 (8)
0x660|00 00 00 0c ab 1b f0                           |.......         |
0x660|                     00 00 00 00 0d a4 63 90   |       ......c. |      [62]: "1977-04-03T01:00:00Z" (228877200) transition_time 0x667-0x66e.7 (8)
0x660|                                             00|               .|      [63]: "1977-09-25T01:00:00Z" (243997200) transition_time 0x66f-0x676.7 (8)
0x670|00 00 00 0e 8b 1a 10                           |.......         |
0x670|                     00 00 00 00 0f 84 45 90   |       ......E. |      [64]: "1978-04-02T01:00:00Z" (260326800) transition_time 0x677-0x67e.7 (8)
0x670|                                             00|               .|      [65]: "1978-10-01T01:00:00Z" (276051600) transition_time 0x67f-0x686.7 (8)
0x680|00 00 00 10 74 36 90                           |....t6.         |
0x680|                     00 00 00 00 11 64 27 90   |       .....d'. |      [66]: "1979-04-01T01:00:00Z" (291776400) transition_time 0x687-0x68e.7 (8)
0x680|                                             00|               .|      [67]: "1979-09-30T01:00:00Z" (307501200) transition_time 0x68f-0x696.7 (8)
0x690|00 00 00 12 54 18 90                           |....T..         |
0x690|                     00 00 00 00 13 4d 44 10   |       .....MD. |      [68]: "1980-04-06T01:00:00Z" (323830800) transition_time 0x697-0x69e.7 (8)
0x690|                                             00|               .|      [69]: "1980-09-28T01:00:00Z" (338950800) transition_time 0x69f-0x6a6.7 (8)
0x6a0|00 00 00 14 33 fa 90                           |....3..         |
0x6a0|                     00 00 00 00 15 23 eb 90   |       .....#.. |      [70]: "1981-03-29T01:00:00Z" (354675600) transition_time 0x6a7-0x6ae.7 (8)
0x6a0|                                             00|               .|      [71]: "1981-09-27T01:00:00Z" (370400400) transition_time 0x6af-0x6b6.7 (8)
0x6b0|00 00 00 16 13 dc 90                           |.......         |
0x6b0|                     00 00 00 00 17 03 cd 90   |       ........ |      [72]: "1982-03-28T01:00:00Z" (386125200) transition_time 0x6b7-0x6be.7 (8)
0x6b0|                                             00|               .|      [73]: "1982-09-26T01:00:00Z" (401850000) transition_time 0x6bf-0x6c6.7 (8)
0x6c0|00 00 00 17 f3 be 90                           |.......         |
0x6c0|                     00 00 00 00 18 e3 af 90   |       ........ |      [74]: "1983-03-27T01:00:00Z" (417574800) transition_time 0x6c7-0x6ce.7 (8)
0x6c0|                                             00|               .|      [75]: "1983-09-25T01:00:00Z" (433299600) transition_time 0x6cf-0x6d6.7 (8)
0x6d0|00 00 00 19 d3 a0 90                           |.......         |
0x6d0|                     00 00 00 00 1a c3 91 90   |       ........ |      [76]: "1984-03-25T01:00:00Z" (449024400) transition_time 0x6d7-0x6de.7 (8)
0x6d0|                                             00|               .|      [77]: "1984-09-30T01:00:00Z" (465354000) transition_time 0x6df-0x6e6.7 (8)
0x6e0|00 00 00 1b bc bd 10                           |.......         |
0x6e0|                     00 00 00 00 1c ac ae 10   |       ........ |      [78]: "1985-03-31T01:00:00Z" (481078800) transition_time 0x6e7-0x6ee.7 (8)
0x6e0|                                             00|               .|      [79]: "1985-09-29T01:00:00Z" (496803600) transition_time 0x6ef-0x6f6.7 (8)
0x6f0|00 00 00 1d 9c 9f 10                           |.......         |
0x6f0|                     00 00 00 00 1e 8c 90 10   |       ........ |      [80]: "1986-03-30T01:00:00Z" (512528400) transition_time 0x6f7-0x6fe.7 (8)
0x6f0|                                             00|               .|      [81]: "1986-09-28T01:00:00Z" (528253200) transition_time 0x6ff-0x706.7 (8)
0x700|00 00 00 1f 7c 81 10                           |....|..         |
0x700|                     00 00 00 00 20 6c 72 10   |       .... lr. |      [82]: "1987-03-29T01:00:00Z" (543978000) transition_time 0x707-0x70e.7 (8)
0x700|                                             00|               .|      [83]: "1987-09-27T01:00:00Z" (559702800) transition_time 0x70f-0x716.7 (8)
0x710|00 00 00 21 5c 63 10                           |...!\c.         |
0x710|                     00 00 00 00 22 4c 54 10   |       ...."LT. |      [84]: "1988-03-27T01:00:00Z" (575427600) transition_time 0x717-0x71e.7 (8)
0x710|                                             00|               .|      [85]: "1988-09-25T01:00:00Z" (591152400) transition_time 0x71f-0x726.7 (8)
0x720|00 00 00 23 3c 45 10                           |...#<E.         |
0x720|                     00 00 00 00 24 2c 36 10   |       ....$,6. |      [86]: "1989-03-26T01:00:00Z" (606877200) transition_time 0x727-0x72e.7 (8)
0x720|                                             00|               .|      [87]: "1989-09-24T01:00:00Z" (622602000) transition_time 0x72f-0x736.7 (8)
0x730|00 00 00 25 1c 27 10                           |...%.'.         |
0x730|                     00 00 00 00 26 0c 18 10   |       ....&... |      [88]: "1990-03-25T01:00:00Z" (638326800) transition_time 0x737-0x73e.7 (8)
0x730|                                             00|               .|      [89]: "1990-09-30T01:00:00Z" (654656400) transition_time 0x73f-0x746.7 (8)
0x740|00 00 00 27 05 43 90                           |...'.C.         |
0x740|                     00 00 00 00 27 f5 34 90   |       ....'.4. |      [90]: "1991-03-31T01:00:00Z" (670381200) transition_time 0x747-0x74e.7 (8)
0x740|                                             00|               .|      [91]: "1991-09-29T01:00:00Z" (686106000) transition_time 0x74f-0x756.7 (8)
0x750|00 00 00 28 e5 25 90                           |...(.%.         |
0x750|                     00 00 00 00 29 d5 16 90   |       ....)... |      [92]: "1992-03-29T01:00:00Z" (701830800) transition_time 0x757-0x75e.7 (8)
0x750|                                             00|               .|      [93]: "1992-09-27T01:00:00Z" (717555600) transition_time 0x75f-0x766.7 (8)
0x760|00 00 00 2a c5 07 90                           |...*...         |
0x760|                     00 00 00 00 2b b4 f8 90   |       ....+... |      [94]: "1993-03-28T01:00:00Z" (733280400) transition_time 0x767-0x76e.7 (8)
0x760|                                             00|               .|      [95]: "1993-09-26T01:00:00Z" (749005200) transition_time 0x76f-0x776.7 (8)
0x770|00 00 00 2c a4 e9 90                           |...,...         |
0x770|                     00 00 00 00 2d 94 da 90   |       ....-... |      [96]: "1994-03-27T01:00:00Z" (764730000) transition_time 0x777-0x77e.7 (8)
0x770|                                             00|               .|      [97]: "1994-09-25T01:00:00Z" (780454800) transition_time 0x77f-0x786.7 (8)
0x780|00 00 00 2e 84 cb 90                           |.......         |
0x780|                     00 00 00 00 2f 74 bc 90   |       ..../t.. |      [98]: "1995-03-26T01:00:00Z" (796179600) transition_time 0x787-0x78e.7 (8)
0x780|                                             00|               .|      [99]: "1995-09-24T01:00:00Z" (811904400) transition_time 0x78f-0x796.7 (8)
0x790|00 00 00 30 64 ad 90                           |...0d..         |
0x790|                     00 00 00 00 31 5d d9 10   |       ....1].. |      [100]: "1996-03-31T01:00:00Z" (828234000) transition_time 0x797-0x79e.7 (8)
0x790|                                             00|               .|      [101]: "1996-10-27T01:00:00Z" (846378000) transition_time 0x79f-0x7a6.7 (8)
0x7a0|00 00 00 32 72 b4 10                           |...2r..         |
0x7a0|                     00 00 00 00 33 3d bb 10   |       ....3=.. |      [102]: "1997-03-30T01:00:00Z" (859683600) transition_time 0x7a7-0x7ae.7 (8)
0x7a0|                                             00|               .|      [103]: "1997-10-26T01:00:00Z" (877827600) transition_time 0x7af-0x7b6.7 (8)
0x7b0|00 00 00 34 52 96 10                           |...4R..         |
0x7b0|                     00 00 00 00 35 1d 9d 10   |       ....5... |      [104]: "1998-03-29T01:00:00Z" (891133200) transition_time 0x7b7-0x7be.7 (8)
0x7b0|                                             00|               .|      [105]: "1998-10-25T01:00:00Z" (909277200) transition_time 0x7bf-0x7c6.7 (8)
0x7c0|00 00 00 36 32 78 10                           |...62x.         |
0x7c0|                     00 00 00 00 36 fd 7f 10   |       ....6... |      [106]: "1999-03-28T01:00:00Z" (922582800) transition_time 0x7c7-0x7ce.7 (8)
0x7c0|                                             00|               .|      [107]: "1999-10-31T01:00:00Z" (941331600) transition_time 0x7cf-0x7d6.7 (8)
0x7d0|00 00 00 38 1b 94 90                           |...8...         |
0x7d0|                     00 00 00 00 38 dd 61 10   |       ....8.a. |      [108]: "2000-03-26T01:00:00Z" (954032400) transition_time 0x7d7-0x7de.7 (8)
0x7d0|                                             00|               .|      [109]: "2000-10-29T01:00:00Z" (972781200) transition_time 0x7df-0x7e6.7 (8)
0x7e0|00 00 00 39 fb 76 90                           |...9.v.         |
0x7e0|                     00 00 00 00 3a bd 43 10   |       ....:.C. |      [110]: "2001-03-25T01:00:00Z" (985482000) transition_time 0x7e7-0x7ee.7 (8)
0x7e0|                                             00|               .|      [111]: "2001-10-28T01:00:00Z" (1004230800) transition_time 0x7ef-0x7f6.7 (8)
0x7f0|00 00 00 3b db 58 90                           |...;.X.         |
0x7f0|                     00 00 00 00 3c a6 5f 90   |       ....<._. |      [112]: "2002-03-31T01:00:00Z" (1017536400) transition_time 0x7f7-0x7fe.7 (8)
0x7f0|                                             00|               .|      [113]: "2002-10-27T01:00:00Z" (1035680400) transition_time 0x7ff-0x806.7 (8)
0x800|00 00 00 3d bb 3a 90                           |...=.:.         |
0x800|                     00 00 00 00 3e 86 41 90   |       ....>.A. |      [114]: "2003-03-30T01:00:00Z" (1048986000) transition_time 0x807-0x80e.7 (8)
0x800|                                             00|               .|      [115]: "2003-10-26T01:00:00Z" (1067130000) transition_time 0x80f-0x816.7 (8)
0x810|00 00 00 3f 9b 1c 90                           |...?...         |
0x810|                     00 00 00 00 40 66 23 90   |       ....@f#. |      [116]: "2004-03-28T01:00:00Z" (1080435600) transition_time 0x817-0x81e.7 (8)
0x810|                                             00|               .|      [117]: "2004-10-31T01:00:00Z" (1099184400) transition_time 0x81f-0x826.7 (8)
0x820|00 00 00 41 84 39 10                           |...A.9.         |
0x820|                     00 00 00 00 42 46 05 90   |       ....BF.. |      [118]: "2005-03-27T01:00:00Z" (1111885200) transition_time 0x827-0x82e.7 (8)
0x820|                                             00|               .|      [119]: "2005-10-30T01:00:00Z" (1130634000) transition_time 0x82f-0x836.7 (8)
0x830|00 00 00 43 64 1b 10                           |...Cd..         |
0x830|                     00 00 00 00 44 25 e7 90   |       ....D%.. |      [120]: "2006-03-26T01:00:00Z" (1143334800) transition_time 0x837-0x83e.7 (8)
0x830|                                             00|               .|      [121]: "2006-10-29T01:00:00Z" (1162083600) transition_time 0x83f-0x846.7 (8)
0x840|00 00 00 45 43 fd 10                           |...EC..         |
0x840|                     00 00 00 00 46 05 c9 90   |       ....F... |      [122]: "2007-03-25T01:00:00Z" (1174784400) transition_time 0x847-0x84e.7 (8)
0x840|                                             00|               .|      [123]: "2007-10-28T01:00:00Z" (1193533200) transition_time 0x84f-0x856.7 (8)
0x850|00 00 00 47 23 df 10                           |...G#..         |
0x850|                     00 00 00 00 47 ee e6 10   |       ....G... |      [124]: "2008-03-30T01:00:00Z" (1206838800) transition_time 0x857-0x85e.7 (8)
0x850|                                             00|               .|      [125]: "2008-10-26T01:00:00Z" (1224982800) transition_time 0x85f-0x866.7 (8)
0x860|00 00 00 49 03 c1 10                           |...I...         |
0x860|                     00 00 00 00 49 ce c8 10   |       ....I... |      [126]: "2009-03-29T01:00:00Z" (1238288400) transition_time 0x867-0x86e.7 (8)
0x860|                                             00|               .|      [127]: "2009-10-25T01:00:00Z" (1256432400) transition_time 0x86f-0x876.7 (8)
0x870|00 00 00 4a e3 a3 10                           |...J...         |
0x870|                     00 00 00 00 4b ae aa 10   |       ....K... |      [128]: "2010-03-28T01:00:00Z" (1269738000) transition_time 0x877-0x87e.7 (8)
0x870|                                             00|               .|      [129]: "2010-10-31T01:00:00Z" (1288486800) transition_time 0x87f-0x886.7 (8)
0x880|00 00 00 4c cc bf 90                           |...L...         |
0x880|                     00 00 00 00 4d 8e 8c 10   |       ....M... |      [130]: "2011-03-27T01:00:00Z" (1301187600) transition_time 0x887-0x88e.7 (8)
0x880|                                             00|               .|      [131]: "2011-10-30T01:00:00Z" (1319936400) transition_time 0x88f-0x896.7 (8)
0x890|00 00 00 4e ac a1 90                           |...N...         |
0x890|                     00 00 00 00 4f 6e 6e 10   |       ....Onn. |      [132]: "2012-03-25T01:00:00Z" (1332637200) transition_time 0x897-0x89e.7 (8)
0x890|                                             00|               .|      [133]: "2012-10-28T01:00:00Z" (1351386000) transition_time 0x89f-0x8a6.7 (8)
0x8a0|00 00 00 50 8c 83 90                           |...P...         |
0x8a0|                     00 00 00 00 51 57 8a 90   |       ....QW.. |      [134]: "2013-03-31T01:00:00Z" (1364691600) transition_time 0x8a7-0x8ae.7 (8)
0x8a0|                                             00|               .|      [135]: "2013-10-27T01:00:00Z" (1382835600) transition_time 0x8af-0x8b6.7 (8)
0x8b0|00 00 00 52 6c 65 90                           |...Rle.         |
0x8b0|                     00 00 00 00 53 37 6c 90   |       ....S7l. |      [136]: "2014-03-30T01:00:00Z" (1396141200) transition_time 0x8b7-0x8be.7 (8)
0x8b0|                                             00|               .|      [137]: "2014-10-26T01:00:00Z" (1414285200) transition_time 0x8bf-0x8c6.7 (8)
0x8c0|00 00 00 54 4c 47 90                           |...TLG.         |
0x8c0|                     00 00 00 00 55 17 4e 90   |       ....U.N. |      [138]: "2015-03-29T01:00:00Z" (1427590800) transition_time 0x8c7-0x8ce.7 (8)
0x8c0|                                             00|               .|      [139]: "2015-10-25T01:00:00Z" (1445734800) transition_time 0x8cf-0x8d6.7 (8)
0x8d0|00 00 00 56 2c 29 90                           |...V,).         |
0x8d0|                     00 00 00 00 56 f7 30 90   |       ....V.0. |      [140]: "2016-03-27T01:00:00Z" (1459040400) transition_time 0x8d7-0x8de.7 (8)
0x8d0|                                             00|               .|      [141]: "2016-10-30T01:00:00Z" (1477789200) transition_time 0x8df-0x8e6.7 (8)
0x8e0|00 00 00 58 15 46 10                           |...X.F.         |
0x8e0|                     00 00 00 00 58 d7 12 90   |       ....X... |      [142]: "2017-03-26T01:00:00Z" (1490490000) transition_time 0x8e7-0x8ee.7 (8)
0x8e0|                                             00|               .|      [143]: "2017-10-29T01:00:00Z" (1509238800) transition_time 0x8ef-0x8f6.7 (8)
0x8f0|00 00 00 59 f5 28 10                           |...Y.(.         |
0x8f0|                     00 00 00 00 5a b6 f4 90   |       ....Z... |      [144]: "2018-03-25T01:00:00Z" (1521939600) transition_time 0x8f7-0x8fe.7 (8)
0x8f0|                                             00|               .|      [145]: "2018-10-28T01:00:00Z" (1540688400) transition_time 0x8ff-0x906.7 (8)
0x900|00 00 00 5b d5 0a 10                           |...[...         |
0x900|                     00 00 00 00 5c a0 11 10   |       ....\... |      [146]: "2019-03-31T01:00:00Z" (1553994000) transition_time 0x907-0x90e.7 (8)
0x900|                                             00|               .|      [147]: "2019-10-27T01:00:00Z" (1572138000) transition_time 0x90f-0x916.7 (8)
0x910|00 00 00 5d b4 ec 10                           |...]...         |
0x910|                     00 00 00 00 5e 7f f3 10   |       ....^... |      [148]: "2020-03-29T01:00:00Z" (1585443600) transition_time 0x917-0x91e.7 (8)
0x910|                                             00|               .|      [149]: "2020-10-25T01:00:00Z" (1603587600) transition_time 0x91f-0x926.7 (8)
0x920|00 00 00 5f 94 ce 10                           |..._...         |
0x920|                     00 00 00 00 60 5f d5 10   |       ....`_.. |      [150]: "2021-03-28T01:00:00Z" (1616893200) transition_time 0x927-0x92e.7 (8)
0x920|                                             00|               .|      [151]: "2021-10-31T01:00:00Z" (1635642000) transition_time 0x92f-0x936.7 (8)
0x930|00 00 00 61 7d ea 90                           |...a}..         |
0x930|                     00 00 00 00 62 3f b7 10   |       ....b?.. |      [152]: "2022-03-27T01:00:00Z" (1648342800) transition_time 0x937-0x93e.7 (8)
0x930|                                             00|               .|      [153]: "2022-10-30T01:00:00Z" (1667091600) transition_time 0x93f-0x946.7 (8)
0x940|00 00 00 63 5d cc 90                           |...c]..         |
0x940|                     00 00 00 00 64 1f 99 10   |       ....d... |      [154]: "2023-03-26T01:00:00Z" (1679792400) transition_time 0x947-0x94e.7 (8)
0x940|                                             00|               .|      [155]: "2023-10-29T01:00:00Z" (1698541200) transition_time 0x94f-0x956.7 (8)
0x950|00 00 00 65 3d ae 90                           |...e=..         |
0x950|                     00 00 00 00 66 08 b5 90   |       ....f... |      [156]: "2024-03-31T01:00:00Z" (1711846800) transition_time 0x957-0x95e.7 (8)
0x950|                                             00|               .|      [157]: "2024-10-27T01:00:00Z" (1729990800) transition_time 0x95f-0x966.7 (8)
0x960|00 00 00 67 1d 90 90                           |...g...         |
0x960|                     00 00 00 00 67 e8 97 90   |       ....g... |      [158]: "2025-03-30T01:00:00Z" (1743296400) transition_time 0x967-0x96e.7 (8)
0x960|                                             00|               .|      [159]: "2025-10-26T01:00:00Z" (1761440400) transition_time 0x96f-0x976.7 (8)
0x970|00 00 00 68 fd 72 90                           |...h.r.         |
0x970|                     00 00 00 00 69 c8 79 90   |       ....i.y. |      [160]: "2026-03-29T01:00:00Z" (1774746000) transition_time 0x977-0x97e.7 (8)
0x970|                                             00|               .|      [161]: "2026-10-25T01:00:00Z" (1792890000) transition_time 0x97f-0x986.7 (8)
0x980|00 00 00 6a dd 54 90                           |...j.T.         |
0x980|                     00 00 00 00 6b a8 5b 90   |       ....k.[. |      [162]: "2027-03-28T01:00:00Z" (1806195600) transition_time 0x987-0x98e.7 (8)
0x980|                                             00|               .|      [163]: "2027-10-31T01:00:00Z" (1824944400) transition_time 0x98f-0x996.7 (8)
0x990|00 00 00 6c c6 71 10                           |...l.q.         |
0x990|                     00 00 00 00 6d 88 3d 90   |       ....m.=. |      [164]: "2028-03-26T01:00:00Z" (1837645200) transition_time 0x997-0x99e.7 (8)
0x990|                                             00|               .|      [165]: "2028-10-29T01:00:00Z" (1856394000) transition_time 0x99f-0x9a6.7 (8)
0x9a0|00 00 00 6e a6 53 10                           |...n.S.         |
0x9a0|                     00 00 00 00 6f 68 1f 90   |       ....oh.. |      [166]: "2029-03-25T01:00:00Z" (1869094800) transition_time 0x9a7-0x9ae.7 (8)
0x9a0|                                             00|               .|      [167]: "2029-10-28T01:00:00Z" (1887843600) transition_time 0x9af-0x9b6.7 (8)
0x9b0|00 00 00 70 86 35 10                           |...p.5.         |
0x9b0|                     00 00 00 00 71 51 3c 10   |       ....qQ<. |      [168]: "2030-03-31T01:00:00Z" (1901149200) transition_time 0x9b7-0x9be.7 (8)
0x9b0|                                             00|               .|      [169]: "2030-10-27T01:00:00Z" (1919293200) transition_time 0x9bf-0x9c6.7 (8)
0x9c0|00 00 00 72 66 17 10                           |...rf..         |
0x9c0|                     00 00 00 00 73 31 1e 10   |       ....s1.. |      [170]: "2031-03-30T01:00:00Z" (1932598800) transition_time 0x9c7-0x9ce.7 (8)
0x9c0|                                             00|               .|      [171]: "2031-10-26T01:00:00Z" (1950742800) transition_time 0x9cf-0x9d6.7 (8)
0x9d0|00 00 00 74 45 f9 10                           |...tE..         |
0x9d0|                     00 00 00 00 75 11 00 10   |       ....u... |      [172]: "2032-03-28T01:00:00Z" (1964048400) transition_time 0x9d7-0x9de.7 (8)
0x9d0|                                             00|               .|      [173]: "2032-10-31T01:00:00Z" (1982797200) transition_time 0x9df-0x9e6.7 (8)
0x9e0|00 00 00 76 2f 15 90                           |...v/..         |
0x9e0|                     00 00 00 00 76 f0 e2 10   |       ....v... |      [174]: "2033-03-27T01:00:00Z" (1995498000) transition_time 0x9e7-0x9ee.7 (8)
0x9e0|                                             00|               .|      [175]: "2033-10-30T01:00:00Z" (2014246800) transition_time 0x9ef-0x9f6.7 (8)
0x9f0|00 00 00 78 0e f7 90                           |...x...         |
0x9f0|                     00 00 00 00 78 d0 c4 10   |       ....x... |      [176]: "2034-03-26T01:00:00Z" (2026947600) transition_time 0x9f7-0x9fe.7 (8)
0x9f0|                                             00|               .|      [177]: "2034-10-29T01:00:00Z" (2045696400) transition_time 0x9ff-0xa06.7 (8)
0xa00|00 00 00 79 ee d9 90                           |...y...         |
0xa00|                     00 00 00 00 7a b0 a6 10   |       ....z... |      [178]: "2035-03-25T01:00:00Z" (2058397200) transition_time 0xa07-0xa0e.7 (8)
0xa00|                                             00|               .|      [179]: "2035-10-28T01:00:00Z" (2077146000) transition_time 0xa0f-0xa16.7 (8)
0xa10|00 00 00 7b ce bb 90                           |...{...         |
0xa10|                     00 00 00 00 7c 99 c2 90   |       ....|... |      [180]: "2036-03-30T01:00:00Z" (2090451600) transition_time 0xa17-0xa1e.7 (8)
0xa10|                                             00|               .|      [181]: "2036-10-26T01:00:00Z" (2108595600) transition_time 0xa1f-0xa26.7 (8)
0xa20|00 00 00 7d ae 9d 90                           |...}...         |
0xa20|                     00 00 00 00 7e 79 a4 90   |       ....~y.. |      [182]: "2037-03-29T01:00:00Z" (2121901200) transition_time 0xa27-0xa2e.7 (8)
0xa20|                                             00|               .|      [183]: "2037-10-25T01:00:00Z" (2140045200) transition_time 0xa2f-0xa36.7 (8)
0xa30|00 00 00 7f 8e 7f 90                           |.......         |
     |                                               |                |    transition_types[0:184]: 0xa37-0xaee.7 (184)
0xa30|                     01                        |       .        |      [0]: 1 transition_type 0xa37-0xa37.7 (1)
0xa30|                        05                     |        .       |      [1]: 5 transition_type 0xa38-0xa38.7 (1)
0xa30|                           02                  |         .      |      [2]: 2 transition_type 0xa39-0xa39.7 (1)
0xa30|                              03               |          .     |      [3]: 3 transition_type 0xa3a-0xa3a.7 (1)
0xa30|                                 02            |           .    |      [4]: 2 transition_type 0xa3b-0xa3b.7 (1)
0xa30|                                    03         |            .   |      [5]: 3 transition_type 0xa3c-0xa3c.7 (1)
0xa30|                                       02      |             .  |      [6]: 2 transition_type 0xa3d-0xa3d.7 (1)
0xa30|                                          03   |              . |      [7]: 3 transition_type 0xa3e-0xa3e.7 (1)
0xa30|                                             02|               .|      [8]: 2 transition_type 0xa3f-0xa3f.7 (1)
0xa40|03                                             |.               |      [9]: 3 transition_type 0xa40-0xa40.7 (1)
0xa40|   02                                          | .              |      [10]: 2 transition_type 0xa41-0xa41.7 (1)
0xa40|      03                                       |  .             |      [11]: 3 transition_type 0xa42-0xa42.7 (1)
0xa40|         02                                    |   .            |      [12]: 2 transition_type 0xa43-0xa43.7 (1)
0xa40|            03                                 |    .           |      [13]: 3 transition_type 0xa44-0xa44.7 (1)
0xa40|               02                              |     .          |      [14]: 2 transition_type 0xa45-0xa45.7 (1)
0xa40|                  03                           |      .         |      [15]: 3 transition_type 0xa46-0xa46.7 (1)
0xa40|                     02                        |       .        |      [16]: 2 transition_type 0xa47-0xa47.7 (1)
0xa40|                        03                     |        .       |      [17]: 3 transition_type 0xa48-0xa48.7 (1)
0xa40|                           02                  |         .      |      [18]: 2 transition_type 0xa49-0xa49.7 (1)
0xa40|                              03               |          .     |      [19]: 3 transition_type 0xa4a-0xa4a.7 (1)
0xa40|                                 02            |           .    |      [20]: 2 transition_type 0xa4b-0xa4b.7 (1)
0xa40|                                    03         |            .   |      [21]: 3 transition_type 0xa4c-0xa4c.7 (1)
0xa40|                                       02      |             .  |      [22]: 2 transition_type 0xa4d-0xa4d.7 (1)
0xa40|                                          03   |              . |      [23]: 3 transition_type 0xa4e-0xa4e.7 (1)
0xa40|                                             02|               .|      [24]: 2 transition_type 0xa4f-0xa4f.7 (1)
0xa50|03                                             |.               |      [25]: 3 transition_type 0xa50-0xa50.7 (1)
0xa50|   02                                          | .              |      [26]: 2 transition_type 0xa51-0xa51.7 (1)
0xa50|      03                                       |  .             |      [27]: 3 transition_type 0xa52-0xa52.7 (1)
0xa50|         02                                    |   .            |      [28]: 2 transition_type 0xa53-0xa53.7 (1)
0xa50|            03                                 |    .           |      [29]: 3 transition_type 0xa54-0xa54.7 (1)
0xa50|               02                              |     .          |      [30]: 2 transition_type 0xa55-0xa55.7 (1)
0xa50|                  03                           |      .         |      [31]: 3 transition_type 0xa56-0xa56.7 (1)
0xa50|                     02                        |       .        |      [32]: 2 transition_type 0xa57-0xa57.7 (1)
0xa50|                        03                     |        .       |      [33]: 3 transition_type 0xa58-0xa58.7 (1)
0xa50|                           02                  |         .      |      [34]: 2 transition_type 0xa59-0xa59.7 (1)
0xa50|                              03               |          .     |      [35]: 3 transition_type 0xa5a-0xa5a.7 (1)
0xa50|                                 02            |           .    |      [36]: 2 transition_type 0xa5b-0xa5b.7 (1)
0xa50|                                    03         |            .   |      [37]: 3 transition_type 0xa5c-0xa5c.7 (1)
0xa50|                                       02      |             .  |      [38]: 2 transition_type 0xa5d-0xa5d.7 (1)
0xa50|                                          03   |              . |      [39]: 3 transition_type 0xa5e-0xa5e.7 (1)
0xa50|                                             02|               .|      [40]: 2 transition_type 0xa5f-0xa5f.7 (1)
0xa60|03                                             |.               |      [41]: 3 transition_type 0xa60-0xa60.7 (1)
0xa60|   02                                          | .              |      [42]: 2 transition_type 0xa61-0xa61.7 (1)
0xa60|      03                                       |  .             |      [43]: 3 transition_type 0xa62-0xa62.7 (1)
0xa60|         02                                    |   .            |      [44]: 2 transition_type 0xa63-0xa63.7 (1)
0xa60|            03                                 |    .           |      [45]: 3 transition_type 0xa64-0xa64.7 (1)
0xa60|               02                              |     .          |      [46]: 2 transition_type 0xa65-0xa65.7 (1)
0xa60|                  03                           |      .         |      [47]: 3 transition_type 0xa66-0xa66.7 (1)
0xa60|                     02                        |       .        |      [48]: 2 transition_type 0xa67-0xa67.7 (1)
0xa60|                        03                     |        .       |      [49]: 3 transition_type 0xa68-0xa68.7 (1)
0xa60|                           04                  |         .      |      [50]: 4 transition_type 0xa69-0xa69.7 (1)
0xa60|                              08               |          .     |      [51]: 8 transition_type 0xa6a-0xa6a.7 (1)
0xa60|                                 06            |           .    |      [52]: 6 transition_type 0xa6b-0xa6b.7 (1)
0xa60|                                    07         |            .   |      [53]: 7 transition_type 0xa6c-0xa6c.7 (1)
0xa60|                                       06      |             .  |      [54]: 6 transition_type 0xa6d-0xa6d.7 (1)
0xa60|                                          07   |              . |      [55]: 7 transition_type 0xa6e-0xa6e.7 (1)
0xa60|                                             09|               .|      [56]: 9 transition_type 0xa6f-0xa6f.7 (1)
0xa70|04                                             |.               |      [57]: 4 transition_type 0xa70-0xa70.7 (1)
0xa70|   09                                          | .              |      [58]: 9 transition_type 0xa71-0xa71.7 (1)
0xa70|      0a                                       |  .             |      [59]: 10 transition_type 0xa72-0xa72.7 (1)
0xa70|         08                                    |   .            |      [60]: 8 transition_type 0xa73-0xa73.7 (1)
0xa70|            0a                                 |    .           |      [61]: 10 transition_type 0xa74-0xa74.7 (1)
0xa70|               0b                              |     .          |      [62]: 11 transition_type 0xa75-0xa75.7 (1)
0xa70|                  0c                           |      .         |      [63]: 12 transition_type 0xa76-0xa76.7 (1)
0xa70|                     0b                        |       .        |      [64]: 11 transition_type 0xa77-0xa77.7 (1)
0xa70|                        0c                     |        .       |      [65]: 12 transition_type 0xa78-0xa78.7 (1)
0xa70|                           0b                  |         .      |      [66]: 11 transition_type 0xa79-0xa79.7 (1)
0xa70|                              0c               |          .     |      [67]: 12 transition_type 0xa7a-0xa7a.7 (1)
0xa70|                                 0b            |           .    |      [68]: 11 transition_type 0xa7b-0xa7b.7 (1)
0xa70|                                    0c         |            .   |      [69]: 12 transition_type 0xa7c-0xa7c.7 (1)
0xa70|                                       0b      |             .  |      [70]: 11 transition_type 0xa7d-0xa7d.7 (1)
0xa70|                                          0c   |              . |      [71]: 12 transition_type 0xa7e-0xa7e.7 (1)
0xa70|                                             0b|               .|      [72]: 11 transition_type 0xa7f-0xa7f.7 (1)
0xa80|0c                                             |.               |      [73]: 12 transition_type 0xa80-0xa80.7 (1)
0xa80|   0b                                          | .              |      [74]: 11 transition_type 0xa81-0xa81.7 (1)
0xa80|      0c                                       |  .             |      [75]: 12 transition_type 0xa82-0xa82.7 (1)
0xa80|         0b                                    |   .            |      [76]: 11 transition_type 0xa83-0xa83.7 (1)
0xa80|            0c                                 |    .           |      [77]: 12 transition_type 0xa84-0xa84.7 (1)
0xa80|               0b                              |     .          |      [78]: 11 transition_type 0xa85-0xa85.7 (1)
0xa80|                  0c                           |      .         |      [79]: 12 transition_type 0xa86-0xa86.7 (1)
0xa80|                     0b                        |       .        |      [80]: 11 transition_type 0xa87-0xa87.7 (1)
0xa80|                        0c                     |        .       |      [81]: 12 transition_type 0xa88-0xa88.7 (1)
0xa80|                           0b                  |         .      |      [82]: 11 transition_type 0xa89-0xa89.7 (1)
0xa80|                              0c               |          .     |      [83]: 12 transition_type 0xa8a-0xa8a.7 (1)
0xa80|                                 0b            |           .    |      [84]: 11 transition_type 0xa8b-0xa8b.7 (1)
0xa80|                                    0c         |            .   |      [85]: 12 transition_type 0xa8c-0xa8c.7 (1)
0xa80|                                       0b      |             .  |      [86]: 11 transition_type 0xa8d-0xa8d.7 (1)
0xa80|                                          0c   |              . |      [87]: 12 transition_type 0xa8e-0xa8e.7 (1)
0xa80|                                             0b|               .|      [88]: 11 transition_type 0xa8f-0xa8f.7 (1)
0xa90|0c                                             |.               |      [89]: 12 transition_type 0xa90-0xa90.7 (1)
0xa90|   0b                                          | .              |      [90]: 11 transition_type 0xa91-0xa91.7 (1)
0xa90|      0c                                       |  .             |      [91]: 12 transition_type 0xa92-0xa92.7 (1)
0xa90|         0b                                    |   .            |      [92]: 11 transition_type 0xa93-0xa93.7 (1)
0xa90|            0c                                 |    .           |      [93]: 12 transition_type 0xa94-0xa94.7 (1)
0xa90|               0b                              |     .          |      [94]: 11 transition_type 0xa95-0xa95.7 (1)
0xa90|                  0c                           |      .         |      [95]: 12 transition_type 0xa96-0xa96.7 (1)
0xa90|                     0b                        |       .        |      [96]: 11 transition_type 0xa97-0xa97.7 (1)
0xa90|                        0c                     |        .       |      [97]: 12 transition_type 0xa98-0xa98.7 (1)
0xa90|                           0b                  |         .      |      [98]: 11 transition_type 0xa99-0xa99.7 (1)
0xa90|                              0c               |          .     |      [99]: 12 transition_type 0xa9a-0xa9a.7 (1)
0xa90|                                 0b            |           .    |      [100]: 11 transition_type 0xa9b-0xa9b.7 (1)
0xa90|                                    0c         |            .   |      [101]: 12 transition_type 0xa9c-0xa9c.7 (1)
0xa90|                                       0b      |             .  |      [102]: 11 transition_type 0xa9d-0xa9d.7 (1)
0xa90|                                          0c   |              . |      [103]: 12 transition_type 0xa9e-0xa9e.7 (1)
0xa90|                                             0b|               .|      [104]: 11 transition_type 0xa9f-0xa9f.7 (1)
0xaa0|0c                                             |.               |      [105]: 12 transition_type 0xaa0-0xaa0.7 (1)
0xaa0|   0b                                          | .              |      [106]: 11 transition_type 0xaa1-0xaa1.7 (1)
0xaa0|      0c                                       |  .             |      [107]: 12 transition_type 0xaa2-0xaa2.7 (1)
0xaa0|         0b                                    |   .            |      [108]: 11 transition_type 0xaa3-0xaa3.7 (1)
0xaa0|            0c                                 |    .           |      [109]: 12 transition_type 0xaa4-0xaa4.7 (1)
0xaa0|               0b                              |     .          |      [110]: 11 transition_type 0xaa5-0xaa5.7 (1)
0xaa0|                  0c                           |      .         |      [111]: 12 transition_type 0xaa6-0xaa6.7 (1)
0xaa0|                     0b                        |       .        |      [112]: 11 transition_type 0xaa7-0xaa7.7 (1)
0xaa0|                        0c                     |        .       |      [113]: 12 transition_type 0xaa8-0xaa8.7 (1)
0xaa0|                           0b                  |         .      |      [114]: 11 transition_type 0xaa9-0xaa9.7 (1)
0xaa0|                              0c               |          .     |      [115]: 12 transition_type 0xaaa-0xaaa.7 (1)
0xaa0|                                 0b            |           .    |      [116]: 11 transition_type 0xaab-0xaab.7 (1)
0xaa0|                                    0c         |            .   |      [117]: 12 transition_type 0xaac-0xaac.7 (1)
0xaa0|                                       0b      |             .  |      [118]: 11 transition_type 0xaad-0xaad.7 (1)
0xaa0|                                          0c   |              . |      [119]: 12 transition_type 0xaae-0xaae.7 (1)
0xaa0|                                             0b|               .|      [120]: 11 transition_type 0xaaf-0xaaf.7 (1)
0xab0|0c                                             |.               |      [121]: 12 transition_type 0xab0-0xab0.7 (1)
0xab0|   0b                                          | .              |      [122]: 11 transition_type 0xab1-0xab1.7 (1)
0xab0|      0c                                       |  .             |      [123]: 12 transition_type 0xab2-0xab2.7 (1)
0xab0|         0b                                    |   .            |      [124]: 11 transition_type 0xab3-0xab3.7 (1)
0xab0|            0c                                 |    .           |      [125]: 12 transition_type 0xab4-0xab4.7 (1)
0xab0|               0b                              |     .          |      [126]: 11 transition_type 0xab5-0xab5.7 (1)
0xab0|                  0c                           |      .         |      [127]: 12 transition_type 0xab6-0xab6.7 (1)
0xab0|                     0b                        |       .        |      [128]: 11 transition_type 0xab7-0xab7.7 (1)
0xab0|                        0c                     |        .       |      [129]: 12 transition_type 0xab8-0xab8.7 (1)
0xab0|                           0b                  |         .      |      [130]: 11 transition_type 0xab9-0xab9.7 (1)
0xab0|                              0c               |          .     |      [131]: 12 transition_type 0xaba-0xaba.7 (1)
0xab0|                                 0b            |           .    |      [132]: 11 transition_type 0xabb-0xabb.7 (1)
0xab0|                                    0c         |            .   |      [133]: 12 transition_type 0xabc-0xabc.7 (1)
0xab0|                                       0b      |             .  |      [134]: 11 transition_type 0xabd-0xabd.7 (1)
0xab0|                                          0c   |              . |      [135]: 12 transition_type 0xabe-0xabe.7 (1)
0xab0|                                             0b|               .|      [136]: 11 transition_type 0xabf-0xabf.7 (1)
0xac0|0c                                             |.               |      [137]: 12 transition_type 0xac0-0xac0.7 (1)
0xac0|   0b                                          | .              |      [138]: 11 transition_type 0xac1-0xac1.7 (1)
0xac0|      0c                                       |  .             |      [139]: 12 transition_type 0xac2-0xac2.7 (1)
0xac0|         0b                                    |   .            |      [140]: 11 transition_type 0xac3-0xac3.7 (1)
0xac0|            0c                                 |    .           |      [141]: 12 transition_type 0xac4-0xac4.7 (1)
0xac0|               0b                              |     .          |      [142]: 11 transition_type 0xac5-0xac5.7 (1)
0xac0|                  0c                           |      .         |      [143]: 12 transition_type 0xac6-0xac6.7 (1)
0xac0|                     0b                        |       .        |      [144]: 11 transition_type 0xac7-0xac7.7 (1)
0xac0|                        0c                     |        .       |      [145]: 12 transition_type 0xac8-0xac8.7 (1)
0xac0|                           0b                  |         .      |      [146]: 11 transition_type 0xac9-0xac9.7 (1)
0xac0|                              0c               |          .     |      [147]: 12 transition_type 0xaca-0xaca.7 (1)
0xac0|                                 0b            |           .    |      [148]: 11 transition_type 0xacb-0xacb.7 (1)
0xac0|                                    0c         |            .   |      [149]: 12 transition_type 0xacc-0xacc.7 (1)
0xac0|                                       0b      |             .  |      [150]: 11 transition_type 0xacd-0xacd.7 (1)
0xac0|                                          0c   |              . |      [151]: 12 transition_type 0xace-0xace.7 (1)
0xac0|                                             0b|               .|      [152]: 11 transition_type 0xacf-0xacf.7 (1)
0xad0|0c                                             |.               |      [153]: 12 transition_type 0xad0-0xad0.7 (1)
0xad0|   0b                                          | .              |      [154]: 11 transition_type 0xad1-0xad1.7 (1)
0xad0|      0c                                       |  .             |      [155]: 12 transition_type 0xad2-0xad2.7 (1)
0xad0|         0b                                    |   .            |      [156]: 11 transition_type 0xad3-0xad3.7 (1)
0xad0|            0c                                 |    .           |      [157]: 12 transition_type 0xad4-0xad4.7 (1)
0xad0|               0b                              |     .          |      [158]: 11 transition_type 0xad5-0xad5.7 (1)
0xad0|                  0c                           |      .         |      [159]: 12 transition_type 0xad6-0xad6.7 (1)
0xad0|                     0b                        |       .        |      [160]: 11 transition_type 0xad7-0xad7.7 (1)
0xad0|                        0c                     |        .       |      [161]: 12 transition_type 0xad8-0xad8.7 (1)
0xad0|                           0b                  |         .      |      [162]: 11 transition_type 0xad9-0xad9.7 (1)
0xad0|                              0c               |          .     |      [163]: 12 transition_type 0xada-0xada.7 (1)
0xad0|                                 0b            |           .    |      [164]: 11 transition_type 0xadb-0xadb.7 (1)
0xad0|                                    0c         |            .   |      [165]: 12 transition_type 0xadc-0xadc.7 (1)
0xad0|                                       0b      |             .  |      [166]: 11 transition_type 0xadd-0xadd.7 (1)
0xad0|                                          0c   |              . |      [167]: 12 transition_type 0xade-0xade.7 (1)
0xad0|                                             0b|               .|      [168]: 11 transition_type 0xadf-0xadf.7 (1)
0xae0|0c                                             |.               |      [169]: 12 transition_type 0xae0-0xae0.7 (1)
0xae0|   0b                                          | .              |      [170]: 11 transition_type 0xae1-0xae1.7 (1)
0xae0|      0c                                       |  .             |      [171]: 12 transition_type 0xae2-0xae2.7 (1)
0xae0|         0b                                    |   .            |      [172]: 11 transition_type 0xae3-0xae3.7 (1)
0xae0|            0c                                 |    .           |      [173]: 12 transition_type 0xae4-0xae4.7 (1)
0xae0|               0b                              |     .          |      [174]: 11 transition_type 0xae5-0xae5.7 (1)
0xae0|                  0c                           |      .         |      [175]: 12 transition_type 0xae6-0xae6.7 (1)
0xae0|                     0b                        |       .        |      [176]: 11 transition_type 0xae7-0xae7.7 (1)
0xae0|                        0c                     |        .       |      [177]: 12 transition_type 0xae8-0xae8.7 (1)
0xae0|                           0b                  |         .      |      [178]: 11 transition_type 0xae9-0xae9.7 (1)
0xae0|                              0c               |          .     |      [179]: 12 transition_type 0xaea-0xaea.7 (1)
0xae0|                                 0b            |           .    |      [180]: 11 transition_type 0xaeb-0xaeb.7 (1)
0xae0|                                    0c         |            .   |      [181]: 12 transition_type 0xaec-0xaec.7 (1)
0xae0|                                       0b      |             .  |      [182]: 11 transition_type 0xaed-0xaed.7 (1)
0xae0|                                          0c   |              . |      [183]: 12 transition_type 0xaee-0xaee.7 (1)
     |                                               |                |    local_time_type_records[0:13]: 0xaef-0xb3c.7 (78)
     |                                               |                |      [0]{}: local_time_type 0xaef-0xaf4.7 (6)
0xae0|                                             00|               .|        utoff: 561 (valid) 0xaef-0xaf2.7 (4)
0xaf0|00 02 31                                       |..1             |
0xaf0|         00                                    |   .            |        dst: 0 (valid) 0xaf3-0xaf3.7 (1)
0xaf0|            00                                 |    .           |        idx: 0 (valid) 0xaf4-0xaf4.7 (1)
     |                                               |                |      [1]{}: local_time_type 0xaf5-0xafa.7 (6)
0xaf0|               00 00 02 31                     |     ...1       |        utoff: 561 (valid) 0xaf5-0xaf8.7 (4)
0xaf0|                           00                  |         .      |        dst: 0 (valid) 0xaf9-0xaf9.7 (1)
0xaf0|                              04               |          .     |        idx: 4 (valid) 0xafa-0xafa.7 (1)
     |                                               |                |      [2]{}: local_time_type 0xafb-0xb00.7 (6)
0xaf0|                                 00 00 0e 10   |           .... |        utoff: 3600 (valid) 0xafb-0xafe.7 (4)
0xaf0|                                             01|               .|        dst: 1 (valid) 0xaff-0xaff.7 (1)
0xb00|08                                             |.               |        idx: 8 (valid) 0xb00-0xb00.7 (1)
     |                                               |                |      [3]{}: local_time_type 0xb01-0xb06.7 (6)
0xb00|   00 00 00 00                                 | ....           |        utoff: 0 (valid) 0xb01-0xb04.7 (4)
0xb00|               00                              |     .          |        dst: 0 (valid) 0xb05-0xb05.7 (1)
0xb00|                  0d                           |      .         |        idx: 13 (valid) 0xb06-0xb06.7 (1)
     |                                               |                |      [4]{}: local_time_type 0xb07-0xb0c.7 (6)
0xb00|                     00 00 0e 10               |       ....     |        utoff: 3600 (valid) 0xb07-0xb0a.7 (4)
0xb00|                                 01            |           .    |        dst: 1 (valid) 0xb0b-0xb0b.7 (1)
0xb00|                                    08         |            .   |        idx: 8 (valid) 0xb0c-0xb0c.7 (1)
     |                                               |                |      [5]{}: local_time_type 0xb0d-0xb12.7 (6)
0xb00|                                       00 00 00|             ...|        utoff: 0 (valid) 0xb0d-0xb10.7 (4)
0xb10|00                                             |.               |
0xb10|   00                                          | .              |        dst: 0 (valid) 0xb11-0xb11.7 (1)
0xb10|      0d                                       |  .             |        idx: 13 (valid) 0xb12-0xb12.7 (1)
     |                                               |                |      [6]{}: local_time_type 0xb13-0xb18.7 (6)
0xb10|         00 00 0e 10                           |   ....         |        utoff: 3600 (valid) 0xb13-0xb16.7 (4)
0xb10|                     00                        |       .        |        dst: 0 (valid) 0xb17-0xb17.7 (1)
0xb10|                        11                     |        .       |        idx: 17 (valid) 0xb18-0xb18.7 (1)
     |                                               |                |      [7]{}: local_time_type 0xb19-0xb1e.7 (6)
0xb10|                           00 00 1c 20         |         ...    |        utoff: 7200 (valid) 0xb19-0xb1c.7 (4)
0xb10|                                       01      |             .  |        dst: 1 (valid) 0xb1d-0xb1d.7 (1)
0xb10|                                          15   |              . |        idx: 21 (valid) 0xb1e-0xb1e.7 (1)
     |                                               |                |      [8]{}: local_time_type 0xb1f-0xb24.7 (6)
0xb10|                                             00|               .|        utoff: 7200 (valid) 0xb1f-0xb22.7 (4)
0xb20|00 1c 20                                       |..              |
0xb20|         01                                    |   .            |        dst: 1 (valid) 0xb23-0xb23.7 (1)
0xb20|            15                                 |    .           |        idx: 21 (valid) 0xb24-0xb24.7 (1)
     |                                               |                |      [9]{}: local_time_type 0xb25-0xb2a.7 (6)
0xb20|               00 00 1c 20                     |     ...        |        utoff: 7200 (valid) 0xb25-0xb28.7 (4)
0xb20|                           01                  |         .      |        dst: 1 (valid) 0xb29-0xb29.7 (1)
0xb20|                              1a               |          .     |        idx: 26 (valid) 0xb2a-0xb2a.7 (1)
     |                                               |                |      [10]{}: local_time_type 0xb2b-0xb30.7 (6)
0xb20|                                 00 00 0e 10   |           .... |        utoff: 3600 (valid) 0xb2b-0xb2e.7 (4)
0xb20|                                             00|               .|        dst: 0 (valid) 0xb2f-0xb2f.7 (1)
0xb30|11                                             |.               |        idx: 17 (valid) 0xb30-0xb30.7 (1)
     |                                               |                |      [11]{}: local_time_type 0xb31-0xb36.7 (6)
0xb30|   00 00 1c 20                                 | ...            |        utoff: 7200 (valid) 0xb31-0xb34.7 (4)
0xb30|               01                              |     .          |        dst: 1 (valid) 0xb35-0xb35.7 (1)
0xb30|                  15                           |      .         |        idx: 21 (valid) 0xb36-0xb36.7 (1)
     |                                               |                |      [12]{}: local_time_type 0xb37-0xb3c.7 (6)
0xb30|                     00 00 0e 10               |       ....     |        utoff: 3600 (valid) 0xb37-0xb3a.7 (4)
0xb30|                                 00            |           .    |        dst: 0 (valid) 0xb3b-0xb3b.7 (1)
0xb30|                                    11         |            .   |        idx: 17 (valid) 0xb3c-0xb3c.7 (1)
     |                                               |                |    time_zone_designations[0:7]: 0xb3d-0xb5b.7 (31)
0xb30|                                       4c 4d 54|             LMT|      [0]: "LMT" time_zone_designation 0xb3d-0xb40.7 (4)
0xb40|00                                             |.               |
0xb40|   50 4d 54 00                                 | PMT.           |      [1]: "PMT" time_zone_designation 0xb41-0xb44.7 (4)
0xb40|               57 45 53 54 00                  |     WEST.      |      [2]: "WEST" time_zone_designation 0xb45-0xb49.7 (5)
0xb40|                              57 45 54 00      |          WET.  |      [3]: "WET" time_zone_designation 0xb4a-0xb4d.7 (4)
0xb40|                                          43 45|              CE|      [4]: "CET" time_zone_designation 0xb4e-0xb51.7 (4)
0xb50|54 00                                          |T.              |
0xb50|      43 45 53 54 00                           |  CEST.         |      [5]: "CEST" time_zone_designation 0xb52-0xb56.7 (5)
0xb50|                     57 45 4d 54 00            |       WEMT.    |      [6]: "WEMT" time_zone_designation 0xb57-0xb5b.7 (5)
     |                                               |                |    leap_second_records[0:0]: 0xb5c-NA (0)
     |                                               |                |    standard_wall_indicators[0:13]: 0xb5c-0xb68.7 (13)
0xb50|                                    00         |            .   |      [0]: 0 standard_wall_indicator (valid) 0xb5c-0xb5c.7 (1)
0xb50|                                       00      |             .  |      [1]: 0 standard_wall_indicator (valid) 0xb5d-0xb5d.7 (1)
0xb50|                                          01   |              . |      [2]: 1 standard_wall_indicator (valid) 0xb5e-0xb5e.7 (1)
0xb50|                                             01|               .|      [3]: 1 standard_wall_indicator (valid) 0xb5f-0xb5f.7 (1)
0xb60|00                                             |.               |      [4]: 0 standard_wall_indicator (valid) 0xb60-0xb60.7 (1)
0xb60|   00                                          | .              |      [5]: 0 standard_wall_indicator (valid) 0xb61-0xb61.7 (1)
0xb60|      01                                       |  .             |      [6]: 1 standard_wall_indicator (valid) 0xb62-0xb62.7 (1)
0xb60|         01                                    |   .            |      [7]: 1 standard_wall_indicator (valid) 0xb63-0xb63.7 (1)
0xb60|            00                                 |    .           |      [8]: 0 standard_wall_indicator (valid) 0xb64-0xb64.7 (1)
0xb60|               00                              |     .          |      [9]: 0 standard_wall_indicator (valid) 0xb65-0xb65.7 (1)
0xb60|                  00                           |      .         |      [10]: 0 standard_wall_indicator (valid) 0xb66-0xb66.7 (1)
0xb60|                     01                        |       .        |      [11]: 1 standard_wall_indicator (valid) 0xb67-0xb67.7 (1)
0xb60|                        01                     |        .       |      [12]: 1 standard_wall_indicator (valid) 0xb68-0xb68.7 (1)
     |                                               |                |    ut_local_indicators[0:13]: 0xb69-0xb75.7 (13)
0xb60|                           00                  |         .      |      [0]: 0 ut_local_indicator (valid) 0xb69-0xb69.7 (1)
0xb60|                              00               |          .     |      [1]: 0 ut_local_indicator (valid) 0xb6a-0xb6a.7 (1)
0xb60|                                 00            |           .    |      [2]: 0 ut_local_indicator (valid) 0xb6b-0xb6b.7 (1)
0xb60|                                    00         |            .   |      [3]: 0 ut_local_indicator (valid) 0xb6c-0xb6c.7 (1)
0xb60|                                       00      |             .  |      [4]: 0 ut_local_indicator (valid) 0xb6d-0xb6d.7 (1)
0xb60|                                          00   |              . |      [5]: 0 ut_local_indicator (valid) 0xb6e-0xb6e.7 (1)
0xb60|                                             00|               .|      [6]: 0 ut_local_indicator (valid) 0xb6f-0xb6f.7 (1)
0xb70|00                                             |.               |      [7]: 0 ut_local_indicator (valid) 0xb70-0xb70.7 (1)
0xb70|   00                                          | .              |      [8]: 0 ut_local_indicator (valid) 0xb71-0xb71.7 (1)
0xb70|      00                                       |  .             |      [9]: 0 ut_local_indicator (valid) 0xb72-0xb72.7 (1)
0xb70|         00                                    |   .            |      [10]: 0 ut_local_indicator (valid) 0xb73-0xb73.7 (1)
0xb70|            01                                 |    .           |      [11]: 1 ut_local_indicator (valid) 0xb74-0xb74.7 (1)
0xb70|               01                              |     .          |      [12]: 1 ut_local_indicator (valid) 0xb75-0xb75.7 (1)
     |                                               |                |  footer{}: 0xb76-0xb91.7 (28)
0xb70|                  0a                           |      .         |    nl1: 10 (valid) 0xb76-0xb76.7 (1)
0xb70|                     43 45 54 2d 31 43 45 53 54|       CET-1CEST|    tz_string: "CET-1CEST,M3.5.0,M10.5.0/3" 0xb77-0xb90.7 (26)
0xb80|2c 4d 33 2e 35 2e 30 2c 4d 31 30 2e 35 2e 30 2f|,M3.5.0,M10.5.0/|
0xb90|33                                             |3               |
0xb90|   0a|                                         | .|             |    nl2: 10 (valid) 0xb91-0xb91.7 (1)
