$ fq -d tzif dv Perth
     |00 01 02 03 04 05 06 07 08 09 0a 0b 0c 0d 0e 0f|0123456789abcdef|.{}: Perth (tzif) 0x0-0x1be (446)
     |                                               |                |  v1header{}: 0x0-0x2c (44)
0x000|54 5a 69 66                                    |TZif            |    magic: 0x545a6966 (valid) 0x0-0x4 (4)
0x000|            32                                 |    2           |    ver: "2" (0x32) (valid) 0x4-0x5 (1)
0x000|               00 00 00 00 00 00 00 00 00 00 00|     ...........|    reserved: raw bits 0x5-0x14 (15)
0x010|00 00 00 00                                    |....            |
0x010|            00 00 00 00                        |    ....        |    isutcnt: 0 0x14-0x18 (4)
0x010|                        00 00 00 04            |        ....    |    isstdcnt: 4 0x18-0x1c (4)
0x010|                                    00 00 00 00|            ....|    leapcnt: 0 0x1c-0x20 (4)
0x020|00 00 00 13                                    |....            |    timecnt: 19 0x20-0x24 (4)
0x020|            00 00 00 04                        |    ....        |    typecnt: 4 0x24-0x28 (4)
0x020|                        00 00 00 0e            |        ....    |    charcnt: 14 0x28-0x2c (4)
     |                                               |                |  v1datablock{}: 0x2c-0xb5 (137)
     |                                               |                |    transition_times[0:19]: 0x2c-0x78 (76)
0x020|                                    80 00 00 00|            ....|      [0]: "1901-12-13T20:45:52Z" (-2147483648) transition_time 0x2c-0x30 (4)
0x030|9c 4e de a0                                    |.N..            |      [1]: "1916-12-31T18:00:00Z" (-1672552800) transition_time 0x30-0x34 (4)
0x030|            9c bc 4b 20                        |    ..K         |      [2]: "1917-03-24T18:00:00Z" (-1665381600) transition_time 0x34-0x38 (4)
0x030|                        cb 54 cf 20            |        .T.     |      [3]: "1941-12-31T18:00:00Z" (-883634400) transition_time 0x38-0x3c (4)
0x030|                                    cb c7 81 a0|            ....|      [4]: "1942-03-28T18:00:00Z" (-876117600) transition_time 0x3c-0x40 (4)
0x040|cc b7 72 a0                                    |..r.            |      [5]: "1942-09-26T18:00:00Z" (-860392800) transition_time 0x40-0x44 (4)
0x040|            cd a7 63 a0                        |    ..c.        |      [6]: "1943-03-27T18:00:00Z" (-844668000) transition_time 0x44-0x48 (4)
0x040|                        09 0f fb a0            |        ....    |      [7]: "1974-10-26T18:00:00Z" (152042400) transition_time 0x48-0x4c (4)
0x040|                                    09 b6 18 a0|            ....|      [8]: "1975-03-01T18:00:00Z" (162928800) transition_time 0x4c-0x50 (4)
0x050|1a 01 62 a0                                    |..b.            |      [9]: "1983-10-29T18:00:00Z" (436298400) transition_time 0x50-0x54 (4)
0x050|            1a a7 7f a0                        |    ....        |      [10]: "1984-03-03T18:00:00Z" (447184800) transition_time 0x54-0x58 (4)
0x050|                        29 25 5c a0            |        )%\.    |      [11]: "1991-11-16T18:00:00Z" (690314400) transition_time 0x58-0x5c (4)
0x050|                                    29 af ca 20|            ).. |      [12]: "1992-02-29T18:00:00Z" (699386400) transition_time 0x5c-0x60 (4)
0x060|45 71 bf 20                                    |Eq.             |      [13]: "2006-12-02T18:00:00Z" (1165082400) transition_time 0x60-0x64 (4)
0x060|            46 05 67 20                        |    F.g         |      [14]: "2007-03-24T18:00:00Z" (1174759200) transition_time 0x64-0x68 (4)
0x060|                        47 23 7c a0            |        G#|.    |      [15]: "2007-10-27T18:00:00Z" (1193508000) transition_time 0x68-0x6c (4)
0x060|                                    47 ee 83 a0|            G...|      [16]: "2008-03-29T18:00:00Z" (1206813600) transition_time 0x6c-0x70 (4)
0x070|49 03 5e a0                                    |I.^.            |      [17]: "2008-10-25T18:00:00Z" (1224957600) transition_time 0x70-0x74 (4)
0x070|            49 ce 65 a0                        |    I.e.        |      [18]: "2009-03-28T18:00:00Z" (1238263200) transition_time 0x74-0x78 (4)
     |                                               |                |    transition_types[0:19]: 0x78-0x8b (19)
0x070|                        03                     |        .       |      [0]: 3 transition_type 0x78-0x79 (1)
0x070|                           01                  |         .      |      [1]: 1 transition_type 0x79-0x7a (1)
0x070|                              02               |          .     |      [2]: 2 transition_type 0x7a-0x7b (1)
0x070|                                 01            |           .    |      [3]: 1 transition_type 0x7b-0x7c (1)
0x070|                                    02         |            .   |      [4]: 2 transition_type 0x7c-0x7d (1)
0x070|                                       01      |             .  |      [5]: 1 transition_type 0x7d-0x7e (1)
0x070|                                          02   |              . |      [6]: 2 transition_type 0x7e-0x7f (1)
0x070|                                             01|               .|      [7]: 1 transition_type 0x7f-0x80 (1)
0x080|02                                             |.               |      [8]: 2 transition_type 0x80-0x81 (1)
0x080|   01                                          | .              |      [9]: 1 transition_type 0x81-0x82 (1)
0x080|      02                                       |  .             |      [10]: 2 transition_type 0x82-0x83 (1)
0x080|         01                                    |   .            |      [11]: 1 transition_type 0x83-0x84 (1)
0x080|            02                                 |    .           |      [12]: 2 transition_type 0x84-0x85 (1)
0x080|               01                              |     .          |      [13]: 1 transition_type 0x85-0x86 (1)
0x080|                  02                           |      .         |      [14]: 2 transition_type 0x86-0x87 (1)
0x080|                     01                        |       .        |      [15]: 1 transition_type 0x87-0x88 (1)
0x080|                        02                     |        .       |      [16]: 2 transition_type 0x88-0x89 (1)
0x080|                           01                  |         .      |      [17]: 1 transition_type 0x89-0x8a (1)
0x080|                              02               |          .     |      [18]: 2 transition_type 0x8a-0x8b (1)
     |                                               |                |    local_time_type_records[0:4]: 0x8b-0xa3 (24)
     |                                               |                |      [0]{}: local_time_type 0x8b-0x91 (6)
0x080|                                 00 00 6c 9c   |           ..l. |        utoff: 27804 (valid) 0x8b-0x8f (4)
0x080|                                             00|               .|        dst: 0 (valid) 0x8f-0x90 (1)
0x090|00                                             |.               |        idx: 0 (valid) 0x90-0x91 (1)
     |                                               |                |      [1]{}: local_time_type 0x91-0x97 (6)
0x090|   00 00 7e 90                                 | ..~.           |        utoff: 32400 (valid) 0x91-0x95 (4)
0x090|               01                              |     .          |        dst: 1 (valid) 0x95-0x96 (1)
0x090|                  04                           |      .         |        idx: 4 (valid) 0x96-0x97 (1)
     |                                               |                |      [2]{}: local_time_type 0x97-0x9d (6)
0x090|                     00 00 70 80               |       ..p.     |        utoff: 28800 (valid) 0x97-0x9b (4)
0x090|                                 00            |           .    |        dst: 0 (valid) 0x9b-0x9c (1)
0x090|                                    09         |            .   |        idx: 9 (valid) 0x9c-0x9d (1)
     |                                               |                |      [3]{}: local_time_type 0x9d-0xa3 (6)
0x090|                                       00 00 70|             ..p|        utoff: 28800 (valid) 0x9d-0xa1 (4)
0x0a0|80                                             |.               |
0x0a0|   00                                          | .              |        dst: 0 (valid) 0xa1-0xa2 (1)
0x0a0|      09                                       |  .             |        idx: 9 (valid) 0xa2-0xa3 (1)
     |                                               |                |    time_zone_designations[0:3]: 0xa3-0xb1 (14)
0x0a0|         4c 4d 54 00                           |   LMT.         |      [0]: "LMT" time_zone_designation 0xa3-0xa7 (4)
0x0a0|                     41 57 44 54 00            |       AWDT.    |      [1]: "AWDT" time_zone_designation 0xa7-0xac (5)
0x0a0|                                    41 57 53 54|            AWST|      [2]: "AWST" time_zone_designation 0xac-0xb1 (5)
0x0b0|00                                             |.               |
     |                                               |                |    leap_second_records[0:0]: 0xb1-0xb1 (0)
     |                                               |                |    standard_wall_indicators[0:4]: 0xb1-0xb5 (4)
0x0b0|   00                                          | .              |      [0]: 0 standard_wall_indicator (valid) 0xb1-0xb2 (1)
0x0b0|      01                                       |  .             |      [1]: 1 standard_wall_indicator (valid) 0xb2-0xb3 (1)
0x0b0|         01                                    |   .            |      [2]: 1 standard_wall_indicator (valid) 0xb3-0xb4 (1)
0x0b0|            00                                 |    .           |      [3]: 0 standard_wall_indicator (valid) 0xb4-0xb5 (1)
     |                                               |                |    ut_local_indicators[0:0]: 0xb5-0xb5 (0)
     |                                               |                |  v2plusheader{}: 0xb5-0xe1 (44)
0x0b0|               54 5a 69 66                     |     TZif       |    magic: 0x545a6966 (valid) 0xb5-0xb9 (4)
0x0b0|                           32                  |         2      |    ver: "2" (0x32) (valid) 0xb9-0xba (1)
0x0b0|                              00 00 00 00 00 00|          ......|    reserved: raw bits 0xba-0xc9 (15)
0x0c0|00 00 00 00 00 00 00 00 00                     |.........       |
0x0c0|                           00 00 00 00         |         ....   |    isutcnt: 0 0xc9-0xcd (4)
0x0c0|                                       00 00 00|             ...|    isstdcnt: 4 0xcd-0xd1 (4)
0x0d0|04                                             |.               |
0x0d0|   00 00 00 00                                 | ....           |    leapcnt: 0 0xd1-0xd5 (4)
0x0d0|               00 00 00 13                     |     ....       |    timecnt: 19 0xd5-0xd9 (4)
0x0d0|                           00 00 00 04         |         ....   |    typecnt: 4 0xd9-0xdd (4)
0x0d0|                                       00 00 00|             ...|    charcnt: 14 0xdd-0xe1 (4)
0x0e0|0e                                             |.               |
     |                                               |                |  v2plusdatablock{}: 0xe1-0x1b6 (213)
     |                                               |                |    transition_times[0:19]: 0xe1-0x179 (152)
0x0e0|   ff ff ff ff 74 a6 16 e4                     | ....t...       |      [0]: "1895-11-30T16:16:36Z" (-2337925404) transition_time 0xe1-0xe9 (8)
0x0e0|                           ff ff ff ff 9c 4e de|         .....N.|      [1]: "1916-12-31T18:00:00Z" (-1672552800) transition_time 0xe9-0xf1 (8)
0x0f0|a0                                             |.               |
0x0f0|   ff ff ff ff 9c bc 4b 20                     | ......K        |      [2]: "1917-03-24T18:00:00Z" (-1665381600) transition_time 0xf1-0xf9 (8)
0x0f0|                           ff ff ff ff cb 54 cf|         .....T.|      [3]: "1941-12-31T18:00:00Z" (-883634400) transition_time 0xf9-0x101 (8)
0x100|20                                             |                |
0x100|   ff ff ff ff cb c7 81 a0                     | ........       |      [4]: "1942-03-28T18:00:00Z" (-876117600) transition_time 0x101-0x109 (8)
0x100|                           ff ff ff ff cc b7 72|         ......r|      [5]: "1942-09-26T18:00:00Z" (-860392800) transition_time 0x109-0x111 (8)
0x110|a0                                             |.               |
0x110|   ff ff ff ff cd a7 63 a0                     | ......c.       |      [6]: "1943-03-27T18:00:00Z" (-844668000) transition_time 0x111-0x119 (8)
0x110|                           00 00 00 00 09 0f fb|         .......|      [7]: "1974-10-26T18:00:00Z" (152042400) transition_time 0x119-0x121 (8)
0x120|a0                                             |.               |
0x120|   00 00 00 00 09 b6 18 a0                     | ........       |      [8]: "1975-03-01T18:00:00Z" (162928800) transition_time 0x121-0x129 (8)
0x120|                           00 00 00 00 1a 01 62|         ......b|      [9]: "1983-10-29T18:00:00Z" (436298400) transition_time 0x129-0x131 (8)
0x130|a0                                             |.               |
0x130|   00 00 00 00 1a a7 7f a0                     | ........       |      [10]: "1984-03-03T18:00:00Z" (447184800) transition_time 0x131-0x139 (8)
0x130|                           00 00 00 00 29 25 5c|         ....)%\|      [11]: "1991-11-16T18:00:00Z" (690314400) transition_time 0x139-0x141 (8)
0x140|a0                                             |.               |
0x140|   00 00 00 00 29 af ca 20                     | ....)..        |      [12]: "1992-02-29T18:00:00Z" (699386400) transition_time 0x141-0x149 (8)
0x140|                           00 00 00 00 45 71 bf|         ....Eq.|      [13]: "2006-12-02T18:00:00Z" (1165082400) transition_time 0x149-0x151 (8)
0x150|20                                             |                |
0x150|   00 00 00 00 46 05 67 20                     | ....F.g        |      [14]: "2007-03-24T18:00:00Z" (1174759200) transition_time 0x151-0x159 (8)
0x150|                           00 00 00 00 47 23 7c|         ....G#||      [15]: "2007-10-27T18:00:00Z" (1193508000) transition_time 0x159-0x161 (8)
0x160|a0                                             |.               |
0x160|   00 00 00 00 47 ee 83 a0                     | ....G...       |      [16]: "2008-03-29T18:00:00Z" (1206813600) transition_time 0x161-0x169 (8)
0x160|                           00 00 00 00 49 03 5e|         ....I.^|      [17]: "2008-10-25T18:00:00Z" (1224957600) transition_time 0x169-0x171 (8)
0x170|a0                                             |.               |
0x170|   00 00 00 00 49 ce 65 a0                     | ....I.e.       |      [18]: "2009-03-28T18:00:00Z" (1238263200) transition_time 0x171-0x179 (8)
     |                                               |                |    transition_types[0:19]: 0x179-0x18c (19)
0x170|                           03                  |         .      |      [0]: 3 transition_type 0x179-0x17a (1)
0x170|                              01               |          .     |      [1]: 1 transition_type 0x17a-0x17b (1)
0x170|                                 02            |           .    |      [2]: 2 transition_type 0x17b-0x17c (1)
0x170|                                    01         |            .   |      [3]: 1 transition_type 0x17c-0x17d (1)
0x170|                                       02      |             .  |      [4]: 2 transition_type 0x17d-0x17e (1)
0x170|                                          01   |              . |      [5]: 1 transition_type 0x17e-0x17f (1)
0x170|                                             02|               .|      [6]: 2 transition_type 0x17f-0x180 (1)
0x180|01                                             |.               |      [7]: 1 transition_type 0x180-0x181 (1)
0x180|   02                                          | .              |      [8]: 2 transition_type 0x181-0x182 (1)
0x180|      01                                       |  .             |      [9]: 1 transition_type 0x182-0x183 (1)
0x180|         02                                    |   .            |      [10]: 2 transition_type 0x183-0x184 (1)
0x180|            01                                 |    .           |      [11]: 1 transition_type 0x184-0x185 (1)
0x180|               02                              |     .          |      [12]: 2 transition_type 0x185-0x186 (1)
0x180|                  01                           |      .         |      [13]: 1 transition_type 0x186-0x187 (1)
0x180|                     02                        |       .        |      [14]: 2 transition_type 0x187-0x188 (1)
0x180|                        01                     |        .       |      [15]: 1 transition_type 0x188-0x189 (1)
0x180|                           02                  |         .      |      [16]: 2 transition_type 0x189-0x18a (1)
0x180|                              01               |          .     |      [17]: 1 transition_type 0x18a-0x18b (1)
0x180|                                 02            |           .    |      [18]: 2 transition_type 0x18b-0x18c (1)
     |                                               |                |    local_time_type_records[0:4]: 0x18c-0x1a4 (24)
     |                                               |                |      [0]{}: local_time_type 0x18c-0x192 (6)
0x180|                                    00 00 6c 9c|            ..l.|        utoff: 27804 (valid) 0x18c-0x190 (4)
0x190|00                                             |.               |        dst: 0 (valid) 0x190-0x191 (1)
0x190|   00                                          | .              |        idx: 0 (valid) 0x191-0x192 (1)
     |                                               |                |      [1]{}: local_time_type 0x192-0x198 (6)
0x190|      00 00 7e 90                              |  ..~.          |        utoff: 32400 (valid) 0x192-0x196 (4)
0x190|                  01                           |      .         |        dst: 1 (valid) 0x196-0x197 (1)
0x190|                     04                        |       .        |        idx: 4 (valid) 0x197-0x198 (1)
     |                                               |                |      [2]{}: local_time_type 0x198-0x19e (6)
0x190|                        00 00 70 80            |        ..p.    |        utoff: 28800 (valid) 0x198-0x19c (4)
0x190|                                    00         |            .   |        dst: 0 (valid) 0x19c-0x19d (1)
0x190|                                       09      |             .  |        idx: 9 (valid) 0x19d-0x19e (1)
     |                                               |                |      [3]{}: local_time_type 0x19e-0x1a4 (6)
0x190|                                          00 00|              ..|        utoff: 28800 (valid) 0x19e-0x1a2 (4)
0x1a0|70 80                                          |p.              |
0x1a0|      00                                       |  .             |        dst: 0 (valid) 0x1a2-0x1a3 (1)
0x1a0|         09                                    |   .            |        idx: 9 (valid) 0x1a3-0x1a4 (1)
     |                                               |                |    time_zone_designations[0:3]: 0x1a4-0x1b2 (14)
0x1a0|            4c 4d 54 00                        |    LMT.        |      [0]: "LMT" time_zone_designation 0x1a4-0x1a8 (4)
0x1a0|                        41 57 44 54 00         |        AWDT.   |      [1]: "AWDT" time_zone_designation 0x1a8-0x1ad (5)
0x1a0|                                       41 57 53|             AWS|      [2]: "AWST" time_zone_designation 0x1ad-0x1b2 (5)
0x1b0|54 00                                          |T.              |
     |                                               |                |    leap_second_records[0:0]: 0x1b2-0x1b2 (0)
     |                                               |                |    standard_wall_indicators[0:4]: 0x1b2-0x1b6 (4)
0x1b0|      00                                       |  .             |      [0]: 0 standard_wall_indicator (valid) 0x1b2-0x1b3 (1)
0x1b0|         01                                    |   .            |      [1]: 1 standard_wall_indicator (valid) 0x1b3-0x1b4 (1)
0x1b0|            01                                 |    .           |      [2]: 1 standard_wall_indicator (valid) 0x1b4-0x1b5 (1)
0x1b0|               00                              |     .          |      [3]: 0 standard_wall_indicator (valid) 0x1b5-0x1b6 (1)
     |                                               |                |    ut_local_indicators[0:0]: 0x1b6-0x1b6 (0)
     |                                               |                |  footer{}: 0x1b6-0x1be (8)
0x1b0|                  0a                           |      .         |    nl1: 10 (valid) 0x1b6-0x1b7 (1)
0x1b0|                     41 57 53 54 2d 38         |       AWST-8   |    tz_string: "AWST-8" 0x1b7-0x1bd (6)
0x1b0|                                       0a|     |             .| |    nl2: 10 (valid) 0x1bd-0x1be (1)
