$ fq -d tzif dv Petersburg
     |00 01 02 03 04 05 06 07 08 09 0a 0b 0c 0d 0e 0f|0123456789abcdef|.{}: Petersburg (tzif) 0x0-0x7fd.7 (2046)
     |                                               |                |  v1header{}: 0x0-0x2b.7 (44)
0x000|54 5a 69 66                                    |TZif            |    magic: 0x545a6966 (valid) 0x0-0x3.7 (4)
0x000|            32                                 |    2           |    ver: "2" (0x32) (valid) 0x4-0x4.7 (1)
0x000|               00 00 00 00 00 00 00 00 00 00 00|     ...........|    reserved: raw bits 0x5-0x13.7 (15)
0x010|00 00 00 00                                    |....            |
0x010|            00 00 00 08                        |    ....        |    isutcnt: 8 0x14-0x17.7 (4)
0x010|                        00 00 00 08            |        ....    |    isstdcnt: 8 0x18-0x1b.7 (4)
0x010|                                    00 00 00 1b|            ....|    leapcnt: 27 0x1c-0x1f.7 (4)
0x020|00 00 00 58                                    |...X            |    timecnt: 88 0x20-0x23.7 (4)
0x020|            00 00 00 08                        |    ....        |    typecnt: 8 0x24-0x27.7 (4)
0x020|                        00 00 00 1c            |        ....    |    charcnt: 28 0x28-0x2b.7 (4)
     |                                               |                |  v1datablock{}: 0x2c-0x317.7 (748)
     |                                               |                |    transition_times[0:88]: 0x2c-0x18b.7 (352)
0x020|                                    80 00 00 00|            ....|      [0]: "1901-12-13T20:45:52Z" (-2147483648) transition_time 0x2c-0x2f.7 (4)
0x030|9e a6 2c 80                                    |..,.            |      [1]: "1918-03-31T08:00:00Z" (-1633276800) transition_time 0x30-0x33.7 (4)
0x030|            9f ba f9 70                        |    ...p        |      [2]: "1918-10-27T07:00:00Z" (-1615136400) transition_time 0x34-0x37.7 (4)
0x030|                        a0 86 0e 80            |        ....    |      [3]: "1919-03-30T08:00:00Z" (-1601827200) transition_time 0x38-0x3b.7 (4)
0x030|                                    a1 9a db 70|            ...p|      [4]: "1919-10-26T07:00:00Z" (-1583686800) transition_time 0x3c-0x3f.7 (4)
0x040|cb 88 fe 80                                    |....            |      [5]: "1942-02-09T08:00:00Z" (-880214400) transition_time 0x40-0x43.7 (4)
0x040|            d2 23 f4 70                        |    .#.p        |      [6]: "1945-08-14T23:00:00Z" (-769395600) transition_time 0x44-0x47.7 (4)
0x040|                        d2 61 09 f0            |        .a..    |      [7]: "1945-09-30T07:00:00Z" (-765392400) transition_time 0x48-0x4b.7 (4)
0x040|                                    e4 67 3d e0|            .g=.|      [8]: "1955-05-01T06:00:00Z" (-462996000) transition_time 0x4c-0x4f.7 (4)
0x050|e5 29 18 70                                    |.).p            |      [9]: "1955-09-25T07:00:00Z" (-450291600) transition_time 0x50-0x53.7 (4)
0x050|            e6 47 3c 00                        |    .G<.        |      [10]: "1956-04-29T08:00:00Z" (-431539200) transition_time 0x54-0x57.7 (4)
0x050|                        e7 12 34 f0            |        ..4.    |      [11]: "1956-09-30T07:00:00Z" (-418237200) transition_time 0x58-0x5b.7 (4)
0x050|                                    e8 27 1e 00|            .'..|      [12]: "1957-04-28T08:00:00Z" (-400089600) transition_time 0x5c-0x5f.7 (4)
0x060|e8 f2 16 f0                                    |....            |      [13]: "1957-09-29T07:00:00Z" (-386787600) transition_time 0x60-0x63.7 (4)
0x060|            ea 07 00 00                        |    ....        |      [14]: "1958-04-27T08:00:00Z" (-368640000) transition_time 0x64-0x67.7 (4)
0x060|                        ea d1 f8 f0            |        ....    |      [15]: "1958-09-28T07:00:00Z" (-355338000) transition_time 0x68-0x6b.7 (4)
0x060|                                    eb e6 e2 00|            ....|      [16]: "1959-04-26T08:00:00Z" (-337190400) transition_time 0x6c-0x6f.7 (4)
0x070|ec b1 da f0                                    |....            |      [17]: "1959-09-27T07:00:00Z" (-323888400) transition_time 0x70-0x73.7 (4)
0x070|            ed c6 c4 00                        |    ....        |      [18]: "1960-04-24T08:00:00Z" (-305740800) transition_time 0x74-0x77.7 (4)
0x070|                        ee 91 bc f0            |        ....    |      [19]: "1960-09-25T07:00:00Z" (-292438800) transition_time 0x78-0x7b.7 (4)
0x070|                                    ef af e0 80|            ....|      [20]: "1961-04-30T08:00:00Z" (-273686400) transition_time 0x7c-0x7f.7 (4)
0x080|f0 9f c3 70                                    |...p            |      [21]: "1961-10-29T07:00:00Z" (-257965200) transition_time 0x80-0x83.7 (4)
0x080|            f1 8f c2 80                        |    ....        |      [22]: "1962-04-29T08:00:00Z" (-242236800) transition_time 0x84-0x87.7 (4)
0x080|                        f2 7f a5 70            |        ...p    |      [23]: "1962-10-28T07:00:00Z" (-226515600) transition_time 0x88-0x8b.7 (4)
0x080|                                    f3 6f a4 80|            .o..|      [24]: "1963-04-28T08:00:00Z" (-210787200) transition_time 0x8c-0x8f.7 (4)
0x090|f4 5f 87 70                                    |._.p            |      [25]: "1963-10-27T07:00:00Z" (-195066000) transition_time 0x90-0x93.7 (4)
0x090|            f5 4f 86 80                        |    .O..        |      [26]: "1964-04-26T08:00:00Z" (-179337600) transition_time 0x94-0x97.7 (4)
0x090|                        f6 3f 69 70            |        .?ip    |      [27]: "1964-10-25T07:00:00Z" (-163616400) transition_time 0x98-0x9b.7 (4)
0x090|                                    f7 2f 68 80|            ./h.|      [28]: "1965-04-25T08:00:00Z" (-147888000) transition_time 0x9c-0x9f.7 (4)
0x0a0|fa 08 67 f0                                    |..g.            |      [29]: "1966-10-30T07:00:00Z" (-100112400) transition_time 0xa0-0xa3.7 (4)
0x0a0|            fa f8 67 00                        |    ..g.        |      [30]: "1967-04-30T08:00:00Z" (-84384000) transition_time 0xa4-0xa7.7 (4)
0x0a0|                        fb e8 49 f0            |        ..I.    |      [31]: "1967-10-29T07:00:00Z" (-68662800) transition_time 0xa8-0xab.7 (4)
0x0a0|                                    fc d8 49 00|            ..I.|      [32]: "1968-04-28T08:00:00Z" (-52934400) transition_time 0xac-0xaf.7 (4)
0x0b0|fd c8 2b f0                                    |..+.            |      [33]: "1968-10-27T07:00:00Z" (-37213200) transition_time 0xb0-0xb3.7 (4)
0x0b0|            fe b8 2b 00                        |    ..+.        |      [34]: "1969-04-27T08:00:00Z" (-21484800) transition_time 0xb4-0xb7.7 (4)
0x0b0|                        ff a8 0d f0            |        ....    |      [35]: "1969-10-26T07:00:00Z" (-5763600) transition_time 0xb8-0xbb.7 (4)
0x0b0|                                    00 98 0d 00|            ....|      [36]: "1970-04-26T08:00:00Z" (9964800) transition_time 0xbc-0xbf.7 (4)
0x0c0|01 87 ef f0                                    |....            |      [37]: "1970-10-25T07:00:00Z" (25686000) transition_time 0xc0-0xc3.7 (4)
0x0c0|            02 77 ef 00                        |    .w..        |      [38]: "1971-04-25T08:00:00Z" (41414400) transition_time 0xc4-0xc7.7 (4)
0x0c0|                        03 71 0c 70            |        .q.p    |      [39]: "1971-10-31T07:00:00Z" (57740400) transition_time 0xc8-0xcb.7 (4)
0x0c0|                                    04 61 0b 80|            .a..|      [40]: "1972-04-30T08:00:00Z" (73468800) transition_time 0xcc-0xcf.7 (4)
0x0d0|05 50 ee 71                                    |.P.q            |      [41]: "1972-10-29T07:00:01Z" (89190001) transition_time 0xd0-0xd3.7 (4)
0x0d0|            06 40 ed 82                        |    .@..        |      [42]: "1973-04-29T08:00:02Z" (104918402) transition_time 0xd4-0xd7.7 (4)
0x0d0|                        07 30 d0 72            |        .0.r    |      [43]: "1973-10-28T07:00:02Z" (120639602) transition_time 0xd8-0xdb.7 (4)
0x0d0|                                    07 8d 27 83|            ..'.|      [44]: "1974-01-06T08:00:03Z" (126691203) transition_time 0xdc-0xdf.7 (4)
0x0e0|09 10 b2 73                                    |...s            |      [45]: "1974-10-27T07:00:03Z" (152089203) transition_time 0xe0-0xe3.7 (4)
0x0e0|            09 ad a3 04                        |    ....        |      [46]: "1975-02-23T08:00:04Z" (162374404) transition_time 0xe4-0xe7.7 (4)
0x0e0|                        0a f0 94 74            |        ...t    |      [47]: "1975-10-26T07:00:04Z" (183538804) transition_time 0xe8-0xeb.7 (4)
0x0e0|                                    0b e0 93 85|            ....|      [48]: "1976-04-25T08:00:05Z" (199267205) transition_time 0xec-0xef.7 (4)
0x0f0|0c d9 b0 f5                                    |....            |      [49]: "1976-10-31T07:00:05Z" (215593205) transition_time 0xf0-0xf3.7 (4)
0x0f0|            0d c0 75 86                        |    ..u.        |      [50]: "1977-04-24T08:00:06Z" (230716806) transition_time 0xf4-0xf7.7 (4)
0x0f0|                        0e b9 92 f6            |        ....    |      [51]: "1977-10-30T07:00:06Z" (247042806) transition_time 0xf8-0xfb.7 (4)
0x0f0|                                    44 2f 76 87|            D/v.|      [52]: "2006-04-02T07:00:23Z" (1143961223) transition_time 0xfc-0xff.7 (4)
0x100|45 44 51 87                                    |EDQ.            |      [53]: "2006-10-29T07:00:23Z" (1162105223) transition_time 0x100-0x103.7 (4)
0x100|            45 f3 b7 17                        |    E...        |      [54]: "2007-03-11T08:00:23Z" (1173600023) transition_time 0x104-0x107.7 (4)
0x100|                        47 2d 6e 07            |        G-n.    |      [55]: "2007-11-04T07:00:23Z" (1194159623) transition_time 0x108-0x10b.7 (4)
0x100|                                    47 d3 8b 07|            G...|      [56]: "2008-03-09T07:00:23Z" (1205046023) transition_time 0x10c-0x10f.7 (4)
0x110|49 0d 41 f7                                    |I.A.            |      [57]: "2008-11-02T06:00:23Z" (1225605623) transition_time 0x110-0x113.7 (4)
0x110|            49 b3 6d 08                        |    I.m.        |      [58]: "2009-03-08T07:00:24Z" (1236495624) transition_time 0x114-0x117.7 (4)
0x110|                        4a ed 23 f8            |        J.#.    |      [59]: "2009-11-01T06:00:24Z" (1257055224) transition_time 0x118-0x11b.7 (4)
0x110|                                    4b 9c 89 88|            K...|      [60]: "2010-03-14T07:00:24Z" (1268550024) transition_time 0x11c-0x11f.7 (4)
0x120|4c d6 40 78                                    |L.@x            |      [61]: "2010-11-07T06:00:24Z" (1289109624) transition_time 0x120-0x123.7 (4)
0x120|            4d 7c 6b 88                        |    M|k.        |      [62]: "2011-03-13T07:00:24Z" (1299999624) transition_time 0x124-0x127.7 (4)
0x120|                        4e b6 22 78            |        N."x    |      [63]: "2011-11-06T06:00:24Z" (1320559224) transition_time 0x128-0x12b.7 (4)
0x120|                                    4f 5c 4d 88|            O\M.|      [64]: "2012-03-11T07:00:24Z" (1331449224) transition_time 0x12c-0x12f.7 (4)
0x130|50 96 04 79                                    |P..y            |      [65]: "2012-11-04T06:00:25Z" (1352008825) transition_time 0x130-0x133.7 (4)
0x130|            51 3c 2f 89                        |    Q</.        |      [66]: "2013-03-10T07:00:25Z" (1362898825) transition_time 0x134-0x137.7 (4)
0x130|                        52 75 e6 79            |        Ru.y    |      [67]: "2013-11-03T06:00:25Z" (1383458425) transition_time 0x138-0x13b.7 (4)
0x130|                                    53 1c 11 89|            S...|      [68]: "2014-03-09T07:00:25Z" (1394348425) transition_time 0x13c-0x13f.7 (4)
0x140|54 55 c8 79                                    |TU.y            |      [69]: "2014-11-02T06:00:25Z" (1414908025) transition_time 0x140-0x143.7 (4)
0x140|            54 fb f3 89                        |    T...        |      [70]: "2015-03-08T07:00:25Z" (1425798025) transition_time 0x144-0x147.7 (4)
0x140|                        56 35 aa 7a            |        V5.z    |      [71]: "2015-11-01T06:00:26Z" (1446357626) transition_time 0x148-0x14b.7 (4)
0x140|                                    56 e5 10 0a|            V...|      [72]: "2016-03-13T07:00:26Z" (1457852426) transition_time 0x14c-0x14f.7 (4)
0x150|58 1e c6 fa                                    |X...            |      [73]: "2016-11-06T06:00:26Z" (1478412026) transition_time 0x150-0x153.7 (4)
0x150|            58 c4 f2 0b                        |    X...        |      [74]: "2017-03-12T07:00:27Z" (1489302027) transition_time 0x154-0x157.7 (4)
0x150|                        59 fe a8 fb            |        Y...    |      [75]: "2017-11-05T06:00:27Z" (1509861627) transition_time 0x158-0x15b.7 (4)
0x150|                                    5a a4 d4 0b|            Z...|      [76]: "2018-03-11T07:00:27Z" (1520751627) transition_time 0x15c-0x15f.7 (4)
0x160|5b de 8a fb                                    |[...            |      [77]: "2018-11-04T06:00:27Z" (1541311227) transition_time 0x160-0x163.7 (4)
0x160|            5c 84 b6 0b                        |    \...        |      [78]: "2019-03-10T07:00:27Z" (1552201227) transition_time 0x164-0x167.7 (4)
0x160|                        5d be 6c fb            |        ].l.    |      [79]: "2019-11-03T06:00:27Z" (1572760827) transition_time 0x168-0x16b.7 (4)
0x160|                                    5e 64 98 0b|            ^d..|      [80]: "2020-03-08T07:00:27Z" (1583650827) transition_time 0x16c-0x16f.7 (4)
0x170|5f 9e 4e fb                                    |_.N.            |      [81]: "2020-11-01T06:00:27Z" (1604210427) transition_time 0x170-0x173.7 (4)
0x170|            60 4d b4 8b                        |    `M..        |      [82]: "2021-03-14T07:00:27Z" (1615705227) transition_time 0x174-0x177.7 (4)
0x170|                        61 87 6b 7b            |        a.k{    |      [83]: "2021-11-07T06:00:27Z" (1636264827) transition_time 0x178-0x17b.7 (4)
0x170|                                    62 2d 96 8b|            b-..|      [84]: "2022-03-13T07:00:27Z" (1647154827) transition_time 0x17c-0x17f.7 (4)
0x180|63 67 4d 7b                                    |cgM{            |      [85]: "2022-11-06T06:00:27Z" (1667714427) transition_time 0x180-0x183.7 (4)
0x180|            64 0d 78 8b                        |    d.x.        |      [86]: "2023-03-12T07:00:27Z" (1678604427) transition_time 0x184-0x187.7 (4)
0x180|                        64 9b 78 1b            |        d.x.    |      [87]: "2023-06-28T00:00:27Z" (1687910427) transition_time 0x188-0x18b.7 (4)
     |                                               |                |    transition_types[0:88]: 0x18c-0x1e3.7 (88)
0x180|                                    05         |            .   |      [0]: 5 transition_type 0x18c-0x18c.7 (1)
0x180|                                       01      |             .  |      [1]: 1 transition_type 0x18d-0x18d.7 (1)
0x180|                                          02   |              . |      [2]: 2 transition_type 0x18e-0x18e.7 (1)
0x180|                                             01|               .|      [3]: 1 transition_type 0x18f-0x18f.7 (1)
0x190|02                                             |.               |      [4]: 2 transition_type 0x190-0x190.7 (1)
0x190|   03                                          | .              |      [5]: 3 transition_type 0x191-0x191.7 (1)
0x190|      04                                       |  .             |      [6]: 4 transition_type 0x192-0x192.7 (1)
0x190|         02                                    |   .            |      [7]: 2 transition_type 0x193-0x193.7 (1)
0x190|            01                                 |    .           |      [8]: 1 transition_type 0x194-0x194.7 (1)
0x190|               02                              |     .          |      [9]: 2 transition_type 0x195-0x195.7 (1)
0x190|                  01                           |      .         |      [10]: 1 transition_type 0x196-0x196.7 (1)
0x190|                     02                        |       .        |      [11]: 2 transition_type 0x197-0x197.7 (1)
0x190|                        01                     |        .       |      [12]: 1 transition_type 0x198-0x198.7 (1)
0x190|                           02                  |         .      |      [13]: 2 transition_type 0x199-0x199.7 (1)
0x190|                              01               |          .     |      [14]: 1 transition_type 0x19a-0x19a.7 (1)
0x190|                                 02            |           .    |      [15]: 2 transition_type 0x19b-0x19b.7 (1)
0x190|                                    01         |            .   |      [16]: 1 transition_type 0x19c-0x19c.7 (1)
0x190|                                       02      |             .  |      [17]: 2 transition_type 0x19d-0x19d.7 (1)
0x190|                                          01   |              . |      [18]: 1 transition_type 0x19e-0x19e.7 (1)
0x190|                                             02|               .|      [19]: 2 transition_type 0x19f-0x19f.7 (1)
0x1a0|01                                             |.               |      [20]: 1 transition_type 0x1a0-0x1a0.7 (1)
0x1a0|   02                                          | .              |      [21]: 2 transition_type 0x1a1-0x1a1.7 (1)
0x1a0|      01                                       |  .             |      [22]: 1 transition_type 0x1a2-0x1a2.7 (1)
0x1a0|         02                                    |   .            |      [23]: 2 transition_type 0x1a3-0x1a3.7 (1)
0x1a0|            01                                 |    .           |      [24]: 1 transition_type 0x1a4-0x1a4.7 (1)
0x1a0|               02                              |     .          |      [25]: 2 transition_type 0x1a5-0x1a5.7 (1)
0x1a0|                  01                           |      .         |      [26]: 1 transition_type 0x1a6-0x1a6.7 (1)
0x1a0|                     02                        |       .        |      [27]: 2 transition_type 0x1a7-0x1a7.7 (1)
0x1a0|                        06                     |        .       |      [28]: 6 transition_type 0x1a8-0x1a8.7 (1)
0x1a0|                           02                  |         .      |      [29]: 2 transition_type 0x1a9-0x1a9.7 (1)
0x1a0|                              01               |          .     |      [30]: 1 transition_type 0x1aa-0x1aa.7 (1)
0x1a0|                                 02            |           .    |      [31]: 2 transition_type 0x1ab-0x1ab.7 (1)
0x1a0|                                    01         |            .   |      [32]: 1 transition_type 0x1ac-0x1ac.7 (1)
0x1a0|                                       02      |             .  |      [33]: 2 transition_type 0x1ad-0x1ad.7 (1)
0x1a0|                                          01   |              . |      [34]: 1 transition_type 0x1ae-0x1ae.7 (1)
0x1a0|                                             02|               .|      [35]: 2 transition_type 0x1af-0x1af.7 (1)
0x1b0|01                                             |.               |      [36]: 1 transition_type 0x1b0-0x1b0.7 (1)
0x1b0|   02                                          | .              |      [37]: 2 transition_type 0x1b1-0x1b1.7 (1)
0x1b0|      01                                       |  .             |      [38]: 1 transition_type 0x1b2-0x1b2.7 (1)
0x1b0|         02                                    |   .            |      [39]: 2 transition_type 0x1b3-0x1b3.7 (1)
0x1b0|            01                                 |    .           |      [40]: 1 transition_type 0x1b4-0x1b4.7 (1)
0x1b0|               02                              |     .          |      [41]: 2 transition_type 0x1b5-0x1b5.7 (1)
0x1b0|                  01                           |      .         |      [42]: 1 transition_type 0x1b6-0x1b6.7 (1)
0x1b0|                     02                        |       .        |      [43]: 2 transition_type 0x1b7-0x1b7.7 (1)
0x1b0|                        01                     |        .       |      [44]: 1 transition_type 0x1b8-0x1b8.7 (1)
0x1b0|                           02                  |         .      |      [45]: 2 transition_type 0x1b9-0x1b9.7 (1)
0x1b0|                              01               |          .     |      [46]: 1 transition_type 0x1ba-0x1ba.7 (1)
0x1b0|                                 02            |           .    |      [47]: 2 transition_type 0x1bb-0x1bb.7 (1)
0x1b0|                                    01         |            .   |      [48]: 1 transition_type 0x1bc-0x1bc.7 (1)
0x1b0|                                       02      |             .  |      [49]: 2 transition_type 0x1bd-0x1bd.7 (1)
0x1b0|                                          01   |              . |      [50]: 1 transition_type 0x1be-0x1be.7 (1)
0x1b0|                                             06|               .|      [51]: 6 transition_type 0x1bf-0x1bf.7 (1)
0x1c0|01                                             |.               |      [52]: 1 transition_type 0x1c0-0x1c0.7 (1)
0x1c0|   02                                          | .              |      [53]: 2 transition_type 0x1c1-0x1c1.7 (1)
0x1c0|      01                                       |  .             |      [54]: 1 transition_type 0x1c2-0x1c2.7 (1)
0x1c0|         06                                    |   .            |      [55]: 6 transition_type 0x1c3-0x1c3.7 (1)
0x1c0|            07                                 |    .           |      [56]: 7 transition_type 0x1c4-0x1c4.7 (1)
0x1c0|               06                              |     .          |      [57]: 6 transition_type 0x1c5-0x1c5.7 (1)
0x1c0|                  07                           |      .         |      [58]: 7 transition_type 0x1c6-0x1c6.7 (1)
0x1c0|                     06                        |       .        |      [59]: 6 transition_type 0x1c7-0x1c7.7 (1)
0x1c0|                        07                     |        .       |      [60]: 7 transition_type 0x1c8-0x1c8.7 (1)
0x1c0|                           06                  |         .      |      [61]: 6 transition_type 0x1c9-0x1c9.7 (1)
0x1c0|                              07               |          .     |      [62]: 7 transition_type 0x1ca-0x1ca.7 (1)
0x1c0|                                 06            |           .    |      [63]: 6 transition_type 0x1cb-0x1cb.7 (1)
0x1c0|                                    07         |            .   |      [64]: 7 transition_type 0x1cc-0x1cc.7 (1)
0x1c0|                                       06      |             .  |      [65]: 6 transition_type 0x1cd-0x1cd.7 (1)
0x1c0|                                          07   |              . |      [66]: 7 transition_type 0x1ce-0x1ce.7 (1)
0x1c0|                                             06|               .|      [67]: 6 transition_type 0x1cf-0x1cf.7 (1)
0x1d0|07                                             |.               |      [68]: 7 transition_type 0x1d0-0x1d0.7 (1)
0x1d0|   06                                          | .              |      [69]: 6 transition_type 0x1d1-0x1d1.7 (1)
0x1d0|      07                                       |  .             |      [70]: 7 transition_type 0x1d2-0x1d2.7 (1)
0x1d0|         06                                    |   .            |      [71]: 6 transition_type 0x1d3-0x1d3.7 (1)
0x1d0|            07                                 |    .           |      [72]: 7 transition_type 0x1d4-0x1d4.7 (1)
0x1d0|               06                              |     .          |      [73]: 6 transition_type 0x1d5-0x1d5.7 (1)
0x1d0|                  07                           |      .         |      [74]: 7 transition_type 0x1d6-0x1d6.7 (1)
0x1d0|                     06                        |       .        |      [75]: 6 transition_type 0x1d7-0x1d7.7 (1)
0x1d0|                        07                     |        .       |      [76]: 7 transition_type 0x1d8-0x1d8.7 (1)
0x1d0|                           06                  |         .      |      [77]: 6 transition_type 0x1d9-0x1d9.7 (1)
0x1d0|                              07               |          .     |      [78]: 7 transition_type 0x1da-0x1da.7 (1)
0x1d0|                                 06            |           .    |      [79]: 6 transition_type 0x1db-0x1db.7 (1)
0x1d0|                                    07         |            .   |      [80]: 7 transition_type 0x1dc-0x1dc.7 (1)
0x1d0|                                       06      |             .  |      [81]: 6 transition_type 0x1dd-0x1dd.7 (1)
0x1d0|                                          07   |              . |      [82]: 7 transition_type 0x1de-0x1de.7 (1)
0x1d0|                                             06|               .|      [83]: 6 transition_type 0x1df-0x1df.7 (1)
0x1e0|07                                             |.               |      [84]: 7 transition_type 0x1e0-0x1e0.7 (1)
0x1e0|   06                                          | .              |      [85]: 6 transition_type 0x1e1-0x1e1.7 (1)
0x1e0|      07                                       |  .             |      [86]: 7 transition_type 0x1e2-0x1e2.7 (1)
0x1e0|         07                                    |   .            |      [87]: 7 transition_type 0x1e3-0x1e3.7 (1)
     |                                               |                |    local_time_type_records[0:8]: 0x1e4-0x213.7 (48)
     |                                               |                |      [0]{}: local_time_type 0x1e4-0x1e9.7 (6)
0x1e0|            ff ff ae 2d                        |    ...-        |        utoff: -20947 (valid) 0x1e4-0x1e7.7 (4)
0x1e0|                        00                     |        .       |        dst: 0 (valid) 0x1e8-0x1e8.7 (1)
0x1e0|                           00                  |         .      |        idx: 0 (valid) 0x1e9-0x1e9.7 (1)
     |                                               |                |      [1]{}: local_time_type 0x1ea-0x1ef.7 (6)
0x1e0|                              ff ff b9 b0      |          ....  |        utoff: -18000 (valid) 0x1ea-0x1ed.7 (4)
0x1e0|                                          01   |              . |        dst: 1 (valid) 0x1ee-0x1ee.7 (1)
0x1e0|                                             04|               .|        idx: 4 (valid) 0x1ef-0x1ef.7 (1)
     |                                               |                |      [2]{}: local_time_type 0x1f0-0x1f5.7 (6)
0x1f0|ff ff ab a0                                    |....            |        utoff: -21600 (valid) 0x1f0-0x1f3.7 (4)
0x1f0|            00                                 |    .           |        dst: 0 (valid) 0x1f4-0x1f4.7 (1)
0x1f0|               08                              |     .          |        idx: 8 (valid) 0x1f5-0x1f5.7 (1)
     |                                               |                |      [3]{}: local_time_type 0x1f6-0x1fb.7 (6)
0x1f0|                  ff ff b9 b0                  |      ....      |        utoff: -18000 (valid) 0x1f6-0x1f9.7 (4)
0x1f0|                              01               |          .     |        dst: 1 (valid) 0x1fa-0x1fa.7 (1)
0x1f0|                                 0c            |           .    |        idx: 12 (valid) 0x1fb-0x1fb.7 (1)
     |                                               |                |      [4]{}: local_time_type 0x1fc-0x201.7 (6)
0x1f0|                                    ff ff b9 b0|            ....|        utoff: -18000 (valid) 0x1fc-0x1ff.7 (4)
0x200|01                                             |.               |        dst: 1 (valid) 0x200-0x200.7 (1)
0x200|   10                                          | .              |        idx: 16 (valid) 0x201-0x201.7 (1)
     |                                               |                |      [5]{}: local_time_type 0x202-0x207.7 (6)
0x200|      ff ff ab a0                              |  ....          |        utoff: -21600 (valid) 0x202-0x205.7 (4)
0x200|                  00                           |      .         |        dst: 0 (valid) 0x206-0x206.7 (1)
0x200|                     08                        |       .        |        idx: 8 (valid) 0x207-0x207.7 (1)
     |                                               |                |      [6]{}: local_time_type 0x208-0x20d.7 (6)
0x200|                        ff ff b9 b0            |        ....    |        utoff: -18000 (valid) 0x208-0x20b.7 (4)
0x200|                                    00         |            .   |        dst: 0 (valid) 0x20c-0x20c.7 (1)
0x200|                                       14      |             .  |        idx: 20 (valid) 0x20d-0x20d.7 (1)
     |                                               |                |      [7]{}: local_time_type 0x20e-0x213.7 (6)
0x200|                                          ff ff|              ..|        utoff: -14400 (valid) 0x20e-0x211.7 (4)
0x210|c7 c0                                          |..              |
0x210|      01                                       |  .             |        dst: 1 (valid) 0x212-0x212.7 (1)
0x210|         18                                    |   .            |        idx: 24 (valid) 0x213-0x213.7 (1)
     |                                               |                |    time_zone_designations[0:7]: 0x214-0x22f.7 (28)
0x210|            4c 4d 54 00                        |    LMT.        |      [0]: "LMT" time_zone_designation 0x214-0x217.7 (4)
0x210|                        43 44 54 00            |        CDT.    |      [1]: "CDT" time_zone_designation 0x218-0x21b.7 (4)
0x210|                                    43 53 54 00|            CST.|      [2]: "CST" time_zone_designation 0x21c-0x21f.7 (4)
0x220|43 57 54 00                                    |CWT.            |      [3]: "CWT" time_zone_designation 0x220-0x223.7 (4)
0x220|            43 50 54 00                        |    CPT.        |      [4]: "CPT" time_zone_designation 0x224-0x227.7 (4)
0x220|                        45 53 54 00            |        EST.    |      [5]: "EST" time_zone_designation 0x228-0x22b.7 (4)
0x220|                                    45 44 54 00|            EDT.|      [6]: "EDT" time_zone_designation 0x22c-0x22f.7 (4)
     |                                               |                |    leap_second_records[0:27]: 0x230-0x307.7 (216)
     |                                               |                |      [0]{}: leap_second_record 0x230-0x237.7 (8)
0x230|04 b2 58 00                                    |..X.            |        occur: "1972-07-01T00:00:00Z" (78796800) 0x230-0x233.7 (4)
0x230|            00 00 00 01                        |    ....        |        corr: 1 0x234-0x237.7 (4)
     |                                               |                |      [1]{}: leap_second_record 0x238-0x23f.7 (8)
0x230|                        05 a4 ec 01            |        ....    |        occur: "1973-01-01T00:00:01Z" (94694401) 0x238-0x23b.7 (4)
0x230|                                    00 00 00 02|            ....|        corr: 2 0x23c-0x23f.7 (4)
     |                                               |                |      [2]{}: leap_second_record 0x240-0x247.7 (8)
0x240|07 86 1f 82                                    |....            |        occur: "1974-01-01T00:00:02Z" (126230402) 0x240-0x243.7 (4)
0x240|            00 00 00 03                        |    ....        |        corr: 3 0x244-0x247.7 (4)
     |                                               |                |      [3]{}: leap_second_record 0x248-0x24f.7 (8)
0x240|                        09 67 53 03            |        .gS.    |        occur: "1975-01-01T00:00:03Z" (157766403) 0x248-0x24b.7 (4)
0x240|                                    00 00 00 04|            ....|        corr: 4 0x24c-0x24f.7 (4)
     |                                               |                |      [4]{}: leap_second_record 0x250-0x257.7 (8)
0x250|0b 48 86 84                                    |.H..            |        occur: "1976-01-01T00:00:04Z" (189302404) 0x250-0x253.7 (4)
0x250|            00 00 00 05                        |    ....        |        corr: 5 0x254-0x257.7 (4)
     |                                               |                |      [5]{}: leap_second_record 0x258-0x25f.7 (8)
0x250|                        0d 2b 0b 85            |        .+..    |        occur: "1977-01-01T00:00:05Z" (220924805) 0x258-0x25b.7 (4)
0x250|                                    00 00 00 06|            ....|        corr: 6 0x25c-0x25f.7 (4)
     |                                               |                |      [6]{}: leap_second_record 0x260-0x267.7 (8)
0x260|0f 0c 3f 06                                    |..?.            |        occur: "1978-01-01T00:00:06Z" (252460806) 0x260-0x263.7 (4)
0x260|            00 00 00 07                        |    ....        |        corr: 7 0x264-0x267.7 (4)
     |                                               |                |      [7]{}: leap_second_record 0x268-0x26f.7 (8)
0x260|                        10 ed 72 87            |        ..r.    |        occur: "1979-01-01T00:00:07Z" (283996807) 0x268-0x26b.7 (4)
0x260|                                    00 00 00 08|            ....|        corr: 8 0x26c-0x26f.7 (4)
     |                                               |                |      [8]{}: leap_second_record 0x270-0x277.7 (8)
0x270|12 ce a6 08                                    |....            |        occur: "1980-01-01T00:00:08Z" (315532808) 0x270-0x273.7 (4)
0x270|            00 00 00 09                        |    ....        |        corr: 9 0x274-0x277.7 (4)
     |                                               |                |      [9]{}: leap_second_record 0x278-0x27f.7 (8)
0x270|                        15 9f ca 89            |        ....    |        occur: "1981-07-01T00:00:09Z" (362793609) 0x278-0x27b.7 (4)
0x270|                                    00 00 00 0a|            ....|        corr: 10 0x27c-0x27f.7 (4)
     |                                               |                |      [10]{}: leap_second_record 0x280-0x287.7 (8)
0x280|17 80 fe 0a                                    |....            |        occur: "1982-07-01T00:00:10Z" (394329610) 0x280-0x283.7 (4)
0x280|            00 00 00 0b                        |    ....        |        corr: 11 0x284-0x287.7 (4)
     |                                               |                |      [11]{}: leap_second_record 0x288-0x28f.7 (8)
0x280|                        19 62 31 8b            |        .b1.    |        occur: "1983-07-01T00:00:11Z" (425865611) 0x288-0x28b.7 (4)
0x280|                                    00 00 00 0c|            ....|        corr: 12 0x28c-0x28f.7 (4)
     |                                               |                |      [12]{}: leap_second_record 0x290-0x297.7 (8)
0x290|1d 25 ea 0c                                    |.%..            |        occur: "1985-07-01T00:00:12Z" (489024012) 0x290-0x293.7 (4)
0x290|            00 00 00 0d                        |    ....        |        corr: 13 0x294-0x297.7 (4)
     |                                               |                |      [13]{}: leap_second_record 0x298-0x29f.7 (8)
0x290|                        21 da e5 0d            |        !...    |        occur: "1988-01-01T00:00:13Z" (567993613) 0x298-0x29b.7 (4)
0x290|                                    00 00 00 0e|            ....|        corr: 14 0x29c-0x29f.7 (4)
     |                                               |                |      [14]{}: leap_second_record 0x2a0-0x2a7.7 (8)
0x2a0|25 9e 9d 8e                                    |%...            |        occur: "1990-01-01T00:00:14Z" (631152014) 0x2a0-0x2a3.7 (4)
0x2a0|            00 00 00 0f                        |    ....        |        corr: 15 0x2a4-0x2a7.7 (4)
     |                                               |                |      [15]{}: leap_second_record 0x2a8-0x2af.7 (8)
0x2a0|                        27 7f d1 0f            |        '...    |        occur: "1991-01-01T00:00:15Z" (662688015) 0x2a8-0x2ab.7 (4)
0x2a0|                                    00 00 00 10|            ....|        corr: 16 0x2ac-0x2af.7 (4)
     |                                               |                |      [16]{}: leap_second_record 0x2b0-0x2b7.7 (8)
0x2b0|2a 50 f5 90                                    |*P..            |        occur: "1992-07-01T00:00:16Z" (709948816) 0x2b0-0x2b3.7 (4)
0x2b0|            00 00 00 11                        |    ....        |        corr: 17 0x2b4-0x2b7.7 (4)
     |                                               |                |      [17]{}: leap_second_record 0x2b8-0x2bf.7 (8)
0x2b0|                        2c 32 29 11            |        ,2).    |        occur: "1993-07-01T00:00:17Z" (741484817) 0x2b8-0x2bb.7 (4)
0x2b0|                                    00 00 00 12|            ....|        corr: 18 0x2bc-0x2bf.7 (4)
     |                                               |                |      [18]{}: leap_second_record 0x2c0-0x2c7.7 (8)
0x2c0|2e 13 5c 92                                    |..\.            |        occur: "1994-07-01T00:00:18Z" (773020818) 0x2c0-0x2c3.7 (4)
0x2c0|            00 00 00 13                        |    ....        |        corr: 19 0x2c4-0x2c7.7 (4)
     |                                               |                |      [19]{}: leap_second_record 0x2c8-0x2cf.7 (8)
0x2c0|                        30 e7 24 13            |        0.$.    |        occur: "1996-01-01T00:00:19Z" (820454419) 0x2c8-0x2cb.7 (4)
0x2c0|                                    00 00 00 14|            ....|        corr: 20 0x2cc-0x2cf.7 (4)
     |                                               |                |      [20]{}: leap_second_record 0x2d0-0x2d7.7 (8)
0x2d0|33 b8 48 94                                    |3.H.            |        occur: "1997-07-01T00:00:20Z" (867715220) 0x2d0-0x2d3.7 (4)
0x2d0|            00 00 00 15                        |    ....        |        corr: 21 0x2d4-0x2d7.7 (4)
     |                                               |                |      [21]{}: leap_second_record 0x2d8-0x2df.7 (8)
0x2d0|                        36 8c 10 15            |        6...    |        occur: "1999-01-01T00:00:21Z" (915148821) 0x2d8-0x2db.7 (4)
0x2d0|                                    00 00 00 16|            ....|        corr: 22 0x2dc-0x2df.7 (4)
     |                                               |                |      [22]{}: leap_second_record 0x2e0-0x2e7.7 (8)
0x2e0|43 b7 1b 96                                    |C...            |        occur: "2006-01-01T00:00:22Z" (1136073622) 0x2e0-0x2e3.7 (4)
0x2e0|            00 00 00 17                        |    ....        |        corr: 23 0x2e4-0x2e7.7 (4)
     |                                               |                |      [23]{}: leap_second_record 0x2e8-0x2ef.7 (8)
0x2e0|                        49 5c 07 97            |        I\..    |        occur: "2009-01-01T00:00:23Z" (1230768023) 0x2e8-0x2eb.7 (4)
0x2e0|                                    00 00 00 18|            ....|        corr: 24 0x2ec-0x2ef.7 (4)
     |                                               |                |      [24]{}: leap_second_record 0x2f0-0x2f7.7 (8)
0x2f0|4f ef 93 18                                    |O...            |        occur: "2012-07-01T00:00:24Z" (1341100824) 0x2f0-0x2f3.7 (4)
0x2f0|            00 00 00 19                        |    ....        |        corr: 25 0x2f4-0x2f7.7 (4)
     |                                               |                |      [25]{}: leap_second_record 0x2f8-0x2ff.7 (8)
0x2f0|                        55 93 2d 99            |        U.-.    |        occur: "2015-07-01T00:00:25Z" (1435708825) 0x2f8-0x2fb.7 (4)
0x2f0|                                    00 00 00 1a|            ....|        corr: 26 0x2fc-0x2ff.7 (4)
     |                                               |                |      [26]{}: leap_second_record 0x300-0x307.7 (8)
0x300|58 68 46 9a                                    |XhF.            |        occur: "2017-01-01T00:00:26Z" (1483228826) 0x300-0x303.7 (4)
0x300|            00 00 00 1b                        |    ....        |        corr: 27 0x304-0x307.7 (4)
     |                                               |                |    standard_wall_indicators[0:8]: 0x308-0x30f.7 (8)
0x300|                        00                     |        .       |      [0]: 0 standard_wall_indicator (valid) 0x308-0x308.7 (1)
0x300|                           00                  |         .      |      [1]: 0 standard_wall_indicator (valid) 0x309-0x309.7 (1)
0x300|                              00               |          .     |      [2]: 0 standard_wall_indicator (valid) 0x30a-0x30a.7 (1)
0x300|                                 00            |           .    |      [3]: 0 standard_wall_indicator (valid) 0x30b-0x30b.7 (1)
0x300|                                    01         |            .   |      [4]: 1 standard_wall_indicator (valid) 0x30c-0x30c.7 (1)
0x300|                                       01      |             .  |      [5]: 1 standard_wall_indicator (valid) 0x30d-0x30d.7 (1)
0x300|                                          00   |              . |      [6]: 0 standard_wall_indicator (valid) 0x30e-0x30e.7 (1)
0x300|                                             00|               .|      [7]: 0 standard_wall_indicator (valid) 0x30f-0x30f.7 (1)
     |                                               |                |    ut_local_indicators[0:8]: 0x310-0x317.7 (8)
0x310|00                                             |.               |      [0]: 0 ut_local_indicator (valid) 0x310-0x310.7 (1)
0x310|   00                                          | .              |      [1]: 0 ut_local_indicator (valid) 0x311-0x311.7 (1)
0x310|      00                                       |  .             |      [2]: 0 ut_local_indicator (valid) 0x312-0x312.7 (1)
0x310|         00                                    |   .            |      [3]: 0 ut_local_indicator (valid) 0x313-0x313.7 (1)
0x310|            01                                 |    .           |      [4]: 1 ut_local_indicator (valid) 0x314-0x314.7 (1)
0x310|               01                              |     .          |      [5]: 1 ut_local_indicator (valid) 0x315-0x315.7 (1)
0x310|                  00                           |      .         |      [6]: 0 ut_local_indicator (valid) 0x316-0x316.7 (1)
0x310|                     00                        |       .        |      [7]: 0 ut_local_indicator (valid) 0x317-0x317.7 (1)
     |                                               |                |  v2plusheader{}: 0x318-0x343.7 (44)
0x310|                        54 5a 69 66            |        TZif    |    magic: 0x545a6966 (valid) 0x318-0x31b.7 (4)
0x310|                                    32         |            2   |    ver: "2" (0x32) (valid) 0x31c-0x31c.7 (1)
0x310|                                       00 00 00|             ...|    reserved: raw bits 0x31d-0x32b.7 (15)
0x320|00 00 00 00 00 00 00 00 00 00 00 00            |............    |
0x320|                                    00 00 00 08|            ....|    isutcnt: 8 0x32c-0x32f.7 (4)
0x330|00 00 00 08                                    |....            |    isstdcnt: 8 0x330-0x333.7 (4)
0x330|            00 00 00 1b                        |    ....        |    leapcnt: 27 0x334-0x337.7 (4)
0x330|                        00 00 00 58            |        ...X    |    timecnt: 88 0x338-0x33b.7 (4)
0x330|                                    00 00 00 08|            ....|    typecnt: 8 0x33c-0x33f.7 (4)
0x340|00 00 00 1c                                    |....            |    charcnt: 28 0x340-0x343.7 (4)
     |                                               |                |  v2plusdatablock{}: 0x344-0x7fb.7 (1208)
     |                                               |                |    transition_times[0:88]: 0x344-0x603.7 (704)
0x340|            ff ff ff ff 5e 03 fe a0            |    ....^...    |      [0]: "1883-11-18T18:00:00Z" (-2717647200) transition_time 0x344-0x34b.7 (8)
0x340|                                    ff ff ff ff|            ....|      [1]: "1918-03-31T08:00:00Z" (-1633276800) transition_time 0x34c-0x353.7 (8)
0x350|9e a6 2c 80                                    |..,.            |
0x350|            ff ff ff ff 9f ba f9 70            |    .......p    |      [2]: "1918-10-27T07:00:00Z" (-1615136400) transition_time 0x354-0x35b.7 (8)
0x350|                                    ff ff ff ff|            ....|      [3]: "1919-03-30T08:00:00Z" (-1601827200) transition_time 0x35c-0x363.7 (8)
0x360|a0 86 0e 80                                    |....            |
0x360|            ff ff ff ff a1 9a db 70            |    .......p    |      [4]: "1919-10-26T07:00:00Z" (-1583686800) transition_time 0x364-0x36b.7 (8)
0x360|                                    ff ff ff ff|            ....|      [5]: "1942-02-09T08:00:00Z" (-880214400) transition_time 0x36c-0x373.7 (8)
0x370|cb 88 fe 80                                    |....            |
0x370|            ff ff ff ff d2 23 f4 70            |    .....#.p    |      [6]: "1945-08-14T23:00:00Z" (-769395600) transition_time 0x374-0x37b.7 (8)
0x370|                                    ff ff ff ff|            ....|      [7]: "1945-09-30T07:00:00Z" (-765392400) transition_time 0x37c-0x383.7 (8)
0x380|d2 61 09 f0                                    |.a..            |
0x380|            ff ff ff ff e4 67 3d e0            |    .....g=.    |      [8]: "1955-05-01T06:00:00Z" (-462996000) transition_time 0x384-0x38b.7 (8)
0x380|                                    ff ff ff ff|            ....|      [9]: "1955-09-25T07:00:00Z" (-450291600) transition_time 0x38c-0x393.7 (8)
0x390|e5 29 18 70                                    |.).p            |
0x390|            ff ff ff ff e6 47 3c 00            |    .....G<.    |      [10]: "1956-04-29T08:00:00Z" (-431539200) transition_time 0x394-0x39b.7 (8)
0x390|                                    ff ff ff ff|            ....|      [11]: "1956-09-30T07:00:00Z" (-418237200) transition_time 0x39c-0x3a3.7 (8)
0x3a0|e7 12 34 f0                                    |..4.            |
0x3a0|            ff ff ff ff e8 27 1e 00            |    .....'..    |      [12]: "1957-04-28T08:00:00Z" (-400089600) transition_time 0x3a4-0x3ab.7 (8)
0x3a0|                                    ff ff ff ff|            ....|      [13]: "1957-09-29T07:00:00Z" (-386787600) transition_time 0x3ac-0x3b3.7 (8)
0x3b0|e8 f2 16 f0                                    |....            |
0x3b0|            ff ff ff ff ea 07 00 00            |    ........    |      [14]: "1958-04-27T08:00:00Z" (-368640000) transition_time 0x3b4-0x3bb.7 (8)
0x3b0|                                    ff ff ff ff|            ....|      [15]: "1958-09-28T07:00:00Z" (-355338000) transition_time 0x3bc-0x3c3.7 (8)
0x3c0|ea d1 f8 f0                                    |....            |
0x3c0|            ff ff ff ff eb e6 e2 00            |    ........    |      [16]: "1959-04-26T08:00:00Z" (-337190400) transition_time 0x3c4-0x3cb.7 (8)
0x3c0|                                    ff ff ff ff|            ....|      [17]: "1959-09-27T07:00:00Z" (-323888400) transition_time 0x3cc-0x3d3.7 (8)
0x3d0|ec b1 da f0                                    |....            |
0x3d0|            ff ff ff ff ed c6 c4 00            |    ........    |      [18]: "1960-04-24T08:00:00Z" (-305740800) transition_time 0x3d4-0x3db.7 (8)
0x3d0|                                    ff ff ff ff|            ....|      [19]: "1960-09-25T07:00:00Z" (-292438800) transition_time 0x3dc-0x3e3.7 (8)
0x3e0|ee 91 bc f0                                    |....            |
0x3e0|            ff ff ff ff ef af e0 80            |    ........    |      [20]: "1961-04-30T08:00:00Z" (-273686400) transition_time 0x3e4-0x3eb.7 (8)
0x3e0|                                    ff ff ff ff|            ....|      [21]: "1961-10-29T07:00:00Z" (-257965200) transition_time 0x3ec-0x3f3.7 (8)
0x3f0|f0 9f c3 70                                    |...p            |
0x3f0|            ff ff ff ff f1 8f c2 80            |    ........    |      [22]: "1962-04-29T08:00:00Z" (-242236800) transition_time 0x3f4-0x3fb.7 (8)
0x3f0|                                    ff ff ff ff|            ....|      [23]: "1962-10-28T07:00:00Z" (-226515600) transition_time 0x3fc-0x403.7 (8)
0x400|f2 7f a5 70                                    |...p            |
0x400|            ff ff ff ff f3 6f a4 80            |    .....o..    |      [24]: "1963-04-28T08:00:00Z" (-210787200) transition_time 0x404-0x40b.7 (8)
0x400|                                    ff ff ff ff|            ....|      [25]: "1963-10-27T07:00:00Z" (-195066000) transition_time 0x40c-0x413.7 (8)
0x410|f4 5f 87 70                                    |._.p            |
0x410|            ff ff ff ff f5 4f 86 80            |    .....O..    |      [26]: "1964-04-26T08:00:00Z" (-179337600) transition_time 0x414-0x41b.7 (8)
0x410|                                    ff ff ff ff|            ....|      [27]: "1964-10-25T07:00:00Z" (-163616400) transition_time 0x41c-0x423.7 (8)
0x420|f6 3f 69 70                                    |.?ip            |
0x420|            ff ff ff ff f7 2f 68 80            |    ...../h.    |      [28]: "1965-04-25T08:00:00Z" (-147888000) transition_time 0x424-0x42b.7 (8)
0x420|                                    ff ff ff ff|            ....|      [29]: "1966-10-30T07:00:00Z" (-100112400) transition_time 0x42c-0x433.7 (8)
0x430|fa 08 67 f0                                    |..g.            |
0x430|            ff ff ff ff fa f8 67 00            |    ......g.    |      [30]: "1967-04-30T08:00:00Z" (-84384000) transition_time 0x434-0x43b.7 (8)
0x430|                                    ff ff ff ff|            ....|      [31]: "1967-10-29T07:00:00Z" (-68662800) transition_time 0x43c-0x443.7 (8)
0x440|fb e8 49 f0                                    |..I.            |
0x440|            ff ff ff ff fc d8 49 00            |    ......I.    |      [32]: "1968-04-28T08:00:00Z" (-52934400) transition_time 0x444-0x44b.7 (8)
0x440|                                    ff ff ff ff|            ....|      [33]: "1968-10-27T07:00:00Z" (-37213200) transition_time 0x44c-0x453.7 (8)
0x450|fd c8 2b f0                                    |..+.            |
0x450|            ff ff ff ff fe b8 2b 00            |    ......+.    |      [34]: "1969-04-27T08:00:00Z" (-21484800) transition_time 0x454-0x45b.7 (8)
0x450|                                    ff ff ff ff|            ....|      [35]: "1969-10-26T07:00:00Z" (-5763600) transition_time 0x45c-0x463.7 (8)
0x460|ff a8 0d f0                                    |....            |
0x460|            00 00 00 00 00 98 0d 00            |    ........    |      [36]: "1970-04-26T08:00:00Z" (9964800) transition_time 0x464-0x46b.7 (8)
0x460|                                    00 00 00 00|            ....|      [37]: "1970-10-25T07:00:00Z" (25686000) transition_time 0x46c-0x473.7 (8)
0x470|01 87 ef f0                                    |....            |
0x470|            00 00 00 00 02 77 ef 00            |    .....w..    |      [38]: "1971-04-25T08:00:00Z" (41414400) transition_time 0x474-0x47b.7 (8)
0x470|                                    00 00 00 00|            ....|      [39]: "1971-10-31T07:00:00Z" (57740400) transition_time 0x47c-0x483.7 (8)
0x480|03 71 0c 70                                    |.q.p            |
0x480|            00 00 00 00 04 61 0b 80            |    .....a..    |      [40]: "1972-04-30T08:00:00Z" (73468800) transition_time 0x484-0x48b.7 (8)
0x480|                                    00 00 00 00|            ....|      [41]: "1972-10-29T07:00:01Z" (89190001) transition_time 0x48c-0x493.7 (8)
0x490|05 50 ee 71                                    |.P.q            |
0x490|            00 00 00 00 06 40 ed 82            |    .....@..    |      [42]: "1973-04-29T08:00:02Z" (104918402) transition_time 0x494-0x49b.7 (8)
0x490|                                    00 00 00 00|            ....|      [43]: "1973-10-28T07:00:02Z" (120639602) transition_time 0x49c-0x4a3.7 (8)
0x4a0|07 30 d0 72                                    |.0.r            |
0x4a0|            00 00 00 00 07 8d 27 83            |    ......'.    |      [44]: "1974-01-06T08:00:03Z" (126691203) transition_time 0x4a4-0x4ab.7 (8)
0x4a0|                                    00 00 00 00|            ....|      [45]: "1974-10-27T07:00:03Z" (152089203) transition_time 0x4ac-0x4b3.7 (8)
0x4b0|09 10 b2 73                                    |...s            |
0x4b0|            00 00 00 00 09 ad a3 04            |    ........    |      [46]: "1975-02-23T08:00:04Z" (162374404) transition_time 0x4b4-0x4bb.7 (8)
0x4b0|                                    00 00 00 00|            ....|      [47]: "1975-10-26T07:00:04Z" (183538804) transition_time 0x4bc-0x4c3.7 (8)
0x4c0|0a f0 94 74                                    |...t            |
0x4c0|            00 00 00 00 0b e0 93 85            |    ........    |      [48]: "1976-04-25T08:00:05Z" (199267205) transition_time 0x4c4-0x4cb.7 (8)
0x4c0|                                    00 00 00 00|            ....|      [49]: "1976-10-31T07:00:05Z" (215593205) transition_time 0x4cc-0x4d3.7 (8)
0x4d0|0c d9 b0 f5                                    |....            |
0x4d0|            00 00 00 00 0d c0 75 86            |    ......u.    |      [50]: "1977-04-24T08:00:06Z" (230716806) transition_time 0x4d4-0x4db.7 (8)
0x4d0|                                    00 00 00 00|            ....|      [51]: "1977-10-30T07:00:06Z" (247042806) transition_time 0x4dc-0x4e3.7 (8)
0x4e0|0e b9 92 f6                                    |....            |
0x4e0|            00 00 00 00 44 2f 76 87            |    ....D/v.    |      [52]: "2006-04-02T07:00:23Z" (1143961223) transition_time 0x4e4-0x4eb.7 (8)
0x4e0|                                    00 00 00 00|            ....|      [53]: "2006-10-29T07:00:23Z" (1162105223) transition_time 0x4ec-0x4f3.7 (8)
0x4f0|45 44 51 87                                    |EDQ.            |
0x4f0|            00 00 00 00 45 f3 b7 17            |    ....E...    |      [54]: "2007-03-11T08:00:23Z" (1173600023) transition_time 0x4f4-0x4fb.7 (8)
0x4f0|                                    00 00 00 00|            ....|      [55]: "2007-11-04T07:00:23Z" (1194159623) transition_time 0x4fc-0x503.7 (8)
0x500|47 2d 6e 07                                    |G-n.            |
0x500|            00 00 00 00 47 d3 8b 07            |    ....G...    |      [56]: "2008-03-09T07:00:23Z" (1205046023) transition_time 0x504-0x50b.7 (8)
0x500|                                    00 00 00 00|            ....|      [57]: "2008-11-02T06:00:23Z" (1225605623) transition_time 0x50c-0x513.7 (8)
0x510|49 0d 41 f7                                    |I.A.            |
0x510|            00 00 00 00 49 b3 6d 08            |    ....I.m.    |      [58]: "2009-03-08T07:00:24Z" (1236495624) transition_time 0x514-0x51b.7 (8)
0x510|                                    00 00 00 00|            ....|      [59]: "2009-11-01T06:00:24Z" (1257055224) transition_time 0x51c-0x523.7 (8)
0x520|4a ed 23 f8                                    |J.#.            |
0x520|            00 00 00 00 4b 9c 89 88            |    ....K...    |      [60]: "2010-03-14T07:00:24Z" (1268550024) transition_time 0x524-0x52b.7 (8)
0x520|                                    00 00 00 00|            ....|      [61]: "2010-11-07T06:00:24Z" (1289109624) transition_time 0x52c-0x533.7 (8)
0x530|4c d6 40 78                                    |L.@x            |
0x530|            00 00 00 00 4d 7c 6b 88            |    ....M|k.    |      [62]: "2011-03-13T07:00:24Z" (1299999624) transition_time 0x534-0x53b.7 (8)
0x530|                                    00 00 00 00|            ....|      [63]: "2011-11-06T06:00:24Z" (1320559224) transition_time 0x53c-0x543.7 (8)
0x540|4e b6 22 78                                    |N."x            |
0x540|            00 00 00 00 4f 5c 4d 88            |    ....O\M.    |      [64]: "2012-03-11T07:00:24Z" (1331449224) transition_time 0x544-0x54b.7 (8)
0x540|                                    00 00 00 00|            ....|      [65]: "2012-11-04T06:00:25Z" (1352008825) transition_time 0x54c-0x553.7 (8)
0x550|50 96 04 79                                    |P..y            |
0x550|            00 00 00 00 51 3c 2f 89            |    ....Q</.    |      [66]: "2013-03-10T07:00:25Z" (1362898825) transition_time 0x554-0x55b.7 (8)
0x550|                                    00 00 00 00|            ....|      [67]: "2013-11-03T06:00:25Z" (1383458425) transition_time 0x55c-0x563.7 (8)
0x560|52 75 e6 79                                    |Ru.y            |
0x560|            00 00 00 00 53 1c 11 89            |    ....S...    |      [68]: "2014-03-09T07:00:25Z" (1394348425) transition_time 0x564-0x56b.7 (8)
0x560|                                    00 00 00 00|            ....|      [69]: "2014-11-02T06:00:25Z" (1414908025) transition_time 0x56c-0x573.7 (8)
0x570|54 55 c8 79                                    |TU.y            |
0x570|            00 00 00 00 54 fb f3 89            |    ....T...    |      [70]: "2015-03-08T07:00:25Z" (1425798025) transition_time 0x574-0x57b.7 (8)
0x570|                                    00 00 00 00|            ....|      [71]: "2015-11-01T06:00:26Z" (1446357626) transition_time 0x57c-0x583.7 (8)
0x580|56 35 aa 7a                                    |V5.z            |
0x580|            00 00 00 00 56 e5 10 0a            |    ....V...    |      [72]: "2016-03-13T07:00:26Z" (1457852426) transition_time 0x584-0x58b.7 (8)
0x580|                                    00 00 00 00|            ....|      [73]: "2016-11-06T06:00:26Z" (1478412026) transition_time 0x58c-0x593.7 (8)
0x590|58 1e c6 fa                                    |X...            |
0x590|            00 00 00 00 58 c4 f2 0b            |    ....X...    |      [74]: "2017-03-12T07:00:27Z" (1489302027) transition_time 0x594-0x59b.7 (8)
0x590|                                    00 00 00 00|            ....|      [75]: "2017-11-05T06:00:27Z" (1509861627) transition_time 0x59c-0x5a3.7 (8)
0x5a0|59 fe a8 fb                                    |Y...            |
0x5a0|            00 00 00 00 5a a4 d4 0b            |    ....Z...    |      [76]: "2018-03-11T07:00:27Z" (1520751627) transition_time 0x5a4-0x5ab.7 (8)
0x5a0|                                    00 00 00 00|            ....|      [77]: "2018-11-04T06:00:27Z" (1541311227) transition_time 0x5ac-0x5b3.7 (8)
0x5b0|5b de 8a fb                                    |[...            |
0x5b0|            00 00 00 00 5c 84 b6 0b            |    ....\...    |      [78]: "2019-03-10T07:00:27Z" (1552201227) transition_time 0x5b4-0x5bb.7 (8)
0x5b0|                                    00 00 00 00|            ....|      [79]: "2019-11-03T06:00:27Z" (1572760827) transition_time 0x5bc-0x5c3.7 (8)
0x5c0|5d be 6c fb                                    |].l.            |
0x5c0|            00 00 00 00 5e 64 98 0b            |    ....^d..    |      [80]: "2020-03-08T07:00:27Z" (1583650827) transition_time 0x5c4-0x5cb.7 (8)
0x5c0|                                    00 00 00 00|            ....|      [81]: "2020-11-01T06:00:27Z" (1604210427) transition_time 0x5cc-0x5d3.7 (8)
0x5d0|5f 9e 4e fb                                    |_.N.            |
0x5d0|            00 00 00 00 60 4d b4 8b            |    ....`M..    |      [82]: "2021-03-14T07:00:27Z" (1615705227) transition_time 0x5d4-0x5db.7 (8)
0x5d0|                                    00 00 00 00|            ....|      [83]: "2021-11-07T06:00:27Z" (1636264827) transition_time 0x5dc-0x5e3.7 (8)
0x5e0|61 87 6b 7b                                    |a.k{            |
0x5e0|            00 00 00 00 62 2d 96 8b            |    ....b-..    |      [84]: "2022-03-13T07:00:27Z" (1647154827) transition_time 0x5e4-0x5eb.7 (8)
0x5e0|                                    00 00 00 00|            ....|      [85]: "2022-11-06T06:00:27Z" (1667714427) transition_time 0x5ec-0x5f3.7 (8)
0x5f0|63 67 4d 7b                                    |cgM{            |
0x5f0|            00 00 00 00 64 0d 78 8b            |    ....d.x.    |      [86]: "2023-03-12T07:00:27Z" (1678604427) transition_time 0x5f4-0x5fb.7 (8)
0x5f0|                                    00 00 00 00|            ....|      [87]: "2023-06-28T00:00:27Z" (1687910427) transition_time 0x5fc-0x603.7 (8)
0x600|64 9b 78 1b                                    |d.x.            |
     |                                               |                |    transition_types[0:88]: 0x604-0x65b.7 (88)
0x600|            05                                 |    .           |      [0]: 5 transition_type 0x604-0x604.7 (1)
0x600|               01                              |     .          |      [1]: 1 transition_type 0x605-0x605.7 (1)
0x600|                  02                           |      .         |      [2]: 2 transition_type 0x606-0x606.7 (1)
0x600|                     01                        |       .        |      [3]: 1 transition_type 0x607-0x607.7 (1)
0x600|                        02                     |        .       |      [4]: 2 transition_type 0x608-0x608.7 (1)
0x600|                           03                  |         .      |      [5]: 3 transition_type 0x609-0x609.7 (1)
0x600|                              04               |          .     |      [6]: 4 transition_type 0x60a-0x60a.7 (1)
0x600|                                 02            |           .    |      [7]: 2 transition_type 0x60b-0x60b.7 (1)
0x600|                                    01         |            .   |      [8]: 1 transition_type 0x60c-0x60c.7 (1)
0x600|                                       02      |             .  |      [9]: 2 transition_type 0x60d-0x60d.7 (1)
0x600|                                          01   |              . |      [10]: 1 transition_type 0x60e-0x60e.7 (1)
0x600|                                             02|               .|      [11]: 2 transition_type 0x60f-0x60f.7 (1)
0x610|01                                             |.               |      [12]: 1 transition_type 0x610-0x610.7 (1)
0x610|   02                                          | .              |      [13]: 2 transition_type 0x611-0x611.7 (1)
0x610|      01                                       |  .             |      [14]: 1 transition_type 0x612-0x612.7 (1)
0x610|         02                                    |   .            |      [15]: 2 transition_type 0x613-0x613.7 (1)
0x610|            01                                 |    .           |      [16]: 1 transition_type 0x614-0x614.7 (1)
0x610|               02                              |     .          |      [17]: 2 transition_type 0x615-0x615.7 (1)
0x610|                  01                           |      .         |      [18]: 1 transition_type 0x616-0x616.7 (1)
0x610|                     02                        |       .        |      [19]: 2 transition_type 0x617-0x617.7 (1)
0x610|                        01                     |        .       |      [20]: 1 transition_type 0x618-0x618.7 (1)
0x610|                           02                  |         .      |      [21]: 2 transition_type 0x619-0x619.7 (1)
0x610|                              01               |          .     |      [22]: 1 transition_type 0x61a-0x61a.7 (1)
0x610|                                 02            |           .    |      [23]: 2 transition_type 0x61b-0x61b.7 (1)
0x610|                                    01         |            .   |      [24]: 1 transition_type 0x61c-0x61c.7 (1)
0x610|                                       02      |             .  |      [25]: 2 transition_type 0x61d-0x61d.7 (1)
0x610|                                          01   |              . |      [26]: 1 transition_type 0x61e-0x61e.7 (1)
0x610|                                             02|               .|      [27]: 2 transition_type 0x61f-0x61f.7 (1)
0x620|06                                             |.               |      [28]: 6 transition_type 0x620-0x620.7 (1)
0x620|   02                                          | .              |      [29]: 2 transition_type 0x621-0x621.7 (1)
0x620|      01                                       |  .             |      [30]: 1 transition_type 0x622-0x622.7 (1)
0x620|         02                                    |   .            |      [31]: 2 transition_type 0x623-0x623.7 (1)
0x620|            01                                 |    .           |      [32]: 1 transition_type 0x624-0x624.7 (1)
0x620|               02                              |     .          |      [33]: 2 transition_type 0x625-0x625.7 (1)
0x620|                  01                           |      .         |      [34]: 1 transition_type 0x626-0x626.7 (1)
0x620|                     02                        |       .        |      [35]: 2 transition_type 0x627-0x627.7 (1)
0x620|                        01                     |        .       |      [36]: 1 transition_type 0x628-0x628.7 (1)
0x620|                           02                  |         .      |      [37]: 2 transition_type 0x629-0x629.7 (1)
0x620|                              01               |          .     |      [38]: 1 transition_type 0x62a-0x62a.7 (1)
0x620|                                 02            |           .    |      [39]: 2 transition_type 0x62b-0x62b.7 (1)
0x620|                                    01         |            .   |      [40]: 1 transition_type 0x62c-0x62c.7 (1)
0x620|                                       02      |             .  |      [41]: 2 transition_type 0x62d-0x62d.7 (1)
0x620|                                          01   |              . |      [42]: 1 transition_type 0x62e-0x62e.7 (1)
0x620|                                             02|               .|      [43]: 2 transition_type 0x62f-0x62f.7 (1)
0x630|01                                             |.               |      [44]: 1 transition_type 0x630-0x630.7 (1)
0x630|   02                                          | .              |      [45]: 2 transition_type 0x631-0x631.7 (1)
0x630|      01                                       |  .             |      [46]: 1 transition_type 0x632-0x632.7 (1)
0x630|         02                                    |   .            |      [47]: 2 transition_type 0x633-0x633.7 (1)
0x630|            01                                 |    .           |      [48]: 1 transition_type 0x634-0x634.7 (1)
0x630|               02                              |     .          |      [49]: 2 transition_type 0x635-0x635.7 (1)
0x630|                  01                           |      .         |      [50]: 1 transition_type 0x636-0x636.7 (1)
0x630|                     06                        |       .        |      [51]: 6 transition_type 0x637-0x637.7 (1)
0x630|                        01                     |        .       |      [52]: 1 transition_type 0x638-0x638.7 (1)
0x630|                           02                  |         .      |      [53]: 2 transition_type 0x639-0x639.7 (1)
0x630|                              01               |          .     |      [54]: 1 transition_type 0x63a-0x63a.7 (1)
0x630|                                 06            |           .    |      [55]: 6 transition_type 0x63b-0x63b.7 (1)
0x630|                                    07         |            .   |      [56]: 7 transition_type 0x63c-0x63c.7 (1)
0x630|                                       06      |             .  |      [57]: 6 transition_type 0x63d-0x63d.7 (1)
0x630|                                          07   |              . |      [58]: 7 transition_type 0x63e-0x63e.7 (1)
0x630|                                             06|               .|      [59]: 6 transition_type 0x63f-0x63f.7 (1)
0x640|07                                             |.               |      [60]: 7 transition_type 0x640-0x640.7 (1)
0x640|   06                                          | .              |      [61]: 6 transition_type 0x641-0x641.7 (1)
0x640|      07                                       |  .             |      [62]: 7 transition_type 0x642-0x642.7 (1)
0x640|         06                                    |   .            |      [63]: 6 transition_type 0x643-0x643.7 (1)
0x640|            07                                 |    .           |      [64]: 7 transition_type 0x644-0x644.7 (1)
0x640|               06                              |     .          |      [65]: 6 transition_type 0x645-0x645.7 (1)
0x640|                  07                           |      .         |      [66]: 7 transition_type 0x646-0x646.7 (1)
0x640|                     06                        |       .        |      [67]: 6 transition_type 0x647-0x647.7 (1)
0x640|                        07                     |        .       |      [68]: 7 transition_type 0x648-0x648.7 (1)
0x640|                           06                  |         .      |      [69]: 6 transition_type 0x649-0x649.7 (1)
0x640|                              07               |          .     |      [70]: 7 transition_type 0x64a-0x64a.7 (1)
0x640|                                 06            |           .    |      [71]: 6 transition_type 0x64b-0x64b.7 (1)
0x640|                                    07         |            .   |      [72]: 7 transition_type 0x64c-0x64c.7 (1)
0x640|                                       06      |             .  |      [73]: 6 transition_type 0x64d-0x64d.7 (1)
0x640|                                          07   |              . |      [74]: 7 transition_type 0x64e-0x64e.7 (1)
0x640|                                             06|               .|      [75]: 6 transition_type 0x64f-0x64f.7 (1)
0x650|07                                             |.               |      [76]: 7 transition_type 0x650-0x650.7 (1)
0x650|   06                                          | .              |      [77]: 6 transition_type 0x651-0x651.7 (1)
0x650|      07                                       |  .             |      [78]: 7 transition_type 0x652-0x652.7 (1)
0x650|         06                                    |   .            |      [79]: 6 transition_type 0x653-0x653.7 (1)
0x650|            07                                 |    .           |      [80]: 7 transition_type 0x654-0x654.7 (1)
0x650|               06                              |     .          |      [81]: 6 transition_type 0x655-0x655.7 (1)
0x650|                  07                           |      .         |      [82]: 7 transition_type 0x656-0x656.7 (1)
0x650|                     06                        |       .        |      [83]: 6 transition_type 0x657-0x657.7 (1)
0x650|                        07                     |        .       |      [84]: 7 transition_type 0x658-0x658.7 (1)
0x650|                           06                  |         .      |      [85]: 6 transition_type 0x659-0x659.7 (1)
0x650|                              07               |          .     |      [86]: 7 transition_type 0x65a-0x65a.7 (1)
0x650|                                 07            |           .    |      [87]: 7 transition_type 0x65b-0x65b.7 (1)
     |                                               |                |    local_time_type_records[0:8]: 0x65c-0x68b.7 (48)
     |                                               |                |      [0]{}: local_time_type 0x65c-0x661.7 (6)
0x650|                                    ff ff ae 2d|            ...-|        utoff: -20947 (valid) 0x65c-0x65f.7 (4)
0x660|00                                             |.               |        dst: 0 (valid) 0x660-0x660.7 (1)
0x660|   00                                          | .              |        idx: 0 (valid) 0x661-0x661.7 (1)
     |                                               |                |      [1]{}: local_time_type 0x662-0x667.7 (6)
0x660|      ff ff b9 b0                              |  ....          |        utoff: -18000 (valid) 0x662-0x665.7 (4)
0x660|                  01                           |      .         |        dst: 1 (valid) 0x666-0x666.7 (1)
0x660|                     04                        |       .        |        idx: 4 (valid) 0x667-0x667.7 (1)
     |                                               |                |      [2]{}: local_time_type 0x668-0x66d.7 (6)
0x660|                        ff ff ab a0            |        ....    |        utoff: -21600 (valid) 0x668-0x66b.7 (4)
0x660|                                    00         |            .   |        dst: 0 (valid) 0x66c-0x66c.7 (1)
0x660|                                       08      |             .  |        idx: 8 (valid) 0x66d-0x66d.7 (1)
     |                                               |                |      [3]{}: local_time_type 0x66e-0x673.7 (6)
0x660|                                          ff ff|              ..|        utoff: -18000 (valid) 0x66e-0x671.7 (4)
0x670|b9 b0                                          |..              |
0x670|      01                                       |  .             |        dst: 1 (valid) 0x672-0x672.7 (1)
0x670|         0c                                    |   .            |        idx: 12 (valid) 0x673-0x673.7 (1)
     |                                               |                |      [4]{}: local_time_type 0x674-0x679.7 (6)
0x670|            ff ff b9 b0                        |    ....        |        utoff: -18000 (valid) 0x674-0x677.7 (4)
0x670|                        01                     |        .       |        dst: 1 (valid) 0x678-0x678.7 (1)
0x670|                           10                  |         .      |        idx: 16 (valid) 0x679-0x679.7 (1)
     |                                               |                |      [5]{}: local_time_type 0x67a-0x67f.7 (6)
0x670|                              ff ff ab a0      |          ....  |        utoff: -21600 (valid) 0x67a-0x67d.7 (4)
0x670|                                          00   |              . |        dst: 0 (valid) 0x67e-0x67e.7 (1)
0x670|                                             08|               .|        idx: 8 (valid) 0x67f-0x67f.7 (1)
     |                                               |                |      [6]{}: local_time_type 0x680-0x685.7 (6)
0x680|ff ff b9 b0                                    |....            |        utoff: -18000 (valid) 0x680-0x683.7 (4)
0x680|            00                                 |    .           |        dst: 0 (valid) 0x684-0x684.7 (1)
0x680|               14                              |     .          |        idx: 20 (valid) 0x685-0x685.7 (1)
     |                                               |                |      [7]{}: local_time_type 0x686-0x68b.7 (6)
0x680|                  ff ff c7 c0                  |      ....      |        utoff: -14400 (valid) 0x686-0x689.7 (4)
0x680|                              01               |          .     |        dst: 1 (valid) 0x68a-0x68a.7 (1)
0x680|                                 18            |           .    |        idx: 24 (valid) 0x68b-0x68b.7 (1)
     |                                               |                |    time_zone_designations[0:7]: 0x68c-0x6a7.7 (28)
0x680|                                    4c 4d 54 00|            LMT.|      [0]: "LMT" time_zone_designation 0x68c-0x68f.7 (4)
0x690|43 44 54 00                                    |CDT.            |      [1]: "CDT" time_zone_designation 0x690-0x693.7 (4)
0x690|            43 53 54 00                        |    CST.        |      [2]: "CST" time_zone_designation 0x694-0x697.7 (4)
0x690|                        43 57 54 00            |        CWT.    |      [3]: "CWT" time_zone_designation 0x698-0x69b.7 (4)
0x690|                                    43 50 54 00|            CPT.|      [4]: "CPT" time_zone_designation 0x69c-0x69f.7 (4)
0x6a0|45 53 54 00                                    |EST.            |      [5]: "EST" time_zone_designation 0x6a0-0x6a3.7 (4)
0x6a0|            45 44 54 00                        |    EDT.        |      [6]: "EDT" time_zone_designation 0x6a4-0x6a7.7 (4)
     |                                               |                |    leap_second_records[0:27]: 0x6a8-0x7eb.7 (324)
     |                                               |                |      [0]{}: leap_second_record 0x6a8-0x6b3.7 (12)
0x6a0|                        00 00 00 00 04 b2 58 00|        ......X.|        occur: "1972-07-01T00:00:00Z" (78796800) 0x6a8-0x6af.7 (8)
0x6b0|00 00 00 01                                    |....            |        corr: 1 0x6b0-0x6b3.7 (4)
     |                                               |                |      [1]{}: leap_second_record 0x6b4-0x6bf.7 (12)
0x6b0|            00 00 00 00 05 a4 ec 01            |    ........    |        occur: "1973-01-01T00:00:01Z" (94694401) 0x6b4-0x6bb.7 (8)
0x6b0|                                    00 00 00 02|            ....|        corr: 2 0x6bc-0x6bf.7 (4)
     |                                               |                |      [2]{}: leap_second_record 0x6c0-0x6cb.7 (12)
0x6c0|00 00 00 00 07 86 1f 82                        |........        |        occur: "1974-01-01T00:00:02Z" (126230402) 0x6c0-0x6c7.7 (8)
0x6c0|                        00 00 00 03            |        ....    |        corr: 3 0x6c8-0x6cb.7 (4)
     |                                               |                |      [3]{}: leap_second_record 0x6cc-0x6d7.7 (12)
0x6c0|                                    00 00 00 00|            ....|        occur: "1975-01-01T00:00:03Z" (157766403) 0x6cc-0x6d3.7 (8)
0x6d0|09 67 53 03                                    |.gS.            |
0x6d0|            00 00 00 04                        |    ....        |        corr: 4 0x6d4-0x6d7.7 (4)
     |                                               |                |      [4]{}: leap_second_record 0x6d8-0x6e3.7 (12)
0x6d0|                        00 00 00 00 0b 48 86 84|        .....H..|        occur: "1976-01-01T00:00:04Z" (189302404) 0x6d8-0x6df.7 (8)
0x6e0|00 00 00 05                                    |....            |        corr: 5 0x6e0-0x6e3.7 (4)
     |                                               |                |      [5]{}: leap_second_record 0x6e4-0x6ef.7 (12)
0x6e0|            00 00 00 00 0d 2b 0b 85            |    .....+..    |        occur: "1977-01-01T00:00:05Z" (220924805) 0x6e4-0x6eb.7 (8)
0x6e0|                                    00 00 00 06|            ....|        corr: 6 0x6ec-0x6ef.7 (4)
     |                                               |                |      [6]{}: leap_second_record 0x6f0-0x6fb.7 (12)
0x6f0|00 00 00 00 0f 0c 3f 06                        |......?.        |        occur: "1978-01-01T00:00:06Z" (252460806) 0x6f0-0x6f7.7 (8)
0x6f0|                        00 00 00 07            |        ....    |        corr: 7 0x6f8-0x6fb.7 (4)
     |                                               |                |      [7]{}: leap_second_record 0x6fc-0x707.7 (12)
0x6f0|                                    00 00 00 00|            ....|        occur: "1979-01-01T00:00:07Z" (283996807) 0x6fc-0x703.7 (8)
0x700|10 ed 72 87                                    |..r.            |
0x700|            00 00 00 08                        |    ....        |        corr: 8 0x704-0x707.7 (4)
     |                                               |                |      [8]{}: leap_second_record 0x708-0x713.7 (12)
0x700|                        00 00 00 00 12 ce a6 08|        ........|        occur: "1980-01-01T00:00:08Z" (315532808) 0x708-0x70f.7 (8)
0x710|00 00 00 09                                    |....            |        corr: 9 0x710-0x713.7 (4)
     |                                               |                |      [9]{}: leap_second_record 0x714-0x71f.7 (12)
0x710|            00 00 00 00 15 9f ca 89            |    ........    |        occur: "1981-07-01T00:00:09Z" (362793609) 0x714-0x71b.7 (8)
0x710|                                    00 00 00 0a|            ....|        corr: 10 0x71c-0x71f.7 (4)
     |                                               |                |      [10]{}: leap_second_record 0x720-0x72b.7 (12)
0x720|00 00 00 00 17 80 fe 0a                        |........        |        occur: "1982-07-01T00:00:10Z" (394329610) 0x720-0x727.7 (8)
0x720|                        00 00 00 0b            |        ....    |        corr: 11 0x728-0x72b.7 (4)
     |                                               |                |      [11]{}: leap_second_record 0x72c-0x737.7 (12)
0x720|                                    00 00 00 00|            ....|        occur: "1983-07-01T00:00:11Z" (425865611) 0x72c-0x733.7 (8)
0x730|19 62 31 8b                                    |.b1.            |
0x730|            00 00 00 0c                        |    ....        |        corr: 12 0x734-0x737.7 (4)
     |                                               |                |      [12]{}: leap_second_record 0x738-0x743.7 (12)
0x730|                        00 00 00 00 1d 25 ea 0c|        .....%..|        occur: "1985-07-01T00:00:12Z" (489024012) 0x738-0x73f.7 (8)
0x740|00 00 00 0d                                    |....            |        corr: 13 0x740-0x743.7 (4)
     |                                               |                |      [13]{}: leap_second_record 0x744-0x74f.7 (12)
0x740|            00 00 00 00 21 da e5 0d            |    ....!...    |        occur: "1988-01-01T00:00:13Z" (567993613) 0x744-0x74b.7 (8)
0x740|                                    00 00 00 0e|            ....|        corr: 14 0x74c-0x74f.7 (4)
     |                                               |                |      [14]{}: leap_second_record 0x750-0x75b.7 (12)
0x750|00 00 00 00 25 9e 9d 8e                        |....%...        |        occur: "1990-01-01T00:00:14Z" (631152014) 0x750-0x757.7 (8)
0x750|                        00 00 00 0f            |        ....    |        corr: 15 0x758-0x75b.7 (4)
     |                                               |                |      [15]{}: leap_second_record 0x75c-0x767.7 (12)
0x750|                                    00 00 00 00|            ....|        occur: "1991-01-01T00:00:15Z" (662688015) 0x75c-0x763.7 (8)
0x760|27 7f d1 0f                                    |'...            |
0x760|            00 00 00 10                        |    ....        |        corr: 16 0x764-0x767.7 (4)
     |                                               |                |      [16]{}: leap_second_record 0x768-0x773.7 (12)
0x760|                        00 00 00 00 2a 50 f5 90|        ....*P..|        occur: "1992-07-01T00:00:16Z" (709948816) 0x768-0x76f.7 (8)
0x770|00 00 00 11                                    |....            |        corr: 17 0x770-0x773.7 (4)
     |                                               |                |      [17]{}: leap_second_record 0x774-0x77f.7 (12)
0x770|            00 00 00 00 2c 32 29 11            |    ....,2).    |        occur: "1993-07-01T00:00:17Z" (741484817) 0x774-0x77b.7 (8)
0x770|                                    00 00 00 12|            ....|        corr: 18 0x77c-0x77f.7 (4)
     |                                               |                |      [18]{}: leap_second_record 0x780-0x78b.7 (12)
0x780|00 00 00 00 2e 13 5c 92                        |......\.        |        occur: "1994-07-01T00:00:18Z" (773020818) 0x780-0x787.7 (8)
0x780|                        00 00 00 13            |        ....    |        corr: 19 0x788-0x78b.7 (4)
     |                                               |                |      [19]{}: leap_second_record 0x78c-0x797.7 (12)
0x780|                                    00 00 00 00|            ....|        occur: "1996-01-01T00:00:19Z" (820454419) 0x78c-0x793.7 (8)
0x790|30 e7 24 13                                    |0.$.            |
0x790|            00 00 00 14                        |    ....        |        corr: 20 0x794-0x797.7 (4)
     |                                               |                |      [20]{}: leap_second_record 0x798-0x7a3.7 (12)
0x790|                        00 00 00 00 33 b8 48 94|        ....3.H.|        occur: "1997-07-01T00:00:20Z" (867715220) 0x798-0x79f.7 (8)
0x7a0|00 00 00 15                                    |....            |        corr: 21 0x7a0-0x7a3.7 (4)
     |                                               |                |      [21]{}: leap_second_record 0x7a4-0x7af.7 (12)
0x7a0|            00 00 00 00 36 8c 10 15            |    ....6...    |        occur: "1999-01-01T00:00:21Z" (915148821) 0x7a4-0x7ab.7 (8)
0x7a0|                                    00 00 00 16|            ....|        corr: 22 0x7ac-0x7af.7 (4)
     |                                               |                |      [22]{}: leap_second_record 0x7b0-0x7bb.7 (12)
0x7b0|00 00 00 00 43 b7 1b 96                        |....C...        |        occur: "2006-01-01T00:00:22Z" (1136073622) 0x7b0-0x7b7.7 (8)
0x7b0|                        00 00 00 17            |        ....    |        corr: 23 0x7b8-0x7bb.7 (4)
     |                                               |                |      [23]{}: leap_second_record 0x7bc-0x7c7.7 (12)
0x7b0|                                    00 00 00 00|            ....|        occur: "2009-01-01T00:00:23Z" (1230768023) 0x7bc-0x7c3.7 (8)
0x7c0|49 5c 07 97                                    |I\..            |
0x7c0|            00 00 00 18                        |    ....        |        corr: 24 0x7c4-0x7c7.7 (4)
     |                                               |                |      [24]{}: leap_second_record 0x7c8-0x7d3.7 (12)
0x7c0|                        00 00 00 00 4f ef 93 18|        ....O...|        occur: "2012-07-01T00:00:24Z" (1341100824) 0x7c8-0x7cf.7 (8)
0x7d0|00 00 00 19                                    |....            |        corr: 25 0x7d0-0x7d3.7 (4)
     |                                               |                |      [25]{}: leap_second_record 0x7d4-0x7df.7 (12)
0x7d0|            00 00 00 00 55 93 2d 99            |    ....U.-.    |        occur: "2015-07-01T00:00:25Z" (1435708825) 0x7d4-0x7db.7 (8)
0x7d0|                                    00 00 00 1a|            ....|        corr: 26 0x7dc-0x7df.7 (4)
     |                                               |                |      [26]{}: leap_second_record 0x7e0-0x7eb.7 (12)
0x7e0|00 00 00 00 58 68 46 9a                        |....XhF.        |        occur: "2017-01-01T00:00:26Z" (1483228826) 0x7e0-0x7e7.7 (8)
0x7e0|                        00 00 00 1b            |        ....    |        corr: 27 0x7e8-0x7eb.7 (4)
     |                                               |                |    standard_wall_indicators[0:8]: 0x7ec-0x7f3.7 (8)
0x7e0|                                    00         |            .   |      [0]: 0 standard_wall_indicator (valid) 0x7ec-0x7ec.7 (1)
0x7e0|                                       00      |             .  |      [1]: 0 standard_wall_indicator (valid) 0x7ed-0x7ed.7 (1)
0x7e0|                                          00   |              . |      [2]: 0 standard_wall_indicator (valid) 0x7ee-0x7ee.7 (1)
0x7e0|                                             00|               .|      [3]: 0 standard_wall_indicator (valid) 0x7ef-0x7ef.7 (1)
0x7f0|01                                             |.               |      [4]: 1 standard_wall_indicator (valid) 0x7f0-0x7f0.7 (1)
0x7f0|   01                                          | .              |      [5]: 1 standard_wall_indicator (valid) 0x7f1-0x7f1.7 (1)
0x7f0|      00                                       |  .             |      [6]: 0 standard_wall_indicator (valid) 0x7f2-0x7f2.7 (1)
0x7f0|         00                                    |   .            |      [7]: 0 standard_wall_indicator (valid) 0x7f3-0x7f3.7 (1)
     |                                               |                |    ut_local_indicators[0:8]: 0x7f4-0x7fb.7 (8)
0x7f0|            00                                 |    .           |      [0]: 0 ut_local_indicator (valid) 0x7f4-0x7f4.7 (1)
0x7f0|               00                              |     .          |      [1]: 0 ut_local_indicator (valid) 0x7f5-0x7f5.7 (1)
0x7f0|                  00                           |      .         |      [2]: 0 ut_local_indicator (valid) 0x7f6-0x7f6.7 (1)
0x7f0|                     00                        |       .        |      [3]: 0 ut_local_indicator (valid) 0x7f7-0x7f7.7 (1)
0x7f0|                        01                     |        .       |      [4]: 1 ut_local_indicator (valid) 0x7f8-0x7f8.7 (1)
0x7f0|                           01                  |         .      |      [5]: 1 ut_local_indicator (valid) 0x7f9-0x7f9.7 (1)
0x7f0|                              00               |          .     |      [6]: 0 ut_local_indicator (valid) 0x7fa-0x7fa.7 (1)
0x7f0|                                 00            |           .    |      [7]: 0 ut_local_indicator (valid) 0x7fb-0x7fb.7 (1)
     |                                               |                |  footer{}: 0x7fc-0x7fd.7 (2)
0x7f0|                                    0a         |            .   |    nl1: 10 (valid) 0x7fc-0x7fc.7 (1)
     |                                               |                |    tz_string: "" 0x7fd-NA (0)
0x7f0|                                       0a|     |             .| |    nl2: 10 (valid) 0x7fd-0x7fd.7 (1)
