$ fq -d tzif dv Phoenix
     |00 01 02 03 04 05 06 07 08 09 0a 0b 0c 0d 0e 0f|0123456789abcdef|.{}: Phoenix (tzif) 0x0-0x38d.7 (910)
     |                                               |                |  v1header{}: 0x0-0x2b.7 (44)
0x000|54 5a 69 66                                    |TZif            |    magic: 0x545a6966 (valid) 0x0-0x3.7 (4)
0x000|            32                                 |    2           |    ver: "2" (0x32) (valid) 0x4-0x4.7 (1)
0x000|               00 00 00 00 00 00 00 00 00 00 00|     ...........|    reserved: raw bits 0x5-0x13.7 (15)
0x010|00 00 00 00                                    |....            |
0x010|            00 00 00 05                        |    ....        |    isutcnt: 5 0x14-0x17.7 (4)
0x010|                        00 00 00 05            |        ....    |    isstdcnt: 5 0x18-0x1b.7 (4)
0x010|                                    00 00 00 1b|            ....|    leapcnt: 27 0x1c-0x1f.7 (4)
0x020|00 00 00 0c                                    |....            |    timecnt: 12 0x20-0x23.7 (4)
0x020|            00 00 00 05                        |    ....        |    typecnt: 5 0x24-0x27.7 (4)
0x020|                        00 00 00 10            |        ....    |    charcnt: 16 0x28-0x2b.7 (4)
     |                                               |                |  v1datablock{}: 0x2c-0x177.7 (332)
     |                                               |                |    transition_times[0:12]: 0x2c-0x5b.7 (48)
0x020|                                    80 00 00 00|            ....|      [0]: "1901-12-13T20:45:52Z" (-2147483648) transition_time 0x2c-0x2f.7 (4)
0x030|9e a6 3a 90                                    |..:.            |      [1]: "1918-03-31T09:00:00Z" (-1633273200) transition_time 0x30-0x33.7 (4)
0x030|            9f bb 07 80                        |    ....        |      [2]: "1918-10-27T08:00:00Z" (-1615132800) transition_time 0x34-0x37.7 (4)
0x030|                        a0 86 1c 90            |        ....    |      [3]: "1919-03-30T09:00:00Z" (-1601823600) transition_time 0x38-0x3b.7 (4)
0x030|                                    a1 9a e9 80|            ....|      [4]: "1919-10-26T08:00:00Z" (-1583683200) transition_time 0x3c-0x3f.7 (4)
0x040|cb 89 0c 90                                    |....            |      [5]: "1942-02-09T09:00:00Z" (-880210800) transition_time 0x40-0x43.7 (4)
0x040|            cf 17 df 1c                        |    ....        |      [6]: "1944-01-01T06:01:00Z" (-820519140) transition_time 0x44-0x47.7 (4)
0x040|                        cf 8f e5 ac            |        ....    |      [7]: "1944-04-01T07:01:00Z" (-812653140) transition_time 0x48-0x4b.7 (4)
0x040|                                    d0 81 1a 1c|            ....|      [8]: "1944-10-01T06:01:00Z" (-796845540) transition_time 0x4c-0x4f.7 (4)
0x050|fa f8 75 10                                    |..u.            |      [9]: "1967-04-30T09:00:00Z" (-84380400) transition_time 0x50-0x53.7 (4)
0x050|            fb e8 58 00                        |    ..X.        |      [10]: "1967-10-29T08:00:00Z" (-68659200) transition_time 0x54-0x57.7 (4)
0x050|                        64 9b 78 1b            |        d.x.    |      [11]: "2023-06-28T00:00:27Z" (1687910427) transition_time 0x58-0x5b.7 (4)
     |                                               |                |    transition_types[0:12]: 0x5c-0x67.7 (12)
0x050|                                    04         |            .   |      [0]: 4 transition_type 0x5c-0x5c.7 (1)
0x050|                                       01      |             .  |      [1]: 1 transition_type 0x5d-0x5d.7 (1)
0x050|                                          02   |              . |      [2]: 2 transition_type 0x5e-0x5e.7 (1)
0x050|                                             01|               .|      [3]: 1 transition_type 0x5f-0x5f.7 (1)
0x060|02                                             |.               |      [4]: 2 transition_type 0x60-0x60.7 (1)
0x060|   03                                          | .              |      [5]: 3 transition_type 0x61-0x61.7 (1)
0x060|      02                                       |  .             |      [6]: 2 transition_type 0x62-0x62.7 (1)
0x060|         03                                    |   .            |      [7]: 3 transition_type 0x63-0x63.7 (1)
0x060|            02                                 |    .           |      [8]: 2 transition_type 0x64-0x64.7 (1)
0x060|               01                              |     .          |      [9]: 1 transition_type 0x65-0x65.7 (1)
0x060|                  02                           |      .         |      [10]: 2 transition_type 0x66-0x66.7 (1)
0x060|                     02                        |       .        |      [11]: 2 transition_type 0x67-0x67.7 (1)
     |                                               |                |    local_time_type_records[0:5]: 0x68-0x85.7 (30)
     |                                               |                |      [0]{}: local_time_type 0x68-0x6d.7 (6)
0x060|                        ff ff 96 ee            |        ....    |        utoff: -26898 (valid) 0x68-0x6b.7 (4)
0x060|                                    00         |            .   |        dst: 0 (valid) 0x6c-0x6c.7 (1)
0x060|                                       00      |             .  |        idx: 0 (valid) 0x6d-0x6d.7 (1)
     |                                               |                |      [1]{}: local_time_type 0x6e-0x73.7 (6)
0x060|                                          ff ff|              ..|        utoff: -21600 (valid) 0x6e-0x71.7 (4)
0x070|ab a0                                          |..              |
0x070|      01                                       |  .             |        dst: 1 (valid) 0x72-0x72.7 (1)
0x070|         04                                    |   .            |        idx: 4 (valid) 0x73-0x73.7 (1)
     |                                               |                |      [2]{}: local_time_type 0x74-0x79.7 (6)
0x070|            ff ff 9d 90                        |    ....        |        utoff: -25200 (valid) 0x74-0x77.7 (4)
0x070|                        00                     |        .       |        dst: 0 (valid) 0x78-0x78.7 (1)
0x070|                           08                  |         .      |        idx: 8 (valid) 0x79-0x79.7 (1)
     |                                               |                |      [3]{}: local_time_type 0x7a-0x7f.7 (6)
0x070|                              ff ff ab a0      |          ....  |        utoff: -21600 (valid) 0x7a-0x7d.7 (4)
0x070|                                          01   |              . |        dst: 1 (valid) 0x7e-0x7e.7 (1)
0x070|                                             0c|               .|        idx: 12 (valid) 0x7f-0x7f.7 (1)
     |                                               |                |      [4]{}: local_time_type 0x80-0x85.7 (6)
0x080|ff ff 9d 90                                    |....            |        utoff: -25200 (valid) 0x80-0x83.7 (4)
0x080|            00                                 |    .           |        dst: 0 (valid) 0x84-0x84.7 (1)
0x080|               08                              |     .          |        idx: 8 (valid) 0x85-0x85.7 (1)
     |                                               |                |    time_zone_designations[0:4]: 0x86-0x95.7 (16)
0x080|                  4c 4d 54 00                  |      LMT.      |      [0]: "LMT" time_zone_designation 0x86-0x89.7 (4)
0x080|                              4d 44 54 00      |          MDT.  |      [1]: "MDT" time_zone_designation 0x8a-0x8d.7 (4)
0x080|                                          4d 53|              MS|      [2]: "MST" time_zone_designation 0x8e-0x91.7 (4)
0x090|54 00                                          |T.              |
0x090|      4d 57 54 00                              |  MWT.          |      [3]: "MWT" time_zone_designation 0x92-0x95.7 (4)
     |                                               |                |    leap_second_records[0:27]: 0x96-0x16d.7 (216)
     |                                               |                |      [0]{}: leap_second_record 0x96-0x9d.7 (8)
0x090|                  04 b2 58 00                  |      ..X.      |        occur: "1972-07-01T00:00:00Z" (78796800) 0x96-0x99.7 (4)
0x090|                              00 00 00 01      |          ....  |        corr: 1 0x9a-0x9d.7 (4)
     |                                               |                |      [1]{}: leap_second_record 0x9e-0xa5.7 (8)
0x090|                                          05 a4|              ..|        occur: "1973-01-01T00:00:01Z" (94694401) 0x9e-0xa1.7 (4)
0x0a0|ec 01                                          |..              |
0x0a0|      00 00 00 02                              |  ....          |        corr: 2 0xa2-0xa5.7 (4)
     |                                               |                |      [2]{}: leap_second_record 0xa6-0xad.7 (8)
0x0a0|                  07 86 1f 82                  |      ....      |        occur: "1974-01-01T00:00:02Z" (126230402) 0xa6-0xa9.7 (4)
0x0a0|                              00 00 00 03      |          ....  |        corr: 3 0xaa-0xad.7 (4)
     |                                               |                |      [3]{}: leap_second_record 0xae-0xb5.7 (8)
0x0a0|                                          09 67|              .g|        occur: "1975-01-01T00:00:03Z" (157766403) 0xae-0xb1.7 (4)
0x0b0|53 03                                          |S.              |
0x0b0|      00 00 00 04                              |  ....          |        corr: 4 0xb2-0xb5.7 (4)
     |                                               |                |      [4]{}: leap_second_record 0xb6-0xbd.7 (8)
0x0b0|                  0b 48 86 84                  |      .H..      |        occur: "1976-01-01T00:00:04Z" (189302404) 0xb6-0xb9.7 (4)
0x0b0|                              00 00 00 05      |          ....  |        corr: 5 0xba-0xbd.7 (4)
     |                                               |                |      [5]{}: leap_second_record 0xbe-0xc5.7 (8)
0x0b0|                                          0d 2b|              .+|        occur: "1977-01-01T00:00:05Z" (220924805) 0xbe-0xc1.7 (4)
0x0c0|0b 85                                          |..              |
0x0c0|      00 00 00 06                              |  ....          |        corr: 6 0xc2-0xc5.7 (4)
     |                                               |                |      [6]{}: leap_second_record 0xc6-0xcd.7 (8)
0x0c0|                  0f 0c 3f 06                  |      ..?.      |        occur: "1978-01-01T00:00:06Z" (252460806) 0xc6-0xc9.7 (4)
0x0c0|                              00 00 00 07      |          ....  |        corr: 7 0xca-0xcd.7 (4)
     |                                               |                |      [7]{}: leap_second_record 0xce-0xd5.7 (8)
0x0c0|                                          10 ed|              ..|        occur: "1979-01-01T00:00:07Z" (283996807) 0xce-0xd1.7 (4)
0x0d0|72 87                                          |r.              |
0x0d0|      00 00 00 08                              |  ....          |        corr: 8 0xd2-0xd5.7 (4)
     |                                               |                |      [8]{}: leap_second_record 0xd6-0xdd.7 (8)
0x0d0|                  12 ce a6 08                  |      ....      |        occur: "1980-01-01T00:00:08Z" (315532808) 0xd6-0xd9.7 (4)
0x0d0|                              00 00 00 09      |          ....  |        corr: 9 0xda-0xdd.7 (4)
     |                                               |                |      [9]{}: leap_second_record 0xde-0xe5.7 (8)
0x0d0|                                          15 9f|              ..|        occur: "1981-07-01T00:00:09Z" (362793609) 0xde-0xe1.7 (4)
0x0e0|ca 89                                          |..              |
0x0e0|      00 00 00 0a                              |  ....          |        corr: 10 0xe2-0xe5.7 (4)
     |                                               |                |      [10]{}: leap_second_record 0xe6-0xed.7 (8)
0x0e0|                  17 80 fe 0a                  |      ....      |        occur: "1982-07-01T00:00:10Z" (394329610) 0xe6-0xe9.7 (4)
0x0e0|                              00 00 00 0b      |          ....  |        corr: 11 0xea-0xed.7 (4)
     |                                               |                |      [11]{}: leap_second_record 0xee-0xf5.7 (8)
0x0e0|                                          19 62|              .b|        occur: "1983-07-01T00:00:11Z" (425865611) 0xee-0xf1.7 (4)
0x0f0|31 8b                                          |1.              |
0x0f0|      00 00 00 0c                              |  ....          |        corr: 12 0xf2-0xf5.7 (4)
     |                                               |                |      [12]{}: leap_second_record 0xf6-0xfd.7 (8)
0x0f0|                  1d 25 ea 0c                  |      .%..      |        occur: "1985-07-01T00:00:12Z" (489024012) 0xf6-0xf9.7 (4)
0x0f0|                              00 00 00 0d      |          ....  |        corr: 13 0xfa-0xfd.7 (4)
     |                                               |                |      [13]{}: leap_second_record 0xfe-0x105.7 (8)
0x0f0|                                          21 da|              !.|        occur: "1988-01-01T00:00:13Z" (567993613) 0xfe-0x101.7 (4)
0x100|e5 0d                                          |..              |
0x100|      00 00 00 0e                              |  ....          |        corr: 14 0x102-0x105.7 (4)
     |                                               |                |      [14]{}: leap_second_record 0x106-0x10d.7 (8)
0x100|                  25 9e 9d 8e                  |      %...      |        occur: "1990-01-01T00:00:14Z" (631152014) 0x106-0x109.7 (4)
0x100|                              00 00 00 0f      |          ....  |        corr: 15 0x10a-0x10d.7 (4)
     |                                               |                |      [15]{}: leap_second_record 0x10e-0x115.7 (8)
0x100|                                          27 7f|              '.|        occur: "1991-01-01T00:00:15Z" (662688015) 0x10e-0x111.7 (4)
0x110|d1 0f                                          |..              |
0x110|      00 00 00 10                              |  ....          |        corr: 16 0x112-0x115.7 (4)
     |                                               |                |      [16]{}: leap_second_record 0x116-0x11d.7 (8)
0x110|                  2a 50 f5 90                  |      *P..      |        occur: "1992-07-01T00:00:16Z" (709948816) 0x116-0x119.7 (4)
0x110|                              00 00 00 11      |          ....  |        corr: 17 0x11a-0x11d.7 (4)
     |                                               |                |      [17]{}: leap_second_record 0x11e-0x125.7 (8)
0x110|                                          2c 32|              ,2|        occur: "1993-07-01T00:00:17Z" (741484817) 0x11e-0x121.7 (4)
0x120|29 11                                          |).              |
0x120|      00 00 00 12                              |  ....          |        corr: 18 0x122-0x125.7 (4)
     |                                               |                |      [18]{}: leap_second_record 0x126-0x12d.7 (8)
0x120|                  2e 13 5c 92                  |      ..\.      |        occur: "1994-07-01T00:00:18Z" (773020818) 0x126-0x129.7 (4)
0x120|                              00 00 00 13      |          ....  |        corr: 19 0x12a-0x12d.7 (4)
     |                                               |                |      [19]{}: leap_second_record 0x12e-0x135.7 (8)
0x120|                                          30 e7|              0.|        occur: "1996-01-01T00:00:19Z" (820454419) 0x12e-0x131.7 (4)
0x130|24 13                                          |$.              |
0x130|      00 00 00 14                              |  ....          |        corr: 20 0x132-0x135.7 (4)
     |                                               |                |      [20]{}: leap_second_record 0x136-0x13d.7 (8)
0x130|                  33 b8 48 94                  |      3.H.      |        occur: "1997-07-01T00:00:20Z" (867715220) 0x136-0x139.7 (4)
0x130|                              00 00 00 15      |          ....  |        corr: 21 0x13a-0x13d.7 (4)
     |                                               |                |      [21]{}: leap_second_record 0x13e-0x145.7 (8)
0x130|                                          36 8c|              6.|        occur: "1999-01-01T00:00:21Z" (915148821) 0x13e-0x141.7 (4)
0x140|10 15                                          |..              |
0x140|      00 00 00 16                              |  ....          |        corr: 22 0x142-0x145.7 (4)
     |                                               |                |      [22]{}: leap_second_record 0x146-0x14d.7 (8)
0x140|                  43 b7 1b 96                  |      C...      |        occur: "2006-01-01T00:00:22Z" (1136073622) 0x146-0x149.7 (4)
0x140|                              00 00 00 17      |          ....  |        corr: 23 0x14a-0x14d.7 (4)
     |                                               |                |      [23]{}: leap_second_record 0x14e-0x155.7 (8)
0x140|                                          49 5c|              I\|        occur: "2009-01-01T00:00:23Z" (1230768023) 0x14e-0x151.7 (4)
0x150|07 97                                          |..              |
0x150|      00 00 00 18                              |  ....          |        corr: 24 0x152-0x155.7 (4)
     |                                               |                |      [24]{}: leap_second_record 0x156-0x15d.7 (8)
0x150|                  4f ef 93 18                  |      O...      |        occur: "2012-07-01T00:00:24Z" (1341100824) 0x156-0x159.7 (4)
0x150|                              00 00 00 19      |          ....  |        corr: 25 0x15a-0x15d.7 (4)
     |                                               |                |      [25]{}: leap_second_record 0x15e-0x165.7 (8)
0x150|                                          55 93|              U.|        occur: "2015-07-01T00:00:25Z" (1435708825) 0x15e-0x161.7 (4)
0x160|2d 99                                          |-.              |
0x160|      00 00 00 1a                              |  ....          |        corr: 26 0x162-0x165.7 (4)
     |                                               |                |      [26]{}: leap_second_record 0x166-0x16d.7 (8)
0x160|                  58 68 46 9a                  |      XhF.      |        occur: "2017-01-01T00:00:26Z" (1483228826) 0x166-0x169.7 (4)
0x160|                              00 00 00 1b      |          ....  |        corr: 27 0x16a-0x16d.7 (4)
     |                                               |                |    standard_wall_indicators[0:5]: 0x16e-0x172.7 (5)
0x160|                                          00   |              . |      [0]: 0 standard_wall_indicator (valid) 0x16e-0x16e.7 (1)
0x160|                                             00|               .|      [1]: 0 standard_wall_indicator (valid) 0x16f-0x16f.7 (1)
0x170|00                                             |.               |      [2]: 0 standard_wall_indicator (valid) 0x170-0x170.7 (1)
0x170|   00                                          | .              |      [3]: 0 standard_wall_indicator (valid) 0x171-0x171.7 (1)
0x170|      01                                       |  .             |      [4]: 1 standard_wall_indicator (valid) 0x172-0x172.7 (1)
     |                                               |                |    ut_local_indicators[0:5]: 0x173-0x177.7 (5)
0x170|         00                                    |   .            |      [0]: 0 ut_local_indicator (valid) 0x173-0x173.7 (1)
0x170|            00                                 |    .           |      [1]: 0 ut_local_indicator (valid) 0x174-0x174.7 (1)
0x170|               00                              |     .          |      [2]: 0 ut_local_indicator (valid) 0x175-0x175.7 (1)
0x170|                  00                           |      .         |      [3]: 0 ut_local_indicator (valid) 0x176-0x176.7 (1)
0x170|                     01                        |       .        |      [4]: 1 ut_local_indicator (valid) 0x177-0x177.7 (1)
     |                                               |                |  v2plusheader{}: 0x178-0x1a3.7 (44)
0x170|                        54 5a 69 66            |        TZif    |    magic: 0x545a6966 (valid) 0x178-0x17b.7 (4)
0x170|                                    32         |            2   |    ver: "2" (0x32) (valid) 0x17c-0x17c.7 (1)
0x170|                                       00 00 00|             ...|    reserved: raw bits 0x17d-0x18b.7 (15)
0x180|00 00 00 00 00 00 00 00 00 00 00 00            |............    |
0x180|                                    00 00 00 05|            ....|    isutcnt: 5 0x18c-0x18f.7 (4)
0x190|00 00 00 05                                    |....            |    isstdcnt: 5 0x190-0x193.7 (4)
0x190|            00 00 00 1b                        |    ....        |    leapcnt: 27 0x194-0x197.7 (4)
0x190|                        00 00 00 0c            |        ....    |    timecnt: 12 0x198-0x19b.7 (4)
0x190|                                    00 00 00 05|            ....|    typecnt: 5 0x19c-0x19f.7 (4)
0x1a0|00 00 00 10                                    |....            |    charcnt: 16 0x1a0-0x1a3.7 (4)
     |                                               |                |  v2plusdatablock{}: 0x1a4-0x38b.7 (488)
     |                                               |                |    transition_times[0:12]: 0x1a4-0x203.7 (96)
0x1a0|            ff ff ff ff 5e 04 0c b0            |    ....^...    |      [0]: "1883-11-18T19:00:00Z" (-2717643600) transition_time 0x1a4-0x1ab.7 (8)
0x1a0|                                    ff ff ff ff|            ....|      [1]: "1918-03-31T09:00:00Z" (-1633273200) transition_time 0x1ac-0x1b3.7 (8)
0x1b0|9e a6 3a 90                                    |..:.            |
0x1b0|            ff ff ff ff 9f bb 07 80            |    ........    |      [2]: "1918-10-27T08:00:00Z" (-1615132800) transition_time 0x1b4-0x1bb.7 (8)
0x1b0|                                    ff ff ff ff|            ....|      [3]: "1919-03-30T09:00:00Z" (-1601823600) transition_time 0x1bc-0x1c3.7 (8)
0x1c0|a0 86 1c 90                                    |....            |
0x1c0|            ff ff ff ff a1 9a e9 80            |    ........    |      [4]: "1919-10-26T08:00:00Z" (-1583683200) transition_time 0x1c4-0x1cb.7 (8)
0x1c0|                                    ff ff ff ff|            ....|      [5]: "1942-02-09T09:00:00Z" (-880210800) transition_time 0x1cc-0x1d3.7 (8)
0x1d0|cb 89 0c 90                                    |....            |
0x1d0|            ff ff ff ff cf 17 df 1c            |    ........    |      [6]: "1944-01-01T06:01:00Z" (-820519140) transition_time 0x1d4-0x1db.7 (8)
0x1d0|                                    ff ff ff ff|            ....|      [7]: "1944-04-01T07:01:00Z" (-812653140) transition_time 0x1dc-0x1e3.7 (8)
0x1e0|cf 8f e5 ac                                    |....            |
0x1e0|            ff ff ff ff d0 81 1a 1c            |    ........    |      [8]: "1944-10-01T06:01:00Z" (-796845540) transition_time 0x1e4-0x1eb.7 (8)
0x1e0|                                    ff ff ff ff|            ....|      [9]: "1967-04-30T09:00:00Z" (-84380400) transition_time 0x1ec-0x1f3.7 (8)
0x1f0|fa f8 75 10                                    |..u.            |
0x1f0|            ff ff ff ff fb e8 58 00            |    ......X.    |      [10]: "1967-10-29T08:00:00Z" (-68659200) transition_time 0x1f4-0x1fb.7 (8)
0x1f0|                                    00 00 00 00|            ....|      [11]: "2023-06-28T00:00:27Z" (1687910427) transition_time 0x1fc-0x203.7 (8)
0x200|64 9b 78 1b                                    |d.x.            |
     |                                               |                |    transition_types[0:12]: 0x204-0x20f.7 (12)
0x200|            04                                 |    .           |      [0]: 4 transition_type 0x204-0x204.7 (1)
0x200|               01                              |     .          |      [1]: 1 transition_type 0x205-0x205.7 (1)
0x200|                  02                           |      .         |      [2]: 2 transition_type 0x206-0x206.7 (1)
0x200|                     01                        |       .        |      [3]: 1 transition_type 0x207-0x207.7 (1)
0x200|                        02                     |        .       |      [4]: 2 transition_type 0x208-0x208.7 (1)
0x200|                           03                  |         .      |      [5]: 3 transition_type 0x209-0x209.7 (1)
0x200|                              02               |          .     |      [6]: 2 transition_type 0x20a-0x20a.7 (1)
0x200|                                 03            |           .    |      [7]: 3 transition_type 0x20b-0x20b.7 (1)
0x200|                                    02         |            .   |      [8]: 2 transition_type 0x20c-0x20c.7 (1)
0x200|                                       01      |             .  |      [9]: 1 transition_type 0x20d-0x20d.7 (1)
0x200|                                          02   |              . |      [10]: 2 transition_type 0x20e-0x20e.7 (1)
0x200|                                             02|               .|      [11]: 2 transition_type 0x20f-0x20f.7 (1)
     |                                               |                |    local_time_type_records[0:5]: 0x210-0x22d.7 (30)
     |                                               |                |      [0]{}: local_time_type 0x210-0x215.7 (6)
0x210|ff ff 96 ee                                    |....            |        utoff: -26898 (valid) 0x210-0x213.7 (4)
0x210|            00                                 |    .           |        dst: 0 (valid) 0x214-0x214.7 (1)
0x210|               00                              |     .          |        idx: 0 (valid) 0x215-0x215.7 (1)
     |                                               |                |      [1]{}: local_time_type 0x216-0x21b.7 (6)
0x210|                  ff ff ab a0                  |      ....      |        utoff: -21600 (valid) 0x216-0x219.7 (4)
0x210|                              01               |          .     |        dst: 1 (valid) 0x21a-0x21a.7 (1)
0x210|                                 04            |           .    |        idx: 4 (valid) 0x21b-0x21b.7 (1)
     |                                               |                |      [2]{}: local_time_type 0x21c-0x221.7 (6)
0x210|                                    ff ff 9d 90|            ....|        utoff: -25200 (valid) 0x21c-0x21f.7 (4)
0x220|00                                             |.               |        dst: 0 (valid) 0x220-0x220.7 (1)
0x220|   08                                          | .              |        idx: 8 (valid) 0x221-0x221.7 (1)
     |                                               |                |      [3]{}: local_time_type 0x222-0x227.7 (6)
0x220|      ff ff ab a0                              |  ....          |        utoff: -21600 (valid) 0x222-0x225.7 (4)
0x220|                  01                           |      .         |        dst: 1 (valid) 0x226-0x226.7 (1)
0x220|                     0c                        |       .        |        idx: 12 (valid) 0x227-0x227.7 (1)
     |                                               |                |      [4]{}: local_time_type 0x228-0x22d.7 (6)
0x220|                        ff ff 9d 90            |        ....    |        utoff: -25200 (valid) 0x228-0x22b.7 (4)
0x220|                                    00         |            .   |        dst: 0 (valid) 0x22c-0x22c.7 (1)
0x220|                                       08      |             .  |        idx: 8 (valid) 0x22d-0x22d.7 (1)
     |                                               |                |    time_zone_designations[0:4]: 0x22e-0x23d.7 (16)
0x220|                                          4c 4d|              LM|      [0]: "LMT" time_zone_designation 0x22e-0x231.7 (4)
0x230|54 00                                          |T.              |
0x230|      4d 44 54 00                              |  MDT.          |      [1]: "MDT" time_zone_designation 0x232-0x235.7 (4)
0x230|                  4d 53 54 00                  |      MST.      |      [2]: "MST" time_zone_designation 0x236-0x239.7 (4)
0x230|                              4d 57 54 00      |          MWT.  |      [3]: "MWT" time_zone_designation 0x23a-0x23d.7 (4)
     |                                               |                |    leap_second_records[0:27]: 0x23e-0x381.7 (324)
     |                                               |                |      [0]{}: leap_second_record 0x23e-0x249.7 (12)
0x230|                                          00 00|              ..|        occur: "1972-07-01T00:00:00Z" (78796800) 0x23e-0x245.7 (8)
0x240|00 00 04 b2 58 00                              |....X.          |
0x240|                  00 00 00 01                  |      ....      |        corr: 1 0x246-0x249.7 (4)
     |                                               |                |      [1]{}: leap_second_record 0x24a-0x255.7 (12)
0x240|                              00 00 00 00 05 a4|          ......|        occur: "1973-01-01T00:00:01Z" (94694401) 0x24a-0x251.7 (8)
0x250|ec 01                                          |..              |
0x250|      00 00 00 02                              |  ....          |        corr: 2 0x252-0x255.7 (4)
     |                                               |                |      [2]{}: leap_second_record 0x256-0x261.7 (12)
0x250|                  00 00 00 00 07 86 1f 82      |      ........  |        occur: "1974-01-01T00:00:02Z" (126230402) 0x256-0x25d.7 (8)
0x250|                                          00 00|              ..|        corr: 3 0x25e-0x261.7 (4)
0x260|00 03                                          |..              |
     |                                               |                |      [3]{}: leap_second_record 0x262-0x26d.7 (12)
0x260|      00 00 00 00 09 67 53 03                  |  .....gS.      |        occur: "1975-01-01T00:00:03Z" (157766403) 0x262-0x269.7 (8)
0x260|                              00 00 00 04      |          ....  |        corr: 4 0x26a-0x26d.7 (4)
     |                                               |                |      [4]{}: leap_second_record 0x26e-0x279.7 (12)
0x260|                                          00 00|              ..|        occur: "1976-01-01T00:00:04Z" (189302404) 0x26e-0x275.7 (8)
0x270|00 00 0b 48 86 84                              |...H..          |
0x270|                  00 00 00 05                  |      ....      |        corr: 5 0x276-0x279.7 (4)
     |                                               |                |      [5]{}: leap_second_record 0x27a-0x285.7 (12)
0x270|                              00 00 00 00 0d 2b|          .....+|        occur: "1977-01-01T00:00:05Z" (220924805) 0x27a-0x281.7 (8)
0x280|0b 85                                          |..              |
0x280|      00 00 00 06                              |  ....          |        corr: 6 0x282-0x285.7 (4)
     |                                               |                |      [6]{}: leap_second_record 0x286-0x291.7 (12)
0x280|                  00 00 00 00 0f 0c 3f 06      |      ......?.  |        occur: "1978-01-01T00:00:06Z" (252460806) 0x286-0x28d.7 (8)
0x280|                                          00 00|              ..|        corr: 7 0x28e-0x291.7 (4)
0x290|00 07                                          |..              |
     |                                               |                |      [7]{}: leap_second_record 0x292-0x29d.7 (12)
0x290|      00 00 00 00 10 ed 72 87                  |  ......r.      |        occur: "1979-01-01T00:00:07Z" (283996807) 0x292-0x299.7 (8)
0x290|                              00 00 00 08      |          ....  |        corr: 8 0x29a-0x29d.7 (4)
     |                                               |                |      [8]{}: leap_second_record 0x29e-0x2a9.7 (12)
0x290|                                          00 00|              ..|        occur: "1980-01-01T00:00:08Z" (315532808) 0x29e-0x2a5.7 (8)
0x2a0|00 00 12 ce a6 08                              |......          |
0x2a0|                  00 00 00 09                  |      ....      |        corr: 9 0x2a6-0x2a9.7 (4)
     |                                               |                |      [9]{}: leap_second_record 0x2aa-0x2b5.7 (12)
0x2a0|                              00 00 00 00 15 9f|          ......|        occur: "1981-07-01T00:00:09Z" (362793609) 0x2aa-0x2b1.7 (8)
0x2b0|ca 89                                          |..              |
0x2b0|      00 00 00 0a                              |  ....          |        corr: 10 0x2b2-0x2b5.7 (4)
     |                                               |                |      [10]{}: leap_second_record 0x2b6-0x2c1.7 (12)
0x2b0|                  00 00 00 00 17 80 fe 0a      |      ........  |        occur: "1982-07-01T00:00:10Z" (394329610) 0x2b6-0x2bd.7 (8)
0x2b0|                                          00 00|              ..|        corr: 11 0x2be-0x2c1.7 (4)
0x2c0|00 0b                                          |..              |
     |                                               |                |      [11]{}: leap_second_record 0x2c2-0x2cd.7 (12)
0x2c0|      00 00 00 00 19 62 31 8b                  |  .....b1.      |        occur: "1983-07-01T00:00:11Z" (425865611) 0x2c2-0x2c9.7 (8)
0x2c0|                              00 00 00 0c      |          ....  |        corr: 12 0x2ca-0x2cd.7 (4)
     |                                               |                |      [12]{}: leap_second_record 0x2ce-0x2d9.7 (12)
0x2c0|                                          00 00|              ..|        occur: "1985-07-01T00:00:12Z" (489024012) 0x2ce-0x2d5.7 (8)
0x2d0|00 00 1d 25 ea 0c                              |...%..          |
0x2d0|                  00 00 00 0d                  |      ....      |        corr: 13 0x2d6-0x2d9.7 (4)
     |                                               |                |      [13]{}: leap_second_record 0x2da-0x2e5.7 (12)
0x2d0|                              00 00 00 00 21 da|          ....!.|        occur: "1988-01-01T00:00:13Z" (567993613) 0x2da-0x2e1.7 (8)
0x2e0|e5 0d                                          |..              |
0x2e0|      00 00 00 0e                              |  ....          |        corr: 14 0x2e2-0x2e5.7 (4)
     |                                               |                |      [14]{}: leap_second_record 0x2e6-0x2f1.7 (12)
0x2e0|                  00 00 00 00 25 9e 9d 8e      |      ....%...  |        occur: "1990-01-01T00:00:14Z" (631152014) 0x2e6-0x2ed.7 (8)
0x2e0|                                          00 00|              ..|        corr: 15 0x2ee-0x2f1.7 (4)
0x2f0|00 0f                                          |..              |
     |                                               |                |      [15]{}: leap_second_record 0x2f2-0x2fd.7 (12)
0x2f0|      00 00 00 00 27 7f d1 0f                  |  ....'...      |        occur: "1991-01-01T00:00:15Z" (662688015) 0x2f2-0x2f9.7 (8)
0x2f0|                              00 00 00 10      |          ....  |        corr: 16 0x2fa-0x2fd.7 (4)
     |                                               |                |      [16]{}: leap_second_record 0x2fe-0x309.7 (12)
0x2f0|                                          00 00|              ..|        occur: "1992-07-01T00:00:16Z" (709948816) 0x2fe-0x305.7 (8)
0x300|00 00 2a 50 f5 90                              |..*P..          |
0x300|                  00 00 00 11                  |      ....      |        corr: 17 0x306-0x309.7 (4)
     |                                               |                |      [17]{}: leap_second_record 0x30a-0x315.7 (12)
0x300|                              00 00 00 00 2c 32|          ....,2|        occur: "1993-07-01T00:00:17Z" (741484817) 0x30a-0x311.7 (8)
0x310|29 11                                          |).              |
0x310|      00 00 00 12                              |  ....          |        corr: 18 0x312-0x315.7 (4)
     |                                               |                |      [18]{}: leap_second_record 0x316-0x321.7 (12)
0x310|                  00 00 00 00 2e 13 5c 92      |      ......\.  |        occur: "1994-07-01T00:00:18Z" (773020818) 0x316-0x31d.7 (8)
0x310|                                          00 00|              ..|        corr: 19 0x31e-0x321.7 (4)
0x320|00 13                                          |..              |
     |                                               |                |      [19]{}: leap_second_record 0x322-0x32d.7 (12)
0x320|      00 00 00 00 30 e7 24 13                  |  ....0.$.      |        occur: "1996-01-01T00:00:19Z" (820454419) 0x322-0x329.7 (8)
0x320|                              00 00 00 14      |          ....  |        corr: 20 0x32a-0x32d.7 (4)
     |                                               |                |      [20]{}: leap_second_record 0x32e-0x339.7 (12)
0x320|                                          00 00|              ..|        occur: "1997-07-01T00:00:20Z" (867715220) 0x32e-0x335.7 (8)
0x330|00 00 33 b8 48 94                              |..3.H.          |
0x330|                  00 00 00 15                  |      ....      |        corr: 21 0x336-0x339.7 (4)
     |                                               |                |      [21]{}: leap_second_record 0x33a-0x345.7 (12)
0x330|                              00 00 00 00 36 8c|          ....6.|        occur: "1999-01-01T00:00:21Z" (915148821) 0x33a-0x341.7 (8)
0x340|10 15                                          |..              |
0x340|      00 00 00 16                              |  ....          |        corr: 22 0x342-0x345.7 (4)
     |                                               |                |      [22]{}: leap_second_record 0x346-0x351.7 (12)
0x340|                  00 00 00 00 43 b7 1b 96      |      ....C...  |        occur: "2006-01-01T00:00:22Z" (1136073622) 0x346-0x34d.7 (8)
0x340|                                          00 00|              ..|        corr: 23 0x34e-0x351.7 (4)
0x350|00 17                                          |..              |
     |                                               |                |      [23]{}: leap_second_record 0x352-0x35d.7 (12)
0x350|      00 00 00 00 49 5c 07 97                  |  ....I\..      |        occur: "2009-01-01T00:00:23Z" (1230768023) 0x352-0x359.7 (8)
0x350|                              00 00 00 18      |          ....  |        corr: 24 0x35a-0x35d.7 (4)
     |                                               |                |      [24]{}: leap_second_record 0x35e-0x369.7 (12)
0x350|                                          00 00|              ..|        occur: "2012-07-01T00:00:24Z" (1341100824) 0x35e-0x365.7 (8)
0x360|00 00 4f ef 93 18                              |..O...          |
0x360|                  00 00 00 19                  |      ....      |        corr: 25 0x366-0x369.7 (4)
     |                                               |                |      [25]{}: leap_second_record 0x36a-0x375.7 (12)
0x360|                              00 00 00 00 55 93|          ....U.|        occur: "2015-07-01T00:00:25Z" (1435708825) 0x36a-0x371.7 (8)
0x370|2d 99                                          |-.              |
0x370|      00 00 00 1a                              |  ....          |        corr: 26 0x372-0x375.7 (4)
     |                                               |                |      [26]{}: leap_second_record 0x376-0x381.7 (12)
0x370|                  00 00 00 00 58 68 46 9a      |      ....XhF.  |        occur: "2017-01-01T00:00:26Z" (1483228826) 0x376-0x37d.7 (8)
0x370|                                          00 00|              ..|        corr: 27 0x37e-0x381.7 (4)
0x380|00 1b                                          |..              |
     |                                               |                |    standard_wall_indicators[0:5]: 0x382-0x386.7 (5)
0x380|      00                                       |  .             |      [0]: 0 standard_wall_indicator (valid) 0x382-0x382.7 (1)
0x380|         00                                    |   .            |      [1]: 0 standard_wall_indicator (valid) 0x383-0x383.7 (1)
0x380|            00                                 |    .           |      [2]: 0 standard_wall_indicator (valid) 0x384-0x384.7 (1)
0x380|               00                              |     .          |      [3]: 0 standard_wall_indicator (valid) 0x385-0x385.7 (1)
0x380|                  01                           |      .         |      [4]: 1 standard_wall_indicator (valid) 0x386-0x386.7 (1)
     |                                               |                |    ut_local_indicators[0:5]: 0x387-0x38b.7 (5)
0x380|                     00                        |       .        |      [0]: 0 ut_local_indicator (valid) 0x387-0x387.7 (1)
0x380|                        00                     |        .       |      [1]: 0 ut_local_indicator (valid) 0x388-0x388.7 (1)
0x380|                           00                  |         .      |      [2]: 0 ut_local_indicator (valid) 0x389-0x389.7 (1)
0x380|                              00               |          .     |      [3]: 0 ut_local_indicator (valid) 0x38a-0x38a.7 (1)
0x380|                                 01            |           .    |      [4]: 1 ut_local_indicator (valid) 0x38b-0x38b.7 (1)
     |                                               |                |  footer{}: 0x38c-0x38d.7 (2)
0x380|                                    0a         |            .   |    nl1: 10 (valid) 0x38c-0x38c.7 (1)
     |                                               |                |    tz_string: "" 0x38d-NA (0)
0x380|                                       0a|     |             .| |    nl2: 10 (valid) 0x38d-0x38d.7 (1)
