$ fq -d tzif dv Pitcairn
    |00 01 02 03 04 05 06 07 08 09 0a 0b 0c 0d 0e 0f|0123456789abcdef|.{}: Pitcairn (tzif) 0x0-0xc9.7 (202)
    |                                               |                |  v1header{}: 0x0-0x2b.7 (44)
0x00|54 5a 69 66                                    |TZif            |    magic: 0x545a6966 (valid) 0x0-0x3.7 (4)
0x00|            32                                 |    2           |    ver: "2" (0x32) (valid) 0x4-0x4.7 (1)
0x00|               00 00 00 00 00 00 00 00 00 00 00|     ...........|    reserved: raw bits 0x5-0x13.7 (15)
0x10|00 00 00 00                                    |....            |
0x10|            00 00 00 00                        |    ....        |    isutcnt: 0 0x14-0x17.7 (4)
0x10|                        00 00 00 00            |        ....    |    isstdcnt: 0 0x18-0x1b.7 (4)
0x10|                                    00 00 00 00|            ....|    leapcnt: 0 0x1c-0x1f.7 (4)
0x20|00 00 00 03                                    |....            |    timecnt: 3 0x20-0x23.7 (4)
0x20|            00 00 00 03                        |    ....        |    typecnt: 3 0x24-0x27.7 (4)
0x20|                        00 00 00 0e            |        ....    |    charcnt: 14 0x28-0x2b.7 (4)
    |                                               |                |  v1datablock{}: 0x2c-0x5a.7 (47)
    |                                               |                |    transition_times[0:3]: 0x2c-0x37.7 (12)
0x20|                                    80 00 00 00|            ....|      [0]: "1901-12-13T20:45:52Z" (-2147483648) transition_time 0x2c-0x2f.7 (4)
0x30|35 44 42 08                                    |5DB.            |      [1]: "1998-04-27T08:30:00Z" (893665800) transition_time 0x30-0x33.7 (4)
0x30|            7f ff ff ff                        |    ....        |      [2]: "2038-01-19T03:14:07Z" (2147483647) transition_time 0x34-0x37.7 (4)
    |                                               |                |    transition_types[0:3]: 0x38-0x3a.7 (3)
0x30|                        01                     |        .       |      [0]: 1 transition_type 0x38-0x38.7 (1)
0x30|                           02                  |         .      |      [1]: 2 transition_type 0x39-0x39.7 (1)
0x30|                              02               |          .     |      [2]: 2 transition_type 0x3a-0x3a.7 (1)
    |                                               |                |    local_time_type_records[0:3]: 0x3b-0x4c.7 (18)
    |                                               |                |      [0]{}: local_time_type 0x3b-0x40.7 (6)
0x30|                                 ff ff 86 0c   |           .... |        utoff: -31220 (valid) 0x3b-0x3e.7 (4)
0x30|                                             00|               .|        dst: 0 (valid) 0x3f-0x3f.7 (1)
0x40|00                                             |.               |        idx: 0 (valid) 0x40-0x40.7 (1)
    |                                               |                |      [1]{}: local_time_type 0x41-0x46.7 (6)
0x40|   ff ff 88 78                                 | ...x           |        utoff: -30600 (valid) 0x41-0x44.7 (4)
0x40|               00                              |     .          |        dst: 0 (valid) 0x45-0x45.7 (1)
0x40|                  04                           |      .         |        idx: 4 (valid) 0x46-0x46.7 (1)
    |                                               |                |      [2]{}: local_time_type 0x47-0x4c.7 (6)
0x40|                     ff ff 8f 80               |       ....     |        utoff: -28800 (valid) 0x47-0x4a.7 (4)
0x40|                                 00            |           .    |        dst: 0 (valid) 0x4b-0x4b.7 (1)
0x40|                                    0a         |            .   |        idx: 10 (valid) 0x4c-0x4c.7 (1)
    |                                               |                |    time_zone_designations[0:3]: 0x4d-0x5a.7 (14)
0x40|                                       4c 4d 54|             LMT|      [0]: "LMT" time_zone_designation 0x4d-0x50.7 (4)
0x50|00                                             |.               |
0x50|   2d 30 38 33 30 00                           | -0830.         |      [1]: "-0830" time_zone_designation 0x51-0x56.7 (6)
0x50|                     2d 30 38 00               |       -08.     |      [2]: "-08" time_zone_designation 0x57-0x5a.7 (4)
    |                                               |                |    leap_second_records[0:0]: 0x5b-NA (0)
    |                                               |                |    standard_wall_indicators[0:0]: 0x5b-NA (0)
    |                                               |                |    ut_local_indicators[0:0]: 0x5b-NA (0)
    |                                               |                |  v2plusheader{}: 0x5b-0x86.7 (44)
0x50|                                 54 5a 69 66   |           TZif |    magic: 0x545a6966 (valid) 0x5b-0x5e.7 (4)
0x50|                                             32|               2|    ver: "2" (0x32) (valid) 0x5f-0x5f.7 (1)
0x60|00 00 00 00 00 00 00 00 00 00 00 00 00 00 00   |............... |    reserved: raw bits 0x60-0x6e.7 (15)
0x60|                                             00|               .|    isutcnt: 0 0x6f-0x72.7 (4)
0x70|00 00 00                                       |...             |
0x70|         00 00 00 00                           |   ....         |    isstdcnt: 0 0x73-0x76.7 (4)
0x70|                     00 00 00 00               |       ....     |    leapcnt: 0 0x77-0x7a.7 (4)
0x70|                                 00 00 00 03   |           .... |    timecnt: 3 0x7b-0x7e.7 (4)
0x70|                                             00|               .|    typecnt: 3 0x7f-0x82.7 (4)
0x80|00 00 03                                       |...             |
0x80|         00 00 00 0e                           |   ....         |    charcnt: 14 0x83-0x86.7 (4)
    |                                               |                |  v2plusdatablock{}: 0x87-0xc1.7 (59)
    |                                               |                |    transition_times[0:3]: 0x87-0x9e.7 (24)
0x80|                     ff ff ff ff 7e 37 2e f4   |       ....~7.. |      [0]: "1901-01-01T08:40:20Z" (-2177421580) transition_time 0x87-0x8e.7 (8)
0x80|                                             00|               .|      [1]: "1998-04-27T08:30:00Z" (893665800) transition_time 0x8f-0x96.7 (8)
0x90|00 00 00 35 44 42 08                           |...5DB.         |
0x90|                     00 00 00 00 7f ff ff ff   |       ........ |      [2]: "2038-01-19T03:14:07Z" (2147483647) transition_time 0x97-0x9e.7 (8)
    |                                               |                |    transition_types[0:3]: 0x9f-0xa1.7 (3)
0x90|                                             01|               .|      [0]: 1 transition_type 0x9f-0x9f.7 (1)
0xa0|02                                             |.               |      [1]: 2 transition_type 0xa0-0xa0.7 (1)
0xa0|   02                                          | .              |      [2]: 2 transition_type 0xa1-0xa1.7 (1)
    |                                               |                |    local_time_type_records[0:3]: 0xa2-0xb3.7 (18)
    |                                               |                |      [0]{}: local_time_type 0xa2-0xa7.7 (6)
0xa0|      ff ff 86 0c                              |  ....          |        utoff: -31220 (valid) 0xa2-0xa5.7 (4)
0xa0|                  00                           |      .         |        dst: 0 (valid) 0xa6-0xa6.7 (1)
0xa0|                     00                        |       .        |        idx: 0 (valid) 0xa7-0xa7.7 (1)
    |                                               |                |      [1]{}: local_time_type 0xa8-0xad.7 (6)
0xa0|                        ff ff 88 78            |        ...x    |        utoff: -30600 (valid) 0xa8-0xab.7 (4)
0xa0|                                    00         |            .   |        dst: 0 (valid) 0xac-0xac.7 (1)
0xa0|                                       04      |             .  |        idx: 4 (valid) 0xad-0xad.7 (1)
    |                                               |                |      [2]{}: local_time_type 0xae-0xb3.7 (6)
0xa0|                                          ff ff|              ..|        utoff: -28800 (valid) 0xae-0xb1.7 (4)
0xb0|8f 80                                          |..              |
0xb0|      00                                       |  .             |        dst: 0 (valid) 0xb2-0xb2.7 (1)
0xb0|         0a                                    |   .            |        idx: 10 (valid) 0xb3-0xb3.7 (1)
    |                                               |                |    time_zone_designations[0:3]: 0xb4-0xc1.7 (14)
0xb0|            4c 4d 54 00                        |    LMT.        |      [0]: "LMT" time_zone_designation 0xb4-0xb7.7 (4)
0xb0|                        2d 30 38 33 30 00      |        -0830.  |      [1]: "-0830" time_zone_designation 0xb8-0xbd.7 (6)
0xb0|                                          2d 30|              -0|      [2]: "-08" time_zone_designation 0xbe-0xc1.7 (4)
0xc0|38 00                                          |8.              |
    |                                               |                |    leap_second_records[0:0]: 0xc2-NA (0)
    |                                               |                |    standard_wall_indicators[0:0]: 0xc2-NA (0)
    |                                               |                |    ut_local_indicators[0:0]: 0xc2-NA (0)
    |                                               |                |  footer{}: 0xc2-0xc9.7 (8)
0xc0|      0a                                       |  .             |    nl1: 10 (valid) 0xc2-0xc2.7 (1)
0xc0|         3c 2d 30 38 3e 38                     |   <-08>8       |    tz_string: "<-08>8" 0xc3-0xc8.7 (6)
0xc0|                           0a|                 |         .|     |    nl2: 10 (valid) 0xc9-0xc9.7 (1)
