$ fq -d tzif dv Port-au-Prince
     |00 01 02 03 04 05 06 07 08 09 0a 0b 0c 0d 0e 0f|0123456789abcdef|.{}: Port-au-Prince (tzif) 0x0-0x617.7 (1560)
     |                                               |                |  v1header{}: 0x0-0x2b.7 (44)
0x000|54 5a 69 66                                    |TZif            |    magic: 0x545a6966 (valid) 0x0-0x3.7 (4)
0x000|            32                                 |    2           |    ver: "2" (0x32) (valid) 0x4-0x4.7 (1)
0x000|               00 00 00 00 00 00 00 00 00 00 00|     ...........|    reserved: raw bits 0x5-0x13.7 (15)
0x010|00 00 00 00                                    |....            |
0x010|            00 00 00 00                        |    ....        |    isutcnt: 0 0x14-0x17.7 (4)
0x010|                        00 00 00 06            |        ....    |    isstdcnt: 6 0x18-0x1b.7 (4)
0x010|                                    00 00 00 1b|            ....|    leapcnt: 27 0x1c-0x1f.7 (4)
0x020|00 00 00 3a                                    |...:            |    timecnt: 58 0x20-0x23.7 (4)
0x020|            00 00 00 06                        |    ....        |    typecnt: 6 0x24-0x27.7 (4)
0x020|                        00 00 00 11            |        ....    |    charcnt: 17 0x28-0x2b.7 (4)
     |                                               |                |  v1datablock{}: 0x2c-0x260.7 (565)
     |                                               |                |    transition_times[0:58]: 0x2c-0x113.7 (232)
0x020|                                    80 00 00 00|            ....|      [0]: "1901-12-13T20:45:52Z" (-2147483648) transition_time 0x2c-0x2f.7 (4)
0x030|9c 6e 71 fc                                    |.nq.            |      [1]: "1917-01-24T16:49:00Z" (-1670483460) transition_time 0x30-0x33.7 (4)
0x030|            19 1b 46 db                        |    ..F.        |      [2]: "1983-05-08T05:00:11Z" (421218011) transition_time 0x34-0x37.7 (4)
0x030|                        1a 01 ef 4c            |        ...L    |      [3]: "1983-10-30T04:00:12Z" (436334412) transition_time 0x38-0x3b.7 (4)
0x030|                                    1a f1 ee 5c|            ...\|      [4]: "1984-04-29T05:00:12Z" (452062812) transition_time 0x3c-0x3f.7 (4)
0x040|1b e1 d1 4c                                    |...L            |      [5]: "1984-10-28T04:00:12Z" (467784012) transition_time 0x40-0x43.7 (4)
0x040|            1c d1 d0 5c                        |    ...\        |      [6]: "1985-04-28T05:00:12Z" (483512412) transition_time 0x44-0x47.7 (4)
0x040|                        1d c1 b3 4d            |        ...M    |      [7]: "1985-10-27T04:00:13Z" (499233613) transition_time 0x48-0x4b.7 (4)
0x040|                                    1e b1 b2 5d|            ...]|      [8]: "1986-04-27T05:00:13Z" (514962013) transition_time 0x4c-0x4f.7 (4)
0x050|1f a1 95 4d                                    |...M            |      [9]: "1986-10-26T04:00:13Z" (530683213) transition_time 0x50-0x53.7 (4)
0x050|            20 91 94 5d                        |     ..]        |      [10]: "1987-04-26T05:00:13Z" (546411613) transition_time 0x54-0x57.7 (4)
0x050|                        21 81 77 4d            |        !.wM    |      [11]: "1987-10-25T04:00:13Z" (562132813) transition_time 0x58-0x5b.7 (4)
0x050|                                    22 55 d4 ee|            "U..|      [12]: "1988-04-03T06:00:14Z" (576050414) transition_time 0x5c-0x5f.7 (4)
0x060|23 6a af ee                                    |#j..            |      [13]: "1988-10-30T06:00:14Z" (594194414) transition_time 0x60-0x63.7 (4)
0x060|            24 35 b6 ee                        |    $5..        |      [14]: "1989-04-02T06:00:14Z" (607500014) transition_time 0x64-0x67.7 (4)
0x060|                        25 4a 91 ee            |        %J..    |      [15]: "1989-10-29T06:00:14Z" (625644014) transition_time 0x68-0x6b.7 (4)
0x060|                                    26 15 98 ef|            &...|      [16]: "1990-04-01T06:00:15Z" (638949615) transition_time 0x6c-0x6f.7 (4)
0x070|27 2a 73 ef                                    |'*s.            |      [17]: "1990-10-28T06:00:15Z" (657093615) transition_time 0x70-0x73.7 (4)
0x070|            27 fe b5 70                        |    '..p        |      [18]: "1991-04-07T06:00:16Z" (671004016) transition_time 0x74-0x77.7 (4)
0x070|                        29 0a 55 f0            |        ).U.    |      [19]: "1991-10-27T06:00:16Z" (688543216) transition_time 0x78-0x7b.7 (4)
0x070|                                    29 de 97 70|            )..p|      [20]: "1992-04-05T06:00:16Z" (702453616) transition_time 0x7c-0x7f.7 (4)
0x080|2a ea 37 f1                                    |*.7.            |      [21]: "1992-10-25T06:00:17Z" (719992817) transition_time 0x80-0x83.7 (4)
0x080|            2b be 79 71                        |    +.yq        |      [22]: "1993-04-04T06:00:17Z" (733903217) transition_time 0x84-0x87.7 (4)
0x080|                        2c d3 54 72            |        ,.Tr    |      [23]: "1993-10-31T06:00:18Z" (752047218) transition_time 0x88-0x8b.7 (4)
0x080|                                    2d 9e 5b 72|            -.[r|      [24]: "1994-04-03T06:00:18Z" (765352818) transition_time 0x8c-0x8f.7 (4)
0x090|2e b3 36 73                                    |..6s            |      [25]: "1994-10-30T06:00:19Z" (783496819) transition_time 0x90-0x93.7 (4)
0x090|            2f 7e 3d 73                        |    /~=s        |      [26]: "1995-04-02T06:00:19Z" (796802419) transition_time 0x94-0x97.7 (4)
0x090|                        30 93 18 73            |        0..s    |      [27]: "1995-10-29T06:00:19Z" (814946419) transition_time 0x98-0x9b.7 (4)
0x090|                                    31 67 59 f4|            1gY.|      [28]: "1996-04-07T06:00:20Z" (828856820) transition_time 0x9c-0x9f.7 (4)
0x0a0|32 72 fa 74                                    |2r.t            |      [29]: "1996-10-27T06:00:20Z" (846396020) transition_time 0xa0-0xa3.7 (4)
0x0a0|            33 47 3b f4                        |    3G;.        |      [30]: "1997-04-06T06:00:20Z" (860306420) transition_time 0xa4-0xa7.7 (4)
0x0a0|                        34 52 dc 75            |        4R.u    |      [31]: "1997-10-26T06:00:21Z" (877845621) transition_time 0xa8-0xab.7 (4)
0x0a0|                                    42 4f 78 66|            BOxf|      [32]: "2005-04-03T05:00:22Z" (1112504422) transition_time 0xac-0xaf.7 (4)
0x0b0|43 64 45 56                                    |CdEV            |      [33]: "2005-10-30T04:00:22Z" (1130644822) transition_time 0xb0-0xb3.7 (4)
0x0b0|            44 2f 5a 67                        |    D/Zg        |      [34]: "2006-04-02T05:00:23Z" (1143954023) transition_time 0xb4-0xb7.7 (4)
0x0b0|                        45 44 27 57            |        ED'W    |      [35]: "2006-10-29T04:00:23Z" (1162094423) transition_time 0xb8-0xbb.7 (4)
0x0b0|                                    4f 5c 4d 88|            O\M.|      [36]: "2012-03-11T07:00:24Z" (1331449224) transition_time 0xbc-0xbf.7 (4)
0x0c0|50 96 04 79                                    |P..y            |      [37]: "2012-11-04T06:00:25Z" (1352008825) transition_time 0xc0-0xc3.7 (4)
0x0c0|            51 3c 2f 89                        |    Q</.        |      [38]: "2013-03-10T07:00:25Z" (1362898825) transition_time 0xc4-0xc7.7 (4)
0x0c0|                        52 75 e6 79            |        Ru.y    |      [39]: "2013-11-03T06:00:25Z" (1383458425) transition_time 0xc8-0xcb.7 (4)
0x0c0|                                    53 1c 11 89|            S...|      [40]: "2014-03-09T07:00:25Z" (1394348425) transition_time 0xcc-0xcf.7 (4)
0x0d0|54 55 c8 79                                    |TU.y            |      [41]: "2014-11-02T06:00:25Z" (1414908025) transition_time 0xd0-0xd3.7 (4)
0x0d0|            54 fb f3 89                        |    T...        |      [42]: "2015-03-08T07:00:25Z" (1425798025) transition_time 0xd4-0xd7.7 (4)
0x0d0|                        56 35 aa 7a            |        V5.z    |      [43]: "2015-11-01T06:00:26Z" (1446357626) transition_time 0xd8-0xdb.7 (4)
0x0d0|                                    58 c4 f2 0b|            X...|      [44]: "2017-03-12T07:00:27Z" (1489302027) transition_time 0xdc-0xdf.7 (4)
0x0e0|59 fe a8 fb                                    |Y...            |      [45]: "2017-11-05T06:00:27Z" (1509861627) transition_time 0xe0-0xe3.7 (4)
0x0e0|            5a a4 d4 0b                        |    Z...        |      [46]: "2018-03-11T07:00:27Z" (1520751627) transition_time 0xe4-0xe7.7 (4)
0x0e0|                        5b de 8a fb            |        [...    |      [47]: "2018-11-04T06:00:27Z" (1541311227) transition_time 0xe8-0xeb.7 (4)
0x0e0|                                    5c 84 b6 0b|            \...|      [48]: "2019-03-10T07:00:27Z" (1552201227) transition_time 0xec-0xef.7 (4)
0x0f0|5d be 6c fb                                    |].l.            |      [49]: "2019-11-03T06:00:27Z" (1572760827) transition_time 0xf0-0xf3.7 (4)
0x0f0|            5e 64 98 0b                        |    ^d..        |      [50]: "2020-03-08T07:00:27Z" (1583650827) transition_time 0xf4-0xf7.7 (4)
0x0f0|                        5f 9e 4e fb            |        _.N.    |      [51]: "2020-11-01T06:00:27Z" (1604210427) transition_time 0xf8-0xfb.7 (4)
0x0f0|                                    60 4d b4 8b|            `M..|      [52]: "2021-03-14T07:00:27Z" (1615705227) transition_time 0xfc-0xff.7 (4)
0x100|61 87 6b 7b                                    |a.k{            |      [53]: "2021-11-07T06:00:27Z" (1636264827) transition_time 0x100-0x103.7 (4)
0x100|            62 2d 96 8b                        |    b-..        |      [54]: "2022-03-13T07:00:27Z" (1647154827) transition_time 0x104-0x107.7 (4)
0x100|                        63 67 4d 7b            |        cgM{    |      [55]: "2022-11-06T06:00:27Z" (1667714427) transition_time 0x108-0x10b.7 (4)
0x100|                                    64 0d 78 8b|            d.x.|      [56]: "2023-03-12T07:00:27Z" (1678604427) transition_time 0x10c-0x10f.7 (4)
0x110|64 9b 78 1b                                    |d.x.            |      [57]: "2023-06-28T00:00:27Z" (1687910427) transition_time 0x110-0x113.7 (4)
     |                                               |                |    transition_types[0:58]: 0x114-0x14d.7 (58)
0x110|            01                                 |    .           |      [0]: 1 transition_type 0x114-0x114.7 (1)
0x110|               03                              |     .          |      [1]: 3 transition_type 0x115-0x115.7 (1)
0x110|                  02                           |      .         |      [2]: 2 transition_type 0x116-0x116.7 (1)
0x110|                     03                        |       .        |      [3]: 3 transition_type 0x117-0x117.7 (1)
0x110|                        02                     |        .       |      [4]: 2 transition_type 0x118-0x118.7 (1)
0x110|                           03                  |         .      |      [5]: 3 transition_type 0x119-0x119.7 (1)
0x110|                              02               |          .     |      [6]: 2 transition_type 0x11a-0x11a.7 (1)
0x110|                                 03            |           .    |      [7]: 3 transition_type 0x11b-0x11b.7 (1)
0x110|                                    02         |            .   |      [8]: 2 transition_type 0x11c-0x11c.7 (1)
0x110|                                       03      |             .  |      [9]: 3 transition_type 0x11d-0x11d.7 (1)
0x110|                                          02   |              . |      [10]: 2 transition_type 0x11e-0x11e.7 (1)
0x110|                                             03|               .|      [11]: 3 transition_type 0x11f-0x11f.7 (1)
0x120|04                                             |.               |      [12]: 4 transition_type 0x120-0x120.7 (1)
0x120|   05                                          | .              |      [13]: 5 transition_type 0x121-0x121.7 (1)
0x120|      04                                       |  .             |      [14]: 4 transition_type 0x122-0x122.7 (1)
0x120|         05                                    |   .            |      [15]: 5 transition_type 0x123-0x123.7 (1)
0x120|            04                                 |    .           |      [16]: 4 transition_type 0x124-0x124.7 (1)
0x120|               05                              |     .          |      [17]: 5 transition_type 0x125-0x125.7 (1)
0x120|                  04                           |      .         |      [18]: 4 transition_type 0x126-0x126.7 (1)
0x120|                     05                        |       .        |      [19]: 5 transition_type 0x127-0x127.7 (1)
0x120|                        04                     |        .       |      [20]: 4 transition_type 0x128-0x128.7 (1)
0x120|                           05                  |         .      |      [21]: 5 transition_type 0x129-0x129.7 (1)
0x120|                              04               |          .     |      [22]: 4 transition_type 0x12a-0x12a.7 (1)
0x120|                                 05            |           .    |      [23]: 5 transition_type 0x12b-0x12b.7 (1)
0x120|                                    04         |            .   |      [24]: 4 transition_type 0x12c-0x12c.7 (1)
0x120|                                       05      |             .  |      [25]: 5 transition_type 0x12d-0x12d.7 (1)
0x120|                                          04   |              . |      [26]: 4 transition_type 0x12e-0x12e.7 (1)
0x120|                                             05|               .|      [27]: 5 transition_type 0x12f-0x12f.7 (1)
0x130|04                                             |.               |      [28]: 4 transition_type 0x130-0x130.7 (1)
0x130|   05                                          | .              |      [29]: 5 transition_type 0x131-0x131.7 (1)
0x130|      04                                       |  .             |      [30]: 4 transition_type 0x132-0x132.7 (1)
0x130|         05                                    |   .            |      [31]: 5 transition_type 0x133-0x133.7 (1)
0x130|            02                                 |    .           |      [32]: 2 transition_type 0x134-0x134.7 (1)
0x130|               03                              |     .          |      [33]: 3 transition_type 0x135-0x135.7 (1)
0x130|                  02                           |      .         |      [34]: 2 transition_type 0x136-0x136.7 (1)
0x130|                     03                        |       .        |      [35]: 3 transition_type 0x137-0x137.7 (1)
0x130|                        02                     |        .       |      [36]: 2 transition_type 0x138-0x138.7 (1)
0x130|                           03                  |         .      |      [37]: 3 transition_type 0x139-0x139.7 (1)
0x130|                              02               |          .     |      [38]: 2 transition_type 0x13a-0x13a.7 (1)
0x130|                                 03            |           .    |      [39]: 3 transition_type 0x13b-0x13b.7 (1)
0x130|                                    02         |            .   |      [40]: 2 transition_type 0x13c-0x13c.7 (1)
0x130|                                       03      |             .  |      [41]: 3 transition_type 0x13d-0x13d.7 (1)
0x130|                                          02   |              . |      [42]: 2 transition_type 0x13e-0x13e.7 (1)
0x130|                                             03|               .|      [43]: 3 transition_type 0x13f-0x13f.7 (1)
0x140|02                                             |.               |      [44]: 2 transition_type 0x140-0x140.7 (1)
0x140|   03                                          | .              |      [45]: 3 transition_type 0x141-0x141.7 (1)
0x140|      02                                       |  .             |      [46]: 2 transition_type 0x142-0x142.7 (1)
0x140|         03                                    |   .            |      [47]: 3 transition_type 0x143-0x143.7 (1)
0x140|            02                                 |    .           |      [48]: 2 transition_type 0x144-0x144.7 (1)
0x140|               03                              |     .          |      [49]: 3 transition_type 0x145-0x145.7 (1)
0x140|                  02                           |      .         |      [50]: 2 transition_type 0x146-0x146.7 (1)
0x140|                     03                        |       .        |      [51]: 3 transition_type 0x147-0x147.7 (1)
0x140|                        02                     |        .       |      [52]: 2 transition_type 0x148-0x148.7 (1)
0x140|                           03                  |         .      |      [53]: 3 transition_type 0x149-0x149.7 (1)
0x140|                              02               |          .     |      [54]: 2 transition_type 0x14a-0x14a.7 (1)
0x140|                                 03            |           .    |      [55]: 3 transition_type 0x14b-0x14b.7 (1)
0x140|                                    02         |            .   |      [56]: 2 transition_type 0x14c-0x14c.7 (1)
0x140|                                       02      |             .  |      [57]: 2 transition_type 0x14d-0x14d.7 (1)
     |                                               |                |    local_time_type_records[0:6]: 0x14e-0x171.7 (36)
     |                                               |                |      [0]{}: local_time_type 0x14e-0x153.7 (6)
0x140|                                          ff ff|              ..|        utoff: -17360 (valid) 0x14e-0x151.7 (4)
0x150|bc 30                                          |.0              |
0x150|      00                                       |  .             |        dst: 0 (valid) 0x152-0x152.7 (1)
0x150|         00                                    |   .            |        idx: 0 (valid) 0x153-0x153.7 (1)
     |                                               |                |      [1]{}: local_time_type 0x154-0x159.7 (6)
0x150|            ff ff bc 44                        |    ...D        |        utoff: -17340 (valid) 0x154-0x157.7 (4)
0x150|                        00                     |        .       |        dst: 0 (valid) 0x158-0x158.7 (1)
0x150|                           04                  |         .      |        idx: 4 (valid) 0x159-0x159.7 (1)
     |                                               |                |      [2]{}: local_time_type 0x15a-0x15f.7 (6)
0x150|                              ff ff c7 c0      |          ....  |        utoff: -14400 (valid) 0x15a-0x15d.7 (4)
0x150|                                          01   |              . |        dst: 1 (valid) 0x15e-0x15e.7 (1)
0x150|                                             09|               .|        idx: 9 (valid) 0x15f-0x15f.7 (1)
     |                                               |                |      [3]{}: local_time_type 0x160-0x165.7 (6)
0x160|ff ff b9 b0                                    |....            |        utoff: -18000 (valid) 0x160-0x163.7 (4)
0x160|            00                                 |    .           |        dst: 0 (valid) 0x164-0x164.7 (1)
0x160|               0d                              |     .          |        idx: 13 (valid) 0x165-0x165.7 (1)
     |                                               |                |      [4]{}: local_time_type 0x166-0x16b.7 (6)
0x160|                  ff ff c7 c0                  |      ....      |        utoff: -14400 (valid) 0x166-0x169.7 (4)
0x160|                              01               |          .     |        dst: 1 (valid) 0x16a-0x16a.7 (1)
0x160|                                 09            |           .    |        idx: 9 (valid) 0x16b-0x16b.7 (1)
     |                                               |                |      [5]{}: local_time_type 0x16c-0x171.7 (6)
0x160|                                    ff ff b9 b0|            ....|        utoff: -18000 (valid) 0x16c-0x16f.7 (4)
0x170|00                                             |.               |        dst: 0 (valid) 0x170-0x170.7 (1)
0x170|   0d                                          | .              |        idx: 13 (valid) 0x171-0x171.7 (1)
     |                                               |                |    time_zone_designations[0:4]: 0x172-0x182.7 (17)
0x170|      4c 4d 54 00                              |  LMT.          |      [0]: "LMT" time_zone_designation 0x172-0x175.7 (4)
0x170|                  50 50 4d 54 00               |      PPMT.     |      [1]: "PPMT" time_zone_designation 0x176-0x17a.7 (5)
0x170|                                 45 44 54 00   |           EDT. |      [2]: "EDT" time_zone_designation 0x17b-0x17e.7 (4)
0x170|                                             45|               E|      [3]: "EST" time_zone_designation 0x17f-0x182.7 (4)
0x180|53 54 00                                       |ST.             |
     |                                               |                |    leap_second_records[0:27]: 0x183-0x25a.7 (216)
     |                                               |                |      [0]{}: leap_second_record 0x183-0x18a.7 (8)
0x180|         04 b2 58 00                           |   ..X.         |        occur: "1972-07-01T00:00:00Z" (78796800) 0x183-0x186.7 (4)
0x180|                     00 00 00 01               |       ....     |        corr: 1 0x187-0x18a.7 (4)
     |                                               |                |      [1]{}: leap_second_record 0x18b-0x192.7 (8)
0x180|                                 05 a4 ec 01   |           .... |        occur: "1973-01-01T00:00:01Z" (94694401) 0x18b-0x18e.7 (4)
0x180|                                             00|               .|        corr: 2 0x18f-0x192.7 (4)
0x190|00 00 02                                       |...             |
     |                                               |                |      [2]{}: leap_second_record 0x193-0x19a.7 (8)
0x190|         07 86 1f 82                           |   ....         |        occur: "1974-01-01T00:00:02Z" (126230402) 0x193-0x196.7 (4)
0x190|                     00 00 00 03               |       ....     |        corr: 3 0x197-0x19a.7 (4)
     |                                               |                |      [3]{}: leap_second_record 0x19b-0x1a2.7 (8)
0x190|                                 09 67 53 03   |           .gS. |        occur: "1975-01-01T00:00:03Z" (157766403) 0x19b-0x19e.7 (4)
0x190|                                             00|               .|        corr: 4 0x19f-0x1a2.7 (4)
0x1a0|00 00 04                                       |...             |
     |                                               |                |      [4]{}: leap_second_record 0x1a3-0x1aa.7 (8)
0x1a0|         0b 48 86 84                           |   .H..         |        occur: "1976-01-01T00:00:04Z" (189302404) 0x1a3-0x1a6.7 (4)
0x1a0|                     00 00 00 05               |       ....     |        corr: 5 0x1a7-0x1aa.7 (4)
     |                                               |                |      [5]{}: leap_second_record 0x1ab-0x1b2.7 (8)
0x1a0|                                 0d 2b 0b 85   |           .+.. |        occur: "1977-01-01T00:00:05Z" (220924805) 0x1ab-0x1ae.7 (4)
0x1a0|                                             00|               .|        corr: 6 0x1af-0x1b2.7 (4)
0x1b0|00 00 06                                       |...             |
     |                                               |                |      [6]{}: leap_second_record 0x1b3-0x1ba.7 (8)
0x1b0|         0f 0c 3f 06                           |   ..?.         |        occur: "1978-01-01T00:00:06Z" (252460806) 0x1b3-0x1b6.7 (4)
0x1b0|                     00 00 00 07               |       ....     |        corr: 7 0x1b7-0x1ba.7 (4)
     |                                               |                |      [7]{}: leap_second_record 0x1bb-0x1c2.7 (8)
0x1b0|                                 10 ed 72 87   |           ..r. |        occur: "1979-01-01T00:00:07Z" (283996807) 0x1bb-0x1be.7 (4)
0x1b0|                                             00|               .|        corr: 8 0x1bf-0x1c2.7 (4)
0x1c0|00 00 08                                       |...             |
     |                                               |                |      [8]{}: leap_second_record 0x1c3-0x1ca.7 (8)
0x1c0|         12 ce a6 08                           |   ....         |        occur: "1980-01-01T00:00:08Z" (315532808) 0x1c3-0x1c6.7 (4)
0x1c0|                     00 00 00 09               |       ....     |        corr: 9 0x1c7-0x1ca.7 (4)
     |                                               |                |      [9]{}: leap_second_record 0x1cb-0x1d2.7 (8)
0x1c0|                                 15 9f ca 89   |           .... |        occur: "1981-07-01T00:00:09Z" (362793609) 0x1cb-0x1ce.7 (4)
0x1c0|                                             00|               .|        corr: 10 0x1cf-0x1d2.7 (4)
0x1d0|00 00 0a                                       |...             |
     |                                               |                |      [10]{}: leap_second_record 0x1d3-0x1da.7 (8)
0x1d0|         17 80 fe 0a                           |   ....         |        occur: "1982-07-01T00:00:10Z" (394329610) 0x1d3-0x1d6.7 (4)
0x1d0|                     00 00 00 0b               |       ....     |        corr: 11 0x1d7-0x1da.7 (4)
     |                                               |                |      [11]{}: leap_second_record 0x1db-0x1e2.7 (8)
0x1d0|                                 19 62 31 8b   |           .b1. |        occur: "1983-07-01T00:00:11Z" (425865611) 0x1db-0x1de.7 (4)
0x1d0|                                             00|               .|        corr: 12 0x1df-0x1e2.7 (4)
0x1e0|00 00 0c                                       |...             |
     |                                               |                |      [12]{}: leap_second_record 0x1e3-0x1ea.7 (8)
0x1e0|         1d 25 ea 0c                           |   .%..         |        occur: "1985-07-01T00:00:12Z" (489024012) 0x1e3-0x1e6.7 (4)
0x1e0|                     00 00 00 0d               |       ....     |        corr: 13 0x1e7-0x1ea.7 (4)
     |                                               |                |      [13]{}: leap_second_record 0x1eb-0x1f2.7 (8)
0x1e0|                                 21 da e5 0d   |           !... |        occur: "1988-01-01T00:00:13Z" (567993613) 0x1eb-0x1ee.7 (4)
0x1e0|                                             00|               .|        corr: 14 0x1ef-0x1f2.7 (4)
0x1f0|00 00 0e                                       |...             |
     |                                               |                |      [14]{}: leap_second_record 0x1f3-0x1fa.7 (8)
0x1f0|         25 9e 9d 8e                           |   %...         |        occur: "1990-01-01T00:00:14Z" (631152014) 0x1f3-0x1f6.7 (4)
0x1f0|                     00 00 00 0f               |       ....     |        corr: 15 0x1f7-0x1fa.7 (4)
     |                                               |                |      [15]{}: leap_second_record 0x1fb-0x202.7 (8)
0x1f0|                                 27 7f d1 0f   |           '... |        occur: "1991-01-01T00:00:15Z" (662688015) 0x1fb-0x1fe.7 (4)
0x1f0|                                             00|               .|        corr: 16 0x1ff-0x202.7 (4)
0x200|00 00 10                                       |...             |
     |                                               |                |      [16]{}: leap_second_record 0x203-0x20a.7 (8)
0x200|         2a 50 f5 90                           |   *P..         |        occur: "1992-07-01T00:00:16Z" (709948816) 0x203-0x206.7 (4)
0x200|                     00 00 00 11               |       ....     |        corr: 17 0x207-0x20a.7 (4)
     |                                               |                |      [17]{}: leap_second_record 0x20b-0x212.7 (8)
0x200|                                 2c 32 29 11   |           ,2). |        occur: "1993-07-01T00:00:17Z" (741484817) 0x20b-0x20e.7 (4)
0x200|                                             00|               .|        corr: 18 0x20f-0x212.7 (4)
0x210|00 00 12                                       |...             |
     |                                               |                |      [18]{}: leap_second_record 0x213-0x21a.7 (8)
0x210|         2e 13 5c 92                           |   ..\.         |        occur: "1994-07-01T00:00:18Z" (773020818) 0x213-0x216.7 (4)
0x210|                     00 00 00 13               |       ....     |        corr: 19 0x217-0x21a.7 (4)
     |                                               |                |      [19]{}: leap_second_record 0x21b-0x222.7 (8)
0x210|                                 30 e7 24 13   |           0.$. |        occur: "1996-01-01T00:00:19Z" (820454419) 0x21b-0x21e.7 (4)
0x210|                                             00|               .|        corr: 20 0x21f-0x222.7 (4)
0x220|00 00 14                                       |...             |
     |                                               |                |      [20]{}: leap_second_record 0x223-0x22a.7 (8)
0x220|         33 b8 48 94                           |   3.H.         |        occur: "1997-07-01T00:00:20Z" (867715220) 0x223-0x226.7 (4)
0x220|                     00 00 00 15               |       ....     |        corr: 21 0x227-0x22a.7 (4)
     |                                               |                |      [21]{}: leap_second_record 0x22b-0x232.7 (8)
0x220|                                 36 8c 10 15   |           6... |        occur: "1999-01-01T00:00:21Z" (915148821) 0x22b-0x22e.7 (4)
0x220|                                             00|               .|        corr: 22 0x22f-0x232.7 (4)
0x230|00 00 16                                       |...             |
     |                                               |                |      [22]{}: leap_second_record 0x233-0x23a.7 (8)
0x230|         43 b7 1b 96                           |   C...         |        occur: "2006-01-01T00:00:22Z" (1136073622) 0x233-0x236.7 (4)
0x230|                     00 00 00 17               |       ....     |        corr: 23 0x237-0x23a.7 (4)
     |                                               |                |      [23]{}: leap_second_record 0x23b-0x242.7 (8)
0x230|                                 49 5c 07 97   |           I\.. |        occur: "2009-01-01T00:00:23Z" (1230768023) 0x23b-0x23e.7 (4)
0x230|                                             00|               .|        corr: 24 0x23f-0x242.7 (4)
0x240|00 00 18                                       |...             |
     |                                               |                |      [24]{}: leap_second_record 0x243-0x24a.7 (8)
0x240|         4f ef 93 18                           |   O...         |        occur: "2012-07-01T00:00:24Z" (1341100824) 0x243-0x246.7 (4)
0x240|                     00 00 00 19               |       ....     |        corr: 25 0x247-0x24a.7 (4)
     |                                               |                |      [25]{}: leap_second_record 0x24b-0x252.7 (8)
0x240|                                 55 93 2d 99   |           U.-. |        occur: "2015-07-01T00:00:25Z" (1435708825) 0x24b-0x24e.7 (4)
0x240|                                             00|               .|        corr: 26 0x24f-0x252.7 (4)
0x250|00 00 1a                                       |...             |
     |                                               |                |      [26]{}: leap_second_record 0x253-0x25a.7 (8)
0x250|         58 68 46 9a                           |   XhF.         |        occur: "2017-01-01T00:00:26Z" (1483228826) 0x253-0x256.7 (4)
0x250|                     00 00 00 1b               |       ....     |        corr: 27 0x257-0x25a.7 (4)
     |                                               |                |    standard_wall_indicators[0:6]: 0x25b-0x260.7 (6)
0x250|                                 00            |           .    |      [0]: 0 standard_wall_indicator (valid) 0x25b-0x25b.7 (1)
0x250|                                    00         |            .   |      [1]: 0 standard_wall_indicator (valid) 0x25c-0x25c.7 (1)
0x250|                                       00      |             .  |      [2]: 0 standard_wall_indicator (valid) 0x25d-0x25d.7 (1)
0x250|                                          00   |              . |      [3]: 0 standard_wall_indicator (valid) 0x25e-0x25e.7 (1)
0x250|                                             01|               .|      [4]: 1 standard_wall_indicator (valid) 0x25f-0x25f.7 (1)
0x260|01                                             |.               |      [5]: 1 standard_wall_indicator (valid) 0x260-0x260.7 (1)
     |                                               |                |    ut_local_indicators[0:0]: 0x261-NA (0)
     |                                               |                |  v2plusheader{}: 0x261-0x28c.7 (44)
0x260|   54 5a 69 66                                 | TZif           |    magic: 0x545a6966 (valid) 0x261-0x264.7 (4)
0x260|               32                              |     2          |    ver: "2" (0x32) (valid) 0x265-0x265.7 (1)
0x260|                  00 00 00 00 00 00 00 00 00 00|      ..........|    reserved: raw bits 0x266-0x274.7 (15)
0x270|00 00 00 00 00                                 |.....           |
0x270|               00 00 00 00                     |     ....       |    isutcnt: 0 0x275-0x278.7 (4)
0x270|                           00 00 00 06         |         ....   |    isstdcnt: 6 0x279-0x27c.7 (4)
0x270|                                       00 00 00|             ...|    leapcnt: 27 0x27d-0x280.7 (4)
0x280|1b                                             |.               |
0x280|   00 00 00 3a                                 | ...:           |    timecnt: 58 0x281-0x284.7 (4)
0x280|               00 00 00 06                     |     ....       |    typecnt: 6 0x285-0x288.7 (4)
0x280|                           00 00 00 11         |         ....   |    charcnt: 17 0x289-0x28c.7 (4)
     |                                               |                |  v2plusdatablock{}: 0x28d-0x615.7 (905)
     |                                               |                |    transition_times[0:58]: 0x28d-0x45c.7 (464)
0x280|                                       ff ff ff|             ...|      [0]: "1890-01-01T04:49:20Z" (-2524504240) transition_time 0x28d-0x294.7 (8)
0x290|ff 69 87 1f 50                                 |.i..P           |
0x290|               ff ff ff ff 9c 6e 71 fc         |     .....nq.   |      [1]: "1917-01-24T16:49:00Z" (-1670483460) transition_time 0x295-0x29c.7 (8)
0x290|                                       00 00 00|             ...|      [2]: "1983-05-08T05:00:11Z" (421218011) transition_time 0x29d-0x2a4.7 (8)
0x2a0|00 19 1b 46 db                                 |...F.           |
0x2a0|               00 00 00 00 1a 01 ef 4c         |     .......L   |      [3]: "1983-10-30T04:00:12Z" (436334412) transition_time 0x2a5-0x2ac.7 (8)
0x2a0|                                       00 00 00|             ...|      [4]: "1984-04-29T05:00:12Z" (452062812) transition_time 0x2ad-0x2b4.7 (8)
0x2b0|00 1a f1 ee 5c                                 |....\           |
0x2b0|               00 00 00 00 1b e1 d1 4c         |     .......L   |      [5]: "1984-10-28T04:00:12Z" (467784012) transition_time 0x2b5-0x2bc.7 (8)
0x2b0|                                       00 00 00|             ...|      [6]: "1985-04-28T05:00:12Z" (483512412) transition_time 0x2bd-0x2c4.7 (8)
0x2c0|00 1c d1 d0 5c                                 |....\           |
0x2c0|               00 00 00 00 1d c1 b3 4d         |     .......M   |      [7]: "1985-10-27T04:00:13Z" (499233613) transition_time 0x2c5-0x2cc.7 (8)
0x2c0|                                       00 00 00|             ...|      [8]: "1986-04-27T05:00:13Z" (514962013) transition_time 0x2cd-0x2d4.7 (8)
0x2d0|00 1e b1 b2 5d                                 |....]           |
0x2d0|               00 00 00 00 1f a1 95 4d         |     .......M   |      [9]: "1986-10-26T04:00:13Z" (530683213) transition_time 0x2d5-0x2dc.7 (8)
0x2d0|                                       00 00 00|             ...|      [10]: "1987-04-26T05:00:13Z" (546411613) transition_time 0x2dd-0x2e4.7 (8)
0x2e0|00 20 91 94 5d                                 |. ..]           |
0x2e0|               00 00 00 00 21 81 77 4d         |     ....!.wM   |      [11]: "1987-10-25T04:00:13Z" (562132813) transition_time 0x2e5-0x2ec.7 (8)
0x2e0|                                       00 00 00|             ...|      [12]: "1988-04-03T06:00:14Z" (576050414) transition_time 0x2ed-0x2f4.7 (8)
0x2f0|00 22 55 d4 ee                                 |."U..           |
0x2f0|               00 00 00 00 23 6a af ee         |     ....#j..   |      [13]: "1988-10-30T06:00:14Z" (594194414) transition_time 0x2f5-0x2fc.7 (8)
0x2f0|                                       00 00 00|             ...|      [14]: "1989-04-02T06:00:14Z" (607500014) transition_time 0x2fd-0x304.7 (8)
0x300|00 24 35 b6 ee                                 |.$5..           |
0x300|               00 00 00 00 25 4a 91 ee         |     ....%J..   |      [15]: "1989-10-29T06:00:14Z" (625644014) transition_time 0x305-0x30c.7 (8)
0x300|                                       00 00 00|             ...|      [16]: "1990-04-01T06:00:15Z" (638949615) transition_time 0x30d-0x314.7 (8)
0x310|00 26 15 98 ef                                 |.&...           |
0x310|               00 00 00 00 27 2a 73 ef         |     ....'*s.   |      [17]: "1990-10-28T06:00:15Z" (657093615) transition_time 0x315-0x31c.7 (8)
0x310|                                       00 00 00|             ...|      [18]: "1991-04-07T06:00:16Z" (671004016) transition_time 0x31d-0x324.7 (8)
0x320|00 27 fe b5 70                                 |.'..p           |
0x320|               00 00 00 00 29 0a 55 f0         |     ....).U.   |      [19]: "1991-10-27T06:00:16Z" (688543216) transition_time 0x325-0x32c.7 (8)
0x320|                                       00 00 00|             ...|      [20]: "1992-04-05T06:00:16Z" (702453616) transition_time 0x32d-0x334.7 (8)
0x330|00 29 de 97 70                                 |.)..p           |
0x330|               00 00 00 00 2a ea 37 f1         |     ....*.7.   |      [21]: "1992-10-25T06:00:17Z" (719992817) transition_time 0x335-0x33c.7 (8)
0x330|                                       00 00 00|             ...|      [22]: "1993-04-04T06:00:17Z" (733903217) transition_time 0x33d-0x344.7 (8)
0x340|00 2b be 79 71                                 |.+.yq           |
0x340|               00 00 00 00 2c d3 54 72         |     ....,.Tr   |      [23]: "1993-10-31T06:00:18Z" (752047218) transition_time 0x345-0x34c.7 (8)
0x340|                                       00 00 00|             ...|      [24]: "1994-04-03T06:00:18Z" (765352818) transition_time 0x34d-0x354.7 (8)
0x350|00 2d 9e 5b 72                                 |.-.[r           |
0x350|               00 00 00 00 2e b3 36 73         |     ......6s   |      [25]: "1994-10-30T06:00:19Z" (783496819) transition_time 0x355-0x35c.7 (8)
0x350|                                       00 00 00|             ...|      [26]: "1995-04-02T06:00:19Z" (796802419) transition_time 0x35d-0x364.7 (8)
0x360|00 2f 7e 3d 73                                 |./~=s           |
0x360|               00 00 00 00 30 93 18 73         |     ....0..s   |      [27]: "1995-10-29T06:00:19Z" (814946419) transition_time 0x365-0x36c.7 (8)
0x360|                                       00 00 00|             ...|      [28]: "1996-04-07T06:00:20Z" (828856820) transition_time 0x36d-0x374.7 (8)
0x370|00 31 67 59 f4                                 |.1gY.           |
0x370|               00 00 00 00 32 72 fa 74         |     ....2r.t   |      [29]: "1996-10-27T06:00:20Z" (846396020) transition_time 0x375-0x37c.7 (8)
0x370|                                       00 00 00|             ...|      [30]: "1997-04-06T06:00:20Z" (860306420) transition_time 0x37d-0x384.7 (8)
0x380|00 33 47 3b f4                                 |.3G;.           |
0x380|               00 00 00 00 34 52 dc 75         |     ....4R.u   |      [31]: "1997-10-26T06:00:21Z" (877845621) transition_time 0x385-0x38c.7 (8)
0x380|                                       00 00 00|             ...|      [32]: "2005-04-03T05:00:22Z" (1112504422) transition_time 0x38d-0x394.7 (8)
0x390|00 42 4f 78 66                                 |.BOxf           |
0x390|               00 00 00 00 43 64 45 56         |     ....CdEV   |      [33]: "2005-10-30T04:00:22Z" (1130644822) transition_time 0x395-0x39c.7 (8)
0x390|                                       00 00 00|             ...|      [34]: "2006-04-02T05:00:23Z" (1143954023) transition_time 0x39d-0x3a4.7 (8)
0x3a0|00 44 2f 5a 67                                 |.D/Zg           |
0x3a0|               00 00 00 00 45 44 27 57         |     ....ED'W   |      [35]: "2006-10-29T04:00:23Z" (1162094423) transition_time 0x3a5-0x3ac.7 (8)
0x3a0|                                       00 00 00|             ...|      [36]: "2012-03-11T07:00:24Z" (1331449224) transition_time 0x3ad-0x3b4.7 (8)
0x3b0|00 4f 5c 4d 88                                 |.O\M.           |
0x3b0|               00 00 00 00 50 96 04 79         |     ....P..y   |      [37]: "2012-11-04T06:00:25Z" (1352008825) transition_time 0x3b5-0x3bc.7 (8)
0x3b0|                                       00 00 00|             ...|      [38]: "2013-03-10T07:00:25Z" (1362898825) transition_time 0x3bd-0x3c4.7 (8)
0x3c0|00 51 3c 2f 89                                 |.Q</.           |
0x3c0|               00 00 00 00 52 75 e6 79         |     ....Ru.y   |      [39]: "2013-11-03T06:00:25Z" (1383458425) transition_time 0x3c5-0x3cc.7 (8)
0x3c0|                                       00 00 00|             ...|      [40]: "2014-03-09T07:00:25Z" (1394348425) transition_time 0x3cd-0x3d4.7 (8)
0x3d0|00 53 1c 11 89                                 |.S...           |
0x3d0|               00 00 00 00 54 55 c8 79         |     ....TU.y   |      [41]: "2014-11-02T06:00:25Z" (1414908025) transition_time 0x3d5-0x3dc.7 (8)
0x3d0|                                       00 00 00|             ...|      [42]: "2015-03-08T07:00:25Z" (1425798025) transition_time 0x3dd-0x3e4.7 (8)
0x3e0|00 54 fb f3 89                                 |.T...           |
0x3e0|               00 00 00 00 56 35 aa 7a         |     ....V5.z   |      [43]: "2015-11-01T06:00:26Z" (1446357626) transition_time 0x3e5-0x3ec.7 (8)
0x3e0|                                       00 00 00|             ...|      [44]: "2017-03-12T07:00:27Z" (1489302027) transition_time 0x3ed-0x3f4.7 (8)
0x3f0|00 58 c4 f2 0b                                 |.X...           |
0x3f0|               00 00 00 00 59 fe a8 fb         |     ....Y...   |      [45]: "2017-11-05T06:00:27Z" (1509861627) transition_time 0x3f5-0x3fc.7 (8)
0x3f0|                                       00 00 00|             ...|      [46]: "2018-03-11T07:00:27Z" (1520751627) transition_time 0x3fd-0x404.7 (8)
0x400|00 5a a4 d4 0b                                 |.Z...           |
0x400|               00 00 00 00 5b de 8a fb         |     ....[...   |      [47]: "2018-11-04T06:00:27Z" (1541311227) transition_time 0x405-0x40c.7 (8)
0x400|                                       00 00 00|             ...|      [48]: "2019-03-10T07:00:27Z" (1552201227) transition_time 0x40d-0x414.7 (8)
0x410|00 5c 84 b6 0b                                 |.\...           |
0x410|               00 00 00 00 5d be 6c fb         |     ....].l.   |      [49]: "2019-11-03T06:00:27Z" (1572760827) transition_time 0x415-0x41c.7 (8)
0x410|                                       00 00 00|             ...|      [50]: "2020-03-08T07:00:27Z" (1583650827) transition_time 0x41d-0x424.7 (8)
0x420|00 5e 64 98 0b                                 |.^d..           |
0x420|               00 00 00 00 5f 9e 4e fb         |     ...._.N.   |      [51]: "2020-11-01T06:00:27Z" (1604210427) transition_time 0x425-0x42c.7 (8)
0x420|                                       00 00 00|             ...|      [52]: "2021-03-14T07:00:27Z" (1615705227) transition_time 0x42d-0x434.7 (8)
0x430|00 60 4d b4 8b                                 |.`M..           |
0x430|               00 00 00 00 61 87 6b 7b         |     ....a.k{   |      [53]: "2021-11-07T06:00:27Z" (1636264827) transition_time 0x435-0x43c.7 (8)
0x430|                                       00 00 00|             ...|      [54]: "2022-03-13T07:00:27Z" (1647154827) transition_time 0x43d-0x444.7 (8)
0x440|00 62 2d 96 8b                                 |.b-..           |
0x440|               00 00 00 00 63 67 4d 7b         |     ....cgM{   |      [55]: "2022-11-06T06:00:27Z" (1667714427) transition_time 0x445-0x44c.7 (8)
0x440|                                       00 00 00|             ...|      [56]: "2023-03-12T07:00:27Z" (1678604427) transition_time 0x44d-0x454.7 (8)
0x450|00 64 0d 78 8b                                 |.d.x.           |
0x450|               00 00 00 00 64 9b 78 1b         |     ....d.x.   |      [57]: "2023-06-28T00:00:27Z" (1687910427) transition_time 0x455-0x45c.7 (8)
     |                                               |                |    transition_types[0:58]: 0x45d-0x496.7 (58)
0x450|                                       01      |             .  |      [0]: 1 transition_type 0x45d-0x45d.7 (1)
0x450|                                          03   |              . |      [1]: 3 transition_type 0x45e-0x45e.7 (1)
0x450|                                             02|               .|      [2]: 2 transition_type 0x45f-0x45f.7 (1)
0x460|03                                             |.               |      [3]: 3 transition_type 0x460-0x460.7 (1)
0x460|   02                                          | .              |      [4]: 2 transition_type 0x461-0x461.7 (1)
0x460|      03                                       |  .             |      [5]: 3 transition_type 0x462-0x462.7 (1)
0x460|         02                                    |   .            |      [6]: 2 transition_type 0x463-0x463.7 (1)
0x460|            03                                 |    .           |      [7]: 3 transition_type 0x464-0x464.7 (1)
0x460|               02                              |     .          |      [8]: 2 transition_type 0x465-0x465.7 (1)
0x460|                  03                           |      .         |      [9]: 3 transition_type 0x466-0x466.7 (1)
0x460|                     02                        |       .        |      [10]: 2 transition_type 0x467-0x467.7 (1)
0x460|                        03                     |        .       |      [11]: 3 transition_type 0x468-0x468.7 (1)
0x460|                           04                  |         .      |      [12]: 4 transition_type 0x469-0x469.7 (1)
0x460|                              05               |          .     |      [13]: 5 transition_type 0x46a-0x46a.7 (1)
0x460|                                 04            |           .    |      [14]: 4 transition_type 0x46b-0x46b.7 (1)
0x460|                                    05         |            .   |      [15]: 5 transition_type 0x46c-0x46c.7 (1)
0x460|                                       04      |             .  |      [16]: 4 transition_type 0x46d-0x46d.7 (1)
0x460|                                          05   |              . |      [17]: 5 transition_type 0x46e-0x46e.7 (1)
0x460|                                             04|               .|      [18]: 4 transition_type 0x46f-0x46f.7 (1)
0x470|05                                             |.               |      [19]: 5 transition_type 0x470-0x470.7 (1)
0x470|   04                                          | .              |      [20]: 4 transition_type 0x471-0x471.7 (1)
0x470|      05                                       |  .             |      [21]: 5 transition_type 0x472-0x472.7 (1)
0x470|         04                                    |   .            |      [22]: 4 transition_type 0x473-0x473.7 (1)
0x470|            05                                 |    .           |      [23]: 5 transition_type 0x474-0x474.7 (1)
0x470|               04                              |     .          |      [24]: 4 transition_type 0x475-0x475.7 (1)
0x470|                  05                           |      .         |      [25]: 5 transition_type 0x476-0x476.7 (1)
0x470|                     04                        |       .        |      [26]: 4 transition_type 0x477-0x477.7 (1)
0x470|                        05                     |        .       |      [27]: 5 transition_type 0x478-0x478.7 (1)
0x470|                           04                  |         .      |      [28]: 4 transition_type 0x479-0x479.7 (1)
0x470|                              05               |          .     |      [29]: 5 transition_type 0x47a-0x47a.7 (1)
0x470|                                 04            |           .    |      [30]: 4 transition_type 0x47b-0x47b.7 (1)
0x470|                                    05         |            .   |      [31]: 5 transition_type 0x47c-0x47c.7 (1)
0x470|                                       02      |             .  |      [32]: 2 transition_type 0x47d-0x47d.7 (1)
0x470|                                          03   |              . |      [33]: 3 transition_type 0x47e-0x47e.7 (1)
0x470|                                             02|               .|      [34]: 2 transition_type 0x47f-0x47f.7 (1)
0x480|03                                             |.               |      [35]: 3 transition_type 0x480-0x480.7 (1)
0x480|   02                                          | .              |      [36]: 2 transition_type 0x481-0x481.7 (1)
0x480|      03                                       |  .             |      [37]: 3 transition_type 0x482-0x482.7 (1)
0x480|         02                                    |   .            |      [38]: 2 transition_type 0x483-0x483.7 (1)
0x480|            03                                 |    .           |      [39]: 3 transition_type 0x484-0x484.7 (1)
0x480|               02                              |     .          |      [40]: 2 transition_type 0x485-0x485.7 (1)
0x480|                  03                           |      .         |      [41]: 3 transition_type 0x486-0x486.7 (1)
0x480|                     02                        |       .        |      [42]: 2 transition_type 0x487-0x487.7 (1)
0x480|                        03                     |        .       |      [43]: 3 transition_type 0x488-0x488.7 (1)
0x480|                           02                  |         .      |      [44]: 2 transition_type 0x489-0x489.7 (1)
0x480|                              03               |          .     |      [45]: 3 transition_type 0x48a-0x48a.7 (1)
0x480|                                 02            |           .    |      [46]: 2 transition_type 0x48b-0x48b.7 (1)
0x480|                                    03         |            .   |      [47]: 3 transition_type 0x48c-0x48c.7 (1)
0x480|                                       02      |             .  |      [48]: 2 transition_type 0x48d-0x48d.7 (1)
0x480|                                          03   |              . |      [49]: 3 transition_type 0x48e-0x48e.7 (1)
0x480|                                             02|               .|      [50]: 2 transition_type 0x48f-0x48f.7 (1)
0x490|03                                             |.               |      [51]: 3 transition_type 0x490-0x490.7 (1)
0x490|   02                                          | .              |      [52]: 2 transition_type 0x491-0x491.7 (1)
0x490|      03                                       |  .             |      [53]: 3 transition_type 0x492-0x492.7 (1)
0x490|         02                                    |   .            |      [54]: 2 transition_type 0x493-0x493.7 (1)
0x490|            03                                 |    .           |      [55]: 3 transition_type 0x494-0x494.7 (1)
0x490|               02                              |     .          |      [56]: 2 transition_type 0x495-0x495.7 (1)
0x490|                  02                           |      .         |      [57]: 2 transition_type 0x496-0x496.7 (1)
     |                                               |                |    local_time_type_records[0:6]: 0x497-0x4ba.7 (36)
     |                                               |                |      [0]{}: local_time_type 0x497-0x49c.7 (6)
0x490|                     ff ff bc 30               |       ...0     |        utoff: -17360 (valid) 0x497-0x49a.7 (4)
0x490|                                 00            |           .    |        dst: 0 (valid) 0x49b-0x49b.7 (1)
0x490|                                    00         |            .   |        idx: 0 (valid) 0x49c-0x49c.7 (1)
     |                                               |                |      [1]{}: local_time_type 0x49d-0x4a2.7 (6)
0x490|                                       ff ff bc|             ...|        utoff: -17340 (valid) 0x49d-0x4a0.7 (4)
0x4a0|44                                             |D               |
0x4a0|   00                                          | .              |        dst: 0 (valid) 0x4a1-0x4a1.7 (1)
0x4a0|      04                                       |  .             |        idx: 4 (valid) 0x4a2-0x4a2.7 (1)
     |                                               |                |      [2]{}: local_time_type 0x4a3-0x4a8.7 (6)
0x4a0|         ff ff c7 c0                           |   ....         |        utoff: -14400 (valid) 0x4a3-0x4a6.7 (4)
0x4a0|                     01                        |       .        |        dst: 1 (valid) 0x4a7-0x4a7.7 (1)
0x4a0|                        09                     |        .       |        idx: 9 (valid) 0x4a8-0x4a8.7 (1)
     |                                               |                |      [3]{}: local_time_type 0x4a9-0x4ae.7 (6)
0x4a0|                           ff ff b9 b0         |         ....   |        utoff: -18000 (valid) 0x4a9-0x4ac.7 (4)
0x4a0|                                       00      |             .  |        dst: 0 (valid) 0x4ad-0x4ad.7 (1)
0x4a0|                                          0d   |              . |        idx: 13 (valid) 0x4ae-0x4ae.7 (1)
     |                                               |                |      [4]{}: local_time_type 0x4af-0x4b4.7 (6)
0x4a0|                                             ff|               .|        utoff: -14400 (valid) 0x4af-0x4b2.7 (4)
0x4b0|ff c7 c0                                       |...             |
0x4b0|         01                                    |   .            |        dst: 1 (valid) 0x4b3-0x4b3.7 (1)
0x4b0|            09                                 |    .           |        idx: 9 (valid) 0x4b4-0x4b4.7 (1)
     |                                               |                |      [5]{}: local_time_type 0x4b5-0x4ba.7 (6)
0x4b0|               ff ff b9 b0                     |     ....       |        utoff: -18000 (valid) 0x4b5-0x4b8.7 (4)
0x4b0|                           00                  |         .      |        dst: 0 (valid) 0x4b9-0x4b9.7 (1)
0x4b0|                              0d               |          .     |        idx: 13 (valid) 0x4ba-0x4ba.7 (1)
     |                                               |                |    time_zone_designations[0:4]: 0x4bb-0x4cb.7 (17)
0x4b0|                                 4c 4d 54 00   |           LMT. |      [0]: "LMT" time_zone_designation 0x4bb-0x4be.7 (4)
0x4b0|                                             50|               P|      [1]: "PPMT" time_zone_designation 0x4bf-0x4c3.7 (5)
0x4c0|50 4d 54 00                                    |PMT.            |
0x4c0|            45 44 54 00                        |    EDT.        |      [2]: "EDT" time_zone_designation 0x4c4-0x4c7.7 (4)
0x4c0|                        45 53 54 00            |        EST.    |      [3]: "EST" time_zone_designation 0x4c8-0x4cb.7 (4)
     |                                               |                |    leap_second_records[0:27]: 0x4cc-0x60f.7 (324)
     |                                               |                |      [0]{}: leap_second_record 0x4cc-0x4d7.7 (12)
0x4c0|                                    00 00 00 00|            ....|        occur: "1972-07-01T00:00:00Z" (78796800) 0x4cc-0x4d3.7 (8)
0x4d0|04 b2 58 00                                    |..X.            |
0x4d0|            00 00 00 01                        |    ....        |        corr: 1 0x4d4-0x4d7.7 (4)
     |                                               |                |      [1]{}: leap_second_record 0x4d8-0x4e3.7 (12)
0x4d0|                        00 00 00 00 05 a4 ec 01|        ........|        occur: "1973-01-01T00:00:01Z" (94694401) 0x4d8-0x4df.7 (8)
0x4e0|00 00 00 02                                    |....            |        corr: 2 0x4e0-0x4e3.7 (4)
     |                                               |                |      [2]{}: leap_second_record 0x4e4-0x4ef.7 (12)
0x4e0|            00 00 00 00 07 86 1f 82            |    ........    |        occur: "1974-01-01T00:00:02Z" (126230402) 0x4e4-0x4eb.7 (8)
0x4e0|                                    00 00 00 03|            ....|        corr: 3 0x4ec-0x4ef.7 (4)
     |                                               |                |      [3]{}: leap_second_record 0x4f0-0x4fb.7 (12)
0x4f0|00 00 00 00 09 67 53 03                        |.....gS.        |        occur: "1975-01-01T00:00:03Z" (157766403) 0x4f0-0x4f7.7 (8)
0x4f0|                        00 00 00 04            |        ....    |        corr: 4 0x4f8-0x4fb.7 (4)
     |                                               |                |      [4]{}: leap_second_record 0x4fc-0x507.7 (12)
0x4f0|                                    00 00 00 00|            ....|        occur: "1976-01-01T00:00:04Z" (189302404) 0x4fc-0x503.7 (8)
0x500|0b 48 86 84                                    |.H..            |
0x500|            00 00 00 05                        |    ....        |        corr: 5 0x504-0x507.7 (4)
     |                                               |                |      [5]{}: leap_second_record 0x508-0x513.7 (12)
0x500|                        00 00 00 00 0d 2b 0b 85|        .....+..|        occur: "1977-01-01T00:00:05Z" (220924805) 0x508-0x50f.7 (8)
0x510|00 00 00 06                                    |....            |        corr: 6 0x510-0x513.7 (4)
     |                                               |                |      [6]{}: leap_second_record 0x514-0x51f.7 (12)
0x510|            00 00 00 00 0f 0c 3f 06            |    ......?.    |        occur: "1978-01-01T00:00:06Z" (252460806) 0x514-0x51b.7 (8)
0x510|                                    00 00 00 07|            ....|        corr: 7 0x51c-0x51f.7 (4)
     |                                               |                |      [7]{}: leap_second_record 0x520-0x52b.7 (12)
0x520|00 00 00 00 10 ed 72 87                        |......r.        |        occur: "1979-01-01T00:00:07Z" (283996807) 0x520-0x527.7 (8)
0x520|                        00 00 00 08            |        ....    |        corr: 8 0x528-0x52b.7 (4)
     |                                               |                |      [8]{}: leap_second_record 0x52c-0x537.7 (12)
0x520|                                    00 00 00 00|            ....|        occur: "1980-01-01T00:00:08Z" (315532808) 0x52c-0x533.7 (8)
0x530|12 ce a6 08                                    |....            |
0x530|            00 00 00 09                        |    ....        |        corr: 9 0x534-0x537.7 (4)
     |                                               |                |      [9]{}: leap_second_record 0x538-0x543.7 (12)
0x530|                        00 00 00 00 15 9f ca 89|        ........|        occur: "1981-07-01T00:00:09Z" (362793609) 0x538-0x53f.7 (8)
0x540|00 00 00 0a                                    |....            |        corr: 10 0x540-0x543.7 (4)
     |                                               |                |      [10]{}: leap_second_record 0x544-0x54f.7 (12)
0x540|            00 00 00 00 17 80 fe 0a            |    ........    |        occur: "1982-07-01T00:00:10Z" (394329610) 0x544-0x54b.7 (8)
0x540|                                    00 00 00 0b|            ....|        corr: 11 0x54c-0x54f.7 (4)
     |                                               |                |      [11]{}: leap_second_record 0x550-0x55b.7 (12)
0x550|00 00 00 00 19 62 31 8b                        |.....b1.        |        occur: "1983-07-01T00:00:11Z" (425865611) 0x550-0x557.7 (8)
0x550|                        00 00 00 0c            |        ....    |        corr: 12 0x558-0x55b.7 (4)
     |                                               |                |      [12]{}: leap_second_record 0x55c-0x567.7 (12)
0x550|                                    00 00 00 00|            ....|        occur: "1985-07-01T00:00:12Z" (489024012) 0x55c-0x563.7 (8)
0x560|1d 25 ea 0c                                    |.%..            |
0x560|            00 00 00 0d                        |    ....        |        corr: 13 0x564-0x567.7 (4)
     |                                               |                |      [13]{}: leap_second_record 0x568-0x573.7 (12)
0x560|                        00 00 00 00 21 da e5 0d|        ....!...|        occur: "1988-01-01T00:00:13Z" (567993613) 0x568-0x56f.7 (8)
0x570|00 00 00 0e                                    |....            |        corr: 14 0x570-0x573.7 (4)
     |                                               |                |      [14]{}: leap_second_record 0x574-0x57f.7 (12)
0x570|            00 00 00 00 25 9e 9d 8e            |    ....%...    |        occur: "1990-01-01T00:00:14Z" (631152014) 0x574-0x57b.7 (8)
0x570|                                    00 00 00 0f|            ....|        corr: 15 0x57c-0x57f.7 (4)
     |                                               |                |      [15]{}: leap_second_record 0x580-0x58b.7 (12)
0x580|00 00 00 00 27 7f d1 0f                        |....'...        |        occur: "1991-01-01T00:00:15Z" (662688015) 0x580-0x587.7 (8)
0x580|                        00 00 00 10            |        ....    |        corr: 16 0x588-0x58b.7 (4)
     |                                               |                |      [16]{}: leap_second_record 0x58c-0x597.7 (12)
0x580|                                    00 00 00 00|            ....|        occur: "1992-07-01T00:00:16Z" (709948816) 0x58c-0x593.7 (8)
0x590|2a 50 f5 90                                    |*P..            |
0x590|            00 00 00 11                        |    ....        |        corr: 17 0x594-0x597.7 (4)
     |                                               |                |      [17]{}: leap_second_record 0x598-0x5a3.7 (12)
0x590|                        00 00 00 00 2c 32 29 11|        ....,2).|        occur: "1993-07-01T00:00:17Z" (741484817) 0x598-0x59f.7 (8)
0x5a0|00 00 00 12                                    |....            |        corr: 18 0x5a0-0x5a3.7 (4)
     |                                               |                |      [18]{}: leap_second_record 0x5a4-0x5af.7 (12)
0x5a0|            00 00 00 00 2e 13 5c 92            |    ......\.    |        occur: "1994-07-01T00:00:18Z" (773020818) 0x5a4-0x5ab.7 (8)
0x5a0|                                    00 00 00 13|            ....|        corr: 19 0x5ac-0x5af.7 (4)
     |                                               |                |      [19]{}: leap_second_record 0x5b0-0x5bb.7 (12)
0x5b0|00 00 00 00 30 e7 24 13                        |....0.$.        |        occur: "1996-01-01T00:00:19Z" (820454419) 0x5b0-0x5b7.7 (8)
0x5b0|                        00 00 00 14            |        ....    |        corr: 20 0x5b8-0x5bb.7 (4)
     |                                               |                |      [20]{}: leap_second_record 0x5bc-0x5c7.7 (12)
0x5b0|                                    00 00 00 00|            ....|        occur: "1997-07-01T00:00:20Z" (867715220) 0x5bc-0x5c3.7 (8)
0x5c0|33 b8 48 94                                    |3.H.            |
0x5c0|            00 00 00 15                        |    ....        |        corr: 21 0x5c4-0x5c7.7 (4)
     |                                               |                |      [21]{}: leap_second_record 0x5c8-0x5d3.7 (12)
0x5c0|                        00 00 00 00 36 8c 10 15|        ....6...|        occur: "1999-01-01T00:00:21Z" (915148821) 0x5c8-0x5cf.7 (8)
0x5d0|00 00 00 16                                    |....            |        corr: 22 0x5d0-0x5d3.7 (4)
     |                                               |                |      [22]{}: leap_second_record 0x5d4-0x5df.7 (12)
0x5d0|            00 00 00 00 43 b7 1b 96            |    ....C...    |        occur: "2006-01-01T00:00:22Z" (1136073622) 0x5d4-0x5db.7 (8)
0x5d0|                                    00 00 00 17|            ....|        corr: 23 0x5dc-0x5df.7 (4)
     |                                               |                |      [23]{}: leap_second_record 0x5e0-0x5eb.7 (12)
0x5e0|00 00 00 00 49 5c 07 97                        |....I\..        |        occur: "2009-01-01T00:00:23Z" (1230768023) 0x5e0-0x5e7.7 (8)
0x5e0|                        00 00 00 18            |        ....    |        corr: 24 0x5e8-0x5eb.7 (4)
     |                                               |                |      [24]{}: leap_second_record 0x5ec-0x5f7.7 (12)
0x5e0|                                    00 00 00 00|            ....|        occur: "2012-07-01T00:00:24Z" (1341100824) 0x5ec-0x5f3.7 (8)
0x5f0|4f ef 93 18                                    |O...            |
0x5f0|            00 00 00 19                        |    ....        |        corr: 25 0x5f4-0x5f7.7 (4)
     |                                               |                |      [25]{}: leap_second_record 0x5f8-0x603.7 (12)
0x5f0|                        00 00 00 00 55 93 2d 99|        ....U.-.|        occur: "2015-07-01T00:00:25Z" (1435708825) 0x5f8-0x5ff.7 (8)
0x600|00 00 00 1a                                    |....            |        corr: 26 0x600-0x603.7 (4)
     |                                               |                |      [26]{}: leap_second_record 0x604-0x60f.7 (12)
0x600|            00 00 00 00 58 68 46 9a            |    ....XhF.    |        occur: "2017-01-01T00:00:26Z" (1483228826) 0x604-0x60b.7 (8)
0x600|                                    00 00 00 1b|            ....|        corr: 27 0x60c-0x60f.7 (4)
     |                                               |                |    standard_wall_indicators[0:6]: 0x610-0x615.7 (6)
0x610|00                                             |.               |      [0]: 0 standard_wall_indicator (valid) 0x610-0x610.7 (1)
0x610|   00                                          | .              |      [1]: 0 standard_wall_indicator (valid) 0x611-0x611.7 (1)
0x610|      00                                       |  .             |      [2]: 0 standard_wall_indicator (valid) 0x612-0x612.7 (1)
0x610|         00                                    |   .            |      [3]: 0 standard_wall_indicator (valid) 0x613-0x613.7 (1)
0x610|            01                                 |    .           |      [4]: 1 standard_wall_indicator (valid) 0x614-0x614.7 (1)
0x610|               01                              |     .          |      [5]: 1 standard_wall_indicator (valid) 0x615-0x615.7 (1)
     |                                               |                |    ut_local_indicators[0:0]: 0x616-NA (0)
     |                                               |                |  footer{}: 0x616-0x617.7 (2)
0x610|                  0a                           |      .         |    nl1: 10 (valid) 0x616-0x616.7 (1)
     |                                               |                |    tz_string: "" 0x617-NA (0)
0x610|                     0a|                       |       .|       |    nl2: 10 (valid) 0x617-0x617.7 (1)
