$ fq -d tzif dv Prague
     |00 01 02 03 04 05 06 07 08 09 0a 0b 0c 0d 0e 0f|0123456789abcdef|.{}: Prague (tzif) 0x0-0x8fc.7 (2301)
     |                                               |                |  v1header{}: 0x0-0x2b.7 (44)
0x000|54 5a 69 66                                    |TZif            |    magic: 0x545a6966 (valid) 0x0-0x3.7 (4)
0x000|            32                                 |    2           |    ver: "2" (0x32) (valid) 0x4-0x4.7 (1)
0x000|               00 00 00 00 00 00 00 00 00 00 00|     ...........|    reserved: raw bits 0x5-0x13.7 (15)
0x010|00 00 00 00                                    |....            |
0x010|            00 00 00 08                        |    ....        |    isutcnt: 8 0x14-0x17.7 (4)
0x010|                        00 00 00 08            |        ....    |    isstdcnt: 8 0x18-0x1b.7 (4)
0x010|                                    00 00 00 00|            ....|    leapcnt: 0 0x1c-0x1f.7 (4)
0x020|00 00 00 8f                                    |....            |    timecnt: 143 0x20-0x23.7 (4)
0x020|            00 00 00 08                        |    ....        |    typecnt: 8 0x24-0x27.7 (4)
0x020|                        00 00 00 11            |        ....    |    charcnt: 17 0x28-0x2b.7 (4)
     |                                               |                |  v1datablock{}: 0x2c-0x347.7 (796)
     |                                               |                |    transition_times[0:143]: 0x2c-0x267.7 (572)
0x020|                                    80 00 00 00|            ....|      [0]: "1901-12-13T20:45:52Z" (-2147483648) transition_time 0x2c-0x2f.7 (4)
0x030|9b 0c 17 60                                    |...`            |      [1]: "1916-04-30T22:00:00Z" (-1693706400) transition_time 0x30-0x33.7 (4)
0x030|            9b d5 da f0                        |    ....        |      [2]: "1916-09-30T23:00:00Z" (-1680483600) transition_time 0x34-0x37.7 (4)
0x030|                        9c d9 ae 90            |        ....    |      [3]: "1917-04-16T01:00:00Z" (-1663455600) transition_time 0x38-0x3b.7 (4)
0x030|                                    9d a4 b5 90|            ....|      [4]: "1917-09-17T01:00:00Z" (-1650150000) transition_time 0x3c-0x3f.7 (4)
0x040|9e b9 90 90                                    |....            |      [5]: "1918-04-15T01:00:00Z" (-1632006000) transition_time 0x40-0x43.7 (4)
0x040|            9f 84 97 90                        |    ....        |      [6]: "1918-09-16T01:00:00Z" (-1618700400) transition_time 0x44-0x47.7 (4)
0x040|                        c8 09 71 90            |        ..q.    |      [7]: "1940-04-01T01:00:00Z" (-938905200) transition_time 0x48-0x4b.7 (4)
0x040|                                    cc e7 4b 10|            ..K.|      [8]: "1942-11-02T01:00:00Z" (-857257200) transition_time 0x4c-0x4f.7 (4)
0x050|cd a9 17 90                                    |....            |      [9]: "1943-03-29T01:00:00Z" (-844556400) transition_time 0x50-0x53.7 (4)
0x050|            ce a2 43 10                        |    ..C.        |      [10]: "1943-10-04T01:00:00Z" (-828226800) transition_time 0x54-0x57.7 (4)
0x050|                        cf 92 34 10            |        ..4.    |      [11]: "1944-04-03T01:00:00Z" (-812502000) transition_time 0x58-0x5b.7 (4)
0x050|                                    d0 82 25 10|            ..%.|      [12]: "1944-10-02T01:00:00Z" (-796777200) transition_time 0x5c-0x5f.7 (4)
0x060|d1 72 16 10                                    |.r..            |      [13]: "1945-04-02T01:00:00Z" (-781052400) transition_time 0x60-0x63.7 (4)
0x060|            d2 62 07 10                        |    .b..        |      [14]: "1945-10-01T01:00:00Z" (-765327600) transition_time 0x64-0x67.7 (4)
0x060|                        d3 80 1c 90            |        ....    |      [15]: "1946-05-06T01:00:00Z" (-746578800) transition_time 0x68-0x6b.7 (4)
0x060|                                    d4 49 d2 10|            .I..|      [16]: "1946-10-06T01:00:00Z" (-733359600) transition_time 0x6c-0x6f.7 (4)
0x070|d4 93 b4 20                                    |...             |      [17]: "1946-12-01T02:00:00Z" (-728517600) transition_time 0x70-0x73.7 (4)
0x070|            d5 02 72 20                        |    ..r         |      [18]: "1947-02-23T02:00:00Z" (-721260000) transition_time 0x74-0x77.7 (4)
0x070|                        d5 4c 38 10            |        .L8.    |      [19]: "1947-04-20T01:00:00Z" (-716425200) transition_time 0x78-0x7b.7 (4)
0x070|                                    d6 29 b4 10|            .)..|      [20]: "1947-10-05T01:00:00Z" (-701910000) transition_time 0x7c-0x7f.7 (4)
0x080|d7 2c 1a 10                                    |.,..            |      [21]: "1948-04-18T01:00:00Z" (-684975600) transition_time 0x80-0x83.7 (4)
0x080|            d8 09 96 10                        |    ....        |      [22]: "1948-10-03T01:00:00Z" (-670460400) transition_time 0x84-0x87.7 (4)
0x080|                        d9 01 70 10            |        ..p.    |      [23]: "1949-04-09T01:00:00Z" (-654217200) transition_time 0x88-0x8b.7 (4)
0x080|                                    d9 e9 78 10|            ..x.|      [24]: "1949-10-02T01:00:00Z" (-639010800) transition_time 0x8c-0x8f.7 (4)
0x090|11 64 27 90                                    |.d'.            |      [25]: "1979-04-01T01:00:00Z" (291776400) transition_time 0x90-0x93.7 (4)
0x090|            12 54 18 90                        |    .T..        |      [26]: "1979-09-30T01:00:00Z" (307501200) transition_time 0x94-0x97.7 (4)
0x090|                        13 4d 44 10            |        .MD.    |      [27]: "1980-04-06T01:00:00Z" (323830800) transition_time 0x98-0x9b.7 (4)
0x090|                                    14 33 fa 90|            .3..|      [28]: "1980-09-28T01:00:00Z" (338950800) transition_time 0x9c-0x9f.7 (4)
0x0a0|15 23 eb 90                                    |.#..            |      [29]: "1981-03-29T01:00:00Z" (354675600) transition_time 0xa0-0xa3.7 (4)
0x0a0|            16 13 dc 90                        |    ....        |      [30]: "1981-09-27T01:00:00Z" (370400400) transition_time 0xa4-0xa7.7 (4)
0x0a0|                        17 03 cd 90            |        ....    |      [31]: "1982-03-28T01:00:00Z" (386125200) transition_time 0xa8-0xab.7 (4)
0x0a0|                                    17 f3 be 90|            ....|      [32]: "1982-09-26T01:00:00Z" (401850000) transition_time 0xac-0xaf.7 (4)
0x0b0|18 e3 af 90                                    |....            |      [33]: "1983-03-27T01:00:00Z" (417574800) transition_time 0xb0-0xb3.7 (4)
0x0b0|            19 d3 a0 90                        |    ....        |      [34]: "1983-09-25T01:00:00Z" (433299600) transition_time 0xb4-0xb7.7 (4)
0x0b0|                        1a c3 91 90            |        ....    |      [35]: "1984-03-25T01:00:00Z" (449024400) transition_time 0xb8-0xbb.7 (4)
0x0b0|                                    1b bc bd 10|            ....|      [36]: "1984-09-30T01:00:00Z" (465354000) transition_time 0xbc-0xbf.7 (4)
0x0c0|1c ac ae 10                                    |....            |      [37]: "1985-03-31T01:00:00Z" (481078800) transition_time 0xc0-0xc3.7 (4)
0x0c0|            1d 9c 9f 10                        |    ....        |      [38]: "1985-09-29T01:00:00Z" (496803600) transition_time 0xc4-0xc7.7 (4)
0x0c0|                        1e 8c 90 10            |        ....    |      [39]: "1986-03-30T01:00:00Z" (512528400) transition_time 0xc8-0xcb.7 (4)
0x0c0|                                    1f 7c 81 10|            .|..|      [40]: "1986-09-28T01:00:00Z" (528253200) transition_time 0xcc-0xcf.7 (4)
0x0d0|20 6c 72 10                                    | lr.            |      [41]: "1987-03-29T01:00:00Z" (543978000) transition_time 0xd0-0xd3.7 (4)
0x0d0|            21 5c 63 10                        |    !\c.        |      [42]: "1987-09-27T01:00:00Z" (559702800) transition_time 0xd4-0xd7.7 (4)
0x0d0|                        22 4c 54 10            |        "LT.    |      [43]: "1988-03-27T01:00:00Z" (575427600) transition_time 0xd8-0xdb.7 (4)
0x0d0|                                    23 3c 45 10|            #<E.|      [44]: "1988-09-25T01:00:00Z" (591152400) transition_time 0xdc-0xdf.7 (4)
0x0e0|24 2c 36 10                                    |$,6.            |      [45]: "1989-03-26T01:00:00Z" (606877200) transition_time 0xe0-0xe3.7 (4)
0x0e0|            25 1c 27 10                        |    %.'.        |      [46]: "1989-09-24T01:00:00Z" (622602000) transition_time 0xe4-0xe7.7 (4)
0x0e0|                        26 0c 18 10            |        &...    |      [47]: "1990-03-25T01:00:00Z" (638326800) transition_time 0xe8-0xeb.7 (4)
0x0e0|                                    27 05 43 90|            '.C.|      [48]: "1990-09-30T01:00:00Z" (654656400) transition_time 0xec-0xef.7 (4)
0x0f0|27 f5 34 90                                    |'.4.            |      [49]: "1991-03-31T01:00:00Z" (670381200) transition_time 0xf0-0xf3.7 (4)
0x0f0|            28 e5 25 90                        |    (.%.        |      [50]: "1991-09-29T01:00:00Z" (686106000) transition_time 0xf4-0xf7.7 (4)
0x0f0|                        29 d5 16 90            |        )...    |      [51]: "1992-03-29T01:00:00Z" (701830800) transition_time 0xf8-0xfb.7 (4)
0x0f0|                                    2a c5 07 90|            *...|      [52]: "1992-09-27T01:00:00Z" (717555600) transition_time 0xfc-0xff.7 (4)
0x100|2b b4 f8 90                                    |+...            |      [53]: "1993-03-28T01:00:00Z" (733280400) transition_time 0x100-0x103.7 (4)
0x100|            2c a4 e9 90                        |    ,...        |      [54]: "1993-09-26T01:00:00Z" (749005200) transition_time 0x104-0x107.7 (4)
0x100|                        2d 94 da 90            |        -...    |      [55]: "1994-03-27T01:00:00Z" (764730000) transition_time 0x108-0x10b.7 (4)
0x100|                                    2e 84 cb 90|            ....|      [56]: "1994-09-25T01:00:00Z" (780454800) transition_time 0x10c-0x10f.7 (4)
0x110|2f 74 bc 90                                    |/t..            |      [57]: "1995-03-26T01:00:00Z" (796179600) transition_time 0x110-0x113.7 (4)
0x110|            30 64 ad 90                        |    0d..        |      [58]: "1995-09-24T01:00:00Z" (811904400) transition_time 0x114-0x117.7 (4)
0x110|                        31 5d d9 10            |        1]..    |      [59]: "1996-03-31T01:00:00Z" (828234000) transition_time 0x118-0x11b.7 (4)
0x110|                                    32 72 b4 10|            2r..|      [60]: "1996-10-27T01:00:00Z" (846378000) transition_time 0x11c-0x11f.7 (4)
0x120|33 3d bb 10                                    |3=..            |      [61]: "1997-03-30T01:00:00Z" (859683600) transition_time 0x120-0x123.7 (4)
0x120|            34 52 96 10                        |    4R..        |      [62]: "1997-10-26T01:00:00Z" (877827600) transition_time 0x124-0x127.7 (4)
0x120|                        35 1d 9d 10            |        5...    |      [63]: "1998-03-29T01:00:00Z" (891133200) transition_time 0x128-0x12b.7 (4)
0x120|                                    36 32 78 10|            62x.|      [64]: "1998-10-25T01:00:00Z" (909277200) transition_time 0x12c-0x12f.7 (4)
0x130|36 fd 7f 10                                    |6...            |      [65]: "1999-03-28T01:00:00Z" (922582800) transition_time 0x130-0x133.7 (4)
0x130|            38 1b 94 90                        |    8...        |      [66]: "1999-10-31T01:00:00Z" (941331600) transition_time 0x134-0x137.7 (4)
0x130|                        38 dd 61 10            |        8.a.    |      [67]: "2000-03-26T01:00:00Z" (954032400) transition_time 0x138-0x13b.7 (4)
0x130|                                    39 fb 76 90|            9.v.|      [68]: "2000-10-29T01:00:00Z" (972781200) transition_time 0x13c-0x13f.7 (4)
0x140|3a bd 43 10                                    |:.C.            |      [69]: "2001-03-25T01:00:00Z" (985482000) transition_time 0x140-0x143.7 (4)
0x140|            3b db 58 90                        |    ;.X.        |      [70]: "2001-10-28T01:00:00Z" (1004230800) transition_time 0x144-0x147.7 (4)
0x140|                        3c a6 5f 90            |        <._.    |      [71]: "2002-03-31T01:00:00Z" (1017536400) transition_time 0x148-0x14b.7 (4)
0x140|                                    3d bb 3a 90|            =.:.|      [72]: "2002-10-27T01:00:00Z" (1035680400) transition_time 0x14c-0x14f.7 (4)
0x150|3e 86 41 90                                    |>.A.            |      [73]: "2003-03-30T01:00:00Z" (1048986000) transition_time 0x150-0x153.7 (4)
0x150|            3f 9b 1c 90                        |    ?...        |      [74]: "2003-10-26T01:00:00Z" (1067130000) transition_time 0x154-0x157.7 (4)
0x150|                        40 66 23 90            |        @f#.    |      [75]: "2004-03-28T01:00:00Z" (1080435600) transition_time 0x158-0x15b.7 (4)
0x150|                                    41 84 39 10|            A.9.|      [76]: "2004-10-31T01:00:00Z" (1099184400) transition_time 0x15c-0x15f.7 (4)
0x160|42 46 05 90                                    |BF..            |      [77]: "2005-03-27T01:00:00Z" (1111885200) transition_time 0x160-0x163.7 (4)
0x160|            43 64 1b 10                        |    Cd..        |      [78]: "2005-10-30T01:00:00Z" (1130634000) transition_time 0x164-0x167.7 (4)
0x160|                        44 25 e7 90            |        D%..    |      [79]: "2006-03-26T01:00:00Z" (1143334800) transition_time 0x168-0x16b.7 (4)
0x160|                                    45 43 fd 10|            EC..|      [80]: "2006-10-29T01:00:00Z" (1162083600) transition_time 0x16c-0x16f.7 (4)
0x170|46 05 c9 90                                    |F...            |      [81]: "2007-03-25T01:00:00Z" (1174784400) transition_time 0x170-0x173.7 (4)
0x170|            47 23 df 10                        |    G#..        |      [82]: "2007-10-28T01:00:00Z" (1193533200) transition_time 0x174-0x177.7 (4)
0x170|                        47 ee e6 10            |        G...    |      [83]: "2008-03-30T01:00:00Z" (1206838800) transition_time 0x178-0x17b.7 (4)
0x170|                                    49 03 c1 10|            I...|      [84]: "2008-10-26T01:00:00Z" (1224982800) transition_time 0x17c-0x17f.7 (4)
0x180|49 ce c8 10                                    |I...            |      [85]: "2009-03-29T01:00:00Z" (1238288400) transition_time 0x180-0x183.7 (4)
0x180|            4a e3 a3 10                        |    J...        |      [86]: "2009-10-25T01:00:00Z" (1256432400) transition_time 0x184-0x187.7 (4)
0x180|                        4b ae aa 10            |        K...    |      [87]: "2010-03-28T01:00:00Z" (1269738000) transition_time 0x188-0x18b.7 (4)
0x180|                                    4c cc bf 90|            L...|      [88]: "2010-10-31T01:00:00Z" (1288486800) transition_time 0x18c-0x18f.7 (4)
0x190|4d 8e 8c 10                                    |M...            |      [89]: "2011-03-27T01:00:00Z" (1301187600) transition_time 0x190-0x193.7 (4)
0x190|            4e ac a1 90                        |    N...        |      [90]: "2011-10-30T01:00:00Z" (1319936400) transition_time 0x194-0x197.7 (4)
0x190|                        4f 6e 6e 10            |        Onn.    |      [91]: "2012-03-25T01:00:00Z" (1332637200) transition_time 0x198-0x19b.7 (4)
0x190|                                    50 8c 83 90|            P...|      [92]: "2012-10-28T01:00:00Z" (1351386000) transition_time 0x19c-0x19f.7 (4)
0x1a0|51 57 8a 90                                    |QW..            |      [93]: "2013-03-31T01:00:00Z" (1364691600) transition_time 0x1a0-0x1a3.7 (4)
0x1a0|            52 6c 65 90                        |    Rle.        |      [94]: "2013-10-27T01:00:00Z" (1382835600) transition_time 0x1a4-0x1a7.7 (4)
0x1a0|                        53 37 6c 90            |        S7l.    |      [95]: "2014-03-30T01:00:00Z" (1396141200) transition_time 0x1a8-0x1ab.7 (4)
0x1a0|                                    54 4c 47 90|            TLG.|      [96]: "2014-10-26T01:00:00Z" (1414285200) transition_time 0x1ac-0x1af.7 (4)
0x1b0|55 17 4e 90                                    |U.N.            |      [97]: "2015-03-29T01:00:00Z" (1427590800) transition_time 0x1b0-0x1b3.7 (4)
0x1b0|            56 2c 29 90                        |    V,).        |      [98]: "2015-10-25T01:00:00Z" (1445734800) transition_time 0x1b4-0x1b7.7 (4)
0x1b0|                        56 f7 30 90            |        V.0.    |      [99]: "2016-03-27T01:00:00Z" (1459040400) transition_time 0x1b8-0x1bb.7 (4)
0x1b0|                                    58 15 46 10|            X.F.|      [100]: "2016-10-30T01:00:00Z" (1477789200) transition_time 0x1bc-0x1bf.7 (4)
0x1c0|58 d7 12 90                                    |X...            |      [101]: "2017-03-26T01:00:00Z" (1490490000) transition_time 0x1c0-0x1c3.7 (4)
0x1c0|            59 f5 28 10                        |    Y.(.        |      [102]: "2017-10-29T01:00:00Z" (1509238800) transition_time 0x1c4-0x1c7.7 (4)
0x1c0|                        5a b6 f4 90            |        Z...    |      [103]: "2018-03-25T01:00:00Z" (1521939600) transition_time 0x1c8-0x1cb.7 (4)
0x1c0|                                    5b d5 0a 10|            [...|      [104]: "2018-10-28T01:00:00Z" (1540688400) transition_time 0x1cc-0x1cf.7 (4)
0x1d0|5c a0 11 10                                    |\...            |      [105]: "2019-03-31T01:00:00Z" (1553994000) transition_time 0x1d0-0x1d3.7 (4)
0x1d0|            5d b4 ec 10                        |    ]...        |      [106]: "2019-10-27T01:00:00Z" (1572138000) transition_time 0x1d4-0x1d7.7 (4)
0x1d0|                        5e 7f f3 10            |        ^...    |      [107]: "2020-03-29T01:00:00Z" (1585443600) transition_time 0x1d8-0x1db.7 (4)
0x1d0|                                    5f 94 ce 10|            _...|      [108]: "2020-10-25T01:00:00Z" (1603587600) transition_time 0x1dc-0x1df.7 (4)
0x1e0|60 5f d5 10                                    |`_..            |      [109]: "2021-03-28T01:00:00Z" (1616893200) transition_time 0x1e0-0x1e3.7 (4)
0x1e0|            61 7d ea 90                        |    a}..        |      [110]: "2021-10-31T01:00:00Z" (1635642000) transition_time 0x1e4-0x1e7.7 (4)
0x1e0|                        62 3f b7 10            |        b?..    |      [111]: "2022-03-27T01:00:00Z" (1648342800) transition_time 0x1e8-0x1eb.7 (4)
0x1e0|                                    63 5d cc 90|            c]..|      [112]: "2022-10-30T01:00:00Z" (1667091600) transition_time 0x1ec-0x1ef.7 (4)
0x1f0|64 1f 99 10                                    |d...            |      [113]: "2023-03-26T01:00:00Z" (1679792400) transition_time 0x1f0-0x1f3.7 (4)
0x1f0|            65 3d ae 90                        |    e=..        |      [114]: "2023-10-29T01:00:00Z" (1698541200) transition_time 0x1f4-0x1f7.7 (4)
0x1f0|                        66 08 b5 90            |        f...    |      [115]: "2024-03-31T01:00:00Z" (1711846800) transition_time 0x1f8-0x1fb.7 (4)
0x1f0|                                    67 1d 90 90|            g...|      [116]: "2024-10-27T01:00:00Z" (1729990800) transition_time 0x1fc-0x1ff.7 (4)
0x200|67 e8 97 90                                    |g...            |      [117]: "2025-03-30T01:00:00Z" (1743296400) transition_time 0x200-0x203.7 (4)
0x200|            68 fd 72 90                        |    h.r.        |      [118]: "2025-10-26T01:00:00Z" (1761440400) transition_time 0x204-0x207.7 (4)
0x200|                        69 c8 79 90            |        i.y.    |      [119]: "2026-03-29T01:00:00Z" (1774746000) transition_time 0x208-0x20b.7 (4)
0x200|                                    6a dd 54 90|            j.T.|      [120]: "2026-10-25T01:00:00Z" (1792890000) transition_time 0x20c-0x20f.7 (4)
0x210|6b a8 5b 90                                    |k.[.            |      [121]: "2027-03-28T01:00:00Z" (1806195600) transition_time 0x210-0x213.7 (4)
0x210|            6c c6 71 10                        |    l.q.        |      [122]: "2027-10-31T01:00:00Z" (1824944400) transition_time 0x214-0x217.7 (4)
0x210|                        6d 88 3d 90            |        m.=.    |      [123]: "2028-03-26T01:00:00Z" (1837645200) transition_time 0x218-0x21b.7 (4)
0x210|                                    6e a6 53 10|            n.S.|      [124]: "2028-10-29T01:00:00Z" (1856394000) transition_time 0x21c-0x21f.7 (4)
0x220|6f 68 1f 90                                    |oh..            |      [125]: "2029-03-25T01:00:00Z" (1869094800) transition_time 0x220-0x223.7 (4)
0x220|            70 86 35 10                        |    p.5.        |      [126]: "2029-10-28T01:00:00Z" (1887843600) transition_time 0x224-0x227.7 (4)
0x220|                        71 51 3c 10            |        qQ<.    |      [127]: "2030-03-31T01:00:00Z" (1901149200) transition_time 0x228-0x22b.7 (4)
0x220|                                    72 66 17 10|            rf..|      [128]: "2030-10-27T01:00:00Z" (1919293200) transition_time 0x22c-0x22f.7 (4)
0x230|73 31 1e 10                                    |s1..            |      [129]: "2031-03-30T01:00:00Z" (1932598800) transition_time 0x230-0x233.7 (4)
0x230|            74 45 f9 10                        |    tE..        |      [130]: "2031-10-26T01:00:00Z" (1950742800) transition_time 0x234-0x237.7 (4)
0x230|                        75 11 00 10            |        u...    |      [131]: "2032-03-28T01:00:00Z" (1964048400) transition_time 0x238-0x23b.7 (4)
0x230|                                    76 2f 15 90|            v/..|      [132]: "2032-10-31T01:00:00Z" (1982797200) transition_time 0x23c-0x23f.7 (4)
0x240|76 f0 e2 10                                    |v...            |      [133]: "2033-03-27T01:00:00Z" (1995498000) transition_time 0x240-0x243.7 (4)
0x240|            78 0e f7 90                        |    x...        |      [134]: "2033-10-30T01:00:00Z" (2014246800) transition_time 0x244-0x247.7 (4)
0x240|                        78 d0 c4 10            |        x...    |      [135]: "2034-03-26T01:00:00Z" (2026947600) transition_time 0x248-0x24b.7 (4)
0x240|                                    79 ee d9 90|            y...|      [136]: "2034-10-29T01:00:00Z" (2045696400) transition_time 0x24c-0x24f.7 (4)
0x250|7a b0 a6 10                                    |z...            |      [137]: "2035-03-25T01:00:00Z" (2058397200) transition_time 0x250-0x253.7 (4)
0x250|            7b ce bb 90                        |    {...        |      [138]: "2035-10-28T01:00:00Z" (2077146000) transition_time 0x254-0x257.7 (4)
0x250|                        7c 99 c2 90            |        |...    |      [139]: "2036-03-30T01:00:00Z" (2090451600) transition_time 0x258-0x25b.7 (4)
0x250|                                    7d ae 9d 90|            }...|      [140]: "2036-10-26T01:00:00Z" (2108595600) transition_time 0x25c-0x25f.7 (4)
0x260|7e 79 a4 90                                    |~y..            |      [141]: "2037-03-29T01:00:00Z" (2121901200) transition_time 0x260-0x263.7 (4)
0x260|            7f 8e 7f 90                        |    ....        |      [142]: "2037-10-25T01:00:00Z" (2140045200) transition_time 0x264-0x267.7 (4)
     |                                               |                |    transition_types[0:143]: 0x268-0x2f6.7 (143)
0x260|                        02                     |        .       |      [0]: 2 transition_type 0x268-0x268.7 (1)
0x260|                           01                  |         .      |      [1]: 1 transition_type 0x269-0x269.7 (1)
0x260|                              02               |          .     |      [2]: 2 transition_type 0x26a-0x26a.7 (1)
0x260|                                 03            |           .    |      [3]: 3 transition_type 0x26b-0x26b.7 (1)
0x260|                                    04         |            .   |      [4]: 4 transition_type 0x26c-0x26c.7 (1)
0x260|                                       03      |             .  |      [5]: 3 transition_type 0x26d-0x26d.7 (1)
0x260|                                          04   |              . |      [6]: 4 transition_type 0x26e-0x26e.7 (1)
0x260|                                             03|               .|      [7]: 3 transition_type 0x26f-0x26f.7 (1)
0x270|04                                             |.               |      [8]: 4 transition_type 0x270-0x270.7 (1)
0x270|   03                                          | .              |      [9]: 3 transition_type 0x271-0x271.7 (1)
0x270|      04                                       |  .             |      [10]: 4 transition_type 0x272-0x272.7 (1)
0x270|         03                                    |   .            |      [11]: 3 transition_type 0x273-0x273.7 (1)
0x270|            04                                 |    .           |      [12]: 4 transition_type 0x274-0x274.7 (1)
0x270|               03                              |     .          |      [13]: 3 transition_type 0x275-0x275.7 (1)
0x270|                  04                           |      .         |      [14]: 4 transition_type 0x276-0x276.7 (1)
0x270|                     03                        |       .        |      [15]: 3 transition_type 0x277-0x277.7 (1)
0x270|                        04                     |        .       |      [16]: 4 transition_type 0x278-0x278.7 (1)
0x270|                           05                  |         .      |      [17]: 5 transition_type 0x279-0x279.7 (1)
0x270|                              02               |          .     |      [18]: 2 transition_type 0x27a-0x27a.7 (1)
0x270|                                 03            |           .    |      [19]: 3 transition_type 0x27b-0x27b.7 (1)
0x270|                                    04         |            .   |      [20]: 4 transition_type 0x27c-0x27c.7 (1)
0x270|                                       03      |             .  |      [21]: 3 transition_type 0x27d-0x27d.7 (1)
0x270|                                          04   |              . |      [22]: 4 transition_type 0x27e-0x27e.7 (1)
0x270|                                             03|               .|      [23]: 3 transition_type 0x27f-0x27f.7 (1)
0x280|04                                             |.               |      [24]: 4 transition_type 0x280-0x280.7 (1)
0x280|   06                                          | .              |      [25]: 6 transition_type 0x281-0x281.7 (1)
0x280|      07                                       |  .             |      [26]: 7 transition_type 0x282-0x282.7 (1)
0x280|         06                                    |   .            |      [27]: 6 transition_type 0x283-0x283.7 (1)
0x280|            07                                 |    .           |      [28]: 7 transition_type 0x284-0x284.7 (1)
0x280|               06                              |     .          |      [29]: 6 transition_type 0x285-0x285.7 (1)
0x280|                  07                           |      .         |      [30]: 7 transition_type 0x286-0x286.7 (1)
0x280|                     06                        |       .        |      [31]: 6 transition_type 0x287-0x287.7 (1)
0x280|                        07                     |        .       |      [32]: 7 transition_type 0x288-0x288.7 (1)
0x280|                           06                  |         .      |      [33]: 6 transition_type 0x289-0x289.7 (1)
0x280|                              07               |          .     |      [34]: 7 transition_type 0x28a-0x28a.7 (1)
0x280|                                 06            |           .    |      [35]: 6 transition_type 0x28b-0x28b.7 (1)
0x280|                                    07         |            .   |      [36]: 7 transition_type 0x28c-0x28c.7 (1)
0x280|                                       06      |             .  |      [37]: 6 transition_type 0x28d-0x28d.7 (1)
0x280|                                          07   |              . |      [38]: 7 transition_type 0x28e-0x28e.7 (1)
0x280|                                             06|               .|      [39]: 6 transition_type 0x28f-0x28f.7 (1)
0x290|07                                             |.               |      [40]: 7 transition_type 0x290-0x290.7 (1)
0x290|   06                                          | .              |      [41]: 6 transition_type 0x291-0x291.7 (1)
0x290|      07                                       |  .             |      [42]: 7 transition_type 0x292-0x292.7 (1)
0x290|         06                                    |   .            |      [43]: 6 transition_type 0x293-0x293.7 (1)
0x290|            07                                 |    .           |      [44]: 7 transition_type 0x294-0x294.7 (1)
0x290|               06                              |     .          |      [45]: 6 transition_type 0x295-0x295.7 (1)
0x290|                  07                           |      .         |      [46]: 7 transition_type 0x296-0x296.7 (1)
0x290|                     06                        |       .        |      [47]: 6 transition_type 0x297-0x297.7 (1)
0x290|                        07                     |        .       |      [48]: 7 transition_type 0x298-0x298.7 (1)
0x290|                           06                  |         .      |      [49]: 6 transition_type 0x299-0x299.7 (1)
0x290|                              07               |          .     |      [50]: 7 transition_type 0x29a-0x29a.7 (1)
0x290|                                 06            |           .    |      [51]: 6 transition_type 0x29b-0x29b.7 (1)
0x290|                                    07         |            .   |      [52]: 7 transition_type 0x29c-0x29c.7 (1)
0x290|                                       06      |             .  |      [53]: 6 transition_type 0x29d-0x29d.7 (1)
0x290|                                          07   |              . |      [54]: 7 transition_type 0x29e-0x29e.7 (1)
0x290|                                             06|               .|      [55]: 6 transition_type 0x29f-0x29f.7 (1)
0x2a0|07                                             |.               |      [56]: 7 transition_type 0x2a0-0x2a0.7 (1)
0x2a0|   06                                          | .              |      [57]: 6 transition_type 0x2a1-0x2a1.7 (1)
0x2a0|      07                                       |  .             |      [58]: 7 transition_type 0x2a2-0x2a2.7 (1)
0x2a0|         06                                    |   .            |      [59]: 6 transition_type 0x2a3-0x2a3.7 (1)
0x2a0|            07                                 |    .           |      [60]: 7 transition_type 0x2a4-0x2a4.7 (1)
0x2a0|               06                              |     .          |      [61]: 6 transition_type 0x2a5-0x2a5.7 (1)
0x2a0|                  07                           |      .         |      [62]: 7 transition_type 0x2a6-0x2a6.7 (1)
0x2a0|                     06                        |       .        |      [63]: 6 transition_type 0x2a7-0x2a7.7 (1)
0x2a0|                        07                     |        .       |      [64]: 7 transition_type 0x2a8-0x2a8.7 (1)
0x2a0|                           06                  |         .      |      [65]: 6 transition_type 0x2a9-0x2a9.7 (1)
0x2a0|                              07               |          .     |      [66]: 7 transition_type 0x2aa-0x2aa.7 (1)
0x2a0|                                 06            |           .    |      [67]: 6 transition_type 0x2ab-0x2ab.7 (1)
0x2a0|                                    07         |            .   |      [68]: 7 transition_type 0x2ac-0x2ac.7 (1)
0x2a0|                                       06      |             .  |      [69]: 6 transition_type 0x2ad-0x2ad.7 (1)
0x2a0|                                          07   |              . |      [70]: 7 transition_type 0x2ae-0x2ae.7 (1)
0x2a0|                                             06|               .|      [71]: 6 transition_type 0x2af-0x2af.7 (1)
0x2b0|07                                             |.               |      [72]: 7 transition_type 0x2b0-0x2b0.7 (1)
0x2b0|   06                                          | .              |      [73]: 6 transition_type 0x2b1-0x2b1.7 (1)
0x2b0|      07                                       |  .             |      [74]: 7 transition_type 0x2b2-0x2b2.7 (1)
0x2b0|         06                                    |   .            |      [75]: 6 transition_type 0x2b3-0x2b3.7 (1)
0x2b0|            07                                 |    .           |      [76]: 7 transition_type 0x2b4-0x2b4.7 (1)
0x2b0|               06                              |     .          |      [77]: 6 transition_type 0x2b5-0x2b5.7 (1)
0x2b0|                  07                           |      .         |      [78]: 7 transition_type 0x2b6-0x2b6.7 (1)
0x2b0|                     06                        |       .        |      [79]: 6 transition_type 0x2b7-0x2b7.7 (1)
0x2b0|                        07                     |        .       |      [80]: 7 transition_type 0x2b8-0x2b8.7 (1)
0x2b0|                           06                  |         .      |      [81]: 6 transition_type 0x2b9-0x2b9.7 (1)
0x2b0|                              07               |          .     |      [82]: 7 transition_type 0x2ba-0x2ba.7 (1)
0x2b0|                                 06            |           .    |      [83]: 6 transition_type 0x2bb-0x2bb.7 (1)
0x2b0|                                    07         |            .   |      [84]: 7 transition_type 0x2bc-0x2bc.7 (1)
0x2b0|                                       06      |             .  |      [85]: 6 transition_type 0x2bd-0x2bd.7 (1)
0x2b0|                                          07   |              . |      [86]: 7 transition_type 0x2be-0x2be.7 (1)
0x2b0|                                             06|               .|      [87]: 6 transition_type 0x2bf-0x2bf.7 (1)
0x2c0|07                                             |.               |      [88]: 7 transition_type 0x2c0-0x2c0.7 (1)
0x2c0|   06                                          | .              |      [89]: 6 transition_type 0x2c1-0x2c1.7 (1)
0x2c0|      07                                       |  .             |      [90]: 7 transition_type 0x2c2-0x2c2.7 (1)
0x2c0|         06                                    |   .            |      [91]: 6 transition_type 0x2c3-0x2c3.7 (1)
0x2c0|            07                                 |    .           |      [92]: 7 transition_type 0x2c4-0x2c4.7 (1)
0x2c0|               06                              |     .          |      [93]: 6 transition_type 0x2c5-0x2c5.7 (1)
0x2c0|                  07                           |      .         |      [94]: 7 transition_type 0x2c6-0x2c6.7 (1)
0x2c0|                     06                        |       .        |      [95]: 6 transition_type 0x2c7-0x2c7.7 (1)
0x2c0|                        07                     |        .       |      [96]: 7 transition_type 0x2c8-0x2c8.7 (1)
0x2c0|                           06                  |         .      |      [97]: 6 transition_type 0x2c9-0x2c9.7 (1)
0x2c0|                              07               |          .     |      [98]: 7 transition_type 0x2ca-0x2ca.7 (1)
0x2c0|                                 06            |           .    |      [99]: 6 transition_type 0x2cb-0x2cb.7 (1)
0x2c0|                                    07         |            .   |      [100]: 7 transition_type 0x2cc-0x2cc.7 (1)
0x2c0|                                       06      |             .  |      [101]: 6 transition_type 0x2cd-0x2cd.7 (1)
0x2c0|                                          07   |              . |      [102]: 7 transition_type 0x2ce-0x2ce.7 (1)
0x2c0|                                             06|               .|      [103]: 6 transition_type 0x2cf-0x2cf.7 (1)
0x2d0|07                                             |.               |      [104]: 7 transition_type 0x2d0-0x2d0.7 (1)
0x2d0|   06                                          | .              |      [105]: 6 transition_type 0x2d1-0x2d1.7 (1)
0x2d0|      07                                       |  .             |      [106]: 7 transition_type 0x2d2-0x2d2.7 (1)
0x2d0|         06                                    |   .            |      [107]: 6 transition_type 0x2d3-0x2d3.7 (1)
0x2d0|            07                                 |    .           |      [108]: 7 transition_type 0x2d4-0x2d4.7 (1)
0x2d0|               06                              |     .          |      [109]: 6 transition_type 0x2d5-0x2d5.7 (1)
0x2d0|                  07                           |      .         |      [110]: 7 transition_type 0x2d6-0x2d6.7 (1)
0x2d0|                     06                        |       .        |      [111]: 6 transition_type 0x2d7-0x2d7.7 (1)
0x2d0|                        07                     |        .       |      [112]: 7 transition_type 0x2d8-0x2d8.7 (1)
0x2d0|                           06                  |         .      |      [113]: 6 transition_type 0x2d9-0x2d9.7 (1)
0x2d0|                              07               |          .     |      [114]: 7 transition_type 0x2da-0x2da.7 (1)
0x2d0|                                 06            |           .    |      [115]: 6 transition_type 0x2db-0x2db.7 (1)
0x2d0|                                    07         |            .   |      [116]: 7 transition_type 0x2dc-0x2dc.7 (1)
0x2d0|                                       06      |             .  |      [117]: 6 transition_type 0x2dd-0x2dd.7 (1)
0x2d0|                                          07   |              . |      [118]: 7 transition_type 0x2de-0x2de.7 (1)
0x2d0|                                             06|               .|      [119]: 6 transition_type 0x2df-0x2df.7 (1)
0x2e0|07                                             |.               |      [120]: 7 transition_type 0x2e0-0x2e0.7 (1)
0x2e0|   06                                          | .              |      [121]: 6 transition_type 0x2e1-0x2e1.7 (1)
0x2e0|      07                                       |  .             |      [122]: 7 transition_type 0x2e2-0x2e2.7 (1)
0x2e0|         06                                    |   .            |      [123]: 6 transition_type 0x2e3-0x2e3.7 (1)
0x2e0|            07                                 |    .           |      [124]: 7 transition_type 0x2e4-0x2e4.7 (1)
0x2e0|               06                              |     .          |      [125]: 6 transition_type 0x2e5-0x2e5.7 (1)
0x2e0|                  07                           |      .         |      [126]: 7 transition_type 0x2e6-0x2e6.7 (1)
0x2e0|                     06                        |       .        |      [127]: 6 transition_type 0x2e7-0x2e7.7 (1)
0x2e0|                        07                     |        .       |      [128]: 7 transition_type 0x2e8-0x2e8.7 (1)
0x2e0|                           06                  |         .      |      [129]: 6 transition_type 0x2e9-0x2e9.7 (1)
0x2e0|                              07               |          .     |      [130]: 7 transition_type 0x2ea-0x2ea.7 (1)
0x2e0|                                 06            |           .    |      [131]: 6 transition_type 0x2eb-0x2eb.7 (1)
0x2e0|                                    07         |            .   |      [132]: 7 transition_type 0x2ec-0x2ec.7 (1)
0x2e0|                                       06      |             .  |      [133]: 6 transition_type 0x2ed-0x2ed.7 (1)
0x2e0|                                          07   |              . |      [134]: 7 transition_type 0x2ee-0x2ee.7 (1)
0x2e0|                                             06|               .|      [135]: 6 transition_type 0x2ef-0x2ef.7 (1)
0x2f0|07                                             |.               |      [136]: 7 transition_type 0x2f0-0x2f0.7 (1)
0x2f0|   06                                          | .              |      [137]: 6 transition_type 0x2f1-0x2f1.7 (1)
0x2f0|      07                                       |  .             |      [138]: 7 transition_type 0x2f2-0x2f2.7 (1)
0x2f0|         06                                    |   .            |      [139]: 6 transition_type 0x2f3-0x2f3.7 (1)
0x2f0|            07                                 |    .           |      [140]: 7 transition_type 0x2f4-0x2f4.7 (1)
0x2f0|               06                              |     .          |      [141]: 6 transition_type 0x2f5-0x2f5.7 (1)
0x2f0|                  07                           |      .         |      [142]: 7 transition_type 0x2f6-0x2f6.7 (1)
     |                                               |                |    local_time_type_records[0:8]: 0x2f7-0x326.7 (48)
     |                                               |                |      [0]{}: local_time_type 0x2f7-0x2fc.7 (6)
0x2f0|                     00 00 0d 88               |       ....     |        utoff: 3464 (valid) 0x2f7-0x2fa.7 (4)
0x2f0|                                 00            |           .    |        dst: 0 (valid) 0x2fb-0x2fb.7 (1)
0x2f0|                                    00         |            .   |        idx: 0 (valid) 0x2fc-0x2fc.7 (1)
     |                                               |                |      [1]{}: local_time_type 0x2fd-0x302.7 (6)
0x2f0|                                       00 00 1c|             ...|        utoff: 7200 (valid) 0x2fd-0x300.7 (4)
0x300|20                                             |                |
0x300|   01                                          | .              |        dst: 1 (valid) 0x301-0x301.7 (1)
0x300|      04                                       |  .             |        idx: 4 (valid) 0x302-0x302.7 (1)
     |                                               |                |      [2]{}: local_time_type 0x303-0x308.7 (6)
0x300|         00 00 0e 10                           |   ....         |        utoff: 3600 (valid) 0x303-0x306.7 (4)
0x300|                     00                        |       .        |        dst: 0 (valid) 0x307-0x307.7 (1)
0x300|                        09                     |        .       |        idx: 9 (valid) 0x308-0x308.7 (1)
     |                                               |                |      [3]{}: local_time_type 0x309-0x30e.7 (6)
0x300|                           00 00 1c 20         |         ...    |        utoff: 7200 (valid) 0x309-0x30c.7 (4)
0x300|                                       01      |             .  |        dst: 1 (valid) 0x30d-0x30d.7 (1)
0x300|                                          04   |              . |        idx: 4 (valid) 0x30e-0x30e.7 (1)
     |                                               |                |      [4]{}: local_time_type 0x30f-0x314.7 (6)
0x300|                                             00|               .|        utoff: 3600 (valid) 0x30f-0x312.7 (4)
0x310|00 0e 10                                       |...             |
0x310|         00                                    |   .            |        dst: 0 (valid) 0x313-0x313.7 (1)
0x310|            09                                 |    .           |        idx: 9 (valid) 0x314-0x314.7 (1)
     |                                               |                |      [5]{}: local_time_type 0x315-0x31a.7 (6)
0x310|               00 00 00 00                     |     ....       |        utoff: 0 (valid) 0x315-0x318.7 (4)
0x310|                           01                  |         .      |        dst: 1 (valid) 0x319-0x319.7 (1)
0x310|                              0d               |          .     |        idx: 13 (valid) 0x31a-0x31a.7 (1)
     |                                               |                |      [6]{}: local_time_type 0x31b-0x320.7 (6)
0x310|                                 00 00 1c 20   |           ...  |        utoff: 7200 (valid) 0x31b-0x31e.7 (4)
0x310|                                             01|               .|        dst: 1 (valid) 0x31f-0x31f.7 (1)
0x320|04                                             |.               |        idx: 4 (valid) 0x320-0x320.7 (1)
     |                                               |                |      [7]{}: local_time_type 0x321-0x326.7 (6)
0x320|   00 00 0e 10                                 | ....           |        utoff: 3600 (valid) 0x321-0x324.7 (4)
0x320|               00                              |     .          |        dst: 0 (valid) 0x325-0x325.7 (1)
0x320|                  09                           |      .         |        idx: 9 (valid) 0x326-0x326.7 (1)
     |                                               |                |    time_zone_designations[0:4]: 0x327-0x337.7 (17)
0x320|                     4c 4d 54 00               |       LMT.     |      [0]: "LMT" time_zone_designation 0x327-0x32a.7 (4)
0x320|                                 43 45 53 54 00|           CEST.|      [1]: "CEST" time_zone_designation 0x32b-0x32f.7 (5)
0x330|43 45 54 00                                    |CET.            |      [2]: "CET" time_zone_designation 0x330-0x333.7 (4)
0x330|            47 4d 54 00                        |    GMT.        |      [3]: "GMT" time_zone_designation 0x334-0x337.7 (4)
     |                                               |                |    leap_second_records[0:0]: 0x338-NA (0)
     |                                               |                |    standard_wall_indicators[0:8]: 0x338-0x33f.7 (8)
0x330|                        00                     |        .       |      [0]: 0 standard_wall_indicator (valid) 0x338-0x338.7 (1)
0x330|                           00                  |         .      |      [1]: 0 standard_wall_indicator (valid) 0x339-0x339.7 (1)
0x330|                              00               |          .     |      [2]: 0 standard_wall_indicator (valid) 0x33a-0x33a.7 (1)
0x330|                                 01            |           .    |      [3]: 1 standard_wall_indicator (valid) 0x33b-0x33b.7 (1)
0x330|                                    01         |            .   |      [4]: 1 standard_wall_indicator (valid) 0x33c-0x33c.7 (1)
0x330|                                       00      |             .  |      [5]: 0 standard_wall_indicator (valid) 0x33d-0x33d.7 (1)
0x330|                                          01   |              . |      [6]: 1 standard_wall_indicator (valid) 0x33e-0x33e.7 (1)
0x330|                                             01|               .|      [7]: 1 standard_wall_indicator (valid) 0x33f-0x33f.7 (1)
     |                                               |                |    ut_local_indicators[0:8]: 0x340-0x347.7 (8)
0x340|00                                             |.               |      [0]: 0 ut_local_indicator (valid) 0x340-0x340.7 (1)
0x340|   00                                          | .              |      [1]: 0 ut_local_indicator (valid) 0x341-0x341.7 (1)
0x340|      00                                       |  .             |      [2]: 0 ut_local_indicator (valid) 0x342-0x342.7 (1)
0x340|         00                                    |   .            |      [3]: 0 ut_local_indicator (valid) 0x343-0x343.7 (1)
0x340|            00                                 |    .           |      [4]: 0 ut_local_indicator (valid) 0x344-0x344.7 (1)
0x340|               00                              |     .          |      [5]: 0 ut_local_indicator (valid) 0x345-0x345.7 (1)
0x340|                  01                           |      .         |      [6]: 1 ut_local_indicator (valid) 0x346-0x346.7 (1)
0x340|                     01                        |       .        |      [7]: 1 ut_local_indicator (valid) 0x347-0x347.7 (1)
     |                                               |                |  v2plusheader{}: 0x348-0x373.7 (44)
0x340|                        54 5a 69 66            |        TZif    |    magic: 0x545a6966 (valid) 0x348-0x34b.7 (4)
0x340|                                    32         |            2   |    ver: "2" (0x32) (valid) 0x34c-0x34c.7 (1)
0x340|                                       00 00 00|             ...|    reserved: raw bits 0x34d-0x35b.7 (15)
0x350|00 00 00 00 00 00 00 00 00 00 00 00            |............    |
0x350|                                    00 00 00 09|            ....|    isutcnt: 9 0x35c-0x35f.7 (4)
0x360|00 00 00 09                                    |....            |    isstdcnt: 9 0x360-0x363.7 (4)
0x360|            00 00 00 00                        |    ....        |    leapcnt: 0 0x364-0x367.7 (4)
0x360|                        00 00 00 90            |        ....    |    timecnt: 144 0x368-0x36b.7 (4)
0x360|                                    00 00 00 09|            ....|    typecnt: 9 0x36c-0x36f.7 (4)
0x370|00 00 00 15                                    |....            |    charcnt: 21 0x370-0x373.7 (4)
     |                                               |                |  v2plusdatablock{}: 0x374-0x8e0.7 (1389)
     |                                               |                |    transition_times[0:144]: 0x374-0x7f3.7 (1152)
0x370|            ff ff ff ff 1e 49 92 f8            |    .....I..    |      [0]: "1849-12-31T23:02:16Z" (-3786829064) transition_time 0x374-0x37b.7 (8)
0x370|                                    ff ff ff ff|            ....|      [1]: "1891-09-30T23:02:16Z" (-2469401864) transition_time 0x37c-0x383.7 (8)
0x380|6c cf ea f8                                    |l...            |
0x380|            ff ff ff ff 9b 0c 17 60            |    .......`    |      [2]: "1916-04-30T22:00:00Z" (-1693706400) transition_time 0x384-0x38b.7 (8)
0x380|                                    ff ff ff ff|            ....|      [3]: "1916-09-30T23:00:00Z" (-1680483600) transition_time 0x38c-0x393.7 (8)
0x390|9b d5 da f0                                    |....            |
0x390|            ff ff ff ff 9c d9 ae 90            |    ........    |      [4]: "1917-04-16T01:00:00Z" (-1663455600) transition_time 0x394-0x39b.7 (8)
0x390|                                    ff ff ff ff|            ....|      [5]: "1917-09-17T01:00:00Z" (-1650150000) transition_time 0x39c-0x3a3.7 (8)
0x3a0|9d a4 b5 90                                    |....            |
0x3a0|            ff ff ff ff 9e b9 90 90            |    ........    |      [6]: "1918-04-15T01:00:00Z" (-1632006000) transition_time 0x3a4-0x3ab.7 (8)
0x3a0|                                    ff ff ff ff|            ....|      [7]: "1918-09-16T01:00:00Z" (-1618700400) transition_time 0x3ac-0x3b3.7 (8)
0x3b0|9f 84 97 90                                    |....            |
0x3b0|            ff ff ff ff c8 09 71 90            |    ......q.    |      [8]: "1940-04-01T01:00:00Z" (-938905200) transition_time 0x3b4-0x3bb.7 (8)
0x3b0|                                    ff ff ff ff|            ....|      [9]: "1942-11-02T01:00:00Z" (-857257200) transition_time 0x3bc-0x3c3.7 (8)
0x3c0|cc e7 4b 10                                    |..K.            |
0x3c0|            ff ff ff ff cd a9 17 90            |    ........    |      [10]: "1943-03-29T01:00:00Z" (-844556400) transition_time 0x3c4-0x3cb.7 (8)
0x3c0|                                    ff ff ff ff|            ....|      [11]: "1943-10-04T01:00:00Z" (-828226800) transition_time 0x3cc-0x3d3.7 (8)
0x3d0|ce a2 43 10                                    |..C.            |
0x3d0|            ff ff ff ff cf 92 34 10            |    ......4.    |      [12]: "1944-04-03T01:00:00Z" (-812502000) transition_time 0x3d4-0x3db.7 (8)
0x3d0|                                    ff ff ff ff|            ....|      [13]: "1944-10-02T01:00:00Z" (-796777200) transition_time 0x3dc-0x3e3.7 (8)
0x3e0|d0 82 25 10                                    |..%.            |
0x3e0|            ff ff ff ff d1 72 16 10            |    .....r..    |      [14]: "1945-04-02T01:00:00Z" (-781052400) transition_time 0x3e4-0x3eb.7 (8)
0x3e0|                                    ff ff ff ff|            ....|      [15]: "1945-10-01T01:00:00Z" (-765327600) transition_time 0x3ec-0x3f3.7 (8)
0x3f0|d2 62 07 10                                    |.b..            |
0x3f0|            ff ff ff ff d3 80 1c 90            |    ........    |      [16]: "1946-05-06T01:00:00Z" (-746578800) transition_time 0x3f4-0x3fb.7 (8)
0x3f0|                                    ff ff ff ff|            ....|      [17]: "1946-10-06T01:00:00Z" (-733359600) transition_time 0x3fc-0x403.7 (8)
0x400|d4 49 d2 10                                    |.I..            |
0x400|            ff ff ff ff d4 93 b4 20            |    .......     |      [18]: "1946-12-01T02:00:00Z" (-728517600) transition_time 0x404-0x40b.7 (8)
0x400|                                    ff ff ff ff|            ....|      [19]: "1947-02-23T02:00:00Z" (-721260000) transition_time 0x40c-0x413.7 (8)
0x410|d5 02 72 20                                    |..r             |
0x410|            ff ff ff ff d5 4c 38 10            |    .....L8.    |      [20]: "1947-04-20T01:00:00Z" (-716425200) transition_time 0x414-0x41b.7 (8)
0x410|                                    ff ff ff ff|            ....|      [21]: "1947-10-05T01:00:00Z" (-701910000) transition_time 0x41c-0x423.7 (8)
0x420|d6 29 b4 10                                    |.)..            |
0x420|            ff ff ff ff d7 2c 1a 10            |    .....,..    |      [22]: "1948-04-18T01:00:00Z" (-684975600) transition_time 0x424-0x42b.7 (8)
0x420|                                    ff ff ff ff|            ....|      [23]: "1948-10-03T01:00:00Z" (-670460400) transition_time 0x42c-0x433.7 (8)
0x430|d8 09 96 10                                    |....            |
0x430|            ff ff ff ff d9 01 70 10            |    ......p.    |      [24]: "1949-04-09T01:00:00Z" (-654217200) transition_time 0x434-0x43b.7 (8)
0x430|                                    ff ff ff ff|            ....|      [25]: "1949-10-02T01:00:00Z" (-639010800) transition_time 0x43c-0x443.7 (8)
0x440|d9 e9 78 10                                    |..x.            |
0x440|            00 00 00 00 11 64 27 90            |    .....d'.    |      [26]: "1979-04-01T01:00:00Z" (291776400) transition_time 0x444-0x44b.7 (8)
0x440|                                    00 00 00 00|            ....|      [27]: "1979-09-30T01:00:00Z" (307501200) transition_time 0x44c-0x453.7 (8)
0x450|12 54 18 90                                    |.T..            |
0x450|            00 00 00 00 13 4d 44 10            |    .....MD.    |      [28]: "1980-04-06T01:00:00Z" (323830800) transition_time 0x454-0x45b.7 (8)
0x450|                                    00 00 00 00|            ....|      [29]: "1980-09-28T01:00:00Z" (338950800) transition_time 0x45c-0x463.7 (8)
0x460|14 33 fa 90                                    |.3..            |
0x460|            00 00 00 00 15 23 eb 90            |    .....#..    |      [30]: "1981-03-29T01:00:00Z" (354675600) transition_time 0x464-0x46b.7 (8)
0x460|                                    00 00 00 00|            ....|      [31]: "1981-09-27T01:00:00Z" (370400400) transition_time 0x46c-0x473.7 (8)
0x470|16 13 dc 90                                    |....            |
0x470|            00 00 00 00 17 03 cd 90            |    ........    |      [32]: "1982-03-28T01:00:00Z" (386125200) transition_time 0x474-0x47b.7 (8)
0x470|                                    00 00 00 00|            ....|      [33]: "1982-09-26T01:00:00Z" (401850000) transition_time 0x47c-0x483.7 (8)
0x480|17 f3 be 90                                    |....            |
0x480|            00 00 00 00 18 e3 af 90            |    ........    |      [34]: "1983-03-27T01:00:00Z" (417574800) transition_time 0x484-0x48b.7 (8)
0x480|                                    00 00 00 00|            ....|      [35]: "1983-09-25T01:00:00Z" (433299600) transition_time 0x48c-0x493.7 (8)
0x490|19 d3 a0 90                                    |....            |
0x490|            00 00 00 00 1a c3 91 90            |    ........    |      [36]: "1984-03-25T01:00:00Z" (449024400) transition_time 0x494-0x49b.7 (8)
0x490|                                    00 00 00 00|            ....|      [37]: "1984-09-30T01:00:00Z" (465354000) transition_time 0x49c-0x4a3.7 (8)
0x4a0|1b bc bd 10                                    |....            |
0x4a0|            00 00 00 00 1c ac ae 10            |    ........    |      [38]: "1985-03-31T01:00:00Z" (481078800) transition_time 0x4a4-0x4ab.7 (8)
0x4a0|                                    00 00 00 00|            ....|      [39]: "1985-09-29T01:00:00Z" (496803600) transition_time 0x4ac-0x4b3.7 (8)
0x4b0|1d 9c 9f 10                                    |....            |
0x4b0|            00 00 00 00 1e 8c 90 10            |    ........    |      [40]: "1986-03-30T01:00:00Z" (512528400) transition_time 0x4b4-0x4bb.7 (8)
0x4b0|                                    00 00 00 00|            ....|      [41]: "1986-09-28T01:00:00Z" (528253200) transition_time 0x4bc-0x4c3.7 (8)
0x4c0|1f 7c 81 10                                    |.|..            |
0x4c0|            00 00 00 00 20 6c 72 10            |    .... lr.    |      [42]: "1987-03-29T01:00:00Z" (543978000) transition_time 0x4c4-0x4cb.7 (8)
0x4c0|                                    00 00 00 00|            ....|      [43]: "1987-09-27T01:00:00Z" (559702800) transition_time 0x4cc-0x4d3.7 (8)
0x4d0|21 5c 63 10                                    |!\c.            |
0x4d0|            00 00 00 00 22 4c 54 10            |    ...."LT.    |      [44]: "1988-03-27T01:00:00Z" (575427600) transition_time 0x4d4-0x4db.7 (8)
0x4d0|                                    00 00 00 00|            ....|      [45]: "1988-09-25T01:00:00Z" (591152400) transition_time 0x4dc-0x4e3.7 (8)
0x4e0|23 3c 45 10                                    |#<E.            |
0x4e0|            00 00 00 00 24 2c 36 10            |    ....$,6.    |      [46]: "1989-03-26T01:00:00Z" (606877200) transition_time 0x4e4-0x4eb.7 (8)
0x4e0|                                    00 00 00 00|            ....|      [47]: "1989-09-24T01:00:00Z" (622602000) transition_time 0x4ec-0x4f3.7 (8)
0x4f0|25 1c 27 10                                    |%.'.            |
0x4f0|            00 00 00 00 26 0c 18 10            |    ....&...    |      [48]: "1990-03-25T01:00:00Z" (638326800) transition_time 0x4f4-0x4fb.7 (8)
0x4f0|                                    00 00 00 00|            ....|      [49]: "1990-09-30T01:00:00Z" (654656400) transition_time 0x4fc-0x503.7 (8)
0x500|27 05 43 90                                    |'.C.            |
0x500|            00 00 00 00 27 f5 34 90            |    ....'.4.    |      [50]: "1991-03-31T01:00:00Z" (670381200) transition_time 0x504-0x50b.7 (8)
0x500|                                    00 00 00 00|            ....|      [51]: "1991-09-29T01:00:00Z" (686106000) transition_time 0x50c-0x513.7 (8)
0x510|28 e5 25 90                                    |(.%.            |
0x510|            00 00 00 00 29 d5 16 90            |    ....)...    |      [52]: "1992-03-29T01:00:00Z" (701830800) transition_time 0x514-0x51b.7 (8)
0x510|                                    00 00 00 00|            ....|      [53]: "1992-09-27T01:00:00Z" (717555600) transition_time 0x51c-0x523.7 (8)
0x520|2a c5 07 90                                    |*...            |
0x520|            00 00 00 00 2b b4 f8 90            |    ....+...    |      [54]: "1993-03-28T01:00:00Z" (733280400) transition_time 0x524-0x52b.7 (8)
0x520|                                    00 00 00 00|            ....|      [55]: "1993-09-26T01:00:00Z" (749005200) transition_time 0x52c-0x533.7 (8)
0x530|2c a4 e9 90                                    |,...            |
0x530|            00 00 00 00 2d 94 da 90            |    ....-...    |      [56]: "1994-03-27T01:00:00Z" (764730000) transition_time 0x534-0x53b.7 (8)
0x530|                                    00 00 00 00|            ....|      [57]: "1994-09-25T01:00:00Z" (780454800) transition_time 0x53c-0x543.7 (8)
0x540|2e 84 cb 90                                    |....            |
0x540|            00 00 00 00 2f 74 bc 90            |    ..../t..    |      [58]: "1995-03-26T01:00:00Z" (796179600) transition_time 0x544-0x54b.7 (8)
0x540|                                    00 00 00 00|            ....|      [59]: "1995-09-24T01:00:00Z" (811904400) transition_time 0x54c-0x553.7 (8)
0x550|30 64 ad 90                                    |0d..            |
0x550|            00 00 00 00 31 5d d9 10            |    ....1]..    |      [60]: "1996-03-31T01:00:00Z" (828234000) transition_time 0x554-0x55b.7 (8)
0x550|                                    00 00 00 00|            ....|      [61]: "1996-10-27T01:00:00Z" (846378000) transition_time 0x55c-0x563.7 (8)
0x560|32 72 b4 10                                    |2r..            |
0x560|            00 00 00 00 33 3d bb 10            |    ....3=..    |      [62]: "1997-03-30T01:00:00Z" (859683600) transition_time 0x564-0x56b.7 (8)
0x560|                                    00 00 00 00|            ....|      [63]: "1997-10-26T01:00:00Z" (877827600) transition_time 0x56c-0x573.7 (8)
0x570|34 52 96 10                                    |4R..            |
0x570|            00 00 00 00 35 1d 9d 10            |    ....5...    |      [64]: "1998-03-29T01:00:00Z" (891133200) transition_time 0x574-0x57b.7 (8)
0x570|                                    00 00 00 00|            ....|      [65]: "1998-10-25T01:00:00Z" (909277200) transition_time 0x57c-0x583.7 (8)
0x580|36 32 78 10                                    |62x.            |
0x580|            00 00 00 00 36 fd 7f 10            |    ....6...    |      [66]: "1999-03-28T01:00:00Z" (922582800) transition_time 0x584-0x58b.7 (8)
0x580|                                    00 00 00 00|            ....|      [67]: "1999-10-31T01:00:00Z" (941331600) transition_time 0x58c-0x593.7 (8)
0x590|38 1b 94 90                                    |8...            |
0x590|            00 00 00 00 38 dd 61 10            |    ....8.a.    |      [68]: "2000-03-26T01:00:00Z" (954032400) transition_time 0x594-0x59b.7 (8)
0x590|                                    00 00 00 00|            ....|      [69]: "2000-10-29T01:00:00Z" (972781200) transition_time 0x59c-0x5a3.7 (8)
0x5a0|39 fb 76 90                                    |9.v.            |
0x5a0|            00 00 00 00 3a bd 43 10            |    ....:.C.    |      [70]: "2001-03-25T01:00:00Z" (985482000) transition_time 0x5a4-0x5ab.7 (8)
0x5a0|                                    00 00 00 00|            ....|      [71]: "2001-10-28T01:00:00Z" (1004230800) transition_time 0x5ac-0x5b3.7 (8)
0x5b0|3b db 58 90                                    |;.X.            |
0x5b0|            00 00 00 00 3c a6 5f 90            |    ....<._.    |      [72]: "2002-03-31T01:00:00Z" (1017536400) transition_time 0x5b4-0x5bb.7 (8)
0x5b0|                                    00 00 00 00|            ....|      [73]: "2002-10-27T01:00:00Z" (1035680400) transition_time 0x5bc-0x5c3.7 (8)
0x5c0|3d bb 3a 90                                    |=.:.            |
0x5c0|            00 00 00 00 3e 86 41 90            |    ....>.A.    |      [74]: "2003-03-30T01:00:00Z" (1048986000) transition_time 0x5c4-0x5cb.7 (8)
0x5c0|                                    00 00 00 00|            ....|      [75]: "2003-10-26T01:00:00Z" (1067130000) transition_time 0x5cc-0x5d3.7 (8)
0x5d0|3f 9b 1c 90                                    |?...            |
0x5d0|            00 00 00 00 40 66 23 90            |    ....@f#.    |      [76]: "2004-03-28T01:00:00Z" (1080435600) transition_time 0x5d4-0x5db.7 (8)
0x5d0|                                    00 00 00 00|            ....|      [77]: "2004-10-31T01:00:00Z" (1099184400) transition_time 0x5dc-0x5e3.7 (8)
0x5e0|41 84 39 10                                    |A.9.            |
0x5e0|            00 00 00 00 42 46 05 90            |    ....BF..    |      [78]: "2005-03-27T01:00:00Z" (1111885200) transition_time 0x5e4-0x5eb.7 (8)
0x5e0|                                    00 00 00 00|            ....|      [79]: "2005-10-30T01:00:00Z" (1130634000) transition_time 0x5ec-0x5f3.7 (8)
0x5f0|43 64 1b 10                                    |Cd..            |
0x5f0|            00 00 00 00 44 25 e7 90            |    ....D%..    |      [80]: "2006-03-26T01:00:00Z" (1143334800) transition_time 0x5f4-0x5fb.7 (8)
0x5f0|                                    00 00 00 00|            ....|      [81]: "2006-10-29T01:00:00Z" (1162083600) transition_time 0x5fc-0x603.7 (8)
0x600|45 43 fd 10                                    |EC..            |
0x600|            00 00 00 00 46 05 c9 90            |    ....F...    |      [82]: "2007-03-25T01:00:00Z" (1174784400) transition_time 0x604-0x60b.7 (8)
0x600|                                    00 00 00 00|            ....|      [83]: "2007-10-28T01:00:00Z" (1193533200) transition_time 0x60c-0x613.7 (8)
0x610|47 23 df 10                                    |G#..            |
0x610|            00 00 00 00 47 ee e6 10            |    ....G...    |      [84]: "2008-03-30T01:00:00Z" (1206838800) transition_time 0x614-0x61b.7 (8)
0x610|                                    00 00 00 00|            ....|      [85]: "2008-10-26T01:00:00Z" (1224982800) transition_time 0x61c-0x623.7 (8)
0x620|49 03 c1 10                                    |I...            |
0x620|            00 00 00 00 49 ce c8 10            |    ....I...    |      [86]: "2009-03-29T01:00:00Z" (1238288400) transition_time 0x624-0x62b.7 (8)
0x620|                                    00 00 00 00|            ....|      [87]: "2009-10-25T01:00:00Z" (1256432400) transition_time 0x62c-0x633.7 (8)
0x630|4a e3 a3 10                                    |J...            |
0x630|            00 00 00 00 4b ae aa 10            |    ....K...    |      [88]: "2010-03-28T01:00:00Z" (1269738000) transition_time 0x634-0x63b.7 (8)
0x630|                                    00 00 00 00|            ....|      [89]: "2010-10-31T01:00:00Z" (1288486800) transition_time 0x63c-0x643.7 (8)
0x640|4c cc bf 90                                    |L...            |
0x640|            00 00 00 00 4d 8e 8c 10            |    ....M...    |      [90]: "2011-03-27T01:00:00Z" (1301187600) transition_time 0x644-0x64b.7 (8)
0x640|                                    00 00 00 00|            ....|      [91]: "2011-10-30T01:00:00Z" (1319936400) transition_time 0x64c-0x653.7 (8)
0x650|4e ac a1 90                                    |N...            |
0x650|            00 00 00 00 4f 6e 6e 10            |    ....Onn.    |      [92]: "2012-03-25T01:00:00Z" (1332637200) transition_time 0x654-0x65b.7 (8)
0x650|                                    00 00 00 00|            ....|      [93]: "2012-10-28T01:00:00Z" (1351386000) transition_time 0x65c-0x663.7 (8)
0x660|50 8c 83 90                                    |P...            |
0x660|            00 00 00 00 51 57 8a 90            |    ....QW..    |      [94]: "2013-03-31T01:00:00Z" (1364691600) transition_time 0x664-0x66b.7 (8)
0x660|                                    00 00 00 00|            ....|      [95]: "2013-10-27T01:00:00Z" (1382835600) transition_time 0x66c-0x673.7 (8)
0x670|52 6c 65 90                                    |Rle.            |
0x670|            00 00 00 00 53 37 6c 90            |    ....S7l.    |      [96]: "2014-03-30T01:00:00Z" (1396141200) transition_time 0x674-0x67b.7 (8)
0x670|                                    00 00 00 00|            ....|      [97]: "2014-10-26T01:00:00Z" (1414285200) transition_time 0x67c-0x683.7 (8)
0x680|54 4c 47 90                                    |TLG.            |
0x680|            00 00 00 00 55 17 4e 90            |    ....U.N.    |      [98]: "2015-03-29T01:00:00Z" (1427590800) transition_time 0x684-0x68b.7 (8)
0x680|                                    00 00 00 00|            ....|      [99]: "2015-10-25T01:00:00Z" (1445734800) transition_time 0x68c-0x693.7 (8)
0x690|56 2c 29 90                                    |V,).            |
0x690|            00 00 00 00 56 f7 30 90            |    ....V.0.    |      [100]: "2016-03-27T01:00:00Z" (1459040400) transition_time 0x694-0x69b.7 (8)
0x690|                                    00 00 00 00|            ....|      [101]: "2016-10-30T01:00:00Z" (1477789200) transition_time 0x69c-0x6a3.7 (8)
0x6a0|58 15 46 10                                    |X.F.            |
0x6a0|            00 00 00 00 58 d7 12 90            |    ....X...    |      [102]: "2017-03-26T01:00:00Z" (1490490000) transition_time 0x6a4-0x6ab.7 (8)
0x6a0|                                    00 00 00 00|            ....|      [103]: "2017-10-29T01:00:00Z" (1509238800) transition_time 0x6ac-0x6b3.7 (8)
0x6b0|59 f5 28 10                                    |Y.(.            |
0x6b0|            00 00 00 00 5a b6 f4 90            |    ....Z...    |      [104]: "2018-03-25T01:00:00Z" (1521939600) transition_time 0x6b4-0x6bb.7 (8)
0x6b0|                                    00 00 00 00|            ....|      [105]: "2018-10-28T01:00:00Z" (1540688400) transition_time 0x6bc-0x6c3.7 (8)
0x6c0|5b d5 0a 10                                    |[...            |
0x6c0|            00 00 00 00 5c a0 11 10            |    ....\...    |      [106]: "2019-03-31T01:00:00Z" (1553994000) transition_time 0x6c4-0x6cb.7 (8)
0x6c0|                                    00 00 00 00|            ....|      [107]: "2019-10-27T01:00:00Z" (1572138000) transition_time 0x6cc-0x6d3.7 (8)
0x6d0|5d b4 ec 10                                    |]...            |
0x6d0|            00 00 00 00 5e 7f f3 10            |    ....^...    |      [108]: "2020-03-29T01:00:00Z" (1585443600) transition_time 0x6d4-0x6db.7 (8)
0x6d0|                                    00 00 00 00|            ....|      [109]: "2020-10-25T01:00:00Z" (1603587600) transition_time 0x6dc-0x6e3.7 (8)
0x6e0|5f 94 ce 10                                    |_...            |
0x6e0|            00 00 00 00 60 5f d5 10            |    ....`_..    |      [110]: "2021-03-28T01:00:00Z" (1616893200) transition_time 0x6e4-0x6eb.7 (8)
0x6e0|                                    00 00 00 00|            ....|      [111]: "2021-10-31T01:00:00Z" (1635642000) transition_time 0x6ec-0x6f3.7 (8)
0x6f0|61 7d ea 90                                    |a}..            |
0x6f0|            00 00 00 00 62 3f b7 10            |    ....b?..    |      [112]: "2022-03-27T01:00:00Z" (1648342800) transition_time 0x6f4-0x6fb.7 (8)
0x6f0|                                    00 00 00 00|            ....|      [113]: "2022-10-30T01:00:00Z" (1667091600) transition_time 0x6fc-0x703.7 (8)
0x700|63 5d cc 90                                    |c]..            |
0x700|            00 00 00 00 64 1f 99 10            |    ....d...    |      [114]: "2023-03-26T01:00:00Z" (1679792400) transition_time 0x704-0x70b.7 (8)
0x700|                                    00 00 00 00|            ....|      [115]: "2023-10-29T01:00:00Z" (1698541200) transition_time 0x70c-0x713.7 (8)
0x710|65 3d ae 90                                    |e=..            |
0x710|            00 00 00 00 66 08 b5 90            |    ....f...    |      [116]: "2024-03-31T01:00:00Z" (1711846800) transition_time 0x714-0x71b.7 (8)
0x710|                                    00 00 00 00|            ....|      [117]: "2024-10-27T01:00:00Z" (1729990800) transition_time 0x71c-0x723.7 (8)
0x720|67 1d 90 90                                    |g...            |
0x720|            00 00 00 00 67 e8 97 90            |    ....g...    |      [118]: "2025-03-30T01:00:00Z" (1743296400) transition_time 0x724-0x72b.7 (8)
0x720|                                    00 00 00 00|            ....|      [119]: "2025-10-26T01:00:00Z" (1761440400) transition_time 0x72c-0x733.7 (8)
0x730|68 fd 72 90                                    |h.r.            |
0x730|            00 00 00 00 69 c8 79 90            |    ....i.y.    |      [120]: "2026-03-29T01:00:00Z" (1774746000) transition_time 0x734-0x73b.7 (8)
0x730|                                    00 00 00 00|            ....|      [121]: "2026-10-25T01:00:00Z" (1792890000) transition_time 0x73c-0x743.7 (8)
0x740|6a dd 54 90                                    |j.T.            |
0x740|            00 00 00 00 6b a8 5b 90            |    ....k.[.    |      [122]: "2027-03-28T01:00:00Z" (1806195600) transition_time 0x744-0x74b.7 (8)
0x740|                                    00 00 00 00|            ....|      [123]: "2027-10-31T01:00:00Z" (1824944400) transition_time 0x74c-0x753.7 (8)
0x750|6c c6 71 10                                    |l.q.            |
0x750|            00 00 00 00 6d 88 3d 90            |    ....m.=.    |      [124]: "2028-03-26T01:00:00Z" (1837645200) transition_time 0x754-0x75b.7 (8)
0x750|                                    00 00 00 00|            ....|      [125]: "2028-10-29T01:00:00Z" (1856394000) transition_time 0x75c-0x763.7 (8)
0x760|6e a6 53 10                                    |n.S.            |
0x760|            00 00 00 00 6f 68 1f 90            |    ....oh..    |      [126]: "2029-03-25T01:00:00Z" (1869094800) transition_time 0x764-0x76b.7 (8)
0x760|                                    00 00 00 00|            ....|      [127]: "2029-10-28T01:00:00Z" (1887843600) transition_time 0x76c-0x773.7 (8)
0x770|70 86 35 10                                    |p.5.            |
0x770|            00 00 00 00 71 51 3c 10            |    ....qQ<.    |      [128]: "2030-03-31T01:00:00Z" (1901149200) transition_time 0x774-0x77b.7 (8)
0x770|                                    00 00 00 00|            ....|      [129]: "2030-10-27T01:00:00Z" (1919293200) transition_time 0x77c-0x783.7 (8)
0x780|72 66 17 10                                    |rf..            |
0x780|            00 00 00 00 73 31 1e 10            |    ....s1..    |      [130]: "2031-03-30T01:00:00Z" (1932598800) transition_time 0x784-0x78b.7 (8)
0x780|                                    00 00 00 00|            ....|      [131]: "2031-10-26T01:00:00Z" (1950742800) transition_time 0x78c-0x793.7 (8)
0x790|74 45 f9 10                                    |tE..            |
0x790|            00 00 00 00 75 11 00 10            |    ....u...    |      [132]: "2032-03-28T01:00:00Z" (1964048400) transition_time 0x794-0x79b.7 (8)
0x790|                                    00 00 00 00|            ....|      [133]: "2032-10-31T01:00:00Z" (1982797200) transition_time 0x79c-0x7a3.7 (8)
0x7a0|76 2f 15 90                                    |v/..            |
0x7a0|            00 00 00 00 76 f0 e2 10            |    ....v...    |      [134]: "2033-03-27T01:00:00Z" (1995498000) transition_time 0x7a4-0x7ab.7 (8)
0x7a0|                                    00 00 00 00|            ....|      [135]: "2033-10-30T01:00:00Z" (2014246800) transition_time 0x7ac-0x7b3.7 (8)
0x7b0|78 0e f7 90                                    |x...            |
0x7b0|            00 00 00 00 78 d0 c4 10            |    ....x...    |      [136]: "2034-03-26T01:00:00Z" (2026947600) transition_time 0x7b4-0x7bb.7 (8)
0x7b0|                                    00 00 00 00|            ....|      [137]: "2034-10-29T01:00:00Z" (2045696400) transition_time 0x7bc-0x7c3.7 (8)
0x7c0|79 ee d9 90                                    |y...            |
0x7c0|            00 00 00 00 7a b0 a6 10            |    ....z...    |      [138]: "2035-03-25T01:00:00Z" (2058397200) transition_time 0x7c4-0x7cb.7 (8)
0x7c0|                                    00 00 00 00|            ....|      [139]: "2035-10-28T01:00:00Z" (2077146000) transition_time 0x7cc-0x7d3.7 (8)
0x7d0|7b ce bb 90                                    |{...            |
0x7d0|            00 00 00 00 7c 99 c2 90            |    ....|...    |      [140]: "2036-03-30T01:00:00Z" (2090451600) transition_time 0x7d4-0x7db.7 (8)
0x7d0|                                    00 00 00 00|            ....|      [141]: "2036-10-26T01:00:00Z" (2108595600) transition_time 0x7dc-0x7e3.7 (8)
0x7e0|7d ae 9d 90                                    |}...            |
0x7e0|            00 00 00 00 7e 79 a4 90            |    ....~y..    |      [142]: "2037-03-29T01:00:00Z" (2121901200) transition_time 0x7e4-0x7eb.7 (8)
0x7e0|                                    00 00 00 00|            ....|      [143]: "2037-10-25T01:00:00Z" (2140045200) transition_time 0x7ec-0x7f3.7 (8)
0x7f0|7f 8e 7f 90                                    |....            |
     |                                               |                |    transition_types[0:144]: 0x7f4-0x883.7 (144)
0x7f0|            01                                 |    .           |      [0]: 1 transition_type 0x7f4-0x7f4.7 (1)
0x7f0|               03                              |     .          |      [1]: 3 transition_type 0x7f5-0x7f5.7 (1)
0x7f0|                  02                           |      .         |      [2]: 2 transition_type 0x7f6-0x7f6.7 (1)
0x7f0|                     03                        |       .        |      [3]: 3 transition_type 0x7f7-0x7f7.7 (1)
0x7f0|                        04                     |        .       |      [4]: 4 transition_type 0x7f8-0x7f8.7 (1)
0x7f0|                           05                  |         .      |      [5]: 5 transition_type 0x7f9-0x7f9.7 (1)
0x7f0|                              04               |          .     |      [6]: 4 transition_type 0x7fa-0x7fa.7 (1)
0x7f0|                                 05            |           .    |      [7]: 5 transition_type 0x7fb-0x7fb.7 (1)
0x7f0|                                    04         |            .   |      [8]: 4 transition_type 0x7fc-0x7fc.7 (1)
0x7f0|                                       05      |             .  |      [9]: 5 transition_type 0x7fd-0x7fd.7 (1)
0x7f0|                                          04   |              . |      [10]: 4 transition_type 0x7fe-0x7fe.7 (1)
0x7f0|                                             05|               .|      [11]: 5 transition_type 0x7ff-0x7ff.7 (1)
0x800|04                                             |.               |      [12]: 4 transition_type 0x800-0x800.7 (1)
0x800|   05                                          | .              |      [13]: 5 transition_type 0x801-0x801.7 (1)
0x800|      04                                       |  .             |      [14]: 4 transition_type 0x802-0x802.7 (1)
0x800|         05                                    |   .            |      [15]: 5 transition_type 0x803-0x803.7 (1)
0x800|            04                                 |    .           |      [16]: 4 transition_type 0x804-0x804.7 (1)
0x800|               05                              |     .          |      [17]: 5 transition_type 0x805-0x805.7 (1)
0x800|                  06                           |      .         |      [18]: 6 transition_type 0x806-0x806.7 (1)
0x800|                     03                        |       .        |      [19]: 3 transition_type 0x807-0x807.7 (1)
0x800|                        04                     |        .       |      [20]: 4 transition_type 0x808-0x808.7 (1)
0x800|                           05                  |         .      |      [21]: 5 transition_type 0x809-0x809.7 (1)
0x800|                              04               |          .     |      [22]: 4 transition_type 0x80a-0x80a.7 (1)
0x800|                                 05            |           .    |      [23]: 5 transition_type 0x80b-0x80b.7 (1)
0x800|                                    04         |            .   |      [24]: 4 transition_type 0x80c-0x80c.7 (1)
0x800|                                       05      |             .  |      [25]: 5 transition_type 0x80d-0x80d.7 (1)
0x800|                                          07   |              . |      [26]: 7 transition_type 0x80e-0x80e.7 (1)
0x800|                                             08|               .|      [27]: 8 transition_type 0x80f-0x80f.7 (1)
0x810|07                                             |.               |      [28]: 7 transition_type 0x810-0x810.7 (1)
0x810|   08                                          | .              |      [29]: 8 transition_type 0x811-0x811.7 (1)
0x810|      07                                       |  .             |      [30]: 7 transition_type 0x812-0x812.7 (1)
0x810|         08                                    |   .            |      [31]: 8 transition_type 0x813-0x813.7 (1)
0x810|            07                                 |    .           |      [32]: 7 transition_type 0x814-0x814.7 (1)
0x810|               08                              |     .          |      [33]: 8 transition_type 0x815-0x815.7 (1)
0x810|                  07                           |      .         |      [34]: 7 transition_type 0x816-0x816.7 (1)
0x810|                     08                        |       .        |      [35]: 8 transition_type 0x817-0x817.7 (1)
0x810|                        07                     |        .       |      [36]: 7 transition_type 0x818-0x818.7 (1)
0x810|                           08                  |         .      |      [37]: 8 transition_type 0x819-0x819.7 (1)
0x810|                              07               |          .     |      [38]: 7 transition_type 0x81a-0x81a.7 (1)
0x810|                                 08            |           .    |      [39]: 8 transition_type 0x81b-0x81b.7 (1)
0x810|                                    07         |            .   |      [40]: 7 transition_type 0x81c-0x81c.7 (1)
0x810|                                       08      |             .  |      [41]: 8 transition_type 0x81d-0x81d.7 (1)
0x810|                                          07   |              . |      [42]: 7 transition_type 0x81e-0x81e.7 (1)
0x810|                                             08|               .|      [43]: 8 transition_type 0x81f-0x81f.7 (1)
0x820|07                                             |.               |      [44]: 7 transition_type 0x820-0x820.7 (1)
0x820|   08                                          | .              |      [45]: 8 transition_type 0x821-0x821.7 (1)
0x820|      07                                       |  .             |      [46]: 7 transition_type 0x822-0x822.7 (1)
0x820|         08                                    |   .            |      [47]: 8 transition_type 0x823-0x823.7 (1)
0x820|            07                                 |    .           |      [48]: 7 transition_type 0x824-0x824.7 (1)
0x820|               08                              |     .          |      [49]: 8 transition_type 0x825-0x825.7 (1)
0x820|                  07                           |      .         |      [50]: 7 transition_type 0x826-0x826.7 (1)
0x820|                     08                        |       .        |      [51]: 8 transition_type 0x827-0x827.7 (1)
0x820|                        07                     |        .       |      [52]: 7 transition_type 0x828-0x828.7 (1)
0x820|                           08                  |         .      |      [53]: 8 transition_type 0x829-0x829.7 (1)
0x820|                              07               |          .     |      [54]: 7 transition_type 0x82a-0x82a.7 (1)
0x820|                                 08            |           .    |      [55]: 8 transition_type 0x82b-0x82b.7 (1)
0x820|                                    07         |            .   |      [56]: 7 transition_type 0x82c-0x82c.7 (1)
0x820|                                       08      |             .  |      [57]: 8 transition_type 0x82d-0x82d.7 (1)
0x820|                                          07   |              . |      [58]: 7 transition_type 0x82e-0x82e.7 (1)
0x820|                                             08|               .|      [59]: 8 transition_type 0x82f-0x82f.7 (1)
0x830|07                                             |.               |      [60]: 7 transition_type 0x830-0x830.7 (1)
0x830|   08                                          | .              |      [61]: 8 transition_type 0x831-0x831.7 (1)
0x830|      07                                       |  .             |      [62]: 7 transition_type 0x832-0x832.7 (1)
0x830|         08                                    |   .            |      [63]: 8 transition_type 0x833-0x833.7 (1)
0x830|            07                                 |    .           |      [64]: 7 transition_type 0x834-0x834.7 (1)
0x830|               08                              |     .          |      [65]: 8 transition_type 0x835-0x835.7 (1)
0x830|                  07                           |      .         |      [66]: 7 transition_type 0x836-0x836.7 (1)
0x830|                     08                        |       .        |      [67]: 8 transition_type 0x837-0x837.7 (1)
0x830|                        07                     |        .       |      [68]: 7 transition_type 0x838-0x838.7 (1)
0x830|                           08                  |         .      |      [69]: 8 transition_type 0x839-0x839.7 (1)
0x830|                              07               |          .     |      [70]: 7 transition_type 0x83a-0x83a.7 (1)
0x830|                                 08            |           .    |      [71]: 8 transition_type 0x83b-0x83b.7 (1)
0x830|                                    07         |            .   |      [72]: 7 transition_type 0x83c-0x83c.7 (1)
0x830|                                       08      |             .  |      [73]: 8 transition_type 0x83d-0x83d.7 (1)
0x830|                                          07   |              . |      [74]: 7 transition_type 0x83e-0x83e.7 (1)
0x830|                                             08|               .|      [75]: 8 transition_type 0x83f-0x83f.7 (1)
0x840|07                                             |.               |      [76]: 7 transition_type 0x840-0x840.7 (1)
0x840|   08                                          | .              |      [77]: 8 transition_type 0x841-0x841.7 (1)
0x840|      07                                       |  .             |      [78]: 7 transition_type 0x842-0x842.7 (1)
0x840|         08                                    |   .            |      [79]: 8 transition_type 0x843-0x843.7 (1)
0x840|            07                                 |    .           |      [80]: 7 transition_type 0x844-0x844.7 (1)
0x840|               08                              |     .          |      [81]: 8 transition_type 0x845-0x845.7 (1)
0x840|                  07                           |      .         |      [82]: 7 transition_type 0x846-0x846.7 (1)
0x840|                     08                        |       .        |      [83]: 8 transition_type 0x847-0x847.7 (1)
0x840|                        07                     |        .       |      [84]: 7 transition_type 0x848-0x848.7 (1)
0x840|                           08                  |         .      |      [85]: 8 transition_type 0x849-0x849.7 (1)
0x840|                              07               |          .     |      [86]: 7 transition_type 0x84a-0x84a.7 (1)
0x840|                                 08            |           .    |      [87]: 8 transition_type 0x84b-0x84b.7 (1)
0x840|                                    07         |            .   |      [88]: 7 transition_type 0x84c-0x84c.7 (1)
0x840|                                       08      |             .  |      [89]: 8 transition_type 0x84d-0x84d.7 (1)
0x840|                                          07   |              . |      [90]: 7 transition_type 0x84e-0x84e.7 (1)
0x840|                                             08|               .|      [91]: 8 transition_type 0x84f-0x84f.7 (1)
0x850|07                                             |.               |      [92]: 7 transition_type 0x850-0x850.7 (1)
0x850|   08                                          | .              |      [93]: 8 transition_type 0x851-0x851.7 (1)
0x850|      07                                       |  .             |      [94]: 7 transition_type 0x852-0x852.7 (1)
0x850|         08                                    |   .            |      [95]: 8 transition_type 0x853-0x853.7 (1)
0x850|            07                                 |    .           |      [96]: 7 transition_type 0x854-0x854.7 (1)
0x850|               08                              |     .          |      [97]: 8 transition_type 0x855-0x855.7 (1)
0x850|                  07                           |      .         |      [98]: 7 transition_type 0x856-0x856.7 (1)
0x850|                     08                        |       .        |      [99]: 8 transition_type 0x857-0x857.7 (1)
0x850|                        07                     |        .       |      [100]: 7 transition_type 0x858-0x858.7 (1)
0x850|                           08                  |         .      |      [101]: 8 transition_type 0x859-0x859.7 (1)
0x850|                              07               |          .     |      [102]: 7 transition_type 0x85a-0x85a.7 (1)
0x850|                                 08            |           .    |      [103]: 8 transition_type 0x85b-0x85b.7 (1)
0x850|                                    07         |            .   |      [104]: 7 transition_type 0x85c-0x85c.7 (1)
0x850|                                       08      |             .  |      [105]: 8 transition_type 0x85d-0x85d.7 (1)
0x850|                                          07   |              . |      [106]: 7 transition_type 0x85e-0x85e.7 (1)
0x850|                                             08|               .|      [107]: 8 transition_type 0x85f-0x85f.7 (1)
0x860|07                                             |.               |      [108]: 7 transition_type 0x860-0x860.7 (1)
0x860|   08                                          | .              |      [109]: 8 transition_type 0x861-0x861.7 (1)
0x860|      07                                       |  .             |      [110]: 7 transition_type 0x862-0x862.7 (1)
0x860|         08                                    |   .            |      [111]: 8 transition_type 0x863-0x863.7 (1)
0x860|            07                                 |    .           |      [112]: 7 transition_type 0x864-0x864.7 (1)
0x860|               08                              |     .          |      [113]: 8 transition_type 0x865-0x865.7 (1)
0x860|                  07                           |      .         |      [114]: 7 transition_type 0x866-0x866.7 (1)
0x860|                     08                        |       .        |      [115]: 8 transition_type 0x867-0x867.7 (1)
0x860|                        07                     |        .       |      [116]: 7 transition_type 0x868-0x868.7 (1)
0x860|                           08                  |         .      |      [117]: 8 transition_type 0x869-0x869.7 (1)
0x860|                              07               |          .     |      [118]: 7 transition_type 0x86a-0x86a.7 (1)
0x860|                                 08            |           .    |      [119]: 8 transition_type 0x86b-0x86b.7 (1)
0x860|                                    07         |            .   |      [120]: 7 transition_type 0x86c-0x86c.7 (1)
0x860|                                       08      |             .  |      [121]: 8 transition_type 0x86d-0x86d.7 (1)
0x860|                                          07   |              . |      [122]: 7 transition_type 0x86e-0x86e.7 (1)
0x860|                                             08|               .|      [123]: 8 transition_type 0x86f-0x86f.7 (1)
0x870|07                                             |.               |      [124]: 7 transition_type 0x870-0x870.7 (1)
0x870|   08                                          | .              |      [125]: 8 transition_type 0x871-0x871.7 (1)
0x870|      07                                       |  .             |      [126]: 7 transition_type 0x872-0x872.7 (1)
0x870|         08                                    |   .            |      [127]: 8 transition_type 0x873-0x873.7 (1)
0x870|            07                                 |    .           |      [128]: 7 transition_type 0x874-0x874.7 (1)
0x870|               08                              |     .          |      [129]: 8 transition_type 0x875-0x875.7 (1)
0x870|                  07                           |      .         |      [130]: 7 transition_type 0x876-0x876.7 (1)
0x870|                     08                        |       .        |      [131]: 8 transition_type 0x877-0x877.7 (1)
0x870|                        07                     |        .       |      [132]: 7 transition_type 0x878-0x878.7 (1)
0x870|                           08                  |         .      |      [133]: 8 transition_type 0x879-0x879.7 (1)
0x870|                              07               |          .     |      [134]: 7 transition_type 0x87a-0x87a.7 (1)
0x870|                                 08            |           .    |      [135]: 8 transition_type 0x87b-0x87b.7 (1)
0x870|                                    07         |            .   |      [136]: 7 transition_type 0x87c-0x87c.7 (1)
0x870|                                       08      |             .  |      [137]: 8 transition_type 0x87d-0x87d.7 (1)
0x870|                                          07   |              . |      [138]: 7 transition_type 0x87e-0x87e.7 (1)
0x870|                                             08|               .|      [139]: 8 transition_type 0x87f-0x87f.7 (1)
0x880|07                                             |.               |      [140]: 7 transition_type 0x880-0x880.7 (1)
0x880|   08                                          | .              |      [141]: 8 transition_type 0x881-0x881.7 (1)
0x880|      07                                       |  .             |      [142]: 7 transition_type 0x882-0x882.7 (1)
0x880|         08                                    |   .            |      [143]: 8 transition_type 0x883-0x883.7 (1)
     |                                               |                |    local_time_type_records[0:9]: 0x884-0x8b9.7 (54)
     |                                               |                |      [0]{}: local_time_type 0x884-0x889.7 (6)
0x880|            00 00 0d 88                        |    ....        |        utoff: 3464 (valid) 0x884-0x887.7 (4)
0x880|                        00                     |        .       |        dst: 0 (valid) 0x888-0x888.7 (1)
0x880|                           00                  |         .      |        idx: 0 (valid) 0x889-0x889.7 (1)
     |                                               |                |      [1]{}: local_time_type 0x88a-0x88f.7 (6)
0x880|                              00 00 0d 88      |          ....  |        utoff: 3464 (valid) 0x88a-0x88d.7 (4)
0x880|                                          00   |              . |        dst: 0 (valid) 0x88e-0x88e.7 (1)
0x880|                                             04|               .|        idx: 4 (valid) 0x88f-0x88f.7 (1)
     |                                               |                |      [2]{}: local_time_type 0x890-0x895.7 (6)
0x890|00 00 1c 20                                    |...             |        utoff: 7200 (valid) 0x890-0x893.7 (4)
0x890|            01                                 |    .           |        dst: 1 (valid) 0x894-0x894.7 (1)
0x890|               08                              |     .          |        idx: 8 (valid) 0x895-0x895.7 (1)
     |                                               |                |      [3]{}: local_time_type 0x896-0x89b.7 (6)
0x890|                  00 00 0e 10                  |      ....      |        utoff: 3600 (valid) 0x896-0x899.7 (4)
0x890|                              00               |          .     |        dst: 0 (valid) 0x89a-0x89a.7 (1)
0x890|                                 0d            |           .    |        idx: 13 (valid) 0x89b-0x89b.7 (1)
     |                                               |                |      [4]{}: local_time_type 0x89c-0x8a1.7 (6)
0x890|                                    00 00 1c 20|            ... |        utoff: 7200 (valid) 0x89c-0x89f.7 (4)
0x8a0|01                                             |.               |        dst: 1 (valid) 0x8a0-0x8a0.7 (1)
0x8a0|   08                                          | .              |        idx: 8 (valid) 0x8a1-0x8a1.7 (1)
     |                                               |                |      [5]{}: local_time_type 0x8a2-0x8a7.7 (6)
0x8a0|      00 00 0e 10                              |  ....          |        utoff: 3600 (valid) 0x8a2-0x8a5.7 (4)
0x8a0|                  00                           |      .         |        dst: 0 (valid) 0x8a6-0x8a6.7 (1)
0x8a0|                     0d                        |       .        |        idx: 13 (valid) 0x8a7-0x8a7.7 (1)
     |                                               |                |      [6]{}: local_time_type 0x8a8-0x8ad.7 (6)
0x8a0|                        00 00 00 00            |        ....    |        utoff: 0 (valid) 0x8a8-0x8ab.7 (4)
0x8a0|                                    01         |            .   |        dst: 1 (valid) 0x8ac-0x8ac.7 (1)
0x8a0|                                       11      |             .  |        idx: 17 (valid) 0x8ad-0x8ad.7 (1)
     |                                               |                |      [7]{}: local_time_type 0x8ae-0x8b3.7 (6)
0x8a0|                                          00 00|              ..|        utoff: 7200 (valid) 0x8ae-0x8b1.7 (4)
0x8b0|1c 20                                          |.               |
0x8b0|      01                                       |  .             |        dst: 1 (valid) 0x8b2-0x8b2.7 (1)
0x8b0|         08                                    |   .            |        idx: 8 (valid) 0x8b3-0x8b3.7 (1)
     |                                               |                |      [8]{}: local_time_type 0x8b4-0x8b9.7 (6)
0x8b0|            00 00 0e 10                        |    ....        |        utoff: 3600 (valid) 0x8b4-0x8b7.7 (4)
0x8b0|                        00                     |        .       |        dst: 0 (valid) 0x8b8-0x8b8.7 (1)
0x8b0|                           0d                  |         .      |        idx: 13 (valid) 0x8b9-0x8b9.7 (1)
     |                                               |                |    time_zone_designations[0:5]: 0x8ba-0x8ce.7 (21)
0x8b0|                              4c 4d 54 00      |          LMT.  |      [0]: "LMT" time_zone_designation 0x8ba-0x8bd.7 (4)
0x8b0|                                          50 4d|              PM|      [1]: "PMT" time_zone_designation 0x8be-0x8c1.7 (4)
0x8c0|54 00                                          |T.              |
0x8c0|      43 45 53 54 00                           |  CEST.         |      [2]: "CEST" time_zone_designation 0x8c2-0x8c6.7 (5)
0x8c0|                     43 45 54 00               |       CET.     |      [3]: "CET" time_zone_designation 0x8c7-0x8ca.7 (4)
0x8c0|                                 47 4d 54 00   |           GMT. |      [4]: "GMT" time_zone_designation 0x8cb-0x8ce.7 (4)
     |                                               |                |    leap_second_records[0:0]: 0x8cf-NA (0)
     |                                               |                |    standard_wall_indicators[0:9]: 0x8cf-0x8d7.7 (9)
0x8c0|                                             00|               .|      [0]: 0 standard_wall_indicator (valid) 0x8cf-0x8cf.7 (1)
0x8d0|00                                             |.               |      [1]: 0 standard_wall_indicator (valid) 0x8d0-0x8d0.7 (1)
0x8d0|   00                                          | .              |      [2]: 0 standard_wall_indicator (valid) 0x8d1-0x8d1.7 (1)
0x8d0|      00                                       |  .             |      [3]: 0 standard_wall_indicator (valid) 0x8d2-0x8d2.7 (1)
0x8d0|         01                                    |   .            |      [4]: 1 standard_wall_indicator (valid) 0x8d3-0x8d3.7 (1)
0x8d0|            01                                 |    .           |      [5]: 1 standard_wall_indicator (valid) 0x8d4-0x8d4.7 (1)
0x8d0|               00                              |     .          |      [6]: 0 standard_wall_indicator (valid) 0x8d5-0x8d5.7 (1)
0x8d0|                  01                           |      .         |      [7]: 1 standard_wall_indicator (valid) 0x8d6-0x8d6.7 (1)
0x8d0|                     01                        |       .        |      [8]: 1 standard_wall_indicator (valid) 0x8d7-0x8d7.7 (1)
     |                                               |                |    ut_local_indicators[0:9]: 0x8d8-0x8e0.7 (9)
0x8d0|                        00                     |        .       |      [0]: 0 ut_local_indicator (valid) 0x8d8-0x8d8.7 (1)
0x8d0|                           00                  |         .      |      [1]: 0 ut_local_indicator (valid) 0x8d9-0x8d9.7 (1)
0x8d0|                              00               |          .     |      [2]: 0 ut_local_indicator (valid) 0x8da-0x8da.7 (1)
0x8d0|                                 00            |           .    |      [3]: 0 ut_local_indicator (valid) 0x8db-0x8db.7 (1)
0x8d0|                                    00         |            .   |      [4]: 0 ut_local_indicator (valid) 0x8dc-0x8dc.7 (1)
0x8d0|                                       00      |             .  |      [5]: 0 ut_local_indicator (valid) 0x8dd-0x8dd.7 (1)
0x8d0|                                          00   |              . |      [6]: 0 ut_local_indicator (valid) 0x8de-0x8de.7 (1)
0x8d0|                                             01|               .|      [7]: 1 ut_local_indicator (valid) 0x8df-0x8df.7 (1)
0x8e0|01                                             |.               |      [8]: 1 ut_local_indicator (valid) 0x8e0-0x8e0.7 (1)
     |                                               |                |  footer{}: 0x8e1-0x8fc.7 (28)
0x8e0|   0a                                          | .              |    nl1: 10 (valid) 0x8e1-0x8e1.7 (1)
0x8e0|      43 45 54 2d 31 43 45 53 54 2c 4d 33 2e 35|  CET-1CEST,M3.5|    tz_string: "CET-1CEST,M3.5.0,M10.5.0/3" 0x8e2-0x8fb.7 (26)
0x8f0|2e 30 2c 4d 31 30 2e 35 2e 30 2f 33            |.0,M10.5.0/3    |
0x8f0|                                    0a|        |            .|  |    nl2: 10 (valid) 0x8fc-0x8fc.7 (1)
