$ fq -d tzif dv Puerto_Rico
     |00 01 02 03 04 05 06 07 08 09 0a 0b 0c 0d 0e 0f|0123456789abcdef|.{}: Puerto_Rico (tzif) 0x0-0x31c (796)
     |                                               |                |  v1header{}: 0x0-0x2c (44)
0x000|54 5a 69 66                                    |TZif            |    magic: 0x545a6966 (valid) 0x0-0x4 (4)
0x000|            32                                 |    2           |    ver: "2" (0x32) (valid) 0x4-0x5 (1)
0x000|               00 00 00 00 00 00 00 00 00 00 00|     ...........|    reserved: raw bits 0x5-0x14 (15)
0x010|00 00 00 00                                    |....            |
0x010|            00 00 00 04                        |    ....        |    isutcnt: 4 0x14-0x18 (4)
0x010|                        00 00 00 04            |        ....    |    isstdcnt: 4 0x18-0x1c (4)
0x010|                                    00 00 00 1b|            ....|    leapcnt: 27 0x1c-0x20 (4)
0x020|00 00 00 05                                    |....            |    timecnt: 5 0x20-0x24 (4)
0x020|            00 00 00 04                        |    ....        |    typecnt: 4 0x24-0x28 (4)
0x020|                        00 00 00 10            |        ....    |    charcnt: 16 0x28-0x2c (4)
     |                                               |                |  v1datablock{}: 0x2c-0x14d (289)
     |                                               |                |    transition_times[0:5]: 0x2c-0x40 (20)
0x020|                                    80 00 00 00|            ....|      [0]: "1901-12-13T20:45:52Z" (-2147483648) transition_time 0x2c-0x30 (4)
0x030|cb f6 32 c0                                    |..2.            |      [1]: "1942-05-03T04:00:00Z" (-873057600) transition_time 0x30-0x34 (4)
0x030|            d2 23 f4 70                        |    .#.p        |      [2]: "1945-08-14T23:00:00Z" (-769395600) transition_time 0x34-0x38 (4)
0x030|                        d2 60 ed d0            |        .`..    |      [3]: "1945-09-30T05:00:00Z" (-765399600) transition_time 0x38-0x3c (4)
0x030|                                    64 9b 78 1b|            d.x.|      [4]: "2023-06-28T00:00:27Z" (1687910427) transition_time 0x3c-0x40 (4)
     |                                               |                |    transition_types[0:5]: 0x40-0x45 (5)
0x040|01                                             |.               |      [0]: 1 transition_type 0x40-0x41 (1)
0x040|   03                                          | .              |      [1]: 3 transition_type 0x41-0x42 (1)
0x040|      02                                       |  .             |      [2]: 2 transition_type 0x42-0x43 (1)
0x040|         01                                    |   .            |      [3]: 1 transition_type 0x43-0x44 (1)
0x040|            01                                 |    .           |      [4]: 1 transition_type 0x44-0x45 (1)
     |                                               |                |    local_time_type_records[0:4]: 0x45-0x5d (24)
     |                                               |                |      [0]{}: local_time_type 0x45-0x4b (6)
0x040|               ff ff c2 07                     |     ....       |        utoff: -15865 (valid) 0x45-0x49 (4)
0x040|                           00                  |         .      |        dst: 0 (valid) 0x49-0x4a (1)
0x040|                              00               |          .     |        idx: 0 (valid) 0x4a-0x4b (1)
     |                                               |                |      [1]{}: local_time_type 0x4b-0x51 (6)
0x040|                                 ff ff c7 c0   |           .... |        utoff: -14400 (valid) 0x4b-0x4f (4)
0x040|                                             00|               .|        dst: 0 (valid) 0x4f-0x50 (1)
0x050|04                                             |.               |        idx: 4 (valid) 0x50-0x51 (1)
     |                                               |                |      [2]{}: local_time_type 0x51-0x57 (6)
0x050|   ff ff d5 d0                                 | ....           |        utoff: -10800 (valid) 0x51-0x55 (4)
0x050|               01                              |     .          |        dst: 1 (valid) 0x55-0x56 (1)
0x050|                  08                           |      .         |        idx: 8 (valid) 0x56-0x57 (1)
     |                                               |                |      [3]{}: local_time_type 0x57-0x5d (6)
0x050|                     ff ff d5 d0               |       ....     |        utoff: -10800 (valid) 0x57-0x5b (4)
0x050|                                 01            |           .    |        dst: 1 (valid) 0x5b-0x5c (1)
0x050|                                    0c         |            .   |        idx: 12 (valid) 0x5c-0x5d (1)
     |                                               |                |    time_zone_designations[0:4]: 0x5d-0x6d (16)
0x050|                                       4c 4d 54|             LMT|      [0]: "LMT" time_zone_designation 0x5d-0x61 (4)
0x060|00                                             |.               |
0x060|   41 53 54 00                                 | AST.           |      [1]: "AST" time_zone_designation 0x61-0x65 (4)
0x060|               41 50 54 00                     |     APT.       |      [2]: "APT" time_zone_designation 0x65-0x69 (4)
0x060|                           41 57 54 00         |         AWT.   |      [3]: "AWT" time_zone_designation 0x69-0x6d (4)
     |                                               |                |    leap_second_records[0:27]: 0x6d-0x145 (216)
     |                                               |                |      [0]{}: leap_second_record 0x6d-0x75 (8)
0x060|                                       04 b2 58|             ..X|        occur: "1972-07-01T00:00:00Z" (78796800) 0x6d-0x71 (4)
0x070|00                                             |.               |
0x070|   00 00 00 01                                 | ....           |        corr: 1 0x71-0x75 (4)
     |                                               |                |      [1]{}: leap_second_record 0x75-0x7d (8)
0x070|               05 a4 ec 01                     |     ....       |        occur: "1973-01-01T00:00:01Z" (94694401) 0x75-0x79 (4)
0x070|                           00 00 00 02         |         ....   |        corr: 2 0x79-0x7d (4)
     |                                               |                |      [2]{}: leap_second_record 0x7d-0x85 (8)
0x070|                                       07 86 1f|             ...|        occur: "1974-01-01T00:00:02Z" (126230402) 0x7d-0x81 (4)
0x080|82                                             |.               |
0x080|   00 00 00 03                                 | ....           |        corr: 3 0x81-0x85 (4)
     |                                               |                |      [3]{}: leap_second_record 0x85-0x8d (8)
0x080|               09 67 53 03                     |     .gS.       |        occur: "1975-01-01T00:00:03Z" (157766403) 0x85-0x89 (4)
0x080|                           00 00 00 04         |         ....   |        corr: 4 0x89-0x8d (4)
     |                                               |                |      [4]{}: leap_second_record 0x8d-0x95 (8)
0x080|                                       0b 48 86|             .H.|        occur: "1976-01-01T00:00:04Z" (189302404) 0x8d-0x91 (4)
0x090|84                                             |.               |
0x090|   00 00 00 05                                 | ....           |        corr: 5 0x91-0x95 (4)
     |                                               |                |      [5]{}: leap_second_record 0x95-0x9d (8)
0x090|               0d 2b 0b 85                     |     .+..       |        occur: "1977-01-01T00:00:05Z" (220924805) 0x95-0x99 (4)
0x090|                           00 00 00 06         |         ....   |        corr: 6 0x99-0x9d (4)
     |                                               |                |      [6]{}: leap_second_record 0x9d-0xa5 (8)
0x090|                                       0f 0c 3f|             ..?|        occur: "1978-01-01T00:00:06Z" (252460806) 0x9d-0xa1 (4)
0x0a0|06                                             |.               |
0x0a0|   00 00 00 07                                 | ....           |        corr: 7 0xa1-0xa5 (4)
     |                                               |                |      [7]{}: leap_second_record 0xa5-0xad (8)
0x0a0|               10 ed 72 87                     |     ..r.       |        occur: "1979-01-01T00:00:07Z" (283996807) 0xa5-0xa9 (4)
0x0a0|                           00 00 00 08         |         ....   |        corr: 8 0xa9-0xad (4)
     |                                               |                |      [8]{}: leap_second_record 0xad-0xb5 (8)
0x0a0|                                       12 ce a6|             ...|        occur: "1980-01-01T00:00:08Z" (315532808) 0xad-0xb1 (4)
0x0b0|08                                             |.               |
0x0b0|   00 00 00 09                                 | ....           |        corr: 9 0xb1-0xb5 (4)
     |                                               |                |      [9]{}: leap_second_record 0xb5-0xbd (8)
0x0b0|               15 9f ca 89                     |     ....       |        occur: "1981-07-01T00:00:09Z" (362793609) 0xb5-0xb9 (4)
0x0b0|                           00 00 00 0a         |         ....   |        corr: 10 0xb9-0xbd (4)
     |                                               |                |      [10]{}: leap_second_record 0xbd-0xc5 (8)
0x0b0|                                       17 80 fe|             ...|        occur: "1982-07-01T00:00:10Z" (394329610) 0xbd-0xc1 (4)
0x0c0|0a                                             |.               |
0x0c0|   00 00 00 0b                                 | ....           |        corr: 11 0xc1-0xc5 (4)
     |                                               |                |      [11]{}: leap_second_record 0xc5-0xcd (8)
0x0c0|               19 62 31 8b                     |     .b1.       |        occur: "1983-07-01T00:00:11Z" (425865611) 0xc5-0xc9 (4)
0x0c0|                           00 00 00 0c         |         ....   |        corr: 12 0xc9-0xcd (4)
     |                                               |                |      [12]{}: leap_second_record 0xcd-0xd5 (8)
0x0c0|                                       1d 25 ea|             .%.|        occur: "1985-07-01T00:00:12Z" (489024012) 0xcd-0xd1 (4)
0x0d0|0c                                             |.               |
0x0d0|   00 00 00 0d                                 | ....           |        corr: 13 0xd1-0xd5 (4)
     |                                               |                |      [13]{}: leap_second_record 0xd5-0xdd (8)
0x0d0|               21 da e5 0d                     |     !...       |        occur: "1988-01-01T00:00:13Z" (567993613) 0xd5-0xd9 (4)
0x0d0|                           00 00 00 0e         |         ....   |        corr: 14 0xd9-0xdd (4)
     |                                               |                |      [14]{}: leap_second_record 0xdd-0xe5 (8)
0x0d0|                                       25 9e 9d|             %..|        occur: "1990-01-01T00:00:14Z" (631152014) 0xdd-0xe1 (4)
0x0e0|8e                                             |.               |
0x0e0|   00 00 00 0f                                 | ....           |        corr: 15 0xe1-0xe5 (4)
     |                                               |                |      [15]{}: leap_second_record 0xe5-0xed (8)
0x0e0|               27 7f d1 0f                     |     '...       |        occur: "1991-01-01T00:00:15Z" (662688015) 0xe5-0xe9 (4)
0x0e0|                           00 00 00 10         |         ....   |        corr: 16 0xe9-0xed (4)
     |                                               |                |      [16]{}: leap_second_record 0xed-0xf5 (8)
0x0e0|                                       2a 50 f5|             *P.|        occur: "1992-07-01T00:00:16Z" (709948816) 0xed-0xf1 (4)
0x0f0|90                                             |.               |
0x0f0|   00 00 00 11                                 | ....           |        corr: 17 0xf1-0xf5 (4)
     |                                               |                |      [17]{}: leap_second_record 0xf5-0xfd (8)
0x0f0|               2c 32 29 11                     |     ,2).       |        occur: "1993-07-01T00:00:17Z" (741484817) 0xf5-0xf9 (4)
0x0f0|                           00 00 00 12         |         ....   |        corr: 18 0xf9-0xfd (4)
     |                                               |                |      [18]{}: leap_second_record 0xfd-0x105 (8)
0x0f0|                                       2e 13 5c|             ..\|        occur: "1994-07-01T00:00:18Z" (773020818) 0xfd-0x101 (4)
0x100|92                                             |.               |
0x100|   00 00 00 13                                 | ....           |        corr: 19 0x101-0x105 (4)
     |                                               |                |      [19]{}: leap_second_record 0x105-0x10d (8)
0x100|               30 e7 24 13                     |     0.$.       |        occur: "1996-01-01T00:00:19Z" (820454419) 0x105-0x109 (4)
0x100|                           00 00 00 14         |         ....   |        corr: 20 0x109-0x10d (4)
     |                                               |                |      [20]{}: leap_second_record 0x10d-0x115 (8)
0x100|                                       33 b8 48|             3.H|        occur: "1997-07-01T00:00:20Z" (867715220) 0x10d-0x111 (4)
0x110|94                                             |.               |
0x110|   00 00 00 15                                 | ....           |        corr: 21 0x111-0x115 (4)
     |                                               |                |      [21]{}: leap_second_record 0x115-0x11d (8)
0x110|               36 8c 10 15                     |     6...       |        occur: "1999-01-01T00:00:21Z" (915148821) 0x115-0x119 (4)
0x110|                           00 00 00 16         |         ....   |        corr: 22 0x119-0x11d (4)
     |                                               |                |      [22]{}: leap_second_record 0x11d-0x125 (8)
0x110|                                       43 b7 1b|             C..|        occur: "2006-01-01T00:00:22Z" (1136073622) 0x11d-0x121 (4)
0x120|96                                             |.               |
0x120|   00 00 00 17                                 | ....           |        corr: 23 0x121-0x125 (4)
     |                                               |                |      [23]{}: leap_second_record 0x125-0x12d (8)
0x120|               49 5c 07 97                     |     I\..       |        occur: "2009-01-01T00:00:23Z" (1230768023) 0x125-0x129 (4)
0x120|                           00 00 00 18         |         ....   |        corr: 24 0x129-0x12d (4)
     |                                               |                |      [24]{}: leap_second_record 0x12d-0x135 (8)
0x120|                                       4f ef 93|             O..|        occur: "2012-07-01T00:00:24Z" (1341100824) 0x12d-0x131 (4)
0x130|18                                             |.               |
0x130|   00 00 00 19                                 | ....           |        corr: 25 0x131-0x135 (4)
     |                                               |                |      [25]{}: leap_second_record 0x135-0x13d (8)
0x130|               55 93 2d 99                     |     U.-.       |        occur: "2015-07-01T00:00:25Z" (1435708825) 0x135-0x139 (4)
0x130|                           00 00 00 1a         |         ....   |        corr: 26 0x139-0x13d (4)
     |                                               |                |      [26]{}: leap_second_record 0x13d-0x145 (8)
0x130|                                       58 68 46|             XhF|        occur: "2017-01-01T00:00:26Z" (1483228826) 0x13d-0x141 (4)
0x140|9a                                             |.               |
0x140|   00 00 00 1b                                 | ....           |        corr: 27 0x141-0x145 (4)
     |                                               |                |    standard_wall_indicators[0:4]: 0x145-0x149 (4)
0x140|               00                              |     .          |      [0]: 0 standard_wall_indicator (valid) 0x145-0x146 (1)
0x140|                  00                           |      .         |      [1]: 0 standard_wall_indicator (valid) 0x146-0x147 (1)
0x140|                     01                        |       .        |      [2]: 1 standard_wall_indicator (valid) 0x147-0x148 (1)
0x140|                        00                     |        .       |      [3]: 0 standard_wall_indicator (valid) 0x148-0x149 (1)
     |                                               |                |    ut_local_indicators[0:4]: 0x149-0x14d (4)
0x140|                           00                  |         .      |      [0]: 0 ut_local_indicator (valid) 0x149-0x14a (1)
0x140|                              00               |          .     |      [1]: 0 ut_local_indicator (valid) 0x14a-0x14b (1)
0x140|                                 01            |           .    |      [2]: 1 ut_local_indicator (valid) 0x14b-0x14c (1)
0x140|                                    00         |            .   |      [3]: 0 ut_local_indicator (valid) 0x14c-0x14d (1)
     |                                               |                |  v2plusheader{}: 0x14d-0x179 (44)
0x140|                                       54 5a 69|             TZi|    magic: 0x545a6966 (valid) 0x14d-0x151 (4)
0x150|66                                             |f               |
0x150|   32                                          | 2              |    ver: "2" (0x32) (valid) 0x151-0x152 (1)
0x150|      00 00 00 00 00 00 00 00 00 00 00 00 00 00|  ..............|    reserved: raw bits 0x152-0x161 (15)
0x160|00                                             |.               |
0x160|   00 00 00 04                                 | ....           |    isutcnt: 4 0x161-0x165 (4)
0x160|               00 00 00 04                     |     ....       |    isstdcnt: 4 0x165-0x169 (4)
0x160|                           00 00 00 1b         |         ....   |    leapcnt: 27 0x169-0x16d (4)
0x160|                                       00 00 00|             ...|    timecnt: 5 0x16d-0x171 (4)
0x170|05                                             |.               |
0x170|   00 00 00 04                                 | ....           |    typecnt: 4 0x171-0x175 (4)
0x170|               00 00 00 10                     |     ....       |    charcnt: 16 0x175-0x179 (4)
     |                                               |                |  v2plusdatablock{}: 0x179-0x31a (417)
     |                                               |                |    transition_times[0:5]: 0x179-0x1a1 (40)
0x170|                           ff ff ff ff 7a e6 95|         ....z..|      [0]: "1899-03-28T16:24:25Z" (-2233035335) transition_time 0x179-0x181 (8)
0x180|b9                                             |.               |
0x180|   ff ff ff ff cb f6 32 c0                     | ......2.       |      [1]: "1942-05-03T04:00:00Z" (-873057600) transition_time 0x181-0x189 (8)
0x180|                           ff ff ff ff d2 23 f4|         .....#.|      [2]: "1945-08-14T23:00:00Z" (-769395600) transition_time 0x189-0x191 (8)
0x190|70                                             |p               |
0x190|   ff ff ff ff d2 60 ed d0                     | .....`..       |      [3]: "1945-09-30T05:00:00Z" (-765399600) transition_time 0x191-0x199 (8)
0x190|                           00 00 00 00 64 9b 78|         ....d.x|      [4]: "2023-06-28T00:00:27Z" (1687910427) transition_time 0x199-0x1a1 (8)
0x1a0|1b                                             |.               |
     |                                               |                |    transition_types[0:5]: 0x1a1-0x1a6 (5)
0x1a0|   01                                          | .              |      [0]: 1 transition_type 0x1a1-0x1a2 (1)
0x1a0|      03                                       |  .             |      [1]: 3 transition_type 0x1a2-0x1a3 (1)
0x1a0|         02                                    |   .            |      [2]: 2 transition_type 0x1a3-0x1a4 (1)
0x1a0|            01                                 |    .           |      [3]: 1 transition_type 0x1a4-0x1a5 (1)
0x1a0|               01                              |     .          |      [4]: 1 transition_type 0x1a5-0x1a6 (1)
     |                                               |                |    local_time_type_records[0:4]: 0x1a6-0x1be (24)
     |                                               |                |      [0]{}: local_time_type 0x1a6-0x1ac (6)
0x1a0|                  ff ff c2 07                  |      ....      |        utoff: -15865 (valid) 0x1a6-0x1aa (4)
0x1a0|                              00               |          .     |        dst: 0 (valid) 0x1aa-0x1ab (1)
0x1a0|                                 00            |           .    |        idx: 0 (valid) 0x1ab-0x1ac (1)
     |                                               |                |      [1]{}: local_time_type 0x1ac-0x1b2 (6)
0x1a0|                                    ff ff c7 c0|            ....|        utoff: -14400 (valid) 0x1ac-0x1b0 (4)
0x1b0|00                                             |.               |        dst: 0 (valid) 0x1b0-0x1b1 (1)
0x1b0|   04                                          | .              |        idx: 4 (valid) 0x1b1-0x1b2 (1)
     |                                               |                |      [2]{}: local_time_type 0x1b2-0x1b8 (6)
0x1b0|      ff ff d5 d0                              |  ....          |        utoff: -10800 (valid) 0x1b2-0x1b6 (4)
0x1b0|                  01                           |      .         |        dst: 1 (valid) 0x1b6-0x1b7 (1)
0x1b0|                     08                        |       .        |        idx: 8 (valid) 0x1b7-0x1b8 (1)
     |                                               |                |      [3]{}: local_time_type 0x1b8-0x1be (6)
0x1b0|                        ff ff d5 d0            |        ....    |        utoff: -10800 (valid) 0x1b8-0x1bc (4)
0x1b0|                                    01         |            .   |        dst: 1 (valid) 0x1bc-0x1bd (1)
0x1b0|                                       0c      |             .  |        idx: 12 (valid) 0x1bd-0x1be (1)
     |                                               |                |    time_zone_designations[0:4]: 0x1be-0x1ce (16)
0x1b0|                                          4c 4d|              LM|      [0]: "LMT" time_zone_designation 0x1be-0x1c2 (4)
0x1c0|54 00                                          |T.              |
0x1c0|      41 53 54 00                              |  AST.          |      [1]: "AST" time_zone_designation 0x1c2-0x1c6 (4)
0x1c0|                  41 50 54 00                  |      APT.      |      [2]: "APT" time_zone_designation 0x1c6-0x1ca (4)
0x1c0|                              41 57 54 00      |          AWT.  |      [3]: "AWT" time_zone_designation 0x1ca-0x1ce (4)
     |                                               |                |    leap_second_records[0:27]: 0x1ce-0x312 (324)
     |                                               |                |      [0]{}: leap_second_record 0x1ce-0x1da (12)
0x1c0|                                          00 00|              ..|        occur: "1972-07-01T00:00:00Z" (78796800) 0x1ce-0x1d6 (8)
0x1d0|00 00 04 b2 58 00                              |....X.          |
0x1d0|                  00 00 00 01                  |      ....      |        corr: 1 0x1d6-0x1da (4)
     |                                               |                |      [1]{}: leap_second_record 0x1da-0x1e6 (12)
0x1d0|                              00 00 00 00 05 a4|          ......|        occur: "1973-01-01T00:00:01Z" (94694401) 0x1da-0x1e2 (8)
0x1e0|ec 01                                          |..              |
0x1e0|      00 00 00 02                              |  ....          |        corr: 2 0x1e2-0x1e6 (4)
     |                                               |                |      [2]{}: leap_second_record 0x1e6-0x1f2 (12)
0x1e0|                  00 00 00 00 07 86 1f 82      |      ........  |        occur: "1974-01-01T00:00:02Z" (126230402) 0x1e6-0x1ee (8)
0x1e0|                                          00 00|              ..|        corr: 3 0x1ee-0x1f2 (4)
0x1f0|00 03                                          |..              |
     |                                               |                |      [3]{}: leap_second_record 0x1f2-0x1fe (12)
0x1f0|      00 00 00 00 09 67 53 03                  |  .....gS.      |        occur: "1975-01-01T00:00:03Z" (157766403) 0x1f2-0x1fa (8)
0x1f0|                              00 00 00 04      |          ....  |        corr: 4 0x1fa-0x1fe (4)
     |                                               |                |      [4]{}: leap_second_record 0x1fe-0x20a (12)
0x1f0|                                          00 00|              ..|        occur: "1976-01-01T00:00:04Z" (189302404) 0x1fe-0x206 (8)
0x200|00 00 0b 48 86 84                              |...H..          |
0x200|                  00 00 00 05                  |      ....      |        corr: 5 0x206-0x20a (4)
     |                                               |                |      [5]{}: leap_second_record 0x20a-0x216 (12)
0x200|                              00 00 00 00 0d 2b|          .....+|        occur: "1977-01-01T00:00:05Z" (220924805) 0x20a-0x212 (8)
0x210|0b 85                                          |..              |
0x210|      00 00 00 06                              |  ....          |        corr: 6 0x212-0x216 (4)
     |                                               |                |      [6]{}: leap_second_record 0x216-0x222 (12)
0x210|                  00 00 00 00 0f 0c 3f 06      |      ......?.  |        occur: "1978-01-01T00:00:06Z" (252460806) 0x216-0x21e (8)
0x210|                                          00 00|              ..|        corr: 7 0x21e-0x222 (4)
0x220|00 07                                          |..              |
     |                                               |                |      [7]{}: leap_second_record 0x222-0x22e (12)
0x220|      00 00 00 00 10 ed 72 87                  |  ......r.      |        occur: "1979-01-01T00:00:07Z" (283996807) 0x222-0x22a (8)
0x220|                              00 00 00 08      |          ....  |        corr: 8 0x22a-0x22e (4)
     |                                               |                |      [8]{}: leap_second_record 0x22e-0x23a (12)
0x220|                                          00 00|              ..|        occur: "1980-01-01T00:00:08Z" (315532808) 0x22e-0x236 (8)
0x230|00 00 12 ce a6 08                              |......          |
0x230|                  00 00 00 09                  |      ....      |        corr: 9 0x236-0x23a (4)
     |                                               |                |      [9]{}: leap_second_record 0x23a-0x246 (12)
0x230|                              00 00 00 00 15 9f|          ......|        occur: "1981-07-01T00:00:09Z" (362793609) 0x23a-0x242 (8)
0x240|ca 89                                          |..              |
0x240|      00 00 00 0a                              |  ....          |        corr: 10 0x242-0x246 (4)
     |                                               |                |      [10]{}: leap_second_record 0x246-0x252 (12)
0x240|                  00 00 00 00 17 80 fe 0a      |      ........  |        occur: "1982-07-01T00:00:10Z" (394329610) 0x246-0x24e (8)
0x240|                                          00 00|              ..|        corr: 11 0x24e-0x252 (4)
0x250|00 0b                                          |..              |
     |                                               |                |      [11]{}: leap_second_record 0x252-0x25e (12)
0x250|      00 00 00 00 19 62 31 8b                  |  .....b1.      |        occur: "1983-07-01T00:00:11Z" (425865611) 0x252-0x25a (8)
0x250|                              00 00 00 0c      |          ....  |        corr: 12 0x25a-0x25e (4)
     |                                               |                |      [12]{}: leap_second_record 0x25e-0x26a (12)
0x250|                                          00 00|              ..|        occur: "1985-07-01T00:00:12Z" (489024012) 0x25e-0x266 (8)
0x260|00 00 1d 25 ea 0c                              |...%..          |
0x260|                  00 00 00 0d                  |      ....      |        corr: 13 0x266-0x26a (4)
     |                                               |                |      [13]{}: leap_second_record 0x26a-0x276 (12)
0x260|                              00 00 00 00 21 da|          ....!.|        occur: "1988-01-01T00:00:13Z" (567993613) 0x26a-0x272 (8)
0x270|e5 0d                                          |..              |
0x270|      00 00 00 0e                              |  ....          |        corr: 14 0x272-0x276 (4)
     |                                               |                |      [14]{}: leap_second_record 0x276-0x282 (12)
0x270|                  00 00 00 00 25 9e 9d 8e      |      ....%...  |        occur: "1990-01-01T00:00:14Z" (631152014) 0x276-0x27e (8)
0x270|                                          00 00|              ..|        corr: 15 0x27e-0x282 (4)
0x280|00 0f                                          |..              |
     |                                               |                |      [15]{}: leap_second_record 0x282-0x28e (12)
0x280|      00 00 00 00 27 7f d1 0f                  |  ....'...      |        occur: "1991-01-01T00:00:15Z" (662688015) 0x282-0x28a (8)
0x280|                              00 00 00 10      |          ....  |        corr: 16 0x28a-0x28e (4)
     |                                               |                |      [16]{}: leap_second_record 0x28e-0x29a (12)
0x280|                                          00 00|              ..|        occur: "1992-07-01T00:00:16Z" (709948816) 0x28e-0x296 (8)
0x290|00 00 2a 50 f5 90                              |..*P..          |
0x290|                  00 00 00 11                  |      ....      |        corr: 17 0x296-0x29a (4)
     |                                               |                |      [17]{}: leap_second_record 0x29a-0x2a6 (12)
0x290|                              00 00 00 00 2c 32|          ....,2|        occur: "1993-07-01T00:00:17Z" (741484817) 0x29a-0x2a2 (8)
0x2a0|29 11                                          |).              |
0x2a0|      00 00 00 12                              |  ....          |        corr: 18 0x2a2-0x2a6 (4)
     |                                               |                |      [18]{}: leap_second_record 0x2a6-0x2b2 (12)
0x2a0|                  00 00 00 00 2e 13 5c 92      |      ......\.  |        occur: "1994-07-01T00:00:18Z" (773020818) 0x2a6-0x2ae (8)
0x2a0|                                          00 00|              ..|        corr: 19 0x2ae-0x2b2 (4)
0x2b0|00 13                                          |..              |
     |                                               |                |      [19]{}: leap_second_record 0x2b2-0x2be (12)
0x2b0|      00 00 00 00 30 e7 24 13                  |  ....0.$.      |        occur: "1996-01-01T00:00:19Z" (820454419) 0x2b2-0x2ba (8)
0x2b0|                              00 00 00 14      |          ....  |        corr: 20 0x2ba-0x2be (4)
     |                                               |                |      [20]{}: leap_second_record 0x2be-0x2ca (12)
0x2b0|                                          00 00|              ..|        occur: "1997-07-01T00:00:20Z" (867715220) 0x2be-0x2c6 (8)
0x2c0|00 00 33 b8 48 94                              |..3.H.          |
0x2c0|                  00 00 00 15                  |      ....      |        corr: 21 0x2c6-0x2ca (4)
     |                                               |                |      [21]{}: leap_second_record 0x2ca-0x2d6 (12)
0x2c0|                              00 00 00 00 36 8c|          ....6.|        occur: "1999-01-01T00:00:21Z" (915148821) 0x2ca-0x2d2 (8)
0x2d0|10 15                                          |..              |
0x2d0|      00 00 00 16                              |  ....          |        corr: 22 0x2d2-0x2d6 (4)
     |                                               |                |      [22]{}: leap_second_record 0x2d6-0x2e2 (12)
0x2d0|                  00 00 00 00 43 b7 1b 96      |      ....C...  |        occur: "2006-01-01T00:00:22Z" (1136073622) 0x2d6-0x2de (8)
0x2d0|                                          00 00|              ..|        corr: 23 0x2de-0x2e2 (4)
0x2e0|00 17                                          |..              |
     |                                               |                |      [23]{}: leap_second_record 0x2e2-0x2ee (12)
0x2e0|      00 00 00 00 49 5c 07 97                  |  ....I\..      |        occur: "2009-01-01T00:00:23Z" (1230768023) 0x2e2-0x2ea (8)
0x2e0|                              00 00 00 18      |          ....  |        corr: 24 0x2ea-0x2ee (4)
     |                                               |                |      [24]{}: leap_second_record 0x2ee-0x2fa (12)
0x2e0|                                          00 00|              ..|        occur: "2012-07-01T00:00:24Z" (1341100824) 0x2ee-0x2f6 (8)
0x2f0|00 00 4f ef 93 18                              |..O...          |
0x2f0|                  00 00 00 19                  |      ....      |        corr: 25 0x2f6-0x2fa (4)
     |                                               |                |      [25]{}: leap_second_record 0x2fa-0x306 (12)
0x2f0|                              00 00 00 00 55 93|          ....U.|        occur: "2015-07-01T00:00:25Z" (1435708825) 0x2fa-0x302 (8)
0x300|2d 99                                          |-.              |
0x300|      00 00 00 1a                              |  ....          |        corr: 26 0x302-0x306 (4)
     |                                               |                |      [26]{}: leap_second_record 0x306-0x312 (12)
0x300|                  00 00 00 00 58 68 46 9a      |      ....XhF.  |        occur: "2017-01-01T00:00:26Z" (1483228826) 0x306-0x30e (8)
0x300|                                          00 00|              ..|        corr: 27 0x30e-0x312 (4)
0x310|00 1b                                          |..              |
     |                                               |                |    standard_wall_indicators[0:4]: 0x312-0x316 (4)
0x310|      00                                       |  .             |      [0]: 0 standard_wall_indicator (valid) 0x312-0x313 (1)
0x310|         00                                    |   .            |      [1]: 0 standard_wall_indicator (valid) 0x313-0x314 (1)
0x310|            01                                 |    .           |      [2]: 1 standard_wall_indicator (valid) 0x314-0x315 (1)
0x310|               00                              |     .          |      [3]: 0 standard_wall_indicator (valid) 0x315-0x316 (1)
     |                                               |                |    ut_local_indicators[0:4]: 0x316-0x31a (4)
0x310|                  00                           |      .         |      [0]: 0 ut_local_indicator (valid) 0x316-0x317 (1)
0x310|                     00                        |       .        |      [1]: 0 ut_local_indicator (valid) 0x317-0x318 (1)
0x310|                        01                     |        .       |      [2]: 1 ut_local_indicator (valid) 0x318-0x319 (1)
0x310|                           00                  |         .      |      [3]: 0 ut_local_indicator (valid) 0x319-0x31a (1)
     |                                               |                |  footer{}: 0x31a-0x31c (2)
0x310|                              0a               |          .     |    nl1: 10 (valid) 0x31a-0x31b (1)
     |                                               |                |    tz_string: "" 0x31b-0x31b (0)
0x310|                                 0a|           |           .|   |    nl2: 10 (valid) 0x31b-0x31c (1)
