$ fq -d tzif dv Punta_Arenas
     |00 01 02 03 04 05 06 07 08 09 0a 0b 0c 0d 0e 0f|0123456789abcdef|.{}: Punta_Arenas (tzif) 0x0-0x992 (2450)
     |                                               |                |  v1header{}: 0x0-0x2c (44)
0x000|54 5a 69 66                                    |TZif            |    magic: 0x545a6966 (valid) 0x0-0x4 (4)
0x000|            32                                 |    2           |    ver: "2" (0x32) (valid) 0x4-0x5 (1)
0x000|               00 00 00 00 00 00 00 00 00 00 00|     ...........|    reserved: raw bits 0x5-0x14 (15)
0x010|00 00 00 00                                    |....            |
0x010|            00 00 00 08                        |    ....        |    isutcnt: 8 0x14-0x18 (4)
0x010|                        00 00 00 08            |        ....    |    isstdcnt: 8 0x18-0x1c (4)
0x010|                                    00 00 00 1b|            ....|    leapcnt: 27 0x1c-0x20 (4)
0x020|00 00 00 76                                    |...v            |    timecnt: 118 0x20-0x24 (4)
0x020|            00 00 00 08                        |    ....        |    typecnt: 8 0x24-0x28 (4)
0x020|                        00 00 00 14            |        ....    |    charcnt: 20 0x28-0x2c (4)
     |                                               |                |  v1datablock{}: 0x2c-0x3a6 (890)
     |                                               |                |    transition_times[0:118]: 0x2c-0x204 (472)
0x020|                                    80 00 00 00|            ....|      [0]: "1901-12-13T20:45:52Z" (-2147483648) transition_time 0x2c-0x30 (4)
0x030|8f 30 47 45                                    |.0GE            |      [1]: "1910-01-10T04:42:45Z" (-1892661435) transition_time 0x30-0x34 (4)
0x030|            9b 5c e5 50                        |    .\.P        |      [2]: "1916-07-01T05:00:00Z" (-1688410800) transition_time 0x34-0x38 (4)
0x030|                        9f 7c e2 c5            |        .|..    |      [3]: "1918-09-10T04:42:45Z" (-1619205435) transition_time 0x38-0x3c (4)
0x030|                                    a1 00 71 c0|            ..q.|      [4]: "1919-07-01T04:00:00Z" (-1593806400) transition_time 0x3c-0x40 (4)
0x040|b0 5e 77 c5                                    |.^w.            |      [5]: "1927-09-01T04:42:45Z" (-1335986235) transition_time 0x40-0x44 (4)
0x040|            b1 77 3d 40                        |    .w=@        |      [6]: "1928-04-01T04:00:00Z" (-1317585600) transition_time 0x44-0x48 (4)
0x040|                        b2 41 00 d0            |        .A..    |      [7]: "1928-09-01T05:00:00Z" (-1304362800) transition_time 0x48-0x4c (4)
0x040|                                    b3 58 70 c0|            .Xp.|      [8]: "1929-04-01T04:00:00Z" (-1286049600) transition_time 0x4c-0x50 (4)
0x050|b4 22 34 50                                    |."4P            |      [9]: "1929-09-01T05:00:00Z" (-1272826800) transition_time 0x50-0x54 (4)
0x050|            b5 39 a4 40                        |    .9.@        |      [10]: "1930-04-01T04:00:00Z" (-1254513600) transition_time 0x54-0x58 (4)
0x050|                        b6 03 67 d0            |        ..g.    |      [11]: "1930-09-01T05:00:00Z" (-1241290800) transition_time 0x58-0x5c (4)
0x050|                                    b7 1a d7 c0|            ....|      [12]: "1931-04-01T04:00:00Z" (-1222977600) transition_time 0x5c-0x60 (4)
0x060|b7 e4 9b 50                                    |...P            |      [13]: "1931-09-01T05:00:00Z" (-1209754800) transition_time 0x60-0x64 (4)
0x060|            b8 fd 5c c0                        |    ..\.        |      [14]: "1932-04-01T04:00:00Z" (-1191355200) transition_time 0x64-0x68 (4)
0x060|                        b9 c7 20 50            |        .. P    |      [15]: "1932-09-01T05:00:00Z" (-1178132400) transition_time 0x68-0x6c (4)
0x060|                                    cc 1c 6e 40|            ..n@|      [16]: "1942-06-01T04:00:00Z" (-870552000) transition_time 0x6c-0x70 (4)
0x070|cc 6c e7 d0                                    |.l..            |      [17]: "1942-08-01T05:00:00Z" (-865278000) transition_time 0x70-0x74 (4)
0x070|            d4 17 e3 40                        |    ...@        |      [18]: "1946-08-29T04:00:00Z" (-736632000) transition_time 0x74-0x78 (4)
0x070|                        d5 33 55 c0            |        .3U.    |      [19]: "1947-04-01T04:00:00Z" (-718056000) transition_time 0x78-0x7c (4)
0x070|                                    d5 76 92 40|            .v.@|      [20]: "1947-05-22T04:00:00Z" (-713649600) transition_time 0x7c-0x80 (4)
0x080|fd d1 3c 40                                    |..<@            |      [21]: "1968-11-03T04:00:00Z" (-36619200) transition_time 0x80-0x84 (4)
0x080|            fe 92 fa b0                        |    ....        |      [22]: "1969-03-30T03:00:00Z" (-23922000) transition_time 0x84-0x88 (4)
0x080|                        ff cc cd c0            |        ....    |      [23]: "1969-11-23T04:00:00Z" (-3355200) transition_time 0x88-0x8c (4)
0x080|                                    00 72 dc b0|            .r..|      [24]: "1970-03-29T03:00:00Z" (7527600) transition_time 0x8c-0x90 (4)
0x090|01 75 50 c0                                    |.uP.            |      [25]: "1970-10-11T04:00:00Z" (24465600) transition_time 0x90-0x94 (4)
0x090|            02 40 49 b0                        |    .@I.        |      [26]: "1971-03-14T03:00:00Z" (37767600) transition_time 0x94-0x98 (4)
0x090|                        03 55 32 c0            |        .U2.    |      [27]: "1971-10-10T04:00:00Z" (55915200) transition_time 0x98-0x9c (4)
0x090|                                    04 20 2b b0|            . +.|      [28]: "1972-03-12T03:00:00Z" (69217200) transition_time 0x9c-0xa0 (4)
0x0a0|05 3e 4f 41                                    |.>OA            |      [29]: "1972-10-15T04:00:01Z" (87969601) transition_time 0xa0-0xa4 (4)
0x0a0|            06 00 0d b2                        |    ....        |      [30]: "1973-03-11T03:00:02Z" (100666802) transition_time 0xa4-0xa8 (4)
0x0a0|                        07 0b bc 42            |        ...B    |      [31]: "1973-09-30T04:00:02Z" (118209602) transition_time 0xa8-0xac (4)
0x0a0|                                    07 df ef b3|            ....|      [32]: "1974-03-10T03:00:03Z" (132116403) transition_time 0xac-0xb0 (4)
0x0b0|08 fe 13 43                                    |...C            |      [33]: "1974-10-13T04:00:03Z" (150868803) transition_time 0xb0-0xb4 (4)
0x0b0|            09 bf d1 b4                        |    ....        |      [34]: "1975-03-09T03:00:04Z" (163566004) transition_time 0xb4-0xb8 (4)
0x0b0|                        0a dd f5 44            |        ...D    |      [35]: "1975-10-12T04:00:04Z" (182318404) transition_time 0xb8-0xbc (4)
0x0b0|                                    0b a8 ee 35|            ...5|      [36]: "1976-03-14T03:00:05Z" (195620405) transition_time 0xbc-0xc0 (4)
0x0c0|0c bd d7 45                                    |...E            |      [37]: "1976-10-10T04:00:05Z" (213768005) transition_time 0xc0-0xc4 (4)
0x0c0|            0d 88 d0 36                        |    ...6        |      [38]: "1977-03-13T03:00:06Z" (227070006) transition_time 0xc4-0xc8 (4)
0x0c0|                        0e 9d b9 46            |        ...F    |      [39]: "1977-10-09T04:00:06Z" (245217606) transition_time 0xc8-0xcc (4)
0x0c0|                                    0f 68 b2 37|            .h.7|      [40]: "1978-03-12T03:00:07Z" (258519607) transition_time 0xcc-0xd0 (4)
0x0d0|10 86 d5 c7                                    |....            |      [41]: "1978-10-15T04:00:07Z" (277272007) transition_time 0xd0-0xd4 (4)
0x0d0|            11 48 94 38                        |    .H.8        |      [42]: "1979-03-11T03:00:08Z" (289969208) transition_time 0xd4-0xd8 (4)
0x0d0|                        12 66 b7 c8            |        .f..    |      [43]: "1979-10-14T04:00:08Z" (308721608) transition_time 0xd8-0xdc (4)
0x0d0|                                    13 28 76 39|            .(v9|      [44]: "1980-03-09T03:00:09Z" (321418809) transition_time 0xdc-0xe0 (4)
0x0e0|14 46 99 c9                                    |.F..            |      [45]: "1980-10-12T04:00:09Z" (340171209) transition_time 0xe0-0xe4 (4)
0x0e0|            15 11 92 b9                        |    ....        |      [46]: "1981-03-15T03:00:09Z" (353473209) transition_time 0xe4-0xe8 (4)
0x0e0|                        16 26 7b ca            |        .&{.    |      [47]: "1981-10-11T04:00:10Z" (371620810) transition_time 0xe8-0xec (4)
0x0e0|                                    16 f1 74 ba|            ..t.|      [48]: "1982-03-14T03:00:10Z" (384922810) transition_time 0xec-0xf0 (4)
0x0f0|18 06 5d cb                                    |..].            |      [49]: "1982-10-10T04:00:11Z" (403070411) transition_time 0xf0-0xf4 (4)
0x0f0|            18 d1 56 bb                        |    ..V.        |      [50]: "1983-03-13T03:00:11Z" (416372411) transition_time 0xf4-0xf8 (4)
0x0f0|                        19 e6 3f cc            |        ..?.    |      [51]: "1983-10-09T04:00:12Z" (434520012) transition_time 0xf8-0xfc (4)
0x0f0|                                    1a b1 38 bc|            ..8.|      [52]: "1984-03-11T03:00:12Z" (447822012) transition_time 0xfc-0x100 (4)
0x100|1b cf 5c 4c                                    |..\L            |      [53]: "1984-10-14T04:00:12Z" (466574412) transition_time 0x100-0x104 (4)
0x100|            1c 91 1a bc                        |    ....        |      [54]: "1985-03-10T03:00:12Z" (479271612) transition_time 0x104-0x108 (4)
0x100|                        1d af 3e 4d            |        ..>M    |      [55]: "1985-10-13T04:00:13Z" (498024013) transition_time 0x108-0x10c (4)
0x100|                                    1e 70 fc bd|            .p..|      [56]: "1986-03-09T03:00:13Z" (510721213) transition_time 0x10c-0x110 (4)
0x110|1f 8f 20 4d                                    |.. M            |      [57]: "1986-10-12T04:00:13Z" (529473613) transition_time 0x110-0x114 (4)
0x110|            20 7f 03 3d                        |     ..=        |      [58]: "1987-04-12T03:00:13Z" (545194813) transition_time 0x114-0x118 (4)
0x110|                        21 6f 02 4d            |        !o.M    |      [59]: "1987-10-11T04:00:13Z" (560923213) transition_time 0x118-0x11c (4)
0x110|                                    22 39 fb 3e|            "9.>|      [60]: "1988-03-13T03:00:14Z" (574225214) transition_time 0x11c-0x120 (4)
0x120|23 4e e4 4e                                    |#N.N            |      [61]: "1988-10-09T04:00:14Z" (592372814) transition_time 0x120-0x124 (4)
0x120|            24 19 dd 3e                        |    $..>        |      [62]: "1989-03-12T03:00:14Z" (605674814) transition_time 0x124-0x128 (4)
0x120|                        25 38 00 ce            |        %8..    |      [63]: "1989-10-15T04:00:14Z" (624427214) transition_time 0x128-0x12c (4)
0x120|                                    25 f9 bf 3f|            %..?|      [64]: "1990-03-11T03:00:15Z" (637124415) transition_time 0x12c-0x130 (4)
0x130|26 f2 f8 cf                                    |&...            |      [65]: "1990-09-16T04:00:15Z" (653457615) transition_time 0x130-0x134 (4)
0x130|            27 d9 a1 40                        |    '..@        |      [66]: "1991-03-10T03:00:16Z" (668574016) transition_time 0x134-0x138 (4)
0x130|                        28 f7 c4 d0            |        (...    |      [67]: "1991-10-13T04:00:16Z" (687326416) transition_time 0x138-0x13c (4)
0x130|                                    29 c2 bd c0|            )...|      [68]: "1992-03-15T03:00:16Z" (700628416) transition_time 0x13c-0x140 (4)
0x140|2a d7 a6 d1                                    |*...            |      [69]: "1992-10-11T04:00:17Z" (718776017) transition_time 0x140-0x144 (4)
0x140|            2b a2 9f c1                        |    +...        |      [70]: "1993-03-14T03:00:17Z" (732078017) transition_time 0x144-0x148 (4)
0x140|                        2c b7 88 d2            |        ,...    |      [71]: "1993-10-10T04:00:18Z" (750225618) transition_time 0x148-0x14c (4)
0x140|                                    2d 82 81 c2|            -...|      [72]: "1994-03-13T03:00:18Z" (763527618) transition_time 0x14c-0x150 (4)
0x150|2e 97 6a d3                                    |..j.            |      [73]: "1994-10-09T04:00:19Z" (781675219) transition_time 0x150-0x154 (4)
0x150|            2f 62 63 c3                        |    /bc.        |      [74]: "1995-03-12T03:00:19Z" (794977219) transition_time 0x154-0x158 (4)
0x150|                        30 80 87 53            |        0..S    |      [75]: "1995-10-15T04:00:19Z" (813729619) transition_time 0x158-0x15c (4)
0x150|                                    31 42 45 c4|            1BE.|      [76]: "1996-03-10T03:00:20Z" (826426820) transition_time 0x15c-0x160 (4)
0x160|32 60 69 54                                    |2`iT            |      [77]: "1996-10-13T04:00:20Z" (845179220) transition_time 0x160-0x164 (4)
0x160|            33 3d d7 44                        |    3=.D        |      [78]: "1997-03-30T03:00:20Z" (859690820) transition_time 0x164-0x168 (4)
0x160|                        34 40 4b 55            |        4@KU    |      [79]: "1997-10-12T04:00:21Z" (876628821) transition_time 0x168-0x16c (4)
0x160|                                    35 0b 44 45|            5.DE|      [80]: "1998-03-15T03:00:21Z" (889930821) transition_time 0x16c-0x170 (4)
0x170|36 0d b8 55                                    |6..U            |      [81]: "1998-09-27T04:00:21Z" (906868821) transition_time 0x170-0x174 (4)
0x170|            37 06 d5 c6                        |    7...        |      [82]: "1999-04-04T03:00:22Z" (923194822) transition_time 0x174-0x178 (4)
0x170|                        38 00 0f 56            |        8..V    |      [83]: "1999-10-10T04:00:22Z" (939528022) transition_time 0x178-0x17c (4)
0x170|                                    38 cb 08 46|            8..F|      [84]: "2000-03-12T03:00:22Z" (952830022) transition_time 0x17c-0x180 (4)
0x180|39 e9 2b d6                                    |9.+.            |      [85]: "2000-10-15T04:00:22Z" (971582422) transition_time 0x180-0x184 (4)
0x180|            3a aa ea 46                        |    :..F        |      [86]: "2001-03-11T03:00:22Z" (984279622) transition_time 0x184-0x188 (4)
0x180|                        3b c9 0d d6            |        ;...    |      [87]: "2001-10-14T04:00:22Z" (1003032022) transition_time 0x188-0x18c (4)
0x180|                                    3c 8a cc 46|            <..F|      [88]: "2002-03-10T03:00:22Z" (1015729222) transition_time 0x18c-0x190 (4)
0x190|3d a8 ef d6                                    |=...            |      [89]: "2002-10-13T04:00:22Z" (1034481622) transition_time 0x190-0x194 (4)
0x190|            3e 6a ae 46                        |    >j.F        |      [90]: "2003-03-09T03:00:22Z" (1047178822) transition_time 0x194-0x198 (4)
0x190|                        3f 88 d1 d6            |        ?...    |      [91]: "2003-10-12T04:00:22Z" (1065931222) transition_time 0x198-0x19c (4)
0x190|                                    40 53 ca c6|            @S..|      [92]: "2004-03-14T03:00:22Z" (1079233222) transition_time 0x19c-0x1a0 (4)
0x1a0|41 68 b3 d6                                    |Ah..            |      [93]: "2004-10-10T04:00:22Z" (1097380822) transition_time 0x1a0-0x1a4 (4)
0x1a0|            42 33 ac c6                        |    B3..        |      [94]: "2005-03-13T03:00:22Z" (1110682822) transition_time 0x1a4-0x1a8 (4)
0x1a0|                        43 48 95 d6            |        CH..    |      [95]: "2005-10-09T04:00:22Z" (1128830422) transition_time 0x1a8-0x1ac (4)
0x1a0|                                    44 13 8e c7|            D...|      [96]: "2006-03-12T03:00:23Z" (1142132423) transition_time 0x1ac-0x1b0 (4)
0x1b0|45 31 b2 57                                    |E1.W            |      [97]: "2006-10-15T04:00:23Z" (1160884823) transition_time 0x1b0-0x1b4 (4)
0x1b0|            45 f3 70 c7                        |    E.p.        |      [98]: "2007-03-11T03:00:23Z" (1173582023) transition_time 0x1b4-0x1b8 (4)
0x1b0|                        47 11 94 57            |        G..W    |      [99]: "2007-10-14T04:00:23Z" (1192334423) transition_time 0x1b8-0x1bc (4)
0x1b0|                                    47 ef 02 47|            G..G|      [100]: "2008-03-30T03:00:23Z" (1206846023) transition_time 0x1bc-0x1c0 (4)
0x1c0|48 f1 76 57                                    |H.vW            |      [101]: "2008-10-12T04:00:23Z" (1223784023) transition_time 0x1c0-0x1c4 (4)
0x1c0|            49 bc 6f 48                        |    I.oH        |      [102]: "2009-03-15T03:00:24Z" (1237086024) transition_time 0x1c4-0x1c8 (4)
0x1c0|                        4a d1 58 58            |        J.XX    |      [103]: "2009-10-11T04:00:24Z" (1255233624) transition_time 0x1c8-0x1cc (4)
0x1c0|                                    4b b8 00 c8|            K...|      [104]: "2010-04-04T03:00:24Z" (1270350024) transition_time 0x1cc-0x1d0 (4)
0x1d0|4c b1 3a 58                                    |L.:X            |      [105]: "2010-10-10T04:00:24Z" (1286683224) transition_time 0x1d0-0x1d4 (4)
0x1d0|            4d c6 07 48                        |    M..H        |      [106]: "2011-05-08T03:00:24Z" (1304823624) transition_time 0x1d4-0x1d8 (4)
0x1d0|                        4e 50 82 d8            |        NP..    |      [107]: "2011-08-21T04:00:24Z" (1313899224) transition_time 0x1d8-0x1dc (4)
0x1d0|                                    4f 9c ae c8|            O...|      [108]: "2012-04-29T03:00:24Z" (1335668424) transition_time 0x1dc-0x1e0 (4)
0x1e0|50 42 d9 d9                                    |PB..            |      [109]: "2012-09-02T04:00:25Z" (1346558425) transition_time 0x1e0-0x1e4 (4)
0x1e0|            51 7c 90 c9                        |    Q|..        |      [110]: "2013-04-28T03:00:25Z" (1367118025) transition_time 0x1e4-0x1e8 (4)
0x1e0|                        52 2b f6 59            |        R+.Y    |      [111]: "2013-09-08T04:00:25Z" (1378612825) transition_time 0x1e8-0x1ec (4)
0x1e0|                                    53 5c 72 c9|            S\r.|      [112]: "2014-04-27T03:00:25Z" (1398567625) transition_time 0x1ec-0x1f0 (4)
0x1f0|54 0b d8 59                                    |T..Y            |      [113]: "2014-09-07T04:00:25Z" (1410062425) transition_time 0x1f0-0x1f4 (4)
0x1f0|            57 37 e6 4a                        |    W7.J        |      [114]: "2016-05-15T03:00:26Z" (1463281226) transition_time 0x1f4-0x1f8 (4)
0x1f0|                        57 af ec da            |        W...    |      [115]: "2016-08-14T04:00:26Z" (1471147226) transition_time 0x1f8-0x1fc (4)
0x1f0|                                    58 43 86 ca|            XC..|      [116]: "2016-12-04T03:00:26Z" (1480820426) transition_time 0x1fc-0x200 (4)
0x200|64 9b 78 1b                                    |d.x.            |      [117]: "2023-06-28T00:00:27Z" (1687910427) transition_time 0x200-0x204 (4)
     |                                               |                |    transition_types[0:118]: 0x204-0x27a (118)
0x200|            01                                 |    .           |      [0]: 1 transition_type 0x204-0x205 (1)
0x200|               02                              |     .          |      [1]: 2 transition_type 0x205-0x206 (1)
0x200|                  01                           |      .         |      [2]: 1 transition_type 0x206-0x207 (1)
0x200|                     03                        |       .        |      [3]: 3 transition_type 0x207-0x208 (1)
0x200|                        01                     |        .       |      [4]: 1 transition_type 0x208-0x209 (1)
0x200|                           04                  |         .      |      [5]: 4 transition_type 0x209-0x20a (1)
0x200|                              02               |          .     |      [6]: 2 transition_type 0x20a-0x20b (1)
0x200|                                 04            |           .    |      [7]: 4 transition_type 0x20b-0x20c (1)
0x200|                                    02         |            .   |      [8]: 2 transition_type 0x20c-0x20d (1)
0x200|                                       04      |             .  |      [9]: 4 transition_type 0x20d-0x20e (1)
0x200|                                          02   |              . |      [10]: 2 transition_type 0x20e-0x20f (1)
0x200|                                             04|               .|      [11]: 4 transition_type 0x20f-0x210 (1)
0x210|02                                             |.               |      [12]: 2 transition_type 0x210-0x211 (1)
0x210|   04                                          | .              |      [13]: 4 transition_type 0x211-0x212 (1)
0x210|      02                                       |  .             |      [14]: 2 transition_type 0x212-0x213 (1)
0x210|         03                                    |   .            |      [15]: 3 transition_type 0x213-0x214 (1)
0x210|            02                                 |    .           |      [16]: 2 transition_type 0x214-0x215 (1)
0x210|               03                              |     .          |      [17]: 3 transition_type 0x215-0x216 (1)
0x210|                  04                           |      .         |      [18]: 4 transition_type 0x216-0x217 (1)
0x210|                     02                        |       .        |      [19]: 2 transition_type 0x217-0x218 (1)
0x210|                        03                     |        .       |      [20]: 3 transition_type 0x218-0x219 (1)
0x210|                           05                  |         .      |      [21]: 5 transition_type 0x219-0x21a (1)
0x210|                              06               |          .     |      [22]: 6 transition_type 0x21a-0x21b (1)
0x210|                                 05            |           .    |      [23]: 5 transition_type 0x21b-0x21c (1)
0x210|                                    06         |            .   |      [24]: 6 transition_type 0x21c-0x21d (1)
0x210|                                       05      |             .  |      [25]: 5 transition_type 0x21d-0x21e (1)
0x210|                                          06   |              . |      [26]: 6 transition_type 0x21e-0x21f (1)
0x210|                                             05|               .|      [27]: 5 transition_type 0x21f-0x220 (1)
0x220|06                                             |.               |      [28]: 6 transition_type 0x220-0x221 (1)
0x220|   05                                          | .              |      [29]: 5 transition_type 0x221-0x222 (1)
0x220|      06                                       |  .             |      [30]: 6 transition_type 0x222-0x223 (1)
0x220|         05                                    |   .            |      [31]: 5 transition_type 0x223-0x224 (1)
0x220|            06                                 |    .           |      [32]: 6 transition_type 0x224-0x225 (1)
0x220|               05                              |     .          |      [33]: 5 transition_type 0x225-0x226 (1)
0x220|                  06                           |      .         |      [34]: 6 transition_type 0x226-0x227 (1)
0x220|                     05                        |       .        |      [35]: 5 transition_type 0x227-0x228 (1)
0x220|                        06                     |        .       |      [36]: 6 transition_type 0x228-0x229 (1)
0x220|                           05                  |         .      |      [37]: 5 transition_type 0x229-0x22a (1)
0x220|                              06               |          .     |      [38]: 6 transition_type 0x22a-0x22b (1)
0x220|                                 05            |           .    |      [39]: 5 transition_type 0x22b-0x22c (1)
0x220|                                    06         |            .   |      [40]: 6 transition_type 0x22c-0x22d (1)
0x220|                                       05      |             .  |      [41]: 5 transition_type 0x22d-0x22e (1)
0x220|                                          06   |              . |      [42]: 6 transition_type 0x22e-0x22f (1)
0x220|                                             05|               .|      [43]: 5 transition_type 0x22f-0x230 (1)
0x230|06                                             |.               |      [44]: 6 transition_type 0x230-0x231 (1)
0x230|   05                                          | .              |      [45]: 5 transition_type 0x231-0x232 (1)
0x230|      06                                       |  .             |      [46]: 6 transition_type 0x232-0x233 (1)
0x230|         05                                    |   .            |      [47]: 5 transition_type 0x233-0x234 (1)
0x230|            06                                 |    .           |      [48]: 6 transition_type 0x234-0x235 (1)
0x230|               05                              |     .          |      [49]: 5 transition_type 0x235-0x236 (1)
0x230|                  06                           |      .         |      [50]: 6 transition_type 0x236-0x237 (1)
0x230|                     05                        |       .        |      [51]: 5 transition_type 0x237-0x238 (1)
0x230|                        06                     |        .       |      [52]: 6 transition_type 0x238-0x239 (1)
0x230|                           05                  |         .      |      [53]: 5 transition_type 0x239-0x23a (1)
0x230|                              06               |          .     |      [54]: 6 transition_type 0x23a-0x23b (1)
0x230|                                 05            |           .    |      [55]: 5 transition_type 0x23b-0x23c (1)
0x230|                                    06         |            .   |      [56]: 6 transition_type 0x23c-0x23d (1)
0x230|                                       05      |             .  |      [57]: 5 transition_type 0x23d-0x23e (1)
0x230|                                          06   |              . |      [58]: 6 transition_type 0x23e-0x23f (1)
0x230|                                             05|               .|      [59]: 5 transition_type 0x23f-0x240 (1)
0x240|06                                             |.               |      [60]: 6 transition_type 0x240-0x241 (1)
0x240|   05                                          | .              |      [61]: 5 transition_type 0x241-0x242 (1)
0x240|      06                                       |  .             |      [62]: 6 transition_type 0x242-0x243 (1)
0x240|         05                                    |   .            |      [63]: 5 transition_type 0x243-0x244 (1)
0x240|            06                                 |    .           |      [64]: 6 transition_type 0x244-0x245 (1)
0x240|               05                              |     .          |      [65]: 5 transition_type 0x245-0x246 (1)
0x240|                  06                           |      .         |      [66]: 6 transition_type 0x246-0x247 (1)
0x240|                     05                        |       .        |      [67]: 5 transition_type 0x247-0x248 (1)
0x240|                        06                     |        .       |      [68]: 6 transition_type 0x248-0x249 (1)
0x240|                           05                  |         .      |      [69]: 5 transition_type 0x249-0x24a (1)
0x240|                              06               |          .     |      [70]: 6 transition_type 0x24a-0x24b (1)
0x240|                                 05            |           .    |      [71]: 5 transition_type 0x24b-0x24c (1)
0x240|                                    06         |            .   |      [72]: 6 transition_type 0x24c-0x24d (1)
0x240|                                       05      |             .  |      [73]: 5 transition_type 0x24d-0x24e (1)
0x240|                                          06   |              . |      [74]: 6 transition_type 0x24e-0x24f (1)
0x240|                                             05|               .|      [75]: 5 transition_type 0x24f-0x250 (1)
0x250|06                                             |.               |      [76]: 6 transition_type 0x250-0x251 (1)
0x250|   05                                          | .              |      [77]: 5 transition_type 0x251-0x252 (1)
0x250|      06                                       |  .             |      [78]: 6 transition_type 0x252-0x253 (1)
0x250|         05                                    |   .            |      [79]: 5 transition_type 0x253-0x254 (1)
0x250|            06                                 |    .           |      [80]: 6 transition_type 0x254-0x255 (1)
0x250|               05                              |     .          |      [81]: 5 transition_type 0x255-0x256 (1)
0x250|                  06                           |      .         |      [82]: 6 transition_type 0x256-0x257 (1)
0x250|                     05                        |       .        |      [83]: 5 transition_type 0x257-0x258 (1)
0x250|                        06                     |        .       |      [84]: 6 transition_type 0x258-0x259 (1)
0x250|                           05                  |         .      |      [85]: 5 transition_type 0x259-0x25a (1)
0x250|                              06               |          .     |      [86]: 6 transition_type 0x25a-0x25b (1)
0x250|                                 05            |           .    |      [87]: 5 transition_type 0x25b-0x25c (1)
0x250|                                    06         |            .   |      [88]: 6 transition_type 0x25c-0x25d (1)
0x250|                                       05      |             .  |      [89]: 5 transition_type 0x25d-0x25e (1)
0x250|                                          06   |              . |      [90]: 6 transition_type 0x25e-0x25f (1)
0x250|                                             05|               .|      [91]: 5 transition_type 0x25f-0x260 (1)
0x260|06                                             |.               |      [92]: 6 transition_type 0x260-0x261 (1)
0x260|   05                                          | .              |      [93]: 5 transition_type 0x261-0x262 (1)
0x260|      06                                       |  .             |      [94]: 6 transition_type 0x262-0x263 (1)
0x260|         05                                    |   .            |      [95]: 5 transition_type 0x263-0x264 (1)
0x260|            06                                 |    .           |      [96]: 6 transition_type 0x264-0x265 (1)
0x260|               05                              |     .          |      [97]: 5 transition_type 0x265-0x266 (1)
0x260|                  06                           |      .         |      [98]: 6 transition_type 0x266-0x267 (1)
0x260|                     05                        |       .        |      [99]: 5 transition_type 0x267-0x268 (1)
0x260|                        06                     |        .       |      [100]: 6 transition_type 0x268-0x269 (1)
0x260|                           05                  |         .      |      [101]: 5 transition_type 0x269-0x26a (1)
0x260|                              06               |          .     |      [102]: 6 transition_type 0x26a-0x26b (1)
0x260|                                 05            |           .    |      [103]: 5 transition_type 0x26b-0x26c (1)
0x260|                                    06         |            .   |      [104]: 6 transition_type 0x26c-0x26d (1)
0x260|                                       05      |             .  |      [105]: 5 transition_type 0x26d-0x26e (1)
0x260|                                          06   |              . |      [106]: 6 transition_type 0x26e-0x26f (1)
0x260|                                             05|               .|      [107]: 5 transition_type 0x26f-0x270 (1)
0x270|06                                             |.               |      [108]: 6 transition_type 0x270-0x271 (1)
0x270|   05                                          | .              |      [109]: 5 transition_type 0x271-0x272 (1)
0x270|      06                                       |  .             |      [110]: 6 transition_type 0x272-0x273 (1)
0x270|         05                                    |   .            |      [111]: 5 transition_type 0x273-0x274 (1)
0x270|            06                                 |    .           |      [112]: 6 transition_type 0x274-0x275 (1)
0x270|               05                              |     .          |      [113]: 5 transition_type 0x275-0x276 (1)
0x270|                  06                           |      .         |      [114]: 6 transition_type 0x276-0x277 (1)
0x270|                     05                        |       .        |      [115]: 5 transition_type 0x277-0x278 (1)
0x270|                        07                     |        .       |      [116]: 7 transition_type 0x278-0x279 (1)
0x270|                           07                  |         .      |      [117]: 7 transition_type 0x279-0x27a (1)
     |                                               |                |    local_time_type_records[0:8]: 0x27a-0x2aa (48)
     |                                               |                |      [0]{}: local_time_type 0x27a-0x280 (6)
0x270|                              ff ff bd 84      |          ....  |        utoff: -17020 (valid) 0x27a-0x27e (4)
0x270|                                          00   |              . |        dst: 0 (valid) 0x27e-0x27f (1)
0x270|                                             00|               .|        idx: 0 (valid) 0x27f-0x280 (1)
     |                                               |                |      [1]{}: local_time_type 0x280-0x286 (6)
0x280|ff ff bd bb                                    |....            |        utoff: -16965 (valid) 0x280-0x284 (4)
0x280|            00                                 |    .           |        dst: 0 (valid) 0x284-0x285 (1)
0x280|               04                              |     .          |        idx: 4 (valid) 0x285-0x286 (1)
     |                                               |                |      [2]{}: local_time_type 0x286-0x28c (6)
0x280|                  ff ff b9 b0                  |      ....      |        utoff: -18000 (valid) 0x286-0x28a (4)
0x280|                              00               |          .     |        dst: 0 (valid) 0x28a-0x28b (1)
0x280|                                 08            |           .    |        idx: 8 (valid) 0x28b-0x28c (1)
     |                                               |                |      [3]{}: local_time_type 0x28c-0x292 (6)
0x280|                                    ff ff c7 c0|            ....|        utoff: -14400 (valid) 0x28c-0x290 (4)
0x290|00                                             |.               |        dst: 0 (valid) 0x290-0x291 (1)
0x290|   0c                                          | .              |        idx: 12 (valid) 0x291-0x292 (1)
     |                                               |                |      [4]{}: local_time_type 0x292-0x298 (6)
0x290|      ff ff c7 c0                              |  ....          |        utoff: -14400 (valid) 0x292-0x296 (4)
0x290|                  01                           |      .         |        dst: 1 (valid) 0x296-0x297 (1)
0x290|                     0c                        |       .        |        idx: 12 (valid) 0x297-0x298 (1)
     |                                               |                |      [5]{}: local_time_type 0x298-0x29e (6)
0x290|                        ff ff d5 d0            |        ....    |        utoff: -10800 (valid) 0x298-0x29c (4)
0x290|                                    01         |            .   |        dst: 1 (valid) 0x29c-0x29d (1)
0x290|                                       10      |             .  |        idx: 16 (valid) 0x29d-0x29e (1)
     |                                               |                |      [6]{}: local_time_type 0x29e-0x2a4 (6)
0x290|                                          ff ff|              ..|        utoff: -14400 (valid) 0x29e-0x2a2 (4)
0x2a0|c7 c0                                          |..              |
0x2a0|      00                                       |  .             |        dst: 0 (valid) 0x2a2-0x2a3 (1)
0x2a0|         0c                                    |   .            |        idx: 12 (valid) 0x2a3-0x2a4 (1)
     |                                               |                |      [7]{}: local_time_type 0x2a4-0x2aa (6)
0x2a0|            ff ff d5 d0                        |    ....        |        utoff: -10800 (valid) 0x2a4-0x2a8 (4)
0x2a0|                        00                     |        .       |        dst: 0 (valid) 0x2a8-0x2a9 (1)
0x2a0|                           10                  |         .      |        idx: 16 (valid) 0x2a9-0x2aa (1)
     |                                               |                |    time_zone_designations[0:5]: 0x2aa-0x2be (20)
0x2a0|                              4c 4d 54 00      |          LMT.  |      [0]: "LMT" time_zone_designation 0x2aa-0x2ae (4)
0x2a0|                                          53 4d|              SM|      [1]: "SMT" time_zone_designation 0x2ae-0x2b2 (4)
0x2b0|54 00                                          |T.              |
0x2b0|      2d 30 35 00                              |  -05.          |      [2]: "-05" time_zone_designation 0x2b2-0x2b6 (4)
0x2b0|                  2d 30 34 00                  |      -04.      |      [3]: "-04" time_zone_designation 0x2b6-0x2ba (4)
0x2b0|                              2d 30 33 00      |          -03.  |      [4]: "-03" time_zone_designation 0x2ba-0x2be (4)
     |                                               |                |    leap_second_records[0:27]: 0x2be-0x396 (216)
     |                                               |                |      [0]{}: leap_second_record 0x2be-0x2c6 (8)
0x2b0|                                          04 b2|              ..|        occur: "1972-07-01T00:00:00Z" (78796800) 0x2be-0x2c2 (4)
0x2c0|58 00                                          |X.              |
0x2c0|      00 00 00 01                              |  ....          |        corr: 1 0x2c2-0x2c6 (4)
     |                                               |                |      [1]{}: leap_second_record 0x2c6-0x2ce (8)
0x2c0|                  05 a4 ec 01                  |      ....      |        occur: "1973-01-01T00:00:01Z" (94694401) 0x2c6-0x2ca (4)
0x2c0|                              00 00 00 02      |          ....  |        corr: 2 0x2ca-0x2ce (4)
     |                                               |                |      [2]{}: leap_second_record 0x2ce-0x2d6 (8)
0x2c0|                                          07 86|              ..|        occur: "1974-01-01T00:00:02Z" (126230402) 0x2ce-0x2d2 (4)
0x2d0|1f 82                                          |..              |
0x2d0|      00 00 00 03                              |  ....          |        corr: 3 0x2d2-0x2d6 (4)
     |                                               |                |      [3]{}: leap_second_record 0x2d6-0x2de (8)
0x2d0|                  09 67 53 03                  |      .gS.      |        occur: "1975-01-01T00:00:03Z" (157766403) 0x2d6-0x2da (4)
0x2d0|                              00 00 00 04      |          ....  |        corr: 4 0x2da-0x2de (4)
     |                                               |                |      [4]{}: leap_second_record 0x2de-0x2e6 (8)
0x2d0|                                          0b 48|              .H|        occur: "1976-01-01T00:00:04Z" (189302404) 0x2de-0x2e2 (4)
0x2e0|86 84                                          |..              |
0x2e0|      00 00 00 05                              |  ....          |        corr: 5 0x2e2-0x2e6 (4)
     |                                               |                |      [5]{}: leap_second_record 0x2e6-0x2ee (8)
0x2e0|                  0d 2b 0b 85                  |      .+..      |        occur: "1977-01-01T00:00:05Z" (220924805) 0x2e6-0x2ea (4)
0x2e0|                              00 00 00 06      |          ....  |        corr: 6 0x2ea-0x2ee (4)
     |                                               |                |      [6]{}: leap_second_record 0x2ee-0x2f6 (8)
0x2e0|                                          0f 0c|              ..|        occur: "1978-01-01T00:00:06Z" (252460806) 0x2ee-0x2f2 (4)
0x2f0|3f 06                                          |?.              |
0x2f0|      00 00 00 07                              |  ....          |        corr: 7 0x2f2-0x2f6 (4)
     |                                               |                |      [7]{}: leap_second_record 0x2f6-0x2fe (8)
0x2f0|                  10 ed 72 87                  |      ..r.      |        occur: "1979-01-01T00:00:07Z" (283996807) 0x2f6-0x2fa (4)
0x2f0|                              00 00 00 08      |          ....  |        corr: 8 0x2fa-0x2fe (4)
     |                                               |                |      [8]{}: leap_second_record 0x2fe-0x306 (8)
0x2f0|                                          12 ce|              ..|        occur: "1980-01-01T00:00:08Z" (315532808) 0x2fe-0x302 (4)
0x300|a6 08                                          |..              |
0x300|      00 00 00 09                              |  ....          |        corr: 9 0x302-0x306 (4)
     |                                               |                |      [9]{}: leap_second_record 0x306-0x30e (8)
0x300|                  15 9f ca 89                  |      ....      |        occur: "1981-07-01T00:00:09Z" (362793609) 0x306-0x30a (4)
0x300|                              00 00 00 0a      |          ....  |        corr: 10 0x30a-0x30e (4)
     |                                               |                |      [10]{}: leap_second_record 0x30e-0x316 (8)
0x300|                                          17 80|              ..|        occur: "1982-07-01T00:00:10Z" (394329610) 0x30e-0x312 (4)
0x310|fe 0a                                          |..              |
0x310|      00 00 00 0b                              |  ....          |        corr: 11 0x312-0x316 (4)
     |                                               |                |      [11]{}: leap_second_record 0x316-0x31e (8)
0x310|                  19 62 31 8b                  |      .b1.      |        occur: "1983-07-01T00:00:11Z" (425865611) 0x316-0x31a (4)
0x310|                              00 00 00 0c      |          ....  |        corr: 12 0x31a-0x31e (4)
     |                                               |                |      [12]{}: leap_second_record 0x31e-0x326 (8)
0x310|                                          1d 25|              .%|        occur: "1985-07-01T00:00:12Z" (489024012) 0x31e-0x322 (4)
0x320|ea 0c                                          |..              |
0x320|      00 00 00 0d                              |  ....          |        corr: 13 0x322-0x326 (4)
     |                                               |                |      [13]{}: leap_second_record 0x326-0x32e (8)
0x320|                  21 da e5 0d                  |      !...      |        occur: "1988-01-01T00:00:13Z" (567993613) 0x326-0x32a (4)
0x320|                              00 00 00 0e      |          ....  |        corr: 14 0x32a-0x32e (4)
     |                                               |                |      [14]{}: leap_second_record 0x32e-0x336 (8)
0x320|                                          25 9e|              %.|        occur: "1990-01-01T00:00:14Z" (631152014) 0x32e-0x332 (4)
0x330|9d 8e                                          |..              |
0x330|      00 00 00 0f                              |  ....          |        corr: 15 0x332-0x336 (4)
     |                                               |                |      [15]{}: leap_second_record 0x336-0x33e (8)
0x330|                  27 7f d1 0f                  |      '...      |        occur: "1991-01-01T00:00:15Z" (662688015) 0x336-0x33a (4)
0x330|                              00 00 00 10      |          ....  |        corr: 16 0x33a-0x33e (4)
     |                                               |                |      [16]{}: leap_second_record 0x33e-0x346 (8)
0x330|                                          2a 50|              *P|        occur: "1992-07-01T00:00:16Z" (709948816) 0x33e-0x342 (4)
0x340|f5 90                                          |..              |
0x340|      00 00 00 11                              |  ....          |        corr: 17 0x342-0x346 (4)
     |                                               |                |      [17]{}: leap_second_record 0x346-0x34e (8)
0x340|                  2c 32 29 11                  |      ,2).      |        occur: "1993-07-01T00:00:17Z" (741484817) 0x346-0x34a (4)
0x340|                              00 00 00 12      |          ....  |        corr: 18 0x34a-0x34e (4)
     |                                               |                |      [18]{}: leap_second_record 0x34e-0x356 (8)
0x340|                                          2e 13|              ..|        occur: "1994-07-01T00:00:18Z" (773020818) 0x34e-0x352 (4)
0x350|5c 92                                          |\.              |
0x350|      00 00 00 13                              |  ....          |        corr: 19 0x352-0x356 (4)
     |                                               |                |      [19]{}: leap_second_record 0x356-0x35e (8)
0x350|                  30 e7 24 13                  |      0.$.      |        occur: "1996-01-01T00:00:19Z" (820454419) 0x356-0x35a (4)
0x350|                              00 00 00 14      |          ....  |        corr: 20 0x35a-0x35e (4)
     |                                               |                |      [20]{}: leap_second_record 0x35e-0x366 (8)
0x350|                                          33 b8|              3.|        occur: "1997-07-01T00:00:20Z" (867715220) 0x35e-0x362 (4)
0x360|48 94                                          |H.              |
0x360|      00 00 00 15                              |  ....          |        corr: 21 0x362-0x366 (4)
     |                                               |                |      [21]{}: leap_second_record 0x366-0x36e (8)
0x360|                  36 8c 10 15                  |      6...      |        occur: "1999-01-01T00:00:21Z" (915148821) 0x366-0x36a (4)
0x360|                              00 00 00 16      |          ....  |        corr: 22 0x36a-0x36e (4)
     |                                               |                |      [22]{}: leap_second_record 0x36e-0x376 (8)
0x360|                                          43 b7|              C.|        occur: "2006-01-01T00:00:22Z" (1136073622) 0x36e-0x372 (4)
0x370|1b 96                                          |..              |
0x370|      00 00 00 17                              |  ....          |        corr: 23 0x372-0x376 (4)
     |                                               |                |      [23]{}: leap_second_record 0x376-0x37e (8)
0x370|                  49 5c 07 97                  |      I\..      |        occur: "2009-01-01T00:00:23Z" (1230768023) 0x376-0x37a (4)
0x370|                              00 00 00 18      |          ....  |        corr: 24 0x37a-0x37e (4)
     |                                               |                |      [24]{}: leap_second_record 0x37e-0x386 (8)
0x370|                                          4f ef|              O.|        occur: "2012-07-01T00:00:24Z" (1341100824) 0x37e-0x382 (4)
0x380|93 18                                          |..              |
0x380|      00 00 00 19                              |  ....          |        corr: 25 0x382-0x386 (4)
     |                                               |                |      [25]{}: leap_second_record 0x386-0x38e (8)
0x380|                  55 93 2d 99                  |      U.-.      |        occur: "2015-07-01T00:00:25Z" (1435708825) 0x386-0x38a (4)
0x380|                              00 00 00 1a      |          ....  |        corr: 26 0x38a-0x38e (4)
     |                                               |                |      [26]{}: leap_second_record 0x38e-0x396 (8)
0x380|                                          58 68|              Xh|        occur: "2017-01-01T00:00:26Z" (1483228826) 0x38e-0x392 (4)
0x390|46 9a                                          |F.              |
0x390|      00 00 00 1b                              |  ....          |        corr: 27 0x392-0x396 (4)
     |                                               |                |    standard_wall_indicators[0:8]: 0x396-0x39e (8)
0x390|                  00                           |      .         |      [0]: 0 standard_wall_indicator (valid) 0x396-0x397 (1)
0x390|                     00                        |       .        |      [1]: 0 standard_wall_indicator (valid) 0x397-0x398 (1)
0x390|                        00                     |        .       |      [2]: 0 standard_wall_indicator (valid) 0x398-0x399 (1)
0x390|                           00                  |         .      |      [3]: 0 standard_wall_indicator (valid) 0x399-0x39a (1)
0x390|                              00               |          .     |      [4]: 0 standard_wall_indicator (valid) 0x39a-0x39b (1)
0x390|                                 01            |           .    |      [5]: 1 standard_wall_indicator (valid) 0x39b-0x39c (1)
0x390|                                    01         |            .   |      [6]: 1 standard_wall_indicator (valid) 0x39c-0x39d (1)
0x390|                                       00      |             .  |      [7]: 0 standard_wall_indicator (valid) 0x39d-0x39e (1)
     |                                               |                |    ut_local_indicators[0:8]: 0x39e-0x3a6 (8)
0x390|                                          00   |              . |      [0]: 0 ut_local_indicator (valid) 0x39e-0x39f (1)
0x390|                                             00|               .|      [1]: 0 ut_local_indicator (valid) 0x39f-0x3a0 (1)
0x3a0|00                                             |.               |      [2]: 0 ut_local_indicator (valid) 0x3a0-0x3a1 (1)
0x3a0|   00                                          | .              |      [3]: 0 ut_local_indicator (valid) 0x3a1-0x3a2 (1)
0x3a0|      00                                       |  .             |      [4]: 0 ut_local_indicator (valid) 0x3a2-0x3a3 (1)
0x3a0|         01                                    |   .            |      [5]: 1 ut_local_indicator (valid) 0x3a3-0x3a4 (1)
0x3a0|            01                                 |    .           |      [6]: 1 ut_local_indicator (valid) 0x3a4-0x3a5 (1)
0x3a0|               00                              |     .          |      [7]: 0 ut_local_indicator (valid) 0x3a5-0x3a6 (1)
     |                                               |                |  v2plusheader{}: 0x3a6-0x3d2 (44)
0x3a0|                  54 5a 69 66                  |      TZif      |    magic: 0x545a6966 (valid) 0x3a6-0x3aa (4)
0x3a0|                              32               |          2     |    ver: "2" (0x32) (valid) 0x3aa-0x3ab (1)
0x3a0|                                 00 00 00 00 00|           .....|    reserved: raw bits 0x3ab-0x3ba (15)
0x3b0|00 00 00 00 00 00 00 00 00 00                  |..........      |
0x3b0|                              00 00 00 08      |          ....  |    isutcnt: 8 0x3ba-0x3be (4)
0x3b0|                                          00 00|              ..|    isstdcnt: 8 0x3be-0x3c2 (4)
0x3c0|00 08                                          |..              |
0x3c0|      00 00 00 1b                              |  ....          |    leapcnt: 27 0x3c2-0x3c6 (4)
0x3c0|                  00 00 00 76                  |      ...v      |    timecnt: 118 0x3c6-0x3ca (4)
0x3c0|                              00 00 00 08      |          ....  |    typecnt: 8 0x3ca-0x3ce (4)
0x3c0|                                          00 00|              ..|    charcnt: 20 0x3ce-0x3d2 (4)
0x3d0|00 14                                          |..              |
     |                                               |                |  v2plusdatablock{}: 0x3d2-0x990 (1470)
     |                                               |                |    transition_times[0:118]: 0x3d2-0x782 (944)
0x3d0|      ff ff ff ff 69 87 1d fc                  |  ....i...      |      [0]: "1890-01-01T04:43:40Z" (-2524504580) transition_time 0x3d2-0x3da (8)
0x3d0|                              ff ff ff ff 8f 30|          .....0|      [1]: "1910-01-10T04:42:45Z" (-1892661435) transition_time 0x3da-0x3e2 (8)
0x3e0|47 45                                          |GE              |
0x3e0|      ff ff ff ff 9b 5c e5 50                  |  .....\.P      |      [2]: "1916-07-01T05:00:00Z" (-1688410800) transition_time 0x3e2-0x3ea (8)
0x3e0|                              ff ff ff ff 9f 7c|          .....||      [3]: "1918-09-10T04:42:45Z" (-1619205435) transition_time 0x3ea-0x3f2 (8)
0x3f0|e2 c5                                          |..              |
0x3f0|      ff ff ff ff a1 00 71 c0                  |  ......q.      |      [4]: "1919-07-01T04:00:00Z" (-1593806400) transition_time 0x3f2-0x3fa (8)
0x3f0|                              ff ff ff ff b0 5e|          .....^|      [5]: "1927-09-01T04:42:45Z" (-1335986235) transition_time 0x3fa-0x402 (8)
0x400|77 c5                                          |w.              |
0x400|      ff ff ff ff b1 77 3d 40                  |  .....w=@      |      [6]: "1928-04-01T04:00:00Z" (-1317585600) transition_time 0x402-0x40a (8)
0x400|                              ff ff ff ff b2 41|          .....A|      [7]: "1928-09-01T05:00:00Z" (-1304362800) transition_time 0x40a-0x412 (8)
0x410|00 d0                                          |..              |
0x410|      ff ff ff ff b3 58 70 c0                  |  .....Xp.      |      [8]: "1929-04-01T04:00:00Z" (-1286049600) transition_time 0x412-0x41a (8)
0x410|                              ff ff ff ff b4 22|          ....."|      [9]: "1929-09-01T05:00:00Z" (-1272826800) transition_time 0x41a-0x422 (8)
0x420|34 50                                          |4P              |
0x420|      ff ff ff ff b5 39 a4 40                  |  .....9.@      |      [10]: "1930-04-01T04:00:00Z" (-1254513600) transition_time 0x422-0x42a (8)
0x420|                              ff ff ff ff b6 03|          ......|      [11]: "1930-09-01T05:00:00Z" (-1241290800) transition_time 0x42a-0x432 (8)
0x430|67 d0                                          |g.              |
0x430|      ff ff ff ff b7 1a d7 c0                  |  ........      |      [12]: "1931-04-01T04:00:00Z" (-1222977600) transition_time 0x432-0x43a (8)
0x430|                              ff ff ff ff b7 e4|          ......|      [13]: "1931-09-01T05:00:00Z" (-1209754800) transition_time 0x43a-0x442 (8)
0x440|9b 50                                          |.P              |
0x440|      ff ff ff ff b8 fd 5c c0                  |  ......\.      |      [14]: "1932-04-01T04:00:00Z" (-1191355200) transition_time 0x442-0x44a (8)
0x440|                              ff ff ff ff b9 c7|          ......|      [15]: "1932-09-01T05:00:00Z" (-1178132400) transition_time 0x44a-0x452 (8)
0x450|20 50                                          | P              |
0x450|      ff ff ff ff cc 1c 6e 40                  |  ......n@      |      [16]: "1942-06-01T04:00:00Z" (-870552000) transition_time 0x452-0x45a (8)
0x450|                              ff ff ff ff cc 6c|          .....l|      [17]: "1942-08-01T05:00:00Z" (-865278000) transition_time 0x45a-0x462 (8)
0x460|e7 d0                                          |..              |
0x460|      ff ff ff ff d4 17 e3 40                  |  .......@      |      [18]: "1946-08-29T04:00:00Z" (-736632000) transition_time 0x462-0x46a (8)
0x460|                              ff ff ff ff d5 33|          .....3|      [19]: "1947-04-01T04:00:00Z" (-718056000) transition_time 0x46a-0x472 (8)
0x470|55 c0                                          |U.              |
0x470|      ff ff ff ff d5 76 92 40                  |  .....v.@      |      [20]: "1947-05-22T04:00:00Z" (-713649600) transition_time 0x472-0x47a (8)
0x470|                              ff ff ff ff fd d1|          ......|      [21]: "1968-11-03T04:00:00Z" (-36619200) transition_time 0x47a-0x482 (8)
0x480|3c 40                                          |<@              |
0x480|      ff ff ff ff fe 92 fa b0                  |  ........      |      [22]: "1969-03-30T03:00:00Z" (-23922000) transition_time 0x482-0x48a (8)
0x480|                              ff ff ff ff ff cc|          ......|      [23]: "1969-11-23T04:00:00Z" (-3355200) transition_time 0x48a-0x492 (8)
0x490|cd c0                                          |..              |
0x490|      00 00 00 00 00 72 dc b0                  |  .....r..      |      [24]: "1970-03-29T03:00:00Z" (7527600) transition_time 0x492-0x49a (8)
0x490|                              00 00 00 00 01 75|          .....u|      [25]: "1970-10-11T04:00:00Z" (24465600) transition_time 0x49a-0x4a2 (8)
0x4a0|50 c0                                          |P.              |
0x4a0|      00 00 00 00 02 40 49 b0                  |  .....@I.      |      [26]: "1971-03-14T03:00:00Z" (37767600) transition_time 0x4a2-0x4aa (8)
0x4a0|                              00 00 00 00 03 55|          .....U|      [27]: "1971-10-10T04:00:00Z" (55915200) transition_time 0x4aa-0x4b2 (8)
0x4b0|32 c0                                          |2.              |
0x4b0|      00 00 00 00 04 20 2b b0                  |  ..... +.      |      [28]: "1972-03-12T03:00:00Z" (69217200) transition_time 0x4b2-0x4ba (8)
0x4b0|                              00 00 00 00 05 3e|          .....>|      [29]: "1972-10-15T04:00:01Z" (87969601) transition_time 0x4ba-0x4c2 (8)
0x4c0|4f 41                                          |OA              |
0x4c0|      00 00 00 00 06 00 0d b2                  |  ........      |      [30]: "1973-03-11T03:00:02Z" (100666802) transition_time 0x4c2-0x4ca (8)
0x4c0|                              00 00 00 00 07 0b|          ......|      [31]: "1973-09-30T04:00:02Z" (118209602) transition_time 0x4ca-0x4d2 (8)
0x4d0|bc 42                                          |.B              |
0x4d0|      00 00 00 00 07 df ef b3                  |  ........      |      [32]: "1974-03-10T03:00:03Z" (132116403) transition_time 0x4d2-0x4da (8)
0x4d0|                              00 00 00 00 08 fe|          ......|      [33]: "1974-10-13T04:00:03Z" (150868803) transition_time 0x4da-0x4e2 (8)
0x4e0|13 43                                          |.C              |
0x4e0|      00 00 00 00 09 bf d1 b4                  |  ........      |      [34]: "1975-03-09T03:00:04Z" (163566004) transition_time 0x4e2-0x4ea (8)
0x4e0|                              00 00 00 00 0a dd|          ......|      [35]: "1975-10-12T04:00:04Z" (182318404) transition_time 0x4ea-0x4f2 (8)
0x4f0|f5 44                                          |.D              |
0x4f0|      00 00 00 00 0b a8 ee 35                  |  .......5      |      [36]: "1976-03-14T03:00:05Z" (195620405) transition_time 0x4f2-0x4fa (8)
0x4f0|                              00 00 00 00 0c bd|          ......|      [37]: "1976-10-10T04:00:05Z" (213768005) transition_time 0x4fa-0x502 (8)
0x500|d7 45                                          |.E              |
0x500|      00 00 00 00 0d 88 d0 36                  |  .......6      |      [38]: "1977-03-13T03:00:06Z" (227070006) transition_time 0x502-0x50a (8)
0x500|                              00 00 00 00 0e 9d|          ......|      [39]: "1977-10-09T04:00:06Z" (245217606) transition_time 0x50a-0x512 (8)
0x510|b9 46                                          |.F              |
0x510|      00 00 00 00 0f 68 b2 37                  |  .....h.7      |      [40]: "1978-03-12T03:00:07Z" (258519607) transition_time 0x512-0x51a (8)
0x510|                              00 00 00 00 10 86|          ......|      [41]: "1978-10-15T04:00:07Z" (277272007) transition_time 0x51a-0x522 (8)
0x520|d5 c7                                          |..              |
0x520|      00 00 00 00 11 48 94 38                  |  .....H.8      |      [42]: "1979-03-11T03:00:08Z" (289969208) transition_time 0x522-0x52a (8)
0x520|                              00 00 00 00 12 66|          .....f|      [43]: "1979-10-14T04:00:08Z" (308721608) transition_time 0x52a-0x532 (8)
0x530|b7 c8                                          |..              |
0x530|      00 00 00 00 13 28 76 39                  |  .....(v9      |      [44]: "1980-03-09T03:00:09Z" (321418809) transition_time 0x532-0x53a (8)
0x530|                              00 00 00 00 14 46|          .....F|      [45]: "1980-10-12T04:00:09Z" (340171209) transition_time 0x53a-0x542 (8)
0x540|99 c9                                          |..              |
0x540|      00 00 00 00 15 11 92 b9                  |  ........      |      [46]: "1981-03-15T03:00:09Z" (353473209) transition_time 0x542-0x54a (8)
0x540|                              00 00 00 00 16 26|          .....&|      [47]: "1981-10-11T04:00:10Z" (371620810) transition_time 0x54a-0x552 (8)
0x550|7b ca                                          |{.              |
0x550|      00 00 00 00 16 f1 74 ba                  |  ......t.      |      [48]: "1982-03-14T03:00:10Z" (384922810) transition_time 0x552-0x55a (8)
0x550|                              00 00 00 00 18 06|          ......|      [49]: "1982-10-10T04:00:11Z" (403070411) transition_time 0x55a-0x562 (8)
0x560|5d cb                                          |].              |
0x560|      00 00 00 00 18 d1 56 bb                  |  ......V.      |      [50]: "1983-03-13T03:00:11Z" (416372411) transition_time 0x562-0x56a (8)
0x560|                              00 00 00 00 19 e6|          ......|      [51]: "1983-10-09T04:00:12Z" (434520012) transition_time 0x56a-0x572 (8)
0x570|3f cc                                          |?.              |
0x570|      00 00 00 00 1a b1 38 bc                  |  ......8.      |      [52]: "1984-03-11T03:00:12Z" (447822012) transition_time 0x572-0x57a (8)
0x570|                              00 00 00 00 1b cf|          ......|      [53]: "1984-10-14T04:00:12Z" (466574412) transition_time 0x57a-0x582 (8)
0x580|5c 4c                                          |\L              |
0x580|      00 00 00 00 1c 91 1a bc                  |  ........      |      [54]: "1985-03-10T03:00:12Z" (479271612) transition_time 0x582-0x58a (8)
0x580|                              00 00 00 00 1d af|          ......|      [55]: "1985-10-13T04:00:13Z" (498024013) transition_time 0x58a-0x592 (8)
0x590|3e 4d                                          |>M              |
0x590|      00 00 00 00 1e 70 fc bd                  |  .....p..      |      [56]: "1986-03-09T03:00:13Z" (510721213) transition_time 0x592-0x59a (8)
0x590|                              00 00 00 00 1f 8f|          ......|      [57]: "1986-10-12T04:00:13Z" (529473613) transition_time 0x59a-0x5a2 (8)
0x5a0|20 4d                                          | M              |
0x5a0|      00 00 00 00 20 7f 03 3d                  |  .... ..=      |      [58]: "1987-04-12T03:00:13Z" (545194813) transition_time 0x5a2-0x5aa (8)
0x5a0|                              00 00 00 00 21 6f|          ....!o|      [59]: "1987-10-11T04:00:13Z" (560923213) transition_time 0x5aa-0x5b2 (8)
0x5b0|02 4d                                          |.M              |
0x5b0|      00 00 00 00 22 39 fb 3e                  |  ...."9.>      |      [60]: "1988-03-13T03:00:14Z" (574225214) transition_time 0x5b2-0x5ba (8)
0x5b0|                              00 00 00 00 23 4e|          ....#N|      [61]: "1988-10-09T04:00:14Z" (592372814) transition_time 0x5ba-0x5c2 (8)
0x5c0|e4 4e                                          |.N              |
0x5c0|      00 00 00 00 24 19 dd 3e                  |  ....$..>      |      [62]: "1989-03-12T03:00:14Z" (605674814) transition_time 0x5c2-0x5ca (8)
0x5c0|                              00 00 00 00 25 38|          ....%8|      [63]: "1989-10-15T04:00:14Z" (624427214) transition_time 0x5ca-0x5d2 (8)
0x5d0|00 ce                                          |..              |
0x5d0|      00 00 00 00 25 f9 bf 3f                  |  ....%..?      |      [64]: "1990-03-11T03:00:15Z" (637124415) transition_time 0x5d2-0x5da (8)
0x5d0|                              00 00 00 00 26 f2|          ....&.|      [65]: "1990-09-16T04:00:15Z" (653457615) transition_time 0x5da-0x5e2 (8)
0x5e0|f8 cf                                          |..              |
0x5e0|      00 00 00 00 27 d9 a1 40                  |  ....'..@      |      [66]: "1991-03-10T03:00:16Z" (668574016) transition_time 0x5e2-0x5ea (8)
0x5e0|                              00 00 00 00 28 f7|          ....(.|      [67]: "1991-10-13T04:00:16Z" (687326416) transition_time 0x5ea-0x5f2 (8)
0x5f0|c4 d0                                          |..              |
0x5f0|      00 00 00 00 29 c2 bd c0                  |  ....)...      |      [68]: "1992-03-15T03:00:16Z" (700628416) transition_time 0x5f2-0x5fa (8)
0x5f0|                              00 00 00 00 2a d7|          ....*.|      [69]: "1992-10-11T04:00:17Z" (718776017) transition_time 0x5fa-0x602 (8)
0x600|a6 d1                                          |..              |
0x600|      00 00 00 00 2b a2 9f c1                  |  ....+...      |      [70]: "1993-03-14T03:00:17Z" (732078017) transition_time 0x602-0x60a (8)
0x600|                              00 00 00 00 2c b7|          ....,.|      [71]: "1993-10-10T04:00:18Z" (750225618) transition_time 0x60a-0x612 (8)
0x610|88 d2                                          |..              |
0x610|      00 00 00 00 2d 82 81 c2                  |  ....-...      |      [72]: "1994-03-13T03:00:18Z" (763527618) transition_time 0x612-0x61a (8)
0x610|                              00 00 00 00 2e 97|          ......|      [73]: "1994-10-09T04:00:19Z" (781675219) transition_time 0x61a-0x622 (8)
0x620|6a d3                                          |j.              |
0x620|      00 00 00 00 2f 62 63 c3                  |  ..../bc.      |      [74]: "1995-03-12T03:00:19Z" (794977219) transition_time 0x622-0x62a (8)
0x620|                              00 00 00 00 30 80|          ....0.|      [75]: "1995-10-15T04:00:19Z" (813729619) transition_time 0x62a-0x632 (8)
0x630|87 53                                          |.S              |
0x630|      00 00 00 00 31 42 45 c4                  |  ....1BE.      |      [76]: "1996-03-10T03:00:20Z" (826426820) transition_time 0x632-0x63a (8)
0x630|                              00 00 00 00 32 60|          ....2`|      [77]: "1996-10-13T04:00:20Z" (845179220) transition_time 0x63a-0x642 (8)
0x640|69 54                                          |iT              |
0x640|      00 00 00 00 33 3d d7 44                  |  ....3=.D      |      [78]: "1997-03-30T03:00:20Z" (859690820) transition_time 0x642-0x64a (8)
0x640|                              00 00 00 00 34 40|          ....4@|      [79]: "1997-10-12T04:00:21Z" (876628821) transition_time 0x64a-0x652 (8)
0x650|4b 55                                          |KU              |
0x650|      00 00 00 00 35 0b 44 45                  |  ....5.DE      |      [80]: "1998-03-15T03:00:21Z" (889930821) transition_time 0x652-0x65a (8)
0x650|                              00 00 00 00 36 0d|          ....6.|      [81]: "1998-09-27T04:00:21Z" (906868821) transition_time 0x65a-0x662 (8)
0x660|b8 55                                          |.U              |
0x660|      00 00 00 00 37 06 d5 c6                  |  ....7...      |      [82]: "1999-04-04T03:00:22Z" (923194822) transition_time 0x662-0x66a (8)
0x660|                              00 00 00 00 38 00|          ....8.|      [83]: "1999-10-10T04:00:22Z" (939528022) transition_time 0x66a-0x672 (8)
0x670|0f 56                                          |.V              |
0x670|      00 00 00 00 38 cb 08 46                  |  ....8..F      |      [84]: "2000-03-12T03:00:22Z" (952830022) transition_time 0x672-0x67a (8)
0x670|                              00 00 00 00 39 e9|          ....9.|      [85]: "2000-10-15T04:00:22Z" (971582422) transition_time 0x67a-0x682 (8)
0x680|2b d6                                          |+.              |
0x680|      00 00 00 00 3a aa ea 46                  |  ....:..F      |      [86]: "2001-03-11T03:00:22Z" (984279622) transition_time 0x682-0x68a (8)
0x680|                              00 00 00 00 3b c9|          ....;.|      [87]: "2001-10-14T04:00:22Z" (1003032022) transition_time 0x68a-0x692 (8)
0x690|0d d6                                          |..              |
0x690|      00 00 00 00 3c 8a cc 46                  |  ....<..F      |      [88]: "2002-03-10T03:00:22Z" (1015729222) transition_time 0x692-0x69a (8)
0x690|                              00 00 00 00 3d a8|          ....=.|      [89]: "2002-10-13T04:00:22Z" (1034481622) transition_time 0x69a-0x6a2 (8)
0x6a0|ef d6                                          |..              |
0x6a0|      00 00 00 00 3e 6a ae 46                  |  ....>j.F      |      [90]: "2003-03-09T03:00:22Z" (1047178822) transition_time 0x6a2-0x6aa (8)
0x6a0|                              00 00 00 00 3f 88|          ....?.|      [91]: "2003-10-12T04:00:22Z" (1065931222) transition_time 0x6aa-0x6b2 (8)
0x6b0|d1 d6                                          |..              |
0x6b0|      00 00 00 00 40 53 ca c6                  |  ....@S..      |      [92]: "2004-03-14T03:00:22Z" (1079233222) transition_time 0x6b2-0x6ba (8)
0x6b0|                              00 00 00 00 41 68|          ....Ah|      [93]: "2004-10-10T04:00:22Z" (1097380822) transition_time 0x6ba-0x6c2 (8)
0x6c0|b3 d6                                          |..              |
0x6c0|      00 00 00 00 42 33 ac c6                  |  ....B3..      |      [94]: "2005-03-13T03:00:22Z" (1110682822) transition_time 0x6c2-0x6ca (8)
0x6c0|                              00 00 00 00 43 48|          ....CH|      [95]: "2005-10-09T04:00:22Z" (1128830422) transition_time 0x6ca-0x6d2 (8)
0x6d0|95 d6                                          |..              |
0x6d0|      00 00 00 00 44 13 8e c7                  |  ....D...      |      [96]: "2006-03-12T03:00:23Z" (1142132423) transition_time 0x6d2-0x6da (8)
0x6d0|                              00 00 00 00 45 31|          ....E1|      [97]: "2006-10-15T04:00:23Z" (1160884823) transition_time 0x6da-0x6e2 (8)
0x6e0|b2 57                                          |.W              |
0x6e0|      00 00 00 00 45 f3 70 c7                  |  ....E.p.      |      [98]: "2007-03-11T03:00:23Z" (1173582023) transition_time 0x6e2-0x6ea (8)
0x6e0|                              00 00 00 00 47 11|          ....G.|      [99]: "2007-10-14T04:00:23Z" (1192334423) transition_time 0x6ea-0x6f2 (8)
0x6f0|94 57                                          |.W              |
0x6f0|      00 00 00 00 47 ef 02 47                  |  ....G..G      |      [100]: "2008-03-30T03:00:23Z" (1206846023) transition_time 0x6f2-0x6fa (8)
0x6f0|                              00 00 00 00 48 f1|          ....H.|      [101]: "2008-10-12T04:00:23Z" (1223784023) transition_time 0x6fa-0x702 (8)
0x700|76 57                                          |vW              |
0x700|      00 00 00 00 49 bc 6f 48                  |  ....I.oH      |      [102]: "2009-03-15T03:00:24Z" (1237086024) transition_time 0x702-0x70a (8)
0x700|                              00 00 00 00 4a d1|          ....J.|      [103]: "2009-10-11T04:00:24Z" (1255233624) transition_time 0x70a-0x712 (8)
0x710|58 58                                          |XX              |
0x710|      00 00 00 00 4b b8 00 c8                  |  ....K...      |      [104]: "2010-04-04T03:00:24Z" (1270350024) transition_time 0x712-0x71a (8)
0x710|                              00 00 00 00 4c b1|          ....L.|      [105]: "2010-10-10T04:00:24Z" (1286683224) transition_time 0x71a-0x722 (8)
0x720|3a 58                                          |:X              |
0x720|      00 00 00 00 4d c6 07 48                  |  ....M..H      |      [106]: "2011-05-08T03:00:24Z" (1304823624) transition_time 0x722-0x72a (8)
0x720|                              00 00 00 00 4e 50|          ....NP|      [107]: "2011-08-21T04:00:24Z" (1313899224) transition_time 0x72a-0x732 (8)
0x730|82 d8                                          |..              |
0x730|      00 00 00 00 4f 9c ae c8                  |  ....O...      |      [108]: "2012-04-29T03:00:24Z" (1335668424) transition_time 0x732-0x73a (8)
0x730|                              00 00 00 00 50 42|          ....PB|      [109]: "2012-09-02T04:00:25Z" (1346558425) transition_time 0x73a-0x742 (8)
0x740|d9 d9                                          |..              |
0x740|      00 00 00 00 51 7c 90 c9                  |  ....Q|..      |      [110]: "2013-04-28T03:00:25Z" (1367118025) transition_time 0x742-0x74a (8)
0x740|                              00 00 00 00 52 2b|          ....R+|      [111]: "2013-09-08T04:00:25Z" (1378612825) transition_time 0x74a-0x752 (8)
0x750|f6 59                                          |.Y              |
0x750|      00 00 00 00 53 5c 72 c9                  |  ....S\r.      |      [112]: "2014-04-27T03:00:25Z" (1398567625) transition_time 0x752-0x75a (8)
0x750|                              00 00 00 00 54 0b|          ....T.|      [113]: "2014-09-07T04:00:25Z" (1410062425) transition_time 0x75a-0x762 (8)
0x760|d8 59                                          |.Y              |
0x760|      00 00 00 00 57 37 e6 4a                  |  ....W7.J      |      [114]: "2016-05-15T03:00:26Z" (1463281226) transition_time 0x762-0x76a (8)
0x760|                              00 00 00 00 57 af|          ....W.|      [115]: "2016-08-14T04:00:26Z" (1471147226) transition_time 0x76a-0x772 (8)
0x770|ec da                                          |..              |
0x770|      00 00 00 00 58 43 86 ca                  |  ....XC..      |      [116]: "2016-12-04T03:00:26Z" (1480820426) transition_time 0x772-0x77a (8)
0x770|                              00 00 00 00 64 9b|          ....d.|      [117]: "2023-06-28T00:00:27Z" (1687910427) transition_time 0x77a-0x782 (8)
0x780|78 1b                                          |x.              |
     |                                               |                |    transition_types[0:118]: 0x782-0x7f8 (118)
0x780|      01                                       |  .             |      [0]: 1 transition_type 0x782-0x783 (1)
0x780|         02                                    |   .            |      [1]: 2 transition_type 0x783-0x784 (1)
0x780|            01                                 |    .           |      [2]: 1 transition_type 0x784-0x785 (1)
0x780|               03                              |     .          |      [3]: 3 transition_type 0x785-0x786 (1)
0x780|                  01                           |      .         |      [4]: 1 transition_type 0x786-0x787 (1)
0x780|                     04                        |       .        |      [5]: 4 transition_type 0x787-0x788 (1)
0x780|                        02                     |        .       |      [6]: 2 transition_type 0x788-0x789 (1)
0x780|                           04                  |         .      |      [7]: 4 transition_type 0x789-0x78a (1)
0x780|                              02               |          .     |      [8]: 2 transition_type 0x78a-0x78b (1)
0x780|                                 04            |           .    |      [9]: 4 transition_type 0x78b-0x78c (1)
0x780|                                    02         |            .   |      [10]: 2 transition_type 0x78c-0x78d (1)
0x780|                                       04      |             .  |      [11]: 4 transition_type 0x78d-0x78e (1)
0x780|                                          02   |              . |      [12]: 2 transition_type 0x78e-0x78f (1)
0x780|                                             04|               .|      [13]: 4 transition_type 0x78f-0x790 (1)
0x790|02                                             |.               |      [14]: 2 transition_type 0x790-0x791 (1)
0x790|   03                                          | .              |      [15]: 3 transition_type 0x791-0x792 (1)
0x790|      02                                       |  .             |      [16]: 2 transition_type 0x792-0x793 (1)
0x790|         03                                    |   .            |      [17]: 3 transition_type 0x793-0x794 (1)
0x790|            04                                 |    .           |      [18]: 4 transition_type 0x794-0x795 (1)
0x790|               02                              |     .          |      [19]: 2 transition_type 0x795-0x796 (1)
0x790|                  03                           |      .         |      [20]: 3 transition_type 0x796-0x797 (1)
0x790|                     05                        |       .        |      [21]: 5 transition_type 0x797-0x798 (1)
0x790|                        06                     |        .       |      [22]: 6 transition_type 0x798-0x799 (1)
0x790|                           05                  |         .      |      [23]: 5 transition_type 0x799-0x79a (1)
0x790|                              06               |          .     |      [24]: 6 transition_type 0x79a-0x79b (1)
0x790|                                 05            |           .    |      [25]: 5 transition_type 0x79b-0x79c (1)
0x790|                                    06         |            .   |      [26]: 6 transition_type 0x79c-0x79d (1)
0x790|                                       05      |             .  |      [27]: 5 transition_type 0x79d-0x79e (1)
0x790|                                          06   |              . |      [28]: 6 transition_type 0x79e-0x79f (1)
0x790|                                             05|               .|      [29]: 5 transition_type 0x79f-0x7a0 (1)
0x7a0|06                                             |.               |      [30]: 6 transition_type 0x7a0-0x7a1 (1)
0x7a0|   05                                          | .              |      [31]: 5 transition_type 0x7a1-0x7a2 (1)
0x7a0|      06                                       |  .             |      [32]: 6 transition_type 0x7a2-0x7a3 (1)
0x7a0|         05                                    |   .            |      [33]: 5 transition_type 0x7a3-0x7a4 (1)
0x7a0|            06                                 |    .           |      [34]: 6 transition_type 0x7a4-0x7a5 (1)
0x7a0|               05                              |     .          |      [35]: 5 transition_type 0x7a5-0x7a6 (1)
0x7a0|                  06                           |      .         |      [36]: 6 transition_type 0x7a6-0x7a7 (1)
0x7a0|                     05                        |       .        |      [37]: 5 transition_type 0x7a7-0x7a8 (1)
0x7a0|                        06                     |        .       |      [38]: 6 transition_type 0x7a8-0x7a9 (1)
0x7a0|                           05                  |         .      |      [39]: 5 transition_type 0x7a9-0x7aa (1)
0x7a0|                              06               |          .     |      [40]: 6 transition_type 0x7aa-0x7ab (1)
0x7a0|                                 05            |           .    |      [41]: 5 transition_type 0x7ab-0x7ac (1)
0x7a0|                                    06         |            .   |      [42]: 6 transition_type 0x7ac-0x7ad (1)
0x7a0|                                       05      |             .  |      [43]: 5 transition_type 0x7ad-0x7ae (1)
0x7a0|                                          06   |              . |      [44]: 6 transition_type 0x7ae-0x7af (1)
0x7a0|                                             05|               .|      [45]: 5 transition_type 0x7af-0x7b0 (1)
0x7b0|06                                             |.               |      [46]: 6 transition_type 0x7b0-0x7b1 (1)
0x7b0|   05                                          | .              |      [47]: 5 transition_type 0x7b1-0x7b2 (1)
0x7b0|      06                                       |  .             |      [48]: 6 transition_type 0x7b2-0x7b3 (1)
0x7b0|         05                                    |   .            |      [49]: 5 transition_type 0x7b3-0x7b4 (1)
0x7b0|            06                                 |    .           |      [50]: 6 transition_type 0x7b4-0x7b5 (1)
0x7b0|               05                              |     .          |      [51]: 5 transition_type 0x7b5-0x7b6 (1)
0x7b0|                  06                           |      .         |      [52]: 6 transition_type 0x7b6-0x7b7 (1)
0x7b0|                     05                        |       .        |      [53]: 5 transition_type 0x7b7-0x7b8 (1)
0x7b0|                        06                     |        .       |      [54]: 6 transition_type 0x7b8-0x7b9 (1)
0x7b0|                           05                  |         .      |      [55]: 5 transition_type 0x7b9-0x7ba (1)
0x7b0|                              06               |          .     |      [56]: 6 transition_type 0x7ba-0x7bb (1)
0x7b0|                                 05            |           .    |      [57]: 5 transition_type 0x7bb-0x7bc (1)
0x7b0|                                    06         |            .   |      [58]: 6 transition_type 0x7bc-0x7bd (1)
0x7b0|                                       05      |             .  |      [59]: 5 transition_type 0x7bd-0x7be (1)
0x7b0|                                          06   |              . |      [60]: 6 transition_type 0x7be-0x7bf (1)
0x7b0|                                             05|               .|      [61]: 5 transition_type 0x7bf-0x7c0 (1)
0x7c0|06                                             |.               |      [62]: 6 transition_type 0x7c0-0x7c1 (1)
0x7c0|   05                                          | .              |      [63]: 5 transition_type 0x7c1-0x7c2 (1)
0x7c0|      06                                       |  .             |      [64]: 6 transition_type 0x7c2-0x7c3 (1)
0x7c0|         05                                    |   .            |      [65]: 5 transition_type 0x7c3-0x7c4 (1)
0x7c0|            06                                 |    .           |      [66]: 6 transition_type 0x7c4-0x7c5 (1)
0x7c0|               05                              |     .          |      [67]: 5 transition_type 0x7c5-0x7c6 (1)
0x7c0|                  06                           |      .         |      [68]: 6 transition_type 0x7c6-0x7c7 (1)
0x7c0|                     05                        |       .        |      [69]: 5 transition_type 0x7c7-0x7c8 (1)
0x7c0|                        06                     |        .       |      [70]: 6 transition_type 0x7c8-0x7c9 (1)
0x7c0|                           05                  |         .      |      [71]: 5 transition_type 0x7c9-0x7ca (1)
0x7c0|                              06               |          .     |      [72]: 6 transition_type 0x7ca-0x7cb (1)
0x7c0|                                 05            |           .    |      [73]: 5 transition_type 0x7cb-0x7cc (1)
0x7c0|                                    06         |            .   |      [74]: 6 transition_type 0x7cc-0x7cd (1)
0x7c0|                                       05      |             .  |      [75]: 5 transition_type 0x7cd-0x7ce (1)
0x7c0|                                          06   |              . |      [76]: 6 transition_type 0x7ce-0x7cf (1)
0x7c0|                                             05|               .|      [77]: 5 transition_type 0x7cf-0x7d0 (1)
0x7d0|06                                             |.               |      [78]: 6 transition_type 0x7d0-0x7d1 (1)
0x7d0|   05                                          | .              |      [79]: 5 transition_type 0x7d1-0x7d2 (1)
0x7d0|      06                                       |  .             |      [80]: 6 transition_type 0x7d2-0x7d3 (1)
0x7d0|         05                                    |   .            |      [81]: 5 transition_type 0x7d3-0x7d4 (1)
0x7d0|            06                                 |    .           |      [82]: 6 transition_type 0x7d4-0x7d5 (1)
0x7d0|               05                              |     .          |      [83]: 5 transition_type 0x7d5-0x7d6 (1)
0x7d0|                  06                           |      .         |      [84]: 6 transition_type 0x7d6-0x7d7 (1)
0x7d0|                     05                        |       .        |      [85]: 5 transition_type 0x7d7-0x7d8 (1)
0x7d0|                        06                     |        .       |      [86]: 6 transition_type 0x7d8-0x7d9 (1)
0x7d0|                           05                  |         .      |      [87]: 5 transition_type 0x7d9-0x7da (1)
0x7d0|                              06               |          .     |      [88]: 6 transition_type 0x7da-0x7db (1)
0x7d0|                                 05            |           .    |      [89]: 5 transition_type 0x7db-0x7dc (1)
0x7d0|                                    06         |            .   |      [90]: 6 transition_type 0x7dc-0x7dd (1)
0x7d0|                                       05      |             .  |      [91]: 5 transition_type 0x7dd-0x7de (1)
0x7d0|                                          06   |              . |      [92]: 6 transition_type 0x7de-0x7df (1)
0x7d0|                                             05|               .|      [93]: 5 transition_type 0x7df-0x7e0 (1)
0x7e0|06                                             |.               |      [94]: 6 transition_type 0x7e0-0x7e1 (1)
0x7e0|   05                                          | .              |      [95]: 5 transition_type 0x7e1-0x7e2 (1)
0x7e0|      06                                       |  .             |      [96]: 6 transition_type 0x7e2-0x7e3 (1)
0x7e0|         05                                    |   .            |      [97]: 5 transition_type 0x7e3-0x7e4 (1)
0x7e0|            06                                 |    .           |      [98]: 6 transition_type 0x7e4-0x7e5 (1)
0x7e0|               05                              |     .          |      [99]: 5 transition_type 0x7e5-0x7e6 (1)
0x7e0|                  06                           |      .         |      [100]: 6 transition_type 0x7e6-0x7e7 (1)
0x7e0|                     05                        |       .        |      [101]: 5 transition_type 0x7e7-0x7e8 (1)
0x7e0|                        06                     |        .       |      [102]: 6 transition_type 0x7e8-0x7e9 (1)
0x7e0|                           05                  |         .      |      [103]: 5 transition_type 0x7e9-0x7ea (1)
0x7e0|                              06               |          .     |      [104]: 6 transition_type 0x7ea-0x7eb (1)
0x7e0|                                 05            |           .    |      [105]: 5 transition_type 0x7eb-0x7ec (1)
0x7e0|                                    06         |            .   |      [106]: 6 transition_type 0x7ec-0x7ed (1)
0x7e0|                                       05      |             .  |      [107]: 5 transition_type 0x7ed-0x7ee (1)
0x7e0|                                          06   |              . |      [108]: 6 transition_type 0x7ee-0x7ef (1)
0x7e0|                                             05|               .|      [109]: 5 transition_type 0x7ef-0x7f0 (1)
0x7f0|06                                             |.               |      [110]: 6 transition_type 0x7f0-0x7f1 (1)
0x7f0|   05                                          | .              |      [111]: 5 transition_type 0x7f1-0x7f2 (1)
0x7f0|      06                                       |  .             |      [112]: 6 transition_type 0x7f2-0x7f3 (1)
0x7f0|         05                                    |   .            |      [113]: 5 transition_type 0x7f3-0x7f4 (1)
0x7f0|            06                                 |    .           |      [114]: 6 transition_type 0x7f4-0x7f5 (1)
0x7f0|               05                              |     .          |      [115]: 5 transition_type 0x7f5-0x7f6 (1)
0x7f0|                  07                           |      .         |      [116]: 7 transition_type 0x7f6-0x7f7 (1)
0x7f0|                     07                        |       .        |      [117]: 7 transition_type 0x7f7-0x7f8 (1)
     |                                               |                |    local_time_type_records[0:8]: 0x7f8-0x828 (48)
     |                                               |                |      [0]{}: local_time_type 0x7f8-0x7fe (6)
0x7f0|                        ff ff bd 84            |        ....    |        utoff: -17020 (valid) 0x7f8-0x7fc (4)
0x7f0|                                    00         |            .   |        dst: 0 (valid) 0x7fc-0x7fd (1)
0x7f0|                                       00      |             .  |        idx: 0 (valid) 0x7fd-0x7fe (1)
     |                                               |                |      [1]{}: local_time_type 0x7fe-0x804 (6)
0x7f0|                                          ff ff|              ..|        utoff: -16965 (valid) 0x7fe-0x802 (4)
0x800|bd bb                                          |..              |
0x800|      00                                       |  .             |        dst: 0 (valid) 0x802-0x803 (1)
0x800|         04                                    |   .            |        idx: 4 (valid) 0x803-0x804 (1)
     |                                               |                |      [2]{}: local_time_type 0x804-0x80a (6)
0x800|            ff ff b9 b0                        |    ....        |        utoff: -18000 (valid) 0x804-0x808 (4)
0x800|                        00                     |        .       |        dst: 0 (valid) 0x808-0x809 (1)
0x800|                           08                  |         .      |        idx: 8 (valid) 0x809-0x80a (1)
     |                                               |                |      [3]{}: local_time_type 0x80a-0x810 (6)
0x800|                              ff ff c7 c0      |          ....  |        utoff: -14400 (valid) 0x80a-0x80e (4)
0x800|                                          00   |              . |        dst: 0 (valid) 0x80e-0x80f (1)
0x800|                                             0c|               .|        idx: 12 (valid) 0x80f-0x810 (1)
     |                                               |                |      [4]{}: local_time_type 0x810-0x816 (6)
0x810|ff ff c7 c0                                    |....            |        utoff: -14400 (valid) 0x810-0x814 (4)
0x810|            01                                 |    .           |        dst: 1 (valid) 0x814-0x815 (1)
0x810|               0c                              |     .          |        idx: 12 (valid) 0x815-0x816 (1)
     |                                               |                |      [5]{}: local_time_type 0x816-0x81c (6)
0x810|                  ff ff d5 d0                  |      ....      |        utoff: -10800 (valid) 0x816-0x81a (4)
0x810|                              01               |          .     |        dst: 1 (valid) 0x81a-0x81b (1)
0x810|                                 10            |           .    |        idx: 16 (valid) 0x81b-0x81c (1)
     |                                               |                |      [6]{}: local_time_type 0x81c-0x822 (6)
0x810|                                    ff ff c7 c0|            ....|        utoff: -14400 (valid) 0x81c-0x820 (4)
0x820|00                                             |.               |        dst: 0 (valid) 0x820-0x821 (1)
0x820|   0c                                          | .              |        idx: 12 (valid) 0x821-0x822 (1)
     |                                               |                |      [7]{}: local_time_type 0x822-0x828 (6)
0x820|      ff ff d5 d0                              |  ....          |        utoff: -10800 (valid) 0x822-0x826 (4)
0x820|                  00                           |      .         |        dst: 0 (valid) 0x826-0x827 (1)
0x820|                     10                        |       .        |        idx: 16 (valid) 0x827-0x828 (1)
     |                                               |                |    time_zone_designations[0:5]: 0x828-0x83c (20)
0x820|                        4c 4d 54 00            |        LMT.    |      [0]: "LMT" time_zone_designation 0x828-0x82c (4)
0x820|                                    53 4d 54 00|            SMT.|      [1]: "SMT" time_zone_designation 0x82c-0x830 (4)
0x830|2d 30 35 00                                    |-05.            |      [2]: "-05" time_zone_designation 0x830-0x834 (4)
0x830|            2d 30 34 00                        |    -04.        |      [3]: "-04" time_zone_designation 0x834-0x838 (4)
0x830|                        2d 30 33 00            |        -03.    |      [4]: "-03" time_zone_designation 0x838-0x83c (4)
     |                                               |                |    leap_second_records[0:27]: 0x83c-0x980 (324)
     |                                               |                |      [0]{}: leap_second_record 0x83c-0x848 (12)
0x830|                                    00 00 00 00|            ....|        occur: "1972-07-01T00:00:00Z" (78796800) 0x83c-0x844 (8)
0x840|04 b2 58 00                                    |..X.            |
0x840|            00 00 00 01                        |    ....        |        corr: 1 0x844-0x848 (4)
     |                                               |                |      [1]{}: leap_second_record 0x848-0x854 (12)
0x840|                        00 00 00 00 05 a4 ec 01|        ........|        occur: "1973-01-01T00:00:01Z" (94694401) 0x848-0x850 (8)
0x850|00 00 00 02                                    |....            |        corr: 2 0x850-0x854 (4)
     |                                               |                |      [2]{}: leap_second_record 0x854-0x860 (12)
0x850|            00 00 00 00 07 86 1f 82            |    ........    |        occur: "1974-01-01T00:00:02Z" (126230402) 0x854-0x85c (8)
0x850|                                    00 00 00 03|            ....|        corr: 3 0x85c-0x860 (4)
     |                                               |                |      [3]{}: leap_second_record 0x860-0x86c (12)
0x860|00 00 00 00 09 67 53 03                        |.....gS.        |        occur: "1975-01-01T00:00:03Z" (157766403) 0x860-0x868 (8)
0x860|                        00 00 00 04            |        ....    |        corr: 4 0x868-0x86c (4)
     |                                               |                |      [4]{}: leap_second_record 0x86c-0x878 (12)
0x860|                                    00 00 00 00|            ....|        occur: "1976-01-01T00:00:04Z" (189302404) 0x86c-0x874 (8)
0x870|0b 48 86 84                                    |.H..            |
0x870|            00 00 00 05                        |    ....        |        corr: 5 0x874-0x878 (4)
     |                                               |                |      [5]{}: leap_second_record 0x878-0x884 (12)
0x870|                        00 00 00 00 0d 2b 0b 85|        .....+..|        occur: "1977-01-01T00:00:05Z" (220924805) 0x878-0x880 (8)
0x880|00 00 00 06                                    |....            |        corr: 6 0x880-0x884 (4)
     |                                               |                |      [6]{}: leap_second_record 0x884-0x890 (12)
0x880|            00 00 00 00 0f 0c 3f 06            |    ......?.    |        occur: "1978-01-01T00:00:06Z" (252460806) 0x884-0x88c (8)
0x880|                                    00 00 00 07|            ....|        corr: 7 0x88c-0x890 (4)
     |                                               |                |      [7]{}: leap_second_record 0x890-0x89c (12)
0x890|00 00 00 00 10 ed 72 87                        |......r.        |        occur: "1979-01-01T00:00:07Z" (283996807) 0x890-0x898 (8)
0x890|                        00 00 00 08            |        ....    |        corr: 8 0x898-0x89c (4)
     |                                               |                |      [8]{}: leap_second_record 0x89c-0x8a8 (12)
0x890|                                    00 00 00 00|            ....|        occur: "1980-01-01T00:00:08Z" (315532808) 0x89c-0x8a4 (8)
0x8a0|12 ce a6 08                                    |....            |
0x8a0|            00 00 00 09                        |    ....        |        corr: 9 0x8a4-0x8a8 (4)
     |                                               |                |      [9]{}: leap_second_record 0x8a8-0x8b4 (12)
0x8a0|                        00 00 00 00 15 9f ca 89|        ........|        occur: "1981-07-01T00:00:09Z" (362793609) 0x8a8-0x8b0 (8)
0x8b0|00 00 00 0a                                    |....            |        corr: 10 0x8b0-0x8b4 (4)
     |                                               |                |      [10]{}: leap_second_record 0x8b4-0x8c0 (12)
0x8b0|            00 00 00 00 17 80 fe 0a            |    ........    |        occur: "1982-07-01T00:00:10Z" (394329610) 0x8b4-0x8bc (8)
0x8b0|                                    00 00 00 0b|            ....|        corr: 11 0x8bc-0x8c0 (4)
     |                                               |                |      [11]{}: leap_second_record 0x8c0-0x8cc (12)
0x8c0|00 00 00 00 19 62 31 8b                        |.....b1.        |        occur: "1983-07-01T00:00:11Z" (425865611) 0x8c0-0x8c8 (8)
0x8c0|                        00 00 00 0c            |        ....    |        corr: 12 0x8c8-0x8cc (4)
     |                                               |                |      [12]{}: leap_second_record 0x8cc-0x8d8 (12)
0x8c0|                                    00 00 00 00|            ....|        occur: "1985-07-01T00:00:12Z" (489024012) 0x8cc-0x8d4 (8)
0x8d0|1d 25 ea 0c                                    |.%..            |
0x8d0|            00 00 00 0d                        |    ....        |        corr: 13 0x8d4-0x8d8 (4)
     |                                               |                |      [13]{}: leap_second_record 0x8d8-0x8e4 (12)
0x8d0|                        00 00 00 00 21 da e5 0d|        ....!...|        occur: "1988-01-01T00:00:13Z" (567993613) 0x8d8-0x8e0 (8)
0x8e0|00 00 00 0e                                    |....            |        corr: 14 0x8e0-0x8e4 (4)
     |                                               |                |      [14]{}: leap_second_record 0x8e4-0x8f0 (12)
0x8e0|            00 00 00 00 25 9e 9d 8e            |    ....%...    |        occur: "1990-01-01T00:00:14Z" (631152014) 0x8e4-0x8ec (8)
0x8e0|                                    00 00 00 0f|            ....|        corr: 15 0x8ec-0x8f0 (4)
     |                                               |                |      [15]{}: leap_second_record 0x8f0-0x8fc (12)
0x8f0|00 00 00 00 27 7f d1 0f                        |....'...        |        occur: "1991-01-01T00:00:15Z" (662688015) 0x8f0-0x8f8 (8)
0x8f0|                        00 00 00 10            |        ....    |        corr: 16 0x8f8-0x8fc (4)
     |                                               |                |      [16]{}: leap_second_record 0x8fc-0x908 (12)
0x8f0|                                    00 00 00 00|            ....|        occur: "1992-07-01T00:00:16Z" (709948816) 0x8fc-0x904 (8)
0x900|2a 50 f5 90                                    |*P..            |
0x900|            00 00 00 11                        |    ....        |        corr: 17 0x904-0x908 (4)
     |                                               |                |      [17]{}: leap_second_record 0x908-0x914 (12)
0x900|                        00 00 00 00 2c 32 29 11|        ....,2).|        occur: "1993-07-01T00:00:17Z" (741484817) 0x908-0x910 (8)
0x910|00 00 00 12                                    |....            |        corr: 18 0x910-0x914 (4)
     |                                               |                |      [18]{}: leap_second_record 0x914-0x920 (12)
0x910|            00 00 00 00 2e 13 5c 92            |    ......\.    |        occur: "1994-07-01T00:00:18Z" (773020818) 0x914-0x91c (8)
0x910|                                    00 00 00 13|            ....|        corr: 19 0x91c-0x920 (4)
     |                                               |                |      [19]{}: leap_second_record 0x920-0x92c (12)
0x920|00 00 00 00 30 e7 24 13                        |....0.$.        |        occur: "1996-01-01T00:00:19Z" (820454419) 0x920-0x928 (8)
0x920|                        00 00 00 14            |        ....    |        corr: 20 0x928-0x92c (4)
     |                                               |                |      [20]{}: leap_second_record 0x92c-0x938 (12)
0x920|                                    00 00 00 00|            ....|        occur: "1997-07-01T00:00:20Z" (867715220) 0x92c-0x934 (8)
0x930|33 b8 48 94                                    |3.H.            |
0x930|            00 00 00 15                        |    ....        |        corr: 21 0x934-0x938 (4)
     |                                               |                |      [21]{}: leap_second_record 0x938-0x944 (12)
0x930|                        00 00 00 00 36 8c 10 15|        ....6...|        occur: "1999-01-01T00:00:21Z" (915148821) 0x938-0x940 (8)
0x940|00 00 00 16                                    |....            |        corr: 22 0x940-0x944 (4)
     |                                               |                |      [22]{}: leap_second_record 0x944-0x950 (12)
0x940|            00 00 00 00 43 b7 1b 96            |    ....C...    |        occur: "2006-01-01T00:00:22Z" (1136073622) 0x944-0x94c (8)
0x940|                                    00 00 00 17|            ....|        corr: 23 0x94c-0x950 (4)
     |                                               |                |      [23]{}: leap_second_record 0x950-0x95c (12)
0x950|00 00 00 00 49 5c 07 97                        |....I\..        |        occur: "2009-01-01T00:00:23Z" (1230768023) 0x950-0x958 (8)
0x950|                        00 00 00 18            |        ....    |        corr: 24 0x958-0x95c (4)
     |                                               |                |      [24]{}: leap_second_record 0x95c-0x968 (12)
0x950|                                    00 00 00 00|            ....|        occur: "2012-07-01T00:00:24Z" (1341100824) 0x95c-0x964 (8)
0x960|4f ef 93 18                                    |O...            |
0x960|            00 00 00 19                        |    ....        |        corr: 25 0x964-0x968 (4)
     |                                               |                |      [25]{}: leap_second_record 0x968-0x974 (12)
0x960|                        00 00 00 00 55 93 2d 99|        ....U.-.|        occur: "2015-07-01T00:00:25Z" (1435708825) 0x968-0x970 (8)
0x970|00 00 00 1a                                    |....            |        corr: 26 0x970-0x974 (4)
     |                                               |                |      [26]{}: leap_second_record 0x974-0x980 (12)
0x970|            00 00 00 00 58 68 46 9a            |    ....XhF.    |        occur: "2017-01-01T00:00:26Z" (1483228826) 0x974-0x97c (8)
0x970|                                    00 00 00 1b|            ....|        corr: 27 0x97c-0x980 (4)
     |                                               |                |    standard_wall_indicators[0:8]: 0x980-0x988 (8)
0x980|00                                             |.               |      [0]: 0 standard_wall_indicator (valid) 0x980-0x981 (1)
0x980|   00                                          | .              |      [1]: 0 standard_wall_indicator (valid) 0x981-0x982 (1)
0x980|      00                                       |  .             |      [2]: 0 standard_wall_indicator (valid) 0x982-0x983 (1)
0x980|         00                                    |   .            |      [3]: 0 standard_wall_indicator (valid) 0x983-0x984 (1)
0x980|            00                                 |    .           |      [4]: 0 standard_wall_indicator (valid) 0x984-0x985 (1)
0x980|               01                              |     .          |      [5]: 1 standard_wall_indicator (valid) 0x985-0x986 (1)
0x980|                  01                           |      .         |      [6]: 1 standard_wall_indicator (valid) 0x986-0x987 (1)
0x980|                     00                        |       .        |      [7]: 0 standard_wall_indicator (valid) 0x987-0x988 (1)
     |                                               |                |    ut_local_indicators[0:8]: 0x988-0x990 (8)
0x980|                        00                     |        .       |      [0]: 0 ut_local_indicator (valid) 0x988-0x989 (1)
0x980|                           00                  |         .      |      [1]: 0 ut_local_indicator (valid) 0x989-0x98a (1)
0x980|                              00               |          .     |      [2]: 0 ut_local_indicator (valid) 0x98a-0x98b (1)
0x980|                                 00            |           .    |      [3]: 0 ut_local_indicator (valid) 0x98b-0x98c (1)
0x980|                                    00         |            .   |      [4]: 0 ut_local_indicator (valid) 0x98c-0x98d (1)
0x980|                                       01      |             .  |      [5]: 1 ut_local_indicator (valid) 0x98d-0x98e (1)
0x980|                                          01   |              . |      [6]: 1 ut_local_indicator (valid) 0x98e-0x98f (1)
0x980|                                             00|               .|      [7]: 0 ut_local_indicator (valid) 0x98f-0x990 (1)
     |                                               |                |  footer{}: 0x990-0x992 (2)
0x990|0a                                             |.               |    nl1: 10 (valid) 0x990-0x991 (1)
     |                                               |                |    tz_string: "" 0x991-0x991 (0)
0x990|   0a|                                         | .|             |    nl2: 10 (valid) 0x991-0x992 (1)
