$ fq -d tzif dv Pyongyang
     |00 01 02 03 04 05 06 07 08 09 0a 0b 0c 0d 0e 0f|0123456789abcdef|.{}: Pyongyang (tzif) 0x0-0x311.7 (786)
     |                                               |                |  v1header{}: 0x0-0x2b.7 (44)
0x000|54 5a 69 66                                    |TZif            |    magic: 0x545a6966 (valid) 0x0-0x3.7 (4)
0x000|            32                                 |    2           |    ver: "2" (0x32) (valid) 0x4-0x4.7 (1)
0x000|               00 00 00 00 00 00 00 00 00 00 00|     ...........|    reserved: raw bits 0x5-0x13.7 (15)
0x010|00 00 00 00                                    |....            |
0x010|            00 00 00 00                        |    ....        |    isutcnt: 0 0x14-0x17.7 (4)
0x010|                        00 00 00 00            |        ....    |    isstdcnt: 0 0x18-0x1b.7 (4)
0x010|                                    00 00 00 1b|            ....|    leapcnt: 27 0x1c-0x1f.7 (4)
0x020|00 00 00 06                                    |....            |    timecnt: 6 0x20-0x23.7 (4)
0x020|            00 00 00 04                        |    ....        |    typecnt: 4 0x24-0x27.7 (4)
0x020|                        00 00 00 0c            |        ....    |    charcnt: 12 0x28-0x2b.7 (4)
     |                                               |                |  v1datablock{}: 0x2c-0x145.7 (282)
     |                                               |                |    transition_times[0:6]: 0x2c-0x43.7 (24)
0x020|                                    8b d7 f1 9c|            ....|      [0]: "1908-03-31T15:37:00Z" (-1948782180) transition_time 0x2c-0x2f.7 (4)
0x030|92 e6 16 f8                                    |....            |      [1]: "1911-12-31T15:30:00Z" (-1830414600) transition_time 0x30-0x33.7 (4)
0x030|            d2 2f 61 70                        |    ./ap        |      [2]: "1945-08-23T15:00:00Z" (-768646800) transition_time 0x34-0x37.7 (4)
0x030|                        55 ce 02 8a            |        U...    |      [3]: "2015-08-14T15:00:26Z" (1439564426) transition_time 0x38-0x3b.7 (4)
0x030|                                    5a ec 75 8b|            Z.u.|      [4]: "2018-05-04T15:00:27Z" (1525446027) transition_time 0x3c-0x3f.7 (4)
0x040|64 9b 78 1b                                    |d.x.            |      [5]: "2023-06-28T00:00:27Z" (1687910427) transition_time 0x40-0x43.7 (4)
     |                                               |                |    transition_types[0:6]: 0x44-0x49.7 (6)
0x040|            01                                 |    .           |      [0]: 1 transition_type 0x44-0x44.7 (1)
0x040|               02                              |     .          |      [1]: 2 transition_type 0x45-0x45.7 (1)
0x040|                  03                           |      .         |      [2]: 3 transition_type 0x46-0x46.7 (1)
0x040|                     01                        |       .        |      [3]: 1 transition_type 0x47-0x47.7 (1)
0x040|                        03                     |        .       |      [4]: 3 transition_type 0x48-0x48.7 (1)
0x040|                           03                  |         .      |      [5]: 3 transition_type 0x49-0x49.7 (1)
     |                                               |                |    local_time_type_records[0:4]: 0x4a-0x61.7 (24)
     |                                               |                |      [0]{}: local_time_type 0x4a-0x4f.7 (6)
0x040|                              00 00 75 e4      |          ..u.  |        utoff: 30180 (valid) 0x4a-0x4d.7 (4)
0x040|                                          00   |              . |        dst: 0 (valid) 0x4e-0x4e.7 (1)
0x040|                                             00|               .|        idx: 0 (valid) 0x4f-0x4f.7 (1)
     |                                               |                |      [1]{}: local_time_type 0x50-0x55.7 (6)
0x050|00 00 77 88                                    |..w.            |        utoff: 30600 (valid) 0x50-0x53.7 (4)
0x050|            00                                 |    .           |        dst: 0 (valid) 0x54-0x54.7 (1)
0x050|               04                              |     .          |        idx: 4 (valid) 0x55-0x55.7 (1)
     |                                               |                |      [2]{}: local_time_type 0x56-0x5b.7 (6)
0x050|                  00 00 7e 90                  |      ..~.      |        utoff: 32400 (valid) 0x56-0x59.7 (4)
0x050|                              00               |          .     |        dst: 0 (valid) 0x5a-0x5a.7 (1)
0x050|                                 08            |           .    |        idx: 8 (valid) 0x5b-0x5b.7 (1)
     |                                               |                |      [3]{}: local_time_type 0x5c-0x61.7 (6)
0x050|                                    00 00 7e 90|            ..~.|        utoff: 32400 (valid) 0x5c-0x5f.7 (4)
0x060|00                                             |.               |        dst: 0 (valid) 0x60-0x60.7 (1)
0x060|   04                                          | .              |        idx: 4 (valid) 0x61-0x61.7 (1)
     |                                               |                |    time_zone_designations[0:3]: 0x62-0x6d.7 (12)
0x060|      4c 4d 54 00                              |  LMT.          |      [0]: "LMT" time_zone_designation 0x62-0x65.7 (4)
0x060|                  4b 53 54 00                  |      KST.      |      [1]: "KST" time_zone_designation 0x66-0x69.7 (4)
0x060|                              4a 53 54 00      |          JST.  |      [2]: "JST" time_zone_designation 0x6a-0x6d.7 (4)
     |                                               |                |    leap_second_records[0:27]: 0x6e-0x145.7 (216)
     |                                               |                |      [0]{}: leap_second_record 0x6e-0x75.7 (8)
0x060|                                          04 b2|              ..|        occur: "1972-07-01T00:00:00Z" (78796800) 0x6e-0x71.7 (4)
0x070|58 00                                          |X.              |
0x070|      00 00 00 01                              |  ....          |        corr: 1 0x72-0x75.7 (4)
     |                                               |                |      [1]{}: leap_second_record 0x76-0x7d.7 (8)
0x070|                  05 a4 ec 01                  |      ....      |        occur: "1973-01-01T00:00:01Z" (94694401) 0x76-0x79.7 (4)
0x070|                              00 00 00 02      |          ....  |        corr: 2 0x7a-0x7d.7 (4)
     |                                               |                |      [2]{}: leap_second_record 0x7e-0x85.7 (8)
0x070|                                          07 86|              ..|        occur: "1974-01-01T00:00:02Z" (126230402) 0x7e-0x81.7 (4)
0x080|1f 82                                          |..              |
0x080|      00 00 00 03                              |  ....          |        corr: 3 0x82-0x85.7 (4)
     |                                               |                |      [3]{}: leap_second_record 0x86-0x8d.7 (8)
0x080|                  09 67 53 03                  |      .gS.      |        occur: "1975-01-01T00:00:03Z" (157766403) 0x86-0x89.7 (4)
0x080|                              00 00 00 04      |          ....  |        corr: 4 0x8a-0x8d.7 (4)
     |                                               |                |      [4]{}: leap_second_record 0x8e-0x95.7 (8)
0x080|                                          0b 48|              .H|        occur: "1976-01-01T00:00:04Z" (189302404) 0x8e-0x91.7 (4)
0x090|86 84                                          |..              |
0x090|      00 00 00 05                              |  ....          |        corr: 5 0x92-0x95.7 (4)
     |                                               |                |      [5]{}: leap_second_record 0x96-0x9d.7 (8)
0x090|                  0d 2b 0b 85                  |      .+..      |        occur: "1977-01-01T00:00:05Z" (220924805) 0x96-0x99.7 (4)
0x090|                              00 00 00 06      |          ....  |        corr: 6 0x9a-0x9d.7 (4)
     |                                               |                |      [6]{}: leap_second_record 0x9e-0xa5.7 (8)
0x090|                                          0f 0c|              ..|        occur: "1978-01-01T00:00:06Z" (252460806) 0x9e-0xa1.7 (4)
0x0a0|3f 06                                          |?.              |
0x0a0|      00 00 00 07                              |  ....          |        corr: 7 0xa2-0xa5.7 (4)
     |                                               |                |      [7]{}: leap_second_record 0xa6-0xad.7 (8)
0x0a0|                  10 ed 72 87                  |      ..r.      |        occur: "1979-01-01T00:00:07Z" (283996807) 0xa6-0xa9.7 (4)
0x0a0|                              00 00 00 08      |          ....  |        corr: 8 0xaa-0xad.7 (4)
     |                                               |                |      [8]{}: leap_second_record 0xae-0xb5.7 (8)
0x0a0|                                          12 ce|              ..|        occur: "1980-01-01T00:00:08Z" (315532808) 0xae-0xb1.7 (4)
0x0b0|a6 08                                          |..              |
0x0b0|      00 00 00 09                              |  ....          |        corr: 9 0xb2-0xb5.7 (4)
     |                                               |                |      [9]{}: leap_second_record 0xb6-0xbd.7 (8)
0x0b0|                  15 9f ca 89                  |      ....      |        occur: "1981-07-01T00:00:09Z" (362793609) 0xb6-0xb9.7 (4)
0x0b0|                              00 00 00 0a      |          ....  |        corr: 10 0xba-0xbd.7 (4)
     |                                               |                |      [10]{}: leap_second_record 0xbe-0xc5.7 (8)
0x0b0|                                          17 80|              ..|        occur: "1982-07-01T00:00:10Z" (394329610) 0xbe-0xc1.7 (4)
0x0c0|fe 0a                                          |..              |
0x0c0|      00 00 00 0b                              |  ....          |        corr: 11 0xc2-0xc5.7 (4)
     |                                               |                |      [11]{}: leap_second_record 0xc6-0xcd.7 (8)
0x0c0|                  19 62 31 8b                  |      .b1.      |        occur: "1983-07-01T00:00:11Z" (425865611) 0xc6-0xc9.7 (4)
0x0c0|                              00 00 00 0c      |          ....  |        corr: 12 0xca-0xcd.7 (4)
     |                                               |                |      [12]{}: leap_second_record 0xce-0xd5.7 (8)
0x0c0|                                          1d 25|              .%|        occur: "1985-07-01T00:00:12Z" (489024012) 0xce-0xd1.7 (4)
0x0d0|ea 0c                                          |..              |
0x0d0|      00 00 00 0d                              |  ....          |        corr: 13 0xd2-0xd5.7 (4)
     |                                               |                |      [13]{}: leap_second_record 0xd6-0xdd.7 (8)
0x0d0|                  21 da e5 0d                  |      !...      |        occur: "1988-01-01T00:00:13Z" (567993613) 0xd6-0xd9.7 (4)
0x0d0|                              00 00 00 0e      |          ....  |        corr: 14 0xda-0xdd.7 (4)
     |                                               |                |      [14]{}: leap_second_record 0xde-0xe5.7 (8)
0x0d0|                                          25 9e|              %.|        occur: "1990-01-01T00:00:14Z" (631152014) 0xde-0xe1.7 (4)
0x0e0|9d 8e                                          |..              |
0x0e0|      00 00 00 0f                              |  ....          |        corr: 15 0xe2-0xe5.7 (4)
     |                                               |                |      [15]{}: leap_second_record 0xe6-0xed.7 (8)
0x0e0|                  27 7f d1 0f                  |      '...      |        occur: "1991-01-01T00:00:15Z" (662688015) 0xe6-0xe9.7 (4)
0x0e0|                              00 00 00 10      |          ....  |        corr: 16 0xea-0xed.7 (4)
     |                                               |                |      [16]{}: leap_second_record 0xee-0xf5.7 (8)
0x0e0|                                          2a 50|              *P|        occur: "1992-07-01T00:00:16Z" (709948816) 0xee-0xf1.7 (4)
0x0f0|f5 90                                          |..              |
0x0f0|      00 00 00 11                              |  ....          |        corr: 17 0xf2-0xf5.7 (4)
     |                                               |                |      [17]{}: leap_second_record 0xf6-0xfd.7 (8)
0x0f0|                  2c 32 29 11                  |      ,2).      |        occur: "1993-07-01T00:00:17Z" (741484817) 0xf6-0xf9.7 (4)
0x0f0|                              00 00 00 12      |          ....  |        corr: 18 0xfa-0xfd.7 (4)
     |                                               |                |      [18]{}: leap_second_record 0xfe-0x105.7 (8)
0x0f0|                                          2e 13|              ..|        occur: "1994-07-01T00:00:18Z" (773020818) 0xfe-0x101.7 (4)
0x100|5c 92                                          |\.              |
0x100|      00 00 00 13                              |  ....          |        corr: 19 0x102-0x105.7 (4)
     |                                               |                |      [19]{}: leap_second_record 0x106-0x10d.7 (8)
0x100|                  30 e7 24 13                  |      0.$.      |        occur: "1996-01-01T00:00:19Z" (820454419) 0x106-0x109.7 (4)
0x100|                              00 00 00 14      |          ....  |        corr: 20 0x10a-0x10d.7 (4)
     |                                               |                |      [20]{}: leap_second_record 0x10e-0x115.7 (8)
0x100|                                          33 b8|              3.|        occur: "1997-07-01T00:00:20Z" (867715220) 0x10e-0x111.7 (4)
0x110|48 94                                          |H.              |
0x110|      00 00 00 15                              |  ....          |        corr: 21 0x112-0x115.7 (4)
     |                                               |                |      [21]{}: leap_second_record 0x116-0x11d.7 (8)
0x110|                  36 8c 10 15                  |      6...      |        occur: "1999-01-01T00:00:21Z" (915148821) 0x116-0x119.7 (4)
0x110|                              00 00 00 16      |          ....  |        corr: 22 0x11a-0x11d.7 (4)
     |                                               |                |      [22]{}: leap_second_record 0x11e-0x125.7 (8)
0x110|                                          43 b7|              C.|        occur: "2006-01-01T00:00:22Z" (1136073622) 0x11e-0x121.7 (4)
0x120|1b 96                                          |..              |
0x120|      00 00 00 17                              |  ....          |        corr: 23 0x122-0x125.7 (4)
     |                                               |                |      [23]{}: leap_second_record 0x126-0x12d.7 (8)
0x120|                  49 5c 07 97                  |      I\..      |        occur: "2009-01-01T00:00:23Z" (1230768023) 0x126-0x129.7 (4)
0x120|                              00 00 00 18      |          ....  |        corr: 24 0x12a-0x12d.7 (4)
     |                                               |                |      [24]{}: leap_second_record 0x12e-0x135.7 (8)
0x120|                                          4f ef|              O.|        occur: "2012-07-01T00:00:24Z" (1341100824) 0x12e-0x131.7 (4)
0x130|93 18                                          |..              |
0x130|      00 00 00 19                              |  ....          |        corr: 25 0x132-0x135.7 (4)
     |                                               |                |      [25]{}: leap_second_record 0x136-0x13d.7 (8)
0x130|                  55 93 2d 99                  |      U.-.      |        occur: "2015-07-01T00:00:25Z" (1435708825) 0x136-0x139.7 (4)
0x130|                              00 00 00 1a      |          ....  |        corr: 26 0x13a-0x13d.7 (4)
     |                                               |                |      [26]{}: leap_second_record 0x13e-0x145.7 (8)
0x130|                                          58 68|              Xh|        occur: "2017-01-01T00:00:26Z" (1483228826) 0x13e-0x141.7 (4)
0x140|46 9a                                          |F.              |
0x140|      00 00 00 1b                              |  ....          |        corr: 27 0x142-0x145.7 (4)
     |                                               |                |    standard_wall_indicators[0:0]: 0x146-NA (0)
     |                                               |                |    ut_local_indicators[0:0]: 0x146-NA (0)
     |                                               |                |  v2plusheader{}: 0x146-0x171.7 (44)
0x140|                  54 5a 69 66                  |      TZif      |    magic: 0x545a6966 (valid) 0x146-0x149.7 (4)
0x140|                              32               |          2     |    ver: "2" (0x32) (valid) 0x14a-0x14a.7 (1)
0x140|                                 00 00 00 00 00|           .....|    reserved: raw bits 0x14b-0x159.7 (15)
0x150|00 00 00 00 00 00 00 00 00 00                  |..........      |
0x150|                              00 00 00 00      |          ....  |    isutcnt: 0 0x15a-0x15d.7 (4)
0x150|                                          00 00|              ..|    isstdcnt: 0 0x15e-0x161.7 (4)
0x160|00 00                                          |..              |
0x160|      00 00 00 1b                              |  ....          |    leapcnt: 27 0x162-0x165.7 (4)
0x160|                  00 00 00 06                  |      ....      |    timecnt: 6 0x166-0x169.7 (4)
0x160|                              00 00 00 04      |          ....  |    typecnt: 4 0x16a-0x16d.7 (4)
0x160|                                          00 00|              ..|    charcnt: 12 0x16e-0x171.7 (4)
0x170|00 0c                                          |..              |
     |                                               |                |  v2plusdatablock{}: 0x172-0x30f.7 (414)
     |                                               |                |    transition_times[0:6]: 0x172-0x1a1.7 (48)
0x170|      ff ff ff ff 8b d7 f1 9c                  |  ........      |      [0]: "1908-03-31T15:37:00Z" (-1948782180) transition_time 0x172-0x179.7 (8)
0x170|                              ff ff ff ff 92 e6|          ......|      [1]: "1911-12-31T15:30:00Z" (-1830414600) transition_time 0x17a-0x181.7 (8)
0x180|16 f8                                          |..              |
0x180|      ff ff ff ff d2 2f 61 70                  |  ...../ap      |      [2]: "1945-08-23T15:00:00Z" (-768646800) transition_time 0x182-0x189.7 (8)
0x180|                              00 00 00 00 55 ce|          ....U.|      [3]: "2015-08-14T15:00:26Z" (1439564426) transition_time 0x18a-0x191.7 (8)
0x190|02 8a                                          |..              |
0x190|      00 00 00 00 5a ec 75 8b                  |  ....Z.u.      |      [4]: "2018-05-04T15:00:27Z" (1525446027) transition_time 0x192-0x199.7 (8)
0x190|                              00 00 00 00 64 9b|          ....d.|      [5]: "2023-06-28T00:00:27Z" (1687910427) transition_time 0x19a-0x1a1.7 (8)
0x1a0|78 1b                                          |x.              |
     |                                               |                |    transition_types[0:6]: 0x1a2-0x1a7.7 (6)
0x1a0|      01                                       |  .             |      [0]: 1 transition_type 0x1a2-0x1a2.7 (1)
0x1a0|         02                                    |   .            |      [1]: 2 transition_type 0x1a3-0x1a3.7 (1)
0x1a0|            03                                 |    .           |      [2]: 3 transition_type 0x1a4-0x1a4.7 (1)
0x1a0|               01                              |     .          |      [3]: 1 transition_type 0x1a5-0x1a5.7 (1)
0x1a0|                  03                           |      .         |      [4]: 3 transition_type 0x1a6-0x1a6.7 (1)
0x1a0|                     03                        |       .        |      [5]: 3 transition_type 0x1a7-0x1a7.7 (1)
     |                                               |                |    local_time_type_records[0:4]: 0x1a8-0x1bf.7 (24)
     |                                               |                |      [0]{}: local_time_type 0x1a8-0x1ad.7 (6)
0x1a0|                        00 00 75 e4            |        ..u.    |        utoff: 30180 (valid) 0x1a8-0x1ab.7 (4)
0x1a0|                                    00         |            .   |        dst: 0 (valid) 0x1ac-0x1ac.7 (1)
0x1a0|                                       00      |             .  |        idx: 0 (valid) 0x1ad-0x1ad.7 (1)
     |                                               |                |      [1]{}: local_time_type 0x1ae-0x1b3.7 (6)
0x1a0|                                          00 00|              ..|        utoff: 30600 (valid) 0x1ae-0x1b1.7 (4)
0x1b0|77 88                                          |w.              |
0x1b0|      00                                       |  .             |        dst: 0 (valid) 0x1b2-0x1b2.7 (1)
0x1b0|         04                                    |   .            |        idx: 4 (valid) 0x1b3-0x1b3.7 (1)
     |                                               |                |      [2]{}: local_time_type 0x1b4-0x1b9.7 (6)
0x1b0|            00 00 7e 90                        |    ..~.        |        utoff: 32400 (valid) 0x1b4-0x1b7.7 (4)
0x1b0|                        00                     |        .       |        dst: 0 (valid) 0x1b8-0x1b8.7 (1)
0x1b0|                           08                  |         .      |        idx: 8 (valid) 0x1b9-0x1b9.7 (1)
     |                                               |                |      [3]{}: local_time_type 0x1ba-0x1bf.7 (6)
0x1b0|                              00 00 7e 90      |          ..~.  |        utoff: 32400 (valid) 0x1ba-0x1bd.7 (4)
0x1b0|                                          00   |              . |        dst: 0 (valid) 0x1be-0x1be.7 (1)
0x1b0|                                             04|               .|        idx: 4 (valid) 0x1bf-0x1bf.7 (1)
     |                                               |                |    time_zone_designations[0:3]: 0x1c0-0x1cb.7 (12)
0x1c0|4c 4d 54 00                                    |LMT.            |      [0]: "LMT" time_zone_designation 0x1c0-0x1c3.7 (4)
0x1c0|            4b 53 54 00                        |    KST.        |      [1]: "KST" time_zone_designation 0x1c4-0x1c7.7 (4)
0x1c0|                        4a 53 54 00            |        JST.    |      [2]: "JST" time_zone_designation 0x1c8-0x1cb.7 (4)
     |                                               |                |    leap_second_records[0:27]: 0x1cc-0x30f.7 (324)
     |                                               |                |      [0]{}: leap_second_record 0x1cc-0x1d7.7 (12)
0x1c0|                                    00 00 00 00|            ....|        occur: "1972-07-01T00:00:00Z" (78796800) 0x1cc-0x1d3.7 (8)
0x1d0|04 b2 58 00                                    |..X.            |
0x1d0|            00 00 00 01                        |    ....        |        corr: 1 0x1d4-0x1d7.7 (4)
     |                                               |                |      [1]{}: leap_second_record 0x1d8-0x1e3.7 (12)
0x1d0|                        00 00 00 00 05 a4 ec 01|        ........|        occur: "1973-01-01T00:00:01Z" (94694401) 0x1d8-0x1df.7 (8)
0x1e0|00 00 00 02                                    |....            |        corr: 2 0x1e0-0x1e3.7 (4)
     |                                               |                |      [2]{}: leap_second_record 0x1e4-0x1ef.7 (12)
0x1e0|            00 00 00 00 07 86 1f 82            |    ........    |        occur: "1974-01-01T00:00:02Z" (126230402) 0x1e4-0x1eb.7 (8)
0x1e0|                                    00 00 00 03|            ....|        corr: 3 0x1ec-0x1ef.7 (4)
     |                                               |                |      [3]{}: leap_second_record 0x1f0-0x1fb.7 (12)
0x1f0|00 00 00 00 09 67 53 03                        |.....gS.        |        occur: "1975-01-01T00:00:03Z" (157766403) 0x1f0-0x1f7.7 (8)
0x1f0|                        00 00 00 04            |        ....    |        corr: 4 0x1f8-0x1fb.7 (4)
     |                                               |                |      [4]{}: leap_second_record 0x1fc-0x207.7 (12)
0x1f0|                                    00 00 00 00|            ....|        occur: "1976-01-01T00:00:04Z" (189302404) 0x1fc-0x203.7 (8)
0x200|0b 48 86 84                                    |.H..            |
0x200|            00 00 00 05                        |    ....        |        corr: 5 0x204-0x207.7 (4)
     |                                               |                |      [5]{}: leap_second_record 0x208-0x213.7 (12)
0x200|                        00 00 00 00 0d 2b 0b 85|        .....+..|        occur: "1977-01-01T00:00:05Z" (220924805) 0x208-0x20f.7 (8)
0x210|00 00 00 06                                    |....            |        corr: 6 0x210-0x213.7 (4)
     |                                               |                |      [6]{}: leap_second_record 0x214-0x21f.7 (12)
0x210|            00 00 00 00 0f 0c 3f 06            |    ......?.    |        occur: "1978-01-01T00:00:06Z" (252460806) 0x214-0x21b.7 (8)
0x210|                                    00 00 00 07|            ....|        corr: 7 0x21c-0x21f.7 (4)
     |                                               |                |      [7]{}: leap_second_record 0x220-0x22b.7 (12)
0x220|00 00 00 00 10 ed 72 87                        |......r.        |        occur: "1979-01-01T00:00:07Z" (283996807) 0x220-0x227.7 (8)
0x220|                        00 00 00 08            |        ....    |        corr: 8 0x228-0x22b.7 (4)
     |                                               |                |      [8]{}: leap_second_record 0x22c-0x237.7 (12)
0x220|                                    00 00 00 00|            ....|        occur: "1980-01-01T00:00:08Z" (315532808) 0x22c-0x233.7 (8)
0x230|12 ce a6 08                                    |....            |
0x230|            00 00 00 09                        |    ....        |        corr: 9 0x234-0x237.7 (4)
     |                                               |                |      [9]{}: leap_second_record 0x238-0x243.7 (12)
0x230|                        00 00 00 00 15 9f ca 89|        ........|        occur: "1981-07-01T00:00:09Z" (362793609) 0x238-0x23f.7 (8)
0x240|00 00 00 0a                                    |....            |        corr: 10 0x240-0x243.7 (4)
     |                                               |                |      [10]{}: leap_second_record 0x244-0x24f.7 (12)
0x240|            00 00 00 00 17 80 fe 0a            |    ........    |        occur: "1982-07-01T00:00:10Z" (394329610) 0x244-0x24b.7 (8)
0x240|                                    00 00 00 0b|            ....|        corr: 11 0x24c-0x24f.7 (4)
     |                                               |                |      [11]{}: leap_second_record 0x250-0x25b.7 (12)
0x250|00 00 00 00 19 62 31 8b                        |.....b1.        |        occur: "1983-07-01T00:00:11Z" (425865611) 0x250-0x257.7 (8)
0x250|                        00 00 00 0c            |        ....    |        corr: 12 0x258-0x25b.7 (4)
     |                                               |                |      [12]{}: leap_second_record 0x25c-0x267.7 (12)
0x250|                                    00 00 00 00|            ....|        occur: "1985-07-01T00:00:12Z" (489024012) 0x25c-0x263.7 (8)
0x260|1d 25 ea 0c                                    |.%..            |
0x260|            00 00 00 0d                        |    ....        |        corr: 13 0x264-0x267.7 (4)
     |                                               |                |      [13]{}: leap_second_record 0x268-0x273.7 (12)
0x260|                        00 00 00 00 21 da e5 0d|        ....!...|        occur: "1988-01-01T00:00:13Z" (567993613) 0x268-0x26f.7 (8)
0x270|00 00 00 0e                                    |....            |        corr: 14 0x270-0x273.7 (4)
     |                                               |                |      [14]{}: leap_second_record 0x274-0x27f.7 (12)
0x270|            00 00 00 00 25 9e 9d 8e            |    ....%...    |        occur: "1990-01-01T00:00:14Z" (631152014) 0x274-0x27b.7 (8)
0x270|                                    00 00 00 0f|            ....|        corr: 15 0x27c-0x27f.7 (4)
     |                                               |                |      [15]{}: leap_second_record 0x280-0x28b.7 (12)
0x280|00 00 00 00 27 7f d1 0f                        |....'...        |        occur: "1991-01-01T00:00:15Z" (662688015) 0x280-0x287.7 (8)
0x280|                        00 00 00 10            |        ....    |        corr: 16 0x288-0x28b.7 (4)
     |                                               |                |      [16]{}: leap_second_record 0x28c-0x297.7 (12)
0x280|                                    00 00 00 00|            ....|        occur: "1992-07-01T00:00:16Z" (709948816) 0x28c-0x293.7 (8)
0x290|2a 50 f5 90                                    |*P..            |
0x290|            00 00 00 11                        |    ....        |        corr: 17 0x294-0x297.7 (4)
     |                                               |                |      [17]{}: leap_second_record 0x298-0x2a3.7 (12)
0x290|                        00 00 00 00 2c 32 29 11|        ....,2).|        occur: "1993-07-01T00:00:17Z" (741484817) 0x298-0x29f.7 (8)
0x2a0|00 00 00 12                                    |....            |        corr: 18 0x2a0-0x2a3.7 (4)
     |                                               |                |      [18]{}: leap_second_record 0x2a4-0x2af.7 (12)
0x2a0|            00 00 00 00 2e 13 5c 92            |    ......\.    |        occur: "1994-07-01T00:00:18Z" (773020818) 0x2a4-0x2ab.7 (8)
0x2a0|                                    00 00 00 13|            ....|        corr: 19 0x2ac-0x2af.7 (4)
     |                                               |                |      [19]{}: leap_second_record 0x2b0-0x2bb.7 (12)
0x2b0|00 00 00 00 30 e7 24 13                        |....0.$.        |        occur: "1996-01-01T00:00:19Z" (820454419) 0x2b0-0x2b7.7 (8)
0x2b0|                        00 00 00 14            |        ....    |        corr: 20 0x2b8-0x2bb.7 (4)
     |                                               |                |      [20]{}: leap_second_record 0x2bc-0x2c7.7 (12)
0x2b0|                                    00 00 00 00|            ....|        occur: "1997-07-01T00:00:20Z" (867715220) 0x2bc-0x2c3.7 (8)
0x2c0|33 b8 48 94                                    |3.H.            |
0x2c0|            00 00 00 15                        |    ....        |        corr: 21 0x2c4-0x2c7.7 (4)
     |                                               |                |      [21]{}: leap_second_record 0x2c8-0x2d3.7 (12)
0x2c0|                        00 00 00 00 36 8c 10 15|        ....6...|        occur: "1999-01-01T00:00:21Z" (915148821) 0x2c8-0x2cf.7 (8)
0x2d0|00 00 00 16                                    |....            |        corr: 22 0x2d0-0x2d3.7 (4)
     |                                               |                |      [22]{}: leap_second_record 0x2d4-0x2df.7 (12)
0x2d0|            00 00 00 00 43 b7 1b 96            |    ....C...    |        occur: "2006-01-01T00:00:22Z" (1136073622) 0x2d4-0x2db.7 (8)
0x2d0|                                    00 00 00 17|            ....|        corr: 23 0x2dc-0x2df.7 (4)
     |                                               |                |      [23]{}: leap_second_record 0x2e0-0x2eb.7 (12)
0x2e0|00 00 00 00 49 5c 07 97                        |....I\..        |        occur: "2009-01-01T00:00:23Z" (1230768023) 0x2e0-0x2e7.7 (8)
0x2e0|                        00 00 00 18            |        ....    |        corr: 24 0x2e8-0x2eb.7 (4)
     |                                               |                |      [24]{}: leap_second_record 0x2ec-0x2f7.7 (12)
0x2e0|                                    00 00 00 00|            ....|        occur: "2012-07-01T00:00:24Z" (1341100824) 0x2ec-0x2f3.7 (8)
0x2f0|4f ef 93 18                                    |O...            |
0x2f0|            00 00 00 19                        |    ....        |        corr: 25 0x2f4-0x2f7.7 (4)
     |                                               |                |      [25]{}: leap_second_record 0x2f8-0x303.7 (12)
0x2f0|                        00 00 00 00 55 93 2d 99|        ....U.-.|        occur: "2015-07-01T00:00:25Z" (1435708825) 0x2f8-0x2ff.7 (8)
0x300|00 00 00 1a                                    |....            |        corr: 26 0x300-0x303.7 (4)
     |                                               |                |      [26]{}: leap_second_record 0x304-0x30f.7 (12)
0x300|            00 00 00 00 58 68 46 9a            |    ....XhF.    |        occur: "2017-01-01T00:00:26Z" (1483228826) 0x304-0x30b.7 (8)
0x300|                                    00 00 00 1b|            ....|        corr: 27 0x30c-0x30f.7 (4)
     |                                               |                |    standard_wall_indicators[0:0]: 0x310-NA (0)
     |                                               |                |    ut_local_indicators[0:0]: 0x310-NA (0)
     |                                               |                |  footer{}: 0x310-0x311.7 (2)
0x310|0a                                             |.               |    nl1: 10 (valid) 0x310-0x310.7 (1)
     |                                               |                |    tz_string: "" 0x311-NA (0)
0x310|   0a|                                         | .|             |    nl2: 10 (valid) 0x311-0x311.7 (1)
