$ fq -d tzif dv Qyzylorda
     |00 01 02 03 04 05 06 07 08 09 0a 0b 0c 0d 0e 0f|0123456789abcdef|.{}: Qyzylorda (tzif) 0x0-0x616 (1558)
     |                                               |                |  v1header{}: 0x0-0x2c (44)
0x000|54 5a 69 66                                    |TZif            |    magic: 0x545a6966 (valid) 0x0-0x4 (4)
0x000|            32                                 |    2           |    ver: "2" (0x32) (valid) 0x4-0x5 (1)
0x000|               00 00 00 00 00 00 00 00 00 00 00|     ...........|    reserved: raw bits 0x5-0x14 (15)
0x010|00 00 00 00                                    |....            |
0x010|            00 00 00 00                        |    ....        |    isutcnt: 0 0x14-0x18 (4)
0x010|                        00 00 00 0b            |        ....    |    isstdcnt: 11 0x18-0x1c (4)
0x010|                                    00 00 00 1b|            ....|    leapcnt: 27 0x1c-0x20 (4)
0x020|00 00 00 35                                    |...5            |    timecnt: 53 0x20-0x24 (4)
0x020|            00 00 00 0b                        |    ....        |    typecnt: 11 0x24-0x28 (4)
0x020|                        00 00 00 10            |        ....    |    charcnt: 16 0x28-0x2c (4)
     |                                               |                |  v1datablock{}: 0x2c-0x26a (574)
     |                                               |                |    transition_times[0:53]: 0x2c-0x100 (212)
0x020|                                    aa 19 86 a0|            ....|      [0]: "1924-05-01T19:38:08Z" (-1441167712) transition_time 0x2c-0x30 (4)
0x030|b5 a3 fd 40                                    |...@            |      [1]: "1930-06-20T20:00:00Z" (-1247544000) transition_time 0x30-0x34 (4)
0x030|            15 27 8b b9                        |    .'..        |      [2]: "1981-03-31T19:00:09Z" (354913209) transition_time 0x34-0x38 (4)
0x030|                        16 18 c0 2a            |        ...*    |      [3]: "1981-09-30T18:00:10Z" (370720810) transition_time 0x38-0x3c (4)
0x030|                                    17 08 b1 2a|            ...*|      [4]: "1982-03-31T18:00:10Z" (386445610) transition_time 0x3c-0x40 (4)
0x040|17 f9 f3 ab                                    |....            |      [5]: "1982-09-30T18:00:11Z" (402256811) transition_time 0x40-0x44 (4)
0x040|            18 e9 f2 bb                        |    ....        |      [6]: "1983-03-31T19:00:11Z" (417985211) transition_time 0x44-0x48 (4)
0x040|                        19 db 27 2c            |        ..',    |      [7]: "1983-09-30T18:00:12Z" (433792812) transition_time 0x48-0x4c (4)
0x040|                                    1a cc 77 bc|            ..w.|      [8]: "1984-03-31T19:00:12Z" (449607612) transition_time 0x4c-0x50 (4)
0x050|1b bc 84 dc                                    |....            |      [9]: "1984-09-29T21:00:12Z" (465339612) transition_time 0x50-0x54 (4)
0x050|            1c ac 75 dc                        |    ..u.        |      [10]: "1985-03-30T21:00:12Z" (481064412) transition_time 0x54-0x58 (4)
0x050|                        1d 9c 66 dd            |        ..f.    |      [11]: "1985-09-28T21:00:13Z" (496789213) transition_time 0x58-0x5c (4)
0x050|                                    1e 8c 57 dd|            ..W.|      [12]: "1986-03-29T21:00:13Z" (512514013) transition_time 0x5c-0x60 (4)
0x060|1f 7c 48 dd                                    |.|H.            |      [13]: "1986-09-27T21:00:13Z" (528238813) transition_time 0x60-0x64 (4)
0x060|            20 6c 39 dd                        |     l9.        |      [14]: "1987-03-28T21:00:13Z" (543963613) transition_time 0x64-0x68 (4)
0x060|                        21 5c 2a dd            |        !\*.    |      [15]: "1987-09-26T21:00:13Z" (559688413) transition_time 0x68-0x6c (4)
0x060|                                    22 4c 1b de|            "L..|      [16]: "1988-03-26T21:00:14Z" (575413214) transition_time 0x6c-0x70 (4)
0x070|23 3c 0c de                                    |#<..            |      [17]: "1988-09-24T21:00:14Z" (591138014) transition_time 0x70-0x74 (4)
0x070|            24 2b fd de                        |    $+..        |      [18]: "1989-03-25T21:00:14Z" (606862814) transition_time 0x74-0x78 (4)
0x070|                        25 1b ee de            |        %...    |      [19]: "1989-09-23T21:00:14Z" (622587614) transition_time 0x78-0x7c (4)
0x070|                                    26 0b df df|            &...|      [20]: "1990-03-24T21:00:15Z" (638312415) transition_time 0x7c-0x80 (4)
0x080|27 05 0b 5f                                    |'.._            |      [21]: "1990-09-29T21:00:15Z" (654642015) transition_time 0x80-0x84 (4)
0x080|            27 f4 fc 60                        |    '..`        |      [22]: "1991-03-30T21:00:16Z" (670366816) transition_time 0x84-0x88 (4)
0x080|                        28 e4 fb 70            |        (..p    |      [23]: "1991-09-28T22:00:16Z" (686095216) transition_time 0x88-0x8c (4)
0x080|                                    29 78 95 60|            )x.`|      [24]: "1992-01-18T21:00:16Z" (695768416) transition_time 0x8c-0x90 (4)
0x090|29 d4 d0 50                                    |)..P            |      [25]: "1992-03-28T20:00:16Z" (701812816) transition_time 0x90-0x94 (4)
0x090|            2a c4 cf 61                        |    *..a        |      [26]: "1992-09-26T21:00:17Z" (717541217) transition_time 0x94-0x98 (4)
0x090|                        2b b4 c0 61            |        +..a    |      [27]: "1993-03-27T21:00:17Z" (733266017) transition_time 0x98-0x9c (4)
0x090|                                    2c a4 b1 62|            ,..b|      [28]: "1993-09-25T21:00:18Z" (748990818) transition_time 0x9c-0xa0 (4)
0x0a0|2d 94 a2 62                                    |-..b            |      [29]: "1994-03-26T21:00:18Z" (764715618) transition_time 0xa0-0xa4 (4)
0x0a0|            2e 84 93 63                        |    ...c        |      [30]: "1994-09-24T21:00:19Z" (780440419) transition_time 0xa4-0xa8 (4)
0x0a0|                        2f 74 84 63            |        /t.c    |      [31]: "1995-03-25T21:00:19Z" (796165219) transition_time 0xa8-0xac (4)
0x0a0|                                    30 64 75 63|            0duc|      [32]: "1995-09-23T21:00:19Z" (811890019) transition_time 0xac-0xb0 (4)
0x0b0|31 5d a0 e4                                    |1]..            |      [33]: "1996-03-30T21:00:20Z" (828219620) transition_time 0xb0-0xb4 (4)
0x0b0|            32 72 7b e4                        |    2r{.        |      [34]: "1996-10-26T21:00:20Z" (846363620) transition_time 0xb4-0xb8 (4)
0x0b0|                        33 3d 82 e4            |        3=..    |      [35]: "1997-03-29T21:00:20Z" (859669220) transition_time 0xb8-0xbc (4)
0x0b0|                                    34 52 5d e5|            4R].|      [36]: "1997-10-25T21:00:21Z" (877813221) transition_time 0xbc-0xc0 (4)
0x0c0|35 1d 64 e5                                    |5.d.            |      [37]: "1998-03-28T21:00:21Z" (891118821) transition_time 0xc0-0xc4 (4)
0x0c0|            36 32 3f e5                        |    62?.        |      [38]: "1998-10-24T21:00:21Z" (909262821) transition_time 0xc4-0xc8 (4)
0x0c0|                        36 fd 46 e6            |        6.F.    |      [39]: "1999-03-27T21:00:22Z" (922568422) transition_time 0xc8-0xcc (4)
0x0c0|                                    38 1b 5c 66|            8.\f|      [40]: "1999-10-30T21:00:22Z" (941317222) transition_time 0xcc-0xd0 (4)
0x0d0|38 dd 28 e6                                    |8.(.            |      [41]: "2000-03-25T21:00:22Z" (954018022) transition_time 0xd0-0xd4 (4)
0x0d0|            39 fb 3e 66                        |    9.>f        |      [42]: "2000-10-28T21:00:22Z" (972766822) transition_time 0xd4-0xd8 (4)
0x0d0|                        3a bd 0a e6            |        :...    |      [43]: "2001-03-24T21:00:22Z" (985467622) transition_time 0xd8-0xdc (4)
0x0d0|                                    3b db 20 66|            ;. f|      [44]: "2001-10-27T21:00:22Z" (1004216422) transition_time 0xdc-0xe0 (4)
0x0e0|3c a6 27 66                                    |<.'f            |      [45]: "2002-03-30T21:00:22Z" (1017522022) transition_time 0xe0-0xe4 (4)
0x0e0|            3d bb 02 66                        |    =..f        |      [46]: "2002-10-26T21:00:22Z" (1035666022) transition_time 0xe4-0xe8 (4)
0x0e0|                        3e 86 09 66            |        >..f    |      [47]: "2003-03-29T21:00:22Z" (1048971622) transition_time 0xe8-0xec (4)
0x0e0|                                    3f 9a e4 66|            ?..f|      [48]: "2003-10-25T21:00:22Z" (1067115622) transition_time 0xec-0xf0 (4)
0x0f0|40 65 eb 66                                    |@e.f            |      [49]: "2004-03-27T21:00:22Z" (1080421222) transition_time 0xf0-0xf4 (4)
0x0f0|            41 84 00 e6                        |    A...        |      [50]: "2004-10-30T21:00:22Z" (1099170022) transition_time 0xf4-0xf8 (4)
0x0f0|                        5c 1b d8 bb            |        \...    |      [51]: "2018-12-20T18:00:27Z" (1545328827) transition_time 0xf8-0xfc (4)
0x0f0|                                    64 9b 78 1b|            d.x.|      [52]: "2023-06-28T00:00:27Z" (1687910427) transition_time 0xfc-0x100 (4)
     |                                               |                |    transition_types[0:53]: 0x100-0x135 (53)
0x100|01                                             |.               |      [0]: 1 transition_type 0x100-0x101 (1)
0x100|   02                                          | .              |      [1]: 2 transition_type 0x101-0x102 (1)
0x100|      03                                       |  .             |      [2]: 3 transition_type 0x102-0x103 (1)
0x100|         04                                    |   .            |      [3]: 4 transition_type 0x103-0x104 (1)
0x100|            03                                 |    .           |      [4]: 3 transition_type 0x104-0x105 (1)
0x100|               02                              |     .          |      [5]: 2 transition_type 0x105-0x106 (1)
0x100|                  03                           |      .         |      [6]: 3 transition_type 0x106-0x107 (1)
0x100|                     02                        |       .        |      [7]: 2 transition_type 0x107-0x108 (1)
0x100|                        03                     |        .       |      [8]: 3 transition_type 0x108-0x109 (1)
0x100|                           05                  |         .      |      [9]: 5 transition_type 0x109-0x10a (1)
0x100|                              06               |          .     |      [10]: 6 transition_type 0x10a-0x10b (1)
0x100|                                 05            |           .    |      [11]: 5 transition_type 0x10b-0x10c (1)
0x100|                                    06         |            .   |      [12]: 6 transition_type 0x10c-0x10d (1)
0x100|                                       05      |             .  |      [13]: 5 transition_type 0x10d-0x10e (1)
0x100|                                          06   |              . |      [14]: 6 transition_type 0x10e-0x10f (1)
0x100|                                             05|               .|      [15]: 5 transition_type 0x10f-0x110 (1)
0x110|06                                             |.               |      [16]: 6 transition_type 0x110-0x111 (1)
0x110|   05                                          | .              |      [17]: 5 transition_type 0x111-0x112 (1)
0x110|      06                                       |  .             |      [18]: 6 transition_type 0x112-0x113 (1)
0x110|         05                                    |   .            |      [19]: 5 transition_type 0x113-0x114 (1)
0x110|            06                                 |    .           |      [20]: 6 transition_type 0x114-0x115 (1)
0x110|               05                              |     .          |      [21]: 5 transition_type 0x115-0x116 (1)
0x110|                  07                           |      .         |      [22]: 7 transition_type 0x116-0x117 (1)
0x110|                     05                        |       .        |      [23]: 5 transition_type 0x117-0x118 (1)
0x110|                        08                     |        .       |      [24]: 8 transition_type 0x118-0x119 (1)
0x110|                           06                  |         .      |      [25]: 6 transition_type 0x119-0x11a (1)
0x110|                              05               |          .     |      [26]: 5 transition_type 0x11a-0x11b (1)
0x110|                                 06            |           .    |      [27]: 6 transition_type 0x11b-0x11c (1)
0x110|                                    05         |            .   |      [28]: 5 transition_type 0x11c-0x11d (1)
0x110|                                       06      |             .  |      [29]: 6 transition_type 0x11d-0x11e (1)
0x110|                                          05   |              . |      [30]: 5 transition_type 0x11e-0x11f (1)
0x110|                                             06|               .|      [31]: 6 transition_type 0x11f-0x120 (1)
0x120|05                                             |.               |      [32]: 5 transition_type 0x120-0x121 (1)
0x120|   06                                          | .              |      [33]: 6 transition_type 0x121-0x122 (1)
0x120|      05                                       |  .             |      [34]: 5 transition_type 0x122-0x123 (1)
0x120|         06                                    |   .            |      [35]: 6 transition_type 0x123-0x124 (1)
0x120|            05                                 |    .           |      [36]: 5 transition_type 0x124-0x125 (1)
0x120|               06                              |     .          |      [37]: 6 transition_type 0x125-0x126 (1)
0x120|                  05                           |      .         |      [38]: 5 transition_type 0x126-0x127 (1)
0x120|                     06                        |       .        |      [39]: 6 transition_type 0x127-0x128 (1)
0x120|                        05                     |        .       |      [40]: 5 transition_type 0x128-0x129 (1)
0x120|                           06                  |         .      |      [41]: 6 transition_type 0x129-0x12a (1)
0x120|                              05               |          .     |      [42]: 5 transition_type 0x12a-0x12b (1)
0x120|                                 06            |           .    |      [43]: 6 transition_type 0x12b-0x12c (1)
0x120|                                    05         |            .   |      [44]: 5 transition_type 0x12c-0x12d (1)
0x120|                                       06      |             .  |      [45]: 6 transition_type 0x12d-0x12e (1)
0x120|                                          05   |              . |      [46]: 5 transition_type 0x12e-0x12f (1)
0x120|                                             06|               .|      [47]: 6 transition_type 0x12f-0x130 (1)
0x130|05                                             |.               |      [48]: 5 transition_type 0x130-0x131 (1)
0x130|   06                                          | .              |      [49]: 6 transition_type 0x131-0x132 (1)
0x130|      08                                       |  .             |      [50]: 8 transition_type 0x132-0x133 (1)
0x130|         02                                    |   .            |      [51]: 2 transition_type 0x133-0x134 (1)
0x130|            02                                 |    .           |      [52]: 2 transition_type 0x134-0x135 (1)
     |                                               |                |    local_time_type_records[0:11]: 0x135-0x177 (66)
     |                                               |                |      [0]{}: local_time_type 0x135-0x13b (6)
0x130|               00 00 3d 60                     |     ..=`       |        utoff: 15712 (valid) 0x135-0x139 (4)
0x130|                           00                  |         .      |        dst: 0 (valid) 0x139-0x13a (1)
0x130|                              00               |          .     |        idx: 0 (valid) 0x13a-0x13b (1)
     |                                               |                |      [1]{}: local_time_type 0x13b-0x141 (6)
0x130|                                 00 00 38 40   |           ..8@ |        utoff: 14400 (valid) 0x13b-0x13f (4)
0x130|                                             00|               .|        dst: 0 (valid) 0x13f-0x140 (1)
0x140|04                                             |.               |        idx: 4 (valid) 0x140-0x141 (1)
     |                                               |                |      [2]{}: local_time_type 0x141-0x147 (6)
0x140|   00 00 46 50                                 | ..FP           |        utoff: 18000 (valid) 0x141-0x145 (4)
0x140|               00                              |     .          |        dst: 0 (valid) 0x145-0x146 (1)
0x140|                  08                           |      .         |        idx: 8 (valid) 0x146-0x147 (1)
     |                                               |                |      [3]{}: local_time_type 0x147-0x14d (6)
0x140|                     00 00 54 60               |       ..T`     |        utoff: 21600 (valid) 0x147-0x14b (4)
0x140|                                 01            |           .    |        dst: 1 (valid) 0x14b-0x14c (1)
0x140|                                    0c         |            .   |        idx: 12 (valid) 0x14c-0x14d (1)
     |                                               |                |      [4]{}: local_time_type 0x14d-0x153 (6)
0x140|                                       00 00 54|             ..T|        utoff: 21600 (valid) 0x14d-0x151 (4)
0x150|60                                             |`               |
0x150|   00                                          | .              |        dst: 0 (valid) 0x151-0x152 (1)
0x150|      0c                                       |  .             |        idx: 12 (valid) 0x152-0x153 (1)
     |                                               |                |      [5]{}: local_time_type 0x153-0x159 (6)
0x150|         00 00 46 50                           |   ..FP         |        utoff: 18000 (valid) 0x153-0x157 (4)
0x150|                     00                        |       .        |        dst: 0 (valid) 0x157-0x158 (1)
0x150|                        08                     |        .       |        idx: 8 (valid) 0x158-0x159 (1)
     |                                               |                |      [6]{}: local_time_type 0x159-0x15f (6)
0x150|                           00 00 54 60         |         ..T`   |        utoff: 21600 (valid) 0x159-0x15d (4)
0x150|                                       01      |             .  |        dst: 1 (valid) 0x15d-0x15e (1)
0x150|                                          0c   |              . |        idx: 12 (valid) 0x15e-0x15f (1)
     |                                               |                |      [7]{}: local_time_type 0x15f-0x165 (6)
0x150|                                             00|               .|        utoff: 18000 (valid) 0x15f-0x163 (4)
0x160|00 46 50                                       |.FP             |
0x160|         01                                    |   .            |        dst: 1 (valid) 0x163-0x164 (1)
0x160|            08                                 |    .           |        idx: 8 (valid) 0x164-0x165 (1)
     |                                               |                |      [8]{}: local_time_type 0x165-0x16b (6)
0x160|               00 00 54 60                     |     ..T`       |        utoff: 21600 (valid) 0x165-0x169 (4)
0x160|                           00                  |         .      |        dst: 0 (valid) 0x169-0x16a (1)
0x160|                              0c               |          .     |        idx: 12 (valid) 0x16a-0x16b (1)
     |                                               |                |      [9]{}: local_time_type 0x16b-0x171 (6)
0x160|                                 00 00 54 60   |           ..T` |        utoff: 21600 (valid) 0x16b-0x16f (4)
0x160|                                             01|               .|        dst: 1 (valid) 0x16f-0x170 (1)
0x170|0c                                             |.               |        idx: 12 (valid) 0x170-0x171 (1)
     |                                               |                |      [10]{}: local_time_type 0x171-0x177 (6)
0x170|   00 00 46 50                                 | ..FP           |        utoff: 18000 (valid) 0x171-0x175 (4)
0x170|               00                              |     .          |        dst: 0 (valid) 0x175-0x176 (1)
0x170|                  08                           |      .         |        idx: 8 (valid) 0x176-0x177 (1)
     |                                               |                |    time_zone_designations[0:4]: 0x177-0x187 (16)
0x170|                     4c 4d 54 00               |       LMT.     |      [0]: "LMT" time_zone_designation 0x177-0x17b (4)
0x170|                                 2b 30 34 00   |           +04. |      [1]: "+04" time_zone_designation 0x17b-0x17f (4)
0x170|                                             2b|               +|      [2]: "+05" time_zone_designation 0x17f-0x183 (4)
0x180|30 35 00                                       |05.             |
0x180|         2b 30 36 00                           |   +06.         |      [3]: "+06" time_zone_designation 0x183-0x187 (4)
     |                                               |                |    leap_second_records[0:27]: 0x187-0x25f (216)
     |                                               |                |      [0]{}: leap_second_record 0x187-0x18f (8)
0x180|                     04 b2 58 00               |       ..X.     |        occur: "1972-07-01T00:00:00Z" (78796800) 0x187-0x18b (4)
0x180|                                 00 00 00 01   |           .... |        corr: 1 0x18b-0x18f (4)
     |                                               |                |      [1]{}: leap_second_record 0x18f-0x197 (8)
0x180|                                             05|               .|        occur: "1973-01-01T00:00:01Z" (94694401) 0x18f-0x193 (4)
0x190|a4 ec 01                                       |...             |
0x190|         00 00 00 02                           |   ....         |        corr: 2 0x193-0x197 (4)
     |                                               |                |      [2]{}: leap_second_record 0x197-0x19f (8)
0x190|                     07 86 1f 82               |       ....     |        occur: "1974-01-01T00:00:02Z" (126230402) 0x197-0x19b (4)
0x190|                                 00 00 00 03   |           .... |        corr: 3 0x19b-0x19f (4)
     |                                               |                |      [3]{}: leap_second_record 0x19f-0x1a7 (8)
0x190|                                             09|               .|        occur: "1975-01-01T00:00:03Z" (157766403) 0x19f-0x1a3 (4)
0x1a0|67 53 03                                       |gS.             |
0x1a0|         00 00 00 04                           |   ....         |        corr: 4 0x1a3-0x1a7 (4)
     |                                               |                |      [4]{}: leap_second_record 0x1a7-0x1af (8)
0x1a0|                     0b 48 86 84               |       .H..     |        occur: "1976-01-01T00:00:04Z" (189302404) 0x1a7-0x1ab (4)
0x1a0|                                 00 00 00 05   |           .... |        corr: 5 0x1ab-0x1af (4)
     |                                               |                |      [5]{}: leap_second_record 0x1af-0x1b7 (8)
0x1a0|                                             0d|               .|        occur: "1977-01-01T00:00:05Z" (220924805) 0x1af-0x1b3 (4)
0x1b0|2b 0b 85                                       |+..             |
0x1b0|         00 00 00 06                           |   ....         |        corr: 6 0x1b3-0x1b7 (4)
     |                                               |                |      [6]{}: leap_second_record 0x1b7-0x1bf (8)
0x1b0|                     0f 0c 3f 06               |       ..?.     |        occur: "1978-01-01T00:00:06Z" (252460806) 0x1b7-0x1bb (4)
0x1b0|                                 00 00 00 07   |           .... |        corr: 7 0x1bb-0x1bf (4)
     |                                               |                |      [7]{}: leap_second_record 0x1bf-0x1c7 (8)
0x1b0|                                             10|               .|        occur: "1979-01-01T00:00:07Z" (283996807) 0x1bf-0x1c3 (4)
0x1c0|ed 72 87                                       |.r.             |
0x1c0|         00 00 00 08                           |   ....         |        corr: 8 0x1c3-0x1c7 (4)
     |                                               |                |      [8]{}: leap_second_record 0x1c7-0x1cf (8)
0x1c0|                     12 ce a6 08               |       ....     |        occur: "1980-01-01T00:00:08Z" (315532808) 0x1c7-0x1cb (4)
0x1c0|                                 00 00 00 09   |           .... |        corr: 9 0x1cb-0x1cf (4)
     |                                               |                |      [9]{}: leap_second_record 0x1cf-0x1d7 (8)
0x1c0|                                             15|               .|        occur: "1981-07-01T00:00:09Z" (362793609) 0x1cf-0x1d3 (4)
0x1d0|9f ca 89                                       |...             |
0x1d0|         00 00 00 0a                           |   ....         |        corr: 10 0x1d3-0x1d7 (4)
     |                                               |                |      [10]{}: leap_second_record 0x1d7-0x1df (8)
0x1d0|                     17 80 fe 0a               |       ....     |        occur: "1982-07-01T00:00:10Z" (394329610) 0x1d7-0x1db (4)
0x1d0|                                 00 00 00 0b   |           .... |        corr: 11 0x1db-0x1df (4)
     |                                               |                |      [11]{}: leap_second_record 0x1df-0x1e7 (8)
0x1d0|                                             19|               .|        occur: "1983-07-01T00:00:11Z" (425865611) 0x1df-0x1e3 (4)
0x1e0|62 31 8b                                       |b1.             |
0x1e0|         00 00 00 0c                           |   ....         |        corr: 12 0x1e3-0x1e7 (4)
     |                                               |                |      [12]{}: leap_second_record 0x1e7-0x1ef (8)
0x1e0|                     1d 25 ea 0c               |       .%..     |        occur: "1985-07-01T00:00:12Z" (489024012) 0x1e7-0x1eb (4)
0x1e0|                                 00 00 00 0d   |           .... |        corr: 13 0x1eb-0x1ef (4)
     |                                               |                |      [13]{}: leap_second_record 0x1ef-0x1f7 (8)
0x1e0|                                             21|               !|        occur: "1988-01-01T00:00:13Z" (567993613) 0x1ef-0x1f3 (4)
0x1f0|da e5 0d                                       |...             |
0x1f0|         00 00 00 0e                           |   ....         |        corr: 14 0x1f3-0x1f7 (4)
     |                                               |                |      [14]{}: leap_second_record 0x1f7-0x1ff (8)
0x1f0|                     25 9e 9d 8e               |       %...     |        occur: "1990-01-01T00:00:14Z" (631152014) 0x1f7-0x1fb (4)
0x1f0|                                 00 00 00 0f   |           .... |        corr: 15 0x1fb-0x1ff (4)
     |                                               |                |      [15]{}: leap_second_record 0x1ff-0x207 (8)
0x1f0|                                             27|               '|        occur: "1991-01-01T00:00:15Z" (662688015) 0x1ff-0x203 (4)
0x200|7f d1 0f                                       |...             |
0x200|         00 00 00 10                           |   ....         |        corr: 16 0x203-0x207 (4)
     |                                               |                |      [16]{}: leap_second_record 0x207-0x20f (8)
0x200|                     2a 50 f5 90               |       *P..     |        occur: "1992-07-01T00:00:16Z" (709948816) 0x207-0x20b (4)
0x200|                                 00 00 00 11   |           .... |        corr: 17 0x20b-0x20f (4)
     |                                               |                |      [17]{}: leap_second_record 0x20f-0x217 (8)
0x200|                                             2c|               ,|        occur: "1993-07-01T00:00:17Z" (741484817) 0x20f-0x213 (4)
0x210|32 29 11                                       |2).             |
0x210|         00 00 00 12                           |   ....         |        corr: 18 0x213-0x217 (4)
     |                                               |                |      [18]{}: leap_second_record 0x217-0x21f (8)
0x210|                     2e 13 5c 92               |       ..\.     |        occur: "1994-07-01T00:00:18Z" (773020818) 0x217-0x21b (4)
0x210|                                 00 00 00 13   |           .... |        corr: 19 0x21b-0x21f (4)
     |                                               |                |      [19]{}: leap_second_record 0x21f-0x227 (8)
0x210|                                             30|               0|        occur: "1996-01-01T00:00:19Z" (820454419) 0x21f-0x223 (4)
0x220|e7 24 13                                       |.$.             |
0x220|         00 00 00 14                           |   ....         |        corr: 20 0x223-0x227 (4)
     |                                               |                |      [20]{}: leap_second_record 0x227-0x22f (8)
0x220|                     33 b8 48 94               |       3.H.     |        occur: "1997-07-01T00:00:20Z" (867715220) 0x227-0x22b (4)
0x220|                                 00 00 00 15   |           .... |        corr: 21 0x22b-0x22f (4)
     |                                               |                |      [21]{}: leap_second_record 0x22f-0x237 (8)
0x220|                                             36|               6|        occur: "1999-01-01T00:00:21Z" (915148821) 0x22f-0x233 (4)
0x230|8c 10 15                                       |...             |
0x230|         00 00 00 16                           |   ....         |        corr: 22 0x233-0x237 (4)
     |                                               |                |      [22]{}: leap_second_record 0x237-0x23f (8)
0x230|                     43 b7 1b 96               |       C...     |        occur: "2006-01-01T00:00:22Z" (1136073622) 0x237-0x23b (4)
0x230|                                 00 00 00 17   |           .... |        corr: 23 0x23b-0x23f (4)
     |                                               |                |      [23]{}: leap_second_record 0x23f-0x247 (8)
0x230|                                             49|               I|        occur: "2009-01-01T00:00:23Z" (1230768023) 0x23f-0x243 (4)
0x240|5c 07 97                                       |\..             |
0x240|         00 00 00 18                           |   ....         |        corr: 24 0x243-0x247 (4)
     |                                               |                |      [24]{}: leap_second_record 0x247-0x24f (8)
0x240|                     4f ef 93 18               |       O...     |        occur: "2012-07-01T00:00:24Z" (1341100824) 0x247-0x24b (4)
0x240|                                 00 00 00 19   |           .... |        corr: 25 0x24b-0x24f (4)
     |                                               |                |      [25]{}: leap_second_record 0x24f-0x257 (8)
0x240|                                             55|               U|        occur: "2015-07-01T00:00:25Z" (1435708825) 0x24f-0x253 (4)
0x250|93 2d 99                                       |.-.             |
0x250|         00 00 00 1a                           |   ....         |        corr: 26 0x253-0x257 (4)
     |                                               |                |      [26]{}: leap_second_record 0x257-0x25f (8)
0x250|                     58 68 46 9a               |       XhF.     |        occur: "2017-01-01T00:00:26Z" (1483228826) 0x257-0x25b (4)
0x250|                                 00 00 00 1b   |           .... |        corr: 27 0x25b-0x25f (4)
     |                                               |                |    standard_wall_indicators[0:11]: 0x25f-0x26a (11)
0x250|                                             00|               .|      [0]: 0 standard_wall_indicator (valid) 0x25f-0x260 (1)
0x260|00                                             |.               |      [1]: 0 standard_wall_indicator (valid) 0x260-0x261 (1)
0x260|   00                                          | .              |      [2]: 0 standard_wall_indicator (valid) 0x261-0x262 (1)
0x260|      00                                       |  .             |      [3]: 0 standard_wall_indicator (valid) 0x262-0x263 (1)
0x260|         00                                    |   .            |      [4]: 0 standard_wall_indicator (valid) 0x263-0x264 (1)
0x260|            01                                 |    .           |      [5]: 1 standard_wall_indicator (valid) 0x264-0x265 (1)
0x260|               01                              |     .          |      [6]: 1 standard_wall_indicator (valid) 0x265-0x266 (1)
0x260|                  01                           |      .         |      [7]: 1 standard_wall_indicator (valid) 0x266-0x267 (1)
0x260|                     01                        |       .        |      [8]: 1 standard_wall_indicator (valid) 0x267-0x268 (1)
0x260|                        01                     |        .       |      [9]: 1 standard_wall_indicator (valid) 0x268-0x269 (1)
0x260|                           00                  |         .      |      [10]: 0 standard_wall_indicator (valid) 0x269-0x26a (1)
     |                                               |                |    ut_local_indicators[0:0]: 0x26a-0x26a (0)
     |                                               |                |  v2plusheader{}: 0x26a-0x296 (44)
0x260|                              54 5a 69 66      |          TZif  |    magic: 0x545a6966 (valid) 0x26a-0x26e (4)
0x260|                                          32   |              2 |    ver: "2" (0x32) (valid) 0x26e-0x26f (1)
0x260|                                             00|               .|    reserved: raw bits 0x26f-0x27e (15)
0x270|00 00 00 00 00 00 00 00 00 00 00 00 00 00      |..............  |
0x270|                                          00 00|              ..|    isutcnt: 0 0x27e-0x282 (4)
0x280|00 00                                          |..              |
0x280|      00 00 00 0b                              |  ....          |    isstdcnt: 11 0x282-0x286 (4)
0x280|                  00 00 00 1b                  |      ....      |    leapcnt: 27 0x286-0x28a (4)
0x280|                              00 00 00 35      |          ...5  |    timecnt: 53 0x28a-0x28e (4)
0x280|                                          00 00|              ..|    typecnt: 11 0x28e-0x292 (4)
0x290|00 0b                                          |..              |
0x290|      00 00 00 10                              |  ....          |    charcnt: 16 0x292-0x296 (4)
     |                                               |                |  v2plusdatablock{}: 0x296-0x614 (894)
     |                                               |                |    transition_times[0:53]: 0x296-0x43e (424)
0x290|                  ff ff ff ff aa 19 86 a0      |      ........  |      [0]: "1924-05-01T19:38:08Z" (-1441167712) transition_time 0x296-0x29e (8)
0x290|                                          ff ff|              ..|      [1]: "1930-06-20T20:00:00Z" (-1247544000) transition_time 0x29e-0x2a6 (8)
0x2a0|ff ff b5 a3 fd 40                              |.....@          |
0x2a0|                  00 00 00 00 15 27 8b b9      |      .....'..  |      [2]: "1981-03-31T19:00:09Z" (354913209) transition_time 0x2a6-0x2ae (8)
0x2a0|                                          00 00|              ..|      [3]: "1981-09-30T18:00:10Z" (370720810) transition_time 0x2ae-0x2b6 (8)
0x2b0|00 00 16 18 c0 2a                              |.....*          |
0x2b0|                  00 00 00 00 17 08 b1 2a      |      .......*  |      [4]: "1982-03-31T18:00:10Z" (386445610) transition_time 0x2b6-0x2be (8)
0x2b0|                                          00 00|              ..|      [5]: "1982-09-30T18:00:11Z" (402256811) transition_time 0x2be-0x2c6 (8)
0x2c0|00 00 17 f9 f3 ab                              |......          |
0x2c0|                  00 00 00 00 18 e9 f2 bb      |      ........  |      [6]: "1983-03-31T19:00:11Z" (417985211) transition_time 0x2c6-0x2ce (8)
0x2c0|                                          00 00|              ..|      [7]: "1983-09-30T18:00:12Z" (433792812) transition_time 0x2ce-0x2d6 (8)
0x2d0|00 00 19 db 27 2c                              |....',          |
0x2d0|                  00 00 00 00 1a cc 77 bc      |      ......w.  |      [8]: "1984-03-31T19:00:12Z" (449607612) transition_time 0x2d6-0x2de (8)
0x2d0|                                          00 00|              ..|      [9]: "1984-09-29T21:00:12Z" (465339612) transition_time 0x2de-0x2e6 (8)
0x2e0|00 00 1b bc 84 dc                              |......          |
0x2e0|                  00 00 00 00 1c ac 75 dc      |      ......u.  |      [10]: "1985-03-30T21:00:12Z" (481064412) transition_time 0x2e6-0x2ee (8)
0x2e0|                                          00 00|              ..|      [11]: "1985-09-28T21:00:13Z" (496789213) transition_time 0x2ee-0x2f6 (8)
0x2f0|00 00 1d 9c 66 dd                              |....f.          |
0x2f0|                  00 00 00 00 1e 8c 57 dd      |      ......W.  |      [12]: "1986-03-29T21:00:13Z" (512514013) transition_time 0x2f6-0x2fe (8)
0x2f0|                                          00 00|              ..|      [13]: "1986-09-27T21:00:13Z" (528238813) transition_time 0x2fe-0x306 (8)
0x300|00 00 1f 7c 48 dd                              |...|H.          |
0x300|                  00 00 00 00 20 6c 39 dd      |      .... l9.  |      [14]: "1987-03-28T21:00:13Z" (543963613) transition_time 0x306-0x30e (8)
0x300|                                          00 00|              ..|      [15]: "1987-09-26T21:00:13Z" (559688413) transition_time 0x30e-0x316 (8)
0x310|00 00 21 5c 2a dd                              |..!\*.          |
0x310|                  00 00 00 00 22 4c 1b de      |      ...."L..  |      [16]: "1988-03-26T21:00:14Z" (575413214) transition_time 0x316-0x31e (8)
0x310|                                          00 00|              ..|      [17]: "1988-09-24T21:00:14Z" (591138014) transition_time 0x31e-0x326 (8)
0x320|00 00 23 3c 0c de                              |..#<..          |
0x320|                  00 00 00 00 24 2b fd de      |      ....$+..  |      [18]: "1989-03-25T21:00:14Z" (606862814) transition_time 0x326-0x32e (8)
0x320|                                          00 00|              ..|      [19]: "1989-09-23T21:00:14Z" (622587614) transition_time 0x32e-0x336 (8)
0x330|00 00 25 1b ee de                              |..%...          |
0x330|                  00 00 00 00 26 0b df df      |      ....&...  |      [20]: "1990-03-24T21:00:15Z" (638312415) transition_time 0x336-0x33e (8)
0x330|                                          00 00|              ..|      [21]: "1990-09-29T21:00:15Z" (654642015) transition_time 0x33e-0x346 (8)
0x340|00 00 27 05 0b 5f                              |..'.._          |
0x340|                  00 00 00 00 27 f4 fc 60      |      ....'..`  |      [22]: "1991-03-30T21:00:16Z" (670366816) transition_time 0x346-0x34e (8)
0x340|                                          00 00|              ..|      [23]: "1991-09-28T22:00:16Z" (686095216) transition_time 0x34e-0x356 (8)
0x350|00 00 28 e4 fb 70                              |..(..p          |
0x350|                  00 00 00 00 29 78 95 60      |      ....)x.`  |      [24]: "1992-01-18T21:00:16Z" (695768416) transition_time 0x356-0x35e (8)
0x350|                                          00 00|              ..|      [25]: "1992-03-28T20:00:16Z" (701812816) transition_time 0x35e-0x366 (8)
0x360|00 00 29 d4 d0 50                              |..)..P          |
0x360|                  00 00 00 00 2a c4 cf 61      |      ....*..a  |      [26]: "1992-09-26T21:00:17Z" (717541217) transition_time 0x366-0x36e (8)
0x360|                                          00 00|              ..|      [27]: "1993-03-27T21:00:17Z" (733266017) transition_time 0x36e-0x376 (8)
0x370|00 00 2b b4 c0 61                              |..+..a          |
0x370|                  00 00 00 00 2c a4 b1 62      |      ....,..b  |      [28]: "1993-09-25T21:00:18Z" (748990818) transition_time 0x376-0x37e (8)
0x370|                                          00 00|              ..|      [29]: "1994-03-26T21:00:18Z" (764715618) transition_time 0x37e-0x386 (8)
0x380|00 00 2d 94 a2 62                              |..-..b          |
0x380|                  00 00 00 00 2e 84 93 63      |      .......c  |      [30]: "1994-09-24T21:00:19Z" (780440419) transition_time 0x386-0x38e (8)
0x380|                                          00 00|              ..|      [31]: "1995-03-25T21:00:19Z" (796165219) transition_time 0x38e-0x396 (8)
0x390|00 00 2f 74 84 63                              |../t.c          |
0x390|                  00 00 00 00 30 64 75 63      |      ....0duc  |      [32]: "1995-09-23T21:00:19Z" (811890019) transition_time 0x396-0x39e (8)
0x390|                                          00 00|              ..|      [33]: "1996-03-30T21:00:20Z" (828219620) transition_time 0x39e-0x3a6 (8)
0x3a0|00 00 31 5d a0 e4                              |..1]..          |
0x3a0|                  00 00 00 00 32 72 7b e4      |      ....2r{.  |      [34]: "1996-10-26T21:00:20Z" (846363620) transition_time 0x3a6-0x3ae (8)
0x3a0|                                          00 00|              ..|      [35]: "1997-03-29T21:00:20Z" (859669220) transition_time 0x3ae-0x3b6 (8)
0x3b0|00 00 33 3d 82 e4                              |..3=..          |
0x3b0|                  00 00 00 00 34 52 5d e5      |      ....4R].  |      [36]: "1997-10-25T21:00:21Z" (877813221) transition_time 0x3b6-0x3be (8)
0x3b0|                                          00 00|              ..|      [37]: "1998-03-28T21:00:21Z" (891118821) transition_time 0x3be-0x3c6 (8)
0x3c0|00 00 35 1d 64 e5                              |..5.d.          |
0x3c0|                  00 00 00 00 36 32 3f e5      |      ....62?.  |      [38]: "1998-10-24T21:00:21Z" (909262821) transition_time 0x3c6-0x3ce (8)
0x3c0|                                          00 00|              ..|      [39]: "1999-03-27T21:00:22Z" (922568422) transition_time 0x3ce-0x3d6 (8)
0x3d0|00 00 36 fd 46 e6                              |..6.F.          |
0x3d0|                  00 00 00 00 38 1b 5c 66      |      ....8.\f  |      [40]: "1999-10-30T21:00:22Z" (941317222) transition_time 0x3d6-0x3de (8)
0x3d0|                                          00 00|              ..|      [41]: "2000-03-25T21:00:22Z" (954018022) transition_time 0x3de-0x3e6 (8)
0x3e0|00 00 38 dd 28 e6                              |..8.(.          |
0x3e0|                  00 00 00 00 39 fb 3e 66      |      ....9.>f  |      [42]: "2000-10-28T21:00:22Z" (972766822) transition_time 0x3e6-0x3ee (8)
0x3e0|                                          00 00|              ..|      [43]: "2001-03-24T21:00:22Z" (985467622) transition_time 0x3ee-0x3f6 (8)
0x3f0|00 00 3a bd 0a e6                              |..:...          |
0x3f0|                  00 00 00 00 3b db 20 66      |      ....;. f  |      [44]: "2001-10-27T21:00:22Z" (1004216422) transition_time 0x3f6-0x3fe (8)
0x3f0|                                          00 00|              ..|      [45]: "2002-03-30T21:00:22Z" (1017522022) transition_time 0x3fe-0x406 (8)
0x400|00 00 3c a6 27 66                              |..<.'f          |
0x400|                  00 00 00 00 3d bb 02 66      |      ....=..f  |      [46]: "2002-10-26T21:00:22Z" (1035666022) transition_time 0x406-0x40e (8)
0x400|                                          00 00|              ..|      [47]: "2003-03-29T21:00:22Z" (1048971622) transition_time 0x40e-0x416 (8)
0x410|00 00 3e 86 09 66                              |..>..f          |
0x410|                  00 00 00 00 3f 9a e4 66      |      ....?..f  |      [48]: "2003-10-25T21:00:22Z" (1067115622) transition_time 0x416-0x41e (8)
0x410|                                          00 00|              ..|      [49]: "2004-03-27T21:00:22Z" (1080421222) transition_time 0x41e-0x426 (8)
0x420|00 00 40 65 eb 66                              |..@e.f          |
0x420|                  00 00 00 00 41 84 00 e6      |      ....A...  |      [50]: "2004-10-30T21:00:22Z" (1099170022) transition_time 0x426-0x42e (8)
0x420|                                          00 00|              ..|      [51]: "2018-12-20T18:00:27Z" (1545328827) transition_time 0x42e-0x436 (8)
0x430|00 00 5c 1b d8 bb                              |..\...          |
0x430|                  00 00 00 00 64 9b 78 1b      |      ....d.x.  |      [52]: "2023-06-28T00:00:27Z" (1687910427) transition_time 0x436-0x43e (8)
     |                                               |                |    transition_types[0:53]: 0x43e-0x473 (53)
0x430|                                          01   |              . |      [0]: 1 transition_type 0x43e-0x43f (1)
0x430|                                             02|               .|      [1]: 2 transition_type 0x43f-0x440 (1)
0x440|03                                             |.               |      [2]: 3 transition_type 0x440-0x441 (1)
0x440|   04                                          | .              |      [3]: 4 transition_type 0x441-0x442 (1)
0x440|      03                                       |  .             |      [4]: 3 transition_type 0x442-0x443 (1)
0x440|         02                                    |   .            |      [5]: 2 transition_type 0x443-0x444 (1)
0x440|            03                                 |    .           |      [6]: 3 transition_type 0x444-0x445 (1)
0x440|               02                              |     .          |      [7]: 2 transition_type 0x445-0x446 (1)
0x440|                  03                           |      .         |      [8]: 3 transition_type 0x446-0x447 (1)
0x440|                     05                        |       .        |      [9]: 5 transition_type 0x447-0x448 (1)
0x440|                        06                     |        .       |      [10]: 6 transition_type 0x448-0x449 (1)
0x440|                           05                  |         .      |      [11]: 5 transition_type 0x449-0x44a (1)
0x440|                              06               |          .     |      [12]: 6 transition_type 0x44a-0x44b (1)
0x440|                                 05            |           .    |      [13]: 5 transition_type 0x44b-0x44c (1)
0x440|                                    06         |            .   |      [14]: 6 transition_type 0x44c-0x44d (1)
0x440|                                       05      |             .  |      [15]: 5 transition_type 0x44d-0x44e (1)
0x440|                                          06   |              . |      [16]: 6 transition_type 0x44e-0x44f (1)
0x440|                                             05|               .|      [17]: 5 transition_type 0x44f-0x450 (1)
0x450|06                                             |.               |      [18]: 6 transition_type 0x450-0x451 (1)
0x450|   05                                          | .              |      [19]: 5 transition_type 0x451-0x452 (1)
0x450|      06                                       |  .             |      [20]: 6 transition_type 0x452-0x453 (1)
0x450|         05                                    |   .            |      [21]: 5 transition_type 0x453-0x454 (1)
0x450|            07                                 |    .           |      [22]: 7 transition_type 0x454-0x455 (1)
0x450|               05                              |     .          |      [23]: 5 transition_type 0x455-0x456 (1)
0x450|                  08                           |      .         |      [24]: 8 transition_type 0x456-0x457 (1)
0x450|                     06                        |       .        |      [25]: 6 transition_type 0x457-0x458 (1)
0x450|                        05                     |        .       |      [26]: 5 transition_type 0x458-0x459 (1)
0x450|                           06                  |         .      |      [27]: 6 transition_type 0x459-0x45a (1)
0x450|                              05               |          .     |      [28]: 5 transition_type 0x45a-0x45b (1)
0x450|                                 06            |           .    |      [29]: 6 transition_type 0x45b-0x45c (1)
0x450|                                    05         |            .   |      [30]: 5 transition_type 0x45c-0x45d (1)
0x450|                                       06      |             .  |      [31]: 6 transition_type 0x45d-0x45e (1)
0x450|                                          05   |              . |      [32]: 5 transition_type 0x45e-0x45f (1)
0x450|                                             06|               .|      [33]: 6 transition_type 0x45f-0x460 (1)
0x460|05                                             |.               |      [34]: 5 transition_type 0x460-0x461 (1)
0x460|   06                                          | .              |      [35]: 6 transition_type 0x461-0x462 (1)
0x460|      05                                       |  .             |      [36]: 5 transition_type 0x462-0x463 (1)
0x460|         06                                    |   .            |      [37]: 6 transition_type 0x463-0x464 (1)
0x460|            05                                 |    .           |      [38]: 5 transition_type 0x464-0x465 (1)
0x460|               06                              |     .          |      [39]: 6 transition_type 0x465-0x466 (1)
0x460|                  05                           |      .         |      [40]: 5 transition_type 0x466-0x467 (1)
0x460|                     06                        |       .        |      [41]: 6 transition_type 0x467-0x468 (1)
0x460|                        05                     |        .       |      [42]: 5 transition_type 0x468-0x469 (1)
0x460|                           06                  |         .      |      [43]: 6 transition_type 0x469-0x46a (1)
0x460|                              05               |          .     |      [44]: 5 transition_type 0x46a-0x46b (1)
0x460|                                 06            |           .    |      [45]: 6 transition_type 0x46b-0x46c (1)
0x460|                                    05         |            .   |      [46]: 5 transition_type 0x46c-0x46d (1)
0x460|                                       06      |             .  |      [47]: 6 transition_type 0x46d-0x46e (1)
0x460|                                          05   |              . |      [48]: 5 transition_type 0x46e-0x46f (1)
0x460|                                             06|               .|      [49]: 6 transition_type 0x46f-0x470 (1)
0x470|08                                             |.               |      [50]: 8 transition_type 0x470-0x471 (1)
0x470|   02                                          | .              |      [51]: 2 transition_type 0x471-0x472 (1)
0x470|      02                                       |  .             |      [52]: 2 transition_type 0x472-0x473 (1)
     |                                               |                |    local_time_type_records[0:11]: 0x473-0x4b5 (66)
     |                                               |                |      [0]{}: local_time_type 0x473-0x479 (6)
0x470|         00 00 3d 60                           |   ..=`         |        utoff: 15712 (valid) 0x473-0x477 (4)
0x470|                     00                        |       .        |        dst: 0 (valid) 0x477-0x478 (1)
0x470|                        00                     |        .       |        idx: 0 (valid) 0x478-0x479 (1)
     |                                               |                |      [1]{}: local_time_type 0x479-0x47f (6)
0x470|                           00 00 38 40         |         ..8@   |        utoff: 14400 (valid) 0x479-0x47d (4)
0x470|                                       00      |             .  |        dst: 0 (valid) 0x47d-0x47e (1)
0x470|                                          04   |              . |        idx: 4 (valid) 0x47e-0x47f (1)
     |                                               |                |      [2]{}: local_time_type 0x47f-0x485 (6)
0x470|                                             00|               .|        utoff: 18000 (valid) 0x47f-0x483 (4)
0x480|00 46 50                                       |.FP             |
0x480|         00                                    |   .            |        dst: 0 (valid) 0x483-0x484 (1)
0x480|            08                                 |    .           |        idx: 8 (valid) 0x484-0x485 (1)
     |                                               |                |      [3]{}: local_time_type 0x485-0x48b (6)
0x480|               00 00 54 60                     |     ..T`       |        utoff: 21600 (valid) 0x485-0x489 (4)
0x480|                           01                  |         .      |        dst: 1 (valid) 0x489-0x48a (1)
0x480|                              0c               |          .     |        idx: 12 (valid) 0x48a-0x48b (1)
     |                                               |                |      [4]{}: local_time_type 0x48b-0x491 (6)
0x480|                                 00 00 54 60   |           ..T` |        utoff: 21600 (valid) 0x48b-0x48f (4)
0x480|                                             00|               .|        dst: 0 (valid) 0x48f-0x490 (1)
0x490|0c                                             |.               |        idx: 12 (valid) 0x490-0x491 (1)
     |                                               |                |      [5]{}: local_time_type 0x491-0x497 (6)
0x490|   00 00 46 50                                 | ..FP           |        utoff: 18000 (valid) 0x491-0x495 (4)
0x490|               00                              |     .          |        dst: 0 (valid) 0x495-0x496 (1)
0x490|                  08                           |      .         |        idx: 8 (valid) 0x496-0x497 (1)
     |                                               |                |      [6]{}: local_time_type 0x497-0x49d (6)
0x490|                     00 00 54 60               |       ..T`     |        utoff: 21600 (valid) 0x497-0x49b (4)
0x490|                                 01            |           .    |        dst: 1 (valid) 0x49b-0x49c (1)
0x490|                                    0c         |            .   |        idx: 12 (valid) 0x49c-0x49d (1)
     |                                               |                |      [7]{}: local_time_type 0x49d-0x4a3 (6)
0x490|                                       00 00 46|             ..F|        utoff: 18000 (valid) 0x49d-0x4a1 (4)
0x4a0|50                                             |P               |
0x4a0|   01                                          | .              |        dst: 1 (valid) 0x4a1-0x4a2 (1)
0x4a0|      08                                       |  .             |        idx: 8 (valid) 0x4a2-0x4a3 (1)
     |                                               |                |      [8]{}: local_time_type 0x4a3-0x4a9 (6)
0x4a0|         00 00 54 60                           |   ..T`         |        utoff: 21600 (valid) 0x4a3-0x4a7 (4)
0x4a0|                     00                        |       .        |        dst: 0 (valid) 0x4a7-0x4a8 (1)
0x4a0|                        0c                     |        .       |        idx: 12 (valid) 0x4a8-0x4a9 (1)
     |                                               |                |      [9]{}: local_time_type 0x4a9-0x4af (6)
0x4a0|                           00 00 54 60         |         ..T`   |        utoff: 21600 (valid) 0x4a9-0x4ad (4)
0x4a0|                                       01      |             .  |        dst: 1 (valid) 0x4ad-0x4ae (1)
0x4a0|                                          0c   |              . |        idx: 12 (valid) 0x4ae-0x4af (1)
     |                                               |                |      [10]{}: local_time_type 0x4af-0x4b5 (6)
0x4a0|                                             00|               .|        utoff: 18000 (valid) 0x4af-0x4b3 (4)
0x4b0|00 46 50                                       |.FP             |
0x4b0|         00                                    |   .            |        dst: 0 (valid) 0x4b3-0x4b4 (1)
0x4b0|            08                                 |    .           |        idx: 8 (valid) 0x4b4-0x4b5 (1)
     |                                               |                |    time_zone_designations[0:4]: 0x4b5-0x4c5 (16)
0x4b0|               4c 4d 54 00                     |     LMT.       |      [0]: "LMT" time_zone_designation 0x4b5-0x4b9 (4)
0x4b0|                           2b 30 34 00         |         +04.   |      [1]: "+04" time_zone_designation 0x4b9-0x4bd (4)
0x4b0|                                       2b 30 35|             +05|      [2]: "+05" time_zone_designation 0x4bd-0x4c1 (4)
0x4c0|00                                             |.               |
0x4c0|   2b 30 36 00                                 | +06.           |      [3]: "+06" time_zone_designation 0x4c1-0x4c5 (4)
     |                                               |                |    leap_second_records[0:27]: 0x4c5-0x609 (324)
     |                                               |                |      [0]{}: leap_second_record 0x4c5-0x4d1 (12)
0x4c0|               00 00 00 00 04 b2 58 00         |     ......X.   |        occur: "1972-07-01T00:00:00Z" (78796800) 0x4c5-0x4cd (8)
0x4c0|                                       00 00 00|             ...|        corr: 1 0x4cd-0x4d1 (4)
0x4d0|01                                             |.               |
     |                                               |                |      [1]{}: leap_second_record 0x4d1-0x4dd (12)
0x4d0|   00 00 00 00 05 a4 ec 01                     | ........       |        occur: "1973-01-01T00:00:01Z" (94694401) 0x4d1-0x4d9 (8)
0x4d0|                           00 00 00 02         |         ....   |        corr: 2 0x4d9-0x4dd (4)
     |                                               |                |      [2]{}: leap_second_record 0x4dd-0x4e9 (12)
0x4d0|                                       00 00 00|             ...|        occur: "1974-01-01T00:00:02Z" (126230402) 0x4dd-0x4e5 (8)
0x4e0|00 07 86 1f 82                                 |.....           |
0x4e0|               00 00 00 03                     |     ....       |        corr: 3 0x4e5-0x4e9 (4)
     |                                               |                |      [3]{}: leap_second_record 0x4e9-0x4f5 (12)
0x4e0|                           00 00 00 00 09 67 53|         .....gS|        occur: "1975-01-01T00:00:03Z" (157766403) 0x4e9-0x4f1 (8)
0x4f0|03                                             |.               |
0x4f0|   00 00 00 04                                 | ....           |        corr: 4 0x4f1-0x4f5 (4)
     |                                               |                |      [4]{}: leap_second_record 0x4f5-0x501 (12)
0x4f0|               00 00 00 00 0b 48 86 84         |     .....H..   |        occur: "1976-01-01T00:00:04Z" (189302404) 0x4f5-0x4fd (8)
0x4f0|                                       00 00 00|             ...|        corr: 5 0x4fd-0x501 (4)
0x500|05                                             |.               |
     |                                               |                |      [5]{}: leap_second_record 0x501-0x50d (12)
0x500|   00 00 00 00 0d 2b 0b 85                     | .....+..       |        occur: "1977-01-01T00:00:05Z" (220924805) 0x501-0x509 (8)
0x500|                           00 00 00 06         |         ....   |        corr: 6 0x509-0x50d (4)
     |                                               |                |      [6]{}: leap_second_record 0x50d-0x519 (12)
0x500|                                       00 00 00|             ...|        occur: "1978-01-01T00:00:06Z" (252460806) 0x50d-0x515 (8)
0x510|00 0f 0c 3f 06                                 |...?.           |
0x510|               00 00 00 07                     |     ....       |        corr: 7 0x515-0x519 (4)
     |                                               |                |      [7]{}: leap_second_record 0x519-0x525 (12)
0x510|                           00 00 00 00 10 ed 72|         ......r|        occur: "1979-01-01T00:00:07Z" (283996807) 0x519-0x521 (8)
0x520|87                                             |.               |
0x520|   00 00 00 08                                 | ....           |        corr: 8 0x521-0x525 (4)
     |                                               |                |      [8]{}: leap_second_record 0x525-0x531 (12)
0x520|               00 00 00 00 12 ce a6 08         |     ........   |        occur: "1980-01-01T00:00:08Z" (315532808) 0x525-0x52d (8)
0x520|                                       00 00 00|             ...|        corr: 9 0x52d-0x531 (4)
0x530|09                                             |.               |
     |                                               |                |      [9]{}: leap_second_record 0x531-0x53d (12)
0x530|   00 00 00 00 15 9f ca 89                     | ........       |        occur: "1981-07-01T00:00:09Z" (362793609) 0x531-0x539 (8)
0x530|                           00 00 00 0a         |         ....   |        corr: 10 0x539-0x53d (4)
     |                                               |                |      [10]{}: leap_second_record 0x53d-0x549 (12)
0x530|                                       00 00 00|             ...|        occur: "1982-07-01T00:00:10Z" (394329610) 0x53d-0x545 (8)
0x540|00 17 80 fe 0a                                 |.....           |
0x540|               00 00 00 0b                     |     ....       |        corr: 11 0x545-0x549 (4)
     |                                               |                |      [11]{}: leap_second_record 0x549-0x555 (12)
0x540|                           00 00 00 00 19 62 31|         .....b1|        occur: "1983-07-01T00:00:11Z" (425865611) 0x549-0x551 (8)
0x550|8b                                             |.               |
0x550|   00 00 00 0c                                 | ....           |        corr: 12 0x551-0x555 (4)
     |                                               |                |      [12]{}: leap_second_record 0x555-0x561 (12)
0x550|               00 00 00 00 1d 25 ea 0c         |     .....%..   |        occur: "1985-07-01T00:00:12Z" (489024012) 0x555-0x55d (8)
0x550|                                       00 00 00|             ...|        corr: 13 0x55d-0x561 (4)
0x560|0d                                             |.               |
     |                                               |                |      [13]{}: leap_second_record 0x561-0x56d (12)
0x560|   00 00 00 00 21 da e5 0d                     | ....!...       |        occur: "1988-01-01T00:00:13Z" (567993613) 0x561-0x569 (8)
0x560|                           00 00 00 0e         |         ....   |        corr: 14 0x569-0x56d (4)
     |                                               |                |      [14]{}: leap_second_record 0x56d-0x579 (12)
0x560|                                       00 00 00|             ...|        occur: "1990-01-01T00:00:14Z" (631152014) 0x56d-0x575 (8)
0x570|00 25 9e 9d 8e                                 |.%...           |
0x570|               00 00 00 0f                     |     ....       |        corr: 15 0x575-0x579 (4)
     |                                               |                |      [15]{}: leap_second_record 0x579-0x585 (12)
0x570|                           00 00 00 00 27 7f d1|         ....'..|        occur: "1991-01-01T00:00:15Z" (662688015) 0x579-0x581 (8)
0x580|0f                                             |.               |
0x580|   00 00 00 10                                 | ....           |        corr: 16 0x581-0x585 (4)
     |                                               |                |      [16]{}: leap_second_record 0x585-0x591 (12)
0x580|               00 00 00 00 2a 50 f5 90         |     ....*P..   |        occur: "1992-07-01T00:00:16Z" (709948816) 0x585-0x58d (8)
0x580|                                       00 00 00|             ...|        corr: 17 0x58d-0x591 (4)
0x590|11                                             |.               |
     |                                               |                |      [17]{}: leap_second_record 0x591-0x59d (12)
0x590|   00 00 00 00 2c 32 29 11                     | ....,2).       |        occur: "1993-07-01T00:00:17Z" (741484817) 0x591-0x599 (8)
0x590|                           00 00 00 12         |         ....   |        corr: 18 0x599-0x59d (4)
     |                                               |                |      [18]{}: leap_second_record 0x59d-0x5a9 (12)
0x590|                                       00 00 00|             ...|        occur: "1994-07-01T00:00:18Z" (773020818) 0x59d-0x5a5 (8)
0x5a0|00 2e 13 5c 92                                 |...\.           |
0x5a0|               00 00 00 13                     |     ....       |        corr: 19 0x5a5-0x5a9 (4)
     |                                               |                |      [19]{}: leap_second_record 0x5a9-0x5b5 (12)
0x5a0|                           00 00 00 00 30 e7 24|         ....0.$|        occur: "1996-01-01T00:00:19Z" (820454419) 0x5a9-0x5b1 (8)
0x5b0|13                                             |.               |
0x5b0|   00 00 00 14                                 | ....           |        corr: 20 0x5b1-0x5b5 (4)
     |                                               |                |      [20]{}: leap_second_record 0x5b5-0x5c1 (12)
0x5b0|               00 00 00 00 33 b8 48 94         |     ....3.H.   |        occur: "1997-07-01T00:00:20Z" (867715220) 0x5b5-0x5bd (8)
0x5b0|                                       00 00 00|             ...|        corr: 21 0x5bd-0x5c1 (4)
0x5c0|15                                             |.               |
     |                                               |                |      [21]{}: leap_second_record 0x5c1-0x5cd (12)
0x5c0|   00 00 00 00 36 8c 10 15                     | ....6...       |        occur: "1999-01-01T00:00:21Z" (915148821) 0x5c1-0x5c9 (8)
0x5c0|                           00 00 00 16         |         ....   |        corr: 22 0x5c9-0x5cd (4)
     |                                               |                |      [22]{}: leap_second_record 0x5cd-0x5d9 (12)
0x5c0|                                       00 00 00|             ...|        occur: "2006-01-01T00:00:22Z" (1136073622) 0x5cd-0x5d5 (8)
0x5d0|00 43 b7 1b 96                                 |.C...           |
0x5d0|               00 00 00 17                     |     ....       |        corr: 23 0x5d5-0x5d9 (4)
     |                                               |                |      [23]{}: leap_second_record 0x5d9-0x5e5 (12)
0x5d0|                           00 00 00 00 49 5c 07|         ....I\.|        occur: "2009-01-01T00:00:23Z" (1230768023) 0x5d9-0x5e1 (8)
0x5e0|97                                             |.               |
0x5e0|   00 00 00 18                                 | ....           |        corr: 24 0x5e1-0x5e5 (4)
     |                                               |                |      [24]{}: leap_second_record 0x5e5-0x5f1 (12)
0x5e0|               00 00 00 00 4f ef 93 18         |     ....O...   |        occur: "2012-07-01T00:00:24Z" (1341100824) 0x5e5-0x5ed (8)
0x5e0|                                       00 00 00|             ...|        corr: 25 0x5ed-0x5f1 (4)
0x5f0|19                                             |.               |
     |                                               |                |      [25]{}: leap_second_record 0x5f1-0x5fd (12)
0x5f0|   00 00 00 00 55 93 2d 99                     | ....U.-.       |        occur: "2015-07-01T00:00:25Z" (1435708825) 0x5f1-0x5f9 (8)
0x5f0|                           00 00 00 1a         |         ....   |        corr: 26 0x5f9-0x5fd (4)
     |                                               |                |      [26]{}: leap_second_record 0x5fd-0x609 (12)
0x5f0|                                       00 00 00|             ...|        occur: "2017-01-01T00:00:26Z" (1483228826) 0x5fd-0x605 (8)
0x600|00 58 68 46 9a                                 |.XhF.           |
0x600|               00 00 00 1b                     |     ....       |        corr: 27 0x605-0x609 (4)
     |                                               |                |    standard_wall_indicators[0:11]: 0x609-0x614 (11)
0x600|                           00                  |         .      |      [0]: 0 standard_wall_indicator (valid) 0x609-0x60a (1)
0x600|                              00               |          .     |      [1]: 0 standard_wall_indicator (valid) 0x60a-0x60b (1)
0x600|                                 00            |           .    |      [2]: 0 standard_wall_indicator (valid) 0x60b-0x60c (1)
0x600|                                    00         |            .   |      [3]: 0 standard_wall_indicator (valid) 0x60c-0x60d (1)
0x600|                                       00      |             .  |      [4]: 0 standard_wall_indicator (valid) 0x60d-0x60e (1)
0x600|                                          01   |              . |      [5]: 1 standard_wall_indicator (valid) 0x60e-0x60f (1)
0x600|                                             01|               .|      [6]: 1 standard_wall_indicator (valid) 0x60f-0x610 (1)
0x610|01                                             |.               |      [7]: 1 standard_wall_indicator (valid) 0x610-0x611 (1)
0x610|   01                                          | .              |      [8]: 1 standard_wall_indicator (valid) 0x611-0x612 (1)
0x610|      01                                       |  .             |      [9]: 1 standard_wall_indicator (valid) 0x612-0x613 (1)
0x610|         00                                    |   .            |      [10]: 0 standard_wall_indicator (valid) 0x613-0x614 (1)
     |                                               |                |    ut_local_indicators[0:0]: 0x614-0x614 (0)
     |                                               |                |  footer{}: 0x614-0x616 (2)
0x610|            0a                                 |    .           |    nl1: 10 (valid) 0x614-0x615 (1)
     |                                               |                |    tz_string: "" 0x615-0x615 (0)
0x610|               0a|                             |     .|         |    nl2: 10 (valid) 0x615-0x616 (1)
