$ fq -d tzif dv Regina
     |00 01 02 03 04 05 06 07 08 09 0a 0b 0c 0d 0e 0f|0123456789abcdef|.{}: Regina (tzif) 0x0-0x5fa (1530)
     |                                               |                |  v1header{}: 0x0-0x2c (44)
0x000|54 5a 69 66                                    |TZif            |    magic: 0x545a6966 (valid) 0x0-0x4 (4)
0x000|            32                                 |    2           |    ver: "2" (0x32) (valid) 0x4-0x5 (1)
0x000|               00 00 00 00 00 00 00 00 00 00 00|     ...........|    reserved: raw bits 0x5-0x14 (15)
0x010|00 00 00 00                                    |....            |
0x010|            00 00 00 06                        |    ....        |    isutcnt: 6 0x14-0x18 (4)
0x010|                        00 00 00 06            |        ....    |    isstdcnt: 6 0x18-0x1c (4)
0x010|                                    00 00 00 1b|            ....|    leapcnt: 27 0x1c-0x20 (4)
0x020|00 00 00 36                                    |...6            |    timecnt: 54 0x20-0x24 (4)
0x020|            00 00 00 06                        |    ....        |    typecnt: 6 0x24-0x28 (4)
0x020|                        00 00 00 18            |        ....    |    charcnt: 24 0x28-0x2c (4)
     |                                               |                |  v1datablock{}: 0x2c-0x25a (558)
     |                                               |                |    transition_times[0:54]: 0x2c-0x104 (216)
0x020|                                    86 fd 93 1c|            ....|      [0]: "1905-09-01T06:58:36Z" (-2030202084) transition_time 0x2c-0x30 (4)
0x030|9e b8 af 90                                    |....            |      [1]: "1918-04-14T09:00:00Z" (-1632063600) transition_time 0x30-0x34 (4)
0x030|            9f bb 07 80                        |    ....        |      [2]: "1918-10-27T08:00:00Z" (-1615132800) transition_time 0x34-0x38 (4)
0x030|                        b5 65 4f f0            |        .eO.    |      [3]: "1930-05-04T07:00:00Z" (-1251651600) transition_time 0x38-0x3c (4)
0x030|                                    b6 30 48 e0|            .0H.|      [4]: "1930-10-05T06:00:00Z" (-1238349600) transition_time 0x3c-0x40 (4)
0x040|b7 45 31 f0                                    |.E1.            |      [5]: "1931-05-03T07:00:00Z" (-1220202000) transition_time 0x40-0x44 (4)
0x040|            b8 10 2a e0                        |    ..*.        |      [6]: "1931-10-04T06:00:00Z" (-1206900000) transition_time 0x44-0x48 (4)
0x040|                        b9 25 13 f0            |        .%..    |      [7]: "1932-05-01T07:00:00Z" (-1188752400) transition_time 0x48-0x4c (4)
0x040|                                    b9 f0 0c e0|            ....|      [8]: "1932-10-02T06:00:00Z" (-1175450400) transition_time 0x4c-0x50 (4)
0x050|bb 0e 30 70                                    |..0p            |      [9]: "1933-05-07T07:00:00Z" (-1156698000) transition_time 0x50-0x54 (4)
0x050|            bb cf ee e0                        |    ....        |      [10]: "1933-10-01T06:00:00Z" (-1144000800) transition_time 0x54-0x58 (4)
0x050|                        bc ee 12 70            |        ...p    |      [11]: "1934-05-06T07:00:00Z" (-1125248400) transition_time 0x58-0x5c (4)
0x050|                                    bd b9 0b 60|            ...`|      [12]: "1934-10-07T06:00:00Z" (-1111946400) transition_time 0x5c-0x60 (4)
0x060|c2 72 08 f0                                    |.r..            |      [13]: "1937-04-11T07:00:00Z" (-1032714000) transition_time 0x60-0x64 (4)
0x060|            c3 61 eb e0                        |    .a..        |      [14]: "1937-10-10T06:00:00Z" (-1016992800) transition_time 0x64-0x68 (4)
0x060|                        c4 51 ea f0            |        .Q..    |      [15]: "1938-04-10T07:00:00Z" (-1001264400) transition_time 0x68-0x6c (4)
0x060|                                    c5 38 93 60|            .8.`|      [16]: "1938-10-02T06:00:00Z" (-986148000) transition_time 0x6c-0x70 (4)
0x070|c6 31 cc f0                                    |.1..            |      [17]: "1939-04-09T07:00:00Z" (-969814800) transition_time 0x70-0x74 (4)
0x070|            c7 21 af e0                        |    .!..        |      [18]: "1939-10-08T06:00:00Z" (-954093600) transition_time 0x74-0x78 (4)
0x070|                        c8 1a e9 70            |        ...p    |      [19]: "1940-04-14T07:00:00Z" (-937760400) transition_time 0x78-0x7c (4)
0x070|                                    c9 0a cc 60|            ...`|      [20]: "1940-10-13T06:00:00Z" (-922039200) transition_time 0x7c-0x80 (4)
0x080|c9 fa cb 70                                    |...p            |      [21]: "1941-04-13T07:00:00Z" (-906310800) transition_time 0x80-0x84 (4)
0x080|            ca ea ae 60                        |    ...`        |      [22]: "1941-10-12T06:00:00Z" (-890589600) transition_time 0x84-0x88 (4)
0x080|                        cb 89 0c 90            |        ....    |      [23]: "1942-02-09T09:00:00Z" (-880210800) transition_time 0x88-0x8c (4)
0x080|                                    d2 23 f4 70|            .#.p|      [24]: "1945-08-14T23:00:00Z" (-769395600) transition_time 0x8c-0x90 (4)
0x090|d2 61 18 00                                    |.a..            |      [25]: "1945-09-30T08:00:00Z" (-765388800) transition_time 0x90-0x94 (4)
0x090|            d3 63 8c 10                        |    .c..        |      [26]: "1946-04-14T09:00:00Z" (-748450800) transition_time 0x94-0x98 (4)
0x090|                        d4 53 6f 00            |        .So.    |      [27]: "1946-10-13T08:00:00Z" (-732729600) transition_time 0x98-0x9c (4)
0x090|                                    d5 55 e3 10|            .U..|      [28]: "1947-04-27T09:00:00Z" (-715791600) transition_time 0x9c-0xa0 (4)
0x0a0|d6 20 dc 00                                    |. ..            |      [29]: "1947-09-28T08:00:00Z" (-702489600) transition_time 0xa0-0xa4 (4)
0x0a0|            d7 35 c5 10                        |    .5..        |      [30]: "1948-04-25T09:00:00Z" (-684342000) transition_time 0xa4-0xa8 (4)
0x0a0|                        d8 00 be 00            |        ....    |      [31]: "1948-09-26T08:00:00Z" (-671040000) transition_time 0xa8-0xac (4)
0x0a0|                                    d9 15 a7 10|            ....|      [32]: "1949-04-24T09:00:00Z" (-652892400) transition_time 0xac-0xb0 (4)
0x0b0|d9 e0 a0 00                                    |....            |      [33]: "1949-09-25T08:00:00Z" (-639590400) transition_time 0xb0-0xb4 (4)
0x0b0|            da fe c3 90                        |    ....        |      [34]: "1950-04-30T09:00:00Z" (-620838000) transition_time 0xb4-0xb8 (4)
0x0b0|                        db c0 82 00            |        ....    |      [35]: "1950-09-24T08:00:00Z" (-608140800) transition_time 0xb8-0xbc (4)
0x0b0|                                    dc de a5 90|            ....|      [36]: "1951-04-29T09:00:00Z" (-589388400) transition_time 0xbc-0xc0 (4)
0x0c0|dd a9 9e 80                                    |....            |      [37]: "1951-09-30T08:00:00Z" (-576086400) transition_time 0xc0-0xc4 (4)
0x0c0|            de be 87 90                        |    ....        |      [38]: "1952-04-27T09:00:00Z" (-557938800) transition_time 0xc4-0xc8 (4)
0x0c0|                        df 89 80 80            |        ....    |      [39]: "1952-09-28T08:00:00Z" (-544636800) transition_time 0xc8-0xcc (4)
0x0c0|                                    e0 9e 69 90|            ..i.|      [40]: "1953-04-26T09:00:00Z" (-526489200) transition_time 0xcc-0xd0 (4)
0x0d0|e1 69 62 80                                    |.ib.            |      [41]: "1953-09-27T08:00:00Z" (-513187200) transition_time 0xd0-0xd4 (4)
0x0d0|            e2 7e 4b 90                        |    .~K.        |      [42]: "1954-04-25T09:00:00Z" (-495039600) transition_time 0xd4-0xd8 (4)
0x0d0|                        e3 49 44 80            |        .ID.    |      [43]: "1954-09-26T08:00:00Z" (-481737600) transition_time 0xd8-0xdc (4)
0x0d0|                                    e4 5e 2d 90|            .^-.|      [44]: "1955-04-24T09:00:00Z" (-463590000) transition_time 0xdc-0xe0 (4)
0x0e0|e5 29 26 80                                    |.)&.            |      [45]: "1955-09-25T08:00:00Z" (-450288000) transition_time 0xe0-0xe4 (4)
0x0e0|            e6 47 4a 10                        |    .GJ.        |      [46]: "1956-04-29T09:00:00Z" (-431535600) transition_time 0xe4-0xe8 (4)
0x0e0|                        e7 12 43 00            |        ..C.    |      [47]: "1956-09-30T08:00:00Z" (-418233600) transition_time 0xe8-0xec (4)
0x0e0|                                    e8 27 2c 10|            .',.|      [48]: "1957-04-28T09:00:00Z" (-400086000) transition_time 0xec-0xf0 (4)
0x0f0|e8 f2 25 00                                    |..%.            |      [49]: "1957-09-29T08:00:00Z" (-386784000) transition_time 0xf0-0xf4 (4)
0x0f0|            eb e6 f0 10                        |    ....        |      [50]: "1959-04-26T09:00:00Z" (-337186800) transition_time 0xf4-0xf8 (4)
0x0f0|                        ec d6 d3 00            |        ....    |      [51]: "1959-10-25T08:00:00Z" (-321465600) transition_time 0xf8-0xfc (4)
0x0f0|                                    ed c6 d2 10|            ....|      [52]: "1960-04-24T09:00:00Z" (-305737200) transition_time 0xfc-0x100 (4)
0x100|64 9b 78 1b                                    |d.x.            |      [53]: "2023-06-28T00:00:27Z" (1687910427) transition_time 0x100-0x104 (4)
     |                                               |                |    transition_types[0:54]: 0x104-0x13a (54)
0x100|            02                                 |    .           |      [0]: 2 transition_type 0x104-0x105 (1)
0x100|               01                              |     .          |      [1]: 1 transition_type 0x105-0x106 (1)
0x100|                  02                           |      .         |      [2]: 2 transition_type 0x106-0x107 (1)
0x100|                     01                        |       .        |      [3]: 1 transition_type 0x107-0x108 (1)
0x100|                        02                     |        .       |      [4]: 2 transition_type 0x108-0x109 (1)
0x100|                           01                  |         .      |      [5]: 1 transition_type 0x109-0x10a (1)
0x100|                              02               |          .     |      [6]: 2 transition_type 0x10a-0x10b (1)
0x100|                                 01            |           .    |      [7]: 1 transition_type 0x10b-0x10c (1)
0x100|                                    02         |            .   |      [8]: 2 transition_type 0x10c-0x10d (1)
0x100|                                       01      |             .  |      [9]: 1 transition_type 0x10d-0x10e (1)
0x100|                                          02   |              . |      [10]: 2 transition_type 0x10e-0x10f (1)
0x100|                                             01|               .|      [11]: 1 transition_type 0x10f-0x110 (1)
0x110|02                                             |.               |      [12]: 2 transition_type 0x110-0x111 (1)
0x110|   01                                          | .              |      [13]: 1 transition_type 0x111-0x112 (1)
0x110|      02                                       |  .             |      [14]: 2 transition_type 0x112-0x113 (1)
0x110|         01                                    |   .            |      [15]: 1 transition_type 0x113-0x114 (1)
0x110|            02                                 |    .           |      [16]: 2 transition_type 0x114-0x115 (1)
0x110|               01                              |     .          |      [17]: 1 transition_type 0x115-0x116 (1)
0x110|                  02                           |      .         |      [18]: 2 transition_type 0x116-0x117 (1)
0x110|                     01                        |       .        |      [19]: 1 transition_type 0x117-0x118 (1)
0x110|                        02                     |        .       |      [20]: 2 transition_type 0x118-0x119 (1)
0x110|                           01                  |         .      |      [21]: 1 transition_type 0x119-0x11a (1)
0x110|                              02               |          .     |      [22]: 2 transition_type 0x11a-0x11b (1)
0x110|                                 03            |           .    |      [23]: 3 transition_type 0x11b-0x11c (1)
0x110|                                    04         |            .   |      [24]: 4 transition_type 0x11c-0x11d (1)
0x110|                                       02      |             .  |      [25]: 2 transition_type 0x11d-0x11e (1)
0x110|                                          01   |              . |      [26]: 1 transition_type 0x11e-0x11f (1)
0x110|                                             02|               .|      [27]: 2 transition_type 0x11f-0x120 (1)
0x120|01                                             |.               |      [28]: 1 transition_type 0x120-0x121 (1)
0x120|   02                                          | .              |      [29]: 2 transition_type 0x121-0x122 (1)
0x120|      01                                       |  .             |      [30]: 1 transition_type 0x122-0x123 (1)
0x120|         02                                    |   .            |      [31]: 2 transition_type 0x123-0x124 (1)
0x120|            01                                 |    .           |      [32]: 1 transition_type 0x124-0x125 (1)
0x120|               02                              |     .          |      [33]: 2 transition_type 0x125-0x126 (1)
0x120|                  01                           |      .         |      [34]: 1 transition_type 0x126-0x127 (1)
0x120|                     02                        |       .        |      [35]: 2 transition_type 0x127-0x128 (1)
0x120|                        01                     |        .       |      [36]: 1 transition_type 0x128-0x129 (1)
0x120|                           02                  |         .      |      [37]: 2 transition_type 0x129-0x12a (1)
0x120|                              01               |          .     |      [38]: 1 transition_type 0x12a-0x12b (1)
0x120|                                 02            |           .    |      [39]: 2 transition_type 0x12b-0x12c (1)
0x120|                                    01         |            .   |      [40]: 1 transition_type 0x12c-0x12d (1)
0x120|                                       02      |             .  |      [41]: 2 transition_type 0x12d-0x12e (1)
0x120|                                          01   |              . |      [42]: 1 transition_type 0x12e-0x12f (1)
0x120|                                             02|               .|      [43]: 2 transition_type 0x12f-0x130 (1)
0x130|01                                             |.               |      [44]: 1 transition_type 0x130-0x131 (1)
0x130|   02                                          | .              |      [45]: 2 transition_type 0x131-0x132 (1)
0x130|      01                                       |  .             |      [46]: 1 transition_type 0x132-0x133 (1)
0x130|         02                                    |   .            |      [47]: 2 transition_type 0x133-0x134 (1)
0x130|            01                                 |    .           |      [48]: 1 transition_type 0x134-0x135 (1)
0x130|               02                              |     .          |      [49]: 2 transition_type 0x135-0x136 (1)
0x130|                  01                           |      .         |      [50]: 1 transition_type 0x136-0x137 (1)
0x130|                     02                        |       .        |      [51]: 2 transition_type 0x137-0x138 (1)
0x130|                        05                     |        .       |      [52]: 5 transition_type 0x138-0x139 (1)
0x130|                           05                  |         .      |      [53]: 5 transition_type 0x139-0x13a (1)
     |                                               |                |    local_time_type_records[0:6]: 0x13a-0x15e (36)
     |                                               |                |      [0]{}: local_time_type 0x13a-0x140 (6)
0x130|                              ff ff 9d e4      |          ....  |        utoff: -25116 (valid) 0x13a-0x13e (4)
0x130|                                          00   |              . |        dst: 0 (valid) 0x13e-0x13f (1)
0x130|                                             00|               .|        idx: 0 (valid) 0x13f-0x140 (1)
     |                                               |                |      [1]{}: local_time_type 0x140-0x146 (6)
0x140|ff ff ab a0                                    |....            |        utoff: -21600 (valid) 0x140-0x144 (4)
0x140|            01                                 |    .           |        dst: 1 (valid) 0x144-0x145 (1)
0x140|               04                              |     .          |        idx: 4 (valid) 0x145-0x146 (1)
     |                                               |                |      [2]{}: local_time_type 0x146-0x14c (6)
0x140|                  ff ff 9d 90                  |      ....      |        utoff: -25200 (valid) 0x146-0x14a (4)
0x140|                              00               |          .     |        dst: 0 (valid) 0x14a-0x14b (1)
0x140|                                 08            |           .    |        idx: 8 (valid) 0x14b-0x14c (1)
     |                                               |                |      [3]{}: local_time_type 0x14c-0x152 (6)
0x140|                                    ff ff ab a0|            ....|        utoff: -21600 (valid) 0x14c-0x150 (4)
0x150|01                                             |.               |        dst: 1 (valid) 0x150-0x151 (1)
0x150|   0c                                          | .              |        idx: 12 (valid) 0x151-0x152 (1)
     |                                               |                |      [4]{}: local_time_type 0x152-0x158 (6)
0x150|      ff ff ab a0                              |  ....          |        utoff: -21600 (valid) 0x152-0x156 (4)
0x150|                  01                           |      .         |        dst: 1 (valid) 0x156-0x157 (1)
0x150|                     10                        |       .        |        idx: 16 (valid) 0x157-0x158 (1)
     |                                               |                |      [5]{}: local_time_type 0x158-0x15e (6)
0x150|                        ff ff ab a0            |        ....    |        utoff: -21600 (valid) 0x158-0x15c (4)
0x150|                                    00         |            .   |        dst: 0 (valid) 0x15c-0x15d (1)
0x150|                                       14      |             .  |        idx: 20 (valid) 0x15d-0x15e (1)
     |                                               |                |    time_zone_designations[0:6]: 0x15e-0x176 (24)
0x150|                                          4c 4d|              LM|      [0]: "LMT" time_zone_designation 0x15e-0x162 (4)
0x160|54 00                                          |T.              |
0x160|      4d 44 54 00                              |  MDT.          |      [1]: "MDT" time_zone_designation 0x162-0x166 (4)
0x160|                  4d 53 54 00                  |      MST.      |      [2]: "MST" time_zone_designation 0x166-0x16a (4)
0x160|                              4d 57 54 00      |          MWT.  |      [3]: "MWT" time_zone_designation 0x16a-0x16e (4)
0x160|                                          4d 50|              MP|      [4]: "MPT" time_zone_designation 0x16e-0x172 (4)
0x170|54 00                                          |T.              |
0x170|      43 53 54 00                              |  CST.          |      [5]: "CST" time_zone_designation 0x172-0x176 (4)
     |                                               |                |    leap_second_records[0:27]: 0x176-0x24e (216)
     |                                               |                |      [0]{}: leap_second_record 0x176-0x17e (8)
0x170|                  04 b2 58 00                  |      ..X.      |        occur: "1972-07-01T00:00:00Z" (78796800) 0x176-0x17a (4)
0x170|                              00 00 00 01      |          ....  |        corr: 1 0x17a-0x17e (4)
     |                                               |                |      [1]{}: leap_second_record 0x17e-0x186 (8)
0x170|                                          05 a4|              ..|        occur: "1973-01-01T00:00:01Z" (94694401) 0x17e-0x182 (4)
0x180|ec 01                                          |..              |
0x180|      00 00 00 02                              |  ....          |        corr: 2 0x182-0x186 (4)
     |                                               |                |      [2]{}: leap_second_record 0x186-0x18e (8)
0x180|                  07 86 1f 82                  |      ....      |        occur: "1974-01-01T00:00:02Z" (126230402) 0x186-0x18a (4)
0x180|                              00 00 00 03      |          ....  |        corr: 3 0x18a-0x18e (4)
     |                                               |                |      [3]{}: leap_second_record 0x18e-0x196 (8)
0x180|                                          09 67|              .g|        occur: "1975-01-01T00:00:03Z" (157766403) 0x18e-0x192 (4)
0x190|53 03                                          |S.              |
0x190|      00 00 00 04                              |  ....          |        corr: 4 0x192-0x196 (4)
     |                                               |                |      [4]{}: leap_second_record 0x196-0x19e (8)
0x190|                  0b 48 86 84                  |      .H..      |        occur: "1976-01-01T00:00:04Z" (189302404) 0x196-0x19a (4)
0x190|                              00 00 00 05      |          ....  |        corr: 5 0x19a-0x19e (4)
     |                                               |                |      [5]{}: leap_second_record 0x19e-0x1a6 (8)
0x190|                                          0d 2b|              .+|        occur: "1977-01-01T00:00:05Z" (220924805) 0x19e-0x1a2 (4)
0x1a0|0b 85                                          |..              |
0x1a0|      00 00 00 06                              |  ....          |        corr: 6 0x1a2-0x1a6 (4)
     |                                               |                |      [6]{}: leap_second_record 0x1a6-0x1ae (8)
0x1a0|                  0f 0c 3f 06                  |      ..?.      |        occur: "1978-01-01T00:00:06Z" (252460806) 0x1a6-0x1aa (4)
0x1a0|                              00 00 00 07      |          ....  |        corr: 7 0x1aa-0x1ae (4)
     |                                               |                |      [7]{}: leap_second_record 0x1ae-0x1b6 (8)
0x1a0|                                          10 ed|              ..|        occur: "1979-01-01T00:00:07Z" (283996807) 0x1ae-0x1b2 (4)
0x1b0|72 87                                          |r.              |
0x1b0|      00 00 00 08                              |  ....          |        corr: 8 0x1b2-0x1b6 (4)
     |                                               |                |      [8]{}: leap_second_record 0x1b6-0x1be (8)
0x1b0|                  12 ce a6 08                  |      ....      |        occur: "1980-01-01T00:00:08Z" (315532808) 0x1b6-0x1ba (4)
0x1b0|                              00 00 00 09      |          ....  |        corr: 9 0x1ba-0x1be (4)
     |                                               |                |      [9]{}: leap_second_record 0x1be-0x1c6 (8)
0x1b0|                                          15 9f|              ..|        occur: "1981-07-01T00:00:09Z" (362793609) 0x1be-0x1c2 (4)
0x1c0|ca 89                                          |..              |
0x1c0|      00 00 00 0a                              |  ....          |        corr: 10 0x1c2-0x1c6 (4)
     |                                               |                |      [10]{}: leap_second_record 0x1c6-0x1ce (8)
0x1c0|                  17 80 fe 0a                  |      ....      |        occur: "1982-07-01T00:00:10Z" (394329610) 0x1c6-0x1ca (4)
0x1c0|                              00 00 00 0b      |          ....  |        corr: 11 0x1ca-0x1ce (4)
     |                                               |                |      [11]{}: leap_second_record 0x1ce-0x1d6 (8)
0x1c0|                                          19 62|              .b|        occur: "1983-07-01T00:00:11Z" (425865611) 0x1ce-0x1d2 (4)
0x1d0|31 8b                                          |1.              |
0x1d0|      00 00 00 0c                              |  ....          |        corr: 12 0x1d2-0x1d6 (4)
     |                                               |                |      [12]{}: leap_second_record 0x1d6-0x1de (8)
0x1d0|                  1d 25 ea 0c                  |      .%..      |        occur: "1985-07-01T00:00:12Z" (489024012) 0x1d6-0x1da (4)
0x1d0|                              00 00 00 0d      |          ....  |        corr: 13 0x1da-0x1de (4)
     |                                               |                |      [13]{}: leap_second_record 0x1de-0x1e6 (8)
0x1d0|                                          21 da|              !.|        occur: "1988-01-01T00:00:13Z" (567993613) 0x1de-0x1e2 (4)
0x1e0|e5 0d                                          |..              |
0x1e0|      00 00 00 0e                              |  ....          |        corr: 14 0x1e2-0x1e6 (4)
     |                                               |                |      [14]{}: leap_second_record 0x1e6-0x1ee (8)
0x1e0|                  25 9e 9d 8e                  |      %...      |        occur: "1990-01-01T00:00:14Z" (631152014) 0x1e6-0x1ea (4)
0x1e0|                              00 00 00 0f      |          ....  |        corr: 15 0x1ea-0x1ee (4)
     |                                               |                |      [15]{}: leap_second_record 0x1ee-0x1f6 (8)
0x1e0|                                          27 7f|              '.|        occur: "1991-01-01T00:00:15Z" (662688015) 0x1ee-0x1f2 (4)
0x1f0|d1 0f                                          |..              |
0x1f0|      00 00 00 10                              |  ....          |        corr: 16 0x1f2-0x1f6 (4)
     |                                               |                |      [16]{}: leap_second_record 0x1f6-0x1fe (8)
0x1f0|                  2a 50 f5 90                  |      *P..      |        occur: "1992-07-01T00:00:16Z" (709948816) 0x1f6-0x1fa (4)
0x1f0|                              00 00 00 11      |          ....  |        corr: 17 0x1fa-0x1fe (4)
     |                                               |                |      [17]{}: leap_second_record 0x1fe-0x206 (8)
0x1f0|                                          2c 32|              ,2|        occur: "1993-07-01T00:00:17Z" (741484817) 0x1fe-0x202 (4)
0x200|29 11                                          |).              |
0x200|      00 00 00 12                              |  ....          |        corr: 18 0x202-0x206 (4)
     |                                               |                |      [18]{}: leap_second_record 0x206-0x20e (8)
0x200|                  2e 13 5c 92                  |      ..\.      |        occur: "1994-07-01T00:00:18Z" (773020818) 0x206-0x20a (4)
0x200|                              00 00 00 13      |          ....  |        corr: 19 0x20a-0x20e (4)
     |                                               |                |      [19]{}: leap_second_record 0x20e-0x216 (8)
0x200|                                          30 e7|              0.|        occur: "1996-01-01T00:00:19Z" (820454419) 0x20e-0x212 (4)
0x210|24 13                                          |$.              |
0x210|      00 00 00 14                              |  ....          |        corr: 20 0x212-0x216 (4)
     |                                               |                |      [20]{}: leap_second_record 0x216-0x21e (8)
0x210|                  33 b8 48 94                  |      3.H.      |        occur: "1997-07-01T00:00:20Z" (867715220) 0x216-0x21a (4)
0x210|                              00 00 00 15      |          ....  |        corr: 21 0x21a-0x21e (4)
     |                                               |                |      [21]{}: leap_second_record 0x21e-0x226 (8)
0x210|                                          36 8c|              6.|        occur: "1999-01-01T00:00:21Z" (915148821) 0x21e-0x222 (4)
0x220|10 15                                          |..              |
0x220|      00 00 00 16                              |  ....          |        corr: 22 0x222-0x226 (4)
     |                                               |                |      [22]{}: leap_second_record 0x226-0x22e (8)
0x220|                  43 b7 1b 96                  |      C...      |        occur: "2006-01-01T00:00:22Z" (1136073622) 0x226-0x22a (4)
0x220|                              00 00 00 17      |          ....  |        corr: 23 0x22a-0x22e (4)
     |                                               |                |      [23]{}: leap_second_record 0x22e-0x236 (8)
0x220|                                          49 5c|              I\|        occur: "2009-01-01T00:00:23Z" (1230768023) 0x22e-0x232 (4)
0x230|07 97                                          |..              |
0x230|      00 00 00 18                              |  ....          |        corr: 24 0x232-0x236 (4)
     |                                               |                |      [24]{}: leap_second_record 0x236-0x23e (8)
0x230|                  4f ef 93 18                  |      O...      |        occur: "2012-07-01T00:00:24Z" (1341100824) 0x236-0x23a (4)
0x230|                              00 00 00 19      |          ....  |        corr: 25 0x23a-0x23e (4)
     |                                               |                |      [25]{}: leap_second_record 0x23e-0x246 (8)
0x230|                                          55 93|              U.|        occur: "2015-07-01T00:00:25Z" (1435708825) 0x23e-0x242 (4)
0x240|2d 99                                          |-.              |
0x240|      00 00 00 1a                              |  ....          |        corr: 26 0x242-0x246 (4)
     |                                               |                |      [26]{}: leap_second_record 0x246-0x24e (8)
0x240|                  58 68 46 9a                  |      XhF.      |        occur: "2017-01-01T00:00:26Z" (1483228826) 0x246-0x24a (4)
0x240|                              00 00 00 1b      |          ....  |        corr: 27 0x24a-0x24e (4)
     |                                               |                |    standard_wall_indicators[0:6]: 0x24e-0x254 (6)
0x240|                                          00   |              . |      [0]: 0 standard_wall_indicator (valid) 0x24e-0x24f (1)
0x240|                                             00|               .|      [1]: 0 standard_wall_indicator (valid) 0x24f-0x250 (1)
0x250|00                                             |.               |      [2]: 0 standard_wall_indicator (valid) 0x250-0x251 (1)
0x250|   00                                          | .              |      [3]: 0 standard_wall_indicator (valid) 0x251-0x252 (1)
0x250|      01                                       |  .             |      [4]: 1 standard_wall_indicator (valid) 0x252-0x253 (1)
0x250|         00                                    |   .            |      [5]: 0 standard_wall_indicator (valid) 0x253-0x254 (1)
     |                                               |                |    ut_local_indicators[0:6]: 0x254-0x25a (6)
0x250|            00                                 |    .           |      [0]: 0 ut_local_indicator (valid) 0x254-0x255 (1)
0x250|               00                              |     .          |      [1]: 0 ut_local_indicator (valid) 0x255-0x256 (1)
0x250|                  00                           |      .         |      [2]: 0 ut_local_indicator (valid) 0x256-0x257 (1)
0x250|                     00                        |       .        |      [3]: 0 ut_local_indicator (valid) 0x257-0x258 (1)
0x250|                        01                     |        .       |      [4]: 1 ut_local_indicator (valid) 0x258-0x259 (1)
0x250|                           00                  |         .      |      [5]: 0 ut_local_indicator (valid) 0x259-0x25a (1)
     |                                               |                |  v2plusheader{}: 0x25a-0x286 (44)
0x250|                              54 5a 69 66      |          TZif  |    magic: 0x545a6966 (valid) 0x25a-0x25e (4)
0x250|                                          32   |              2 |    ver: "2" (0x32) (valid) 0x25e-0x25f (1)
0x250|                                             00|               .|    reserved: raw bits 0x25f-0x26e (15)
0x260|00 00 00 00 00 00 00 00 00 00 00 00 00 00      |..............  |
0x260|                                          00 00|              ..|    isutcnt: 6 0x26e-0x272 (4)
0x270|00 06                                          |..              |
0x270|      00 00 00 06                              |  ....          |    isstdcnt: 6 0x272-0x276 (4)
0x270|                  00 00 00 1b                  |      ....      |    leapcnt: 27 0x276-0x27a (4)
0x270|                              00 00 00 36      |          ...6  |    timecnt: 54 0x27a-0x27e (4)
0x270|                                          00 00|              ..|    typecnt: 6 0x27e-0x282 (4)
0x280|00 06                                          |..              |
0x280|      00 00 00 18                              |  ....          |    charcnt: 24 0x282-0x286 (4)
     |                                               |                |  v2plusdatablock{}: 0x286-0x5f8 (882)
     |                                               |                |    transition_times[0:54]: 0x286-0x436 (432)
0x280|                  ff ff ff ff 86 fd 93 1c      |      ........  |      [0]: "1905-09-01T06:58:36Z" (-2030202084) transition_time 0x286-0x28e (8)
0x280|                                          ff ff|              ..|      [1]: "1918-04-14T09:00:00Z" (-1632063600) transition_time 0x28e-0x296 (8)
0x290|ff ff 9e b8 af 90                              |......          |
0x290|                  ff ff ff ff 9f bb 07 80      |      ........  |      [2]: "1918-10-27T08:00:00Z" (-1615132800) transition_time 0x296-0x29e (8)
0x290|                                          ff ff|              ..|      [3]: "1930-05-04T07:00:00Z" (-1251651600) transition_time 0x29e-0x2a6 (8)
0x2a0|ff ff b5 65 4f f0                              |...eO.          |
0x2a0|                  ff ff ff ff b6 30 48 e0      |      .....0H.  |      [4]: "1930-10-05T06:00:00Z" (-1238349600) transition_time 0x2a6-0x2ae (8)
0x2a0|                                          ff ff|              ..|      [5]: "1931-05-03T07:00:00Z" (-1220202000) transition_time 0x2ae-0x2b6 (8)
0x2b0|ff ff b7 45 31 f0                              |...E1.          |
0x2b0|                  ff ff ff ff b8 10 2a e0      |      ......*.  |      [6]: "1931-10-04T06:00:00Z" (-1206900000) transition_time 0x2b6-0x2be (8)
0x2b0|                                          ff ff|              ..|      [7]: "1932-05-01T07:00:00Z" (-1188752400) transition_time 0x2be-0x2c6 (8)
0x2c0|ff ff b9 25 13 f0                              |...%..          |
0x2c0|                  ff ff ff ff b9 f0 0c e0      |      ........  |      [8]: "1932-10-02T06:00:00Z" (-1175450400) transition_time 0x2c6-0x2ce (8)
0x2c0|                                          ff ff|              ..|      [9]: "1933-05-07T07:00:00Z" (-1156698000) transition_time 0x2ce-0x2d6 (8)
0x2d0|ff ff bb 0e 30 70                              |....0p          |
0x2d0|                  ff ff ff ff bb cf ee e0      |      ........  |      [10]: "1933-10-01T06:00:00Z" (-1144000800) transition_time 0x2d6-0x2de (8)
0x2d0|                                          ff ff|              ..|      [11]: "1934-05-06T07:00:00Z" (-1125248400) transition_time 0x2de-0x2e6 (8)
0x2e0|ff ff bc ee 12 70                              |.....p          |
0x2e0|                  ff ff ff ff bd b9 0b 60      |      .......`  |      [12]: "1934-10-07T06:00:00Z" (-1111946400) transition_time 0x2e6-0x2ee (8)
0x2e0|                                          ff ff|              ..|      [13]: "1937-04-11T07:00:00Z" (-1032714000) transition_time 0x2ee-0x2f6 (8)
0x2f0|ff ff c2 72 08 f0                              |...r..          |
0x2f0|                  ff ff ff ff c3 61 eb e0      |      .....a..  |      [14]: "1937-10-10T06:00:00Z" (-1016992800) transition_time 0x2f6-0x2fe (8)
0x2f0|                                          ff ff|              ..|      [15]: "1938-04-10T07:00:00Z" (-1001264400) transition_time 0x2fe-0x306 (8)
0x300|ff ff c4 51 ea f0                              |...Q..          |
0x300|                  ff ff ff ff c5 38 93 60      |      .....8.`  |      [16]: "1938-10-02T06:00:00Z" (-986148000) transition_time 0x306-0x30e (8)
0x300|                                          ff ff|              ..|      [17]: "1939-04-09T07:00:00Z" (-969814800) transition_time 0x30e-0x316 (8)
0x310|ff ff c6 31 cc f0                              |...1..          |
0x310|                  ff ff ff ff c7 21 af e0      |      .....!..  |      [18]: "1939-10-08T06:00:00Z" (-954093600) transition_time 0x316-0x31e (8)
0x310|                                          ff ff|              ..|      [19]: "1940-04-14T07:00:00Z" (-937760400) transition_time 0x31e-0x326 (8)
0x320|ff ff c8 1a e9 70                              |.....p          |
0x320|                  ff ff ff ff c9 0a cc 60      |      .......`  |      [20]: "1940-10-13T06:00:00Z" (-922039200) transition_time 0x326-0x32e (8)
0x320|                                          ff ff|              ..|      [21]: "1941-04-13T07:00:00Z" (-906310800) transition_time 0x32e-0x336 (8)
0x330|ff ff c9 fa cb 70                              |.....p          |
0x330|                  ff ff ff ff ca ea ae 60      |      .......`  |      [22]: "1941-10-12T06:00:00Z" (-890589600) transition_time 0x336-0x33e (8)
0x330|                                          ff ff|              ..|      [23]: "1942-02-09T09:00:00Z" (-880210800) transition_time 0x33e-0x346 (8)
0x340|ff ff cb 89 0c 90                              |......          |
0x340|                  ff ff ff ff d2 23 f4 70      |      .....#.p  |      [24]: "1945-08-14T23:00:00Z" (-769395600) transition_time 0x346-0x34e (8)
0x340|                                          ff ff|              ..|      [25]: "1945-09-30T08:00:00Z" (-765388800) transition_time 0x34e-0x356 (8)
0x350|ff ff d2 61 18 00                              |...a..          |
0x350|                  ff ff ff ff d3 63 8c 10      |      .....c..  |      [26]: "1946-04-14T09:00:00Z" (-748450800) transition_time 0x356-0x35e (8)
0x350|                                          ff ff|              ..|      [27]: "1946-10-13T08:00:00Z" (-732729600) transition_time 0x35e-0x366 (8)
0x360|ff ff d4 53 6f 00                              |...So.          |
0x360|                  ff ff ff ff d5 55 e3 10      |      .....U..  |      [28]: "1947-04-27T09:00:00Z" (-715791600) transition_time 0x366-0x36e (8)
0x360|                                          ff ff|              ..|      [29]: "1947-09-28T08:00:00Z" (-702489600) transition_time 0x36e-0x376 (8)
0x370|ff ff d6 20 dc 00                              |... ..          |
0x370|                  ff ff ff ff d7 35 c5 10      |      .....5..  |      [30]: "1948-04-25T09:00:00Z" (-684342000) transition_time 0x376-0x37e (8)
0x370|                                          ff ff|              ..|      [31]: "1948-09-26T08:00:00Z" (-671040000) transition_time 0x37e-0x386 (8)
0x380|ff ff d8 00 be 00                              |......          |
0x380|                  ff ff ff ff d9 15 a7 10      |      ........  |      [32]: "1949-04-24T09:00:00Z" (-652892400) transition_time 0x386-0x38e (8)
0x380|                                          ff ff|              ..|      [33]: "1949-09-25T08:00:00Z" (-639590400) transition_time 0x38e-0x396 (8)
0x390|ff ff d9 e0 a0 00                              |......          |
0x390|                  ff ff ff ff da fe c3 90      |      ........  |      [34]: "1950-04-30T09:00:00Z" (-620838000) transition_time 0x396-0x39e (8)
0x390|                                          ff ff|              ..|      [35]: "1950-09-24T08:00:00Z" (-608140800) transition_time 0x39e-0x3a6 (8)
0x3a0|ff ff db c0 82 00                              |......          |
0x3a0|                  ff ff ff ff dc de a5 90      |      ........  |      [36]: "1951-04-29T09:00:00Z" (-589388400) transition_time 0x3a6-0x3ae (8)
0x3a0|                                          ff ff|              ..|      [37]: "1951-09-30T08:00:00Z" (-576086400) transition_time 0x3ae-0x3b6 (8)
0x3b0|ff ff dd a9 9e 80                              |......          |
0x3b0|                  ff ff ff ff de be 87 90      |      ........  |      [38]: "1952-04-27T09:00:00Z" (-557938800) transition_time 0x3b6-0x3be (8)
0x3b0|                                          ff ff|              ..|      [39]: "1952-09-28T08:00:00Z" (-544636800) transition_time 0x3be-0x3c6 (8)
0x3c0|ff ff df 89 80 80                              |......          |
0x3c0|                  ff ff ff ff e0 9e 69 90      |      ......i.  |      [40]: "1953-04-26T09:00:00Z" (-526489200) transition_time 0x3c6-0x3ce (8)
0x3c0|                                          ff ff|              ..|      [41]: "1953-09-27T08:00:00Z" (-513187200) transition_time 0x3ce-0x3d6 (8)
0x3d0|ff ff e1 69 62 80                              |...ib.          |
0x3d0|                  ff ff ff ff e2 7e 4b 90      |      .....~K.  |      [42]: "1954-04-25T09:00:00Z" (-495039600) transition_time 0x3d6-0x3de (8)
0x3d0|                                          ff ff|              ..|      [43]: "1954-09-26T08:00:00Z" (-481737600) transition_time 0x3de-0x3e6 (8)
0x3e0|ff ff e3 49 44 80                              |...ID.          |
0x3e0|                  ff ff ff ff e4 5e 2d 90      |      .....^-.  |      [44]: "1955-04-24T09:00:00Z" (-463590000) transition_time 0x3e6-0x3ee (8)
0x3e0|                                          ff ff|              ..|      [45]: "1955-09-25T08:00:00Z" (-450288000) transition_time 0x3ee-0x3f6 (8)
0x3f0|ff ff e5 29 26 80                              |...)&.          |
0x3f0|                  ff ff ff ff e6 47 4a 10      |      .....GJ.  |      [46]: "1956-04-29T09:00:00Z" (-431535600) transition_time 0x3f6-0x3fe (8)
0x3f0|                                          ff ff|              ..|      [47]: "1956-09-30T08:00:00Z" (-418233600) transition_time 0x3fe-0x406 (8)
0x400|ff ff e7 12 43 00                              |....C.          |
0x400|                  ff ff ff ff e8 27 2c 10      |      .....',.  |      [48]: "1957-04-28T09:00:00Z" (-400086000) transition_time 0x406-0x40e (8)
0x400|                                          ff ff|              ..|      [49]: "1957-09-29T08:00:00Z" (-386784000) transition_time 0x40e-0x416 (8)
0x410|ff ff e8 f2 25 00                              |....%.          |
0x410|                  ff ff ff ff eb e6 f0 10      |      ........  |      [50]: "1959-04-26T09:00:00Z" (-337186800) transition_time 0x416-0x41e (8)
0x410|                                          ff ff|              ..|      [51]: "1959-10-25T08:00:00Z" (-321465600) transition_time 0x41e-0x426 (8)
0x420|ff ff ec d6 d3 00                              |......          |
0x420|                  ff ff ff ff ed c6 d2 10      |      ........  |      [52]: "1960-04-24T09:00:00Z" (-305737200) transition_time 0x426-0x42e (8)
0x420|                                          00 00|              ..|      [53]: "2023-06-28T00:00:27Z" (1687910427) transition_time 0x42e-0x436 (8)
0x430|00 00 64 9b 78 1b                              |..d.x.          |
     |                                               |                |    transition_types[0:54]: 0x436-0x46c (54)
0x430|                  02                           |      .         |      [0]: 2 transition_type 0x436-0x437 (1)
0x430|                     01                        |       .        |      [1]: 1 transition_type 0x437-0x438 (1)
0x430|                        02                     |        .       |      [2]: 2 transition_type 0x438-0x439 (1)
0x430|                           01                  |         .      |      [3]: 1 transition_type 0x439-0x43a (1)
0x430|                              02               |          .     |      [4]: 2 transition_type 0x43a-0x43b (1)
0x430|                                 01            |           .    |      [5]: 1 transition_type 0x43b-0x43c (1)
0x430|                                    02         |            .   |      [6]: 2 transition_type 0x43c-0x43d (1)
0x430|                                       01      |             .  |      [7]: 1 transition_type 0x43d-0x43e (1)
0x430|                                          02   |              . |      [8]: 2 transition_type 0x43e-0x43f (1)
0x430|                                             01|               .|      [9]: 1 transition_type 0x43f-0x440 (1)
0x440|02                                             |.               |      [10]: 2 transition_type 0x440-0x441 (1)
0x440|   01                                          | .              |      [11]: 1 transition_type 0x441-0x442 (1)
0x440|      02                                       |  .             |      [12]: 2 transition_type 0x442-0x443 (1)
0x440|         01                                    |   .            |      [13]: 1 transition_type 0x443-0x444 (1)
0x440|            02                                 |    .           |      [14]: 2 transition_type 0x444-0x445 (1)
0x440|               01                              |     .          |      [15]: 1 transition_type 0x445-0x446 (1)
0x440|                  02                           |      .         |      [16]: 2 transition_type 0x446-0x447 (1)
0x440|                     01                        |       .        |      [17]: 1 transition_type 0x447-0x448 (1)
0x440|                        02                     |        .       |      [18]: 2 transition_type 0x448-0x449 (1)
0x440|                           01                  |         .      |      [19]: 1 transition_type 0x449-0x44a (1)
0x440|                              02               |          .     |      [20]: 2 transition_type 0x44a-0x44b (1)
0x440|                                 01            |           .    |      [21]: 1 transition_type 0x44b-0x44c (1)
0x440|                                    02         |            .   |      [22]: 2 transition_type 0x44c-0x44d (1)
0x440|                                       03      |             .  |      [23]: 3 transition_type 0x44d-0x44e (1)
0x440|                                          04   |              . |      [24]: 4 transition_type 0x44e-0x44f (1)
0x440|                                             02|               .|      [25]: 2 transition_type 0x44f-0x450 (1)
0x450|01                                             |.               |      [26]: 1 transition_type 0x450-0x451 (1)
0x450|   02                                          | .              |      [27]: 2 transition_type 0x451-0x452 (1)
0x450|      01                                       |  .             |      [28]: 1 transition_type 0x452-0x453 (1)
0x450|         02                                    |   .            |      [29]: 2 transition_type 0x453-0x454 (1)
0x450|            01                                 |    .           |      [30]: 1 transition_type 0x454-0x455 (1)
0x450|               02                              |     .          |      [31]: 2 transition_type 0x455-0x456 (1)
0x450|                  01                           |      .         |      [32]: 1 transition_type 0x456-0x457 (1)
0x450|                     02                        |       .        |      [33]: 2 transition_type 0x457-0x458 (1)
0x450|                        01                     |        .       |      [34]: 1 transition_type 0x458-0x459 (1)
0x450|                           02                  |         .      |      [35]: 2 transition_type 0x459-0x45a (1)
0x450|                              01               |          .     |      [36]: 1 transition_type 0x45a-0x45b (1)
0x450|                                 02            |           .    |      [37]: 2 transition_type 0x45b-0x45c (1)
0x450|                                    01         |            .   |      [38]: 1 transition_type 0x45c-0x45d (1)
0x450|                                       02      |             .  |      [39]: 2 transition_type 0x45d-0x45e (1)
0x450|                                          01   |              . |      [40]: 1 transition_type 0x45e-0x45f (1)
0x450|                                             02|               .|      [41]: 2 transition_type 0x45f-0x460 (1)
0x460|01                                             |.               |      [42]: 1 transition_type 0x460-0x461 (1)
0x460|   02                                          | .              |      [43]: 2 transition_type 0x461-0x462 (1)
0x460|      01                                       |  .             |      [44]: 1 transition_type 0x462-0x463 (1)
0x460|         02                                    |   .            |      [45]: 2 transition_type 0x463-0x464 (1)
0x460|            01                                 |    .           |      [46]: 1 transition_type 0x464-0x465 (1)
0x460|               02                              |     .          |      [47]: 2 transition_type 0x465-0x466 (1)
0x460|                  01                           |      .         |      [48]: 1 transition_type 0x466-0x467 (1)
0x460|                     02                        |       .        |      [49]: 2 transition_type 0x467-0x468 (1)
0x460|                        01                     |        .       |      [50]: 1 transition_type 0x468-0x469 (1)
0x460|                           02                  |         .      |      [51]: 2 transition_type 0x469-0x46a (1)
0x460|                              05               |          .     |      [52]: 5 transition_type 0x46a-0x46b (1)
0x460|                                 05            |           .    |      [53]: 5 transition_type 0x46b-0x46c (1)
     |                                               |                |    local_time_type_records[0:6]: 0x46c-0x490 (36)
     |                                               |                |      [0]{}: local_time_type 0x46c-0x472 (6)
0x460|                                    ff ff 9d e4|            ....|        utoff: -25116 (valid) 0x46c-0x470 (4)
0x470|00                                             |.               |        dst: 0 (valid) 0x470-0x471 (1)
0x470|   00                                          | .              |        idx: 0 (valid) 0x471-0x472 (1)
     |                                               |                |      [1]{}: local_time_type 0x472-0x478 (6)
0x470|      ff ff ab a0                              |  ....          |        utoff: -21600 (valid) 0x472-0x476 (4)
0x470|                  01                           |      .         |        dst: 1 (valid) 0x476-0x477 (1)
0x470|                     04                        |       .        |        idx: 4 (valid) 0x477-0x478 (1)
     |                                               |                |      [2]{}: local_time_type 0x478-0x47e (6)
0x470|                        ff ff 9d 90            |        ....    |        utoff: -25200 (valid) 0x478-0x47c (4)
0x470|                                    00         |            .   |        dst: 0 (valid) 0x47c-0x47d (1)
0x470|                                       08      |             .  |        idx: 8 (valid) 0x47d-0x47e (1)
     |                                               |                |      [3]{}: local_time_type 0x47e-0x484 (6)
0x470|                                          ff ff|              ..|        utoff: -21600 (valid) 0x47e-0x482 (4)
0x480|ab a0                                          |..              |
0x480|      01                                       |  .             |        dst: 1 (valid) 0x482-0x483 (1)
0x480|         0c                                    |   .            |        idx: 12 (valid) 0x483-0x484 (1)
     |                                               |                |      [4]{}: local_time_type 0x484-0x48a (6)
0x480|            ff ff ab a0                        |    ....        |        utoff: -21600 (valid) 0x484-0x488 (4)
0x480|                        01                     |        .       |        dst: 1 (valid) 0x488-0x489 (1)
0x480|                           10                  |         .      |        idx: 16 (valid) 0x489-0x48a (1)
     |                                               |                |      [5]{}: local_time_type 0x48a-0x490 (6)
0x480|                              ff ff ab a0      |          ....  |        utoff: -21600 (valid) 0x48a-0x48e (4)
0x480|                                          00   |              . |        dst: 0 (valid) 0x48e-0x48f (1)
0x480|                                             14|               .|        idx: 20 (valid) 0x48f-0x490 (1)
     |                                               |                |    time_zone_designations[0:6]: 0x490-0x4a8 (24)
0x490|4c 4d 54 00                                    |LMT.            |      [0]: "LMT" time_zone_designation 0x490-0x494 (4)
0x490|            4d 44 54 00                        |    MDT.        |      [1]: "MDT" time_zone_designation 0x494-0x498 (4)
0x490|                        4d 53 54 00            |        MST.    |      [2]: "MST" time_zone_designation 0x498-0x49c (4)
0x490|                                    4d 57 54 00|            MWT.|      [3]: "MWT" time_zone_designation 0x49c-0x4a0 (4)
0x4a0|4d 50 54 00                                    |MPT.            |      [4]: "MPT" time_zone_designation 0x4a0-0x4a4 (4)
0x4a0|            43 53 54 00                        |    CST.        |      [5]: "CST" time_zone_designation 0x4a4-0x4a8 (4)
     |                                               |                |    leap_second_records[0:27]: 0x4a8-0x5ec (324)
     |                                               |                |      [0]{}: leap_second_record 0x4a8-0x4b4 (12)
0x4a0|                        00 00 00 00 04 b2 58 00|        ......X.|        occur: "1972-07-01T00:00:00Z" (78796800) 0x4a8-0x4b0 (8)
0x4b0|00 00 00 01                                    |....            |        corr: 1 0x4b0-0x4b4 (4)
     |                                               |                |      [1]{}: leap_second_record 0x4b4-0x4c0 (12)
0x4b0|            00 00 00 00 05 a4 ec 01            |    ........    |        occur: "1973-01-01T00:00:01Z" (94694401) 0x4b4-0x4bc (8)
0x4b0|                                    00 00 00 02|            ....|        corr: 2 0x4bc-0x4c0 (4)
     |                                               |                |      [2]{}: leap_second_record 0x4c0-0x4cc (12)
0x4c0|00 00 00 00 07 86 1f 82                        |........        |        occur: "1974-01-01T00:00:02Z" (126230402) 0x4c0-0x4c8 (8)
0x4c0|                        00 00 00 03            |        ....    |        corr: 3 0x4c8-0x4cc (4)
     |                                               |                |      [3]{}: leap_second_record 0x4cc-0x4d8 (12)
0x4c0|                                    00 00 00 00|            ....|        occur: "1975-01-01T00:00:03Z" (157766403) 0x4cc-0x4d4 (8)
0x4d0|09 67 53 03                                    |.gS.            |
0x4d0|            00 00 00 04                        |    ....        |        corr: 4 0x4d4-0x4d8 (4)
     |                                               |                |      [4]{}: leap_second_record 0x4d8-0x4e4 (12)
0x4d0|                        00 00 00 00 0b 48 86 84|        .....H..|        occur: "1976-01-01T00:00:04Z" (189302404) 0x4d8-0x4e0 (8)
0x4e0|00 00 00 05                                    |....            |        corr: 5 0x4e0-0x4e4 (4)
     |                                               |                |      [5]{}: leap_second_record 0x4e4-0x4f0 (12)
0x4e0|            00 00 00 00 0d 2b 0b 85            |    .....+..    |        occur: "1977-01-01T00:00:05Z" (220924805) 0x4e4-0x4ec (8)
0x4e0|                                    00 00 00 06|            ....|        corr: 6 0x4ec-0x4f0 (4)
     |                                               |                |      [6]{}: leap_second_record 0x4f0-0x4fc (12)
0x4f0|00 00 00 00 0f 0c 3f 06                        |......?.        |        occur: "1978-01-01T00:00:06Z" (252460806) 0x4f0-0x4f8 (8)
0x4f0|                        00 00 00 07            |        ....    |        corr: 7 0x4f8-0x4fc (4)
     |                                               |                |      [7]{}: leap_second_record 0x4fc-0x508 (12)
0x4f0|                                    00 00 00 00|            ....|        occur: "1979-01-01T00:00:07Z" (283996807) 0x4fc-0x504 (8)
0x500|10 ed 72 87                                    |..r.            |
0x500|            00 00 00 08                        |    ....        |        corr: 8 0x504-0x508 (4)
     |                                               |                |      [8]{}: leap_second_record 0x508-0x514 (12)
0x500|                        00 00 00 00 12 ce a6 08|        ........|        occur: "1980-01-01T00:00:08Z" (315532808) 0x508-0x510 (8)
0x510|00 00 00 09                                    |....            |        corr: 9 0x510-0x514 (4)
     |                                               |                |      [9]{}: leap_second_record 0x514-0x520 (12)
0x510|            00 00 00 00 15 9f ca 89            |    ........    |        occur: "1981-07-01T00:00:09Z" (362793609) 0x514-0x51c (8)
0x510|                                    00 00 00 0a|            ....|        corr: 10 0x51c-0x520 (4)
     |                                               |                |      [10]{}: leap_second_record 0x520-0x52c (12)
0x520|00 00 00 00 17 80 fe 0a                        |........        |        occur: "1982-07-01T00:00:10Z" (394329610) 0x520-0x528 (8)
0x520|                        00 00 00 0b            |        ....    |        corr: 11 0x528-0x52c (4)
     |                                               |                |      [11]{}: leap_second_record 0x52c-0x538 (12)
0x520|                                    00 00 00 00|            ....|        occur: "1983-07-01T00:00:11Z" (425865611) 0x52c-0x534 (8)
0x530|19 62 31 8b                                    |.b1.            |
0x530|            00 00 00 0c                        |    ....        |        corr: 12 0x534-0x538 (4)
     |                                               |                |      [12]{}: leap_second_record 0x538-0x544 (12)
0x530|                        00 00 00 00 1d 25 ea 0c|        .....%..|        occur: "1985-07-01T00:00:12Z" (489024012) 0x538-0x540 (8)
0x540|00 00 00 0d                                    |....            |        corr: 13 0x540-0x544 (4)
     |                                               |                |      [13]{}: leap_second_record 0x544-0x550 (12)
0x540|            00 00 00 00 21 da e5 0d            |    ....!...    |        occur: "1988-01-01T00:00:13Z" (567993613) 0x544-0x54c (8)
0x540|                                    00 00 00 0e|            ....|        corr: 14 0x54c-0x550 (4)
     |                                               |                |      [14]{}: leap_second_record 0x550-0x55c (12)
0x550|00 00 00 00 25 9e 9d 8e                        |....%...        |        occur: "1990-01-01T00:00:14Z" (631152014) 0x550-0x558 (8)
0x550|                        00 00 00 0f            |        ....    |        corr: 15 0x558-0x55c (4)
     |                                               |                |      [15]{}: leap_second_record 0x55c-0x568 (12)
0x550|                                    00 00 00 00|            ....|        occur: "1991-01-01T00:00:15Z" (662688015) 0x55c-0x564 (8)
0x560|27 7f d1 0f                                    |'...            |
0x560|            00 00 00 10                        |    ....        |        corr: 16 0x564-0x568 (4)
     |                                               |                |      [16]{}: leap_second_record 0x568-0x574 (12)
0x560|                        00 00 00 00 2a 50 f5 90|        ....*P..|        occur: "1992-07-01T00:00:16Z" (709948816) 0x568-0x570 (8)
0x570|00 00 00 11                                    |....            |        corr: 17 0x570-0x574 (4)
     |                                               |                |      [17]{}: leap_second_record 0x574-0x580 (12)
0x570|            00 00 00 00 2c 32 29 11            |    ....,2).    |        occur: "1993-07-01T00:00:17Z" (741484817) 0x574-0x57c (8)
0x570|                                    00 00 00 12|            ....|        corr: 18 0x57c-0x580 (4)
     |                                               |                |      [18]{}: leap_second_record 0x580-0x58c (12)
0x580|00 00 00 00 2e 13 5c 92                        |......\.        |        occur: "1994-07-01T00:00:18Z" (773020818) 0x580-0x588 (8)
0x580|                        00 00 00 13            |        ....    |        corr: 19 0x588-0x58c (4)
     |                                               |                |      [19]{}: leap_second_record 0x58c-0x598 (12)
0x580|                                    00 00 00 00|            ....|        occur: "1996-01-01T00:00:19Z" (820454419) 0x58c-0x594 (8)
0x590|30 e7 24 13                                    |0.$.            |
0x590|            00 00 00 14                        |    ....        |        corr: 20 0x594-0x598 (4)
     |                                               |                |      [20]{}: leap_second_record 0x598-0x5a4 (12)
0x590|                        00 00 00 00 33 b8 48 94|        ....3.H.|        occur: "1997-07-01T00:00:20Z" (867715220) 0x598-0x5a0 (8)
0x5a0|00 00 00 15                                    |....            |        corr: 21 0x5a0-0x5a4 (4)
     |                                               |                |      [21]{}: leap_second_record 0x5a4-0x5b0 (12)
0x5a0|            00 00 00 00 36 8c 10 15            |    ....6...    |        occur: "1999-01-01T00:00:21Z" (915148821) 0x5a4-0x5ac (8)
0x5a0|                                    00 00 00 16|            ....|        corr: 22 0x5ac-0x5b0 (4)
     |                                               |                |      [22]{}: leap_second_record 0x5b0-0x5bc (12)
0x5b0|00 00 00 00 43 b7 1b 96                        |....C...        |        occur: "2006-01-01T00:00:22Z" (1136073622) 0x5b0-0x5b8 (8)
0x5b0|                        00 00 00 17            |        ....    |        corr: 23 0x5b8-0x5bc (4)
     |                                               |                |      [23]{}: leap_second_record 0x5bc-0x5c8 (12)
0x5b0|                                    00 00 00 00|            ....|        occur: "2009-01-01T00:00:23Z" (1230768023) 0x5bc-0x5c4 (8)
0x5c0|49 5c 07 97                                    |I\..            |
0x5c0|            00 00 00 18                        |    ....        |        corr: 24 0x5c4-0x5c8 (4)
     |                                               |                |      [24]{}: leap_second_record 0x5c8-0x5d4 (12)
0x5c0|                        00 00 00 00 4f ef 93 18|        ....O...|        occur: "2012-07-01T00:00:24Z" (1341100824) 0x5c8-0x5d0 (8)
0x5d0|00 00 00 19                                    |....            |        corr: 25 0x5d0-0x5d4 (4)
     |                                               |                |      [25]{}: leap_second_record 0x5d4-0x5e0 (12)
0x5d0|            00 00 00 00 55 93 2d 99            |    ....U.-.    |        occur: "2015-07-01T00:00:25Z" (1435708825) 0x5d4-0x5dc (8)
0x5d0|                                    00 00 00 1a|            ....|        corr: 26 0x5dc-0x5e0 (4)
     |                                               |                |      [26]{}: leap_second_record 0x5e0-0x5ec (12)
0x5e0|00 00 00 00 58 68 46 9a                        |....XhF.        |        occur: "2017-01-01T00:00:26Z" (1483228826) 0x5e0-0x5e8 (8)
0x5e0|                        00 00 00 1b            |        ....    |        corr: 27 0x5e8-0x5ec (4)
     |                                               |                |    standard_wall_indicators[0:6]: 0x5ec-0x5f2 (6)
0x5e0|                                    00         |            .   |      [0]: 0 standard_wall_indicator (valid) 0x5ec-0x5ed (1)
0x5e0|                                       00      |             .  |      [1]: 0 standard_wall_indicator (valid) 0x5ed-0x5ee (1)
0x5e0|                                          00   |              . |      [2]: 0 standard_wall_indicator (valid) 0x5ee-0x5ef (1)
0x5e0|                                             00|               .|      [3]: 0 standard_wall_indicator (valid) 0x5ef-0x5f0 (1)
0x5f0|01                                             |.               |      [4]: 1 standard_wall_indicator (valid) 0x5f0-0x5f1 (1)
0x5f0|   00                                          | .              |      [5]: 0 standard_wall_indicator (valid) 0x5f1-0x5f2 (1)
     |                                               |                |    ut_local_indicators[0:6]: 0x5f2-0x5f8 (6)
0x5f0|      00                                       |  .             |      [0]: 0 ut_local_indicator (valid) 0x5f2-0x5f3 (1)
0x5f0|         00                                    |   .            |      [1]: 0 ut_local_indicator (valid) 0x5f3-0x5f4 (1)
0x5f0|            00                                 |    .           |      [2]: 0 ut_local_indicator (valid) 0x5f4-0x5f5 (1)
0x5f0|               00                              |     .          |      [3]: 0 ut_local_indicator (valid) 0x5f5-0x5f6 (1)
0x5f0|                  01                           |      .         |      [4]: 1 ut_local_indicator (valid) 0x5f6-0x5f7 (1)
0x5f0|                     00                        |       .        |      [5]: 0 ut_local_indicator (valid) 0x5f7-0x5f8 (1)
     |                                               |                |  footer{}: 0x5f8-0x5fa (2)
0x5f0|                        0a                     |        .       |    nl1: 10 (valid) 0x5f8-0x5f9 (1)
     |                                               |                |    tz_string: "" 0x5f9-0x5f9 (0)
0x5f0|                           0a|                 |         .|     |    nl2: 10 (valid) 0x5f9-0x5fa (1)
