$ fq -d tzif dv Resolute
     |00 01 02 03 04 05 06 07 08 09 0a 0b 0c 0d 0e 0f|0123456789abcdef|.{}: Resolute (tzif) 0x0-0x7e2 (2018)
     |                                               |                |  v1header{}: 0x0-0x2c (44)
0x000|54 5a 69 66                                    |TZif            |    magic: 0x545a6966 (valid) 0x0-0x4 (4)
0x000|            32                                 |    2           |    ver: "2" (0x32) (valid) 0x4-0x5 (1)
0x000|               00 00 00 00 00 00 00 00 00 00 00|     ...........|    reserved: raw bits 0x5-0x14 (15)
0x010|00 00 00 00                                    |....            |
0x010|            00 00 00 00                        |    ....        |    isutcnt: 0 0x14-0x18 (4)
0x010|                        00 00 00 00            |        ....    |    isstdcnt: 0 0x18-0x1c (4)
0x010|                                    00 00 00 1b|            ....|    leapcnt: 27 0x1c-0x20 (4)
0x020|00 00 00 5b                                    |...[            |    timecnt: 91 0x20-0x24 (4)
0x020|            00 00 00 06                        |    ....        |    typecnt: 6 0x24-0x28 (4)
0x020|                        00 00 00 15            |        ....    |    charcnt: 21 0x28-0x2c (4)
     |                                               |                |  v1datablock{}: 0x2c-0x304 (728)
     |                                               |                |    transition_times[0:91]: 0x2c-0x198 (364)
0x020|                                    d5 fb 81 80|            ....|      [0]: "1947-08-31T00:00:00Z" (-704937600) transition_time 0x2c-0x30 (4)
0x030|f7 2f 4c 60                                    |./L`            |      [1]: "1965-04-25T06:00:00Z" (-147895200) transition_time 0x30-0x34 (4)
0x030|            f8 28 77 e0                        |    .(w.        |      [2]: "1965-10-31T06:00:00Z" (-131565600) transition_time 0x34-0x38 (4)
0x030|                        13 69 56 09            |        .iV.    |      [3]: "1980-04-27T08:00:09Z" (325670409) transition_time 0x38-0x3c (4)
0x030|                                    14 59 38 f9|            .Y8.|      [4]: "1980-10-26T07:00:09Z" (341391609) transition_time 0x3c-0x40 (4)
0x040|15 49 38 09                                    |.I8.            |      [5]: "1981-04-26T08:00:09Z" (357120009) transition_time 0x40-0x44 (4)
0x040|            16 39 1a fa                        |    .9..        |      [6]: "1981-10-25T07:00:10Z" (372841210) transition_time 0x44-0x48 (4)
0x040|                        17 29 1a 0a            |        .)..    |      [7]: "1982-04-25T08:00:10Z" (388569610) transition_time 0x48-0x4c (4)
0x040|                                    18 22 37 7b|            ."7{|      [8]: "1982-10-31T07:00:11Z" (404895611) transition_time 0x4c-0x50 (4)
0x050|19 08 fc 0b                                    |....            |      [9]: "1983-04-24T08:00:11Z" (420019211) transition_time 0x50-0x54 (4)
0x050|            1a 02 19 7c                        |    ...|        |      [10]: "1983-10-30T07:00:12Z" (436345212) transition_time 0x54-0x58 (4)
0x050|                        1a f2 18 8c            |        ....    |      [11]: "1984-04-29T08:00:12Z" (452073612) transition_time 0x58-0x5c (4)
0x050|                                    1b e1 fb 7c|            ...||      [12]: "1984-10-28T07:00:12Z" (467794812) transition_time 0x5c-0x60 (4)
0x060|1c d1 fa 8c                                    |....            |      [13]: "1985-04-28T08:00:12Z" (483523212) transition_time 0x60-0x64 (4)
0x060|            1d c1 dd 7d                        |    ...}        |      [14]: "1985-10-27T07:00:13Z" (499244413) transition_time 0x64-0x68 (4)
0x060|                        1e b1 dc 8d            |        ....    |      [15]: "1986-04-27T08:00:13Z" (514972813) transition_time 0x68-0x6c (4)
0x060|                                    1f a1 bf 7d|            ...}|      [16]: "1986-10-26T07:00:13Z" (530694013) transition_time 0x6c-0x70 (4)
0x070|20 76 0f 0d                                    | v..            |      [17]: "1987-04-05T08:00:13Z" (544608013) transition_time 0x70-0x74 (4)
0x070|            21 81 a1 7d                        |    !..}        |      [18]: "1987-10-25T07:00:13Z" (562143613) transition_time 0x74-0x78 (4)
0x070|                        22 55 f1 0e            |        "U..    |      [19]: "1988-04-03T08:00:14Z" (576057614) transition_time 0x78-0x7c (4)
0x070|                                    23 6a bd fe|            #j..|      [20]: "1988-10-30T07:00:14Z" (594198014) transition_time 0x7c-0x80 (4)
0x080|24 35 d3 0e                                    |$5..            |      [21]: "1989-04-02T08:00:14Z" (607507214) transition_time 0x80-0x84 (4)
0x080|            25 4a 9f fe                        |    %J..        |      [22]: "1989-10-29T07:00:14Z" (625647614) transition_time 0x84-0x88 (4)
0x080|                        26 15 b5 0f            |        &...    |      [23]: "1990-04-01T08:00:15Z" (638956815) transition_time 0x88-0x8c (4)
0x080|                                    27 2a 81 ff|            '*..|      [24]: "1990-10-28T07:00:15Z" (657097215) transition_time 0x8c-0x90 (4)
0x090|27 fe d1 90                                    |'...            |      [25]: "1991-04-07T08:00:16Z" (671011216) transition_time 0x90-0x94 (4)
0x090|            29 0a 64 00                        |    ).d.        |      [26]: "1991-10-27T07:00:16Z" (688546816) transition_time 0x94-0x98 (4)
0x090|                        29 de b3 90            |        )...    |      [27]: "1992-04-05T08:00:16Z" (702460816) transition_time 0x98-0x9c (4)
0x090|                                    2a ea 46 01|            *.F.|      [28]: "1992-10-25T07:00:17Z" (719996417) transition_time 0x9c-0xa0 (4)
0x0a0|2b be 95 91                                    |+...            |      [29]: "1993-04-04T08:00:17Z" (733910417) transition_time 0xa0-0xa4 (4)
0x0a0|            2c d3 62 82                        |    ,.b.        |      [30]: "1993-10-31T07:00:18Z" (752050818) transition_time 0xa4-0xa8 (4)
0x0a0|                        2d 9e 77 92            |        -.w.    |      [31]: "1994-04-03T08:00:18Z" (765360018) transition_time 0xa8-0xac (4)
0x0a0|                                    2e b3 44 83|            ..D.|      [32]: "1994-10-30T07:00:19Z" (783500419) transition_time 0xac-0xb0 (4)
0x0b0|2f 7e 59 93                                    |/~Y.            |      [33]: "1995-04-02T08:00:19Z" (796809619) transition_time 0xb0-0xb4 (4)
0x0b0|            30 93 26 83                        |    0.&.        |      [34]: "1995-10-29T07:00:19Z" (814950019) transition_time 0xb4-0xb8 (4)
0x0b0|                        31 67 76 14            |        1gv.    |      [35]: "1996-04-07T08:00:20Z" (828864020) transition_time 0xb8-0xbc (4)
0x0b0|                                    32 73 08 84|            2s..|      [36]: "1996-10-27T07:00:20Z" (846399620) transition_time 0xbc-0xc0 (4)
0x0c0|33 47 58 14                                    |3GX.            |      [37]: "1997-04-06T08:00:20Z" (860313620) transition_time 0xc0-0xc4 (4)
0x0c0|            34 52 ea 85                        |    4R..        |      [38]: "1997-10-26T07:00:21Z" (877849221) transition_time 0xc4-0xc8 (4)
0x0c0|                        35 27 3a 15            |        5':.    |      [39]: "1998-04-05T08:00:21Z" (891763221) transition_time 0xc8-0xcc (4)
0x0c0|                                    36 32 cc 85|            62..|      [40]: "1998-10-25T07:00:21Z" (909298821) transition_time 0xcc-0xd0 (4)
0x0d0|37 07 1c 16                                    |7...            |      [41]: "1999-04-04T08:00:22Z" (923212822) transition_time 0xd0-0xd4 (4)
0x0d0|            38 1b e9 06                        |    8...        |      [42]: "1999-10-31T07:00:22Z" (941353222) transition_time 0xd4-0xd8 (4)
0x0d0|                        38 e6 fe 16            |        8...    |      [43]: "2000-04-02T08:00:22Z" (954662422) transition_time 0xd8-0xdc (4)
0x0d0|                                    39 fb cb 06|            9...|      [44]: "2000-10-29T07:00:22Z" (972802822) transition_time 0xdc-0xe0 (4)
0x0e0|3a c6 e0 16                                    |:...            |      [45]: "2001-04-01T08:00:22Z" (986112022) transition_time 0xe0-0xe4 (4)
0x0e0|            3b db ad 06                        |    ;...        |      [46]: "2001-10-28T07:00:22Z" (1004252422) transition_time 0xe4-0xe8 (4)
0x0e0|                        3c af fc 96            |        <...    |      [47]: "2002-04-07T08:00:22Z" (1018166422) transition_time 0xe8-0xec (4)
0x0e0|                                    3d bb 8f 06|            =...|      [48]: "2002-10-27T07:00:22Z" (1035702022) transition_time 0xec-0xf0 (4)
0x0f0|3e 8f de 96                                    |>...            |      [49]: "2003-04-06T08:00:22Z" (1049616022) transition_time 0xf0-0xf4 (4)
0x0f0|            3f 9b 71 06                        |    ?.q.        |      [50]: "2003-10-26T07:00:22Z" (1067151622) transition_time 0xf4-0xf8 (4)
0x0f0|                        40 6f c0 96            |        @o..    |      [51]: "2004-04-04T08:00:22Z" (1081065622) transition_time 0xf8-0xfc (4)
0x0f0|                                    41 84 8d 86|            A...|      [52]: "2004-10-31T07:00:22Z" (1099206022) transition_time 0xfc-0x100 (4)
0x100|42 4f a2 96                                    |BO..            |      [53]: "2005-04-03T08:00:22Z" (1112515222) transition_time 0x100-0x104 (4)
0x100|            43 64 6f 86                        |    Cdo.        |      [54]: "2005-10-30T07:00:22Z" (1130655622) transition_time 0x104-0x108 (4)
0x100|                        44 2f 84 97            |        D/..    |      [55]: "2006-04-02T08:00:23Z" (1143964823) transition_time 0x108-0x10c (4)
0x100|                                    45 44 51 87|            EDQ.|      [56]: "2006-10-29T07:00:23Z" (1162105223) transition_time 0x10c-0x110 (4)
0x110|45 f3 b7 17                                    |E...            |      [57]: "2007-03-11T08:00:23Z" (1173600023) transition_time 0x110-0x114 (4)
0x110|            47 2d 6e 07                        |    G-n.        |      [58]: "2007-11-04T07:00:23Z" (1194159623) transition_time 0x114-0x118 (4)
0x110|                        47 d3 99 17            |        G...    |      [59]: "2008-03-09T08:00:23Z" (1205049623) transition_time 0x118-0x11c (4)
0x110|                                    49 0d 50 07|            I.P.|      [60]: "2008-11-02T07:00:23Z" (1225609223) transition_time 0x11c-0x120 (4)
0x120|49 b3 7b 18                                    |I.{.            |      [61]: "2009-03-08T08:00:24Z" (1236499224) transition_time 0x120-0x124 (4)
0x120|            4a ed 32 08                        |    J.2.        |      [62]: "2009-11-01T07:00:24Z" (1257058824) transition_time 0x124-0x128 (4)
0x120|                        4b 9c 97 98            |        K...    |      [63]: "2010-03-14T08:00:24Z" (1268553624) transition_time 0x128-0x12c (4)
0x120|                                    4c d6 4e 88|            L.N.|      [64]: "2010-11-07T07:00:24Z" (1289113224) transition_time 0x12c-0x130 (4)
0x130|4d 7c 79 98                                    |M|y.            |      [65]: "2011-03-13T08:00:24Z" (1300003224) transition_time 0x130-0x134 (4)
0x130|            4e b6 30 88                        |    N.0.        |      [66]: "2011-11-06T07:00:24Z" (1320562824) transition_time 0x134-0x138 (4)
0x130|                        4f 5c 5b 98            |        O\[.    |      [67]: "2012-03-11T08:00:24Z" (1331452824) transition_time 0x138-0x13c (4)
0x130|                                    50 96 12 89|            P...|      [68]: "2012-11-04T07:00:25Z" (1352012425) transition_time 0x13c-0x140 (4)
0x140|51 3c 3d 99                                    |Q<=.            |      [69]: "2013-03-10T08:00:25Z" (1362902425) transition_time 0x140-0x144 (4)
0x140|            52 75 f4 89                        |    Ru..        |      [70]: "2013-11-03T07:00:25Z" (1383462025) transition_time 0x144-0x148 (4)
0x140|                        53 1c 1f 99            |        S...    |      [71]: "2014-03-09T08:00:25Z" (1394352025) transition_time 0x148-0x14c (4)
0x140|                                    54 55 d6 89|            TU..|      [72]: "2014-11-02T07:00:25Z" (1414911625) transition_time 0x14c-0x150 (4)
0x150|54 fc 01 99                                    |T...            |      [73]: "2015-03-08T08:00:25Z" (1425801625) transition_time 0x150-0x154 (4)
0x150|            56 35 b8 8a                        |    V5..        |      [74]: "2015-11-01T07:00:26Z" (1446361226) transition_time 0x154-0x158 (4)
0x150|                        56 e5 1e 1a            |        V...    |      [75]: "2016-03-13T08:00:26Z" (1457856026) transition_time 0x158-0x15c (4)
0x150|                                    58 1e d5 0a|            X...|      [76]: "2016-11-06T07:00:26Z" (1478415626) transition_time 0x15c-0x160 (4)
0x160|58 c5 00 1b                                    |X...            |      [77]: "2017-03-12T08:00:27Z" (1489305627) transition_time 0x160-0x164 (4)
0x160|            59 fe b7 0b                        |    Y...        |      [78]: "2017-11-05T07:00:27Z" (1509865227) transition_time 0x164-0x168 (4)
0x160|                        5a a4 e2 1b            |        Z...    |      [79]: "2018-03-11T08:00:27Z" (1520755227) transition_time 0x168-0x16c (4)
0x160|                                    5b de 99 0b|            [...|      [80]: "2018-11-04T07:00:27Z" (1541314827) transition_time 0x16c-0x170 (4)
0x170|5c 84 c4 1b                                    |\...            |      [81]: "2019-03-10T08:00:27Z" (1552204827) transition_time 0x170-0x174 (4)
0x170|            5d be 7b 0b                        |    ].{.        |      [82]: "2019-11-03T07:00:27Z" (1572764427) transition_time 0x174-0x178 (4)
0x170|                        5e 64 a6 1b            |        ^d..    |      [83]: "2020-03-08T08:00:27Z" (1583654427) transition_time 0x178-0x17c (4)
0x170|                                    5f 9e 5d 0b|            _.].|      [84]: "2020-11-01T07:00:27Z" (1604214027) transition_time 0x17c-0x180 (4)
0x180|60 4d c2 9b                                    |`M..            |      [85]: "2021-03-14T08:00:27Z" (1615708827) transition_time 0x180-0x184 (4)
0x180|            61 87 79 8b                        |    a.y.        |      [86]: "2021-11-07T07:00:27Z" (1636268427) transition_time 0x184-0x188 (4)
0x180|                        62 2d a4 9b            |        b-..    |      [87]: "2022-03-13T08:00:27Z" (1647158427) transition_time 0x188-0x18c (4)
0x180|                                    63 67 5b 8b|            cg[.|      [88]: "2022-11-06T07:00:27Z" (1667718027) transition_time 0x18c-0x190 (4)
0x190|64 0d 86 9b                                    |d...            |      [89]: "2023-03-12T08:00:27Z" (1678608027) transition_time 0x190-0x194 (4)
0x190|            64 9b 78 1b                        |    d.x.        |      [90]: "2023-06-28T00:00:27Z" (1687910427) transition_time 0x194-0x198 (4)
     |                                               |                |    transition_types[0:91]: 0x198-0x1f3 (91)
0x190|                        02                     |        .       |      [0]: 2 transition_type 0x198-0x199 (1)
0x190|                           01                  |         .      |      [1]: 1 transition_type 0x199-0x19a (1)
0x190|                              02               |          .     |      [2]: 2 transition_type 0x19a-0x19b (1)
0x190|                                 03            |           .    |      [3]: 3 transition_type 0x19b-0x19c (1)
0x190|                                    02         |            .   |      [4]: 2 transition_type 0x19c-0x19d (1)
0x190|                                       03      |             .  |      [5]: 3 transition_type 0x19d-0x19e (1)
0x190|                                          02   |              . |      [6]: 2 transition_type 0x19e-0x19f (1)
0x190|                                             03|               .|      [7]: 3 transition_type 0x19f-0x1a0 (1)
0x1a0|02                                             |.               |      [8]: 2 transition_type 0x1a0-0x1a1 (1)
0x1a0|   03                                          | .              |      [9]: 3 transition_type 0x1a1-0x1a2 (1)
0x1a0|      02                                       |  .             |      [10]: 2 transition_type 0x1a2-0x1a3 (1)
0x1a0|         03                                    |   .            |      [11]: 3 transition_type 0x1a3-0x1a4 (1)
0x1a0|            02                                 |    .           |      [12]: 2 transition_type 0x1a4-0x1a5 (1)
0x1a0|               03                              |     .          |      [13]: 3 transition_type 0x1a5-0x1a6 (1)
0x1a0|                  02                           |      .         |      [14]: 2 transition_type 0x1a6-0x1a7 (1)
0x1a0|                     03                        |       .        |      [15]: 3 transition_type 0x1a7-0x1a8 (1)
0x1a0|                        02                     |        .       |      [16]: 2 transition_type 0x1a8-0x1a9 (1)
0x1a0|                           03                  |         .      |      [17]: 3 transition_type 0x1a9-0x1aa (1)
0x1a0|                              02               |          .     |      [18]: 2 transition_type 0x1aa-0x1ab (1)
0x1a0|                                 03            |           .    |      [19]: 3 transition_type 0x1ab-0x1ac (1)
0x1a0|                                    02         |            .   |      [20]: 2 transition_type 0x1ac-0x1ad (1)
0x1a0|                                       03      |             .  |      [21]: 3 transition_type 0x1ad-0x1ae (1)
0x1a0|                                          02   |              . |      [22]: 2 transition_type 0x1ae-0x1af (1)
0x1a0|                                             03|               .|      [23]: 3 transition_type 0x1af-0x1b0 (1)
0x1b0|02                                             |.               |      [24]: 2 transition_type 0x1b0-0x1b1 (1)
0x1b0|   03                                          | .              |      [25]: 3 transition_type 0x1b1-0x1b2 (1)
0x1b0|      02                                       |  .             |      [26]: 2 transition_type 0x1b2-0x1b3 (1)
0x1b0|         03                                    |   .            |      [27]: 3 transition_type 0x1b3-0x1b4 (1)
0x1b0|            02                                 |    .           |      [28]: 2 transition_type 0x1b4-0x1b5 (1)
0x1b0|               03                              |     .          |      [29]: 3 transition_type 0x1b5-0x1b6 (1)
0x1b0|                  02                           |      .         |      [30]: 2 transition_type 0x1b6-0x1b7 (1)
0x1b0|                     03                        |       .        |      [31]: 3 transition_type 0x1b7-0x1b8 (1)
0x1b0|                        02                     |        .       |      [32]: 2 transition_type 0x1b8-0x1b9 (1)
0x1b0|                           03                  |         .      |      [33]: 3 transition_type 0x1b9-0x1ba (1)
0x1b0|                              02               |          .     |      [34]: 2 transition_type 0x1ba-0x1bb (1)
0x1b0|                                 03            |           .    |      [35]: 3 transition_type 0x1bb-0x1bc (1)
0x1b0|                                    02         |            .   |      [36]: 2 transition_type 0x1bc-0x1bd (1)
0x1b0|                                       03      |             .  |      [37]: 3 transition_type 0x1bd-0x1be (1)
0x1b0|                                          02   |              . |      [38]: 2 transition_type 0x1be-0x1bf (1)
0x1b0|                                             03|               .|      [39]: 3 transition_type 0x1bf-0x1c0 (1)
0x1c0|02                                             |.               |      [40]: 2 transition_type 0x1c0-0x1c1 (1)
0x1c0|   03                                          | .              |      [41]: 3 transition_type 0x1c1-0x1c2 (1)
0x1c0|      02                                       |  .             |      [42]: 2 transition_type 0x1c2-0x1c3 (1)
0x1c0|         03                                    |   .            |      [43]: 3 transition_type 0x1c3-0x1c4 (1)
0x1c0|            04                                 |    .           |      [44]: 4 transition_type 0x1c4-0x1c5 (1)
0x1c0|               03                              |     .          |      [45]: 3 transition_type 0x1c5-0x1c6 (1)
0x1c0|                  02                           |      .         |      [46]: 2 transition_type 0x1c6-0x1c7 (1)
0x1c0|                     03                        |       .        |      [47]: 3 transition_type 0x1c7-0x1c8 (1)
0x1c0|                        02                     |        .       |      [48]: 2 transition_type 0x1c8-0x1c9 (1)
0x1c0|                           03                  |         .      |      [49]: 3 transition_type 0x1c9-0x1ca (1)
0x1c0|                              02               |          .     |      [50]: 2 transition_type 0x1ca-0x1cb (1)
0x1c0|                                 03            |           .    |      [51]: 3 transition_type 0x1cb-0x1cc (1)
0x1c0|                                    02         |            .   |      [52]: 2 transition_type 0x1cc-0x1cd (1)
0x1c0|                                       03      |             .  |      [53]: 3 transition_type 0x1cd-0x1ce (1)
0x1c0|                                          02   |              . |      [54]: 2 transition_type 0x1ce-0x1cf (1)
0x1c0|                                             03|               .|      [55]: 3 transition_type 0x1cf-0x1d0 (1)
0x1d0|04                                             |.               |      [56]: 4 transition_type 0x1d0-0x1d1 (1)
0x1d0|   03                                          | .              |      [57]: 3 transition_type 0x1d1-0x1d2 (1)
0x1d0|      02                                       |  .             |      [58]: 2 transition_type 0x1d2-0x1d3 (1)
0x1d0|         03                                    |   .            |      [59]: 3 transition_type 0x1d3-0x1d4 (1)
0x1d0|            02                                 |    .           |      [60]: 2 transition_type 0x1d4-0x1d5 (1)
0x1d0|               03                              |     .          |      [61]: 3 transition_type 0x1d5-0x1d6 (1)
0x1d0|                  02                           |      .         |      [62]: 2 transition_type 0x1d6-0x1d7 (1)
0x1d0|                     03                        |       .        |      [63]: 3 transition_type 0x1d7-0x1d8 (1)
0x1d0|                        02                     |        .       |      [64]: 2 transition_type 0x1d8-0x1d9 (1)
0x1d0|                           03                  |         .      |      [65]: 3 transition_type 0x1d9-0x1da (1)
0x1d0|                              02               |          .     |      [66]: 2 transition_type 0x1da-0x1db (1)
0x1d0|                                 03            |           .    |      [67]: 3 transition_type 0x1db-0x1dc (1)
0x1d0|                                    02         |            .   |      [68]: 2 transition_type 0x1dc-0x1dd (1)
0x1d0|                                       03      |             .  |      [69]: 3 transition_type 0x1dd-0x1de (1)
0x1d0|                                          02   |              . |      [70]: 2 transition_type 0x1de-0x1df (1)
0x1d0|                                             03|               .|      [71]: 3 transition_type 0x1df-0x1e0 (1)
0x1e0|02                                             |.               |      [72]: 2 transition_type 0x1e0-0x1e1 (1)
0x1e0|   03                                          | .              |      [73]: 3 transition_type 0x1e1-0x1e2 (1)
0x1e0|      02                                       |  .             |      [74]: 2 transition_type 0x1e2-0x1e3 (1)
0x1e0|         03                                    |   .            |      [75]: 3 transition_type 0x1e3-0x1e4 (1)
0x1e0|            02                                 |    .           |      [76]: 2 transition_type 0x1e4-0x1e5 (1)
0x1e0|               03                              |     .          |      [77]: 3 transition_type 0x1e5-0x1e6 (1)
0x1e0|                  02                           |      .         |      [78]: 2 transition_type 0x1e6-0x1e7 (1)
0x1e0|                     03                        |       .        |      [79]: 3 transition_type 0x1e7-0x1e8 (1)
0x1e0|                        02                     |        .       |      [80]: 2 transition_type 0x1e8-0x1e9 (1)
0x1e0|                           03                  |         .      |      [81]: 3 transition_type 0x1e9-0x1ea (1)
0x1e0|                              02               |          .     |      [82]: 2 transition_type 0x1ea-0x1eb (1)
0x1e0|                                 03            |           .    |      [83]: 3 transition_type 0x1eb-0x1ec (1)
0x1e0|                                    02         |            .   |      [84]: 2 transition_type 0x1ec-0x1ed (1)
0x1e0|                                       03      |             .  |      [85]: 3 transition_type 0x1ed-0x1ee (1)
0x1e0|                                          02   |              . |      [86]: 2 transition_type 0x1ee-0x1ef (1)
0x1e0|                                             03|               .|      [87]: 3 transition_type 0x1ef-0x1f0 (1)
0x1f0|02                                             |.               |      [88]: 2 transition_type 0x1f0-0x1f1 (1)
0x1f0|   03                                          | .              |      [89]: 3 transition_type 0x1f1-0x1f2 (1)
0x1f0|      03                                       |  .             |      [90]: 3 transition_type 0x1f2-0x1f3 (1)
     |                                               |                |    local_time_type_records[0:6]: 0x1f3-0x217 (36)
     |                                               |                |      [0]{}: local_time_type 0x1f3-0x1f9 (6)
0x1f0|         00 00 00 00                           |   ....         |        utoff: 0 (valid) 0x1f3-0x1f7 (4)
0x1f0|                     00                        |       .        |        dst: 0 (valid) 0x1f7-0x1f8 (1)
0x1f0|                        00                     |        .       |        idx: 0 (valid) 0x1f8-0x1f9 (1)
     |                                               |                |      [1]{}: local_time_type 0x1f9-0x1ff (6)
0x1f0|                           ff ff c7 c0         |         ....   |        utoff: -14400 (valid) 0x1f9-0x1fd (4)
0x1f0|                                       01      |             .  |        dst: 1 (valid) 0x1fd-0x1fe (1)
0x1f0|                                          04   |              . |        idx: 4 (valid) 0x1fe-0x1ff (1)
     |                                               |                |      [2]{}: local_time_type 0x1ff-0x205 (6)
0x1f0|                                             ff|               .|        utoff: -21600 (valid) 0x1ff-0x203 (4)
0x200|ff ab a0                                       |...             |
0x200|         00                                    |   .            |        dst: 0 (valid) 0x203-0x204 (1)
0x200|            09                                 |    .           |        idx: 9 (valid) 0x204-0x205 (1)
     |                                               |                |      [3]{}: local_time_type 0x205-0x20b (6)
0x200|               ff ff b9 b0                     |     ....       |        utoff: -18000 (valid) 0x205-0x209 (4)
0x200|                           01                  |         .      |        dst: 1 (valid) 0x209-0x20a (1)
0x200|                              0d               |          .     |        idx: 13 (valid) 0x20a-0x20b (1)
     |                                               |                |      [4]{}: local_time_type 0x20b-0x211 (6)
0x200|                                 ff ff b9 b0   |           .... |        utoff: -18000 (valid) 0x20b-0x20f (4)
0x200|                                             00|               .|        dst: 0 (valid) 0x20f-0x210 (1)
0x210|11                                             |.               |        idx: 17 (valid) 0x210-0x211 (1)
     |                                               |                |      [5]{}: local_time_type 0x211-0x217 (6)
0x210|   ff ff ab a0                                 | ....           |        utoff: -21600 (valid) 0x211-0x215 (4)
0x210|               00                              |     .          |        dst: 0 (valid) 0x215-0x216 (1)
0x210|                  09                           |      .         |        idx: 9 (valid) 0x216-0x217 (1)
     |                                               |                |    time_zone_designations[0:5]: 0x217-0x22c (21)
0x210|                     2d 30 30 00               |       -00.     |      [0]: "-00" time_zone_designation 0x217-0x21b (4)
0x210|                                 43 44 44 54 00|           CDDT.|      [1]: "CDDT" time_zone_designation 0x21b-0x220 (5)
0x220|43 53 54 00                                    |CST.            |      [2]: "CST" time_zone_designation 0x220-0x224 (4)
0x220|            43 44 54 00                        |    CDT.        |      [3]: "CDT" time_zone_designation 0x224-0x228 (4)
0x220|                        45 53 54 00            |        EST.    |      [4]: "EST" time_zone_designation 0x228-0x22c (4)
     |                                               |                |    leap_second_records[0:27]: 0x22c-0x304 (216)
     |                                               |                |      [0]{}: leap_second_record 0x22c-0x234 (8)
0x220|                                    04 b2 58 00|            ..X.|        occur: "1972-07-01T00:00:00Z" (78796800) 0x22c-0x230 (4)
0x230|00 00 00 01                                    |....            |        corr: 1 0x230-0x234 (4)
     |                                               |                |      [1]{}: leap_second_record 0x234-0x23c (8)
0x230|            05 a4 ec 01                        |    ....        |        occur: "1973-01-01T00:00:01Z" (94694401) 0x234-0x238 (4)
0x230|                        00 00 00 02            |        ....    |        corr: 2 0x238-0x23c (4)
     |                                               |                |      [2]{}: leap_second_record 0x23c-0x244 (8)
0x230|                                    07 86 1f 82|            ....|        occur: "1974-01-01T00:00:02Z" (126230402) 0x23c-0x240 (4)
0x240|00 00 00 03                                    |....            |        corr: 3 0x240-0x244 (4)
     |                                               |                |      [3]{}: leap_second_record 0x244-0x24c (8)
0x240|            09 67 53 03                        |    .gS.        |        occur: "1975-01-01T00:00:03Z" (157766403) 0x244-0x248 (4)
0x240|                        00 00 00 04            |        ....    |        corr: 4 0x248-0x24c (4)
     |                                               |                |      [4]{}: leap_second_record 0x24c-0x254 (8)
0x240|                                    0b 48 86 84|            .H..|        occur: "1976-01-01T00:00:04Z" (189302404) 0x24c-0x250 (4)
0x250|00 00 00 05                                    |....            |        corr: 5 0x250-0x254 (4)
     |                                               |                |      [5]{}: leap_second_record 0x254-0x25c (8)
0x250|            0d 2b 0b 85                        |    .+..        |        occur: "1977-01-01T00:00:05Z" (220924805) 0x254-0x258 (4)
0x250|                        00 00 00 06            |        ....    |        corr: 6 0x258-0x25c (4)
     |                                               |                |      [6]{}: leap_second_record 0x25c-0x264 (8)
0x250|                                    0f 0c 3f 06|            ..?.|        occur: "1978-01-01T00:00:06Z" (252460806) 0x25c-0x260 (4)
0x260|00 00 00 07                                    |....            |        corr: 7 0x260-0x264 (4)
     |                                               |                |      [7]{}: leap_second_record 0x264-0x26c (8)
0x260|            10 ed 72 87                        |    ..r.        |        occur: "1979-01-01T00:00:07Z" (283996807) 0x264-0x268 (4)
0x260|                        00 00 00 08            |        ....    |        corr: 8 0x268-0x26c (4)
     |                                               |                |      [8]{}: leap_second_record 0x26c-0x274 (8)
0x260|                                    12 ce a6 08|            ....|        occur: "1980-01-01T00:00:08Z" (315532808) 0x26c-0x270 (4)
0x270|00 00 00 09                                    |....            |        corr: 9 0x270-0x274 (4)
     |                                               |                |      [9]{}: leap_second_record 0x274-0x27c (8)
0x270|            15 9f ca 89                        |    ....        |        occur: "1981-07-01T00:00:09Z" (362793609) 0x274-0x278 (4)
0x270|                        00 00 00 0a            |        ....    |        corr: 10 0x278-0x27c (4)
     |                                               |                |      [10]{}: leap_second_record 0x27c-0x284 (8)
0x270|                                    17 80 fe 0a|            ....|        occur: "1982-07-01T00:00:10Z" (394329610) 0x27c-0x280 (4)
0x280|00 00 00 0b                                    |....            |        corr: 11 0x280-0x284 (4)
     |                                               |                |      [11]{}: leap_second_record 0x284-0x28c (8)
0x280|            19 62 31 8b                        |    .b1.        |        occur: "1983-07-01T00:00:11Z" (425865611) 0x284-0x288 (4)
0x280|                        00 00 00 0c            |        ....    |        corr: 12 0x288-0x28c (4)
     |                                               |                |      [12]{}: leap_second_record 0x28c-0x294 (8)
0x280|                                    1d 25 ea 0c|            .%..|        occur: "1985-07-01T00:00:12Z" (489024012) 0x28c-0x290 (4)
0x290|00 00 00 0d                                    |....            |        corr: 13 0x290-0x294 (4)
     |                                               |                |      [13]{}: leap_second_record 0x294-0x29c (8)
0x290|            21 da e5 0d                        |    !...        |        occur: "1988-01-01T00:00:13Z" (567993613) 0x294-0x298 (4)
0x290|                        00 00 00 0e            |        ....    |        corr: 14 0x298-0x29c (4)
     |                                               |                |      [14]{}: leap_second_record 0x29c-0x2a4 (8)
0x290|                                    25 9e 9d 8e|            %...|        occur: "1990-01-01T00:00:14Z" (631152014) 0x29c-0x2a0 (4)
0x2a0|00 00 00 0f                                    |....            |        corr: 15 0x2a0-0x2a4 (4)
     |                                               |                |      [15]{}: leap_second_record 0x2a4-0x2ac (8)
0x2a0|            27 7f d1 0f                        |    '...        |        occur: "1991-01-01T00:00:15Z" (662688015) 0x2a4-0x2a8 (4)
0x2a0|                        00 00 00 10            |        ....    |        corr: 16 0x2a8-0x2ac (4)
     |                                               |                |      [16]{}: leap_second_record 0x2ac-0x2b4 (8)
0x2a0|                                    2a 50 f5 90|            *P..|        occur: "1992-07-01T00:00:16Z" (709948816) 0x2ac-0x2b0 (4)
0x2b0|00 00 00 11                                    |....            |        corr: 17 0x2b0-0x2b4 (4)
     |                                               |                |      [17]{}: leap_second_record 0x2b4-0x2bc (8)
0x2b0|            2c 32 29 11                        |    ,2).        |        occur: "1993-07-01T00:00:17Z" (741484817) 0x2b4-0x2b8 (4)
0x2b0|                        00 00 00 12            |        ....    |        corr: 18 0x2b8-0x2bc (4)
     |                                               |                |      [18]{}: leap_second_record 0x2bc-0x2c4 (8)
0x2b0|                                    2e 13 5c 92|            ..\.|        occur: "1994-07-01T00:00:18Z" (773020818) 0x2bc-0x2c0 (4)
0x2c0|00 00 00 13                                    |....            |        corr: 19 0x2c0-0x2c4 (4)
     |                                               |                |      [19]{}: leap_second_record 0x2c4-0x2cc (8)
0x2c0|            30 e7 24 13                        |    0.$.        |        occur: "1996-01-01T00:00:19Z" (820454419) 0x2c4-0x2c8 (4)
0x2c0|                        00 00 00 14            |        ....    |        corr: 20 0x2c8-0x2cc (4)
     |                                               |                |      [20]{}: leap_second_record 0x2cc-0x2d4 (8)
0x2c0|                                    33 b8 48 94|            3.H.|        occur: "1997-07-01T00:00:20Z" (867715220) 0x2cc-0x2d0 (4)
0x2d0|00 00 00 15                                    |....            |        corr: 21 0x2d0-0x2d4 (4)
     |                                               |                |      [21]{}: leap_second_record 0x2d4-0x2dc (8)
0x2d0|            36 8c 10 15                        |    6...        |        occur: "1999-01-01T00:00:21Z" (915148821) 0x2d4-0x2d8 (4)
0x2d0|                        00 00 00 16            |        ....    |        corr: 22 0x2d8-0x2dc (4)
     |                                               |                |      [22]{}: leap_second_record 0x2dc-0x2e4 (8)
0x2d0|                                    43 b7 1b 96|            C...|        occur: "2006-01-01T00:00:22Z" (1136073622) 0x2dc-0x2e0 (4)
0x2e0|00 00 00 17                                    |....            |        corr: 23 0x2e0-0x2e4 (4)
     |                                               |                |      [23]{}: leap_second_record 0x2e4-0x2ec (8)
0x2e0|            49 5c 07 97                        |    I\..        |        occur: "2009-01-01T00:00:23Z" (1230768023) 0x2e4-0x2e8 (4)
0x2e0|                        00 00 00 18            |        ....    |        corr: 24 0x2e8-0x2ec (4)
     |                                               |                |      [24]{}: leap_second_record 0x2ec-0x2f4 (8)
0x2e0|                                    4f ef 93 18|            O...|        occur: "2012-07-01T00:00:24Z" (1341100824) 0x2ec-0x2f0 (4)
0x2f0|00 00 00 19                                    |....            |        corr: 25 0x2f0-0x2f4 (4)
     |                                               |                |      [25]{}: leap_second_record 0x2f4-0x2fc (8)
0x2f0|            55 93 2d 99                        |    U.-.        |        occur: "2015-07-01T00:00:25Z" (1435708825) 0x2f4-0x2f8 (4)
0x2f0|                        00 00 00 1a            |        ....    |        corr: 26 0x2f8-0x2fc (4)
     |                                               |                |      [26]{}: leap_second_record 0x2fc-0x304 (8)
0x2f0|                                    58 68 46 9a|            XhF.|        occur: "2017-01-01T00:00:26Z" (1483228826) 0x2fc-0x300 (4)
0x300|00 00 00 1b                                    |....            |        corr: 27 0x300-0x304 (4)
     |                                               |                |    standard_wall_indicators[0:0]: 0x304-0x304 (0)
     |                                               |                |    ut_local_indicators[0:0]: 0x304-0x304 (0)
     |                                               |                |  v2plusheader{}: 0x304-0x330 (44)
0x300|            54 5a 69 66                        |    TZif        |    magic: 0x545a6966 (valid) 0x304-0x308 (4)
0x300|                        32                     |        2       |    ver: "2" (0x32) (valid) 0x308-0x309 (1)
0x300|                           00 00 00 00 00 00 00|         .......|    reserved: raw bits 0x309-0x318 (15)
0x310|00 00 00 00 00 00 00 00                        |........        |
0x310|                        00 00 00 00            |        ....    |    isutcnt: 0 0x318-0x31c (4)
0x310|                                    00 00 00 00|            ....|    isstdcnt: 0 0x31c-0x320 (4)
0x320|00 00 00 1b                                    |....            |    leapcnt: 27 0x320-0x324 (4)
0x320|            00 00 00 5b                        |    ...[        |    timecnt: 91 0x324-0x328 (4)
0x320|                        00 00 00 06            |        ....    |    typecnt: 6 0x328-0x32c (4)
0x320|                                    00 00 00 15|            ....|    charcnt: 21 0x32c-0x330 (4)
     |                                               |                |  v2plusdatablock{}: 0x330-0x7e0 (1200)
     |                                               |                |    transition_times[0:91]: 0x330-0x608 (728)
0x330|ff ff ff ff d5 fb 81 80                        |........        |      [0]: "1947-08-31T00:00:00Z" (-704937600) transition_time 0x330-0x338 (8)
0x330|                        ff ff ff ff f7 2f 4c 60|        ...../L`|      [1]: "1965-04-25T06:00:00Z" (-147895200) transition_time 0x338-0x340 (8)
0x340|ff ff ff ff f8 28 77 e0                        |.....(w.        |      [2]: "1965-10-31T06:00:00Z" (-131565600) transition_time 0x340-0x348 (8)
0x340|                        00 00 00 00 13 69 56 09|        .....iV.|      [3]: "1980-04-27T08:00:09Z" (325670409) transition_time 0x348-0x350 (8)
0x350|00 00 00 00 14 59 38 f9                        |.....Y8.        |      [4]: "1980-10-26T07:00:09Z" (341391609) transition_time 0x350-0x358 (8)
0x350|                        00 00 00 00 15 49 38 09|        .....I8.|      [5]: "1981-04-26T08:00:09Z" (357120009) transition_time 0x358-0x360 (8)
0x360|00 00 00 00 16 39 1a fa                        |.....9..        |      [6]: "1981-10-25T07:00:10Z" (372841210) transition_time 0x360-0x368 (8)
0x360|                        00 00 00 00 17 29 1a 0a|        .....)..|      [7]: "1982-04-25T08:00:10Z" (388569610) transition_time 0x368-0x370 (8)
0x370|00 00 00 00 18 22 37 7b                        |....."7{        |      [8]: "1982-10-31T07:00:11Z" (404895611) transition_time 0x370-0x378 (8)
0x370|                        00 00 00 00 19 08 fc 0b|        ........|      [9]: "1983-04-24T08:00:11Z" (420019211) transition_time 0x378-0x380 (8)
0x380|00 00 00 00 1a 02 19 7c                        |.......|        |      [10]: "1983-10-30T07:00:12Z" (436345212) transition_time 0x380-0x388 (8)
0x380|                        00 00 00 00 1a f2 18 8c|        ........|      [11]: "1984-04-29T08:00:12Z" (452073612) transition_time 0x388-0x390 (8)
0x390|00 00 00 00 1b e1 fb 7c                        |.......|        |      [12]: "1984-10-28T07:00:12Z" (467794812) transition_time 0x390-0x398 (8)
0x390|                        00 00 00 00 1c d1 fa 8c|        ........|      [13]: "1985-04-28T08:00:12Z" (483523212) transition_time 0x398-0x3a0 (8)
0x3a0|00 00 00 00 1d c1 dd 7d                        |.......}        |      [14]: "1985-10-27T07:00:13Z" (499244413) transition_time 0x3a0-0x3a8 (8)
0x3a0|                        00 00 00 00 1e b1 dc 8d|        ........|      [15]: "1986-04-27T08:00:13Z" (514972813) transition_time 0x3a8-0x3b0 (8)
0x3b0|00 00 00 00 1f a1 bf 7d                        |.......}        |      [16]: "1986-10-26T07:00:13Z" (530694013) transition_time 0x3b0-0x3b8 (8)
0x3b0|                        00 00 00 00 20 76 0f 0d|        .... v..|      [17]: "1987-04-05T08:00:13Z" (544608013) transition_time 0x3b8-0x3c0 (8)
0x3c0|00 00 00 00 21 81 a1 7d                        |....!..}        |      [18]: "1987-10-25T07:00:13Z" (562143613) transition_time 0x3c0-0x3c8 (8)
0x3c0|                        00 00 00 00 22 55 f1 0e|        ...."U..|      [19]: "1988-04-03T08:00:14Z" (576057614) transition_time 0x3c8-0x3d0 (8)
0x3d0|00 00 00 00 23 6a bd fe                        |....#j..        |      [20]: "1988-10-30T07:00:14Z" (594198014) transition_time 0x3d0-0x3d8 (8)
0x3d0|                        00 00 00 00 24 35 d3 0e|        ....$5..|      [21]: "1989-04-02T08:00:14Z" (607507214) transition_time 0x3d8-0x3e0 (8)
0x3e0|00 00 00 00 25 4a 9f fe                        |....%J..        |      [22]: "1989-10-29T07:00:14Z" (625647614) transition_time 0x3e0-0x3e8 (8)
0x3e0|                        00 00 00 00 26 15 b5 0f|        ....&...|      [23]: "1990-04-01T08:00:15Z" (638956815) transition_time 0x3e8-0x3f0 (8)
0x3f0|00 00 00 00 27 2a 81 ff                        |....'*..        |      [24]: "1990-10-28T07:00:15Z" (657097215) transition_time 0x3f0-0x3f8 (8)
0x3f0|                        00 00 00 00 27 fe d1 90|        ....'...|      [25]: "1991-04-07T08:00:16Z" (671011216) transition_time 0x3f8-0x400 (8)
0x400|00 00 00 00 29 0a 64 00                        |....).d.        |      [26]: "1991-10-27T07:00:16Z" (688546816) transition_time 0x400-0x408 (8)
0x400|                        00 00 00 00 29 de b3 90|        ....)...|      [27]: "1992-04-05T08:00:16Z" (702460816) transition_time 0x408-0x410 (8)
0x410|00 00 00 00 2a ea 46 01                        |....*.F.        |      [28]: "1992-10-25T07:00:17Z" (719996417) transition_time 0x410-0x418 (8)
0x410|                        00 00 00 00 2b be 95 91|        ....+...|      [29]: "1993-04-04T08:00:17Z" (733910417) transition_time 0x418-0x420 (8)
0x420|00 00 00 00 2c d3 62 82                        |....,.b.        |      [30]: "1993-10-31T07:00:18Z" (752050818) transition_time 0x420-0x428 (8)
0x420|                        00 00 00 00 2d 9e 77 92|        ....-.w.|      [31]: "1994-04-03T08:00:18Z" (765360018) transition_time 0x428-0x430 (8)
0x430|00 00 00 00 2e b3 44 83                        |......D.        |      [32]: "1994-10-30T07:00:19Z" (783500419) transition_time 0x430-0x438 (8)
0x430|                        00 00 00 00 2f 7e 59 93|        ..../~Y.|      [33]: "1995-04-02T08:00:19Z" (796809619) transition_time 0x438-0x440 (8)
0x440|00 00 00 00 30 93 26 83                        |....0.&.        |      [34]: "1995-10-29T07:00:19Z" (814950019) transition_time 0x440-0x448 (8)
0x440|                        00 00 00 00 31 67 76 14|        ....1gv.|      [35]: "1996-04-07T08:00:20Z" (828864020) transition_time 0x448-0x450 (8)
0x450|00 00 00 00 32 73 08 84                        |....2s..        |      [36]: "1996-10-27T07:00:20Z" (846399620) transition_time 0x450-0x458 (8)
0x450|                        00 00 00 00 33 47 58 14|        ....3GX.|      [37]: "1997-04-06T08:00:20Z" (860313620) transition_time 0x458-0x460 (8)
0x460|00 00 00 00 34 52 ea 85                        |....4R..        |      [38]: "1997-10-26T07:00:21Z" (877849221) transition_time 0x460-0x468 (8)
0x460|                        00 00 00 00 35 27 3a 15|        ....5':.|      [39]: "1998-04-05T08:00:21Z" (891763221) transition_time 0x468-0x470 (8)
0x470|00 00 00 00 36 32 cc 85                        |....62..        |      [40]: "1998-10-25T07:00:21Z" (909298821) transition_time 0x470-0x478 (8)
0x470|                        00 00 00 00 37 07 1c 16|        ....7...|      [41]: "1999-04-04T08:00:22Z" (923212822) transition_time 0x478-0x480 (8)
0x480|00 00 00 00 38 1b e9 06                        |....8...        |      [42]: "1999-10-31T07:00:22Z" (941353222) transition_time 0x480-0x488 (8)
0x480|                        00 00 00 00 38 e6 fe 16|        ....8...|      [43]: "2000-04-02T08:00:22Z" (954662422) transition_time 0x488-0x490 (8)
0x490|00 00 00 00 39 fb cb 06                        |....9...        |      [44]: "2000-10-29T07:00:22Z" (972802822) transition_time 0x490-0x498 (8)
0x490|                        00 00 00 00 3a c6 e0 16|        ....:...|      [45]: "2001-04-01T08:00:22Z" (986112022) transition_time 0x498-0x4a0 (8)
0x4a0|00 00 00 00 3b db ad 06                        |....;...        |      [46]: "2001-10-28T07:00:22Z" (1004252422) transition_time 0x4a0-0x4a8 (8)
0x4a0|                        00 00 00 00 3c af fc 96|        ....<...|      [47]: "2002-04-07T08:00:22Z" (1018166422) transition_time 0x4a8-0x4b0 (8)
0x4b0|00 00 00 00 3d bb 8f 06                        |....=...        |      [48]: "2002-10-27T07:00:22Z" (1035702022) transition_time 0x4b0-0x4b8 (8)
0x4b0|                        00 00 00 00 3e 8f de 96|        ....>...|      [49]: "2003-04-06T08:00:22Z" (1049616022) transition_time 0x4b8-0x4c0 (8)
0x4c0|00 00 00 00 3f 9b 71 06                        |....?.q.        |      [50]: "2003-10-26T07:00:22Z" (1067151622) transition_time 0x4c0-0x4c8 (8)
0x4c0|                        00 00 00 00 40 6f c0 96|        ....@o..|      [51]: "2004-04-04T08:00:22Z" (1081065622) transition_time 0x4c8-0x4d0 (8)
0x4d0|00 00 00 00 41 84 8d 86                        |....A...        |      [52]: "2004-10-31T07:00:22Z" (1099206022) transition_time 0x4d0-0x4d8 (8)
0x4d0|                        00 00 00 00 42 4f a2 96|        ....BO..|      [53]: "2005-04-03T08:00:22Z" (1112515222) transition_time 0x4d8-0x4e0 (8)
0x4e0|00 00 00 00 43 64 6f 86                        |....Cdo.        |      [54]: "2005-10-30T07:00:22Z" (1130655622) transition_time 0x4e0-0x4e8 (8)
0x4e0|                        00 00 00 00 44 2f 84 97|        ....D/..|      [55]: "2006-04-02T08:00:23Z" (1143964823) transition_time 0x4e8-0x4f0 (8)
0x4f0|00 00 00 00 45 44 51 87                        |....EDQ.        |      [56]: "2006-10-29T07:00:23Z" (1162105223) transition_time 0x4f0-0x4f8 (8)
0x4f0|                        00 00 00 00 45 f3 b7 17|        ....E...|      [57]: "2007-03-11T08:00:23Z" (1173600023) transition_time 0x4f8-0x500 (8)
0x500|00 00 00 00 47 2d 6e 07                        |....G-n.        |      [58]: "2007-11-04T07:00:23Z" (1194159623) transition_time 0x500-0x508 (8)
0x500|                        00 00 00 00 47 d3 99 17|        ....G...|      [59]: "2008-03-09T08:00:23Z" (1205049623) transition_time 0x508-0x510 (8)
0x510|00 00 00 00 49 0d 50 07                        |....I.P.        |      [60]: "2008-11-02T07:00:23Z" (1225609223) transition_time 0x510-0x518 (8)
0x510|                        00 00 00 00 49 b3 7b 18|        ....I.{.|      [61]: "2009-03-08T08:00:24Z" (1236499224) transition_time 0x518-0x520 (8)
0x520|00 00 00 00 4a ed 32 08                        |....J.2.        |      [62]: "2009-11-01T07:00:24Z" (1257058824) transition_time 0x520-0x528 (8)
0x520|                        00 00 00 00 4b 9c 97 98|        ....K...|      [63]: "2010-03-14T08:00:24Z" (1268553624) transition_time 0x528-0x530 (8)
0x530|00 00 00 00 4c d6 4e 88                        |....L.N.        |      [64]: "2010-11-07T07:00:24Z" (1289113224) transition_time 0x530-0x538 (8)
0x530|                        00 00 00 00 4d 7c 79 98|        ....M|y.|      [65]: "2011-03-13T08:00:24Z" (1300003224) transition_time 0x538-0x540 (8)
0x540|00 00 00 00 4e b6 30 88                        |....N.0.        |      [66]: "2011-11-06T07:00:24Z" (1320562824) transition_time 0x540-0x548 (8)
0x540|                        00 00 00 00 4f 5c 5b 98|        ....O\[.|      [67]: "2012-03-11T08:00:24Z" (1331452824) transition_time 0x548-0x550 (8)
0x550|00 00 00 00 50 96 12 89                        |....P...        |      [68]: "2012-11-04T07:00:25Z" (1352012425) transition_time 0x550-0x558 (8)
0x550|                        00 00 00 00 51 3c 3d 99|        ....Q<=.|      [69]: "2013-03-10T08:00:25Z" (1362902425) transition_time 0x558-0x560 (8)
0x560|00 00 00 00 52 75 f4 89                        |....Ru..        |      [70]: "2013-11-03T07:00:25Z" (1383462025) transition_time 0x560-0x568 (8)
0x560|                        00 00 00 00 53 1c 1f 99|        ....S...|      [71]: "2014-03-09T08:00:25Z" (1394352025) transition_time 0x568-0x570 (8)
0x570|00 00 00 00 54 55 d6 89                        |....TU..        |      [72]: "2014-11-02T07:00:25Z" (1414911625) transition_time 0x570-0x578 (8)
0x570|                        00 00 00 00 54 fc 01 99|        ....T...|      [73]: "2015-03-08T08:00:25Z" (1425801625) transition_time 0x578-0x580 (8)
0x580|00 00 00 00 56 35 b8 8a                        |....V5..        |      [74]: "2015-11-01T07:00:26Z" (1446361226) transition_time 0x580-0x588 (8)
0x580|                        00 00 00 00 56 e5 1e 1a|        ....V...|      [75]: "2016-03-13T08:00:26Z" (1457856026) transition_time 0x588-0x590 (8)
0x590|00 00 00 00 58 1e d5 0a                        |....X...        |      [76]: "2016-11-06T07:00:26Z" (1478415626) transition_time 0x590-0x598 (8)
0x590|                        00 00 00 00 58 c5 00 1b|        ....X...|      [77]: "2017-03-12T08:00:27Z" (1489305627) transition_time 0x598-0x5a0 (8)
0x5a0|00 00 00 00 59 fe b7 0b                        |....Y...        |      [78]: "2017-11-05T07:00:27Z" (1509865227) transition_time 0x5a0-0x5a8 (8)
0x5a0|                        00 00 00 00 5a a4 e2 1b|        ....Z...|      [79]: "2018-03-11T08:00:27Z" (1520755227) transition_time 0x5a8-0x5b0 (8)
0x5b0|00 00 00 00 5b de 99 0b                        |....[...        |      [80]: "2018-11-04T07:00:27Z" (1541314827) transition_time 0x5b0-0x5b8 (8)
0x5b0|                        00 00 00 00 5c 84 c4 1b|        ....\...|      [81]: "2019-03-10T08:00:27Z" (1552204827) transition_time 0x5b8-0x5c0 (8)
0x5c0|00 00 00 00 5d be 7b 0b                        |....].{.        |      [82]: "2019-11-03T07:00:27Z" (1572764427) transition_time 0x5c0-0x5c8 (8)
0x5c0|                        00 00 00 00 5e 64 a6 1b|        ....^d..|      [83]: "2020-03-08T08:00:27Z" (1583654427) transition_time 0x5c8-0x5d0 (8)
0x5d0|00 00 00 00 5f 9e 5d 0b                        |...._.].        |      [84]: "2020-11-01T07:00:27Z" (1604214027) transition_time 0x5d0-0x5d8 (8)
0x5d0|                        00 00 00 00 60 4d c2 9b|        ....`M..|      [85]: "2021-03-14T08:00:27Z" (1615708827) transition_time 0x5d8-0x5e0 (8)
0x5e0|00 00 00 00 61 87 79 8b                        |....a.y.        |      [86]: "2021-11-07T07:00:27Z" (1636268427) transition_time 0x5e0-0x5e8 (8)
0x5e0|                        00 00 00 00 62 2d a4 9b|        ....b-..|      [87]: "2022-03-13T08:00:27Z" (1647158427) transition_time 0x5e8-0x5f0 (8)
0x5f0|00 00 00 00 63 67 5b 8b                        |....cg[.        |      [88]: "2022-11-06T07:00:27Z" (1667718027) transition_time 0x5f0-0x5f8 (8)
0x5f0|                        00 00 00 00 64 0d 86 9b|        ....d...|      [89]: "2023-03-12T08:00:27Z" (1678608027) transition_time 0x5f8-0x600 (8)
0x600|00 00 00 00 64 9b 78 1b                        |....d.x.        |      [90]: "2023-06-28T00:00:27Z" (1687910427) transition_time 0x600-0x608 (8)
     |                                               |                |    transition_types[0:91]: 0x608-0x663 (91)
0x600|                        02                     |        .       |      [0]: 2 transition_type 0x608-0x609 (1)
0x600|                           01                  |         .      |      [1]: 1 transition_type 0x609-0x60a (1)
0x600|                              02               |          .     |      [2]: 2 transition_type 0x60a-0x60b (1)
0x600|                                 03            |           .    |      [3]: 3 transition_type 0x60b-0x60c (1)
0x600|                                    02         |            .   |      [4]: 2 transition_type 0x60c-0x60d (1)
0x600|                                       03      |             .  |      [5]: 3 transition_type 0x60d-0x60e (1)
0x600|                                          02   |              . |      [6]: 2 transition_type 0x60e-0x60f (1)
0x600|                                             03|               .|      [7]: 3 transition_type 0x60f-0x610 (1)
0x610|02                                             |.               |      [8]: 2 transition_type 0x610-0x611 (1)
0x610|   03                                          | .              |      [9]: 3 transition_type 0x611-0x612 (1)
0x610|      02                                       |  .             |      [10]: 2 transition_type 0x612-0x613 (1)
0x610|         03                                    |   .            |      [11]: 3 transition_type 0x613-0x614 (1)
0x610|            02                                 |    .           |      [12]: 2 transition_type 0x614-0x615 (1)
0x610|               03                              |     .          |      [13]: 3 transition_type 0x615-0x616 (1)
0x610|                  02                           |      .         |      [14]: 2 transition_type 0x616-0x617 (1)
0x610|                     03                        |       .        |      [15]: 3 transition_type 0x617-0x618 (1)
0x610|                        02                     |        .       |      [16]: 2 transition_type 0x618-0x619 (1)
0x610|                           03                  |         .      |      [17]: 3 transition_type 0x619-0x61a (1)
0x610|                              02               |          .     |      [18]: 2 transition_type 0x61a-0x61b (1)
0x610|                                 03            |           .    |      [19]: 3 transition_type 0x61b-0x61c (1)
0x610|                                    02         |            .   |      [20]: 2 transition_type 0x61c-0x61d (1)
0x610|                                       03      |             .  |      [21]: 3 transition_type 0x61d-0x61e (1)
0x610|                                          02   |              . |      [22]: 2 transition_type 0x61e-0x61f (1)
0x610|                                             03|               .|      [23]: 3 transition_type 0x61f-0x620 (1)
0x620|02                                             |.               |      [24]: 2 transition_type 0x620-0x621 (1)
0x620|   03                                          | .              |      [25]: 3 transition_type 0x621-0x622 (1)
0x620|      02                                       |  .             |      [26]: 2 transition_type 0x622-0x623 (1)
0x620|         03                                    |   .            |      [27]: 3 transition_type 0x623-0x624 (1)
0x620|            02                                 |    .           |      [28]: 2 transition_type 0x624-0x625 (1)
0x620|               03                              |     .          |      [29]: 3 transition_type 0x625-0x626 (1)
0x620|                  02                           |      .         |      [30]: 2 transition_type 0x626-0x627 (1)
0x620|                     03                        |       .        |      [31]: 3 transition_type 0x627-0x628 (1)
0x620|                        02                     |        .       |      [32]: 2 transition_type 0x628-0x629 (1)
0x620|                           03                  |         .      |      [33]: 3 transition_type 0x629-0x62a (1)
0x620|                              02               |          .     |      [34]: 2 transition_type 0x62a-0x62b (1)
0x620|                                 03            |           .    |      [35]: 3 transition_type 0x62b-0x62c (1)
0x620|                                    02         |            .   |      [36]: 2 transition_type 0x62c-0x62d (1)
0x620|                                       03      |             .  |      [37]: 3 transition_type 0x62d-0x62e (1)
0x620|                                          02   |              . |      [38]: 2 transition_type 0x62e-0x62f (1)
0x620|                                             03|               .|      [39]: 3 transition_type 0x62f-0x630 (1)
0x630|02                                             |.               |      [40]: 2 transition_type 0x630-0x631 (1)
0x630|   03                                          | .              |      [41]: 3 transition_type 0x631-0x632 (1)
0x630|      02                                       |  .             |      [42]: 2 transition_type 0x632-0x633 (1)
0x630|         03                                    |   .            |      [43]: 3 transition_type 0x633-0x634 (1)
0x630|            04                                 |    .           |      [44]: 4 transition_type 0x634-0x635 (1)
0x630|               03                              |     .          |      [45]: 3 transition_type 0x635-0x636 (1)
0x630|                  02                           |      .         |      [46]: 2 transition_type 0x636-0x637 (1)
0x630|                     03                        |       .        |      [47]: 3 transition_type 0x637-0x638 (1)
0x630|                        02                     |        .       |      [48]: 2 transition_type 0x638-0x639 (1)
0x630|                           03                  |         .      |      [49]: 3 transition_type 0x639-0x63a (1)
0x630|                              02               |          .     |      [50]: 2 transition_type 0x63a-0x63b (1)
0x630|                                 03            |           .    |      [51]: 3 transition_type 0x63b-0x63c (1)
0x630|                                    02         |            .   |      [52]: 2 transition_type 0x63c-0x63d (1)
0x630|                                       03      |             .  |      [53]: 3 transition_type 0x63d-0x63e (1)
0x630|                                          02   |              . |      [54]: 2 transition_type 0x63e-0x63f (1)
0x630|                                             03|               .|      [55]: 3 transition_type 0x63f-0x640 (1)
0x640|04                                             |.               |      [56]: 4 transition_type 0x640-0x641 (1)
0x640|   03                                          | .              |      [57]: 3 transition_type 0x641-0x642 (1)
0x640|      02                                       |  .             |      [58]: 2 transition_type 0x642-0x643 (1)
0x640|         03                                    |   .            |      [59]: 3 transition_type 0x643-0x644 (1)
0x640|            02                                 |    .           |      [60]: 2 transition_type 0x644-0x645 (1)
0x640|               03                              |     .          |      [61]: 3 transition_type 0x645-0x646 (1)
0x640|                  02                           |      .         |      [62]: 2 transition_type 0x646-0x647 (1)
0x640|                     03                        |       .        |      [63]: 3 transition_type 0x647-0x648 (1)
0x640|                        02                     |        .       |      [64]: 2 transition_type 0x648-0x649 (1)
0x640|                           03                  |         .      |      [65]: 3 transition_type 0x649-0x64a (1)
0x640|                              02               |          .     |      [66]: 2 transition_type 0x64a-0x64b (1)
0x640|                                 03            |           .    |      [67]: 3 transition_type 0x64b-0x64c (1)
0x640|                                    02         |            .   |      [68]: 2 transition_type 0x64c-0x64d (1)
0x640|                                       03      |             .  |      [69]: 3 transition_type 0x64d-0x64e (1)
0x640|                                          02   |              . |      [70]: 2 transition_type 0x64e-0x64f (1)
0x640|                                             03|               .|      [71]: 3 transition_type 0x64f-0x650 (1)
0x650|02                                             |.               |      [72]: 2 transition_type 0x650-0x651 (1)
0x650|   03                                          | .              |      [73]: 3 transition_type 0x651-0x652 (1)
0x650|      02                                       |  .             |      [74]: 2 transition_type 0x652-0x653 (1)
0x650|         03                                    |   .            |      [75]: 3 transition_type 0x653-0x654 (1)
0x650|            02                                 |    .           |      [76]: 2 transition_type 0x654-0x655 (1)
0x650|               03                              |     .          |      [77]: 3 transition_type 0x655-0x656 (1)
0x650|                  02                           |      .         |      [78]: 2 transition_type 0x656-0x657 (1)
0x650|                     03                        |       .        |      [79]: 3 transition_type 0x657-0x658 (1)
0x650|                        02                     |        .       |      [80]: 2 transition_type 0x658-0x659 (1)
0x650|                           03                  |         .      |      [81]: 3 transition_type 0x659-0x65a (1)
0x650|                              02               |          .     |      [82]: 2 transition_type 0x65a-0x65b (1)
0x650|                                 03            |           .    |      [83]: 3 transition_type 0x65b-0x65c (1)
0x650|                                    02         |            .   |      [84]: 2 transition_type 0x65c-0x65d (1)
0x650|                                       03      |             .  |      [85]: 3 transition_type 0x65d-0x65e (1)
0x650|                                          02   |              . |      [86]: 2 transition_type 0x65e-0x65f (1)
0x650|                                             03|               .|      [87]: 3 transition_type 0x65f-0x660 (1)
0x660|02                                             |.               |      [88]: 2 transition_type 0x660-0x661 (1)
0x660|   03                                          | .              |      [89]: 3 transition_type 0x661-0x662 (1)
0x660|      03                                       |  .             |      [90]: 3 transition_type 0x662-0x663 (1)
     |                                               |                |    local_time_type_records[0:6]: 0x663-0x687 (36)
     |                                               |                |      [0]{}: local_time_type 0x663-0x669 (6)
0x660|         00 00 00 00                           |   ....         |        utoff: 0 (valid) 0x663-0x667 (4)
0x660|                     00                        |       .        |        dst: 0 (valid) 0x667-0x668 (1)
0x660|                        00                     |        .       |        idx: 0 (valid) 0x668-0x669 (1)
     |                                               |                |      [1]{}: local_time_type 0x669-0x66f (6)
0x660|                           ff ff c7 c0         |         ....   |        utoff: -14400 (valid) 0x669-0x66d (4)
0x660|                                       01      |             .  |        dst: 1 (valid) 0x66d-0x66e (1)
0x660|                                          04   |              . |        idx: 4 (valid) 0x66e-0x66f (1)
     |                                               |                |      [2]{}: local_time_type 0x66f-0x675 (6)
0x660|                                             ff|               .|        utoff: -21600 (valid) 0x66f-0x673 (4)
0x670|ff ab a0                                       |...             |
0x670|         00                                    |   .            |        dst: 0 (valid) 0x673-0x674 (1)
0x670|            09                                 |    .           |        idx: 9 (valid) 0x674-0x675 (1)
     |                                               |                |      [3]{}: local_time_type 0x675-0x67b (6)
0x670|               ff ff b9 b0                     |     ....       |        utoff: -18000 (valid) 0x675-0x679 (4)
0x670|                           01                  |         .      |        dst: 1 (valid) 0x679-0x67a (1)
0x670|                              0d               |          .     |        idx: 13 (valid) 0x67a-0x67b (1)
     |                                               |                |      [4]{}: local_time_type 0x67b-0x681 (6)
0x670|                                 ff ff b9 b0   |           .... |        utoff: -18000 (valid) 0x67b-0x67f (4)
0x670|                                             00|               .|        dst: 0 (valid) 0x67f-0x680 (1)
0x680|11                                             |.               |        idx: 17 (valid) 0x680-0x681 (1)
     |                                               |                |      [5]{}: local_time_type 0x681-0x687 (6)
0x680|   ff ff ab a0                                 | ....           |        utoff: -21600 (valid) 0x681-0x685 (4)
0x680|               00                              |     .          |        dst: 0 (valid) 0x685-0x686 (1)
0x680|                  09                           |      .         |        idx: 9 (valid) 0x686-0x687 (1)
     |                                               |                |    time_zone_designations[0:5]: 0x687-0x69c (21)
0x680|                     2d 30 30 00               |       -00.     |      [0]: "-00" time_zone_designation 0x687-0x68b (4)
0x680|                                 43 44 44 54 00|           CDDT.|      [1]: "CDDT" time_zone_designation 0x68b-0x690 (5)
0x690|43 53 54 00                                    |CST.            |      [2]: "CST" time_zone_designation 0x690-0x694 (4)
0x690|            43 44 54 00                        |    CDT.        |      [3]: "CDT" time_zone_designation 0x694-0x698 (4)
0x690|                        45 53 54 00            |        EST.    |      [4]: "EST" time_zone_designation 0x698-0x69c (4)
     |                                               |                |    leap_second_records[0:27]: 0x69c-0x7e0 (324)
     |                                               |                |      [0]{}: leap_second_record 0x69c-0x6a8 (12)
0x690|                                    00 00 00 00|            ....|        occur: "1972-07-01T00:00:00Z" (78796800) 0x69c-0x6a4 (8)
0x6a0|04 b2 58 00                                    |..X.            |
0x6a0|            00 00 00 01                        |    ....        |        corr: 1 0x6a4-0x6a8 (4)
     |                                               |                |      [1]{}: leap_second_record 0x6a8-0x6b4 (12)
0x6a0|                        00 00 00 00 05 a4 ec 01|        ........|        occur: "1973-01-01T00:00:01Z" (94694401) 0x6a8-0x6b0 (8)
0x6b0|00 00 00 02                                    |....            |        corr: 2 0x6b0-0x6b4 (4)
     |                                               |                |      [2]{}: leap_second_record 0x6b4-0x6c0 (12)
0x6b0|            00 00 00 00 07 86 1f 82            |    ........    |        occur: "1974-01-01T00:00:02Z" (126230402) 0x6b4-0x6bc (8)
0x6b0|                                    00 00 00 03|            ....|        corr: 3 0x6bc-0x6c0 (4)
     |                                               |                |      [3]{}: leap_second_record 0x6c0-0x6cc (12)
0x6c0|00 00 00 00 09 67 53 03                        |.....gS.        |        occur: "1975-01-01T00:00:03Z" (157766403) 0x6c0-0x6c8 (8)
0x6c0|                        00 00 00 04            |        ....    |        corr: 4 0x6c8-0x6cc (4)
     |                                               |                |      [4]{}: leap_second_record 0x6cc-0x6d8 (12)
0x6c0|                                    00 00 00 00|            ....|        occur: "1976-01-01T00:00:04Z" (189302404) 0x6cc-0x6d4 (8)
0x6d0|0b 48 86 84                                    |.H..            |
0x6d0|            00 00 00 05                        |    ....        |        corr: 5 0x6d4-0x6d8 (4)
     |                                               |                |      [5]{}: leap_second_record 0x6d8-0x6e4 (12)
0x6d0|                        00 00 00 00 0d 2b 0b 85|        .....+..|        occur: "1977-01-01T00:00:05Z" (220924805) 0x6d8-0x6e0 (8)
0x6e0|00 00 00 06                                    |....            |        corr: 6 0x6e0-0x6e4 (4)
     |                                               |                |      [6]{}: leap_second_record 0x6e4-0x6f0 (12)
0x6e0|            00 00 00 00 0f 0c 3f 06            |    ......?.    |        occur: "1978-01-01T00:00:06Z" (252460806) 0x6e4-0x6ec (8)
0x6e0|                                    00 00 00 07|            ....|        corr: 7 0x6ec-0x6f0 (4)
     |                                               |                |      [7]{}: leap_second_record 0x6f0-0x6fc (12)
0x6f0|00 00 00 00 10 ed 72 87                        |......r.        |        occur: "1979-01-01T00:00:07Z" (283996807) 0x6f0-0x6f8 (8)
0x6f0|                        00 00 00 08            |        ....    |        corr: 8 0x6f8-0x6fc (4)
     |                                               |                |      [8]{}: leap_second_record 0x6fc-0x708 (12)
0x6f0|                                    00 00 00 00|            ....|        occur: "1980-01-01T00:00:08Z" (315532808) 0x6fc-0x704 (8)
0x700|12 ce a6 08                                    |....            |
0x700|            00 00 00 09                        |    ....        |        corr: 9 0x704-0x708 (4)
     |                                               |                |      [9]{}: leap_second_record 0x708-0x714 (12)
0x700|                        00 00 00 00 15 9f ca 89|        ........|        occur: "1981-07-01T00:00:09Z" (362793609) 0x708-0x710 (8)
0x710|00 00 00 0a                                    |....            |        corr: 10 0x710-0x714 (4)
     |                                               |                |      [10]{}: leap_second_record 0x714-0x720 (12)
0x710|            00 00 00 00 17 80 fe 0a            |    ........    |        occur: "1982-07-01T00:00:10Z" (394329610) 0x714-0x71c (8)
0x710|                                    00 00 00 0b|            ....|        corr: 11 0x71c-0x720 (4)
     |                                               |                |      [11]{}: leap_second_record 0x720-0x72c (12)
0x720|00 00 00 00 19 62 31 8b                        |.....b1.        |        occur: "1983-07-01T00:00:11Z" (425865611) 0x720-0x728 (8)
0x720|                        00 00 00 0c            |        ....    |        corr: 12 0x728-0x72c (4)
     |                                               |                |      [12]{}: leap_second_record 0x72c-0x738 (12)
0x720|                                    00 00 00 00|            ....|        occur: "1985-07-01T00:00:12Z" (489024012) 0x72c-0x734 (8)
0x730|1d 25 ea 0c                                    |.%..            |
0x730|            00 00 00 0d                        |    ....        |        corr: 13 0x734-0x738 (4)
     |                                               |                |      [13]{}: leap_second_record 0x738-0x744 (12)
0x730|                        00 00 00 00 21 da e5 0d|        ....!...|        occur: "1988-01-01T00:00:13Z" (567993613) 0x738-0x740 (8)
0x740|00 00 00 0e                                    |....            |        corr: 14 0x740-0x744 (4)
     |                                               |                |      [14]{}: leap_second_record 0x744-0x750 (12)
0x740|            00 00 00 00 25 9e 9d 8e            |    ....%...    |        occur: "1990-01-01T00:00:14Z" (631152014) 0x744-0x74c (8)
0x740|                                    00 00 00 0f|            ....|        corr: 15 0x74c-0x750 (4)
     |                                               |                |      [15]{}: leap_second_record 0x750-0x75c (12)
0x750|00 00 00 00 27 7f d1 0f                        |....'...        |        occur: "1991-01-01T00:00:15Z" (662688015) 0x750-0x758 (8)
0x750|                        00 00 00 10            |        ....    |        corr: 16 0x758-0x75c (4)
     |                                               |                |      [16]{}: leap_second_record 0x75c-0x768 (12)
0x750|                                    00 00 00 00|            ....|        occur: "1992-07-01T00:00:16Z" (709948816) 0x75c-0x764 (8)
0x760|2a 50 f5 90                                    |*P..            |
0x760|            00 00 00 11                        |    ....        |        corr: 17 0x764-0x768 (4)
     |                                               |                |      [17]{}: leap_second_record 0x768-0x774 (12)
0x760|                        00 00 00 00 2c 32 29 11|        ....,2).|        occur: "1993-07-01T00:00:17Z" (741484817) 0x768-0x770 (8)
0x770|00 00 00 12                                    |....            |        corr: 18 0x770-0x774 (4)
     |                                               |                |      [18]{}: leap_second_record 0x774-0x780 (12)
0x770|            00 00 00 00 2e 13 5c 92            |    ......\.    |        occur: "1994-07-01T00:00:18Z" (773020818) 0x774-0x77c (8)
0x770|                                    00 00 00 13|            ....|        corr: 19 0x77c-0x780 (4)
     |                                               |                |      [19]{}: leap_second_record 0x780-0x78c (12)
0x780|00 00 00 00 30 e7 24 13                        |....0.$.        |        occur: "1996-01-01T00:00:19Z" (820454419) 0x780-0x788 (8)
0x780|                        00 00 00 14            |        ....    |        corr: 20 0x788-0x78c (4)
     |                                               |                |      [20]{}: leap_second_record 0x78c-0x798 (12)
0x780|                                    00 00 00 00|            ....|        occur: "1997-07-01T00:00:20Z" (867715220) 0x78c-0x794 (8)
0x790|33 b8 48 94                                    |3.H.            |
0x790|            00 00 00 15                        |    ....        |        corr: 21 0x794-0x798 (4)
     |                                               |                |      [21]{}: leap_second_record 0x798-0x7a4 (12)
0x790|                        00 00 00 00 36 8c 10 15|        ....6...|        occur: "1999-01-01T00:00:21Z" (915148821) 0x798-0x7a0 (8)
0x7a0|00 00 00 16                                    |....            |        corr: 22 0x7a0-0x7a4 (4)
     |                                               |                |      [22]{}: leap_second_record 0x7a4-0x7b0 (12)
0x7a0|            00 00 00 00 43 b7 1b 96            |    ....C...    |        occur: "2006-01-01T00:00:22Z" (1136073622) 0x7a4-0x7ac (8)
0x7a0|                                    00 00 00 17|            ....|        corr: 23 0x7ac-0x7b0 (4)
     |                                               |                |      [23]{}: leap_second_record 0x7b0-0x7bc (12)
0x7b0|00 00 00 00 49 5c 07 97                        |....I\..        |        occur: "2009-01-01T00:00:23Z" (1230768023) 0x7b0-0x7b8 (8)
0x7b0|                        00 00 00 18            |        ....    |        corr: 24 0x7b8-0x7bc (4)
     |                                               |                |      [24]{}: leap_second_record 0x7bc-0x7c8 (12)
0x7b0|                                    00 00 00 00|            ....|        occur: "2012-07-01T00:00:24Z" (1341100824) 0x7bc-0x7c4 (8)
0x7c0|4f ef 93 18                                    |O...            |
0x7c0|            00 00 00 19                        |    ....        |        corr: 25 0x7c4-0x7c8 (4)
     |                                               |                |      [25]{}: leap_second_record 0x7c8-0x7d4 (12)
0x7c0|                        00 00 00 00 55 93 2d 99|        ....U.-.|        occur: "2015-07-01T00:00:25Z" (1435708825) 0x7c8-0x7d0 (8)
0x7d0|00 00 00 1a                                    |....            |        corr: 26 0x7d0-0x7d4 (4)
     |                                               |                |      [26]{}: leap_second_record 0x7d4-0x7e0 (12)
0x7d0|            00 00 00 00 58 68 46 9a            |    ....XhF.    |        occur: "2017-01-01T00:00:26Z" (1483228826) 0x7d4-0x7dc (8)
0x7d0|                                    00 00 00 1b|            ....|        corr: 27 0x7dc-0x7e0 (4)
     |                                               |                |    standard_wall_indicators[0:0]: 0x7e0-0x7e0 (0)
     |                                               |                |    ut_local_indicators[0:0]: 0x7e0-0x7e0 (0)
     |                                               |                |  footer{}: 0x7e0-0x7e2 (2)
0x7e0|0a                                             |.               |    nl1: 10 (valid) 0x7e0-0x7e1 (1)
     |                                               |                |    tz_string: "" 0x7e1-0x7e1 (0)
0x7e0|   0a|                                         | .|             |    nl2: 10 (valid) 0x7e1-0x7e2 (1)
