$ fq -d tzif dv Riga
     |00 01 02 03 04 05 06 07 08 09 0a 0b 0c 0d 0e 0f|0123456789abcdef|.{}: Riga (tzif) 0x0-0x896 (2198)
     |                                               |                |  v1header{}: 0x0-0x2c (44)
0x000|54 5a 69 66                                    |TZif            |    magic: 0x545a6966 (valid) 0x0-0x4 (4)
0x000|            32                                 |    2           |    ver: "2" (0x32) (valid) 0x4-0x5 (1)
0x000|               00 00 00 00 00 00 00 00 00 00 00|     ...........|    reserved: raw bits 0x5-0x14 (15)
0x010|00 00 00 00                                    |....            |
0x010|            00 00 00 0f                        |    ....        |    isutcnt: 15 0x14-0x18 (4)
0x010|                        00 00 00 0f            |        ....    |    isstdcnt: 15 0x18-0x1c (4)
0x010|                                    00 00 00 00|            ....|    leapcnt: 0 0x1c-0x20 (4)
0x020|00 00 00 7e                                    |...~            |    timecnt: 126 0x20-0x24 (4)
0x020|            00 00 00 0f                        |    ....        |    typecnt: 15 0x24-0x28 (4)
0x020|                        00 00 00 26            |        ...&    |    charcnt: 38 0x28-0x2c (4)
     |                                               |                |  v1datablock{}: 0x2c-0x340 (788)
     |                                               |                |    transition_times[0:126]: 0x2c-0x224 (504)
0x020|                                    80 00 00 00|            ....|      [0]: "1901-12-13T20:45:52Z" (-2147483648) transition_time 0x2c-0x30 (4)
0x030|9e b9 87 fe                                    |....            |      [1]: "1918-04-15T00:23:26Z" (-1632008194) transition_time 0x30-0x34 (4)
0x030|            9f 84 8e fe                        |    ....        |      [2]: "1918-09-16T00:23:26Z" (-1618702594) transition_time 0x34-0x38 (4)
0x030|                        a0 88 46 7e            |        ..F~    |      [3]: "1919-04-01T00:23:26Z" (-1601681794) transition_time 0x38-0x3c (4)
0x030|                                    a0 cb 82 fe|            ....|      [4]: "1919-05-22T00:23:26Z" (-1597275394) transition_time 0x3c-0x40 (4)
0x040|ad e7 f1 de                                    |....            |      [5]: "1926-05-10T22:23:26Z" (-1377308194) transition_time 0x40-0x44 (4)
0x040|            c8 af 64 60                        |    ..d`        |      [6]: "1940-08-04T22:00:00Z" (-928029600) transition_time 0x44-0x48 (4)
0x040|                        ca 62 65 50            |        .beP    |      [7]: "1941-06-30T21:00:00Z" (-899521200) transition_time 0x48-0x4c (4)
0x040|                                    cc e7 4b 10|            ..K.|      [8]: "1942-11-02T01:00:00Z" (-857257200) transition_time 0x4c-0x50 (4)
0x050|cd a9 17 90                                    |....            |      [9]: "1943-03-29T01:00:00Z" (-844556400) transition_time 0x50-0x54 (4)
0x050|            ce a2 43 10                        |    ..C.        |      [10]: "1943-10-04T01:00:00Z" (-828226800) transition_time 0x54-0x58 (4)
0x050|                        cf 92 34 10            |        ..4.    |      [11]: "1944-04-03T01:00:00Z" (-812502000) transition_time 0x58-0x5c (4)
0x050|                                    d0 82 25 10|            ..%.|      [12]: "1944-10-02T01:00:00Z" (-796777200) transition_time 0x5c-0x60 (4)
0x060|d0 90 89 70                                    |...p            |      [13]: "1944-10-12T23:00:00Z" (-795834000) transition_time 0x60-0x64 (4)
0x060|            15 27 a7 d0                        |    .'..        |      [14]: "1981-03-31T21:00:00Z" (354920400) transition_time 0x64-0x68 (4)
0x060|                        16 18 dc 40            |        ...@    |      [15]: "1981-09-30T20:00:00Z" (370728000) transition_time 0x68-0x6c (4)
0x060|                                    17 08 db 50|            ...P|      [16]: "1982-03-31T21:00:00Z" (386456400) transition_time 0x6c-0x70 (4)
0x070|17 fa 0f c0                                    |....            |      [17]: "1982-09-30T20:00:00Z" (402264000) transition_time 0x70-0x74 (4)
0x070|            18 ea 0e d0                        |    ....        |      [18]: "1983-03-31T21:00:00Z" (417992400) transition_time 0x74-0x78 (4)
0x070|                        19 db 43 40            |        ..C@    |      [19]: "1983-09-30T20:00:00Z" (433800000) transition_time 0x78-0x7c (4)
0x070|                                    1a cc 93 d0|            ....|      [20]: "1984-03-31T21:00:00Z" (449614800) transition_time 0x7c-0x80 (4)
0x080|1b bc a0 f0                                    |....            |      [21]: "1984-09-29T23:00:00Z" (465346800) transition_time 0x80-0x84 (4)
0x080|            1c ac 91 f0                        |    ....        |      [22]: "1985-03-30T23:00:00Z" (481071600) transition_time 0x84-0x88 (4)
0x080|                        1d 9c 82 f0            |        ....    |      [23]: "1985-09-28T23:00:00Z" (496796400) transition_time 0x88-0x8c (4)
0x080|                                    1e 8c 73 f0|            ..s.|      [24]: "1986-03-29T23:00:00Z" (512521200) transition_time 0x8c-0x90 (4)
0x090|1f 7c 64 f0                                    |.|d.            |      [25]: "1986-09-27T23:00:00Z" (528246000) transition_time 0x90-0x94 (4)
0x090|            20 6c 55 f0                        |     lU.        |      [26]: "1987-03-28T23:00:00Z" (543970800) transition_time 0x94-0x98 (4)
0x090|                        21 5c 46 f0            |        !\F.    |      [27]: "1987-09-26T23:00:00Z" (559695600) transition_time 0x98-0x9c (4)
0x090|                                    22 4c 37 f0|            "L7.|      [28]: "1988-03-26T23:00:00Z" (575420400) transition_time 0x9c-0xa0 (4)
0x0a0|23 3c 28 f0                                    |#<(.            |      [29]: "1988-09-24T23:00:00Z" (591145200) transition_time 0xa0-0xa4 (4)
0x0a0|            24 2c 19 f0                        |    $,..        |      [30]: "1989-03-25T23:00:00Z" (606870000) transition_time 0xa4-0xa8 (4)
0x0a0|                        25 1c 19 00            |        %...    |      [31]: "1989-09-24T00:00:00Z" (622598400) transition_time 0xa8-0xac (4)
0x0a0|                                    26 0c 0a 00|            &...|      [32]: "1990-03-25T00:00:00Z" (638323200) transition_time 0xac-0xb0 (4)
0x0b0|27 05 35 80                                    |'.5.            |      [33]: "1990-09-30T00:00:00Z" (654652800) transition_time 0xb0-0xb4 (4)
0x0b0|            27 f5 26 80                        |    '.&.        |      [34]: "1991-03-31T00:00:00Z" (670377600) transition_time 0xb4-0xb8 (4)
0x0b0|                        28 e5 17 80            |        (...    |      [35]: "1991-09-29T00:00:00Z" (686102400) transition_time 0xb8-0xbc (4)
0x0b0|                                    29 d5 08 80|            )...|      [36]: "1992-03-29T00:00:00Z" (701827200) transition_time 0xbc-0xc0 (4)
0x0c0|2a c4 f9 80                                    |*...            |      [37]: "1992-09-27T00:00:00Z" (717552000) transition_time 0xc0-0xc4 (4)
0x0c0|            2b b4 ea 80                        |    +...        |      [38]: "1993-03-28T00:00:00Z" (733276800) transition_time 0xc4-0xc8 (4)
0x0c0|                        2c a4 db 80            |        ,...    |      [39]: "1993-09-26T00:00:00Z" (749001600) transition_time 0xc8-0xcc (4)
0x0c0|                                    2d 94 cc 80|            -...|      [40]: "1994-03-27T00:00:00Z" (764726400) transition_time 0xcc-0xd0 (4)
0x0d0|2e 84 bd 80                                    |....            |      [41]: "1994-09-25T00:00:00Z" (780451200) transition_time 0xd0-0xd4 (4)
0x0d0|            2f 74 ae 80                        |    /t..        |      [42]: "1995-03-26T00:00:00Z" (796176000) transition_time 0xd4-0xd8 (4)
0x0d0|                        30 64 9f 80            |        0d..    |      [43]: "1995-09-24T00:00:00Z" (811900800) transition_time 0xd8-0xdc (4)
0x0d0|                                    31 5d cb 00|            1]..|      [44]: "1996-03-31T00:00:00Z" (828230400) transition_time 0xdc-0xe0 (4)
0x0e0|32 4d bc 00                                    |2M..            |      [45]: "1996-09-29T00:00:00Z" (843955200) transition_time 0xe0-0xe4 (4)
0x0e0|            33 3d bb 10                        |    3=..        |      [46]: "1997-03-30T01:00:00Z" (859683600) transition_time 0xe4-0xe8 (4)
0x0e0|                        34 52 96 10            |        4R..    |      [47]: "1997-10-26T01:00:00Z" (877827600) transition_time 0xe8-0xec (4)
0x0e0|                                    35 1d 9d 10|            5...|      [48]: "1998-03-29T01:00:00Z" (891133200) transition_time 0xec-0xf0 (4)
0x0f0|36 32 78 10                                    |62x.            |      [49]: "1998-10-25T01:00:00Z" (909277200) transition_time 0xf0-0xf4 (4)
0x0f0|            36 fd 7f 10                        |    6...        |      [50]: "1999-03-28T01:00:00Z" (922582800) transition_time 0xf4-0xf8 (4)
0x0f0|                        38 1b 94 90            |        8...    |      [51]: "1999-10-31T01:00:00Z" (941331600) transition_time 0xf8-0xfc (4)
0x0f0|                                    3a bd 43 10|            :.C.|      [52]: "2001-03-25T01:00:00Z" (985482000) transition_time 0xfc-0x100 (4)
0x100|3b db 58 90                                    |;.X.            |      [53]: "2001-10-28T01:00:00Z" (1004230800) transition_time 0x100-0x104 (4)
0x100|            3c a6 5f 90                        |    <._.        |      [54]: "2002-03-31T01:00:00Z" (1017536400) transition_time 0x104-0x108 (4)
0x100|                        3d bb 3a 90            |        =.:.    |      [55]: "2002-10-27T01:00:00Z" (1035680400) transition_time 0x108-0x10c (4)
0x100|                                    3e 86 41 90|            >.A.|      [56]: "2003-03-30T01:00:00Z" (1048986000) transition_time 0x10c-0x110 (4)
0x110|3f 9b 1c 90                                    |?...            |      [57]: "2003-10-26T01:00:00Z" (1067130000) transition_time 0x110-0x114 (4)
0x110|            40 66 23 90                        |    @f#.        |      [58]: "2004-03-28T01:00:00Z" (1080435600) transition_time 0x114-0x118 (4)
0x110|                        41 84 39 10            |        A.9.    |      [59]: "2004-10-31T01:00:00Z" (1099184400) transition_time 0x118-0x11c (4)
0x110|                                    42 46 05 90|            BF..|      [60]: "2005-03-27T01:00:00Z" (1111885200) transition_time 0x11c-0x120 (4)
0x120|43 64 1b 10                                    |Cd..            |      [61]: "2005-10-30T01:00:00Z" (1130634000) transition_time 0x120-0x124 (4)
0x120|            44 25 e7 90                        |    D%..        |      [62]: "2006-03-26T01:00:00Z" (1143334800) transition_time 0x124-0x128 (4)
0x120|                        45 43 fd 10            |        EC..    |      [63]: "2006-10-29T01:00:00Z" (1162083600) transition_time 0x128-0x12c (4)
0x120|                                    46 05 c9 90|            F...|      [64]: "2007-03-25T01:00:00Z" (1174784400) transition_time 0x12c-0x130 (4)
0x130|47 23 df 10                                    |G#..            |      [65]: "2007-10-28T01:00:00Z" (1193533200) transition_time 0x130-0x134 (4)
0x130|            47 ee e6 10                        |    G...        |      [66]: "2008-03-30T01:00:00Z" (1206838800) transition_time 0x134-0x138 (4)
0x130|                        49 03 c1 10            |        I...    |      [67]: "2008-10-26T01:00:00Z" (1224982800) transition_time 0x138-0x13c (4)
0x130|                                    49 ce c8 10|            I...|      [68]: "2009-03-29T01:00:00Z" (1238288400) transition_time 0x13c-0x140 (4)
0x140|4a e3 a3 10                                    |J...            |      [69]: "2009-10-25T01:00:00Z" (1256432400) transition_time 0x140-0x144 (4)
0x140|            4b ae aa 10                        |    K...        |      [70]: "2010-03-28T01:00:00Z" (1269738000) transition_time 0x144-0x148 (4)
0x140|                        4c cc bf 90            |        L...    |      [71]: "2010-10-31T01:00:00Z" (1288486800) transition_time 0x148-0x14c (4)
0x140|                                    4d 8e 8c 10|            M...|      [72]: "2011-03-27T01:00:00Z" (1301187600) transition_time 0x14c-0x150 (4)
0x150|4e ac a1 90                                    |N...            |      [73]: "2011-10-30T01:00:00Z" (1319936400) transition_time 0x150-0x154 (4)
0x150|            4f 6e 6e 10                        |    Onn.        |      [74]: "2012-03-25T01:00:00Z" (1332637200) transition_time 0x154-0x158 (4)
0x150|                        50 8c 83 90            |        P...    |      [75]: "2012-10-28T01:00:00Z" (1351386000) transition_time 0x158-0x15c (4)
0x150|                                    51 57 8a 90|            QW..|      [76]: "2013-03-31T01:00:00Z" (1364691600) transition_time 0x15c-0x160 (4)
0x160|52 6c 65 90                                    |Rle.            |      [77]: "2013-10-27T01:00:00Z" (1382835600) transition_time 0x160-0x164 (4)
0x160|            53 37 6c 90                        |    S7l.        |      [78]: "2014-03-30T01:00:00Z" (1396141200) transition_time 0x164-0x168 (4)
0x160|                        54 4c 47 90            |        TLG.    |      [79]: "2014-10-26T01:00:00Z" (1414285200) transition_time 0x168-0x16c (4)
0x160|                                    55 17 4e 90|            U.N.|      [80]: "2015-03-29T01:00:00Z" (1427590800) transition_time 0x16c-0x170 (4)
0x170|56 2c 29 90                                    |V,).            |      [81]: "2015-10-25T01:00:00Z" (1445734800) transition_time 0x170-0x174 (4)
0x170|            56 f7 30 90                        |    V.0.        |      [82]: "2016-03-27T01:00:00Z" (1459040400) transition_time 0x174-0x178 (4)
0x170|                        58 15 46 10            |        X.F.    |      [83]: "2016-10-30T01:00:00Z" (1477789200) transition_time 0x178-0x17c (4)
0x170|                                    58 d7 12 90|            X...|      [84]: "2017-03-26T01:00:00Z" (1490490000) transition_time 0x17c-0x180 (4)
0x180|59 f5 28 10                                    |Y.(.            |      [85]: "2017-10-29T01:00:00Z" (1509238800) transition_time 0x180-0x184 (4)
0x180|            5a b6 f4 90                        |    Z...        |      [86]: "2018-03-25T01:00:00Z" (1521939600) transition_time 0x184-0x188 (4)
0x180|                        5b d5 0a 10            |        [...    |      [87]: "2018-10-28T01:00:00Z" (1540688400) transition_time 0x188-0x18c (4)
0x180|                                    5c a0 11 10|            \...|      [88]: "2019-03-31T01:00:00Z" (1553994000) transition_time 0x18c-0x190 (4)
0x190|5d b4 ec 10                                    |]...            |      [89]: "2019-10-27T01:00:00Z" (1572138000) transition_time 0x190-0x194 (4)
0x190|            5e 7f f3 10                        |    ^...        |      [90]: "2020-03-29T01:00:00Z" (1585443600) transition_time 0x194-0x198 (4)
0x190|                        5f 94 ce 10            |        _...    |      [91]: "2020-10-25T01:00:00Z" (1603587600) transition_time 0x198-0x19c (4)
0x190|                                    60 5f d5 10|            `_..|      [92]: "2021-03-28T01:00:00Z" (1616893200) transition_time 0x19c-0x1a0 (4)
0x1a0|61 7d ea 90                                    |a}..            |      [93]: "2021-10-31T01:00:00Z" (1635642000) transition_time 0x1a0-0x1a4 (4)
0x1a0|            62 3f b7 10                        |    b?..        |      [94]: "2022-03-27T01:00:00Z" (1648342800) transition_time 0x1a4-0x1a8 (4)
0x1a0|                        63 5d cc 90            |        c]..    |      [95]: "2022-10-30T01:00:00Z" (1667091600) transition_time 0x1a8-0x1ac (4)
0x1a0|                                    64 1f 99 10|            d...|      [96]: "2023-03-26T01:00:00Z" (1679792400) transition_time 0x1ac-0x1b0 (4)
0x1b0|65 3d ae 90                                    |e=..            |      [97]: "2023-10-29T01:00:00Z" (1698541200) transition_time 0x1b0-0x1b4 (4)
0x1b0|            66 08 b5 90                        |    f...        |      [98]: "2024-03-31T01:00:00Z" (1711846800) transition_time 0x1b4-0x1b8 (4)
0x1b0|                        67 1d 90 90            |        g...    |      [99]: "2024-10-27T01:00:00Z" (1729990800) transition_time 0x1b8-0x1bc (4)
0x1b0|                                    67 e8 97 90|            g...|      [100]: "2025-03-30T01:00:00Z" (1743296400) transition_time 0x1bc-0x1c0 (4)
0x1c0|68 fd 72 90                                    |h.r.            |      [101]: "2025-10-26T01:00:00Z" (1761440400) transition_time 0x1c0-0x1c4 (4)
0x1c0|            69 c8 79 90                        |    i.y.        |      [102]: "2026-03-29T01:00:00Z" (1774746000) transition_time 0x1c4-0x1c8 (4)
0x1c0|                        6a dd 54 90            |        j.T.    |      [103]: "2026-10-25T01:00:00Z" (1792890000) transition_time 0x1c8-0x1cc (4)
0x1c0|                                    6b a8 5b 90|            k.[.|      [104]: "2027-03-28T01:00:00Z" (1806195600) transition_time 0x1cc-0x1d0 (4)
0x1d0|6c c6 71 10                                    |l.q.            |      [105]: "2027-10-31T01:00:00Z" (1824944400) transition_time 0x1d0-0x1d4 (4)
0x1d0|            6d 88 3d 90                        |    m.=.        |      [106]: "2028-03-26T01:00:00Z" (1837645200) transition_time 0x1d4-0x1d8 (4)
0x1d0|                        6e a6 53 10            |        n.S.    |      [107]: "2028-10-29T01:00:00Z" (1856394000) transition_time 0x1d8-0x1dc (4)
0x1d0|                                    6f 68 1f 90|            oh..|      [108]: "2029-03-25T01:00:00Z" (1869094800) transition_time 0x1dc-0x1e0 (4)
0x1e0|70 86 35 10                                    |p.5.            |      [109]: "2029-10-28T01:00:00Z" (1887843600) transition_time 0x1e0-0x1e4 (4)
0x1e0|            71 51 3c 10                        |    qQ<.        |      [110]: "2030-03-31T01:00:00Z" (1901149200) transition_time 0x1e4-0x1e8 (4)
0x1e0|                        72 66 17 10            |        rf..    |      [111]: "2030-10-27T01:00:00Z" (1919293200) transition_time 0x1e8-0x1ec (4)
0x1e0|                                    73 31 1e 10|            s1..|      [112]: "2031-03-30T01:00:00Z" (1932598800) transition_time 0x1ec-0x1f0 (4)
0x1f0|74 45 f9 10                                    |tE..            |      [113]: "2031-10-26T01:00:00Z" (1950742800) transition_time 0x1f0-0x1f4 (4)
0x1f0|            75 11 00 10                        |    u...        |      [114]: "2032-03-28T01:00:00Z" (1964048400) transition_time 0x1f4-0x1f8 (4)
0x1f0|                        76 2f 15 90            |        v/..    |      [115]: "2032-10-31T01:00:00Z" (1982797200) transition_time 0x1f8-0x1fc (4)
0x1f0|                                    76 f0 e2 10|            v...|      [116]: "2033-03-27T01:00:00Z" (1995498000) transition_time 0x1fc-0x200 (4)
0x200|78 0e f7 90                                    |x...            |      [117]: "2033-10-30T01:00:00Z" (2014246800) transition_time 0x200-0x204 (4)
0x200|            78 d0 c4 10                        |    x...        |      [118]: "2034-03-26T01:00:00Z" (2026947600) transition_time 0x204-0x208 (4)
0x200|                        79 ee d9 90            |        y...    |      [119]: "2034-10-29T01:00:00Z" (2045696400) transition_time 0x208-0x20c (4)
0x200|                                    7a b0 a6 10|            z...|      [120]: "2035-03-25T01:00:00Z" (2058397200) transition_time 0x20c-0x210 (4)
0x210|7b ce bb 90                                    |{...            |      [121]: "2035-10-28T01:00:00Z" (2077146000) transition_time 0x210-0x214 (4)
0x210|            7c 99 c2 90                        |    |...        |      [122]: "2036-03-30T01:00:00Z" (2090451600) transition_time 0x214-0x218 (4)
0x210|                        7d ae 9d 90            |        }...    |      [123]: "2036-10-26T01:00:00Z" (2108595600) transition_time 0x218-0x21c (4)
0x210|                                    7e 79 a4 90|            ~y..|      [124]: "2037-03-29T01:00:00Z" (2121901200) transition_time 0x21c-0x220 (4)
0x220|7f 8e 7f 90                                    |....            |      [125]: "2037-10-25T01:00:00Z" (2140045200) transition_time 0x220-0x224 (4)
     |                                               |                |    transition_types[0:126]: 0x224-0x2a2 (126)
0x220|            01                                 |    .           |      [0]: 1 transition_type 0x224-0x225 (1)
0x220|               02                              |     .          |      [1]: 2 transition_type 0x225-0x226 (1)
0x220|                  01                           |      .         |      [2]: 1 transition_type 0x226-0x227 (1)
0x220|                     02                        |       .        |      [3]: 2 transition_type 0x227-0x228 (1)
0x220|                        01                     |        .       |      [4]: 1 transition_type 0x228-0x229 (1)
0x220|                           03                  |         .      |      [5]: 3 transition_type 0x229-0x22a (1)
0x220|                              04               |          .     |      [6]: 4 transition_type 0x22a-0x22b (1)
0x220|                                 07            |           .    |      [7]: 7 transition_type 0x22b-0x22c (1)
0x220|                                    05         |            .   |      [8]: 5 transition_type 0x22c-0x22d (1)
0x220|                                       06      |             .  |      [9]: 6 transition_type 0x22d-0x22e (1)
0x220|                                          05   |              . |      [10]: 5 transition_type 0x22e-0x22f (1)
0x220|                                             06|               .|      [11]: 6 transition_type 0x22f-0x230 (1)
0x230|05                                             |.               |      [12]: 5 transition_type 0x230-0x231 (1)
0x230|   04                                          | .              |      [13]: 4 transition_type 0x231-0x232 (1)
0x230|      08                                       |  .             |      [14]: 8 transition_type 0x232-0x233 (1)
0x230|         04                                    |   .            |      [15]: 4 transition_type 0x233-0x234 (1)
0x230|            08                                 |    .           |      [16]: 8 transition_type 0x234-0x235 (1)
0x230|               04                              |     .          |      [17]: 4 transition_type 0x235-0x236 (1)
0x230|                  08                           |      .         |      [18]: 8 transition_type 0x236-0x237 (1)
0x230|                     04                        |       .        |      [19]: 4 transition_type 0x237-0x238 (1)
0x230|                        08                     |        .       |      [20]: 8 transition_type 0x238-0x239 (1)
0x230|                           09                  |         .      |      [21]: 9 transition_type 0x239-0x23a (1)
0x230|                              0a               |          .     |      [22]: 10 transition_type 0x23a-0x23b (1)
0x230|                                 09            |           .    |      [23]: 9 transition_type 0x23b-0x23c (1)
0x230|                                    0a         |            .   |      [24]: 10 transition_type 0x23c-0x23d (1)
0x230|                                       09      |             .  |      [25]: 9 transition_type 0x23d-0x23e (1)
0x230|                                          0a   |              . |      [26]: 10 transition_type 0x23e-0x23f (1)
0x230|                                             09|               .|      [27]: 9 transition_type 0x23f-0x240 (1)
0x240|0a                                             |.               |      [28]: 10 transition_type 0x240-0x241 (1)
0x240|   09                                          | .              |      [29]: 9 transition_type 0x241-0x242 (1)
0x240|      0b                                       |  .             |      [30]: 11 transition_type 0x242-0x243 (1)
0x240|         0c                                    |   .            |      [31]: 12 transition_type 0x243-0x244 (1)
0x240|            0b                                 |    .           |      [32]: 11 transition_type 0x244-0x245 (1)
0x240|               0c                              |     .          |      [33]: 12 transition_type 0x245-0x246 (1)
0x240|                  0b                           |      .         |      [34]: 11 transition_type 0x246-0x247 (1)
0x240|                     0c                        |       .        |      [35]: 12 transition_type 0x247-0x248 (1)
0x240|                        0b                     |        .       |      [36]: 11 transition_type 0x248-0x249 (1)
0x240|                           0c                  |         .      |      [37]: 12 transition_type 0x249-0x24a (1)
0x240|                              0b               |          .     |      [38]: 11 transition_type 0x24a-0x24b (1)
0x240|                                 0c            |           .    |      [39]: 12 transition_type 0x24b-0x24c (1)
0x240|                                    0b         |            .   |      [40]: 11 transition_type 0x24c-0x24d (1)
0x240|                                       0c      |             .  |      [41]: 12 transition_type 0x24d-0x24e (1)
0x240|                                          0b   |              . |      [42]: 11 transition_type 0x24e-0x24f (1)
0x240|                                             0c|               .|      [43]: 12 transition_type 0x24f-0x250 (1)
0x250|0b                                             |.               |      [44]: 11 transition_type 0x250-0x251 (1)
0x250|   0c                                          | .              |      [45]: 12 transition_type 0x251-0x252 (1)
0x250|      0d                                       |  .             |      [46]: 13 transition_type 0x252-0x253 (1)
0x250|         0e                                    |   .            |      [47]: 14 transition_type 0x253-0x254 (1)
0x250|            0d                                 |    .           |      [48]: 13 transition_type 0x254-0x255 (1)
0x250|               0e                              |     .          |      [49]: 14 transition_type 0x255-0x256 (1)
0x250|                  0d                           |      .         |      [50]: 13 transition_type 0x256-0x257 (1)
0x250|                     0e                        |       .        |      [51]: 14 transition_type 0x257-0x258 (1)
0x250|                        0d                     |        .       |      [52]: 13 transition_type 0x258-0x259 (1)
0x250|                           0e                  |         .      |      [53]: 14 transition_type 0x259-0x25a (1)
0x250|                              0d               |          .     |      [54]: 13 transition_type 0x25a-0x25b (1)
0x250|                                 0e            |           .    |      [55]: 14 transition_type 0x25b-0x25c (1)
0x250|                                    0d         |            .   |      [56]: 13 transition_type 0x25c-0x25d (1)
0x250|                                       0e      |             .  |      [57]: 14 transition_type 0x25d-0x25e (1)
0x250|                                          0d   |              . |      [58]: 13 transition_type 0x25e-0x25f (1)
0x250|                                             0e|               .|      [59]: 14 transition_type 0x25f-0x260 (1)
0x260|0d                                             |.               |      [60]: 13 transition_type 0x260-0x261 (1)
0x260|   0e                                          | .              |      [61]: 14 transition_type 0x261-0x262 (1)
0x260|      0d                                       |  .             |      [62]: 13 transition_type 0x262-0x263 (1)
0x260|         0e                                    |   .            |      [63]: 14 transition_type 0x263-0x264 (1)
0x260|            0d                                 |    .           |      [64]: 13 transition_type 0x264-0x265 (1)
0x260|               0e                              |     .          |      [65]: 14 transition_type 0x265-0x266 (1)
0x260|                  0d                           |      .         |      [66]: 13 transition_type 0x266-0x267 (1)
0x260|                     0e                        |       .        |      [67]: 14 transition_type 0x267-0x268 (1)
0x260|                        0d                     |        .       |      [68]: 13 transition_type 0x268-0x269 (1)
0x260|                           0e                  |         .      |      [69]: 14 transition_type 0x269-0x26a (1)
0x260|                              0d               |          .     |      [70]: 13 transition_type 0x26a-0x26b (1)
0x260|                                 0e            |           .    |      [71]: 14 transition_type 0x26b-0x26c (1)
0x260|                                    0d         |            .   |      [72]: 13 transition_type 0x26c-0x26d (1)
0x260|                                       0e      |             .  |      [73]: 14 transition_type 0x26d-0x26e (1)
0x260|                                          0d   |              . |      [74]: 13 transition_type 0x26e-0x26f (1)
0x260|                                             0e|               .|      [75]: 14 transition_type 0x26f-0x270 (1)
0x270|0d                                             |.               |      [76]: 13 transition_type 0x270-0x271 (1)
0x270|   0e                                          | .              |      [77]: 14 transition_type 0x271-0x272 (1)
0x270|      0d                                       |  .             |      [78]: 13 transition_type 0x272-0x273 (1)
0x270|         0e                                    |   .            |      [79]: 14 transition_type 0x273-0x274 (1)
0x270|            0d                                 |    .           |      [80]: 13 transition_type 0x274-0x275 (1)
0x270|               0e                              |     .          |      [81]: 14 transition_type 0x275-0x276 (1)
0x270|                  0d                           |      .         |      [82]: 13 transition_type 0x276-0x277 (1)
0x270|                     0e                        |       .        |      [83]: 14 transition_type 0x277-0x278 (1)
0x270|                        0d                     |        .       |      [84]: 13 transition_type 0x278-0x279 (1)
0x270|                           0e                  |         .      |      [85]: 14 transition_type 0x279-0x27a (1)
0x270|                              0d               |          .     |      [86]: 13 transition_type 0x27a-0x27b (1)
0x270|                                 0e            |           .    |      [87]: 14 transition_type 0x27b-0x27c (1)
0x270|                                    0d         |            .   |      [88]: 13 transition_type 0x27c-0x27d (1)
0x270|                                       0e      |             .  |      [89]: 14 transition_type 0x27d-0x27e (1)
0x270|                                          0d   |              . |      [90]: 13 transition_type 0x27e-0x27f (1)
0x270|                                             0e|               .|      [91]: 14 transition_type 0x27f-0x280 (1)
0x280|0d                                             |.               |      [92]: 13 transition_type 0x280-0x281 (1)
0x280|   0e                                          | .              |      [93]: 14 transition_type 0x281-0x282 (1)
0x280|      0d                                       |  .             |      [94]: 13 transition_type 0x282-0x283 (1)
0x280|         0e                                    |   .            |      [95]: 14 transition_type 0x283-0x284 (1)
0x280|            0d                                 |    .           |      [96]: 13 transition_type 0x284-0x285 (1)
0x280|               0e                              |     .          |      [97]: 14 transition_type 0x285-0x286 (1)
0x280|                  0d                           |      .         |      [98]: 13 transition_type 0x286-0x287 (1)
0x280|                     0e                        |       .        |      [99]: 14 transition_type 0x287-0x288 (1)
0x280|                        0d                     |        .       |      [100]: 13 transition_type 0x288-0x289 (1)
0x280|                           0e                  |         .      |      [101]: 14 transition_type 0x289-0x28a (1)
0x280|                              0d               |          .     |      [102]: 13 transition_type 0x28a-0x28b (1)
0x280|                                 0e            |           .    |      [103]: 14 transition_type 0x28b-0x28c (1)
0x280|                                    0d         |            .   |      [104]: 13 transition_type 0x28c-0x28d (1)
0x280|                                       0e      |             .  |      [105]: 14 transition_type 0x28d-0x28e (1)
0x280|                                          0d   |              . |      [106]: 13 transition_type 0x28e-0x28f (1)
0x280|                                             0e|               .|      [107]: 14 transition_type 0x28f-0x290 (1)
0x290|0d                                             |.               |      [108]: 13 transition_type 0x290-0x291 (1)
0x290|   0e                                          | .              |      [109]: 14 transition_type 0x291-0x292 (1)
0x290|      0d                                       |  .             |      [110]: 13 transition_type 0x292-0x293 (1)
0x290|         0e                                    |   .            |      [111]: 14 transition_type 0x293-0x294 (1)
0x290|            0d                                 |    .           |      [112]: 13 transition_type 0x294-0x295 (1)
0x290|               0e                              |     .          |      [113]: 14 transition_type 0x295-0x296 (1)
0x290|                  0d                           |      .         |      [114]: 13 transition_type 0x296-0x297 (1)
0x290|                     0e                        |       .        |      [115]: 14 transition_type 0x297-0x298 (1)
0x290|                        0d                     |        .       |      [116]: 13 transition_type 0x298-0x299 (1)
0x290|                           0e                  |         .      |      [117]: 14 transition_type 0x299-0x29a (1)
0x290|                              0d               |          .     |      [118]: 13 transition_type 0x29a-0x29b (1)
0x290|                                 0e            |           .    |      [119]: 14 transition_type 0x29b-0x29c (1)
0x290|                                    0d         |            .   |      [120]: 13 transition_type 0x29c-0x29d (1)
0x290|                                       0e      |             .  |      [121]: 14 transition_type 0x29d-0x29e (1)
0x290|                                          0d   |              . |      [122]: 13 transition_type 0x29e-0x29f (1)
0x290|                                             0e|               .|      [123]: 14 transition_type 0x29f-0x2a0 (1)
0x2a0|0d                                             |.               |      [124]: 13 transition_type 0x2a0-0x2a1 (1)
0x2a0|   0e                                          | .              |      [125]: 14 transition_type 0x2a1-0x2a2 (1)
     |                                               |                |    local_time_type_records[0:15]: 0x2a2-0x2fc (90)
     |                                               |                |      [0]{}: local_time_type 0x2a2-0x2a8 (6)
0x2a0|      00 00 16 a2                              |  ....          |        utoff: 5794 (valid) 0x2a2-0x2a6 (4)
0x2a0|                  00                           |      .         |        dst: 0 (valid) 0x2a6-0x2a7 (1)
0x2a0|                     00                        |       .        |        idx: 0 (valid) 0x2a7-0x2a8 (1)
     |                                               |                |      [1]{}: local_time_type 0x2a8-0x2ae (6)
0x2a0|                        00 00 16 a2            |        ....    |        utoff: 5794 (valid) 0x2a8-0x2ac (4)
0x2a0|                                    00         |            .   |        dst: 0 (valid) 0x2ac-0x2ad (1)
0x2a0|                                       04      |             .  |        idx: 4 (valid) 0x2ad-0x2ae (1)
     |                                               |                |      [2]{}: local_time_type 0x2ae-0x2b4 (6)
0x2a0|                                          00 00|              ..|        utoff: 9394 (valid) 0x2ae-0x2b2 (4)
0x2b0|24 b2                                          |$.              |
0x2b0|      01                                       |  .             |        dst: 1 (valid) 0x2b2-0x2b3 (1)
0x2b0|         08                                    |   .            |        idx: 8 (valid) 0x2b3-0x2b4 (1)
     |                                               |                |      [3]{}: local_time_type 0x2b4-0x2ba (6)
0x2b0|            00 00 1c 20                        |    ...         |        utoff: 7200 (valid) 0x2b4-0x2b8 (4)
0x2b0|                        00                     |        .       |        dst: 0 (valid) 0x2b8-0x2b9 (1)
0x2b0|                           0c                  |         .      |        idx: 12 (valid) 0x2b9-0x2ba (1)
     |                                               |                |      [4]{}: local_time_type 0x2ba-0x2c0 (6)
0x2b0|                              00 00 2a 30      |          ..*0  |        utoff: 10800 (valid) 0x2ba-0x2be (4)
0x2b0|                                          00   |              . |        dst: 0 (valid) 0x2be-0x2bf (1)
0x2b0|                                             10|               .|        idx: 16 (valid) 0x2bf-0x2c0 (1)
     |                                               |                |      [5]{}: local_time_type 0x2c0-0x2c6 (6)
0x2c0|00 00 0e 10                                    |....            |        utoff: 3600 (valid) 0x2c0-0x2c4 (4)
0x2c0|            00                                 |    .           |        dst: 0 (valid) 0x2c4-0x2c5 (1)
0x2c0|               14                              |     .          |        idx: 20 (valid) 0x2c5-0x2c6 (1)
     |                                               |                |      [6]{}: local_time_type 0x2c6-0x2cc (6)
0x2c0|                  00 00 1c 20                  |      ...       |        utoff: 7200 (valid) 0x2c6-0x2ca (4)
0x2c0|                              01               |          .     |        dst: 1 (valid) 0x2ca-0x2cb (1)
0x2c0|                                 18            |           .    |        idx: 24 (valid) 0x2cb-0x2cc (1)
     |                                               |                |      [7]{}: local_time_type 0x2cc-0x2d2 (6)
0x2c0|                                    00 00 1c 20|            ... |        utoff: 7200 (valid) 0x2cc-0x2d0 (4)
0x2d0|01                                             |.               |        dst: 1 (valid) 0x2d0-0x2d1 (1)
0x2d0|   18                                          | .              |        idx: 24 (valid) 0x2d1-0x2d2 (1)
     |                                               |                |      [8]{}: local_time_type 0x2d2-0x2d8 (6)
0x2d0|      00 00 38 40                              |  ..8@          |        utoff: 14400 (valid) 0x2d2-0x2d6 (4)
0x2d0|                  01                           |      .         |        dst: 1 (valid) 0x2d6-0x2d7 (1)
0x2d0|                     1d                        |       .        |        idx: 29 (valid) 0x2d7-0x2d8 (1)
     |                                               |                |      [9]{}: local_time_type 0x2d8-0x2de (6)
0x2d0|                        00 00 2a 30            |        ..*0    |        utoff: 10800 (valid) 0x2d8-0x2dc (4)
0x2d0|                                    00         |            .   |        dst: 0 (valid) 0x2dc-0x2dd (1)
0x2d0|                                       10      |             .  |        idx: 16 (valid) 0x2dd-0x2de (1)
     |                                               |                |      [10]{}: local_time_type 0x2de-0x2e4 (6)
0x2d0|                                          00 00|              ..|        utoff: 14400 (valid) 0x2de-0x2e2 (4)
0x2e0|38 40                                          |8@              |
0x2e0|      01                                       |  .             |        dst: 1 (valid) 0x2e2-0x2e3 (1)
0x2e0|         1d                                    |   .            |        idx: 29 (valid) 0x2e3-0x2e4 (1)
     |                                               |                |      [11]{}: local_time_type 0x2e4-0x2ea (6)
0x2e0|            00 00 2a 30                        |    ..*0        |        utoff: 10800 (valid) 0x2e4-0x2e8 (4)
0x2e0|                        01                     |        .       |        dst: 1 (valid) 0x2e8-0x2e9 (1)
0x2e0|                           21                  |         !      |        idx: 33 (valid) 0x2e9-0x2ea (1)
     |                                               |                |      [12]{}: local_time_type 0x2ea-0x2f0 (6)
0x2e0|                              00 00 1c 20      |          ...   |        utoff: 7200 (valid) 0x2ea-0x2ee (4)
0x2e0|                                          00   |              . |        dst: 0 (valid) 0x2ee-0x2ef (1)
0x2e0|                                             0c|               .|        idx: 12 (valid) 0x2ef-0x2f0 (1)
     |                                               |                |      [13]{}: local_time_type 0x2f0-0x2f6 (6)
0x2f0|00 00 2a 30                                    |..*0            |        utoff: 10800 (valid) 0x2f0-0x2f4 (4)
0x2f0|            01                                 |    .           |        dst: 1 (valid) 0x2f4-0x2f5 (1)
0x2f0|               21                              |     !          |        idx: 33 (valid) 0x2f5-0x2f6 (1)
     |                                               |                |      [14]{}: local_time_type 0x2f6-0x2fc (6)
0x2f0|                  00 00 1c 20                  |      ...       |        utoff: 7200 (valid) 0x2f6-0x2fa (4)
0x2f0|                              00               |          .     |        dst: 0 (valid) 0x2fa-0x2fb (1)
0x2f0|                                 0c            |           .    |        idx: 12 (valid) 0x2fb-0x2fc (1)
     |                                               |                |    time_zone_designations[0:9]: 0x2fc-0x322 (38)
0x2f0|                                    4c 4d 54 00|            LMT.|      [0]: "LMT" time_zone_designation 0x2fc-0x300 (4)
0x300|52 4d 54 00                                    |RMT.            |      [1]: "RMT" time_zone_designation 0x300-0x304 (4)
0x300|            4c 53 54 00                        |    LST.        |      [2]: "LST" time_zone_designation 0x304-0x308 (4)
0x300|                        45 45 54 00            |        EET.    |      [3]: "EET" time_zone_designation 0x308-0x30c (4)
0x300|                                    4d 53 4b 00|            MSK.|      [4]: "MSK" time_zone_designation 0x30c-0x310 (4)
0x310|43 45 54 00                                    |CET.            |      [5]: "CET" time_zone_designation 0x310-0x314 (4)
0x310|            43 45 53 54 00                     |    CEST.       |      [6]: "CEST" time_zone_designation 0x314-0x319 (5)
0x310|                           4d 53 44 00         |         MSD.   |      [7]: "MSD" time_zone_designation 0x319-0x31d (4)
0x310|                                       45 45 53|             EES|      [8]: "EEST" time_zone_designation 0x31d-0x322 (5)
0x320|54 00                                          |T.              |
     |                                               |                |    leap_second_records[0:0]: 0x322-0x322 (0)
     |                                               |                |    standard_wall_indicators[0:15]: 0x322-0x331 (15)
0x320|      00                                       |  .             |      [0]: 0 standard_wall_indicator (valid) 0x322-0x323 (1)
0x320|         00                                    |   .            |      [1]: 0 standard_wall_indicator (valid) 0x323-0x324 (1)
0x320|            00                                 |    .           |      [2]: 0 standard_wall_indicator (valid) 0x324-0x325 (1)
0x320|               00                              |     .          |      [3]: 0 standard_wall_indicator (valid) 0x325-0x326 (1)
0x320|                  00                           |      .         |      [4]: 0 standard_wall_indicator (valid) 0x326-0x327 (1)
0x320|                     01                        |       .        |      [5]: 1 standard_wall_indicator (valid) 0x327-0x328 (1)
0x320|                        01                     |        .       |      [6]: 1 standard_wall_indicator (valid) 0x328-0x329 (1)
0x320|                           00                  |         .      |      [7]: 0 standard_wall_indicator (valid) 0x329-0x32a (1)
0x320|                              00               |          .     |      [8]: 0 standard_wall_indicator (valid) 0x32a-0x32b (1)
0x320|                                 01            |           .    |      [9]: 1 standard_wall_indicator (valid) 0x32b-0x32c (1)
0x320|                                    01         |            .   |      [10]: 1 standard_wall_indicator (valid) 0x32c-0x32d (1)
0x320|                                       01      |             .  |      [11]: 1 standard_wall_indicator (valid) 0x32d-0x32e (1)
0x320|                                          01   |              . |      [12]: 1 standard_wall_indicator (valid) 0x32e-0x32f (1)
0x320|                                             01|               .|      [13]: 1 standard_wall_indicator (valid) 0x32f-0x330 (1)
0x330|01                                             |.               |      [14]: 1 standard_wall_indicator (valid) 0x330-0x331 (1)
     |                                               |                |    ut_local_indicators[0:15]: 0x331-0x340 (15)
0x330|   00                                          | .              |      [0]: 0 ut_local_indicator (valid) 0x331-0x332 (1)
0x330|      00                                       |  .             |      [1]: 0 ut_local_indicator (valid) 0x332-0x333 (1)
0x330|         00                                    |   .            |      [2]: 0 ut_local_indicator (valid) 0x333-0x334 (1)
0x330|            00                                 |    .           |      [3]: 0 ut_local_indicator (valid) 0x334-0x335 (1)
0x330|               00                              |     .          |      [4]: 0 ut_local_indicator (valid) 0x335-0x336 (1)
0x330|                  00                           |      .         |      [5]: 0 ut_local_indicator (valid) 0x336-0x337 (1)
0x330|                     00                        |       .        |      [6]: 0 ut_local_indicator (valid) 0x337-0x338 (1)
0x330|                        00                     |        .       |      [7]: 0 ut_local_indicator (valid) 0x338-0x339 (1)
0x330|                           00                  |         .      |      [8]: 0 ut_local_indicator (valid) 0x339-0x33a (1)
0x330|                              00               |          .     |      [9]: 0 ut_local_indicator (valid) 0x33a-0x33b (1)
0x330|                                 00            |           .    |      [10]: 0 ut_local_indicator (valid) 0x33b-0x33c (1)
0x330|                                    00         |            .   |      [11]: 0 ut_local_indicator (valid) 0x33c-0x33d (1)
0x330|                                       00      |             .  |      [12]: 0 ut_local_indicator (valid) 0x33d-0x33e (1)
0x330|                                          01   |              . |      [13]: 1 ut_local_indicator (valid) 0x33e-0x33f (1)
0x330|                                             01|               .|      [14]: 1 ut_local_indicator (valid) 0x33f-0x340 (1)
     |                                               |                |  v2plusheader{}: 0x340-0x36c (44)
0x340|54 5a 69 66                                    |TZif            |    magic: 0x545a6966 (valid) 0x340-0x344 (4)
0x340|            32                                 |    2           |    ver: "2" (0x32) (valid) 0x344-0x345 (1)
0x340|               00 00 00 00 00 00 00 00 00 00 00|     ...........|    reserved: raw bits 0x345-0x354 (15)
0x350|00 00 00 00                                    |....            |
0x350|            00 00 00 0f                        |    ....        |    isutcnt: 15 0x354-0x358 (4)
0x350|                        00 00 00 0f            |        ....    |    isstdcnt: 15 0x358-0x35c (4)
0x350|                                    00 00 00 00|            ....|    leapcnt: 0 0x35c-0x360 (4)
0x360|00 00 00 7e                                    |...~            |    timecnt: 126 0x360-0x364 (4)
0x360|            00 00 00 0f                        |    ....        |    typecnt: 15 0x364-0x368 (4)
0x360|                        00 00 00 26            |        ...&    |    charcnt: 38 0x368-0x36c (4)
     |                                               |                |  v2plusdatablock{}: 0x36c-0x878 (1292)
     |                                               |                |    transition_times[0:126]: 0x36c-0x75c (1008)
0x360|                                    ff ff ff ff|            ....|      [0]: "1879-12-31T22:23:26Z" (-2840146594) transition_time 0x36c-0x374 (8)
0x370|56 b6 cd 5e                                    |V..^            |
0x370|            ff ff ff ff 9e b9 87 fe            |    ........    |      [1]: "1918-04-15T00:23:26Z" (-1632008194) transition_time 0x374-0x37c (8)
0x370|                                    ff ff ff ff|            ....|      [2]: "1918-09-16T00:23:26Z" (-1618702594) transition_time 0x37c-0x384 (8)
0x380|9f 84 8e fe                                    |....            |
0x380|            ff ff ff ff a0 88 46 7e            |    ......F~    |      [3]: "1919-04-01T00:23:26Z" (-1601681794) transition_time 0x384-0x38c (8)
0x380|                                    ff ff ff ff|            ....|      [4]: "1919-05-22T00:23:26Z" (-1597275394) transition_time 0x38c-0x394 (8)
0x390|a0 cb 82 fe                                    |....            |
0x390|            ff ff ff ff ad e7 f1 de            |    ........    |      [5]: "1926-05-10T22:23:26Z" (-1377308194) transition_time 0x394-0x39c (8)
0x390|                                    ff ff ff ff|            ....|      [6]: "1940-08-04T22:00:00Z" (-928029600) transition_time 0x39c-0x3a4 (8)
0x3a0|c8 af 64 60                                    |..d`            |
0x3a0|            ff ff ff ff ca 62 65 50            |    .....beP    |      [7]: "1941-06-30T21:00:00Z" (-899521200) transition_time 0x3a4-0x3ac (8)
0x3a0|                                    ff ff ff ff|            ....|      [8]: "1942-11-02T01:00:00Z" (-857257200) transition_time 0x3ac-0x3b4 (8)
0x3b0|cc e7 4b 10                                    |..K.            |
0x3b0|            ff ff ff ff cd a9 17 90            |    ........    |      [9]: "1943-03-29T01:00:00Z" (-844556400) transition_time 0x3b4-0x3bc (8)
0x3b0|                                    ff ff ff ff|            ....|      [10]: "1943-10-04T01:00:00Z" (-828226800) transition_time 0x3bc-0x3c4 (8)
0x3c0|ce a2 43 10                                    |..C.            |
0x3c0|            ff ff ff ff cf 92 34 10            |    ......4.    |      [11]: "1944-04-03T01:00:00Z" (-812502000) transition_time 0x3c4-0x3cc (8)
0x3c0|                                    ff ff ff ff|            ....|      [12]: "1944-10-02T01:00:00Z" (-796777200) transition_time 0x3cc-0x3d4 (8)
0x3d0|d0 82 25 10                                    |..%.            |
0x3d0|            ff ff ff ff d0 90 89 70            |    .......p    |      [13]: "1944-10-12T23:00:00Z" (-795834000) transition_time 0x3d4-0x3dc (8)
0x3d0|                                    00 00 00 00|            ....|      [14]: "1981-03-31T21:00:00Z" (354920400) transition_time 0x3dc-0x3e4 (8)
0x3e0|15 27 a7 d0                                    |.'..            |
0x3e0|            00 00 00 00 16 18 dc 40            |    .......@    |      [15]: "1981-09-30T20:00:00Z" (370728000) transition_time 0x3e4-0x3ec (8)
0x3e0|                                    00 00 00 00|            ....|      [16]: "1982-03-31T21:00:00Z" (386456400) transition_time 0x3ec-0x3f4 (8)
0x3f0|17 08 db 50                                    |...P            |
0x3f0|            00 00 00 00 17 fa 0f c0            |    ........    |      [17]: "1982-09-30T20:00:00Z" (402264000) transition_time 0x3f4-0x3fc (8)
0x3f0|                                    00 00 00 00|            ....|      [18]: "1983-03-31T21:00:00Z" (417992400) transition_time 0x3fc-0x404 (8)
0x400|18 ea 0e d0                                    |....            |
0x400|            00 00 00 00 19 db 43 40            |    ......C@    |      [19]: "1983-09-30T20:00:00Z" (433800000) transition_time 0x404-0x40c (8)
0x400|                                    00 00 00 00|            ....|      [20]: "1984-03-31T21:00:00Z" (449614800) transition_time 0x40c-0x414 (8)
0x410|1a cc 93 d0                                    |....            |
0x410|            00 00 00 00 1b bc a0 f0            |    ........    |      [21]: "1984-09-29T23:00:00Z" (465346800) transition_time 0x414-0x41c (8)
0x410|                                    00 00 00 00|            ....|      [22]: "1985-03-30T23:00:00Z" (481071600) transition_time 0x41c-0x424 (8)
0x420|1c ac 91 f0                                    |....            |
0x420|            00 00 00 00 1d 9c 82 f0            |    ........    |      [23]: "1985-09-28T23:00:00Z" (496796400) transition_time 0x424-0x42c (8)
0x420|                                    00 00 00 00|            ....|      [24]: "1986-03-29T23:00:00Z" (512521200) transition_time 0x42c-0x434 (8)
0x430|1e 8c 73 f0                                    |..s.            |
0x430|            00 00 00 00 1f 7c 64 f0            |    .....|d.    |      [25]: "1986-09-27T23:00:00Z" (528246000) transition_time 0x434-0x43c (8)
0x430|                                    00 00 00 00|            ....|      [26]: "1987-03-28T23:00:00Z" (543970800) transition_time 0x43c-0x444 (8)
0x440|20 6c 55 f0                                    | lU.            |
0x440|            00 00 00 00 21 5c 46 f0            |    ....!\F.    |      [27]: "1987-09-26T23:00:00Z" (559695600) transition_time 0x444-0x44c (8)
0x440|                                    00 00 00 00|            ....|      [28]: "1988-03-26T23:00:00Z" (575420400) transition_time 0x44c-0x454 (8)
0x450|22 4c 37 f0                                    |"L7.            |
0x450|            00 00 00 00 23 3c 28 f0            |    ....#<(.    |      [29]: "1988-09-24T23:00:00Z" (591145200) transition_time 0x454-0x45c (8)
0x450|                                    00 00 00 00|            ....|      [30]: "1989-03-25T23:00:00Z" (606870000) transition_time 0x45c-0x464 (8)
0x460|24 2c 19 f0                                    |$,..            |
0x460|            00 00 00 00 25 1c 19 00            |    ....%...    |      [31]: "1989-09-24T00:00:00Z" (622598400) transition_time 0x464-0x46c (8)
0x460|                                    00 00 00 00|            ....|      [32]: "1990-03-25T00:00:00Z" (638323200) transition_time 0x46c-0x474 (8)
0x470|26 0c 0a 00                                    |&...            |
0x470|            00 00 00 00 27 05 35 80            |    ....'.5.    |      [33]: "1990-09-30T00:00:00Z" (654652800) transition_time 0x474-0x47c (8)
0x470|                                    00 00 00 00|            ....|      [34]: "1991-03-31T00:00:00Z" (670377600) transition_time 0x47c-0x484 (8)
0x480|27 f5 26 80                                    |'.&.            |
0x480|            00 00 00 00 28 e5 17 80            |    ....(...    |      [35]: "1991-09-29T00:00:00Z" (686102400) transition_time 0x484-0x48c (8)
0x480|                                    00 00 00 00|            ....|      [36]: "1992-03-29T00:00:00Z" (701827200) transition_time 0x48c-0x494 (8)
0x490|29 d5 08 80                                    |)...            |
0x490|            00 00 00 00 2a c4 f9 80            |    ....*...    |      [37]: "1992-09-27T00:00:00Z" (717552000) transition_time 0x494-0x49c (8)
0x490|                                    00 00 00 00|            ....|      [38]: "1993-03-28T00:00:00Z" (733276800) transition_time 0x49c-0x4a4 (8)
0x4a0|2b b4 ea 80                                    |+...            |
0x4a0|            00 00 00 00 2c a4 db 80            |    ....,...    |      [39]: "1993-09-26T00:00:00Z" (749001600) transition_time 0x4a4-0x4ac (8)
0x4a0|                                    00 00 00 00|            ....|      [40]: "1994-03-27T00:00:00Z" (764726400) transition_time 0x4ac-0x4b4 (8)
0x4b0|2d 94 cc 80                                    |-...            |
0x4b0|            00 00 00 00 2e 84 bd 80            |    ........    |      [41]: "1994-09-25T00:00:00Z" (780451200) transition_time 0x4b4-0x4bc (8)
0x4b0|                                    00 00 00 00|            ....|      [42]: "1995-03-26T00:00:00Z" (796176000) transition_time 0x4bc-0x4c4 (8)
0x4c0|2f 74 ae 80                                    |/t..            |
0x4c0|            00 00 00 00 30 64 9f 80            |    ....0d..    |      [43]: "1995-09-24T00:00:00Z" (811900800) transition_time 0x4c4-0x4cc (8)
0x4c0|                                    00 00 00 00|            ....|      [44]: "1996-03-31T00:00:00Z" (828230400) transition_time 0x4cc-0x4d4 (8)
0x4d0|31 5d cb 00                                    |1]..            |
0x4d0|            00 00 00 00 32 4d bc 00            |    ....2M..    |      [45]: "1996-09-29T00:00:00Z" (843955200) transition_time 0x4d4-0x4dc (8)
0x4d0|                                    00 00 00 00|            ....|      [46]: "1997-03-30T01:00:00Z" (859683600) transition_time 0x4dc-0x4e4 (8)
0x4e0|33 3d bb 10                                    |3=..            |
0x4e0|            00 00 00 00 34 52 96 10            |    ....4R..    |      [47]: "1997-10-26T01:00:00Z" (877827600) transition_time 0x4e4-0x4ec (8)
0x4e0|                                    00 00 00 00|            ....|      [48]: "1998-03-29T01:00:00Z" (891133200) transition_time 0x4ec-0x4f4 (8)
0x4f0|35 1d 9d 10                                    |5...            |
0x4f0|            00 00 00 00 36 32 78 10            |    ....62x.    |      [49]: "1998-10-25T01:00:00Z" (909277200) transition_time 0x4f4-0x4fc (8)
0x4f0|                                    00 00 00 00|            ....|      [50]: "1999-03-28T01:00:00Z" (922582800) transition_time 0x4fc-0x504 (8)
0x500|36 fd 7f 10                                    |6...            |
0x500|            00 00 00 00 38 1b 94 90            |    ....8...    |      [51]: "1999-10-31T01:00:00Z" (941331600) transition_time 0x504-0x50c (8)
0x500|                                    00 00 00 00|            ....|      [52]: "2001-03-25T01:00:00Z" (985482000) transition_time 0x50c-0x514 (8)
0x510|3a bd 43 10                                    |:.C.            |
0x510|            00 00 00 00 3b db 58 90            |    ....;.X.    |      [53]: "2001-10-28T01:00:00Z" (1004230800) transition_time 0x514-0x51c (8)
0x510|                                    00 00 00 00|            ....|      [54]: "2002-03-31T01:00:00Z" (1017536400) transition_time 0x51c-0x524 (8)
0x520|3c a6 5f 90                                    |<._.            |
0x520|            00 00 00 00 3d bb 3a 90            |    ....=.:.    |      [55]: "2002-10-27T01:00:00Z" (1035680400) transition_time 0x524-0x52c (8)
0x520|                                    00 00 00 00|            ....|      [56]: "2003-03-30T01:00:00Z" (1048986000) transition_time 0x52c-0x534 (8)
0x530|3e 86 41 90                                    |>.A.            |
0x530|            00 00 00 00 3f 9b 1c 90            |    ....?...    |      [57]: "2003-10-26T01:00:00Z" (1067130000) transition_time 0x534-0x53c (8)
0x530|                                    00 00 00 00|            ....|      [58]: "2004-03-28T01:00:00Z" (1080435600) transition_time 0x53c-0x544 (8)
0x540|40 66 23 90                                    |@f#.            |
0x540|            00 00 00 00 41 84 39 10            |    ....A.9.    |      [59]: "2004-10-31T01:00:00Z" (1099184400) transition_time 0x544-0x54c (8)
0x540|                                    00 00 00 00|            ....|      [60]: "2005-03-27T01:00:00Z" (1111885200) transition_time 0x54c-0x554 (8)
0x550|42 46 05 90                                    |BF..            |
0x550|            00 00 00 00 43 64 1b 10            |    ....Cd..    |      [61]: "2005-10-30T01:00:00Z" (1130634000) transition_time 0x554-0x55c (8)
0x550|                                    00 00 00 00|            ....|      [62]: "2006-03-26T01:00:00Z" (1143334800) transition_time 0x55c-0x564 (8)
0x560|44 25 e7 90                                    |D%..            |
0x560|            00 00 00 00 45 43 fd 10            |    ....EC..    |      [63]: "2006-10-29T01:00:00Z" (1162083600) transition_time 0x564-0x56c (8)
0x560|                                    00 00 00 00|            ....|      [64]: "2007-03-25T01:00:00Z" (1174784400) transition_time 0x56c-0x574 (8)
0x570|46 05 c9 90                                    |F...            |
0x570|            00 00 00 00 47 23 df 10            |    ....G#..    |      [65]: "2007-10-28T01:00:00Z" (1193533200) transition_time 0x574-0x57c (8)
0x570|                                    00 00 00 00|            ....|      [66]: "2008-03-30T01:00:00Z" (1206838800) transition_time 0x57c-0x584 (8)
0x580|47 ee e6 10                                    |G...            |
0x580|            00 00 00 00 49 03 c1 10            |    ....I...    |      [67]: "2008-10-26T01:00:00Z" (1224982800) transition_time 0x584-0x58c (8)
0x580|                                    00 00 00 00|            ....|      [68]: "2009-03-29T01:00:00Z" (1238288400) transition_time 0x58c-0x594 (8)
0x590|49 ce c8 10                                    |I...            |
0x590|            00 00 00 00 4a e3 a3 10            |    ....J...    |      [69]: "2009-10-25T01:00:00Z" (1256432400) transition_time 0x594-0x59c (8)
0x590|                                    00 00 00 00|            ....|      [70]: "2010-03-28T01:00:00Z" (1269738000) transition_time 0x59c-0x5a4 (8)
0x5a0|4b ae aa 10                                    |K...            |
0x5a0|            00 00 00 00 4c cc bf 90            |    ....L...    |      [71]: "2010-10-31T01:00:00Z" (1288486800) transition_time 0x5a4-0x5ac (8)
0x5a0|                                    00 00 00 00|            ....|      [72]: "2011-03-27T01:00:00Z" (1301187600) transition_time 0x5ac-0x5b4 (8)
0x5b0|4d 8e 8c 10                                    |M...            |
0x5b0|            00 00 00 00 4e ac a1 90            |    ....N...    |      [73]: "2011-10-30T01:00:00Z" (1319936400) transition_time 0x5b4-0x5bc (8)
0x5b0|                                    00 00 00 00|            ....|      [74]: "2012-03-25T01:00:00Z" (1332637200) transition_time 0x5bc-0x5c4 (8)
0x5c0|4f 6e 6e 10                                    |Onn.            |
0x5c0|            00 00 00 00 50 8c 83 90            |    ....P...    |      [75]: "2012-10-28T01:00:00Z" (1351386000) transition_time 0x5c4-0x5cc (8)
0x5c0|                                    00 00 00 00|            ....|      [76]: "2013-03-31T01:00:00Z" (1364691600) transition_time 0x5cc-0x5d4 (8)
0x5d0|51 57 8a 90                                    |QW..            |
0x5d0|            00 00 00 00 52 6c 65 90            |    ....Rle.    |      [77]: "2013-10-27T01:00:00Z" (1382835600) transition_time 0x5d4-0x5dc (8)
0x5d0|                                    00 00 00 00|            ....|      [78]: "2014-03-30T01:00:00Z" (1396141200) transition_time 0x5dc-0x5e4 (8)
0x5e0|53 37 6c 90                                    |S7l.            |
0x5e0|            00 00 00 00 54 4c 47 90            |    ....TLG.    |      [79]: "2014-10-26T01:00:00Z" (1414285200) transition_time 0x5e4-0x5ec (8)
0x5e0|                                    00 00 00 00|            ....|      [80]: "2015-03-29T01:00:00Z" (1427590800) transition_time 0x5ec-0x5f4 (8)
0x5f0|55 17 4e 90                                    |U.N.            |
0x5f0|            00 00 00 00 56 2c 29 90            |    ....V,).    |      [81]: "2015-10-25T01:00:00Z" (1445734800) transition_time 0x5f4-0x5fc (8)
0x5f0|                                    00 00 00 00|            ....|      [82]: "2016-03-27T01:00:00Z" (1459040400) transition_time 0x5fc-0x604 (8)
0x600|56 f7 30 90                                    |V.0.            |
0x600|            00 00 00 00 58 15 46 10            |    ....X.F.    |      [83]: "2016-10-30T01:00:00Z" (1477789200) transition_time 0x604-0x60c (8)
0x600|                                    00 00 00 00|            ....|      [84]: "2017-03-26T01:00:00Z" (1490490000) transition_time 0x60c-0x614 (8)
0x610|58 d7 12 90                                    |X...            |
0x610|            00 00 00 00 59 f5 28 10            |    ....Y.(.    |      [85]: "2017-10-29T01:00:00Z" (1509238800) transition_time 0x614-0x61c (8)
0x610|                                    00 00 00 00|            ....|      [86]: "2018-03-25T01:00:00Z" (1521939600) transition_time 0x61c-0x624 (8)
0x620|5a b6 f4 90                                    |Z...            |
0x620|            00 00 00 00 5b d5 0a 10            |    ....[...    |      [87]: "2018-10-28T01:00:00Z" (1540688400) transition_time 0x624-0x62c (8)
0x620|                                    00 00 00 00|            ....|      [88]: "2019-03-31T01:00:00Z" (1553994000) transition_time 0x62c-0x634 (8)
0x630|5c a0 11 10                                    |\...            |
0x630|            00 00 00 00 5d b4 ec 10            |    ....]...    |      [89]: "2019-10-27T01:00:00Z" (1572138000) transition_time 0x634-0x63c (8)
0x630|                                    00 00 00 00|            ....|      [90]: "2020-03-29T01:00:00Z" (1585443600) transition_time 0x63c-0x644 (8)
0x640|5e 7f f3 10                                    |^...            |
0x640|            00 00 00 00 5f 94 ce 10            |    ...._...    |      [91]: "2020-10-25T01:00:00Z" (1603587600) transition_time 0x644-0x64c (8)
0x640|                                    00 00 00 00|            ....|      [92]: "2021-03-28T01:00:00Z" (1616893200) transition_time 0x64c-0x654 (8)
0x650|60 5f d5 10                                    |`_..            |
0x650|            00 00 00 00 61 7d ea 90            |    ....a}..    |      [93]: "2021-10-31T01:00:00Z" (1635642000) transition_time 0x654-0x65c (8)
0x650|                                    00 00 00 00|            ....|      [94]: "2022-03-27T01:00:00Z" (1648342800) transition_time 0x65c-0x664 (8)
0x660|62 3f b7 10                                    |b?..            |
0x660|            00 00 00 00 63 5d cc 90            |    ....c]..    |      [95]: "2022-10-30T01:00:00Z" (1667091600) transition_time 0x664-0x66c (8)
0x660|                                    00 00 00 00|            ....|      [96]: "2023-03-26T01:00:00Z" (1679792400) transition_time 0x66c-0x674 (8)
0x670|64 1f 99 10                                    |d...            |
0x670|            00 00 00 00 65 3d ae 90            |    ....e=..    |      [97]: "2023-10-29T01:00:00Z" (1698541200) transition_time 0x674-0x67c (8)
0x670|                                    00 00 00 00|            ....|      [98]: "2024-03-31T01:00:00Z" (1711846800) transition_time 0x67c-0x684 (8)
0x680|66 08 b5 90                                    |f...            |
0x680|            00 00 00 00 67 1d 90 90            |    ....g...    |      [99]: "2024-10-27T01:00:00Z" (1729990800) transition_time 0x684-0x68c (8)
0x680|                                    00 00 00 00|            ....|      [100]: "2025-03-30T01:00:00Z" (1743296400) transition_time 0x68c-0x694 (8)
0x690|67 e8 97 90                                    |g...            |
0x690|            00 00 00 00 68 fd 72 90            |    ....h.r.    |      [101]: "2025-10-26T01:00:00Z" (1761440400) transition_time 0x694-0x69c (8)
0x690|                                    00 00 00 00|            ....|      [102]: "2026-03-29T01:00:00Z" (1774746000) transition_time 0x69c-0x6a4 (8)
0x6a0|69 c8 79 90                                    |i.y.            |
0x6a0|            00 00 00 00 6a dd 54 90            |    ....j.T.    |      [103]: "2026-10-25T01:00:00Z" (1792890000) transition_time 0x6a4-0x6ac (8)
0x6a0|                                    00 00 00 00|            ....|      [104]: "2027-03-28T01:00:00Z" (1806195600) transition_time 0x6ac-0x6b4 (8)
0x6b0|6b a8 5b 90                                    |k.[.            |
0x6b0|            00 00 00 00 6c c6 71 10            |    ....l.q.    |      [105]: "2027-10-31T01:00:00Z" (1824944400) transition_time 0x6b4-0x6bc (8)
0x6b0|                                    00 00 00 00|            ....|      [106]: "2028-03-26T01:00:00Z" (1837645200) transition_time 0x6bc-0x6c4 (8)
0x6c0|6d 88 3d 90                                    |m.=.            |
0x6c0|            00 00 00 00 6e a6 53 10            |    ....n.S.    |      [107]: "2028-10-29T01:00:00Z" (1856394000) transition_time 0x6c4-0x6cc (8)
0x6c0|                                    00 00 00 00|            ....|      [108]: "2029-03-25T01:00:00Z" (1869094800) transition_time 0x6cc-0x6d4 (8)
0x6d0|6f 68 1f 90                                    |oh..            |
0x6d0|            00 00 00 00 70 86 35 10            |    ....p.5.    |      [109]: "2029-10-28T01:00:00Z" (1887843600) transition_time 0x6d4-0x6dc (8)
0x6d0|                                    00 00 00 00|            ....|      [110]: "2030-03-31T01:00:00Z" (1901149200) transition_time 0x6dc-0x6e4 (8)
0x6e0|71 51 3c 10                                    |qQ<.            |
0x6e0|            00 00 00 00 72 66 17 10            |    ....rf..    |      [111]: "2030-10-27T01:00:00Z" (1919293200) transition_time 0x6e4-0x6ec (8)
0x6e0|                                    00 00 00 00|            ....|      [112]: "2031-03-30T01:00:00Z" (1932598800) transition_time 0x6ec-0x6f4 (8)
0x6f0|73 31 1e 10                                    |s1..            |
0x6f0|            00 00 00 00 74 45 f9 10            |    ....tE..    |      [113]: "2031-10-26T01:00:00Z" (1950742800) transition_time 0x6f4-0x6fc (8)
0x6f0|                                    00 00 00 00|            ....|      [114]: "2032-03-28T01:00:00Z" (1964048400) transition_time 0x6fc-0x704 (8)
0x700|75 11 00 10                                    |u...            |
0x700|            00 00 00 00 76 2f 15 90            |    ....v/..    |      [115]: "2032-10-31T01:00:00Z" (1982797200) transition_time 0x704-0x70c (8)
0x700|                                    00 00 00 00|            ....|      [116]: "2033-03-27T01:00:00Z" (1995498000) transition_time 0x70c-0x714 (8)
0x710|76 f0 e2 10                                    |v...            |
0x710|            00 00 00 00 78 0e f7 90            |    ....x...    |      [117]: "2033-10-30T01:00:00Z" (2014246800) transition_time 0x714-0x71c (8)
0x710|                                    00 00 00 00|            ....|      [118]: "2034-03-26T01:00:00Z" (2026947600) transition_time 0x71c-0x724 (8)
0x720|78 d0 c4 10                                    |x...            |
0x720|            00 00 00 00 79 ee d9 90            |    ....y...    |      [119]: "2034-10-29T01:00:00Z" (2045696400) transition_time 0x724-0x72c (8)
0x720|                                    00 00 00 00|            ....|      [120]: "2035-03-25T01:00:00Z" (2058397200) transition_time 0x72c-0x734 (8)
0x730|7a b0 a6 10                                    |z...            |
0x730|            00 00 00 00 7b ce bb 90            |    ....{...    |      [121]: "2035-10-28T01:00:00Z" (2077146000) transition_time 0x734-0x73c (8)
0x730|                                    00 00 00 00|            ....|      [122]: "2036-03-30T01:00:00Z" (2090451600) transition_time 0x73c-0x744 (8)
0x740|7c 99 c2 90                                    ||...            |
0x740|            00 00 00 00 7d ae 9d 90            |    ....}...    |      [123]: "2036-10-26T01:00:00Z" (2108595600) transition_time 0x744-0x74c (8)
0x740|                                    00 00 00 00|            ....|      [124]: "2037-03-29T01:00:00Z" (2121901200) transition_time 0x74c-0x754 (8)
0x750|7e 79 a4 90                                    |~y..            |
0x750|            00 00 00 00 7f 8e 7f 90            |    ........    |      [125]: "2037-10-25T01:00:00Z" (2140045200) transition_time 0x754-0x75c (8)
     |                                               |                |    transition_types[0:126]: 0x75c-0x7da (126)
0x750|                                    01         |            .   |      [0]: 1 transition_type 0x75c-0x75d (1)
0x750|                                       02      |             .  |      [1]: 2 transition_type 0x75d-0x75e (1)
0x750|                                          01   |              . |      [2]: 1 transition_type 0x75e-0x75f (1)
0x750|                                             02|               .|      [3]: 2 transition_type 0x75f-0x760 (1)
0x760|01                                             |.               |      [4]: 1 transition_type 0x760-0x761 (1)
0x760|   03                                          | .              |      [5]: 3 transition_type 0x761-0x762 (1)
0x760|      04                                       |  .             |      [6]: 4 transition_type 0x762-0x763 (1)
0x760|         07                                    |   .            |      [7]: 7 transition_type 0x763-0x764 (1)
0x760|            05                                 |    .           |      [8]: 5 transition_type 0x764-0x765 (1)
0x760|               06                              |     .          |      [9]: 6 transition_type 0x765-0x766 (1)
0x760|                  05                           |      .         |      [10]: 5 transition_type 0x766-0x767 (1)
0x760|                     06                        |       .        |      [11]: 6 transition_type 0x767-0x768 (1)
0x760|                        05                     |        .       |      [12]: 5 transition_type 0x768-0x769 (1)
0x760|                           04                  |         .      |      [13]: 4 transition_type 0x769-0x76a (1)
0x760|                              08               |          .     |      [14]: 8 transition_type 0x76a-0x76b (1)
0x760|                                 04            |           .    |      [15]: 4 transition_type 0x76b-0x76c (1)
0x760|                                    08         |            .   |      [16]: 8 transition_type 0x76c-0x76d (1)
0x760|                                       04      |             .  |      [17]: 4 transition_type 0x76d-0x76e (1)
0x760|                                          08   |              . |      [18]: 8 transition_type 0x76e-0x76f (1)
0x760|                                             04|               .|      [19]: 4 transition_type 0x76f-0x770 (1)
0x770|08                                             |.               |      [20]: 8 transition_type 0x770-0x771 (1)
0x770|   09                                          | .              |      [21]: 9 transition_type 0x771-0x772 (1)
0x770|      0a                                       |  .             |      [22]: 10 transition_type 0x772-0x773 (1)
0x770|         09                                    |   .            |      [23]: 9 transition_type 0x773-0x774 (1)
0x770|            0a                                 |    .           |      [24]: 10 transition_type 0x774-0x775 (1)
0x770|               09                              |     .          |      [25]: 9 transition_type 0x775-0x776 (1)
0x770|                  0a                           |      .         |      [26]: 10 transition_type 0x776-0x777 (1)
0x770|                     09                        |       .        |      [27]: 9 transition_type 0x777-0x778 (1)
0x770|                        0a                     |        .       |      [28]: 10 transition_type 0x778-0x779 (1)
0x770|                           09                  |         .      |      [29]: 9 transition_type 0x779-0x77a (1)
0x770|                              0b               |          .     |      [30]: 11 transition_type 0x77a-0x77b (1)
0x770|                                 0c            |           .    |      [31]: 12 transition_type 0x77b-0x77c (1)
0x770|                                    0b         |            .   |      [32]: 11 transition_type 0x77c-0x77d (1)
0x770|                                       0c      |             .  |      [33]: 12 transition_type 0x77d-0x77e (1)
0x770|                                          0b   |              . |      [34]: 11 transition_type 0x77e-0x77f (1)
0x770|                                             0c|               .|      [35]: 12 transition_type 0x77f-0x780 (1)
0x780|0b                                             |.               |      [36]: 11 transition_type 0x780-0x781 (1)
0x780|   0c                                          | .              |      [37]: 12 transition_type 0x781-0x782 (1)
0x780|      0b                                       |  .             |      [38]: 11 transition_type 0x782-0x783 (1)
0x780|         0c                                    |   .            |      [39]: 12 transition_type 0x783-0x784 (1)
0x780|            0b                                 |    .           |      [40]: 11 transition_type 0x784-0x785 (1)
0x780|               0c                              |     .          |      [41]: 12 transition_type 0x785-0x786 (1)
0x780|                  0b                           |      .         |      [42]: 11 transition_type 0x786-0x787 (1)
0x780|                     0c                        |       .        |      [43]: 12 transition_type 0x787-0x788 (1)
0x780|                        0b                     |        .       |      [44]: 11 transition_type 0x788-0x789 (1)
0x780|                           0c                  |         .      |      [45]: 12 transition_type 0x789-0x78a (1)
0x780|                              0d               |          .     |      [46]: 13 transition_type 0x78a-0x78b (1)
0x780|                                 0e            |           .    |      [47]: 14 transition_type 0x78b-0x78c (1)
0x780|                                    0d         |            .   |      [48]: 13 transition_type 0x78c-0x78d (1)
0x780|                                       0e      |             .  |      [49]: 14 transition_type 0x78d-0x78e (1)
0x780|                                          0d   |              . |      [50]: 13 transition_type 0x78e-0x78f (1)
0x780|                                             0e|               .|      [51]: 14 transition_type 0x78f-0x790 (1)
0x790|0d                                             |.               |      [52]: 13 transition_type 0x790-0x791 (1)
0x790|   0e                                          | .              |      [53]: 14 transition_type 0x791-0x792 (1)
0x790|      0d                                       |  .             |      [54]: 13 transition_type 0x792-0x793 (1)
0x790|         0e                                    |   .            |      [55]: 14 transition_type 0x793-0x794 (1)
0x790|            0d                                 |    .           |      [56]: 13 transition_type 0x794-0x795 (1)
0x790|               0e                              |     .          |      [57]: 14 transition_type 0x795-0x796 (1)
0x790|                  0d                           |      .         |      [58]: 13 transition_type 0x796-0x797 (1)
0x790|                     0e                        |       .        |      [59]: 14 transition_type 0x797-0x798 (1)
0x790|                        0d                     |        .       |      [60]: 13 transition_type 0x798-0x799 (1)
0x790|                           0e                  |         .      |      [61]: 14 transition_type 0x799-0x79a (1)
0x790|                              0d               |          .     |      [62]: 13 transition_type 0x79a-0x79b (1)
0x790|                                 0e            |           .    |      [63]: 14 transition_type 0x79b-0x79c (1)
0x790|                                    0d         |            .   |      [64]: 13 transition_type 0x79c-0x79d (1)
0x790|                                       0e      |             .  |      [65]: 14 transition_type 0x79d-0x79e (1)
0x790|                                          0d   |              . |      [66]: 13 transition_type 0x79e-0x79f (1)
0x790|                                             0e|               .|      [67]: 14 transition_type 0x79f-0x7a0 (1)
0x7a0|0d                                             |.               |      [68]: 13 transition_type 0x7a0-0x7a1 (1)
0x7a0|   0e                                          | .              |      [69]: 14 transition_type 0x7a1-0x7a2 (1)
0x7a0|      0d                                       |  .             |      [70]: 13 transition_type 0x7a2-0x7a3 (1)
0x7a0|         0e                                    |   .            |      [71]: 14 transition_type 0x7a3-0x7a4 (1)
0x7a0|            0d                                 |    .           |      [72]: 13 transition_type 0x7a4-0x7a5 (1)
0x7a0|               0e                              |     .          |      [73]: 14 transition_type 0x7a5-0x7a6 (1)
0x7a0|                  0d                           |      .         |      [74]: 13 transition_type 0x7a6-0x7a7 (1)
0x7a0|                     0e                        |       .        |      [75]: 14 transition_type 0x7a7-0x7a8 (1)
0x7a0|                        0d                     |        .       |      [76]: 13 transition_type 0x7a8-0x7a9 (1)
0x7a0|                           0e                  |         .      |      [77]: 14 transition_type 0x7a9-0x7aa (1)
0x7a0|                              0d               |          .     |      [78]: 13 transition_type 0x7aa-0x7ab (1)
0x7a0|                                 0e            |           .    |      [79]: 14 transition_type 0x7ab-0x7ac (1)
0x7a0|                                    0d         |            .   |      [80]: 13 transition_type 0x7ac-0x7ad (1)
0x7a0|                                       0e      |             .  |      [81]: 14 transition_type 0x7ad-0x7ae (1)
0x7a0|                                          0d   |              . |      [82]: 13 transition_type 0x7ae-0x7af (1)
0x7a0|                                             0e|               .|      [83]: 14 transition_type 0x7af-0x7b0 (1)
0x7b0|0d                                             |.               |      [84]: 13 transition_type 0x7b0-0x7b1 (1)
0x7b0|   0e                                          | .              |      [85]: 14 transition_type 0x7b1-0x7b2 (1)
0x7b0|      0d                                       |  .             |      [86]: 13 transition_type 0x7b2-0x7b3 (1)
0x7b0|         0e                                    |   .            |      [87]: 14 transition_type 0x7b3-0x7b4 (1)
0x7b0|            0d                                 |    .           |      [88]: 13 transition_type 0x7b4-0x7b5 (1)
0x7b0|               0e                              |     .          |      [89]: 14 transition_type 0x7b5-0x7b6 (1)
0x7b0|                  0d                           |      .         |      [90]: 13 transition_type 0x7b6-0x7b7 (1)
0x7b0|                     0e                        |       .        |      [91]: 14 transition_type 0x7b7-0x7b8 (1)
0x7b0|                        0d                     |        .       |      [92]: 13 transition_type 0x7b8-0x7b9 (1)
0x7b0|                           0e                  |         .      |      [93]: 14 transition_type 0x7b9-0x7ba (1)
0x7b0|                              0d               |          .     |      [94]: 13 transition_type 0x7ba-0x7bb (1)
0x7b0|                                 0e            |           .    |      [95]: 14 transition_type 0x7bb-0x7bc (1)
0x7b0|                                    0d         |            .   |      [96]: 13 transition_type 0x7bc-0x7bd (1)
0x7b0|                                       0e      |             .  |      [97]: 14 transition_type 0x7bd-0x7be (1)
0x7b0|                                          0d   |              . |      [98]: 13 transition_type 0x7be-0x7bf (1)
0x7b0|                                             0e|               .|      [99]: 14 transition_type 0x7bf-0x7c0 (1)
0x7c0|0d                                             |.               |      [100]: 13 transition_type 0x7c0-0x7c1 (1)
0x7c0|   0e                                          | .              |      [101]: 14 transition_type 0x7c1-0x7c2 (1)
0x7c0|      0d                                       |  .             |      [102]: 13 transition_type 0x7c2-0x7c3 (1)
0x7c0|         0e                                    |   .            |      [103]: 14 transition_type 0x7c3-0x7c4 (1)
0x7c0|            0d                                 |    .           |      [104]: 13 transition_type 0x7c4-0x7c5 (1)
0x7c0|               0e                              |     .          |      [105]: 14 transition_type 0x7c5-0x7c6 (1)
0x7c0|                  0d                           |      .         |      [106]: 13 transition_type 0x7c6-0x7c7 (1)
0x7c0|                     0e                        |       .        |      [107]: 14 transition_type 0x7c7-0x7c8 (1)
0x7c0|                        0d                     |        .       |      [108]: 13 transition_type 0x7c8-0x7c9 (1)
0x7c0|                           0e                  |         .      |      [109]: 14 transition_type 0x7c9-0x7ca (1)
0x7c0|                              0d               |          .     |      [110]: 13 transition_type 0x7ca-0x7cb (1)
0x7c0|                                 0e            |           .    |      [111]: 14 transition_type 0x7cb-0x7cc (1)
0x7c0|                                    0d         |            .   |      [112]: 13 transition_type 0x7cc-0x7cd (1)
0x7c0|                                       0e      |             .  |      [113]: 14 transition_type 0x7cd-0x7ce (1)
0x7c0|                                          0d   |              . |      [114]: 13 transition_type 0x7ce-0x7cf (1)
0x7c0|                                             0e|               .|      [115]: 14 transition_type 0x7cf-0x7d0 (1)
0x7d0|0d                                             |.               |      [116]: 13 transition_type 0x7d0-0x7d1 (1)
0x7d0|   0e                                          | .              |      [117]: 14 transition_type 0x7d1-0x7d2 (1)
0x7d0|      0d                                       |  .             |      [118]: 13 transition_type 0x7d2-0x7d3 (1)
0x7d0|         0e                                    |   .            |      [119]: 14 transition_type 0x7d3-0x7d4 (1)
0x7d0|            0d                                 |    .           |      [120]: 13 transition_type 0x7d4-0x7d5 (1)
0x7d0|               0e                              |     .          |      [121]: 14 transition_type 0x7d5-0x7d6 (1)
0x7d0|                  0d                           |      .         |      [122]: 13 transition_type 0x7d6-0x7d7 (1)
0x7d0|                     0e                        |       .        |      [123]: 14 transition_type 0x7d7-0x7d8 (1)
0x7d0|                        0d                     |        .       |      [124]: 13 transition_type 0x7d8-0x7d9 (1)
0x7d0|                           0e                  |         .      |      [125]: 14 transition_type 0x7d9-0x7da (1)
     |                                               |                |    local_time_type_records[0:15]: 0x7da-0x834 (90)
     |                                               |                |      [0]{}: local_time_type 0x7da-0x7e0 (6)
0x7d0|                              00 00 16 a2      |          ....  |        utoff: 5794 (valid) 0x7da-0x7de (4)
0x7d0|                                          00   |              . |        dst: 0 (valid) 0x7de-0x7df (1)
0x7d0|                                             00|               .|        idx: 0 (valid) 0x7df-0x7e0 (1)
     |                                               |                |      [1]{}: local_time_type 0x7e0-0x7e6 (6)
0x7e0|00 00 16 a2                                    |....            |        utoff: 5794 (valid) 0x7e0-0x7e4 (4)
0x7e0|            00                                 |    .           |        dst: 0 (valid) 0x7e4-0x7e5 (1)
0x7e0|               04                              |     .          |        idx: 4 (valid) 0x7e5-0x7e6 (1)
     |                                               |                |      [2]{}: local_time_type 0x7e6-0x7ec (6)
0x7e0|                  00 00 24 b2                  |      ..$.      |        utoff: 9394 (valid) 0x7e6-0x7ea (4)
0x7e0|                              01               |          .     |        dst: 1 (valid) 0x7ea-0x7eb (1)
0x7e0|                                 08            |           .    |        idx: 8 (valid) 0x7eb-0x7ec (1)
     |                                               |                |      [3]{}: local_time_type 0x7ec-0x7f2 (6)
0x7e0|                                    00 00 1c 20|            ... |        utoff: 7200 (valid) 0x7ec-0x7f0 (4)
0x7f0|00                                             |.               |        dst: 0 (valid) 0x7f0-0x7f1 (1)
0x7f0|   0c                                          | .              |        idx: 12 (valid) 0x7f1-0x7f2 (1)
     |                                               |                |      [4]{}: local_time_type 0x7f2-0x7f8 (6)
0x7f0|      00 00 2a 30                              |  ..*0          |        utoff: 10800 (valid) 0x7f2-0x7f6 (4)
0x7f0|                  00                           |      .         |        dst: 0 (valid) 0x7f6-0x7f7 (1)
0x7f0|                     10                        |       .        |        idx: 16 (valid) 0x7f7-0x7f8 (1)
     |                                               |                |      [5]{}: local_time_type 0x7f8-0x7fe (6)
0x7f0|                        00 00 0e 10            |        ....    |        utoff: 3600 (valid) 0x7f8-0x7fc (4)
0x7f0|                                    00         |            .   |        dst: 0 (valid) 0x7fc-0x7fd (1)
0x7f0|                                       14      |             .  |        idx: 20 (valid) 0x7fd-0x7fe (1)
     |                                               |                |      [6]{}: local_time_type 0x7fe-0x804 (6)
0x7f0|                                          00 00|              ..|        utoff: 7200 (valid) 0x7fe-0x802 (4)
0x800|1c 20                                          |.               |
0x800|      01                                       |  .             |        dst: 1 (valid) 0x802-0x803 (1)
0x800|         18                                    |   .            |        idx: 24 (valid) 0x803-0x804 (1)
     |                                               |                |      [7]{}: local_time_type 0x804-0x80a (6)
0x800|            00 00 1c 20                        |    ...         |        utoff: 7200 (valid) 0x804-0x808 (4)
0x800|                        01                     |        .       |        dst: 1 (valid) 0x808-0x809 (1)
0x800|                           18                  |         .      |        idx: 24 (valid) 0x809-0x80a (1)
     |                                               |                |      [8]{}: local_time_type 0x80a-0x810 (6)
0x800|                              00 00 38 40      |          ..8@  |        utoff: 14400 (valid) 0x80a-0x80e (4)
0x800|                                          01   |              . |        dst: 1 (valid) 0x80e-0x80f (1)
0x800|                                             1d|               .|        idx: 29 (valid) 0x80f-0x810 (1)
     |                                               |                |      [9]{}: local_time_type 0x810-0x816 (6)
0x810|00 00 2a 30                                    |..*0            |        utoff: 10800 (valid) 0x810-0x814 (4)
0x810|            00                                 |    .           |        dst: 0 (valid) 0x814-0x815 (1)
0x810|               10                              |     .          |        idx: 16 (valid) 0x815-0x816 (1)
     |                                               |                |      [10]{}: local_time_type 0x816-0x81c (6)
0x810|                  00 00 38 40                  |      ..8@      |        utoff: 14400 (valid) 0x816-0x81a (4)
0x810|                              01               |          .     |        dst: 1 (valid) 0x81a-0x81b (1)
0x810|                                 1d            |           .    |        idx: 29 (valid) 0x81b-0x81c (1)
     |                                               |                |      [11]{}: local_time_type 0x81c-0x822 (6)
0x810|                                    00 00 2a 30|            ..*0|        utoff: 10800 (valid) 0x81c-0x820 (4)
0x820|01                                             |.               |        dst: 1 (valid) 0x820-0x821 (1)
0x820|   21                                          | !              |        idx: 33 (valid) 0x821-0x822 (1)
     |                                               |                |      [12]{}: local_time_type 0x822-0x828 (6)
0x820|      00 00 1c 20                              |  ...           |        utoff: 7200 (valid) 0x822-0x826 (4)
0x820|                  00                           |      .         |        dst: 0 (valid) 0x826-0x827 (1)
0x820|                     0c                        |       .        |        idx: 12 (valid) 0x827-0x828 (1)
     |                                               |                |      [13]{}: local_time_type 0x828-0x82e (6)
0x820|                        00 00 2a 30            |        ..*0    |        utoff: 10800 (valid) 0x828-0x82c (4)
0x820|                                    01         |            .   |        dst: 1 (valid) 0x82c-0x82d (1)
0x820|                                       21      |             !  |        idx: 33 (valid) 0x82d-0x82e (1)
     |                                               |                |      [14]{}: local_time_type 0x82e-0x834 (6)
0x820|                                          00 00|              ..|        utoff: 7200 (valid) 0x82e-0x832 (4)
0x830|1c 20                                          |.               |
0x830|      00                                       |  .             |        dst: 0 (valid) 0x832-0x833 (1)
0x830|         0c                                    |   .            |        idx: 12 (valid) 0x833-0x834 (1)
     |                                               |                |    time_zone_designations[0:9]: 0x834-0x85a (38)
0x830|            4c 4d 54 00                        |    LMT.        |      [0]: "LMT" time_zone_designation 0x834-0x838 (4)
0x830|                        52 4d 54 00            |        RMT.    |      [1]: "RMT" time_zone_designation 0x838-0x83c (4)
0x830|                                    4c 53 54 00|            LST.|      [2]: "LST" time_zone_designation 0x83c-0x840 (4)
0x840|45 45 54 00                                    |EET.            |      [3]: "EET" time_zone_designation 0x840-0x844 (4)
0x840|            4d 53 4b 00                        |    MSK.        |      [4]: "MSK" time_zone_designation 0x844-0x848 (4)
0x840|                        43 45 54 00            |        CET.    |      [5]: "CET" time_zone_designation 0x848-0x84c (4)
0x840|                                    43 45 53 54|            CEST|      [6]: "CEST" time_zone_designation 0x84c-0x851 (5)
0x850|00                                             |.               |
0x850|   4d 53 44 00                                 | MSD.           |      [7]: "MSD" time_zone_designation 0x851-0x855 (4)
0x850|               45 45 53 54 00                  |     EEST.      |      [8]: "EEST" time_zone_designation 0x855-0x85a (5)
     |                                               |                |    leap_second_records[0:0]: 0x85a-0x85a (0)
     |                                               |                |    standard_wall_indicators[0:15]: 0x85a-0x869 (15)
0x850|                              00               |          .     |      [0]: 0 standard_wall_indicator (valid) 0x85a-0x85b (1)
0x850|                                 00            |           .    |      [1]: 0 standard_wall_indicator (valid) 0x85b-0x85c (1)
0x850|                                    00         |            .   |      [2]: 0 standard_wall_indicator (valid) 0x85c-0x85d (1)
0x850|                                       00      |             .  |      [3]: 0 standard_wall_indicator (valid) 0x85d-0x85e (1)
0x850|                                          00   |              . |      [4]: 0 standard_wall_indicator (valid) 0x85e-0x85f (1)
0x850|                                             01|               .|      [5]: 1 standard_wall_indicator (valid) 0x85f-0x860 (1)
0x860|01                                             |.               |      [6]: 1 standard_wall_indicator (valid) 0x860-0x861 (1)
0x860|   00                                          | .              |      [7]: 0 standard_wall_indicator (valid) 0x861-0x862 (1)
0x860|      00                                       |  .             |      [8]: 0 standard_wall_indicator (valid) 0x862-0x863 (1)
0x860|         01                                    |   .            |      [9]: 1 standard_wall_indicator (valid) 0x863-0x864 (1)
0x860|            01                                 |    .           |      [10]: 1 standard_wall_indicator (valid) 0x864-0x865 (1)
0x860|               01                              |     .          |      [11]: 1 standard_wall_indicator (valid) 0x865-0x866 (1)
0x860|                  01                           |      .         |      [12]: 1 standard_wall_indicator (valid) 0x866-0x867 (1)
0x860|                     01                        |       .        |      [13]: 1 standard_wall_indicator (valid) 0x867-0x868 (1)
0x860|                        01                     |        .       |      [14]: 1 standard_wall_indicator (valid) 0x868-0x869 (1)
     |                                               |                |    ut_local_indicators[0:15]: 0x869-0x878 (15)
0x860|                           00                  |         .      |      [0]: 0 ut_local_indicator (valid) 0x869-0x86a (1)
0x860|                              00               |          .     |      [1]: 0 ut_local_indicator (valid) 0x86a-0x86b (1)
0x860|                                 00            |           .    |      [2]: 0 ut_local_indicator (valid) 0x86b-0x86c (1)
0x860|                                    00         |            .   |      [3]: 0 ut_local_indicator (valid) 0x86c-0x86d (1)
0x860|                                       00      |             .  |      [4]: 0 ut_local_indicator (valid) 0x86d-0x86e (1)
0x860|                                          00   |              . |      [5]: 0 ut_local_indicator (valid) 0x86e-0x86f (1)
0x860|                                             00|               .|      [6]: 0 ut_local_indicator (valid) 0x86f-0x870 (1)
0x870|00                                             |.               |      [7]: 0 ut_local_indicator (valid) 0x870-0x871 (1)
0x870|   00                                          | .              |      [8]: 0 ut_local_indicator (valid) 0x871-0x872 (1)
0x870|      00                                       |  .             |      [9]: 0 ut_local_indicator (valid) 0x872-0x873 (1)
0x870|         00                                    |   .            |      [10]: 0 ut_local_indicator (valid) 0x873-0x874 (1)
0x870|            00                                 |    .           |      [11]: 0 ut_local_indicator (valid) 0x874-0x875 (1)
0x870|               00                              |     .          |      [12]: 0 ut_local_indicator (valid) 0x875-0x876 (1)
0x870|                  01                           |      .         |      [13]: 1 ut_local_indicator (valid) 0x876-0x877 (1)
0x870|                     01                        |       .        |      [14]: 1 ut_local_indicator (valid) 0x877-0x878 (1)
     |                                               |                |  footer{}: 0x878-0x896 (30)
0x870|                        0a                     |        .       |    nl1: 10 (valid) 0x878-0x879 (1)
0x870|                           45 45 54 2d 32 45 45|         EET-2EE|    tz_string: "EET-2EEST,M3.5.0/3,M10.5.0/4" 0x879-0x895 (28)
0x880|53 54 2c 4d 33 2e 35 2e 30 2f 33 2c 4d 31 30 2e|ST,M3.5.0/3,M10.|
0x890|35 2e 30 2f 34                                 |5.0/4           |
0x890|               0a|                             |     .|         |    nl2: 10 (valid) 0x895-0x896 (1)
