$ fq -d tzif dv Rome
     |00 01 02 03 04 05 06 07 08 09 0a 0b 0c 0d 0e 0f|0123456789abcdef|.{}: Rome (tzif) 0x0-0xa51 (2641)
     |                                               |                |  v1header{}: 0x0-0x2c (44)
0x000|54 5a 69 66                                    |TZif            |    magic: 0x545a6966 (valid) 0x0-0x4 (4)
0x000|            32                                 |    2           |    ver: "2" (0x32) (valid) 0x4-0x5 (1)
0x000|               00 00 00 00 00 00 00 00 00 00 00|     ...........|    reserved: raw bits 0x5-0x14 (15)
0x010|00 00 00 00                                    |....            |
0x010|            00 00 00 07                        |    ....        |    isutcnt: 7 0x14-0x18 (4)
0x010|                        00 00 00 07            |        ....    |    isstdcnt: 7 0x18-0x1c (4)
0x010|                                    00 00 00 00|            ....|    leapcnt: 0 0x1c-0x20 (4)
0x020|00 00 00 a9                                    |....            |    timecnt: 169 0x20-0x24 (4)
0x020|            00 00 00 07                        |    ....        |    typecnt: 7 0x24-0x28 (4)
0x020|                        00 00 00 0d            |        ....    |    charcnt: 13 0x28-0x2c (4)
     |                                               |                |  v1datablock{}: 0x2c-0x3be (914)
     |                                               |                |    transition_times[0:169]: 0x2c-0x2d0 (676)
0x020|                                    80 00 00 00|            ....|      [0]: "1901-12-13T20:45:52Z" (-2147483648) transition_time 0x2c-0x30 (4)
0x030|9b 38 f8 70                                    |.8.p            |      [1]: "1916-06-03T23:00:00Z" (-1690765200) transition_time 0x30-0x34 (4)
0x030|            9b d5 cc e0                        |    ....        |      [2]: "1916-09-30T22:00:00Z" (-1680487200) transition_time 0x34-0x38 (4)
0x030|                        9c c5 cb f0            |        ....    |      [3]: "1917-03-31T23:00:00Z" (-1664758800) transition_time 0x38-0x3c (4)
0x030|                                    9d b7 00 60|            ...`|      [4]: "1917-09-30T22:00:00Z" (-1648951200) transition_time 0x3c-0x40 (4)
0x040|9e 89 fe 70                                    |...p            |      [5]: "1918-03-09T23:00:00Z" (-1635123600) transition_time 0x40-0x44 (4)
0x040|            9f a0 1c e0                        |    ....        |      [6]: "1918-10-06T22:00:00Z" (-1616896800) transition_time 0x44-0x48 (4)
0x040|                        a0 60 a5 f0            |        .`..    |      [7]: "1919-03-01T23:00:00Z" (-1604278800) transition_time 0x48-0x4c (4)
0x040|                                    a1 7e ad 60|            .~.`|      [8]: "1919-10-04T22:00:00Z" (-1585533600) transition_time 0x4c-0x50 (4)
0x050|a2 5c 37 70                                    |.\7p            |      [9]: "1920-03-20T23:00:00Z" (-1571014800) transition_time 0x50-0x54 (4)
0x050|            a3 4c 1a 60                        |    .L.`        |      [10]: "1920-09-18T22:00:00Z" (-1555293600) transition_time 0x54-0x58 (4)
0x050|                        c8 6c 35 f0            |        .l5.    |      [11]: "1940-06-14T23:00:00Z" (-932432400) transition_time 0x58-0x5c (4)
0x050|                                    cc e7 4b 10|            ..K.|      [12]: "1942-11-02T01:00:00Z" (-857257200) transition_time 0x5c-0x60 (4)
0x060|cd a9 17 90                                    |....            |      [13]: "1943-03-29T01:00:00Z" (-844556400) transition_time 0x60-0x64 (4)
0x060|            ce a2 43 10                        |    ..C.        |      [14]: "1943-10-04T01:00:00Z" (-828226800) transition_time 0x64-0x68 (4)
0x060|                        cf 92 34 10            |        ..4.    |      [15]: "1944-04-03T01:00:00Z" (-812502000) transition_time 0x68-0x6c (4)
0x060|                                    d0 6e 5e 90|            .n^.|      [16]: "1944-09-17T01:00:00Z" (-798073200) transition_time 0x6c-0x70 (4)
0x070|d1 72 16 10                                    |.r..            |      [17]: "1945-04-02T01:00:00Z" (-781052400) transition_time 0x70-0x74 (4)
0x070|            d2 4c d2 f0                        |    .L..        |      [18]: "1945-09-14T23:00:00Z" (-766717200) transition_time 0x74-0x78 (4)
0x070|                        d3 3e 31 90            |        .>1.    |      [19]: "1946-03-17T01:00:00Z" (-750898800) transition_time 0x78-0x7c (4)
0x070|                                    d4 49 d2 10|            .I..|      [20]: "1946-10-06T01:00:00Z" (-733359600) transition_time 0x7c-0x80 (4)
0x080|d5 1d f7 70                                    |...p            |      [21]: "1947-03-15T23:00:00Z" (-719456400) transition_time 0x80-0x84 (4)
0x080|            d6 29 97 f0                        |    .)..        |      [22]: "1947-10-04T23:00:00Z" (-701917200) transition_time 0x84-0x88 (4)
0x080|                        d6 eb 80 90            |        ....    |      [23]: "1948-02-29T01:00:00Z" (-689209200) transition_time 0x88-0x8c (4)
0x080|                                    d8 09 96 10|            ....|      [24]: "1948-10-03T01:00:00Z" (-670460400) transition_time 0x8c-0x90 (4)
0x090|f9 33 b5 f0                                    |.3..            |      [25]: "1966-05-21T23:00:00Z" (-114051600) transition_time 0x90-0x94 (4)
0x090|            f9 d9 c4 e0                        |    ....        |      [26]: "1966-09-24T22:00:00Z" (-103168800) transition_time 0x94-0x98 (4)
0x090|                        fb 1c d2 70            |        ...p    |      [27]: "1967-05-27T23:00:00Z" (-81997200) transition_time 0x98-0x9c (4)
0x090|                                    fb b9 b4 f0|            ....|      [28]: "1967-09-23T23:00:00Z" (-71715600) transition_time 0x9c-0xa0 (4)
0x0a0|fc fc b4 70                                    |...p            |      [29]: "1968-05-25T23:00:00Z" (-50547600) transition_time 0xa0-0xa4 (4)
0x0a0|            fd 99 96 f0                        |    ....        |      [30]: "1968-09-21T23:00:00Z" (-40266000) transition_time 0xa4-0xa8 (4)
0x0a0|                        fe e5 d0 f0            |        ....    |      [31]: "1969-05-31T23:00:00Z" (-18493200) transition_time 0xa8-0xac (4)
0x0a0|                                    ff 82 b3 70|            ...p|      [32]: "1969-09-27T23:00:00Z" (-8211600) transition_time 0xac-0xb0 (4)
0x0b0|00 c5 b2 f0                                    |....            |      [33]: "1970-05-30T23:00:00Z" (12956400) transition_time 0xb0-0xb4 (4)
0x0b0|            01 62 95 70                        |    .b.p        |      [34]: "1970-09-26T23:00:00Z" (23238000) transition_time 0xb4-0xb8 (4)
0x0b0|                        02 9c 5a 70            |        ..Zp    |      [35]: "1971-05-22T23:00:00Z" (43801200) transition_time 0xb8-0xbc (4)
0x0b0|                                    03 42 77 70|            .Bwp|      [36]: "1971-09-25T23:00:00Z" (54687600) transition_time 0xbc-0xc0 (4)
0x0c0|04 85 76 f0                                    |..v.            |      [37]: "1972-05-27T23:00:00Z" (75855600) transition_time 0xc0-0xc4 (4)
0x0c0|            05 2b 93 f0                        |    .+..        |      [38]: "1972-09-30T23:00:00Z" (86742000) transition_time 0xc4-0xc8 (4)
0x0c0|                        06 6e 93 70            |        .n.p    |      [39]: "1973-06-02T23:00:00Z" (107910000) transition_time 0xc8-0xcc (4)
0x0c0|                                    07 0b 75 f0|            ..u.|      [40]: "1973-09-29T23:00:00Z" (118191600) transition_time 0xcc-0xd0 (4)
0x0d0|08 45 3a f0                                    |.E:.            |      [41]: "1974-05-25T23:00:00Z" (138754800) transition_time 0xd0-0xd4 (4)
0x0d0|            08 eb 57 f0                        |    ..W.        |      [42]: "1974-09-28T23:00:00Z" (149641200) transition_time 0xd4-0xd8 (4)
0x0d0|                        0a 2e 57 70            |        ..Wp    |      [43]: "1975-05-31T23:00:00Z" (170809200) transition_time 0xd8-0xdc (4)
0x0d0|                                    0a cb 39 f0|            ..9.|      [44]: "1975-09-27T23:00:00Z" (181090800) transition_time 0xdc-0xe0 (4)
0x0e0|0c 0e 39 70                                    |..9p            |      [45]: "1976-05-29T23:00:00Z" (202258800) transition_time 0xe0-0xe4 (4)
0x0e0|            0c ab 1b f0                        |    ....        |      [46]: "1976-09-25T23:00:00Z" (212540400) transition_time 0xe4-0xe8 (4)
0x0e0|                        0d e4 e0 f0            |        ....    |      [47]: "1977-05-21T23:00:00Z" (233103600) transition_time 0xe8-0xec (4)
0x0e0|                                    0e 8a fd f0|            ....|      [48]: "1977-09-24T23:00:00Z" (243990000) transition_time 0xec-0xf0 (4)
0x0f0|0f cd fd 70                                    |...p            |      [49]: "1978-05-27T23:00:00Z" (265158000) transition_time 0xf0-0xf4 (4)
0x0f0|            10 74 1a 70                        |    .t.p        |      [50]: "1978-09-30T23:00:00Z" (276044400) transition_time 0xf4-0xf8 (4)
0x0f0|                        11 ad df 70            |        ...p    |      [51]: "1979-05-26T23:00:00Z" (296607600) transition_time 0xf8-0xfc (4)
0x0f0|                                    12 53 fc 70|            .S.p|      [52]: "1979-09-29T23:00:00Z" (307494000) transition_time 0xfc-0x100 (4)
0x100|13 4d 44 10                                    |.MD.            |      [53]: "1980-04-06T01:00:00Z" (323830800) transition_time 0x100-0x104 (4)
0x100|            14 33 fa 90                        |    .3..        |      [54]: "1980-09-28T01:00:00Z" (338950800) transition_time 0x104-0x108 (4)
0x100|                        15 23 eb 90            |        .#..    |      [55]: "1981-03-29T01:00:00Z" (354675600) transition_time 0x108-0x10c (4)
0x100|                                    16 13 dc 90|            ....|      [56]: "1981-09-27T01:00:00Z" (370400400) transition_time 0x10c-0x110 (4)
0x110|17 03 cd 90                                    |....            |      [57]: "1982-03-28T01:00:00Z" (386125200) transition_time 0x110-0x114 (4)
0x110|            17 f3 be 90                        |    ....        |      [58]: "1982-09-26T01:00:00Z" (401850000) transition_time 0x114-0x118 (4)
0x110|                        18 e3 af 90            |        ....    |      [59]: "1983-03-27T01:00:00Z" (417574800) transition_time 0x118-0x11c (4)
0x110|                                    19 d3 a0 90|            ....|      [60]: "1983-09-25T01:00:00Z" (433299600) transition_time 0x11c-0x120 (4)
0x120|1a c3 91 90                                    |....            |      [61]: "1984-03-25T01:00:00Z" (449024400) transition_time 0x120-0x124 (4)
0x120|            1b bc bd 10                        |    ....        |      [62]: "1984-09-30T01:00:00Z" (465354000) transition_time 0x124-0x128 (4)
0x120|                        1c ac ae 10            |        ....    |      [63]: "1985-03-31T01:00:00Z" (481078800) transition_time 0x128-0x12c (4)
0x120|                                    1d 9c 9f 10|            ....|      [64]: "1985-09-29T01:00:00Z" (496803600) transition_time 0x12c-0x130 (4)
0x130|1e 8c 90 10                                    |....            |      [65]: "1986-03-30T01:00:00Z" (512528400) transition_time 0x130-0x134 (4)
0x130|            1f 7c 81 10                        |    .|..        |      [66]: "1986-09-28T01:00:00Z" (528253200) transition_time 0x134-0x138 (4)
0x130|                        20 6c 72 10            |         lr.    |      [67]: "1987-03-29T01:00:00Z" (543978000) transition_time 0x138-0x13c (4)
0x130|                                    21 5c 63 10|            !\c.|      [68]: "1987-09-27T01:00:00Z" (559702800) transition_time 0x13c-0x140 (4)
0x140|22 4c 54 10                                    |"LT.            |      [69]: "1988-03-27T01:00:00Z" (575427600) transition_time 0x140-0x144 (4)
0x140|            23 3c 45 10                        |    #<E.        |      [70]: "1988-09-25T01:00:00Z" (591152400) transition_time 0x144-0x148 (4)
0x140|                        24 2c 36 10            |        $,6.    |      [71]: "1989-03-26T01:00:00Z" (606877200) transition_time 0x148-0x14c (4)
0x140|                                    25 1c 27 10|            %.'.|      [72]: "1989-09-24T01:00:00Z" (622602000) transition_time 0x14c-0x150 (4)
0x150|26 0c 18 10                                    |&...            |      [73]: "1990-03-25T01:00:00Z" (638326800) transition_time 0x150-0x154 (4)
0x150|            27 05 43 90                        |    '.C.        |      [74]: "1990-09-30T01:00:00Z" (654656400) transition_time 0x154-0x158 (4)
0x150|                        27 f5 34 90            |        '.4.    |      [75]: "1991-03-31T01:00:00Z" (670381200) transition_time 0x158-0x15c (4)
0x150|                                    28 e5 25 90|            (.%.|      [76]: "1991-09-29T01:00:00Z" (686106000) transition_time 0x15c-0x160 (4)
0x160|29 d5 16 90                                    |)...            |      [77]: "1992-03-29T01:00:00Z" (701830800) transition_time 0x160-0x164 (4)
0x160|            2a c5 07 90                        |    *...        |      [78]: "1992-09-27T01:00:00Z" (717555600) transition_time 0x164-0x168 (4)
0x160|                        2b b4 f8 90            |        +...    |      [79]: "1993-03-28T01:00:00Z" (733280400) transition_time 0x168-0x16c (4)
0x160|                                    2c a4 e9 90|            ,...|      [80]: "1993-09-26T01:00:00Z" (749005200) transition_time 0x16c-0x170 (4)
0x170|2d 94 da 90                                    |-...            |      [81]: "1994-03-27T01:00:00Z" (764730000) transition_time 0x170-0x174 (4)
0x170|            2e 84 cb 90                        |    ....        |      [82]: "1994-09-25T01:00:00Z" (780454800) transition_time 0x174-0x178 (4)
0x170|                        2f 74 bc 90            |        /t..    |      [83]: "1995-03-26T01:00:00Z" (796179600) transition_time 0x178-0x17c (4)
0x170|                                    30 64 ad 90|            0d..|      [84]: "1995-09-24T01:00:00Z" (811904400) transition_time 0x17c-0x180 (4)
0x180|31 5d d9 10                                    |1]..            |      [85]: "1996-03-31T01:00:00Z" (828234000) transition_time 0x180-0x184 (4)
0x180|            32 72 b4 10                        |    2r..        |      [86]: "1996-10-27T01:00:00Z" (846378000) transition_time 0x184-0x188 (4)
0x180|                        33 3d bb 10            |        3=..    |      [87]: "1997-03-30T01:00:00Z" (859683600) transition_time 0x188-0x18c (4)
0x180|                                    34 52 96 10|            4R..|      [88]: "1997-10-26T01:00:00Z" (877827600) transition_time 0x18c-0x190 (4)
0x190|35 1d 9d 10                                    |5...            |      [89]: "1998-03-29T01:00:00Z" (891133200) transition_time 0x190-0x194 (4)
0x190|            36 32 78 10                        |    62x.        |      [90]: "1998-10-25T01:00:00Z" (909277200) transition_time 0x194-0x198 (4)
0x190|                        36 fd 7f 10            |        6...    |      [91]: "1999-03-28T01:00:00Z" (922582800) transition_time 0x198-0x19c (4)
0x190|                                    38 1b 94 90|            8...|      [92]: "1999-10-31T01:00:00Z" (941331600) transition_time 0x19c-0x1a0 (4)
0x1a0|38 dd 61 10                                    |8.a.            |      [93]: "2000-03-26T01:00:00Z" (954032400) transition_time 0x1a0-0x1a4 (4)
0x1a0|            39 fb 76 90                        |    9.v.        |      [94]: "2000-10-29T01:00:00Z" (972781200) transition_time 0x1a4-0x1a8 (4)
0x1a0|                        3a bd 43 10            |        :.C.    |      [95]: "2001-03-25T01:00:00Z" (985482000) transition_time 0x1a8-0x1ac (4)
0x1a0|                                    3b db 58 90|            ;.X.|      [96]: "2001-10-28T01:00:00Z" (1004230800) transition_time 0x1ac-0x1b0 (4)
0x1b0|3c a6 5f 90                                    |<._.            |      [97]: "2002-03-31T01:00:00Z" (1017536400) transition_time 0x1b0-0x1b4 (4)
0x1b0|            3d bb 3a 90                        |    =.:.        |      [98]: "2002-10-27T01:00:00Z" (1035680400) transition_time 0x1b4-0x1b8 (4)
0x1b0|                        3e 86 41 90            |        >.A.    |      [99]: "2003-03-30T01:00:00Z" (1048986000) transition_time 0x1b8-0x1bc (4)
0x1b0|                                    3f 9b 1c 90|            ?...|      [100]: "2003-10-26T01:00:00Z" (1067130000) transition_time 0x1bc-0x1c0 (4)
0x1c0|40 66 23 90                                    |@f#.            |      [101]: "2004-03-28T01:00:00Z" (1080435600) transition_time 0x1c0-0x1c4 (4)
0x1c0|            41 84 39 10                        |    A.9.        |      [102]: "2004-10-31T01:00:00Z" (1099184400) transition_time 0x1c4-0x1c8 (4)
0x1c0|                        42 46 05 90            |        BF..    |      [103]: "2005-03-27T01:00:00Z" (1111885200) transition_time 0x1c8-0x1cc (4)
0x1c0|                                    43 64 1b 10|            Cd..|      [104]: "2005-10-30T01:00:00Z" (1130634000) transition_time 0x1cc-0x1d0 (4)
0x1d0|44 25 e7 90                                    |D%..            |      [105]: "2006-03-26T01:00:00Z" (1143334800) transition_time 0x1d0-0x1d4 (4)
0x1d0|            45 43 fd 10                        |    EC..        |      [106]: "2006-10-29T01:00:00Z" (1162083600) transition_time 0x1d4-0x1d8 (4)
0x1d0|                        46 05 c9 90            |        F...    |      [107]: "2007-03-25T01:00:00Z" (1174784400) transition_time 0x1d8-0x1dc (4)
0x1d0|                                    47 23 df 10|            G#..|      [108]: "2007-10-28T01:00:00Z" (1193533200) transition_time 0x1dc-0x1e0 (4)
0x1e0|47 ee e6 10                                    |G...            |      [109]: "2008-03-30T01:00:00Z" (1206838800) transition_time 0x1e0-0x1e4 (4)
0x1e0|            49 03 c1 10                        |    I...        |      [110]: "2008-10-26T01:00:00Z" (1224982800) transition_time 0x1e4-0x1e8 (4)
0x1e0|                        49 ce c8 10            |        I...    |      [111]: "2009-03-29T01:00:00Z" (1238288400) transition_time 0x1e8-0x1ec (4)
0x1e0|                                    4a e3 a3 10|            J...|      [112]: "2009-10-25T01:00:00Z" (1256432400) transition_time 0x1ec-0x1f0 (4)
0x1f0|4b ae aa 10                                    |K...            |      [113]: "2010-03-28T01:00:00Z" (1269738000) transition_time 0x1f0-0x1f4 (4)
0x1f0|            4c cc bf 90                        |    L...        |      [114]: "2010-10-31T01:00:00Z" (1288486800) transition_time 0x1f4-0x1f8 (4)
0x1f0|                        4d 8e 8c 10            |        M...    |      [115]: "2011-03-27T01:00:00Z" (1301187600) transition_time 0x1f8-0x1fc (4)
0x1f0|                                    4e ac a1 90|            N...|      [116]: "2011-10-30T01:00:00Z" (1319936400) transition_time 0x1fc-0x200 (4)
0x200|4f 6e 6e 10                                    |Onn.            |      [117]: "2012-03-25T01:00:00Z" (1332637200) transition_time 0x200-0x204 (4)
0x200|            50 8c 83 90                        |    P...        |      [118]: "2012-10-28T01:00:00Z" (1351386000) transition_time 0x204-0x208 (4)
0x200|                        51 57 8a 90            |        QW..    |      [119]: "2013-03-31T01:00:00Z" (1364691600) transition_time 0x208-0x20c (4)
0x200|                                    52 6c 65 90|            Rle.|      [120]: "2013-10-27T01:00:00Z" (1382835600) transition_time 0x20c-0x210 (4)
0x210|53 37 6c 90                                    |S7l.            |      [121]: "2014-03-30T01:00:00Z" (1396141200) transition_time 0x210-0x214 (4)
0x210|            54 4c 47 90                        |    TLG.        |      [122]: "2014-10-26T01:00:00Z" (1414285200) transition_time 0x214-0x218 (4)
0x210|                        55 17 4e 90            |        U.N.    |      [123]: "2015-03-29T01:00:00Z" (1427590800) transition_time 0x218-0x21c (4)
0x210|                                    56 2c 29 90|            V,).|      [124]: "2015-10-25T01:00:00Z" (1445734800) transition_time 0x21c-0x220 (4)
0x220|56 f7 30 90                                    |V.0.            |      [125]: "2016-03-27T01:00:00Z" (1459040400) transition_time 0x220-0x224 (4)
0x220|            58 15 46 10                        |    X.F.        |      [126]: "2016-10-30T01:00:00Z" (1477789200) transition_time 0x224-0x228 (4)
0x220|                        58 d7 12 90            |        X...    |      [127]: "2017-03-26T01:00:00Z" (1490490000) transition_time 0x228-0x22c (4)
0x220|                                    59 f5 28 10|            Y.(.|      [128]: "2017-10-29T01:00:00Z" (1509238800) transition_time 0x22c-0x230 (4)
0x230|5a b6 f4 90                                    |Z...            |      [129]: "2018-03-25T01:00:00Z" (1521939600) transition_time 0x230-0x234 (4)
0x230|            5b d5 0a 10                        |    [...        |      [130]: "2018-10-28T01:00:00Z" (1540688400) transition_time 0x234-0x238 (4)
0x230|                        5c a0 11 10            |        \...    |      [131]: "2019-03-31T01:00:00Z" (1553994000) transition_time 0x238-0x23c (4)
0x230|                                    5d b4 ec 10|            ]...|      [132]: "2019-10-27T01:00:00Z" (1572138000) transition_time 0x23c-0x240 (4)
0x240|5e 7f f3 10                                    |^...            |      [133]: "2020-03-29T01:00:00Z" (1585443600) transition_time 0x240-0x244 (4)
0x240|            5f 94 ce 10                        |    _...        |      [134]: "2020-10-25T01:00:00Z" (1603587600) transition_time 0x244-0x248 (4)
0x240|                        60 5f d5 10            |        `_..    |      [135]: "2021-03-28T01:00:00Z" (1616893200) transition_time 0x248-0x24c (4)
0x240|                                    61 7d ea 90|            a}..|      [136]: "2021-10-31T01:00:00Z" (1635642000) transition_time 0x24c-0x250 (4)
0x250|62 3f b7 10                                    |b?..            |      [137]: "2022-03-27T01:00:00Z" (1648342800) transition_time 0x250-0x254 (4)
0x250|            63 5d cc 90                        |    c]..        |      [138]: "2022-10-30T01:00:00Z" (1667091600) transition_time 0x254-0x258 (4)
0x250|                        64 1f 99 10            |        d...    |      [139]: "2023-03-26T01:00:00Z" (1679792400) transition_time 0x258-0x25c (4)
0x250|                                    65 3d ae 90|            e=..|      [140]: "2023-10-29T01:00:00Z" (1698541200) transition_time 0x25c-0x260 (4)
0x260|66 08 b5 90                                    |f...            |      [141]: "2024-03-31T01:00:00Z" (1711846800) transition_time 0x260-0x264 (4)
0x260|            67 1d 90 90                        |    g...        |      [142]: "2024-10-27T01:00:00Z" (1729990800) transition_time 0x264-0x268 (4)
0x260|                        67 e8 97 90            |        g...    |      [143]: "2025-03-30T01:00:00Z" (1743296400) transition_time 0x268-0x26c (4)
0x260|                                    68 fd 72 90|            h.r.|      [144]: "2025-10-26T01:00:00Z" (1761440400) transition_time 0x26c-0x270 (4)
0x270|69 c8 79 90                                    |i.y.            |      [145]: "2026-03-29T01:00:00Z" (1774746000) transition_time 0x270-0x274 (4)
0x270|            6a dd 54 90                        |    j.T.        |      [146]: "2026-10-25T01:00:00Z" (1792890000) transition_time 0x274-0x278 (4)
0x270|                        6b a8 5b 90            |        k.[.    |      [147]: "2027-03-28T01:00:00Z" (1806195600) transition_time 0x278-0x27c (4)
0x270|                                    6c c6 71 10|            l.q.|      [148]: "2027-10-31T01:00:00Z" (1824944400) transition_time 0x27c-0x280 (4)
0x280|6d 88 3d 90                                    |m.=.            |      [149]: "2028-03-26T01:00:00Z" (1837645200) transition_time 0x280-0x284 (4)
0x280|            6e a6 53 10                        |    n.S.        |      [150]: "2028-10-29T01:00:00Z" (1856394000) transition_time 0x284-0x288 (4)
0x280|                        6f 68 1f 90            |        oh..    |      [151]: "2029-03-25T01:00:00Z" (1869094800) transition_time 0x288-0x28c (4)
0x280|                                    70 86 35 10|            p.5.|      [152]: "2029-10-28T01:00:00Z" (1887843600) transition_time 0x28c-0x290 (4)
0x290|71 51 3c 10                                    |qQ<.            |      [153]: "2030-03-31T01:00:00Z" (1901149200) transition_time 0x290-0x294 (4)
0x290|            72 66 17 10                        |    rf..        |      [154]: "2030-10-27T01:00:00Z" (1919293200) transition_time 0x294-0x298 (4)
0x290|                        73 31 1e 10            |        s1..    |      [155]: "2031-03-30T01:00:00Z" (1932598800) transition_time 0x298-0x29c (4)
0x290|                                    74 45 f9 10|            tE..|      [156]: "2031-10-26T01:00:00Z" (1950742800) transition_time 0x29c-0x2a0 (4)
0x2a0|75 11 00 10                                    |u...            |      [157]: "2032-03-28T01:00:00Z" (1964048400) transition_time 0x2a0-0x2a4 (4)
0x2a0|            76 2f 15 90                        |    v/..        |      [158]: "2032-10-31T01:00:00Z" (1982797200) transition_time 0x2a4-0x2a8 (4)
0x2a0|                        76 f0 e2 10            |        v...    |      [159]: "2033-03-27T01:00:00Z" (1995498000) transition_time 0x2a8-0x2ac (4)
0x2a0|                                    78 0e f7 90|            x...|      [160]: "2033-10-30T01:00:00Z" (2014246800) transition_time 0x2ac-0x2b0 (4)
0x2b0|78 d0 c4 10                                    |x...            |      [161]: "2034-03-26T01:00:00Z" (2026947600) transition_time 0x2b0-0x2b4 (4)
0x2b0|            79 ee d9 90                        |    y...        |      [162]: "2034-10-29T01:00:00Z" (2045696400) transition_time 0x2b4-0x2b8 (4)
0x2b0|                        7a b0 a6 10            |        z...    |      [163]: "2035-03-25T01:00:00Z" (2058397200) transition_time 0x2b8-0x2bc (4)
0x2b0|                                    7b ce bb 90|            {...|      [164]: "2035-10-28T01:00:00Z" (2077146000) transition_time 0x2bc-0x2c0 (4)
0x2c0|7c 99 c2 90                                    ||...            |      [165]: "2036-03-30T01:00:00Z" (2090451600) transition_time 0x2c0-0x2c4 (4)
0x2c0|            7d ae 9d 90                        |    }...        |      [166]: "2036-10-26T01:00:00Z" (2108595600) transition_time 0x2c4-0x2c8 (4)
0x2c0|                        7e 79 a4 90            |        ~y..    |      [167]: "2037-03-29T01:00:00Z" (2121901200) transition_time 0x2c8-0x2cc (4)
0x2c0|                                    7f 8e 7f 90|            ....|      [168]: "2037-10-25T01:00:00Z" (2140045200) transition_time 0x2cc-0x2d0 (4)
     |                                               |                |    transition_types[0:169]: 0x2d0-0x379 (169)
0x2d0|05                                             |.               |      [0]: 5 transition_type 0x2d0-0x2d1 (1)
0x2d0|   01                                          | .              |      [1]: 1 transition_type 0x2d1-0x2d2 (1)
0x2d0|      02                                       |  .             |      [2]: 2 transition_type 0x2d2-0x2d3 (1)
0x2d0|         01                                    |   .            |      [3]: 1 transition_type 0x2d3-0x2d4 (1)
0x2d0|            02                                 |    .           |      [4]: 2 transition_type 0x2d4-0x2d5 (1)
0x2d0|               01                              |     .          |      [5]: 1 transition_type 0x2d5-0x2d6 (1)
0x2d0|                  02                           |      .         |      [6]: 2 transition_type 0x2d6-0x2d7 (1)
0x2d0|                     01                        |       .        |      [7]: 1 transition_type 0x2d7-0x2d8 (1)
0x2d0|                        02                     |        .       |      [8]: 2 transition_type 0x2d8-0x2d9 (1)
0x2d0|                           01                  |         .      |      [9]: 1 transition_type 0x2d9-0x2da (1)
0x2d0|                              02               |          .     |      [10]: 2 transition_type 0x2da-0x2db (1)
0x2d0|                                 01            |           .    |      [11]: 1 transition_type 0x2db-0x2dc (1)
0x2d0|                                    03         |            .   |      [12]: 3 transition_type 0x2dc-0x2dd (1)
0x2d0|                                       04      |             .  |      [13]: 4 transition_type 0x2dd-0x2de (1)
0x2d0|                                          03   |              . |      [14]: 3 transition_type 0x2de-0x2df (1)
0x2d0|                                             04|               .|      [15]: 4 transition_type 0x2df-0x2e0 (1)
0x2e0|03                                             |.               |      [16]: 3 transition_type 0x2e0-0x2e1 (1)
0x2e0|   01                                          | .              |      [17]: 1 transition_type 0x2e1-0x2e2 (1)
0x2e0|      02                                       |  .             |      [18]: 2 transition_type 0x2e2-0x2e3 (1)
0x2e0|         04                                    |   .            |      [19]: 4 transition_type 0x2e3-0x2e4 (1)
0x2e0|            03                                 |    .           |      [20]: 3 transition_type 0x2e4-0x2e5 (1)
0x2e0|               04                              |     .          |      [21]: 4 transition_type 0x2e5-0x2e6 (1)
0x2e0|                  03                           |      .         |      [22]: 3 transition_type 0x2e6-0x2e7 (1)
0x2e0|                     04                        |       .        |      [23]: 4 transition_type 0x2e7-0x2e8 (1)
0x2e0|                        03                     |        .       |      [24]: 3 transition_type 0x2e8-0x2e9 (1)
0x2e0|                           04                  |         .      |      [25]: 4 transition_type 0x2e9-0x2ea (1)
0x2e0|                              02               |          .     |      [26]: 2 transition_type 0x2ea-0x2eb (1)
0x2e0|                                 04            |           .    |      [27]: 4 transition_type 0x2eb-0x2ec (1)
0x2e0|                                    03         |            .   |      [28]: 3 transition_type 0x2ec-0x2ed (1)
0x2e0|                                       04      |             .  |      [29]: 4 transition_type 0x2ed-0x2ee (1)
0x2e0|                                          03   |              . |      [30]: 3 transition_type 0x2ee-0x2ef (1)
0x2e0|                                             04|               .|      [31]: 4 transition_type 0x2ef-0x2f0 (1)
0x2f0|03                                             |.               |      [32]: 3 transition_type 0x2f0-0x2f1 (1)
0x2f0|   04                                          | .              |      [33]: 4 transition_type 0x2f1-0x2f2 (1)
0x2f0|      03                                       |  .             |      [34]: 3 transition_type 0x2f2-0x2f3 (1)
0x2f0|         04                                    |   .            |      [35]: 4 transition_type 0x2f3-0x2f4 (1)
0x2f0|            03                                 |    .           |      [36]: 3 transition_type 0x2f4-0x2f5 (1)
0x2f0|               04                              |     .          |      [37]: 4 transition_type 0x2f5-0x2f6 (1)
0x2f0|                  03                           |      .         |      [38]: 3 transition_type 0x2f6-0x2f7 (1)
0x2f0|                     04                        |       .        |      [39]: 4 transition_type 0x2f7-0x2f8 (1)
0x2f0|                        03                     |        .       |      [40]: 3 transition_type 0x2f8-0x2f9 (1)
0x2f0|                           04                  |         .      |      [41]: 4 transition_type 0x2f9-0x2fa (1)
0x2f0|                              03               |          .     |      [42]: 3 transition_type 0x2fa-0x2fb (1)
0x2f0|                                 04            |           .    |      [43]: 4 transition_type 0x2fb-0x2fc (1)
0x2f0|                                    03         |            .   |      [44]: 3 transition_type 0x2fc-0x2fd (1)
0x2f0|                                       04      |             .  |      [45]: 4 transition_type 0x2fd-0x2fe (1)
0x2f0|                                          03   |              . |      [46]: 3 transition_type 0x2fe-0x2ff (1)
0x2f0|                                             04|               .|      [47]: 4 transition_type 0x2ff-0x300 (1)
0x300|03                                             |.               |      [48]: 3 transition_type 0x300-0x301 (1)
0x300|   04                                          | .              |      [49]: 4 transition_type 0x301-0x302 (1)
0x300|      03                                       |  .             |      [50]: 3 transition_type 0x302-0x303 (1)
0x300|         04                                    |   .            |      [51]: 4 transition_type 0x303-0x304 (1)
0x300|            03                                 |    .           |      [52]: 3 transition_type 0x304-0x305 (1)
0x300|               06                              |     .          |      [53]: 6 transition_type 0x305-0x306 (1)
0x300|                  05                           |      .         |      [54]: 5 transition_type 0x306-0x307 (1)
0x300|                     06                        |       .        |      [55]: 6 transition_type 0x307-0x308 (1)
0x300|                        05                     |        .       |      [56]: 5 transition_type 0x308-0x309 (1)
0x300|                           06                  |         .      |      [57]: 6 transition_type 0x309-0x30a (1)
0x300|                              05               |          .     |      [58]: 5 transition_type 0x30a-0x30b (1)
0x300|                                 06            |           .    |      [59]: 6 transition_type 0x30b-0x30c (1)
0x300|                                    05         |            .   |      [60]: 5 transition_type 0x30c-0x30d (1)
0x300|                                       06      |             .  |      [61]: 6 transition_type 0x30d-0x30e (1)
0x300|                                          05   |              . |      [62]: 5 transition_type 0x30e-0x30f (1)
0x300|                                             06|               .|      [63]: 6 transition_type 0x30f-0x310 (1)
0x310|05                                             |.               |      [64]: 5 transition_type 0x310-0x311 (1)
0x310|   06                                          | .              |      [65]: 6 transition_type 0x311-0x312 (1)
0x310|      05                                       |  .             |      [66]: 5 transition_type 0x312-0x313 (1)
0x310|         06                                    |   .            |      [67]: 6 transition_type 0x313-0x314 (1)
0x310|            05                                 |    .           |      [68]: 5 transition_type 0x314-0x315 (1)
0x310|               06                              |     .          |      [69]: 6 transition_type 0x315-0x316 (1)
0x310|                  05                           |      .         |      [70]: 5 transition_type 0x316-0x317 (1)
0x310|                     06                        |       .        |      [71]: 6 transition_type 0x317-0x318 (1)
0x310|                        05                     |        .       |      [72]: 5 transition_type 0x318-0x319 (1)
0x310|                           06                  |         .      |      [73]: 6 transition_type 0x319-0x31a (1)
0x310|                              05               |          .     |      [74]: 5 transition_type 0x31a-0x31b (1)
0x310|                                 06            |           .    |      [75]: 6 transition_type 0x31b-0x31c (1)
0x310|                                    05         |            .   |      [76]: 5 transition_type 0x31c-0x31d (1)
0x310|                                       06      |             .  |      [77]: 6 transition_type 0x31d-0x31e (1)
0x310|                                          05   |              . |      [78]: 5 transition_type 0x31e-0x31f (1)
0x310|                                             06|               .|      [79]: 6 transition_type 0x31f-0x320 (1)
0x320|05                                             |.               |      [80]: 5 transition_type 0x320-0x321 (1)
0x320|   06                                          | .              |      [81]: 6 transition_type 0x321-0x322 (1)
0x320|      05                                       |  .             |      [82]: 5 transition_type 0x322-0x323 (1)
0x320|         06                                    |   .            |      [83]: 6 transition_type 0x323-0x324 (1)
0x320|            05                                 |    .           |      [84]: 5 transition_type 0x324-0x325 (1)
0x320|               06                              |     .          |      [85]: 6 transition_type 0x325-0x326 (1)
0x320|                  05                           |      .         |      [86]: 5 transition_type 0x326-0x327 (1)
0x320|                     06                        |       .        |      [87]: 6 transition_type 0x327-0x328 (1)
0x320|                        05                     |        .       |      [88]: 5 transition_type 0x328-0x329 (1)
0x320|                           06                  |         .      |      [89]: 6 transition_type 0x329-0x32a (1)
0x320|                              05               |          .     |      [90]: 5 transition_type 0x32a-0x32b (1)
0x320|                                 06            |           .    |      [91]: 6 transition_type 0x32b-0x32c (1)
0x320|                                    05         |            .   |      [92]: 5 transition_type 0x32c-0x32d (1)
0x320|                                       06      |             .  |      [93]: 6 transition_type 0x32d-0x32e (1)
0x320|                                          05   |              . |      [94]: 5 transition_type 0x32e-0x32f (1)
0x320|                                             06|               .|      [95]: 6 transition_type 0x32f-0x330 (1)
0x330|05                                             |.               |      [96]: 5 transition_type 0x330-0x331 (1)
0x330|   06                                          | .              |      [97]: 6 transition_type 0x331-0x332 (1)
0x330|      05                                       |  .             |      [98]: 5 transition_type 0x332-0x333 (1)
0x330|         06                                    |   .            |      [99]: 6 transition_type 0x333-0x334 (1)
0x330|            05                                 |    .           |      [100]: 5 transition_type 0x334-0x335 (1)
0x330|               06                              |     .          |      [101]: 6 transition_type 0x335-0x336 (1)
0x330|                  05                           |      .         |      [102]: 5 transition_type 0x336-0x337 (1)
0x330|                     06                        |       .        |      [103]: 6 transition_type 0x337-0x338 (1)
0x330|                        05                     |        .       |      [104]: 5 transition_type 0x338-0x339 (1)
0x330|                           06                  |         .      |      [105]: 6 transition_type 0x339-0x33a (1)
0x330|                              05               |          .     |      [106]: 5 transition_type 0x33a-0x33b (1)
0x330|                                 06            |           .    |      [107]: 6 transition_type 0x33b-0x33c (1)
0x330|                                    05         |            .   |      [108]: 5 transition_type 0x33c-0x33d (1)
0x330|                                       06      |             .  |      [109]: 6 transition_type 0x33d-0x33e (1)
0x330|                                          05   |              . |      [110]: 5 transition_type 0x33e-0x33f (1)
0x330|                                             06|               .|      [111]: 6 transition_type 0x33f-0x340 (1)
0x340|05                                             |.               |      [112]: 5 transition_type 0x340-0x341 (1)
0x340|   06                                          | .              |      [113]: 6 transition_type 0x341-0x342 (1)
0x340|      05                                       |  .             |      [114]: 5 transition_type 0x342-0x343 (1)
0x340|         06                                    |   .            |      [115]: 6 transition_type 0x343-0x344 (1)
0x340|            05                                 |    .           |      [116]: 5 transition_type 0x344-0x345 (1)
0x340|               06                              |     .          |      [117]: 6 transition_type 0x345-0x346 (1)
0x340|                  05                           |      .         |      [118]: 5 transition_type 0x346-0x347 (1)
0x340|                     06                        |       .        |      [119]: 6 transition_type 0x347-0x348 (1)
0x340|                        05                     |        .       |      [120]: 5 transition_type 0x348-0x349 (1)
0x340|                           06                  |         .      |      [121]: 6 transition_type 0x349-0x34a (1)
0x340|                              05               |          .     |      [122]: 5 transition_type 0x34a-0x34b (1)
0x340|                                 06            |           .    |      [123]: 6 transition_type 0x34b-0x34c (1)
0x340|                                    05         |            .   |      [124]: 5 transition_type 0x34c-0x34d (1)
0x340|                                       06      |             .  |      [125]: 6 transition_type 0x34d-0x34e (1)
0x340|                                          05   |              . |      [126]: 5 transition_type 0x34e-0x34f (1)
0x340|                                             06|               .|      [127]: 6 transition_type 0x34f-0x350 (1)
0x350|05                                             |.               |      [128]: 5 transition_type 0x350-0x351 (1)
0x350|   06                                          | .              |      [129]: 6 transition_type 0x351-0x352 (1)
0x350|      05                                       |  .             |      [130]: 5 transition_type 0x352-0x353 (1)
0x350|         06                                    |   .            |      [131]: 6 transition_type 0x353-0x354 (1)
0x350|            05                                 |    .           |      [132]: 5 transition_type 0x354-0x355 (1)
0x350|               06                              |     .          |      [133]: 6 transition_type 0x355-0x356 (1)
0x350|                  05                           |      .         |      [134]: 5 transition_type 0x356-0x357 (1)
0x350|                     06                        |       .        |      [135]: 6 transition_type 0x357-0x358 (1)
0x350|                        05                     |        .       |      [136]: 5 transition_type 0x358-0x359 (1)
0x350|                           06                  |         .      |      [137]: 6 transition_type 0x359-0x35a (1)
0x350|                              05               |          .     |      [138]: 5 transition_type 0x35a-0x35b (1)
0x350|                                 06            |           .    |      [139]: 6 transition_type 0x35b-0x35c (1)
0x350|                                    05         |            .   |      [140]: 5 transition_type 0x35c-0x35d (1)
0x350|                                       06      |             .  |      [141]: 6 transition_type 0x35d-0x35e (1)
0x350|                                          05   |              . |      [142]: 5 transition_type 0x35e-0x35f (1)
0x350|                                             06|               .|      [143]: 6 transition_type 0x35f-0x360 (1)
0x360|05                                             |.               |      [144]: 5 transition_type 0x360-0x361 (1)
0x360|   06                                          | .              |      [145]: 6 transition_type 0x361-0x362 (1)
0x360|      05                                       |  .             |      [146]: 5 transition_type 0x362-0x363 (1)
0x360|         06                                    |   .            |      [147]: 6 transition_type 0x363-0x364 (1)
0x360|            05                                 |    .           |      [148]: 5 transition_type 0x364-0x365 (1)
0x360|               06                              |     .          |      [149]: 6 transition_type 0x365-0x366 (1)
0x360|                  05                           |      .         |      [150]: 5 transition_type 0x366-0x367 (1)
0x360|                     06                        |       .        |      [151]: 6 transition_type 0x367-0x368 (1)
0x360|                        05                     |        .       |      [152]: 5 transition_type 0x368-0x369 (1)
0x360|                           06                  |         .      |      [153]: 6 transition_type 0x369-0x36a (1)
0x360|                              05               |          .     |      [154]: 5 transition_type 0x36a-0x36b (1)
0x360|                                 06            |           .    |      [155]: 6 transition_type 0x36b-0x36c (1)
0x360|                                    05         |            .   |      [156]: 5 transition_type 0x36c-0x36d (1)
0x360|                                       06      |             .  |      [157]: 6 transition_type 0x36d-0x36e (1)
0x360|                                          05   |              . |      [158]: 5 transition_type 0x36e-0x36f (1)
0x360|                                             06|               .|      [159]: 6 transition_type 0x36f-0x370 (1)
0x370|05                                             |.               |      [160]: 5 transition_type 0x370-0x371 (1)
0x370|   06                                          | .              |      [161]: 6 transition_type 0x371-0x372 (1)
0x370|      05                                       |  .             |      [162]: 5 transition_type 0x372-0x373 (1)
0x370|         06                                    |   .            |      [163]: 6 transition_type 0x373-0x374 (1)
0x370|            05                                 |    .           |      [164]: 5 transition_type 0x374-0x375 (1)
0x370|               06                              |     .          |      [165]: 6 transition_type 0x375-0x376 (1)
0x370|                  05                           |      .         |      [166]: 5 transition_type 0x376-0x377 (1)
0x370|                     06                        |       .        |      [167]: 6 transition_type 0x377-0x378 (1)
0x370|                        05                     |        .       |      [168]: 5 transition_type 0x378-0x379 (1)
     |                                               |                |    local_time_type_records[0:7]: 0x379-0x3a3 (42)
     |                                               |                |      [0]{}: local_time_type 0x379-0x37f (6)
0x370|                           00 00 0b b4         |         ....   |        utoff: 2996 (valid) 0x379-0x37d (4)
0x370|                                       00      |             .  |        dst: 0 (valid) 0x37d-0x37e (1)
0x370|                                          00   |              . |        idx: 0 (valid) 0x37e-0x37f (1)
     |                                               |                |      [1]{}: local_time_type 0x37f-0x385 (6)
0x370|                                             00|               .|        utoff: 7200 (valid) 0x37f-0x383 (4)
0x380|00 1c 20                                       |..              |
0x380|         01                                    |   .            |        dst: 1 (valid) 0x383-0x384 (1)
0x380|            04                                 |    .           |        idx: 4 (valid) 0x384-0x385 (1)
     |                                               |                |      [2]{}: local_time_type 0x385-0x38b (6)
0x380|               00 00 0e 10                     |     ....       |        utoff: 3600 (valid) 0x385-0x389 (4)
0x380|                           00                  |         .      |        dst: 0 (valid) 0x389-0x38a (1)
0x380|                              09               |          .     |        idx: 9 (valid) 0x38a-0x38b (1)
     |                                               |                |      [3]{}: local_time_type 0x38b-0x391 (6)
0x380|                                 00 00 0e 10   |           .... |        utoff: 3600 (valid) 0x38b-0x38f (4)
0x380|                                             00|               .|        dst: 0 (valid) 0x38f-0x390 (1)
0x390|09                                             |.               |        idx: 9 (valid) 0x390-0x391 (1)
     |                                               |                |      [4]{}: local_time_type 0x391-0x397 (6)
0x390|   00 00 1c 20                                 | ...            |        utoff: 7200 (valid) 0x391-0x395 (4)
0x390|               01                              |     .          |        dst: 1 (valid) 0x395-0x396 (1)
0x390|                  04                           |      .         |        idx: 4 (valid) 0x396-0x397 (1)
     |                                               |                |      [5]{}: local_time_type 0x397-0x39d (6)
0x390|                     00 00 0e 10               |       ....     |        utoff: 3600 (valid) 0x397-0x39b (4)
0x390|                                 00            |           .    |        dst: 0 (valid) 0x39b-0x39c (1)
0x390|                                    09         |            .   |        idx: 9 (valid) 0x39c-0x39d (1)
     |                                               |                |      [6]{}: local_time_type 0x39d-0x3a3 (6)
0x390|                                       00 00 1c|             ...|        utoff: 7200 (valid) 0x39d-0x3a1 (4)
0x3a0|20                                             |                |
0x3a0|   01                                          | .              |        dst: 1 (valid) 0x3a1-0x3a2 (1)
0x3a0|      04                                       |  .             |        idx: 4 (valid) 0x3a2-0x3a3 (1)
     |                                               |                |    time_zone_designations[0:3]: 0x3a3-0x3b0 (13)
0x3a0|         4c 4d 54 00                           |   LMT.         |      [0]: "LMT" time_zone_designation 0x3a3-0x3a7 (4)
0x3a0|                     43 45 53 54 00            |       CEST.    |      [1]: "CEST" time_zone_designation 0x3a7-0x3ac (5)
0x3a0|                                    43 45 54 00|            CET.|      [2]: "CET" time_zone_designation 0x3ac-0x3b0 (4)
     |                                               |                |    leap_second_records[0:0]: 0x3b0-0x3b0 (0)
     |                                               |                |    standard_wall_indicators[0:7]: 0x3b0-0x3b7 (7)
0x3b0|00                                             |.               |      [0]: 0 standard_wall_indicator (valid) 0x3b0-0x3b1 (1)
0x3b0|   00                                          | .              |      [1]: 0 standard_wall_indicator (valid) 0x3b1-0x3b2 (1)
0x3b0|      00                                       |  .             |      [2]: 0 standard_wall_indicator (valid) 0x3b2-0x3b3 (1)
0x3b0|         01                                    |   .            |      [3]: 1 standard_wall_indicator (valid) 0x3b3-0x3b4 (1)
0x3b0|            01                                 |    .           |      [4]: 1 standard_wall_indicator (valid) 0x3b4-0x3b5 (1)
0x3b0|               01                              |     .          |      [5]: 1 standard_wall_indicator (valid) 0x3b5-0x3b6 (1)
0x3b0|                  01                           |      .         |      [6]: 1 standard_wall_indicator (valid) 0x3b6-0x3b7 (1)
     |                                               |                |    ut_local_indicators[0:7]: 0x3b7-0x3be (7)
0x3b0|                     00                        |       .        |      [0]: 0 ut_local_indicator (valid) 0x3b7-0x3b8 (1)
0x3b0|                        00                     |        .       |      [1]: 0 ut_local_indicator (valid) 0x3b8-0x3b9 (1)
0x3b0|                           00                  |         .      |      [2]: 0 ut_local_indicator (valid) 0x3b9-0x3ba (1)
0x3b0|                              00               |          .     |      [3]: 0 ut_local_indicator (valid) 0x3ba-0x3bb (1)
0x3b0|                                 00            |           .    |      [4]: 0 ut_local_indicator (valid) 0x3bb-0x3bc (1)
0x3b0|                                    01         |            .   |      [5]: 1 ut_local_indicator (valid) 0x3bc-0x3bd (1)
0x3b0|                                       01      |             .  |      [6]: 1 ut_local_indicator (valid) 0x3bd-0x3be (1)
     |                                               |                |  v2plusheader{}: 0x3be-0x3ea (44)
0x3b0|                                          54 5a|              TZ|    magic: 0x545a6966 (valid) 0x3be-0x3c2 (4)
0x3c0|69 66                                          |if              |
0x3c0|      32                                       |  2             |    ver: "2" (0x32) (valid) 0x3c2-0x3c3 (1)
0x3c0|         00 00 00 00 00 00 00 00 00 00 00 00 00|   .............|    reserved: raw bits 0x3c3-0x3d2 (15)
0x3d0|00 00                                          |..              |
0x3d0|      00 00 00 08                              |  ....          |    isutcnt: 8 0x3d2-0x3d6 (4)
0x3d0|                  00 00 00 08                  |      ....      |    isstdcnt: 8 0x3d6-0x3da (4)
0x3d0|                              00 00 00 00      |          ....  |    leapcnt: 0 0x3da-0x3de (4)
0x3d0|                                          00 00|              ..|    timecnt: 170 0x3de-0x3e2 (4)
0x3e0|00 aa                                          |..              |
0x3e0|      00 00 00 08                              |  ....          |    typecnt: 8 0x3e2-0x3e6 (4)
0x3e0|                  00 00 00 11                  |      ....      |    charcnt: 17 0x3e6-0x3ea (4)
     |                                               |                |  v2plusdatablock{}: 0x3ea-0xa35 (1611)
     |                                               |                |    transition_times[0:170]: 0x3ea-0x93a (1360)
0x3e0|                              ff ff ff ff 3e 28|          ....>(|      [0]: "1866-12-11T23:10:04Z" (-3252098996) transition_time 0x3ea-0x3f2 (8)
0x3f0|e8 4c                                          |.L              |
0x3f0|      ff ff ff ff 70 bc 81 70                  |  ....p..p      |      [1]: "1893-10-31T23:00:00Z" (-2403565200) transition_time 0x3f2-0x3fa (8)
0x3f0|                              ff ff ff ff 9b 38|          .....8|      [2]: "1916-06-03T23:00:00Z" (-1690765200) transition_time 0x3fa-0x402 (8)
0x400|f8 70                                          |.p              |
0x400|      ff ff ff ff 9b d5 cc e0                  |  ........      |      [3]: "1916-09-30T22:00:00Z" (-1680487200) transition_time 0x402-0x40a (8)
0x400|                              ff ff ff ff 9c c5|          ......|      [4]: "1917-03-31T23:00:00Z" (-1664758800) transition_time 0x40a-0x412 (8)
0x410|cb f0                                          |..              |
0x410|      ff ff ff ff 9d b7 00 60                  |  .......`      |      [5]: "1917-09-30T22:00:00Z" (-1648951200) transition_time 0x412-0x41a (8)
0x410|                              ff ff ff ff 9e 89|          ......|      [6]: "1918-03-09T23:00:00Z" (-1635123600) transition_time 0x41a-0x422 (8)
0x420|fe 70                                          |.p              |
0x420|      ff ff ff ff 9f a0 1c e0                  |  ........      |      [7]: "1918-10-06T22:00:00Z" (-1616896800) transition_time 0x422-0x42a (8)
0x420|                              ff ff ff ff a0 60|          .....`|      [8]: "1919-03-01T23:00:00Z" (-1604278800) transition_time 0x42a-0x432 (8)
0x430|a5 f0                                          |..              |
0x430|      ff ff ff ff a1 7e ad 60                  |  .....~.`      |      [9]: "1919-10-04T22:00:00Z" (-1585533600) transition_time 0x432-0x43a (8)
0x430|                              ff ff ff ff a2 5c|          .....\|      [10]: "1920-03-20T23:00:00Z" (-1571014800) transition_time 0x43a-0x442 (8)
0x440|37 70                                          |7p              |
0x440|      ff ff ff ff a3 4c 1a 60                  |  .....L.`      |      [11]: "1920-09-18T22:00:00Z" (-1555293600) transition_time 0x442-0x44a (8)
0x440|                              ff ff ff ff c8 6c|          .....l|      [12]: "1940-06-14T23:00:00Z" (-932432400) transition_time 0x44a-0x452 (8)
0x450|35 f0                                          |5.              |
0x450|      ff ff ff ff cc e7 4b 10                  |  ......K.      |      [13]: "1942-11-02T01:00:00Z" (-857257200) transition_time 0x452-0x45a (8)
0x450|                              ff ff ff ff cd a9|          ......|      [14]: "1943-03-29T01:00:00Z" (-844556400) transition_time 0x45a-0x462 (8)
0x460|17 90                                          |..              |
0x460|      ff ff ff ff ce a2 43 10                  |  ......C.      |      [15]: "1943-10-04T01:00:00Z" (-828226800) transition_time 0x462-0x46a (8)
0x460|                              ff ff ff ff cf 92|          ......|      [16]: "1944-04-03T01:00:00Z" (-812502000) transition_time 0x46a-0x472 (8)
0x470|34 10                                          |4.              |
0x470|      ff ff ff ff d0 6e 5e 90                  |  .....n^.      |      [17]: "1944-09-17T01:00:00Z" (-798073200) transition_time 0x472-0x47a (8)
0x470|                              ff ff ff ff d1 72|          .....r|      [18]: "1945-04-02T01:00:00Z" (-781052400) transition_time 0x47a-0x482 (8)
0x480|16 10                                          |..              |
0x480|      ff ff ff ff d2 4c d2 f0                  |  .....L..      |      [19]: "1945-09-14T23:00:00Z" (-766717200) transition_time 0x482-0x48a (8)
0x480|                              ff ff ff ff d3 3e|          .....>|      [20]: "1946-03-17T01:00:00Z" (-750898800) transition_time 0x48a-0x492 (8)
0x490|31 90                                          |1.              |
0x490|      ff ff ff ff d4 49 d2 10                  |  .....I..      |      [21]: "1946-10-06T01:00:00Z" (-733359600) transition_time 0x492-0x49a (8)
0x490|                              ff ff ff ff d5 1d|          ......|      [22]: "1947-03-15T23:00:00Z" (-719456400) transition_time 0x49a-0x4a2 (8)
0x4a0|f7 70                                          |.p              |
0x4a0|      ff ff ff ff d6 29 97 f0                  |  .....)..      |      [23]: "1947-10-04T23:00:00Z" (-701917200) transition_time 0x4a2-0x4aa (8)
0x4a0|                              ff ff ff ff d6 eb|          ......|      [24]: "1948-02-29T01:00:00Z" (-689209200) transition_time 0x4aa-0x4b2 (8)
0x4b0|80 90                                          |..              |
0x4b0|      ff ff ff ff d8 09 96 10                  |  ........      |      [25]: "1948-10-03T01:00:00Z" (-670460400) transition_time 0x4b2-0x4ba (8)
0x4b0|                              ff ff ff ff f9 33|          .....3|      [26]: "1966-05-21T23:00:00Z" (-114051600) transition_time 0x4ba-0x4c2 (8)
0x4c0|b5 f0                                          |..              |
0x4c0|      ff ff ff ff f9 d9 c4 e0                  |  ........      |      [27]: "1966-09-24T22:00:00Z" (-103168800) transition_time 0x4c2-0x4ca (8)
0x4c0|                              ff ff ff ff fb 1c|          ......|      [28]: "1967-05-27T23:00:00Z" (-81997200) transition_time 0x4ca-0x4d2 (8)
0x4d0|d2 70                                          |.p              |
0x4d0|      ff ff ff ff fb b9 b4 f0                  |  ........      |      [29]: "1967-09-23T23:00:00Z" (-71715600) transition_time 0x4d2-0x4da (8)
0x4d0|                              ff ff ff ff fc fc|          ......|      [30]: "1968-05-25T23:00:00Z" (-50547600) transition_time 0x4da-0x4e2 (8)
0x4e0|b4 70                                          |.p              |
0x4e0|      ff ff ff ff fd 99 96 f0                  |  ........      |      [31]: "1968-09-21T23:00:00Z" (-40266000) transition_time 0x4e2-0x4ea (8)
0x4e0|                              ff ff ff ff fe e5|          ......|      [32]: "1969-05-31T23:00:00Z" (-18493200) transition_time 0x4ea-0x4f2 (8)
0x4f0|d0 f0                                          |..              |
0x4f0|      ff ff ff ff ff 82 b3 70                  |  .......p      |      [33]: "1969-09-27T23:00:00Z" (-8211600) transition_time 0x4f2-0x4fa (8)
0x4f0|                              00 00 00 00 00 c5|          ......|      [34]: "1970-05-30T23:00:00Z" (12956400) transition_time 0x4fa-0x502 (8)
0x500|b2 f0                                          |..              |
0x500|      00 00 00 00 01 62 95 70                  |  .....b.p      |      [35]: "1970-09-26T23:00:00Z" (23238000) transition_time 0x502-0x50a (8)
0x500|                              00 00 00 00 02 9c|          ......|      [36]: "1971-05-22T23:00:00Z" (43801200) transition_time 0x50a-0x512 (8)
0x510|5a 70                                          |Zp              |
0x510|      00 00 00 00 03 42 77 70                  |  .....Bwp      |      [37]: "1971-09-25T23:00:00Z" (54687600) transition_time 0x512-0x51a (8)
0x510|                              00 00 00 00 04 85|          ......|      [38]: "1972-05-27T23:00:00Z" (75855600) transition_time 0x51a-0x522 (8)
0x520|76 f0                                          |v.              |
0x520|      00 00 00 00 05 2b 93 f0                  |  .....+..      |      [39]: "1972-09-30T23:00:00Z" (86742000) transition_time 0x522-0x52a (8)
0x520|                              00 00 00 00 06 6e|          .....n|      [40]: "1973-06-02T23:00:00Z" (107910000) transition_time 0x52a-0x532 (8)
0x530|93 70                                          |.p              |
0x530|      00 00 00 00 07 0b 75 f0                  |  ......u.      |      [41]: "1973-09-29T23:00:00Z" (118191600) transition_time 0x532-0x53a (8)
0x530|                              00 00 00 00 08 45|          .....E|      [42]: "1974-05-25T23:00:00Z" (138754800) transition_time 0x53a-0x542 (8)
0x540|3a f0                                          |:.              |
0x540|      00 00 00 00 08 eb 57 f0                  |  ......W.      |      [43]: "1974-09-28T23:00:00Z" (149641200) transition_time 0x542-0x54a (8)
0x540|                              00 00 00 00 0a 2e|          ......|      [44]: "1975-05-31T23:00:00Z" (170809200) transition_time 0x54a-0x552 (8)
0x550|57 70                                          |Wp              |
0x550|      00 00 00 00 0a cb 39 f0                  |  ......9.      |      [45]: "1975-09-27T23:00:00Z" (181090800) transition_time 0x552-0x55a (8)
0x550|                              00 00 00 00 0c 0e|          ......|      [46]: "1976-05-29T23:00:00Z" (202258800) transition_time 0x55a-0x562 (8)
0x560|39 70                                          |9p              |
0x560|      00 00 00 00 0c ab 1b f0                  |  ........      |      [47]: "1976-09-25T23:00:00Z" (212540400) transition_time 0x562-0x56a (8)
0x560|                              00 00 00 00 0d e4|          ......|      [48]: "1977-05-21T23:00:00Z" (233103600) transition_time 0x56a-0x572 (8)
0x570|e0 f0                                          |..              |
0x570|      00 00 00 00 0e 8a fd f0                  |  ........      |      [49]: "1977-09-24T23:00:00Z" (243990000) transition_time 0x572-0x57a (8)
0x570|                              00 00 00 00 0f cd|          ......|      [50]: "1978-05-27T23:00:00Z" (265158000) transition_time 0x57a-0x582 (8)
0x580|fd 70                                          |.p              |
0x580|      00 00 00 00 10 74 1a 70                  |  .....t.p      |      [51]: "1978-09-30T23:00:00Z" (276044400) transition_time 0x582-0x58a (8)
0x580|                              00 00 00 00 11 ad|          ......|      [52]: "1979-05-26T23:00:00Z" (296607600) transition_time 0x58a-0x592 (8)
0x590|df 70                                          |.p              |
0x590|      00 00 00 00 12 53 fc 70                  |  .....S.p      |      [53]: "1979-09-29T23:00:00Z" (307494000) transition_time 0x592-0x59a (8)
0x590|                              00 00 00 00 13 4d|          .....M|      [54]: "1980-04-06T01:00:00Z" (323830800) transition_time 0x59a-0x5a2 (8)
0x5a0|44 10                                          |D.              |
0x5a0|      00 00 00 00 14 33 fa 90                  |  .....3..      |      [55]: "1980-09-28T01:00:00Z" (338950800) transition_time 0x5a2-0x5aa (8)
0x5a0|                              00 00 00 00 15 23|          .....#|      [56]: "1981-03-29T01:00:00Z" (354675600) transition_time 0x5aa-0x5b2 (8)
0x5b0|eb 90                                          |..              |
0x5b0|      00 00 00 00 16 13 dc 90                  |  ........      |      [57]: "1981-09-27T01:00:00Z" (370400400) transition_time 0x5b2-0x5ba (8)
0x5b0|                              00 00 00 00 17 03|          ......|      [58]: "1982-03-28T01:00:00Z" (386125200) transition_time 0x5ba-0x5c2 (8)
0x5c0|cd 90                                          |..              |
0x5c0|      00 00 00 00 17 f3 be 90                  |  ........      |      [59]: "1982-09-26T01:00:00Z" (401850000) transition_time 0x5c2-0x5ca (8)
0x5c0|                              00 00 00 00 18 e3|          ......|      [60]: "1983-03-27T01:00:00Z" (417574800) transition_time 0x5ca-0x5d2 (8)
0x5d0|af 90                                          |..              |
0x5d0|      00 00 00 00 19 d3 a0 90                  |  ........      |      [61]: "1983-09-25T01:00:00Z" (433299600) transition_time 0x5d2-0x5da (8)
0x5d0|                              00 00 00 00 1a c3|          ......|      [62]: "1984-03-25T01:00:00Z" (449024400) transition_time 0x5da-0x5e2 (8)
0x5e0|91 90                                          |..              |
0x5e0|      00 00 00 00 1b bc bd 10                  |  ........      |      [63]: "1984-09-30T01:00:00Z" (465354000) transition_time 0x5e2-0x5ea (8)
0x5e0|                              00 00 00 00 1c ac|          ......|      [64]: "1985-03-31T01:00:00Z" (481078800) transition_time 0x5ea-0x5f2 (8)
0x5f0|ae 10                                          |..              |
0x5f0|      00 00 00 00 1d 9c 9f 10                  |  ........      |      [65]: "1985-09-29T01:00:00Z" (496803600) transition_time 0x5f2-0x5fa (8)
0x5f0|                              00 00 00 00 1e 8c|          ......|      [66]: "1986-03-30T01:00:00Z" (512528400) transition_time 0x5fa-0x602 (8)
0x600|90 10                                          |..              |
0x600|      00 00 00 00 1f 7c 81 10                  |  .....|..      |      [67]: "1986-09-28T01:00:00Z" (528253200) transition_time 0x602-0x60a (8)
0x600|                              00 00 00 00 20 6c|          .... l|      [68]: "1987-03-29T01:00:00Z" (543978000) transition_time 0x60a-0x612 (8)
0x610|72 10                                          |r.              |
0x610|      00 00 00 00 21 5c 63 10                  |  ....!\c.      |      [69]: "1987-09-27T01:00:00Z" (559702800) transition_time 0x612-0x61a (8)
0x610|                              00 00 00 00 22 4c|          ...."L|      [70]: "1988-03-27T01:00:00Z" (575427600) transition_time 0x61a-0x622 (8)
0x620|54 10                                          |T.              |
0x620|      00 00 00 00 23 3c 45 10                  |  ....#<E.      |      [71]: "1988-09-25T01:00:00Z" (591152400) transition_time 0x622-0x62a (8)
0x620|                              00 00 00 00 24 2c|          ....$,|      [72]: "1989-03-26T01:00:00Z" (606877200) transition_time 0x62a-0x632 (8)
0x630|36 10                                          |6.              |
0x630|      00 00 00 00 25 1c 27 10                  |  ....%.'.      |      [73]: "1989-09-24T01:00:00Z" (622602000) transition_time 0x632-0x63a (8)
0x630|                              00 00 00 00 26 0c|          ....&.|      [74]: "1990-03-25T01:00:00Z" (638326800) transition_time 0x63a-0x642 (8)
0x640|18 10                                          |..              |
0x640|      00 00 00 00 27 05 43 90                  |  ....'.C.      |      [75]: "1990-09-30T01:00:00Z" (654656400) transition_time 0x642-0x64a (8)
0x640|                              00 00 00 00 27 f5|          ....'.|      [76]: "1991-03-31T01:00:00Z" (670381200) transition_time 0x64a-0x652 (8)
0x650|34 90                                          |4.              |
0x650|      00 00 00 00 28 e5 25 90                  |  ....(.%.      |      [77]: "1991-09-29T01:00:00Z" (686106000) transition_time 0x652-0x65a (8)
0x650|                              00 00 00 00 29 d5|          ....).|      [78]: "1992-03-29T01:00:00Z" (701830800) transition_time 0x65a-0x662 (8)
0x660|16 90                                          |..              |
0x660|      00 00 00 00 2a c5 07 90                  |  ....*...      |      [79]: "1992-09-27T01:00:00Z" (717555600) transition_time 0x662-0x66a (8)
0x660|                              00 00 00 00 2b b4|          ....+.|      [80]: "1993-03-28T01:00:00Z" (733280400) transition_time 0x66a-0x672 (8)
0x670|f8 90                                          |..              |
0x670|      00 00 00 00 2c a4 e9 90                  |  ....,...      |      [81]: "1993-09-26T01:00:00Z" (749005200) transition_time 0x672-0x67a (8)
0x670|                              00 00 00 00 2d 94|          ....-.|      [82]: "1994-03-27T01:00:00Z" (764730000) transition_time 0x67a-0x682 (8)
0x680|da 90                                          |..              |
0x680|      00 00 00 00 2e 84 cb 90                  |  ........      |      [83]: "1994-09-25T01:00:00Z" (780454800) transition_time 0x682-0x68a (8)
0x680|                              00 00 00 00 2f 74|          ..../t|      [84]: "1995-03-26T01:00:00Z" (796179600) transition_time 0x68a-0x692 (8)
0x690|bc 90                                          |..              |
0x690|      00 00 00 00 30 64 ad 90                  |  ....0d..      |      [85]: "1995-09-24T01:00:00Z" (811904400) transition_time 0x692-0x69a (8)
0x690|                              00 00 00 00 31 5d|          ....1]|      [86]: "1996-03-31T01:00:00Z" (828234000) transition_time 0x69a-0x6a2 (8)
0x6a0|d9 10                                          |..              |
0x6a0|      00 00 00 00 32 72 b4 10                  |  ....2r..      |      [87]: "1996-10-27T01:00:00Z" (846378000) transition_time 0x6a2-0x6aa (8)
0x6a0|                              00 00 00 00 33 3d|          ....3=|      [88]: "1997-03-30T01:00:00Z" (859683600) transition_time 0x6aa-0x6b2 (8)
0x6b0|bb 10                                          |..              |
0x6b0|      00 00 00 00 34 52 96 10                  |  ....4R..      |      [89]: "1997-10-26T01:00:00Z" (877827600) transition_time 0x6b2-0x6ba (8)
0x6b0|                              00 00 00 00 35 1d|          ....5.|      [90]: "1998-03-29T01:00:00Z" (891133200) transition_time 0x6ba-0x6c2 (8)
0x6c0|9d 10                                          |..              |
0x6c0|      00 00 00 00 36 32 78 10                  |  ....62x.      |      [91]: "1998-10-25T01:00:00Z" (909277200) transition_time 0x6c2-0x6ca (8)
0x6c0|                              00 00 00 00 36 fd|          ....6.|      [92]: "1999-03-28T01:00:00Z" (922582800) transition_time 0x6ca-0x6d2 (8)
0x6d0|7f 10                                          |..              |
0x6d0|      00 00 00 00 38 1b 94 90                  |  ....8...      |      [93]: "1999-10-31T01:00:00Z" (941331600) transition_time 0x6d2-0x6da (8)
0x6d0|                              00 00 00 00 38 dd|          ....8.|      [94]: "2000-03-26T01:00:00Z" (954032400) transition_time 0x6da-0x6e2 (8)
0x6e0|61 10                                          |a.              |
0x6e0|      00 00 00 00 39 fb 76 90                  |  ....9.v.      |      [95]: "2000-10-29T01:00:00Z" (972781200) transition_time 0x6e2-0x6ea (8)
0x6e0|                              00 00 00 00 3a bd|          ....:.|      [96]: "2001-03-25T01:00:00Z" (985482000) transition_time 0x6ea-0x6f2 (8)
0x6f0|43 10                                          |C.              |
0x6f0|      00 00 00 00 3b db 58 90                  |  ....;.X.      |      [97]: "2001-10-28T01:00:00Z" (1004230800) transition_time 0x6f2-0x6fa (8)
0x6f0|                              00 00 00 00 3c a6|          ....<.|      [98]: "2002-03-31T01:00:00Z" (1017536400) transition_time 0x6fa-0x702 (8)
0x700|5f 90                                          |_.              |
0x700|      00 00 00 00 3d bb 3a 90                  |  ....=.:.      |      [99]: "2002-10-27T01:00:00Z" (1035680400) transition_time 0x702-0x70a (8)
0x700|                              00 00 00 00 3e 86|          ....>.|      [100]: "2003-03-30T01:00:00Z" (1048986000) transition_time 0x70a-0x712 (8)
0x710|41 90                                          |A.              |
0x710|      00 00 00 00 3f 9b 1c 90                  |  ....?...      |      [101]: "2003-10-26T01:00:00Z" (1067130000) transition_time 0x712-0x71a (8)
0x710|                              00 00 00 00 40 66|          ....@f|      [102]: "2004-03-28T01:00:00Z" (1080435600) transition_time 0x71a-0x722 (8)
0x720|23 90                                          |#.              |
0x720|      00 00 00 00 41 84 39 10                  |  ....A.9.      |      [103]: "2004-10-31T01:00:00Z" (1099184400) transition_time 0x722-0x72a (8)
0x720|                              00 00 00 00 42 46|          ....BF|      [104]: "2005-03-27T01:00:00Z" (1111885200) transition_time 0x72a-0x732 (8)
0x730|05 90                                          |..              |
0x730|      00 00 00 00 43 64 1b 10                  |  ....Cd..      |      [105]: "2005-10-30T01:00:00Z" (1130634000) transition_time 0x732-0x73a (8)
0x730|                              00 00 00 00 44 25|          ....D%|      [106]: "2006-03-26T01:00:00Z" (1143334800) transition_time 0x73a-0x742 (8)
0x740|e7 90                                          |..              |
0x740|      00 00 00 00 45 43 fd 10                  |  ....EC..      |      [107]: "2006-10-29T01:00:00Z" (1162083600) transition_time 0x742-0x74a (8)
0x740|                              00 00 00 00 46 05|          ....F.|      [108]: "2007-03-25T01:00:00Z" (1174784400) transition_time 0x74a-0x752 (8)
0x750|c9 90                                          |..              |
0x750|      00 00 00 00 47 23 df 10                  |  ....G#..      |      [109]: "2007-10-28T01:00:00Z" (1193533200) transition_time 0x752-0x75a (8)
0x750|                              00 00 00 00 47 ee|          ....G.|      [110]: "2008-03-30T01:00:00Z" (1206838800) transition_time 0x75a-0x762 (8)
0x760|e6 10                                          |..              |
0x760|      00 00 00 00 49 03 c1 10                  |  ....I...      |      [111]: "2008-10-26T01:00:00Z" (1224982800) transition_time 0x762-0x76a (8)
0x760|                              00 00 00 00 49 ce|          ....I.|      [112]: "2009-03-29T01:00:00Z" (1238288400) transition_time 0x76a-0x772 (8)
0x770|c8 10                                          |..              |
0x770|      00 00 00 00 4a e3 a3 10                  |  ....J...      |      [113]: "2009-10-25T01:00:00Z" (1256432400) transition_time 0x772-0x77a (8)
0x770|                              00 00 00 00 4b ae|          ....K.|      [114]: "2010-03-28T01:00:00Z" (1269738000) transition_time 0x77a-0x782 (8)
0x780|aa 10                                          |..              |
0x780|      00 00 00 00 4c cc bf 90                  |  ....L...      |      [115]: "2010-10-31T01:00:00Z" (1288486800) transition_time 0x782-0x78a (8)
0x780|                              00 00 00 00 4d 8e|          ....M.|      [116]: "2011-03-27T01:00:00Z" (1301187600) transition_time 0x78a-0x792 (8)
0x790|8c 10                                          |..              |
0x790|      00 00 00 00 4e ac a1 90                  |  ....N...      |      [117]: "2011-10-30T01:00:00Z" (1319936400) transition_time 0x792-0x79a (8)
0x790|                              00 00 00 00 4f 6e|          ....On|      [118]: "2012-03-25T01:00:00Z" (1332637200) transition_time 0x79a-0x7a2 (8)
0x7a0|6e 10                                          |n.              |
0x7a0|      00 00 00 00 50 8c 83 90                  |  ....P...      |      [119]: "2012-10-28T01:00:00Z" (1351386000) transition_time 0x7a2-0x7aa (8)
0x7a0|                              00 00 00 00 51 57|          ....QW|      [120]: "2013-03-31T01:00:00Z" (1364691600) transition_time 0x7aa-0x7b2 (8)
0x7b0|8a 90                                          |..              |
0x7b0|      00 00 00 00 52 6c 65 90                  |  ....Rle.      |      [121]: "2013-10-27T01:00:00Z" (1382835600) transition_time 0x7b2-0x7ba (8)
0x7b0|                              00 00 00 00 53 37|          ....S7|      [122]: "2014-03-30T01:00:00Z" (1396141200) transition_time 0x7ba-0x7c2 (8)
0x7c0|6c 90                                          |l.              |
0x7c0|      00 00 00 00 54 4c 47 90                  |  ....TLG.      |      [123]: "2014-10-26T01:00:00Z" (1414285200) transition_time 0x7c2-0x7ca (8)
0x7c0|                              00 00 00 00 55 17|          ....U.|      [124]: "2015-03-29T01:00:00Z" (1427590800) transition_time 0x7ca-0x7d2 (8)
0x7d0|4e 90                                          |N.              |
0x7d0|      00 00 00 00 56 2c 29 90                  |  ....V,).      |      [125]: "2015-10-25T01:00:00Z" (1445734800) transition_time 0x7d2-0x7da (8)
0x7d0|                              00 00 00 00 56 f7|          ....V.|      [126]: "2016-03-27T01:00:00Z" (1459040400) transition_time 0x7da-0x7e2 (8)
0x7e0|30 90                                          |0.              |
0x7e0|      00 00 00 00 58 15 46 10                  |  ....X.F.      |      [127]: "2016-10-30T01:00:00Z" (1477789200) transition_time 0x7e2-0x7ea (8)
0x7e0|                              00 00 00 00 58 d7|          ....X.|      [128]: "2017-03-26T01:00:00Z" (1490490000) transition_time 0x7ea-0x7f2 (8)
0x7f0|12 90                                          |..              |
0x7f0|      00 00 00 00 59 f5 28 10                  |  ....Y.(.      |      [129]: "2017-10-29T01:00:00Z" (1509238800) transition_time 0x7f2-0x7fa (8)
0x7f0|                              00 00 00 00 5a b6|          ....Z.|      [130]: "2018-03-25T01:00:00Z" (1521939600) transition_time 0x7fa-0x802 (8)
0x800|f4 90                                          |..              |
0x800|      00 00 00 00 5b d5 0a 10                  |  ....[...      |      [131]: "2018-10-28T01:00:00Z" (1540688400) transition_time 0x802-0x80a (8)
0x800|                              00 00 00 00 5c a0|          ....\.|      [132]: "2019-03-31T01:00:00Z" (1553994000) transition_time 0x80a-0x812 (8)
0x810|11 10                                          |..              |
0x810|      00 00 00 00 5d b4 ec 10                  |  ....]...      |      [133]: "2019-10-27T01:00:00Z" (1572138000) transition_time 0x812-0x81a (8)
0x810|                              00 00 00 00 5e 7f|          ....^.|      [134]: "2020-03-29T01:00:00Z" (1585443600) transition_time 0x81a-0x822 (8)
0x820|f3 10                                          |..              |
0x820|      00 00 00 00 5f 94 ce 10                  |  ...._...      |      [135]: "2020-10-25T01:00:00Z" (1603587600) transition_time 0x822-0x82a (8)
0x820|                              00 00 00 00 60 5f|          ....`_|      [136]: "2021-03-28T01:00:00Z" (1616893200) transition_time 0x82a-0x832 (8)
0x830|d5 10                                          |..              |
0x830|      00 00 00 00 61 7d ea 90                  |  ....a}..      |      [137]: "2021-10-31T01:00:00Z" (1635642000) transition_time 0x832-0x83a (8)
0x830|                              00 00 00 00 62 3f|          ....b?|      [138]: "2022-03-27T01:00:00Z" (1648342800) transition_time 0x83a-0x842 (8)
0x840|b7 10                                          |..              |
0x840|      00 00 00 00 63 5d cc 90                  |  ....c]..      |      [139]: "2022-10-30T01:00:00Z" (1667091600) transition_time 0x842-0x84a (8)
0x840|                              00 00 00 00 64 1f|          ....d.|      [140]: "2023-03-26T01:00:00Z" (1679792400) transition_time 0x84a-0x852 (8)
0x850|99 10                                          |..              |
0x850|      00 00 00 00 65 3d ae 90                  |  ....e=..      |      [141]: "2023-10-29T01:00:00Z" (1698541200) transition_time 0x852-0x85a (8)
0x850|                              00 00 00 00 66 08|          ....f.|      [142]: "2024-03-31T01:00:00Z" (1711846800) transition_time 0x85a-0x862 (8)
0x860|b5 90                                          |..              |
0x860|      00 00 00 00 67 1d 90 90                  |  ....g...      |      [143]: "2024-10-27T01:00:00Z" (1729990800) transition_time 0x862-0x86a (8)
0x860|                              00 00 00 00 67 e8|          ....g.|      [144]: "2025-03-30T01:00:00Z" (1743296400) transition_time 0x86a-0x872 (8)
0x870|97 90                                          |..              |
0x870|      00 00 00 00 68 fd 72 90                  |  ....h.r.      |      [145]: "2025-10-26T01:00:00Z" (1761440400) transition_time 0x872-0x87a (8)
0x870|                              00 00 00 00 69 c8|          ....i.|      [146]: "2026-03-29T01:00:00Z" (1774746000) transition_time 0x87a-0x882 (8)
0x880|79 90                                          |y.              |
0x880|      00 00 00 00 6a dd 54 90                  |  ....j.T.      |      [147]: "2026-10-25T01:00:00Z" (1792890000) transition_time 0x882-0x88a (8)
0x880|                              00 00 00 00 6b a8|          ....k.|      [148]: "2027-03-28T01:00:00Z" (1806195600) transition_time 0x88a-0x892 (8)
0x890|5b 90                                          |[.              |
0x890|      00 00 00 00 6c c6 71 10                  |  ....l.q.      |      [149]: "2027-10-31T01:00:00Z" (1824944400) transition_time 0x892-0x89a (8)
0x890|                              00 00 00 00 6d 88|          ....m.|      [150]: "2028-03-26T01:00:00Z" (1837645200) transition_time 0x89a-0x8a2 (8)
0x8a0|3d 90                                          |=.              |
0x8a0|      00 00 00 00 6e a6 53 10                  |  ....n.S.      |      [151]: "2028-10-29T01:00:00Z" (1856394000) transition_time 0x8a2-0x8aa (8)
0x8a0|                              00 00 00 00 6f 68|          ....oh|      [152]: "2029-03-25T01:00:00Z" (1869094800) transition_time 0x8aa-0x8b2 (8)
0x8b0|1f 90                                          |..              |
0x8b0|      00 00 00 00 70 86 35 10                  |  ....p.5.      |      [153]: "2029-10-28T01:00:00Z" (1887843600) transition_time 0x8b2-0x8ba (8)
0x8b0|                              00 00 00 00 71 51|          ....qQ|      [154]: "2030-03-31T01:00:00Z" (1901149200) transition_time 0x8ba-0x8c2 (8)
0x8c0|3c 10                                          |<.              |
0x8c0|      00 00 00 00 72 66 17 10                  |  ....rf..      |      [155]: "2030-10-27T01:00:00Z" (1919293200) transition_time 0x8c2-0x8ca (8)
0x8c0|                              00 00 00 00 73 31|          ....s1|      [156]: "2031-03-30T01:00:00Z" (1932598800) transition_time 0x8ca-0x8d2 (8)
0x8d0|1e 10                                          |..              |
0x8d0|      00 00 00 00 74 45 f9 10                  |  ....tE..      |      [157]: "2031-10-26T01:00:00Z" (1950742800) transition_time 0x8d2-0x8da (8)
0x8d0|                              00 00 00 00 75 11|          ....u.|      [158]: "2032-03-28T01:00:00Z" (1964048400) transition_time 0x8da-0x8e2 (8)
0x8e0|00 10                                          |..              |
0x8e0|      00 00 00 00 76 2f 15 90                  |  ....v/..      |      [159]: "2032-10-31T01:00:00Z" (1982797200) transition_time 0x8e2-0x8ea (8)
0x8e0|                              00 00 00 00 76 f0|          ....v.|      [160]: "2033-03-27T01:00:00Z" (1995498000) transition_time 0x8ea-0x8f2 (8)
0x8f0|e2 10                                          |..              |
0x8f0|      00 00 00 00 78 0e f7 90                  |  ....x...      |      [161]: "2033-10-30T01:00:00Z" (2014246800) transition_time 0x8f2-0x8fa (8)
0x8f0|                              00 00 00 00 78 d0|          ....x.|      [162]: "2034-03-26T01:00:00Z" (2026947600) transition_time 0x8fa-0x902 (8)
0x900|c4 10                                          |..              |
0x900|      00 00 00 00 79 ee d9 90                  |  ....y...      |      [163]: "2034-10-29T01:00:00Z" (2045696400) transition_time 0x902-0x90a (8)
0x900|                              00 00 00 00 7a b0|          ....z.|      [164]: "2035-03-25T01:00:00Z" (2058397200) transition_time 0x90a-0x912 (8)
0x910|a6 10                                          |..              |
0x910|      00 00 00 00 7b ce bb 90                  |  ....{...      |      [165]: "2035-10-28T01:00:00Z" (2077146000) transition_time 0x912-0x91a (8)
0x910|                              00 00 00 00 7c 99|          ....|.|      [166]: "2036-03-30T01:00:00Z" (2090451600) transition_time 0x91a-0x922 (8)
0x920|c2 90                                          |..              |
0x920|      00 00 00 00 7d ae 9d 90                  |  ....}...      |      [167]: "2036-10-26T01:00:00Z" (2108595600) transition_time 0x922-0x92a (8)
0x920|                              00 00 00 00 7e 79|          ....~y|      [168]: "2037-03-29T01:00:00Z" (2121901200) transition_time 0x92a-0x932 (8)
0x930|a4 90                                          |..              |
0x930|      00 00 00 00 7f 8e 7f 90                  |  ........      |      [169]: "2037-10-25T01:00:00Z" (2140045200) transition_time 0x932-0x93a (8)
     |                                               |                |    transition_types[0:170]: 0x93a-0x9e4 (170)
0x930|                              01               |          .     |      [0]: 1 transition_type 0x93a-0x93b (1)
0x930|                                 06            |           .    |      [1]: 6 transition_type 0x93b-0x93c (1)
0x930|                                    02         |            .   |      [2]: 2 transition_type 0x93c-0x93d (1)
0x930|                                       03      |             .  |      [3]: 3 transition_type 0x93d-0x93e (1)
0x930|                                          02   |              . |      [4]: 2 transition_type 0x93e-0x93f (1)
0x930|                                             03|               .|      [5]: 3 transition_type 0x93f-0x940 (1)
0x940|02                                             |.               |      [6]: 2 transition_type 0x940-0x941 (1)
0x940|   03                                          | .              |      [7]: 3 transition_type 0x941-0x942 (1)
0x940|      02                                       |  .             |      [8]: 2 transition_type 0x942-0x943 (1)
0x940|         03                                    |   .            |      [9]: 3 transition_type 0x943-0x944 (1)
0x940|            02                                 |    .           |      [10]: 2 transition_type 0x944-0x945 (1)
0x940|               03                              |     .          |      [11]: 3 transition_type 0x945-0x946 (1)
0x940|                  02                           |      .         |      [12]: 2 transition_type 0x946-0x947 (1)
0x940|                     04                        |       .        |      [13]: 4 transition_type 0x947-0x948 (1)
0x940|                        05                     |        .       |      [14]: 5 transition_type 0x948-0x949 (1)
0x940|                           04                  |         .      |      [15]: 4 transition_type 0x949-0x94a (1)
0x940|                              05               |          .     |      [16]: 5 transition_type 0x94a-0x94b (1)
0x940|                                 04            |           .    |      [17]: 4 transition_type 0x94b-0x94c (1)
0x940|                                    02         |            .   |      [18]: 2 transition_type 0x94c-0x94d (1)
0x940|                                       03      |             .  |      [19]: 3 transition_type 0x94d-0x94e (1)
0x940|                                          05   |              . |      [20]: 5 transition_type 0x94e-0x94f (1)
0x940|                                             04|               .|      [21]: 4 transition_type 0x94f-0x950 (1)
0x950|05                                             |.               |      [22]: 5 transition_type 0x950-0x951 (1)
0x950|   04                                          | .              |      [23]: 4 transition_type 0x951-0x952 (1)
0x950|      05                                       |  .             |      [24]: 5 transition_type 0x952-0x953 (1)
0x950|         04                                    |   .            |      [25]: 4 transition_type 0x953-0x954 (1)
0x950|            05                                 |    .           |      [26]: 5 transition_type 0x954-0x955 (1)
0x950|               03                              |     .          |      [27]: 3 transition_type 0x955-0x956 (1)
0x950|                  05                           |      .         |      [28]: 5 transition_type 0x956-0x957 (1)
0x950|                     04                        |       .        |      [29]: 4 transition_type 0x957-0x958 (1)
0x950|                        05                     |        .       |      [30]: 5 transition_type 0x958-0x959 (1)
0x950|                           04                  |         .      |      [31]: 4 transition_type 0x959-0x95a (1)
0x950|                              05               |          .     |      [32]: 5 transition_type 0x95a-0x95b (1)
0x950|                                 04            |           .    |      [33]: 4 transition_type 0x95b-0x95c (1)
0x950|                                    05         |            .   |      [34]: 5 transition_type 0x95c-0x95d (1)
0x950|                                       04      |             .  |      [35]: 4 transition_type 0x95d-0x95e (1)
0x950|                                          05   |              . |      [36]: 5 transition_type 0x95e-0x95f (1)
0x950|                                             04|               .|      [37]: 4 transition_type 0x95f-0x960 (1)
0x960|05                                             |.               |      [38]: 5 transition_type 0x960-0x961 (1)
0x960|   04                                          | .              |      [39]: 4 transition_type 0x961-0x962 (1)
0x960|      05                                       |  .             |      [40]: 5 transition_type 0x962-0x963 (1)
0x960|         04                                    |   .            |      [41]: 4 transition_type 0x963-0x964 (1)
0x960|            05                                 |    .           |      [42]: 5 transition_type 0x964-0x965 (1)
0x960|               04                              |     .          |      [43]: 4 transition_type 0x965-0x966 (1)
0x960|                  05                           |      .         |      [44]: 5 transition_type 0x966-0x967 (1)
0x960|                     04                        |       .        |      [45]: 4 transition_type 0x967-0x968 (1)
0x960|                        05                     |        .       |      [46]: 5 transition_type 0x968-0x969 (1)
0x960|                           04                  |         .      |      [47]: 4 transition_type 0x969-0x96a (1)
0x960|                              05               |          .     |      [48]: 5 transition_type 0x96a-0x96b (1)
0x960|                                 04            |           .    |      [49]: 4 transition_type 0x96b-0x96c (1)
0x960|                                    05         |            .   |      [50]: 5 transition_type 0x96c-0x96d (1)
0x960|                                       04      |             .  |      [51]: 4 transition_type 0x96d-0x96e (1)
0x960|                                          05   |              . |      [52]: 5 transition_type 0x96e-0x96f (1)
0x960|                                             04|               .|      [53]: 4 transition_type 0x96f-0x970 (1)
0x970|07                                             |.               |      [54]: 7 transition_type 0x970-0x971 (1)
0x970|   06                                          | .              |      [55]: 6 transition_type 0x971-0x972 (1)
0x970|      07                                       |  .             |      [56]: 7 transition_type 0x972-0x973 (1)
0x970|         06                                    |   .            |      [57]: 6 transition_type 0x973-0x974 (1)
0x970|            07                                 |    .           |      [58]: 7 transition_type 0x974-0x975 (1)
0x970|               06                              |     .          |      [59]: 6 transition_type 0x975-0x976 (1)
0x970|                  07                           |      .         |      [60]: 7 transition_type 0x976-0x977 (1)
0x970|                     06                        |       .        |      [61]: 6 transition_type 0x977-0x978 (1)
0x970|                        07                     |        .       |      [62]: 7 transition_type 0x978-0x979 (1)
0x970|                           06                  |         .      |      [63]: 6 transition_type 0x979-0x97a (1)
0x970|                              07               |          .     |      [64]: 7 transition_type 0x97a-0x97b (1)
0x970|                                 06            |           .    |      [65]: 6 transition_type 0x97b-0x97c (1)
0x970|                                    07         |            .   |      [66]: 7 transition_type 0x97c-0x97d (1)
0x970|                                       06      |             .  |      [67]: 6 transition_type 0x97d-0x97e (1)
0x970|                                          07   |              . |      [68]: 7 transition_type 0x97e-0x97f (1)
0x970|                                             06|               .|      [69]: 6 transition_type 0x97f-0x980 (1)
0x980|07                                             |.               |      [70]: 7 transition_type 0x980-0x981 (1)
0x980|   06                                          | .              |      [71]: 6 transition_type 0x981-0x982 (1)
0x980|      07                                       |  .             |      [72]: 7 transition_type 0x982-0x983 (1)
0x980|         06                                    |   .            |      [73]: 6 transition_type 0x983-0x984 (1)
0x980|            07                                 |    .           |      [74]: 7 transition_type 0x984-0x985 (1)
0x980|               06                              |     .          |      [75]: 6 transition_type 0x985-0x986 (1)
0x980|                  07                           |      .         |      [76]: 7 transition_type 0x986-0x987 (1)
0x980|                     06                        |       .        |      [77]: 6 transition_type 0x987-0x988 (1)
0x980|                        07                     |        .       |      [78]: 7 transition_type 0x988-0x989 (1)
0x980|                           06                  |         .      |      [79]: 6 transition_type 0x989-0x98a (1)
0x980|                              07               |          .     |      [80]: 7 transition_type 0x98a-0x98b (1)
0x980|                                 06            |           .    |      [81]: 6 transition_type 0x98b-0x98c (1)
0x980|                                    07         |            .   |      [82]: 7 transition_type 0x98c-0x98d (1)
0x980|                                       06      |             .  |      [83]: 6 transition_type 0x98d-0x98e (1)
0x980|                                          07   |              . |      [84]: 7 transition_type 0x98e-0x98f (1)
0x980|                                             06|               .|      [85]: 6 transition_type 0x98f-0x990 (1)
0x990|07                                             |.               |      [86]: 7 transition_type 0x990-0x991 (1)
0x990|   06                                          | .              |      [87]: 6 transition_type 0x991-0x992 (1)
0x990|      07                                       |  .             |      [88]: 7 transition_type 0x992-0x993 (1)
0x990|         06                                    |   .            |      [89]: 6 transition_type 0x993-0x994 (1)
0x990|            07                                 |    .           |      [90]: 7 transition_type 0x994-0x995 (1)
0x990|               06                              |     .          |      [91]: 6 transition_type 0x995-0x996 (1)
0x990|                  07                           |      .         |      [92]: 7 transition_type 0x996-0x997 (1)
0x990|                     06                        |       .        |      [93]: 6 transition_type 0x997-0x998 (1)
0x990|                        07                     |        .       |      [94]: 7 transition_type 0x998-0x999 (1)
0x990|                           06                  |         .      |      [95]: 6 transition_type 0x999-0x99a (1)
0x990|                              07               |          .     |      [96]: 7 transition_type 0x99a-0x99b (1)
0x990|                                 06            |           .    |      [97]: 6 transition_type 0x99b-0x99c (1)
0x990|                                    07         |            .   |      [98]: 7 transition_type 0x99c-0x99d (1)
0x990|                                       06      |             .  |      [99]: 6 transition_type 0x99d-0x99e (1)
0x990|                                          07   |              . |      [100]: 7 transition_type 0x99e-0x99f (1)
0x990|                                             06|               .|      [101]: 6 transition_type 0x99f-0x9a0 (1)
0x9a0|07                                             |.               |      [102]: 7 transition_type 0x9a0-0x9a1 (1)
0x9a0|   06                                          | .              |      [103]: 6 transition_type 0x9a1-0x9a2 (1)
0x9a0|      07                                       |  .             |      [104]: 7 transition_type 0x9a2-0x9a3 (1)
0x9a0|         06                                    |   .            |      [105]: 6 transition_type 0x9a3-0x9a4 (1)
0x9a0|            07                                 |    .           |      [106]: 7 transition_type 0x9a4-0x9a5 (1)
0x9a0|               06                              |     .          |      [107]: 6 transition_type 0x9a5-0x9a6 (1)
0x9a0|                  07                           |      .         |      [108]: 7 transition_type 0x9a6-0x9a7 (1)
0x9a0|                     06                        |       .        |      [109]: 6 transition_type 0x9a7-0x9a8 (1)
0x9a0|                        07                     |        .       |      [110]: 7 transition_type 0x9a8-0x9a9 (1)
0x9a0|                           06                  |         .      |      [111]: 6 transition_type 0x9a9-0x9aa (1)
0x9a0|                              07               |          .     |      [112]: 7 transition_type 0x9aa-0x9ab (1)
0x9a0|                                 06            |           .    |      [113]: 6 transition_type 0x9ab-0x9ac (1)
0x9a0|                                    07         |            .   |      [114]: 7 transition_type 0x9ac-0x9ad (1)
0x9a0|                                       06      |             .  |      [115]: 6 transition_type 0x9ad-0x9ae (1)
0x9a0|                                          07   |              . |      [116]: 7 transition_type 0x9ae-0x9af (1)
0x9a0|                                             06|               .|      [117]: 6 transition_type 0x9af-0x9b0 (1)
0x9b0|07                                             |.               |      [118]: 7 transition_type 0x9b0-0x9b1 (1)
0x9b0|   06                                          | .              |      [119]: 6 transition_type 0x9b1-0x9b2 (1)
0x9b0|      07                                       |  .             |      [120]: 7 transition_type 0x9b2-0x9b3 (1)
0x9b0|         06                                    |   .            |      [121]: 6 transition_type 0x9b3-0x9b4 (1)
0x9b0|            07                                 |    .           |      [122]: 7 transition_type 0x9b4-0x9b5 (1)
0x9b0|               06                              |     .          |      [123]: 6 transition_type 0x9b5-0x9b6 (1)
0x9b0|                  07                           |      .         |      [124]: 7 transition_type 0x9b6-0x9b7 (1)
0x9b0|                     06                        |       .        |      [125]: 6 transition_type 0x9b7-0x9b8 (1)
0x9b0|                        07                     |        .       |      [126]: 7 transition_type 0x9b8-0x9b9 (1)
0x9b0|                           06                  |         .      |      [127]: 6 transition_type 0x9b9-0x9ba (1)
0x9b0|                              07               |          .     |      [128]: 7 transition_type 0x9ba-0x9bb (1)
0x9b0|                                 06            |           .    |      [129]: 6 transition_type 0x9bb-0x9bc (1)
0x9b0|                                    07         |            .   |      [130]: 7 transition_type 0x9bc-0x9bd (1)
0x9b0|                                       06      |             .  |      [131]: 6 transition_type 0x9bd-0x9be (1)
0x9b0|                                          07   |              . |      [132]: 7 transition_type 0x9be-0x9bf (1)
0x9b0|                                             06|               .|      [133]: 6 transition_type 0x9bf-0x9c0 (1)
0x9c0|07                                             |.               |      [134]: 7 transition_type 0x9c0-0x9c1 (1)
0x9c0|   06                                          | .              |      [135]: 6 transition_type 0x9c1-0x9c2 (1)
0x9c0|      07                                       |  .             |      [136]: 7 transition_type 0x9c2-0x9c3 (1)
0x9c0|         06                                    |   .            |      [137]: 6 transition_type 0x9c3-0x9c4 (1)
0x9c0|            07                                 |    .           |      [138]: 7 transition_type 0x9c4-0x9c5 (1)
0x9c0|               06                              |     .          |      [139]: 6 transition_type 0x9c5-0x9c6 (1)
0x9c0|                  07                           |      .         |      [140]: 7 transition_type 0x9c6-0x9c7 (1)
0x9c0|                     06                        |       .        |      [141]: 6 transition_type 0x9c7-0x9c8 (1)
0x9c0|                        07                     |        .       |      [142]: 7 transition_type 0x9c8-0x9c9 (1)
0x9c0|                           06                  |         .      |      [143]: 6 transition_type 0x9c9-0x9ca (1)
0x9c0|                              07               |          .     |      [144]: 7 transition_type 0x9ca-0x9cb (1)
0x9c0|                                 06            |           .    |      [145]: 6 transition_type 0x9cb-0x9cc (1)
0x9c0|                                    07         |            .   |      [146]: 7 transition_type 0x9cc-0x9cd (1)
0x9c0|                                       06      |             .  |      [147]: 6 transition_type 0x9cd-0x9ce (1)
0x9c0|                                          07   |              . |      [148]: 7 transition_type 0x9ce-0x9cf (1)
0x9c0|                                             06|               .|      [149]: 6 transition_type 0x9cf-0x9d0 (1)
0x9d0|07                                             |.               |      [150]: 7 transition_type 0x9d0-0x9d1 (1)
0x9d0|   06                                          | .              |      [151]: 6 transition_type 0x9d1-0x9d2 (1)
0x9d0|      07                                       |  .             |      [152]: 7 transition_type 0x9d2-0x9d3 (1)
0x9d0|         06                                    |   .            |      [153]: 6 transition_type 0x9d3-0x9d4 (1)
0x9d0|            07                                 |    .           |      [154]: 7 transition_type 0x9d4-0x9d5 (1)
0x9d0|               06                              |     .          |      [155]: 6 transition_type 0x9d5-0x9d6 (1)
0x9d0|                  07                           |      .         |      [156]: 7 transition_type 0x9d6-0x9d7 (1)
0x9d0|                     06                        |       .        |      [157]: 6 transition_type 0x9d7-0x9d8 (1)
0x9d0|                        07                     |        .       |      [158]: 7 transition_type 0x9d8-0x9d9 (1)
0x9d0|                           06                  |         .      |      [159]: 6 transition_type 0x9d9-0x9da (1)
0x9d0|                              07               |          .     |      [160]: 7 transition_type 0x9da-0x9db (1)
0x9d0|                                 06            |           .    |      [161]: 6 transition_type 0x9db-0x9dc (1)
0x9d0|                                    07         |            .   |      [162]: 7 transition_type 0x9dc-0x9dd (1)
0x9d0|                                       06      |             .  |      [163]: 6 transition_type 0x9dd-0x9de (1)
0x9d0|                                          07   |              . |      [164]: 7 transition_type 0x9de-0x9df (1)
0x9d0|                                             06|               .|      [165]: 6 transition_type 0x9df-0x9e0 (1)
0x9e0|07                                             |.               |      [166]: 7 transition_type 0x9e0-0x9e1 (1)
0x9e0|   06                                          | .              |      [167]: 6 transition_type 0x9e1-0x9e2 (1)
0x9e0|      07                                       |  .             |      [168]: 7 transition_type 0x9e2-0x9e3 (1)
0x9e0|         06                                    |   .            |      [169]: 6 transition_type 0x9e3-0x9e4 (1)
     |                                               |                |    local_time_type_records[0:8]: 0x9e4-0xa14 (48)
     |                                               |                |      [0]{}: local_time_type 0x9e4-0x9ea (6)
0x9e0|            00 00 0b b4                        |    ....        |        utoff: 2996 (valid) 0x9e4-0x9e8 (4)
0x9e0|                        00                     |        .       |        dst: 0 (valid) 0x9e8-0x9e9 (1)
0x9e0|                           00                  |         .      |        idx: 0 (valid) 0x9e9-0x9ea (1)
     |                                               |                |      [1]{}: local_time_type 0x9ea-0x9f0 (6)
0x9e0|                              00 00 0b b4      |          ....  |        utoff: 2996 (valid) 0x9ea-0x9ee (4)
0x9e0|                                          00   |              . |        dst: 0 (valid) 0x9ee-0x9ef (1)
0x9e0|                                             04|               .|        idx: 4 (valid) 0x9ef-0x9f0 (1)
     |                                               |                |      [2]{}: local_time_type 0x9f0-0x9f6 (6)
0x9f0|00 00 1c 20                                    |...             |        utoff: 7200 (valid) 0x9f0-0x9f4 (4)
0x9f0|            01                                 |    .           |        dst: 1 (valid) 0x9f4-0x9f5 (1)
0x9f0|               08                              |     .          |        idx: 8 (valid) 0x9f5-0x9f6 (1)
     |                                               |                |      [3]{}: local_time_type 0x9f6-0x9fc (6)
0x9f0|                  00 00 0e 10                  |      ....      |        utoff: 3600 (valid) 0x9f6-0x9fa (4)
0x9f0|                              00               |          .     |        dst: 0 (valid) 0x9fa-0x9fb (1)
0x9f0|                                 0d            |           .    |        idx: 13 (valid) 0x9fb-0x9fc (1)
     |                                               |                |      [4]{}: local_time_type 0x9fc-0xa02 (6)
0x9f0|                                    00 00 0e 10|            ....|        utoff: 3600 (valid) 0x9fc-0xa00 (4)
0xa00|00                                             |.               |        dst: 0 (valid) 0xa00-0xa01 (1)
0xa00|   0d                                          | .              |        idx: 13 (valid) 0xa01-0xa02 (1)
     |                                               |                |      [5]{}: local_time_type 0xa02-0xa08 (6)
0xa00|      00 00 1c 20                              |  ...           |        utoff: 7200 (valid) 0xa02-0xa06 (4)
0xa00|                  01                           |      .         |        dst: 1 (valid) 0xa06-0xa07 (1)
0xa00|                     08                        |       .        |        idx: 8 (valid) 0xa07-0xa08 (1)
     |                                               |                |      [6]{}: local_time_type 0xa08-0xa0e (6)
0xa00|                        00 00 0e 10            |        ....    |        utoff: 3600 (valid) 0xa08-0xa0c (4)
0xa00|                                    00         |            .   |        dst: 0 (valid) 0xa0c-0xa0d (1)
0xa00|                                       0d      |             .  |        idx: 13 (valid) 0xa0d-0xa0e (1)
     |                                               |                |      [7]{}: local_time_type 0xa0e-0xa14 (6)
0xa00|                                          00 00|              ..|        utoff: 7200 (valid) 0xa0e-0xa12 (4)
0xa10|1c 20                                          |.               |
0xa10|      01                                       |  .             |        dst: 1 (valid) 0xa12-0xa13 (1)
0xa10|         08                                    |   .            |        idx: 8 (valid) 0xa13-0xa14 (1)
     |                                               |                |    time_zone_designations[0:4]: 0xa14-0xa25 (17)
0xa10|            4c 4d 54 00                        |    LMT.        |      [0]: "LMT" time_zone_designation 0xa14-0xa18 (4)
0xa10|                        52 4d 54 00            |        RMT.    |      [1]: "RMT" time_zone_designation 0xa18-0xa1c (4)
0xa10|                                    43 45 53 54|            CEST|      [2]: "CEST" time_zone_designation 0xa1c-0xa21 (5)
0xa20|00                                             |.               |
0xa20|   43 45 54 00                                 | CET.           |      [3]: "CET" time_zone_designation 0xa21-0xa25 (4)
     |                                               |                |    leap_second_records[0:0]: 0xa25-0xa25 (0)
     |                                               |                |    standard_wall_indicators[0:8]: 0xa25-0xa2d (8)
0xa20|               00                              |     .          |      [0]: 0 standard_wall_indicator (valid) 0xa25-0xa26 (1)
0xa20|                  00                           |      .         |      [1]: 0 standard_wall_indicator (valid) 0xa26-0xa27 (1)
0xa20|                     00                        |       .        |      [2]: 0 standard_wall_indicator (valid) 0xa27-0xa28 (1)
0xa20|                        00                     |        .       |      [3]: 0 standard_wall_indicator (valid) 0xa28-0xa29 (1)
0xa20|                           01                  |         .      |      [4]: 1 standard_wall_indicator (valid) 0xa29-0xa2a (1)
0xa20|                              01               |          .     |      [5]: 1 standard_wall_indicator (valid) 0xa2a-0xa2b (1)
0xa20|                                 01            |           .    |      [6]: 1 standard_wall_indicator (valid) 0xa2b-0xa2c (1)
0xa20|                                    01         |            .   |      [7]: 1 standard_wall_indicator (valid) 0xa2c-0xa2d (1)
     |                                               |                |    ut_local_indicators[0:8]: 0xa2d-0xa35 (8)
0xa20|                                       00      |             .  |      [0]: 0 ut_local_indicator (valid) 0xa2d-0xa2e (1)
0xa20|                                          00   |              . |      [1]: 0 ut_local_indicator (valid) 0xa2e-0xa2f (1)
0xa20|                                             00|               .|      [2]: 0 ut_local_indicator (valid) 0xa2f-0xa30 (1)
0xa30|00                                             |.               |      [3]: 0 ut_local_indicator (valid) 0xa30-0xa31 (1)
0xa30|   00                                          | .              |      [4]: 0 ut_local_indicator (valid) 0xa31-0xa32 (1)
0xa30|      00                                       |  .             |      [5]: 0 ut_local_indicator (valid) 0xa32-0xa33 (1)
0xa30|         01                                    |   .            |      [6]: 1 ut_local_indicator (valid) 0xa33-0xa34 (1)
0xa30|            01                                 |    .           |      [7]: 1 ut_local_indicator (valid) 0xa34-0xa35 (1)
     |                                               |                |  footer{}: 0xa35-0xa51 (28)
0xa30|               0a                              |     .          |    nl1: 10 (valid) 0xa35-0xa36 (1)
0xa30|                  43 45 54 2d 31 43 45 53 54 2c|      CET-1CEST,|    tz_string: "CET-1CEST,M3.5.0,M10.5.0/3" 0xa36-0xa50 (26)
0xa40|4d 33 2e 35 2e 30 2c 4d 31 30 2e 35 2e 30 2f 33|M3.5.0,M10.5.0/3|
0xa50|0a|                                            |.|              |    nl2: 10 (valid) 0xa50-0xa51 (1)
