$ fq -d tzif dv Sakhalin
     |00 01 02 03 04 05 06 07 08 09 0a 0b 0c 0d 0e 0f|0123456789abcdef|.{}: Sakhalin (tzif) 0x0-0x6c6 (1734)
     |                                               |                |  v1header{}: 0x0-0x2c (44)
0x000|54 5a 69 66                                    |TZif            |    magic: 0x545a6966 (valid) 0x0-0x4 (4)
0x000|            32                                 |    2           |    ver: "2" (0x32) (valid) 0x4-0x5 (1)
0x000|               00 00 00 00 00 00 00 00 00 00 00|     ...........|    reserved: raw bits 0x5-0x14 (15)
0x010|00 00 00 00                                    |....            |
0x010|            00 00 00 00                        |    ....        |    isutcnt: 0 0x14-0x18 (4)
0x010|                        00 00 00 09            |        ....    |    isstdcnt: 9 0x18-0x1c (4)
0x010|                                    00 00 00 1b|            ....|    leapcnt: 27 0x1c-0x20 (4)
0x020|00 00 00 43                                    |...C            |    timecnt: 67 0x20-0x24 (4)
0x020|            00 00 00 09                        |    ....        |    typecnt: 9 0x24-0x28 (4)
0x020|                        00 00 00 14            |        ....    |    charcnt: 20 0x28-0x2c (4)
     |                                               |                |  v1datablock{}: 0x2c-0x2a6 (634)
     |                                               |                |    transition_times[0:67]: 0x2c-0x138 (268)
0x020|                                    86 f0 cd b8|            ....|      [0]: "1905-08-22T14:29:12Z" (-2031039048) transition_time 0x2c-0x30 (4)
0x030|d2 30 b2 f0                                    |.0..            |      [1]: "1945-08-24T15:00:00Z" (-768560400) transition_time 0x30-0x34 (4)
0x030|            15 27 37 59                        |    .'7Y        |      [2]: "1981-03-31T13:00:09Z" (354891609) transition_time 0x34-0x38 (4)
0x030|                        16 18 6b ca            |        ..k.    |      [3]: "1981-09-30T12:00:10Z" (370699210) transition_time 0x38-0x3c (4)
0x030|                                    17 08 6a da|            ..j.|      [4]: "1982-03-31T13:00:10Z" (386427610) transition_time 0x3c-0x40 (4)
0x040|17 f9 9f 4b                                    |...K            |      [5]: "1982-09-30T12:00:11Z" (402235211) transition_time 0x40-0x44 (4)
0x040|            18 e9 9e 5b                        |    ...[        |      [6]: "1983-03-31T13:00:11Z" (417963611) transition_time 0x44-0x48 (4)
0x040|                        19 da d2 cc            |        ....    |      [7]: "1983-09-30T12:00:12Z" (433771212) transition_time 0x48-0x4c (4)
0x040|                                    1a cc 23 5c|            ..#\|      [8]: "1984-03-31T13:00:12Z" (449586012) transition_time 0x4c-0x50 (4)
0x050|1b bc 30 7c                                    |..0|            |      [9]: "1984-09-29T15:00:12Z" (465318012) transition_time 0x50-0x54 (4)
0x050|            1c ac 21 7c                        |    ..!|        |      [10]: "1985-03-30T15:00:12Z" (481042812) transition_time 0x54-0x58 (4)
0x050|                        1d 9c 12 7d            |        ...}    |      [11]: "1985-09-28T15:00:13Z" (496767613) transition_time 0x58-0x5c (4)
0x050|                                    1e 8c 03 7d|            ...}|      [12]: "1986-03-29T15:00:13Z" (512492413) transition_time 0x5c-0x60 (4)
0x060|1f 7b f4 7d                                    |.{.}            |      [13]: "1986-09-27T15:00:13Z" (528217213) transition_time 0x60-0x64 (4)
0x060|            20 6b e5 7d                        |     k.}        |      [14]: "1987-03-28T15:00:13Z" (543942013) transition_time 0x64-0x68 (4)
0x060|                        21 5b d6 7d            |        ![.}    |      [15]: "1987-09-26T15:00:13Z" (559666813) transition_time 0x68-0x6c (4)
0x060|                                    22 4b c7 7e|            "K.~|      [16]: "1988-03-26T15:00:14Z" (575391614) transition_time 0x6c-0x70 (4)
0x070|23 3b b8 7e                                    |#;.~            |      [17]: "1988-09-24T15:00:14Z" (591116414) transition_time 0x70-0x74 (4)
0x070|            24 2b a9 7e                        |    $+.~        |      [18]: "1989-03-25T15:00:14Z" (606841214) transition_time 0x74-0x78 (4)
0x070|                        25 1b 9a 7e            |        %..~    |      [19]: "1989-09-23T15:00:14Z" (622566014) transition_time 0x78-0x7c (4)
0x070|                                    26 0b 8b 7f|            &...|      [20]: "1990-03-24T15:00:15Z" (638290815) transition_time 0x7c-0x80 (4)
0x080|27 04 b6 ff                                    |'...            |      [21]: "1990-09-29T15:00:15Z" (654620415) transition_time 0x80-0x84 (4)
0x080|            27 f4 a8 00                        |    '...        |      [22]: "1991-03-30T15:00:16Z" (670345216) transition_time 0x84-0x88 (4)
0x080|                        28 e4 a7 10            |        (...    |      [23]: "1991-09-28T16:00:16Z" (686073616) transition_time 0x88-0x8c (4)
0x080|                                    29 78 4f 10|            )xO.|      [24]: "1992-01-18T16:00:16Z" (695750416) transition_time 0x8c-0x90 (4)
0x090|29 d4 8a 00                                    |)...            |      [25]: "1992-03-28T15:00:16Z" (701794816) transition_time 0x90-0x94 (4)
0x090|            2a c4 7b 01                        |    *.{.        |      [26]: "1992-09-26T15:00:17Z" (717519617) transition_time 0x94-0x98 (4)
0x090|                        2b b4 6c 01            |        +.l.    |      [27]: "1993-03-27T15:00:17Z" (733244417) transition_time 0x98-0x9c (4)
0x090|                                    2c a4 5d 02|            ,.].|      [28]: "1993-09-25T15:00:18Z" (748969218) transition_time 0x9c-0xa0 (4)
0x0a0|2d 94 4e 02                                    |-.N.            |      [29]: "1994-03-26T15:00:18Z" (764694018) transition_time 0xa0-0xa4 (4)
0x0a0|            2e 84 3f 03                        |    ..?.        |      [30]: "1994-09-24T15:00:19Z" (780418819) transition_time 0xa4-0xa8 (4)
0x0a0|                        2f 74 30 03            |        /t0.    |      [31]: "1995-03-25T15:00:19Z" (796143619) transition_time 0xa8-0xac (4)
0x0a0|                                    30 64 21 03|            0d!.|      [32]: "1995-09-23T15:00:19Z" (811868419) transition_time 0xac-0xb0 (4)
0x0b0|31 5d 4c 84                                    |1]L.            |      [33]: "1996-03-30T15:00:20Z" (828198020) transition_time 0xb0-0xb4 (4)
0x0b0|            32 72 27 84                        |    2r'.        |      [34]: "1996-10-26T15:00:20Z" (846342020) transition_time 0xb4-0xb8 (4)
0x0b0|                        33 3d 2e 84            |        3=..    |      [35]: "1997-03-29T15:00:20Z" (859647620) transition_time 0xb8-0xbc (4)
0x0b0|                                    34 52 17 95|            4R..|      [36]: "1997-10-25T16:00:21Z" (877795221) transition_time 0xbc-0xc0 (4)
0x0c0|35 1d 1e 95                                    |5...            |      [37]: "1998-03-28T16:00:21Z" (891100821) transition_time 0xc0-0xc4 (4)
0x0c0|            36 31 f9 95                        |    61..        |      [38]: "1998-10-24T16:00:21Z" (909244821) transition_time 0xc4-0xc8 (4)
0x0c0|                        36 fd 00 96            |        6...    |      [39]: "1999-03-27T16:00:22Z" (922550422) transition_time 0xc8-0xcc (4)
0x0c0|                                    38 1b 16 16|            8...|      [40]: "1999-10-30T16:00:22Z" (941299222) transition_time 0xcc-0xd0 (4)
0x0d0|38 dc e2 96                                    |8...            |      [41]: "2000-03-25T16:00:22Z" (954000022) transition_time 0xd0-0xd4 (4)
0x0d0|            39 fa f8 16                        |    9...        |      [42]: "2000-10-28T16:00:22Z" (972748822) transition_time 0xd4-0xd8 (4)
0x0d0|                        3a bc c4 96            |        :...    |      [43]: "2001-03-24T16:00:22Z" (985449622) transition_time 0xd8-0xdc (4)
0x0d0|                                    3b da da 16|            ;...|      [44]: "2001-10-27T16:00:22Z" (1004198422) transition_time 0xdc-0xe0 (4)
0x0e0|3c a5 e1 16                                    |<...            |      [45]: "2002-03-30T16:00:22Z" (1017504022) transition_time 0xe0-0xe4 (4)
0x0e0|            3d ba bc 16                        |    =...        |      [46]: "2002-10-26T16:00:22Z" (1035648022) transition_time 0xe4-0xe8 (4)
0x0e0|                        3e 85 c3 16            |        >...    |      [47]: "2003-03-29T16:00:22Z" (1048953622) transition_time 0xe8-0xec (4)
0x0e0|                                    3f 9a 9e 16|            ?...|      [48]: "2003-10-25T16:00:22Z" (1067097622) transition_time 0xec-0xf0 (4)
0x0f0|40 65 a5 16                                    |@e..            |      [49]: "2004-03-27T16:00:22Z" (1080403222) transition_time 0xf0-0xf4 (4)
0x0f0|            41 83 ba 96                        |    A...        |      [50]: "2004-10-30T16:00:22Z" (1099152022) transition_time 0xf4-0xf8 (4)
0x0f0|                        42 45 87 16            |        BE..    |      [51]: "2005-03-26T16:00:22Z" (1111852822) transition_time 0xf8-0xfc (4)
0x0f0|                                    43 63 9c 96|            Cc..|      [52]: "2005-10-29T16:00:22Z" (1130601622) transition_time 0xfc-0x100 (4)
0x100|44 25 69 17                                    |D%i.            |      [53]: "2006-03-25T16:00:23Z" (1143302423) transition_time 0x100-0x104 (4)
0x100|            45 43 7e 97                        |    EC~.        |      [54]: "2006-10-28T16:00:23Z" (1162051223) transition_time 0x104-0x108 (4)
0x100|                        46 05 4b 17            |        F.K.    |      [55]: "2007-03-24T16:00:23Z" (1174752023) transition_time 0x108-0x10c (4)
0x100|                                    47 23 60 97|            G#`.|      [56]: "2007-10-27T16:00:23Z" (1193500823) transition_time 0x10c-0x110 (4)
0x110|47 ee 67 97                                    |G.g.            |      [57]: "2008-03-29T16:00:23Z" (1206806423) transition_time 0x110-0x114 (4)
0x110|            49 03 42 97                        |    I.B.        |      [58]: "2008-10-25T16:00:23Z" (1224950423) transition_time 0x114-0x118 (4)
0x110|                        49 ce 49 98            |        I.I.    |      [59]: "2009-03-28T16:00:24Z" (1238256024) transition_time 0x118-0x11c (4)
0x110|                                    4a e3 24 98|            J.$.|      [60]: "2009-10-24T16:00:24Z" (1256400024) transition_time 0x11c-0x120 (4)
0x120|4b ae 2b 98                                    |K.+.            |      [61]: "2010-03-27T16:00:24Z" (1269705624) transition_time 0x120-0x124 (4)
0x120|            4c cc 41 18                        |    L.A.        |      [62]: "2010-10-30T16:00:24Z" (1288454424) transition_time 0x124-0x128 (4)
0x120|                        4d 8e 0d 98            |        M...    |      [63]: "2011-03-26T16:00:24Z" (1301155224) transition_time 0x128-0x12c (4)
0x120|                                    54 4b bb 09|            TK..|      [64]: "2014-10-25T15:00:25Z" (1414249225) transition_time 0x12c-0x130 (4)
0x130|56 f6 b2 1a                                    |V...            |      [65]: "2016-03-26T16:00:26Z" (1459008026) transition_time 0x130-0x134 (4)
0x130|            64 9b 78 1b                        |    d.x.        |      [66]: "2023-06-28T00:00:27Z" (1687910427) transition_time 0x134-0x138 (4)
     |                                               |                |    transition_types[0:67]: 0x138-0x17b (67)
0x130|                        01                     |        .       |      [0]: 1 transition_type 0x138-0x139 (1)
0x130|                           03                  |         .      |      [1]: 3 transition_type 0x139-0x13a (1)
0x130|                              02               |          .     |      [2]: 2 transition_type 0x13a-0x13b (1)
0x130|                                 03            |           .    |      [3]: 3 transition_type 0x13b-0x13c (1)
0x130|                                    02         |            .   |      [4]: 2 transition_type 0x13c-0x13d (1)
0x130|                                       03      |             .  |      [5]: 3 transition_type 0x13d-0x13e (1)
0x130|                                          02   |              . |      [6]: 2 transition_type 0x13e-0x13f (1)
0x130|                                             03|               .|      [7]: 3 transition_type 0x13f-0x140 (1)
0x140|02                                             |.               |      [8]: 2 transition_type 0x140-0x141 (1)
0x140|   04                                          | .              |      [9]: 4 transition_type 0x141-0x142 (1)
0x140|      05                                       |  .             |      [10]: 5 transition_type 0x142-0x143 (1)
0x140|         04                                    |   .            |      [11]: 4 transition_type 0x143-0x144 (1)
0x140|            05                                 |    .           |      [12]: 5 transition_type 0x144-0x145 (1)
0x140|               04                              |     .          |      [13]: 4 transition_type 0x145-0x146 (1)
0x140|                  05                           |      .         |      [14]: 5 transition_type 0x146-0x147 (1)
0x140|                     04                        |       .        |      [15]: 4 transition_type 0x147-0x148 (1)
0x140|                        05                     |        .       |      [16]: 5 transition_type 0x148-0x149 (1)
0x140|                           04                  |         .      |      [17]: 4 transition_type 0x149-0x14a (1)
0x140|                              05               |          .     |      [18]: 5 transition_type 0x14a-0x14b (1)
0x140|                                 04            |           .    |      [19]: 4 transition_type 0x14b-0x14c (1)
0x140|                                    05         |            .   |      [20]: 5 transition_type 0x14c-0x14d (1)
0x140|                                       04      |             .  |      [21]: 4 transition_type 0x14d-0x14e (1)
0x140|                                          06   |              . |      [22]: 6 transition_type 0x14e-0x14f (1)
0x140|                                             07|               .|      [23]: 7 transition_type 0x14f-0x150 (1)
0x150|04                                             |.               |      [24]: 4 transition_type 0x150-0x151 (1)
0x150|   05                                          | .              |      [25]: 5 transition_type 0x151-0x152 (1)
0x150|      04                                       |  .             |      [26]: 4 transition_type 0x152-0x153 (1)
0x150|         05                                    |   .            |      [27]: 5 transition_type 0x153-0x154 (1)
0x150|            04                                 |    .           |      [28]: 4 transition_type 0x154-0x155 (1)
0x150|               05                              |     .          |      [29]: 5 transition_type 0x155-0x156 (1)
0x150|                  04                           |      .         |      [30]: 4 transition_type 0x156-0x157 (1)
0x150|                     05                        |       .        |      [31]: 5 transition_type 0x157-0x158 (1)
0x150|                        04                     |        .       |      [32]: 4 transition_type 0x158-0x159 (1)
0x150|                           05                  |         .      |      [33]: 5 transition_type 0x159-0x15a (1)
0x150|                              04               |          .     |      [34]: 4 transition_type 0x15a-0x15b (1)
0x150|                                 06            |           .    |      [35]: 6 transition_type 0x15b-0x15c (1)
0x150|                                    07         |            .   |      [36]: 7 transition_type 0x15c-0x15d (1)
0x150|                                       06      |             .  |      [37]: 6 transition_type 0x15d-0x15e (1)
0x150|                                          07   |              . |      [38]: 7 transition_type 0x15e-0x15f (1)
0x150|                                             06|               .|      [39]: 6 transition_type 0x15f-0x160 (1)
0x160|07                                             |.               |      [40]: 7 transition_type 0x160-0x161 (1)
0x160|   06                                          | .              |      [41]: 6 transition_type 0x161-0x162 (1)
0x160|      07                                       |  .             |      [42]: 7 transition_type 0x162-0x163 (1)
0x160|         06                                    |   .            |      [43]: 6 transition_type 0x163-0x164 (1)
0x160|            07                                 |    .           |      [44]: 7 transition_type 0x164-0x165 (1)
0x160|               06                              |     .          |      [45]: 6 transition_type 0x165-0x166 (1)
0x160|                  07                           |      .         |      [46]: 7 transition_type 0x166-0x167 (1)
0x160|                     06                        |       .        |      [47]: 6 transition_type 0x167-0x168 (1)
0x160|                        07                     |        .       |      [48]: 7 transition_type 0x168-0x169 (1)
0x160|                           06                  |         .      |      [49]: 6 transition_type 0x169-0x16a (1)
0x160|                              07               |          .     |      [50]: 7 transition_type 0x16a-0x16b (1)
0x160|                                 06            |           .    |      [51]: 6 transition_type 0x16b-0x16c (1)
0x160|                                    07         |            .   |      [52]: 7 transition_type 0x16c-0x16d (1)
0x160|                                       06      |             .  |      [53]: 6 transition_type 0x16d-0x16e (1)
0x160|                                          07   |              . |      [54]: 7 transition_type 0x16e-0x16f (1)
0x160|                                             06|               .|      [55]: 6 transition_type 0x16f-0x170 (1)
0x170|07                                             |.               |      [56]: 7 transition_type 0x170-0x171 (1)
0x170|   06                                          | .              |      [57]: 6 transition_type 0x171-0x172 (1)
0x170|      07                                       |  .             |      [58]: 7 transition_type 0x172-0x173 (1)
0x170|         06                                    |   .            |      [59]: 6 transition_type 0x173-0x174 (1)
0x170|            07                                 |    .           |      [60]: 7 transition_type 0x174-0x175 (1)
0x170|               06                              |     .          |      [61]: 6 transition_type 0x175-0x176 (1)
0x170|                  07                           |      .         |      [62]: 7 transition_type 0x176-0x177 (1)
0x170|                     04                        |       .        |      [63]: 4 transition_type 0x177-0x178 (1)
0x170|                        07                     |        .       |      [64]: 7 transition_type 0x178-0x179 (1)
0x170|                           04                  |         .      |      [65]: 4 transition_type 0x179-0x17a (1)
0x170|                              04               |          .     |      [66]: 4 transition_type 0x17a-0x17b (1)
     |                                               |                |    local_time_type_records[0:9]: 0x17b-0x1b1 (54)
     |                                               |                |      [0]{}: local_time_type 0x17b-0x181 (6)
0x170|                                 00 00 85 c8   |           .... |        utoff: 34248 (valid) 0x17b-0x17f (4)
0x170|                                             00|               .|        dst: 0 (valid) 0x17f-0x180 (1)
0x180|00                                             |.               |        idx: 0 (valid) 0x180-0x181 (1)
     |                                               |                |      [1]{}: local_time_type 0x181-0x187 (6)
0x180|   00 00 7e 90                                 | ..~.           |        utoff: 32400 (valid) 0x181-0x185 (4)
0x180|               00                              |     .          |        dst: 0 (valid) 0x185-0x186 (1)
0x180|                  04                           |      .         |        idx: 4 (valid) 0x186-0x187 (1)
     |                                               |                |      [2]{}: local_time_type 0x187-0x18d (6)
0x180|                     00 00 a8 c0               |       ....     |        utoff: 43200 (valid) 0x187-0x18b (4)
0x180|                                 01            |           .    |        dst: 1 (valid) 0x18b-0x18c (1)
0x180|                                    08         |            .   |        idx: 8 (valid) 0x18c-0x18d (1)
     |                                               |                |      [3]{}: local_time_type 0x18d-0x193 (6)
0x180|                                       00 00 9a|             ...|        utoff: 39600 (valid) 0x18d-0x191 (4)
0x190|b0                                             |.               |
0x190|   00                                          | .              |        dst: 0 (valid) 0x191-0x192 (1)
0x190|      0c                                       |  .             |        idx: 12 (valid) 0x192-0x193 (1)
     |                                               |                |      [4]{}: local_time_type 0x193-0x199 (6)
0x190|         00 00 9a b0                           |   ....         |        utoff: 39600 (valid) 0x193-0x197 (4)
0x190|                     00                        |       .        |        dst: 0 (valid) 0x197-0x198 (1)
0x190|                        0c                     |        .       |        idx: 12 (valid) 0x198-0x199 (1)
     |                                               |                |      [5]{}: local_time_type 0x199-0x19f (6)
0x190|                           00 00 a8 c0         |         ....   |        utoff: 43200 (valid) 0x199-0x19d (4)
0x190|                                       01      |             .  |        dst: 1 (valid) 0x19d-0x19e (1)
0x190|                                          08   |              . |        idx: 8 (valid) 0x19e-0x19f (1)
     |                                               |                |      [6]{}: local_time_type 0x19f-0x1a5 (6)
0x190|                                             00|               .|        utoff: 39600 (valid) 0x19f-0x1a3 (4)
0x1a0|00 9a b0                                       |...             |
0x1a0|         01                                    |   .            |        dst: 1 (valid) 0x1a3-0x1a4 (1)
0x1a0|            0c                                 |    .           |        idx: 12 (valid) 0x1a4-0x1a5 (1)
     |                                               |                |      [7]{}: local_time_type 0x1a5-0x1ab (6)
0x1a0|               00 00 8c a0                     |     ....       |        utoff: 36000 (valid) 0x1a5-0x1a9 (4)
0x1a0|                           00                  |         .      |        dst: 0 (valid) 0x1a9-0x1aa (1)
0x1a0|                              10               |          .     |        idx: 16 (valid) 0x1aa-0x1ab (1)
     |                                               |                |      [8]{}: local_time_type 0x1ab-0x1b1 (6)
0x1a0|                                 00 00 9a b0   |           .... |        utoff: 39600 (valid) 0x1ab-0x1af (4)
0x1a0|                                             00|               .|        dst: 0 (valid) 0x1af-0x1b0 (1)
0x1b0|0c                                             |.               |        idx: 12 (valid) 0x1b0-0x1b1 (1)
     |                                               |                |    time_zone_designations[0:5]: 0x1b1-0x1c5 (20)
0x1b0|   4c 4d 54 00                                 | LMT.           |      [0]: "LMT" time_zone_designation 0x1b1-0x1b5 (4)
0x1b0|               2b 30 39 00                     |     +09.       |      [1]: "+09" time_zone_designation 0x1b5-0x1b9 (4)
0x1b0|                           2b 31 32 00         |         +12.   |      [2]: "+12" time_zone_designation 0x1b9-0x1bd (4)
0x1b0|                                       2b 31 31|             +11|      [3]: "+11" time_zone_designation 0x1bd-0x1c1 (4)
0x1c0|00                                             |.               |
0x1c0|   2b 31 30 00                                 | +10.           |      [4]: "+10" time_zone_designation 0x1c1-0x1c5 (4)
     |                                               |                |    leap_second_records[0:27]: 0x1c5-0x29d (216)
     |                                               |                |      [0]{}: leap_second_record 0x1c5-0x1cd (8)
0x1c0|               04 b2 58 00                     |     ..X.       |        occur: "1972-07-01T00:00:00Z" (78796800) 0x1c5-0x1c9 (4)
0x1c0|                           00 00 00 01         |         ....   |        corr: 1 0x1c9-0x1cd (4)
     |                                               |                |      [1]{}: leap_second_record 0x1cd-0x1d5 (8)
0x1c0|                                       05 a4 ec|             ...|        occur: "1973-01-01T00:00:01Z" (94694401) 0x1cd-0x1d1 (4)
0x1d0|01                                             |.               |
0x1d0|   00 00 00 02                                 | ....           |        corr: 2 0x1d1-0x1d5 (4)
     |                                               |                |      [2]{}: leap_second_record 0x1d5-0x1dd (8)
0x1d0|               07 86 1f 82                     |     ....       |        occur: "1974-01-01T00:00:02Z" (126230402) 0x1d5-0x1d9 (4)
0x1d0|                           00 00 00 03         |         ....   |        corr: 3 0x1d9-0x1dd (4)
     |                                               |                |      [3]{}: leap_second_record 0x1dd-0x1e5 (8)
0x1d0|                                       09 67 53|             .gS|        occur: "1975-01-01T00:00:03Z" (157766403) 0x1dd-0x1e1 (4)
0x1e0|03                                             |.               |
0x1e0|   00 00 00 04                                 | ....           |        corr: 4 0x1e1-0x1e5 (4)
     |                                               |                |      [4]{}: leap_second_record 0x1e5-0x1ed (8)
0x1e0|               0b 48 86 84                     |     .H..       |        occur: "1976-01-01T00:00:04Z" (189302404) 0x1e5-0x1e9 (4)
0x1e0|                           00 00 00 05         |         ....   |        corr: 5 0x1e9-0x1ed (4)
     |                                               |                |      [5]{}: leap_second_record 0x1ed-0x1f5 (8)
0x1e0|                                       0d 2b 0b|             .+.|        occur: "1977-01-01T00:00:05Z" (220924805) 0x1ed-0x1f1 (4)
0x1f0|85                                             |.               |
0x1f0|   00 00 00 06                                 | ....           |        corr: 6 0x1f1-0x1f5 (4)
     |                                               |                |      [6]{}: leap_second_record 0x1f5-0x1fd (8)
0x1f0|               0f 0c 3f 06                     |     ..?.       |        occur: "1978-01-01T00:00:06Z" (252460806) 0x1f5-0x1f9 (4)
0x1f0|                           00 00 00 07         |         ....   |        corr: 7 0x1f9-0x1fd (4)
     |                                               |                |      [7]{}: leap_second_record 0x1fd-0x205 (8)
0x1f0|                                       10 ed 72|             ..r|        occur: "1979-01-01T00:00:07Z" (283996807) 0x1fd-0x201 (4)
0x200|87                                             |.               |
0x200|   00 00 00 08                                 | ....           |        corr: 8 0x201-0x205 (4)
     |                                               |                |      [8]{}: leap_second_record 0x205-0x20d (8)
0x200|               12 ce a6 08                     |     ....       |        occur: "1980-01-01T00:00:08Z" (315532808) 0x205-0x209 (4)
0x200|                           00 00 00 09         |         ....   |        corr: 9 0x209-0x20d (4)
     |                                               |                |      [9]{}: leap_second_record 0x20d-0x215 (8)
0x200|                                       15 9f ca|             ...|        occur: "1981-07-01T00:00:09Z" (362793609) 0x20d-0x211 (4)
0x210|89                                             |.               |
0x210|   00 00 00 0a                                 | ....           |        corr: 10 0x211-0x215 (4)
     |                                               |                |      [10]{}: leap_second_record 0x215-0x21d (8)
0x210|               17 80 fe 0a                     |     ....       |        occur: "1982-07-01T00:00:10Z" (394329610) 0x215-0x219 (4)
0x210|                           00 00 00 0b         |         ....   |        corr: 11 0x219-0x21d (4)
     |                                               |                |      [11]{}: leap_second_record 0x21d-0x225 (8)
0x210|                                       19 62 31|             .b1|        occur: "1983-07-01T00:00:11Z" (425865611) 0x21d-0x221 (4)
0x220|8b                                             |.               |
0x220|   00 00 00 0c                                 | ....           |        corr: 12 0x221-0x225 (4)
     |                                               |                |      [12]{}: leap_second_record 0x225-0x22d (8)
0x220|               1d 25 ea 0c                     |     .%..       |        occur: "1985-07-01T00:00:12Z" (489024012) 0x225-0x229 (4)
0x220|                           00 00 00 0d         |         ....   |        corr: 13 0x229-0x22d (4)
     |                                               |                |      [13]{}: leap_second_record 0x22d-0x235 (8)
0x220|                                       21 da e5|             !..|        occur: "1988-01-01T00:00:13Z" (567993613) 0x22d-0x231 (4)
0x230|0d                                             |.               |
0x230|   00 00 00 0e                                 | ....           |        corr: 14 0x231-0x235 (4)
     |                                               |                |      [14]{}: leap_second_record 0x235-0x23d (8)
0x230|               25 9e 9d 8e                     |     %...       |        occur: "1990-01-01T00:00:14Z" (631152014) 0x235-0x239 (4)
0x230|                           00 00 00 0f         |         ....   |        corr: 15 0x239-0x23d (4)
     |                                               |                |      [15]{}: leap_second_record 0x23d-0x245 (8)
0x230|                                       27 7f d1|             '..|        occur: "1991-01-01T00:00:15Z" (662688015) 0x23d-0x241 (4)
0x240|0f                                             |.               |
0x240|   00 00 00 10                                 | ....           |        corr: 16 0x241-0x245 (4)
     |                                               |                |      [16]{}: leap_second_record 0x245-0x24d (8)
0x240|               2a 50 f5 90                     |     *P..       |        occur: "1992-07-01T00:00:16Z" (709948816) 0x245-0x249 (4)
0x240|                           00 00 00 11         |         ....   |        corr: 17 0x249-0x24d (4)
     |                                               |                |      [17]{}: leap_second_record 0x24d-0x255 (8)
0x240|                                       2c 32 29|             ,2)|        occur: "1993-07-01T00:00:17Z" (741484817) 0x24d-0x251 (4)
0x250|11                                             |.               |
0x250|   00 00 00 12                                 | ....           |        corr: 18 0x251-0x255 (4)
     |                                               |                |      [18]{}: leap_second_record 0x255-0x25d (8)
0x250|               2e 13 5c 92                     |     ..\.       |        occur: "1994-07-01T00:00:18Z" (773020818) 0x255-0x259 (4)
0x250|                           00 00 00 13         |         ....   |        corr: 19 0x259-0x25d (4)
     |                                               |                |      [19]{}: leap_second_record 0x25d-0x265 (8)
0x250|                                       30 e7 24|             0.$|        occur: "1996-01-01T00:00:19Z" (820454419) 0x25d-0x261 (4)
0x260|13                                             |.               |
0x260|   00 00 00 14                                 | ....           |        corr: 20 0x261-0x265 (4)
     |                                               |                |      [20]{}: leap_second_record 0x265-0x26d (8)
0x260|               33 b8 48 94                     |     3.H.       |        occur: "1997-07-01T00:00:20Z" (867715220) 0x265-0x269 (4)
0x260|                           00 00 00 15         |         ....   |        corr: 21 0x269-0x26d (4)
     |                                               |                |      [21]{}: leap_second_record 0x26d-0x275 (8)
0x260|                                       36 8c 10|             6..|        occur: "1999-01-01T00:00:21Z" (915148821) 0x26d-0x271 (4)
0x270|15                                             |.               |
0x270|   00 00 00 16                                 | ....           |        corr: 22 0x271-0x275 (4)
     |                                               |                |      [22]{}: leap_second_record 0x275-0x27d (8)
0x270|               43 b7 1b 96                     |     C...       |        occur: "2006-01-01T00:00:22Z" (1136073622) 0x275-0x279 (4)
0x270|                           00 00 00 17         |         ....   |        corr: 23 0x279-0x27d (4)
     |                                               |                |      [23]{}: leap_second_record 0x27d-0x285 (8)
0x270|                                       49 5c 07|             I\.|        occur: "2009-01-01T00:00:23Z" (1230768023) 0x27d-0x281 (4)
0x280|97                                             |.               |
0x280|   00 00 00 18                                 | ....           |        corr: 24 0x281-0x285 (4)
     |                                               |                |      [24]{}: leap_second_record 0x285-0x28d (8)
0x280|               4f ef 93 18                     |     O...       |        occur: "2012-07-01T00:00:24Z" (1341100824) 0x285-0x289 (4)
0x280|                           00 00 00 19         |         ....   |        corr: 25 0x289-0x28d (4)
     |                                               |                |      [25]{}: leap_second_record 0x28d-0x295 (8)
0x280|                                       55 93 2d|             U.-|        occur: "2015-07-01T00:00:25Z" (1435708825) 0x28d-0x291 (4)
0x290|99                                             |.               |
0x290|   00 00 00 1a                                 | ....           |        corr: 26 0x291-0x295 (4)
     |                                               |                |      [26]{}: leap_second_record 0x295-0x29d (8)
0x290|               58 68 46 9a                     |     XhF.       |        occur: "2017-01-01T00:00:26Z" (1483228826) 0x295-0x299 (4)
0x290|                           00 00 00 1b         |         ....   |        corr: 27 0x299-0x29d (4)
     |                                               |                |    standard_wall_indicators[0:9]: 0x29d-0x2a6 (9)
0x290|                                       00      |             .  |      [0]: 0 standard_wall_indicator (valid) 0x29d-0x29e (1)
0x290|                                          00   |              . |      [1]: 0 standard_wall_indicator (valid) 0x29e-0x29f (1)
0x290|                                             00|               .|      [2]: 0 standard_wall_indicator (valid) 0x29f-0x2a0 (1)
0x2a0|00                                             |.               |      [3]: 0 standard_wall_indicator (valid) 0x2a0-0x2a1 (1)
0x2a0|   01                                          | .              |      [4]: 1 standard_wall_indicator (valid) 0x2a1-0x2a2 (1)
0x2a0|      01                                       |  .             |      [5]: 1 standard_wall_indicator (valid) 0x2a2-0x2a3 (1)
0x2a0|         01                                    |   .            |      [6]: 1 standard_wall_indicator (valid) 0x2a3-0x2a4 (1)
0x2a0|            01                                 |    .           |      [7]: 1 standard_wall_indicator (valid) 0x2a4-0x2a5 (1)
0x2a0|               01                              |     .          |      [8]: 1 standard_wall_indicator (valid) 0x2a5-0x2a6 (1)
     |                                               |                |    ut_local_indicators[0:0]: 0x2a6-0x2a6 (0)
     |                                               |                |  v2plusheader{}: 0x2a6-0x2d2 (44)
0x2a0|                  54 5a 69 66                  |      TZif      |    magic: 0x545a6966 (valid) 0x2a6-0x2aa (4)
0x2a0|                              32               |          2     |    ver: "2" (0x32) (valid) 0x2aa-0x2ab (1)
0x2a0|                                 00 00 00 00 00|           .....|    reserved: raw bits 0x2ab-0x2ba (15)
0x2b0|00 00 00 00 00 00 00 00 00 00                  |..........      |
0x2b0|                              00 00 00 00      |          ....  |    isutcnt: 0 0x2ba-0x2be (4)
0x2b0|                                          00 00|              ..|    isstdcnt: 9 0x2be-0x2c2 (4)
0x2c0|00 09                                          |..              |
0x2c0|      00 00 00 1b                              |  ....          |    leapcnt: 27 0x2c2-0x2c6 (4)
0x2c0|                  00 00 00 43                  |      ...C      |    timecnt: 67 0x2c6-0x2ca (4)
0x2c0|                              00 00 00 09      |          ....  |    typecnt: 9 0x2ca-0x2ce (4)
0x2c0|                                          00 00|              ..|    charcnt: 20 0x2ce-0x2d2 (4)
0x2d0|00 14                                          |..              |
     |                                               |                |  v2plusdatablock{}: 0x2d2-0x6c4 (1010)
     |                                               |                |    transition_times[0:67]: 0x2d2-0x4ea (536)
0x2d0|      ff ff ff ff 86 f0 cd b8                  |  ........      |      [0]: "1905-08-22T14:29:12Z" (-2031039048) transition_time 0x2d2-0x2da (8)
0x2d0|                              ff ff ff ff d2 30|          .....0|      [1]: "1945-08-24T15:00:00Z" (-768560400) transition_time 0x2da-0x2e2 (8)
0x2e0|b2 f0                                          |..              |
0x2e0|      00 00 00 00 15 27 37 59                  |  .....'7Y      |      [2]: "1981-03-31T13:00:09Z" (354891609) transition_time 0x2e2-0x2ea (8)
0x2e0|                              00 00 00 00 16 18|          ......|      [3]: "1981-09-30T12:00:10Z" (370699210) transition_time 0x2ea-0x2f2 (8)
0x2f0|6b ca                                          |k.              |
0x2f0|      00 00 00 00 17 08 6a da                  |  ......j.      |      [4]: "1982-03-31T13:00:10Z" (386427610) transition_time 0x2f2-0x2fa (8)
0x2f0|                              00 00 00 00 17 f9|          ......|      [5]: "1982-09-30T12:00:11Z" (402235211) transition_time 0x2fa-0x302 (8)
0x300|9f 4b                                          |.K              |
0x300|      00 00 00 00 18 e9 9e 5b                  |  .......[      |      [6]: "1983-03-31T13:00:11Z" (417963611) transition_time 0x302-0x30a (8)
0x300|                              00 00 00 00 19 da|          ......|      [7]: "1983-09-30T12:00:12Z" (433771212) transition_time 0x30a-0x312 (8)
0x310|d2 cc                                          |..              |
0x310|      00 00 00 00 1a cc 23 5c                  |  ......#\      |      [8]: "1984-03-31T13:00:12Z" (449586012) transition_time 0x312-0x31a (8)
0x310|                              00 00 00 00 1b bc|          ......|      [9]: "1984-09-29T15:00:12Z" (465318012) transition_time 0x31a-0x322 (8)
0x320|30 7c                                          |0|              |
0x320|      00 00 00 00 1c ac 21 7c                  |  ......!|      |      [10]: "1985-03-30T15:00:12Z" (481042812) transition_time 0x322-0x32a (8)
0x320|                              00 00 00 00 1d 9c|          ......|      [11]: "1985-09-28T15:00:13Z" (496767613) transition_time 0x32a-0x332 (8)
0x330|12 7d                                          |.}              |
0x330|      00 00 00 00 1e 8c 03 7d                  |  .......}      |      [12]: "1986-03-29T15:00:13Z" (512492413) transition_time 0x332-0x33a (8)
0x330|                              00 00 00 00 1f 7b|          .....{|      [13]: "1986-09-27T15:00:13Z" (528217213) transition_time 0x33a-0x342 (8)
0x340|f4 7d                                          |.}              |
0x340|      00 00 00 00 20 6b e5 7d                  |  .... k.}      |      [14]: "1987-03-28T15:00:13Z" (543942013) transition_time 0x342-0x34a (8)
0x340|                              00 00 00 00 21 5b|          ....![|      [15]: "1987-09-26T15:00:13Z" (559666813) transition_time 0x34a-0x352 (8)
0x350|d6 7d                                          |.}              |
0x350|      00 00 00 00 22 4b c7 7e                  |  ...."K.~      |      [16]: "1988-03-26T15:00:14Z" (575391614) transition_time 0x352-0x35a (8)
0x350|                              00 00 00 00 23 3b|          ....#;|      [17]: "1988-09-24T15:00:14Z" (591116414) transition_time 0x35a-0x362 (8)
0x360|b8 7e                                          |.~              |
0x360|      00 00 00 00 24 2b a9 7e                  |  ....$+.~      |      [18]: "1989-03-25T15:00:14Z" (606841214) transition_time 0x362-0x36a (8)
0x360|                              00 00 00 00 25 1b|          ....%.|      [19]: "1989-09-23T15:00:14Z" (622566014) transition_time 0x36a-0x372 (8)
0x370|9a 7e                                          |.~              |
0x370|      00 00 00 00 26 0b 8b 7f                  |  ....&...      |      [20]: "1990-03-24T15:00:15Z" (638290815) transition_time 0x372-0x37a (8)
0x370|                              00 00 00 00 27 04|          ....'.|      [21]: "1990-09-29T15:00:15Z" (654620415) transition_time 0x37a-0x382 (8)
0x380|b6 ff                                          |..              |
0x380|      00 00 00 00 27 f4 a8 00                  |  ....'...      |      [22]: "1991-03-30T15:00:16Z" (670345216) transition_time 0x382-0x38a (8)
0x380|                              00 00 00 00 28 e4|          ....(.|      [23]: "1991-09-28T16:00:16Z" (686073616) transition_time 0x38a-0x392 (8)
0x390|a7 10                                          |..              |
0x390|      00 00 00 00 29 78 4f 10                  |  ....)xO.      |      [24]: "1992-01-18T16:00:16Z" (695750416) transition_time 0x392-0x39a (8)
0x390|                              00 00 00 00 29 d4|          ....).|      [25]: "1992-03-28T15:00:16Z" (701794816) transition_time 0x39a-0x3a2 (8)
0x3a0|8a 00                                          |..              |
0x3a0|      00 00 00 00 2a c4 7b 01                  |  ....*.{.      |      [26]: "1992-09-26T15:00:17Z" (717519617) transition_time 0x3a2-0x3aa (8)
0x3a0|                              00 00 00 00 2b b4|          ....+.|      [27]: "1993-03-27T15:00:17Z" (733244417) transition_time 0x3aa-0x3b2 (8)
0x3b0|6c 01                                          |l.              |
0x3b0|      00 00 00 00 2c a4 5d 02                  |  ....,.].      |      [28]: "1993-09-25T15:00:18Z" (748969218) transition_time 0x3b2-0x3ba (8)
0x3b0|                              00 00 00 00 2d 94|          ....-.|      [29]: "1994-03-26T15:00:18Z" (764694018) transition_time 0x3ba-0x3c2 (8)
0x3c0|4e 02                                          |N.              |
0x3c0|      00 00 00 00 2e 84 3f 03                  |  ......?.      |      [30]: "1994-09-24T15:00:19Z" (780418819) transition_time 0x3c2-0x3ca (8)
0x3c0|                              00 00 00 00 2f 74|          ..../t|      [31]: "1995-03-25T15:00:19Z" (796143619) transition_time 0x3ca-0x3d2 (8)
0x3d0|30 03                                          |0.              |
0x3d0|      00 00 00 00 30 64 21 03                  |  ....0d!.      |      [32]: "1995-09-23T15:00:19Z" (811868419) transition_time 0x3d2-0x3da (8)
0x3d0|                              00 00 00 00 31 5d|          ....1]|      [33]: "1996-03-30T15:00:20Z" (828198020) transition_time 0x3da-0x3e2 (8)
0x3e0|4c 84                                          |L.              |
0x3e0|      00 00 00 00 32 72 27 84                  |  ....2r'.      |      [34]: "1996-10-26T15:00:20Z" (846342020) transition_time 0x3e2-0x3ea (8)
0x3e0|                              00 00 00 00 33 3d|          ....3=|      [35]: "1997-03-29T15:00:20Z" (859647620) transition_time 0x3ea-0x3f2 (8)
0x3f0|2e 84                                          |..              |
0x3f0|      00 00 00 00 34 52 17 95                  |  ....4R..      |      [36]: "1997-10-25T16:00:21Z" (877795221) transition_time 0x3f2-0x3fa (8)
0x3f0|                              00 00 00 00 35 1d|          ....5.|      [37]: "1998-03-28T16:00:21Z" (891100821) transition_time 0x3fa-0x402 (8)
0x400|1e 95                                          |..              |
0x400|      00 00 00 00 36 31 f9 95                  |  ....61..      |      [38]: "1998-10-24T16:00:21Z" (909244821) transition_time 0x402-0x40a (8)
0x400|                              00 00 00 00 36 fd|          ....6.|      [39]: "1999-03-27T16:00:22Z" (922550422) transition_time 0x40a-0x412 (8)
0x410|00 96                                          |..              |
0x410|      00 00 00 00 38 1b 16 16                  |  ....8...      |      [40]: "1999-10-30T16:00:22Z" (941299222) transition_time 0x412-0x41a (8)
0x410|                              00 00 00 00 38 dc|          ....8.|      [41]: "2000-03-25T16:00:22Z" (954000022) transition_time 0x41a-0x422 (8)
0x420|e2 96                                          |..              |
0x420|      00 00 00 00 39 fa f8 16                  |  ....9...      |      [42]: "2000-10-28T16:00:22Z" (972748822) transition_time 0x422-0x42a (8)
0x420|                              00 00 00 00 3a bc|          ....:.|      [43]: "2001-03-24T16:00:22Z" (985449622) transition_time 0x42a-0x432 (8)
0x430|c4 96                                          |..              |
0x430|      00 00 00 00 3b da da 16                  |  ....;...      |      [44]: "2001-10-27T16:00:22Z" (1004198422) transition_time 0x432-0x43a (8)
0x430|                              00 00 00 00 3c a5|          ....<.|      [45]: "2002-03-30T16:00:22Z" (1017504022) transition_time 0x43a-0x442 (8)
0x440|e1 16                                          |..              |
0x440|      00 00 00 00 3d ba bc 16                  |  ....=...      |      [46]: "2002-10-26T16:00:22Z" (1035648022) transition_time 0x442-0x44a (8)
0x440|                              00 00 00 00 3e 85|          ....>.|      [47]: "2003-03-29T16:00:22Z" (1048953622) transition_time 0x44a-0x452 (8)
0x450|c3 16                                          |..              |
0x450|      00 00 00 00 3f 9a 9e 16                  |  ....?...      |      [48]: "2003-10-25T16:00:22Z" (1067097622) transition_time 0x452-0x45a (8)
0x450|                              00 00 00 00 40 65|          ....@e|      [49]: "2004-03-27T16:00:22Z" (1080403222) transition_time 0x45a-0x462 (8)
0x460|a5 16                                          |..              |
0x460|      00 00 00 00 41 83 ba 96                  |  ....A...      |      [50]: "2004-10-30T16:00:22Z" (1099152022) transition_time 0x462-0x46a (8)
0x460|                              00 00 00 00 42 45|          ....BE|      [51]: "2005-03-26T16:00:22Z" (1111852822) transition_time 0x46a-0x472 (8)
0x470|87 16                                          |..              |
0x470|      00 00 00 00 43 63 9c 96                  |  ....Cc..      |      [52]: "2005-10-29T16:00:22Z" (1130601622) transition_time 0x472-0x47a (8)
0x470|                              00 00 00 00 44 25|          ....D%|      [53]: "2006-03-25T16:00:23Z" (1143302423) transition_time 0x47a-0x482 (8)
0x480|69 17                                          |i.              |
0x480|      00 00 00 00 45 43 7e 97                  |  ....EC~.      |      [54]: "2006-10-28T16:00:23Z" (1162051223) transition_time 0x482-0x48a (8)
0x480|                              00 00 00 00 46 05|          ....F.|      [55]: "2007-03-24T16:00:23Z" (1174752023) transition_time 0x48a-0x492 (8)
0x490|4b 17                                          |K.              |
0x490|      00 00 00 00 47 23 60 97                  |  ....G#`.      |      [56]: "2007-10-27T16:00:23Z" (1193500823) transition_time 0x492-0x49a (8)
0x490|                              00 00 00 00 47 ee|          ....G.|      [57]: "2008-03-29T16:00:23Z" (1206806423) transition_time 0x49a-0x4a2 (8)
0x4a0|67 97                                          |g.              |
0x4a0|      00 00 00 00 49 03 42 97                  |  ....I.B.      |      [58]: "2008-10-25T16:00:23Z" (1224950423) transition_time 0x4a2-0x4aa (8)
0x4a0|                              00 00 00 00 49 ce|          ....I.|      [59]: "2009-03-28T16:00:24Z" (1238256024) transition_time 0x4aa-0x4b2 (8)
0x4b0|49 98                                          |I.              |
0x4b0|      00 00 00 00 4a e3 24 98                  |  ....J.$.      |      [60]: "2009-10-24T16:00:24Z" (1256400024) transition_time 0x4b2-0x4ba (8)
0x4b0|                              00 00 00 00 4b ae|          ....K.|      [61]: "2010-03-27T16:00:24Z" (1269705624) transition_time 0x4ba-0x4c2 (8)
0x4c0|2b 98                                          |+.              |
0x4c0|      00 00 00 00 4c cc 41 18                  |  ....L.A.      |      [62]: "2010-10-30T16:00:24Z" (1288454424) transition_time 0x4c2-0x4ca (8)
0x4c0|                              00 00 00 00 4d 8e|          ....M.|      [63]: "2011-03-26T16:00:24Z" (1301155224) transition_time 0x4ca-0x4d2 (8)
0x4d0|0d 98                                          |..              |
0x4d0|      00 00 00 00 54 4b bb 09                  |  ....TK..      |      [64]: "2014-10-25T15:00:25Z" (1414249225) transition_time 0x4d2-0x4da (8)
0x4d0|                              00 00 00 00 56 f6|          ....V.|      [65]: "2016-03-26T16:00:26Z" (1459008026) transition_time 0x4da-0x4e2 (8)
0x4e0|b2 1a                                          |..              |
0x4e0|      00 00 00 00 64 9b 78 1b                  |  ....d.x.      |      [66]: "2023-06-28T00:00:27Z" (1687910427) transition_time 0x4e2-0x4ea (8)
     |                                               |                |    transition_types[0:67]: 0x4ea-0x52d (67)
0x4e0|                              01               |          .     |      [0]: 1 transition_type 0x4ea-0x4eb (1)
0x4e0|                                 03            |           .    |      [1]: 3 transition_type 0x4eb-0x4ec (1)
0x4e0|                                    02         |            .   |      [2]: 2 transition_type 0x4ec-0x4ed (1)
0x4e0|                                       03      |             .  |      [3]: 3 transition_type 0x4ed-0x4ee (1)
0x4e0|                                          02   |              . |      [4]: 2 transition_type 0x4ee-0x4ef (1)
0x4e0|                                             03|               .|      [5]: 3 transition_type 0x4ef-0x4f0 (1)
0x4f0|02                                             |.               |      [6]: 2 transition_type 0x4f0-0x4f1 (1)
0x4f0|   03                                          | .              |      [7]: 3 transition_type 0x4f1-0x4f2 (1)
0x4f0|      02                                       |  .             |      [8]: 2 transition_type 0x4f2-0x4f3 (1)
0x4f0|         04                                    |   .            |      [9]: 4 transition_type 0x4f3-0x4f4 (1)
0x4f0|            05                                 |    .           |      [10]: 5 transition_type 0x4f4-0x4f5 (1)
0x4f0|               04                              |     .          |      [11]: 4 transition_type 0x4f5-0x4f6 (1)
0x4f0|                  05                           |      .         |      [12]: 5 transition_type 0x4f6-0x4f7 (1)
0x4f0|                     04                        |       .        |      [13]: 4 transition_type 0x4f7-0x4f8 (1)
0x4f0|                        05                     |        .       |      [14]: 5 transition_type 0x4f8-0x4f9 (1)
0x4f0|                           04                  |         .      |      [15]: 4 transition_type 0x4f9-0x4fa (1)
0x4f0|                              05               |          .     |      [16]: 5 transition_type 0x4fa-0x4fb (1)
0x4f0|                                 04            |           .    |      [17]: 4 transition_type 0x4fb-0x4fc (1)
0x4f0|                                    05         |            .   |      [18]: 5 transition_type 0x4fc-0x4fd (1)
0x4f0|                                       04      |             .  |      [19]: 4 transition_type 0x4fd-0x4fe (1)
0x4f0|                                          05   |              . |      [20]: 5 transition_type 0x4fe-0x4ff (1)
0x4f0|                                             04|               .|      [21]: 4 transition_type 0x4ff-0x500 (1)
0x500|06                                             |.               |      [22]: 6 transition_type 0x500-0x501 (1)
0x500|   07                                          | .              |      [23]: 7 transition_type 0x501-0x502 (1)
0x500|      04                                       |  .             |      [24]: 4 transition_type 0x502-0x503 (1)
0x500|         05                                    |   .            |      [25]: 5 transition_type 0x503-0x504 (1)
0x500|            04                                 |    .           |      [26]: 4 transition_type 0x504-0x505 (1)
0x500|               05                              |     .          |      [27]: 5 transition_type 0x505-0x506 (1)
0x500|                  04                           |      .         |      [28]: 4 transition_type 0x506-0x507 (1)
0x500|                     05                        |       .        |      [29]: 5 transition_type 0x507-0x508 (1)
0x500|                        04                     |        .       |      [30]: 4 transition_type 0x508-0x509 (1)
0x500|                           05                  |         .      |      [31]: 5 transition_type 0x509-0x50a (1)
0x500|                              04               |          .     |      [32]: 4 transition_type 0x50a-0x50b (1)
0x500|                                 05            |           .    |      [33]: 5 transition_type 0x50b-0x50c (1)
0x500|                                    04         |            .   |      [34]: 4 transition_type 0x50c-0x50d (1)
0x500|                                       06      |             .  |      [35]: 6 transition_type 0x50d-0x50e (1)
0x500|                                          07   |              . |      [36]: 7 transition_type 0x50e-0x50f (1)
0x500|                                             06|               .|      [37]: 6 transition_type 0x50f-0x510 (1)
0x510|07                                             |.               |      [38]: 7 transition_type 0x510-0x511 (1)
0x510|   06                                          | .              |      [39]: 6 transition_type 0x511-0x512 (1)
0x510|      07                                       |  .             |      [40]: 7 transition_type 0x512-0x513 (1)
0x510|         06                                    |   .            |      [41]: 6 transition_type 0x513-0x514 (1)
0x510|            07                                 |    .           |      [42]: 7 transition_type 0x514-0x515 (1)
0x510|               06                              |     .          |      [43]: 6 transition_type 0x515-0x516 (1)
0x510|                  07                           |      .         |      [44]: 7 transition_type 0x516-0x517 (1)
0x510|                     06                        |       .        |      [45]: 6 transition_type 0x517-0x518 (1)
0x510|                        07                     |        .       |      [46]: 7 transition_type 0x518-0x519 (1)
0x510|                           06                  |         .      |      [47]: 6 transition_type 0x519-0x51a (1)
0x510|                              07               |          .     |      [48]: 7 transition_type 0x51a-0x51b (1)
0x510|                                 06            |           .    |      [49]: 6 transition_type 0x51b-0x51c (1)
0x510|                                    07         |            .   |      [50]: 7 transition_type 0x51c-0x51d (1)
0x510|                                       06      |             .  |      [51]: 6 transition_type 0x51d-0x51e (1)
0x510|                                          07   |              . |      [52]: 7 transition_type 0x51e-0x51f (1)
0x510|                                             06|               .|      [53]: 6 transition_type 0x51f-0x520 (1)
0x520|07                                             |.               |      [54]: 7 transition_type 0x520-0x521 (1)
0x520|   06                                          | .              |      [55]: 6 transition_type 0x521-0x522 (1)
0x520|      07                                       |  .             |      [56]: 7 transition_type 0x522-0x523 (1)
0x520|         06                                    |   .            |      [57]: 6 transition_type 0x523-0x524 (1)
0x520|            07                                 |    .           |      [58]: 7 transition_type 0x524-0x525 (1)
0x520|               06                              |     .          |      [59]: 6 transition_type 0x525-0x526 (1)
0x520|                  07                           |      .         |      [60]: 7 transition_type 0x526-0x527 (1)
0x520|                     06                        |       .        |      [61]: 6 transition_type 0x527-0x528 (1)
0x520|                        07                     |        .       |      [62]: 7 transition_type 0x528-0x529 (1)
0x520|                           04                  |         .      |      [63]: 4 transition_type 0x529-0x52a (1)
0x520|                              07               |          .     |      [64]: 7 transition_type 0x52a-0x52b (1)
0x520|                                 04            |           .    |      [65]: 4 transition_type 0x52b-0x52c (1)
0x520|                                    04         |            .   |      [66]: 4 transition_type 0x52c-0x52d (1)
     |                                               |                |    local_time_type_records[0:9]: 0x52d-0x563 (54)
     |                                               |                |      [0]{}: local_time_type 0x52d-0x533 (6)
0x520|                                       00 00 85|             ...|        utoff: 34248 (valid) 0x52d-0x531 (4)
0x530|c8                                             |.               |
0x530|   00                                          | .              |        dst: 0 (valid) 0x531-0x532 (1)
0x530|      00                                       |  .             |        idx: 0 (valid) 0x532-0x533 (1)
     |                                               |                |      [1]{}: local_time_type 0x533-0x539 (6)
0x530|         00 00 7e 90                           |   ..~.         |        utoff: 32400 (valid) 0x533-0x537 (4)
0x530|                     00                        |       .        |        dst: 0 (valid) 0x537-0x538 (1)
0x530|                        04                     |        .       |        idx: 4 (valid) 0x538-0x539 (1)
     |                                               |                |      [2]{}: local_time_type 0x539-0x53f (6)
0x530|                           00 00 a8 c0         |         ....   |        utoff: 43200 (valid) 0x539-0x53d (4)
0x530|                                       01      |             .  |        dst: 1 (valid) 0x53d-0x53e (1)
0x530|                                          08   |              . |        idx: 8 (valid) 0x53e-0x53f (1)
     |                                               |                |      [3]{}: local_time_type 0x53f-0x545 (6)
0x530|                                             00|               .|        utoff: 39600 (valid) 0x53f-0x543 (4)
0x540|00 9a b0                                       |...             |
0x540|         00                                    |   .            |        dst: 0 (valid) 0x543-0x544 (1)
0x540|            0c                                 |    .           |        idx: 12 (valid) 0x544-0x545 (1)
     |                                               |                |      [4]{}: local_time_type 0x545-0x54b (6)
0x540|               00 00 9a b0                     |     ....       |        utoff: 39600 (valid) 0x545-0x549 (4)
0x540|                           00                  |         .      |        dst: 0 (valid) 0x549-0x54a (1)
0x540|                              0c               |          .     |        idx: 12 (valid) 0x54a-0x54b (1)
     |                                               |                |      [5]{}: local_time_type 0x54b-0x551 (6)
0x540|                                 00 00 a8 c0   |           .... |        utoff: 43200 (valid) 0x54b-0x54f (4)
0x540|                                             01|               .|        dst: 1 (valid) 0x54f-0x550 (1)
0x550|08                                             |.               |        idx: 8 (valid) 0x550-0x551 (1)
     |                                               |                |      [6]{}: local_time_type 0x551-0x557 (6)
0x550|   00 00 9a b0                                 | ....           |        utoff: 39600 (valid) 0x551-0x555 (4)
0x550|               01                              |     .          |        dst: 1 (valid) 0x555-0x556 (1)
0x550|                  0c                           |      .         |        idx: 12 (valid) 0x556-0x557 (1)
     |                                               |                |      [7]{}: local_time_type 0x557-0x55d (6)
0x550|                     00 00 8c a0               |       ....     |        utoff: 36000 (valid) 0x557-0x55b (4)
0x550|                                 00            |           .    |        dst: 0 (valid) 0x55b-0x55c (1)
0x550|                                    10         |            .   |        idx: 16 (valid) 0x55c-0x55d (1)
     |                                               |                |      [8]{}: local_time_type 0x55d-0x563 (6)
0x550|                                       00 00 9a|             ...|        utoff: 39600 (valid) 0x55d-0x561 (4)
0x560|b0                                             |.               |
0x560|   00                                          | .              |        dst: 0 (valid) 0x561-0x562 (1)
0x560|      0c                                       |  .             |        idx: 12 (valid) 0x562-0x563 (1)
     |                                               |                |    time_zone_designations[0:5]: 0x563-0x577 (20)
0x560|         4c 4d 54 00                           |   LMT.         |      [0]: "LMT" time_zone_designation 0x563-0x567 (4)
0x560|                     2b 30 39 00               |       +09.     |      [1]: "+09" time_zone_designation 0x567-0x56b (4)
0x560|                                 2b 31 32 00   |           +12. |      [2]: "+12" time_zone_designation 0x56b-0x56f (4)
0x560|                                             2b|               +|      [3]: "+11" time_zone_designation 0x56f-0x573 (4)
0x570|31 31 00                                       |11.             |
0x570|         2b 31 30 00                           |   +10.         |      [4]: "+10" time_zone_designation 0x573-0x577 (4)
     |                                               |                |    leap_second_records[0:27]: 0x577-0x6bb (324)
     |                                               |                |      [0]{}: leap_second_record 0x577-0x583 (12)
0x570|                     00 00 00 00 04 b2 58 00   |       ......X. |        occur: "1972-07-01T00:00:00Z" (78796800) 0x577-0x57f (8)
0x570|                                             00|               .|        corr: 1 0x57f-0x583 (4)
0x580|00 00 01                                       |...             |
     |                                               |                |      [1]{}: leap_second_record 0x583-0x58f (12)
0x580|         00 00 00 00 05 a4 ec 01               |   ........     |        occur: "1973-01-01T00:00:01Z" (94694401) 0x583-0x58b (8)
0x580|                                 00 00 00 02   |           .... |        corr: 2 0x58b-0x58f (4)
     |                                               |                |      [2]{}: leap_second_record 0x58f-0x59b (12)
0x580|                                             00|               .|        occur: "1974-01-01T00:00:02Z" (126230402) 0x58f-0x597 (8)
0x590|00 00 00 07 86 1f 82                           |.......         |
0x590|                     00 00 00 03               |       ....     |        corr: 3 0x597-0x59b (4)
     |                                               |                |      [3]{}: leap_second_record 0x59b-0x5a7 (12)
0x590|                                 00 00 00 00 09|           .....|        occur: "1975-01-01T00:00:03Z" (157766403) 0x59b-0x5a3 (8)
0x5a0|67 53 03                                       |gS.             |
0x5a0|         00 00 00 04                           |   ....         |        corr: 4 0x5a3-0x5a7 (4)
     |                                               |                |      [4]{}: leap_second_record 0x5a7-0x5b3 (12)
0x5a0|                     00 00 00 00 0b 48 86 84   |       .....H.. |        occur: "1976-01-01T00:00:04Z" (189302404) 0x5a7-0x5af (8)
0x5a0|                                             00|               .|        corr: 5 0x5af-0x5b3 (4)
0x5b0|00 00 05                                       |...             |
     |                                               |                |      [5]{}: leap_second_record 0x5b3-0x5bf (12)
0x5b0|         00 00 00 00 0d 2b 0b 85               |   .....+..     |        occur: "1977-01-01T00:00:05Z" (220924805) 0x5b3-0x5bb (8)
0x5b0|                                 00 00 00 06   |           .... |        corr: 6 0x5bb-0x5bf (4)
     |                                               |                |      [6]{}: leap_second_record 0x5bf-0x5cb (12)
0x5b0|                                             00|               .|        occur: "1978-01-01T00:00:06Z" (252460806) 0x5bf-0x5c7 (8)
0x5c0|00 00 00 0f 0c 3f 06                           |.....?.         |
0x5c0|                     00 00 00 07               |       ....     |        corr: 7 0x5c7-0x5cb (4)
     |                                               |                |      [7]{}: leap_second_record 0x5cb-0x5d7 (12)
0x5c0|                                 00 00 00 00 10|           .....|        occur: "1979-01-01T00:00:07Z" (283996807) 0x5cb-0x5d3 (8)
0x5d0|ed 72 87                                       |.r.             |
0x5d0|         00 00 00 08                           |   ....         |        corr: 8 0x5d3-0x5d7 (4)
     |                                               |                |      [8]{}: leap_second_record 0x5d7-0x5e3 (12)
0x5d0|                     00 00 00 00 12 ce a6 08   |       ........ |        occur: "1980-01-01T00:00:08Z" (315532808) 0x5d7-0x5df (8)
0x5d0|                                             00|               .|        corr: 9 0x5df-0x5e3 (4)
0x5e0|00 00 09                                       |...             |
     |                                               |                |      [9]{}: leap_second_record 0x5e3-0x5ef (12)
0x5e0|         00 00 00 00 15 9f ca 89               |   ........     |        occur: "1981-07-01T00:00:09Z" (362793609) 0x5e3-0x5eb (8)
0x5e0|                                 00 00 00 0a   |           .... |        corr: 10 0x5eb-0x5ef (4)
     |                                               |                |      [10]{}: leap_second_record 0x5ef-0x5fb (12)
0x5e0|                                             00|               .|        occur: "1982-07-01T00:00:10Z" (394329610) 0x5ef-0x5f7 (8)
0x5f0|00 00 00 17 80 fe 0a                           |.......         |
0x5f0|                     00 00 00 0b               |       ....     |        corr: 11 0x5f7-0x5fb (4)
     |                                               |                |      [11]{}: leap_second_record 0x5fb-0x607 (12)
0x5f0|                                 00 00 00 00 19|           .....|        occur: "1983-07-01T00:00:11Z" (425865611) 0x5fb-0x603 (8)
0x600|62 31 8b                                       |b1.             |
0x600|         00 00 00 0c                           |   ....         |        corr: 12 0x603-0x607 (4)
     |                                               |                |      [12]{}: leap_second_record 0x607-0x613 (12)
0x600|                     00 00 00 00 1d 25 ea 0c   |       .....%.. |        occur: "1985-07-01T00:00:12Z" (489024012) 0x607-0x60f (8)
0x600|                                             00|               .|        corr: 13 0x60f-0x613 (4)
0x610|00 00 0d                                       |...             |
     |                                               |                |      [13]{}: leap_second_record 0x613-0x61f (12)
0x610|         00 00 00 00 21 da e5 0d               |   ....!...     |        occur: "1988-01-01T00:00:13Z" (567993613) 0x613-0x61b (8)
0x610|                                 00 00 00 0e   |           .... |        corr: 14 0x61b-0x61f (4)
     |                                               |                |      [14]{}: leap_second_record 0x61f-0x62b (12)
0x610|                                             00|               .|        occur: "1990-01-01T00:00:14Z" (631152014) 0x61f-0x627 (8)
0x620|00 00 00 25 9e 9d 8e                           |...%...         |
0x620|                     00 00 00 0f               |       ....     |        corr: 15 0x627-0x62b (4)
     |                                               |                |      [15]{}: leap_second_record 0x62b-0x637 (12)
0x620|                                 00 00 00 00 27|           ....'|        occur: "1991-01-01T00:00:15Z" (662688015) 0x62b-0x633 (8)
0x630|7f d1 0f                                       |...             |
0x630|         00 00 00 10                           |   ....         |        corr: 16 0x633-0x637 (4)
     |                                               |                |      [16]{}: leap_second_record 0x637-0x643 (12)
0x630|                     00 00 00 00 2a 50 f5 90   |       ....*P.. |        occur: "1992-07-01T00:00:16Z" (709948816) 0x637-0x63f (8)
0x630|                                             00|               .|        corr: 17 0x63f-0x643 (4)
0x640|00 00 11                                       |...             |
     |                                               |                |      [17]{}: leap_second_record 0x643-0x64f (12)
0x640|         00 00 00 00 2c 32 29 11               |   ....,2).     |        occur: "1993-07-01T00:00:17Z" (741484817) 0x643-0x64b (8)
0x640|                                 00 00 00 12   |           .... |        corr: 18 0x64b-0x64f (4)
     |                                               |                |      [18]{}: leap_second_record 0x64f-0x65b (12)
0x640|                                             00|               .|        occur: "1994-07-01T00:00:18Z" (773020818) 0x64f-0x657 (8)
0x650|00 00 00 2e 13 5c 92                           |.....\.         |
0x650|                     00 00 00 13               |       ....     |        corr: 19 0x657-0x65b (4)
     |                                               |                |      [19]{}: leap_second_record 0x65b-0x667 (12)
0x650|                                 00 00 00 00 30|           ....0|        occur: "1996-01-01T00:00:19Z" (820454419) 0x65b-0x663 (8)
0x660|e7 24 13                                       |.$.             |
0x660|         00 00 00 14                           |   ....         |        corr: 20 0x663-0x667 (4)
     |                                               |                |      [20]{}: leap_second_record 0x667-0x673 (12)
0x660|                     00 00 00 00 33 b8 48 94   |       ....3.H. |        occur: "1997-07-01T00:00:20Z" (867715220) 0x667-0x66f (8)
0x660|                                             00|               .|        corr: 21 0x66f-0x673 (4)
0x670|00 00 15                                       |...             |
     |                                               |                |      [21]{}: leap_second_record 0x673-0x67f (12)
0x670|         00 00 00 00 36 8c 10 15               |   ....6...     |        occur: "1999-01-01T00:00:21Z" (915148821) 0x673-0x67b (8)
0x670|                                 00 00 00 16   |           .... |        corr: 22 0x67b-0x67f (4)
     |                                               |                |      [22]{}: leap_second_record 0x67f-0x68b (12)
0x670|                                             00|               .|        occur: "2006-01-01T00:00:22Z" (1136073622) 0x67f-0x687 (8)
0x680|00 00 00 43 b7 1b 96                           |...C...         |
0x680|                     00 00 00 17               |       ....     |        corr: 23 0x687-0x68b (4)
     |                                               |                |      [23]{}: leap_second_record 0x68b-0x697 (12)
0x680|                                 00 00 00 00 49|           ....I|        occur: "2009-01-01T00:00:23Z" (1230768023) 0x68b-0x693 (8)
0x690|5c 07 97                                       |\..             |
0x690|         00 00 00 18                           |   ....         |        corr: 24 0x693-0x697 (4)
     |                                               |                |      [24]{}: leap_second_record 0x697-0x6a3 (12)
0x690|                     00 00 00 00 4f ef 93 18   |       ....O... |        occur: "2012-07-01T00:00:24Z" (1341100824) 0x697-0x69f (8)
0x690|                                             00|               .|        corr: 25 0x69f-0x6a3 (4)
0x6a0|00 00 19                                       |...             |
     |                                               |                |      [25]{}: leap_second_record 0x6a3-0x6af (12)
0x6a0|         00 00 00 00 55 93 2d 99               |   ....U.-.     |        occur: "2015-07-01T00:00:25Z" (1435708825) 0x6a3-0x6ab (8)
0x6a0|                                 00 00 00 1a   |           .... |        corr: 26 0x6ab-0x6af (4)
     |                                               |                |      [26]{}: leap_second_record 0x6af-0x6bb (12)
0x6a0|                                             00|               .|        occur: "2017-01-01T00:00:26Z" (1483228826) 0x6af-0x6b7 (8)
0x6b0|00 00 00 58 68 46 9a                           |...XhF.         |
0x6b0|                     00 00 00 1b               |       ....     |        corr: 27 0x6b7-0x6bb (4)
     |                                               |                |    standard_wall_indicators[0:9]: 0x6bb-0x6c4 (9)
0x6b0|                                 00            |           .    |      [0]: 0 standard_wall_indicator (valid) 0x6bb-0x6bc (1)
0x6b0|                                    00         |            .   |      [1]: 0 standard_wall_indicator (valid) 0x6bc-0x6bd (1)
0x6b0|                                       00      |             .  |      [2]: 0 standard_wall_indicator (valid) 0x6bd-0x6be (1)
0x6b0|                                          00   |              . |      [3]: 0 standard_wall_indicator (valid) 0x6be-0x6bf (1)
0x6b0|                                             01|               .|      [4]: 1 standard_wall_indicator (valid) 0x6bf-0x6c0 (1)
0x6c0|01                                             |.               |      [5]: 1 standard_wall_indicator (valid) 0x6c0-0x6c1 (1)
0x6c0|   01                                          | .              |      [6]: 1 standard_wall_indicator (valid) 0x6c1-0x6c2 (1)
0x6c0|      01                                       |  .             |      [7]: 1 standard_wall_indicator (valid) 0x6c2-0x6c3 (1)
0x6c0|         01                                    |   .            |      [8]: 1 standard_wall_indicator (valid) 0x6c3-0x6c4 (1)
     |                                               |                |    ut_local_indicators[0:0]: 0x6c4-0x6c4 (0)
     |                                               |                |  footer{}: 0x6c4-0x6c6 (2)
0x6c0|            0a                                 |    .           |    nl1: 10 (valid) 0x6c4-0x6c5 (1)
     |                                               |                |    tz_string: "" 0x6c5-0x6c5 (0)
0x6c0|               0a|                             |     .|         |    nl2: 10 (valid) 0x6c5-0x6c6 (1)
