$ fq -d tzif dv Salta
     |00 01 02 03 04 05 06 07 08 09 0a 0b 0c 0d 0e 0f|0123456789abcdef|.{}: Salta (tzif) 0x0-0x62e (1582)
     |                                               |                |  v1header{}: 0x0-0x2c (44)
0x000|54 5a 69 66                                    |TZif            |    magic: 0x545a6966 (valid) 0x0-0x4 (4)
0x000|            32                                 |    2           |    ver: "2" (0x32) (valid) 0x4-0x5 (1)
0x000|               00 00 00 00 00 00 00 00 00 00 00|     ...........|    reserved: raw bits 0x5-0x14 (15)
0x010|00 00 00 00                                    |....            |
0x010|            00 00 00 00                        |    ....        |    isutcnt: 0 0x14-0x18 (4)
0x010|                        00 00 00 00            |        ....    |    isstdcnt: 0 0x18-0x1c (4)
0x010|                                    00 00 00 1b|            ....|    leapcnt: 27 0x1c-0x20 (4)
0x020|00 00 00 3c                                    |...<            |    timecnt: 60 0x20-0x24 (4)
0x020|            00 00 00 06                        |    ....        |    typecnt: 6 0x24-0x28 (4)
0x020|                        00 00 00 14            |        ....    |    charcnt: 20 0x28-0x2c (4)
     |                                               |                |  v1datablock{}: 0x2c-0x268 (572)
     |                                               |                |    transition_times[0:60]: 0x2c-0x11c (240)
0x020|                                    80 00 00 00|            ....|      [0]: "1901-12-13T20:45:52Z" (-2147483648) transition_time 0x2c-0x30 (4)
0x030|a2 92 8f 30                                    |...0            |      [1]: "1920-05-01T04:16:48Z" (-1567453392) transition_time 0x30-0x34 (4)
0x030|            b6 7b 52 40                        |    .{R@        |      [2]: "1930-12-01T04:00:00Z" (-1233432000) transition_time 0x34-0x38 (4)
0x030|                        b7 1a c9 b0            |        ....    |      [3]: "1931-04-01T03:00:00Z" (-1222981200) transition_time 0x38-0x3c (4)
0x030|                                    b8 1e 8f 40|            ...@|      [4]: "1931-10-15T04:00:00Z" (-1205956800) transition_time 0x3c-0x40 (4)
0x040|b8 d4 70 30                                    |..p0            |      [5]: "1932-03-01T03:00:00Z" (-1194037200) transition_time 0x40-0x44 (4)
0x040|            ba 17 7d c0                        |    ..}.        |      [6]: "1932-11-01T04:00:00Z" (-1172865600) transition_time 0x44-0x48 (4)
0x040|                        ba b5 a3 b0            |        ....    |      [7]: "1933-03-01T03:00:00Z" (-1162501200) transition_time 0x48-0x4c (4)
0x040|                                    bb f8 b1 40|            ...@|      [8]: "1933-11-01T04:00:00Z" (-1141329600) transition_time 0x4c-0x50 (4)
0x050|bc 96 d7 30                                    |...0            |      [9]: "1934-03-01T03:00:00Z" (-1130965200) transition_time 0x50-0x54 (4)
0x050|            bd d9 e4 c0                        |    ....        |      [10]: "1934-11-01T04:00:00Z" (-1109793600) transition_time 0x54-0x58 (4)
0x050|                        be 78 0a b0            |        .x..    |      [11]: "1935-03-01T03:00:00Z" (-1099429200) transition_time 0x58-0x5c (4)
0x050|                                    bf bb 18 40|            ...@|      [12]: "1935-11-01T04:00:00Z" (-1078257600) transition_time 0x5c-0x60 (4)
0x060|c0 5a 8f b0                                    |.Z..            |      [13]: "1936-03-01T03:00:00Z" (-1067806800) transition_time 0x60-0x64 (4)
0x060|            c1 9d 9d 40                        |    ...@        |      [14]: "1936-11-01T04:00:00Z" (-1046635200) transition_time 0x64-0x68 (4)
0x060|                        c2 3b c3 30            |        .;.0    |      [15]: "1937-03-01T03:00:00Z" (-1036270800) transition_time 0x68-0x6c (4)
0x060|                                    c3 7e d0 c0|            .~..|      [16]: "1937-11-01T04:00:00Z" (-1015099200) transition_time 0x6c-0x70 (4)
0x070|c4 1c f6 b0                                    |....            |      [17]: "1938-03-01T03:00:00Z" (-1004734800) transition_time 0x70-0x74 (4)
0x070|            c5 60 04 40                        |    .`.@        |      [18]: "1938-11-01T04:00:00Z" (-983563200) transition_time 0x74-0x78 (4)
0x070|                        c5 fe 2a 30            |        ..*0    |      [19]: "1939-03-01T03:00:00Z" (-973198800) transition_time 0x78-0x7c (4)
0x070|                                    c7 41 37 c0|            .A7.|      [20]: "1939-11-01T04:00:00Z" (-952027200) transition_time 0x7c-0x80 (4)
0x080|c7 e0 af 30                                    |...0            |      [21]: "1940-03-01T03:00:00Z" (-941576400) transition_time 0x80-0x84 (4)
0x080|            c8 81 94 40                        |    ...@        |      [22]: "1940-07-01T04:00:00Z" (-931032000) transition_time 0x84-0x88 (4)
0x080|                        ca 4d a1 b0            |        .M..    |      [23]: "1941-06-15T03:00:00Z" (-900882000) transition_time 0x88-0x8c (4)
0x080|                                    ca ee 86 c0|            ....|      [24]: "1941-10-15T04:00:00Z" (-890337600) transition_time 0x8c-0x90 (4)
0x090|ce 4d ff 30                                    |.M.0            |      [25]: "1943-08-01T03:00:00Z" (-833749200) transition_time 0x90-0x94 (4)
0x090|            ce b0 ed c0                        |    ....        |      [26]: "1943-10-15T04:00:00Z" (-827265600) transition_time 0x94-0x98 (4)
0x090|                        d3 29 35 b0            |        .)5.    |      [27]: "1946-03-01T03:00:00Z" (-752274000) transition_time 0x98-0x9c (4)
0x090|                                    d4 43 64 c0|            .Cd.|      [28]: "1946-10-01T04:00:00Z" (-733780800) transition_time 0x9c-0xa0 (4)
0x0a0|f4 3d 08 30                                    |.=.0            |      [29]: "1963-10-01T03:00:00Z" (-197326800) transition_time 0xa0-0xa4 (4)
0x0a0|            f4 9f f6 c0                        |    ....        |      [30]: "1963-12-15T04:00:00Z" (-190843200) transition_time 0xa4-0xa8 (4)
0x0a0|                        f5 05 6c 30            |        ..l0    |      [31]: "1964-03-01T03:00:00Z" (-184194000) transition_time 0xa8-0xac (4)
0x0a0|                                    f6 32 10 40|            .2.@|      [32]: "1964-10-15T04:00:00Z" (-164491200) transition_time 0xac-0xb0 (4)
0x0b0|f6 e6 9f b0                                    |....            |      [33]: "1965-03-01T03:00:00Z" (-152658000) transition_time 0xb0-0xb4 (4)
0x0b0|            f8 13 43 c0                        |    ..C.        |      [34]: "1965-10-15T04:00:00Z" (-132955200) transition_time 0xb4-0xb8 (4)
0x0b0|                        f8 c7 d3 30            |        ...0    |      [35]: "1966-03-01T03:00:00Z" (-121122000) transition_time 0xb8-0xbc (4)
0x0b0|                                    f9 f4 77 40|            ..w@|      [36]: "1966-10-15T04:00:00Z" (-101419200) transition_time 0xbc-0xc0 (4)
0x0c0|fa d3 36 b0                                    |..6.            |      [37]: "1967-04-02T03:00:00Z" (-86821200) transition_time 0xc0-0xc4 (4)
0x0c0|            fb c3 35 c0                        |    ..5.        |      [38]: "1967-10-01T04:00:00Z" (-71092800) transition_time 0xc4-0xc8 (4)
0x0c0|                        fc bc 53 30            |        ..S0    |      [39]: "1968-04-07T03:00:00Z" (-54766800) transition_time 0xc8-0xcc (4)
0x0c0|                                    fd ac 52 40|            ..R@|      [40]: "1968-10-06T04:00:00Z" (-39038400) transition_time 0xcc-0xd0 (4)
0x0d0|fe 9c 35 30                                    |..50            |      [41]: "1969-04-06T03:00:00Z" (-23317200) transition_time 0xd0-0xd4 (4)
0x0d0|            ff 8c 34 40                        |    ..4@        |      [42]: "1969-10-05T04:00:00Z" (-7588800) transition_time 0xd4-0xd8 (4)
0x0d0|                        07 a3 4a b3            |        ..J.    |      [43]: "1974-01-23T03:00:03Z" (128142003) transition_time 0xd8-0xdc (4)
0x0d0|                                    08 24 6f a3|            .$o.|      [44]: "1974-05-01T02:00:03Z" (136605603) transition_time 0xdc-0xe0 (4)
0x0e0|23 94 b5 be                                    |#...            |      [45]: "1988-12-01T03:00:14Z" (596948414) transition_time 0xe0-0xe4 (4)
0x0e0|            24 10 94 ae                        |    $...        |      [46]: "1989-03-05T02:00:14Z" (605066414) transition_time 0xe4-0xe8 (4)
0x0e0|                        25 37 f2 be            |        %7..    |      [47]: "1989-10-15T03:00:14Z" (624423614) transition_time 0xe8-0xec (4)
0x0e0|                                    25 f0 76 af|            %.v.|      [48]: "1990-03-04T02:00:15Z" (636516015) transition_time 0xec-0xf0 (4)
0x0f0|27 21 0f 3f                                    |'!.?            |      [49]: "1990-10-21T03:00:15Z" (656478015) transition_time 0xf0-0xf4 (4)
0x0f0|            27 d0 58 b0                        |    '.X.        |      [50]: "1991-03-03T02:00:16Z" (667965616) transition_time 0xf4-0xf8 (4)
0x0f0|                        29 00 ff 50            |        )..P    |      [51]: "1991-10-20T04:00:16Z" (687931216) transition_time 0xf8-0xfc (4)
0x0f0|                                    29 b0 3a b0|            ).:.|      [52]: "1992-03-01T02:00:16Z" (699415216) transition_time 0xfc-0x100 (4)
0x100|2a e0 d3 41                                    |*..A            |      [53]: "1992-10-18T03:00:17Z" (719377217) transition_time 0x100-0x104 (4)
0x100|            2b 99 57 31                        |    +.W1        |      [54]: "1993-03-07T02:00:17Z" (731469617) transition_time 0x104-0x108 (4)
0x100|                        37 f6 c6 c6            |        7...    |      [55]: "1999-10-03T03:00:22Z" (938919622) transition_time 0x108-0x10c (4)
0x100|                                    38 bf 2a c6|            8.*.|      [56]: "2000-03-03T03:00:22Z" (952052422) transition_time 0x10c-0x110 (4)
0x110|47 77 09 c7                                    |Gw..            |      [57]: "2007-12-30T03:00:23Z" (1198983623) transition_time 0x110-0x114 (4)
0x110|            47 dc 7f 37                        |    G..7        |      [58]: "2008-03-16T02:00:23Z" (1205632823) transition_time 0x114-0x118 (4)
0x110|                        64 9b 78 1b            |        d.x.    |      [59]: "2023-06-28T00:00:27Z" (1687910427) transition_time 0x118-0x11c (4)
     |                                               |                |    transition_types[0:60]: 0x11c-0x158 (60)
0x110|                                    01         |            .   |      [0]: 1 transition_type 0x11c-0x11d (1)
0x110|                                       02      |             .  |      [1]: 2 transition_type 0x11d-0x11e (1)
0x110|                                          03   |              . |      [2]: 3 transition_type 0x11e-0x11f (1)
0x110|                                             02|               .|      [3]: 2 transition_type 0x11f-0x120 (1)
0x120|03                                             |.               |      [4]: 3 transition_type 0x120-0x121 (1)
0x120|   02                                          | .              |      [5]: 2 transition_type 0x121-0x122 (1)
0x120|      03                                       |  .             |      [6]: 3 transition_type 0x122-0x123 (1)
0x120|         02                                    |   .            |      [7]: 2 transition_type 0x123-0x124 (1)
0x120|            03                                 |    .           |      [8]: 3 transition_type 0x124-0x125 (1)
0x120|               02                              |     .          |      [9]: 2 transition_type 0x125-0x126 (1)
0x120|                  03                           |      .         |      [10]: 3 transition_type 0x126-0x127 (1)
0x120|                     02                        |       .        |      [11]: 2 transition_type 0x127-0x128 (1)
0x120|                        03                     |        .       |      [12]: 3 transition_type 0x128-0x129 (1)
0x120|                           02                  |         .      |      [13]: 2 transition_type 0x129-0x12a (1)
0x120|                              03               |          .     |      [14]: 3 transition_type 0x12a-0x12b (1)
0x120|                                 02            |           .    |      [15]: 2 transition_type 0x12b-0x12c (1)
0x120|                                    03         |            .   |      [16]: 3 transition_type 0x12c-0x12d (1)
0x120|                                       02      |             .  |      [17]: 2 transition_type 0x12d-0x12e (1)
0x120|                                          03   |              . |      [18]: 3 transition_type 0x12e-0x12f (1)
0x120|                                             02|               .|      [19]: 2 transition_type 0x12f-0x130 (1)
0x130|03                                             |.               |      [20]: 3 transition_type 0x130-0x131 (1)
0x130|   02                                          | .              |      [21]: 2 transition_type 0x131-0x132 (1)
0x130|      03                                       |  .             |      [22]: 3 transition_type 0x132-0x133 (1)
0x130|         02                                    |   .            |      [23]: 2 transition_type 0x133-0x134 (1)
0x130|            03                                 |    .           |      [24]: 3 transition_type 0x134-0x135 (1)
0x130|               02                              |     .          |      [25]: 2 transition_type 0x135-0x136 (1)
0x130|                  03                           |      .         |      [26]: 3 transition_type 0x136-0x137 (1)
0x130|                     02                        |       .        |      [27]: 2 transition_type 0x137-0x138 (1)
0x130|                        03                     |        .       |      [28]: 3 transition_type 0x138-0x139 (1)
0x130|                           02                  |         .      |      [29]: 2 transition_type 0x139-0x13a (1)
0x130|                              03               |          .     |      [30]: 3 transition_type 0x13a-0x13b (1)
0x130|                                 02            |           .    |      [31]: 2 transition_type 0x13b-0x13c (1)
0x130|                                    03         |            .   |      [32]: 3 transition_type 0x13c-0x13d (1)
0x130|                                       02      |             .  |      [33]: 2 transition_type 0x13d-0x13e (1)
0x130|                                          03   |              . |      [34]: 3 transition_type 0x13e-0x13f (1)
0x130|                                             02|               .|      [35]: 2 transition_type 0x13f-0x140 (1)
0x140|03                                             |.               |      [36]: 3 transition_type 0x140-0x141 (1)
0x140|   02                                          | .              |      [37]: 2 transition_type 0x141-0x142 (1)
0x140|      03                                       |  .             |      [38]: 3 transition_type 0x142-0x143 (1)
0x140|         02                                    |   .            |      [39]: 2 transition_type 0x143-0x144 (1)
0x140|            03                                 |    .           |      [40]: 3 transition_type 0x144-0x145 (1)
0x140|               02                              |     .          |      [41]: 2 transition_type 0x145-0x146 (1)
0x140|                  05                           |      .         |      [42]: 5 transition_type 0x146-0x147 (1)
0x140|                     04                        |       .        |      [43]: 4 transition_type 0x147-0x148 (1)
0x140|                        05                     |        .       |      [44]: 5 transition_type 0x148-0x149 (1)
0x140|                           04                  |         .      |      [45]: 4 transition_type 0x149-0x14a (1)
0x140|                              05               |          .     |      [46]: 5 transition_type 0x14a-0x14b (1)
0x140|                                 04            |           .    |      [47]: 4 transition_type 0x14b-0x14c (1)
0x140|                                    05         |            .   |      [48]: 5 transition_type 0x14c-0x14d (1)
0x140|                                       04      |             .  |      [49]: 4 transition_type 0x14d-0x14e (1)
0x140|                                          02   |              . |      [50]: 2 transition_type 0x14e-0x14f (1)
0x140|                                             04|               .|      [51]: 4 transition_type 0x14f-0x150 (1)
0x150|05                                             |.               |      [52]: 5 transition_type 0x150-0x151 (1)
0x150|   04                                          | .              |      [53]: 4 transition_type 0x151-0x152 (1)
0x150|      05                                       |  .             |      [54]: 5 transition_type 0x152-0x153 (1)
0x150|         03                                    |   .            |      [55]: 3 transition_type 0x153-0x154 (1)
0x150|            05                                 |    .           |      [56]: 5 transition_type 0x154-0x155 (1)
0x150|               04                              |     .          |      [57]: 4 transition_type 0x155-0x156 (1)
0x150|                  05                           |      .         |      [58]: 5 transition_type 0x156-0x157 (1)
0x150|                     05                        |       .        |      [59]: 5 transition_type 0x157-0x158 (1)
     |                                               |                |    local_time_type_records[0:6]: 0x158-0x17c (36)
     |                                               |                |      [0]{}: local_time_type 0x158-0x15e (6)
0x150|                        ff ff c2 ac            |        ....    |        utoff: -15700 (valid) 0x158-0x15c (4)
0x150|                                    00         |            .   |        dst: 0 (valid) 0x15c-0x15d (1)
0x150|                                       00      |             .  |        idx: 0 (valid) 0x15d-0x15e (1)
     |                                               |                |      [1]{}: local_time_type 0x15e-0x164 (6)
0x150|                                          ff ff|              ..|        utoff: -15408 (valid) 0x15e-0x162 (4)
0x160|c3 d0                                          |..              |
0x160|      00                                       |  .             |        dst: 0 (valid) 0x162-0x163 (1)
0x160|         04                                    |   .            |        idx: 4 (valid) 0x163-0x164 (1)
     |                                               |                |      [2]{}: local_time_type 0x164-0x16a (6)
0x160|            ff ff c7 c0                        |    ....        |        utoff: -14400 (valid) 0x164-0x168 (4)
0x160|                        00                     |        .       |        dst: 0 (valid) 0x168-0x169 (1)
0x160|                           08                  |         .      |        idx: 8 (valid) 0x169-0x16a (1)
     |                                               |                |      [3]{}: local_time_type 0x16a-0x170 (6)
0x160|                              ff ff d5 d0      |          ....  |        utoff: -10800 (valid) 0x16a-0x16e (4)
0x160|                                          01   |              . |        dst: 1 (valid) 0x16e-0x16f (1)
0x160|                                             0c|               .|        idx: 12 (valid) 0x16f-0x170 (1)
     |                                               |                |      [4]{}: local_time_type 0x170-0x176 (6)
0x170|ff ff e3 e0                                    |....            |        utoff: -7200 (valid) 0x170-0x174 (4)
0x170|            01                                 |    .           |        dst: 1 (valid) 0x174-0x175 (1)
0x170|               10                              |     .          |        idx: 16 (valid) 0x175-0x176 (1)
     |                                               |                |      [5]{}: local_time_type 0x176-0x17c (6)
0x170|                  ff ff d5 d0                  |      ....      |        utoff: -10800 (valid) 0x176-0x17a (4)
0x170|                              00               |          .     |        dst: 0 (valid) 0x17a-0x17b (1)
0x170|                                 0c            |           .    |        idx: 12 (valid) 0x17b-0x17c (1)
     |                                               |                |    time_zone_designations[0:5]: 0x17c-0x190 (20)
0x170|                                    4c 4d 54 00|            LMT.|      [0]: "LMT" time_zone_designation 0x17c-0x180 (4)
0x180|43 4d 54 00                                    |CMT.            |      [1]: "CMT" time_zone_designation 0x180-0x184 (4)
0x180|            2d 30 34 00                        |    -04.        |      [2]: "-04" time_zone_designation 0x184-0x188 (4)
0x180|                        2d 30 33 00            |        -03.    |      [3]: "-03" time_zone_designation 0x188-0x18c (4)
0x180|                                    2d 30 32 00|            -02.|      [4]: "-02" time_zone_designation 0x18c-0x190 (4)
     |                                               |                |    leap_second_records[0:27]: 0x190-0x268 (216)
     |                                               |                |      [0]{}: leap_second_record 0x190-0x198 (8)
0x190|04 b2 58 00                                    |..X.            |        occur: "1972-07-01T00:00:00Z" (78796800) 0x190-0x194 (4)
0x190|            00 00 00 01                        |    ....        |        corr: 1 0x194-0x198 (4)
     |                                               |                |      [1]{}: leap_second_record 0x198-0x1a0 (8)
0x190|                        05 a4 ec 01            |        ....    |        occur: "1973-01-01T00:00:01Z" (94694401) 0x198-0x19c (4)
0x190|                                    00 00 00 02|            ....|        corr: 2 0x19c-0x1a0 (4)
     |                                               |                |      [2]{}: leap_second_record 0x1a0-0x1a8 (8)
0x1a0|07 86 1f 82                                    |....            |        occur: "1974-01-01T00:00:02Z" (126230402) 0x1a0-0x1a4 (4)
0x1a0|            00 00 00 03                        |    ....        |        corr: 3 0x1a4-0x1a8 (4)
     |                                               |                |      [3]{}: leap_second_record 0x1a8-0x1b0 (8)
0x1a0|                        09 67 53 03            |        .gS.    |        occur: "1975-01-01T00:00:03Z" (157766403) 0x1a8-0x1ac (4)
0x1a0|                                    00 00 00 04|            ....|        corr: 4 0x1ac-0x1b0 (4)
     |                                               |                |      [4]{}: leap_second_record 0x1b0-0x1b8 (8)
0x1b0|0b 48 86 84                                    |.H..            |        occur: "1976-01-01T00:00:04Z" (189302404) 0x1b0-0x1b4 (4)
0x1b0|            00 00 00 05                        |    ....        |        corr: 5 0x1b4-0x1b8 (4)
     |                                               |                |      [5]{}: leap_second_record 0x1b8-0x1c0 (8)
0x1b0|                        0d 2b 0b 85            |        .+..    |        occur: "1977-01-01T00:00:05Z" (220924805) 0x1b8-0x1bc (4)
0x1b0|                                    00 00 00 06|            ....|        corr: 6 0x1bc-0x1c0 (4)
     |                                               |                |      [6]{}: leap_second_record 0x1c0-0x1c8 (8)
0x1c0|0f 0c 3f 06                                    |..?.            |        occur: "1978-01-01T00:00:06Z" (252460806) 0x1c0-0x1c4 (4)
0x1c0|            00 00 00 07                        |    ....        |        corr: 7 0x1c4-0x1c8 (4)
     |                                               |                |      [7]{}: leap_second_record 0x1c8-0x1d0 (8)
0x1c0|                        10 ed 72 87            |        ..r.    |        occur: "1979-01-01T00:00:07Z" (283996807) 0x1c8-0x1cc (4)
0x1c0|                                    00 00 00 08|            ....|        corr: 8 0x1cc-0x1d0 (4)
     |                                               |                |      [8]{}: leap_second_record 0x1d0-0x1d8 (8)
0x1d0|12 ce a6 08                                    |....            |        occur: "1980-01-01T00:00:08Z" (315532808) 0x1d0-0x1d4 (4)
0x1d0|            00 00 00 09                        |    ....        |        corr: 9 0x1d4-0x1d8 (4)
     |                                               |                |      [9]{}: leap_second_record 0x1d8-0x1e0 (8)
0x1d0|                        15 9f ca 89            |        ....    |        occur: "1981-07-01T00:00:09Z" (362793609) 0x1d8-0x1dc (4)
0x1d0|                                    00 00 00 0a|            ....|        corr: 10 0x1dc-0x1e0 (4)
     |                                               |                |      [10]{}: leap_second_record 0x1e0-0x1e8 (8)
0x1e0|17 80 fe 0a                                    |....            |        occur: "1982-07-01T00:00:10Z" (394329610) 0x1e0-0x1e4 (4)
0x1e0|            00 00 00 0b                        |    ....        |        corr: 11 0x1e4-0x1e8 (4)
     |                                               |                |      [11]{}: leap_second_record 0x1e8-0x1f0 (8)
0x1e0|                        19 62 31 8b            |        .b1.    |        occur: "1983-07-01T00:00:11Z" (425865611) 0x1e8-0x1ec (4)
0x1e0|                                    00 00 00 0c|            ....|        corr: 12 0x1ec-0x1f0 (4)
     |                                               |                |      [12]{}: leap_second_record 0x1f0-0x1f8 (8)
0x1f0|1d 25 ea 0c                                    |.%..            |        occur: "1985-07-01T00:00:12Z" (489024012) 0x1f0-0x1f4 (4)
0x1f0|            00 00 00 0d                        |    ....        |        corr: 13 0x1f4-0x1f8 (4)
     |                                               |                |      [13]{}: leap_second_record 0x1f8-0x200 (8)
0x1f0|                        21 da e5 0d            |        !...    |        occur: "1988-01-01T00:00:13Z" (567993613) 0x1f8-0x1fc (4)
0x1f0|                                    00 00 00 0e|            ....|        corr: 14 0x1fc-0x200 (4)
     |                                               |                |      [14]{}: leap_second_record 0x200-0x208 (8)
0x200|25 9e 9d 8e                                    |%...            |        occur: "1990-01-01T00:00:14Z" (631152014) 0x200-0x204 (4)
0x200|            00 00 00 0f                        |    ....        |        corr: 15 0x204-0x208 (4)
     |                                               |                |      [15]{}: leap_second_record 0x208-0x210 (8)
0x200|                        27 7f d1 0f            |        '...    |        occur: "1991-01-01T00:00:15Z" (662688015) 0x208-0x20c (4)
0x200|                                    00 00 00 10|            ....|        corr: 16 0x20c-0x210 (4)
     |                                               |                |      [16]{}: leap_second_record 0x210-0x218 (8)
0x210|2a 50 f5 90                                    |*P..            |        occur: "1992-07-01T00:00:16Z" (709948816) 0x210-0x214 (4)
0x210|            00 00 00 11                        |    ....        |        corr: 17 0x214-0x218 (4)
     |                                               |                |      [17]{}: leap_second_record 0x218-0x220 (8)
0x210|                        2c 32 29 11            |        ,2).    |        occur: "1993-07-01T00:00:17Z" (741484817) 0x218-0x21c (4)
0x210|                                    00 00 00 12|            ....|        corr: 18 0x21c-0x220 (4)
     |                                               |                |      [18]{}: leap_second_record 0x220-0x228 (8)
0x220|2e 13 5c 92                                    |..\.            |        occur: "1994-07-01T00:00:18Z" (773020818) 0x220-0x224 (4)
0x220|            00 00 00 13                        |    ....        |        corr: 19 0x224-0x228 (4)
     |                                               |                |      [19]{}: leap_second_record 0x228-0x230 (8)
0x220|                        30 e7 24 13            |        0.$.    |        occur: "1996-01-01T00:00:19Z" (820454419) 0x228-0x22c (4)
0x220|                                    00 00 00 14|            ....|        corr: 20 0x22c-0x230 (4)
     |                                               |                |      [20]{}: leap_second_record 0x230-0x238 (8)
0x230|33 b8 48 94                                    |3.H.            |        occur: "1997-07-01T00:00:20Z" (867715220) 0x230-0x234 (4)
0x230|            00 00 00 15                        |    ....        |        corr: 21 0x234-0x238 (4)
     |                                               |                |      [21]{}: leap_second_record 0x238-0x240 (8)
0x230|                        36 8c 10 15            |        6...    |        occur: "1999-01-01T00:00:21Z" (915148821) 0x238-0x23c (4)
0x230|                                    00 00 00 16|            ....|        corr: 22 0x23c-0x240 (4)
     |                                               |                |      [22]{}: leap_second_record 0x240-0x248 (8)
0x240|43 b7 1b 96                                    |C...            |        occur: "2006-01-01T00:00:22Z" (1136073622) 0x240-0x244 (4)
0x240|            00 00 00 17                        |    ....        |        corr: 23 0x244-0x248 (4)
     |                                               |                |      [23]{}: leap_second_record 0x248-0x250 (8)
0x240|                        49 5c 07 97            |        I\..    |        occur: "2009-01-01T00:00:23Z" (1230768023) 0x248-0x24c (4)
0x240|                                    00 00 00 18|            ....|        corr: 24 0x24c-0x250 (4)
     |                                               |                |      [24]{}: leap_second_record 0x250-0x258 (8)
0x250|4f ef 93 18                                    |O...            |        occur: "2012-07-01T00:00:24Z" (1341100824) 0x250-0x254 (4)
0x250|            00 00 00 19                        |    ....        |        corr: 25 0x254-0x258 (4)
     |                                               |                |      [25]{}: leap_second_record 0x258-0x260 (8)
0x250|                        55 93 2d 99            |        U.-.    |        occur: "2015-07-01T00:00:25Z" (1435708825) 0x258-0x25c (4)
0x250|                                    00 00 00 1a|            ....|        corr: 26 0x25c-0x260 (4)
     |                                               |                |      [26]{}: leap_second_record 0x260-0x268 (8)
0x260|58 68 46 9a                                    |XhF.            |        occur: "2017-01-01T00:00:26Z" (1483228826) 0x260-0x264 (4)
0x260|            00 00 00 1b                        |    ....        |        corr: 27 0x264-0x268 (4)
     |                                               |                |    standard_wall_indicators[0:0]: 0x268-0x268 (0)
     |                                               |                |    ut_local_indicators[0:0]: 0x268-0x268 (0)
     |                                               |                |  v2plusheader{}: 0x268-0x294 (44)
0x260|                        54 5a 69 66            |        TZif    |    magic: 0x545a6966 (valid) 0x268-0x26c (4)
0x260|                                    32         |            2   |    ver: "2" (0x32) (valid) 0x26c-0x26d (1)
0x260|                                       00 00 00|             ...|    reserved: raw bits 0x26d-0x27c (15)
0x270|00 00 00 00 00 00 00 00 00 00 00 00            |............    |
0x270|                                    00 00 00 00|            ....|    isutcnt: 0 0x27c-0x280 (4)
0x280|00 00 00 00                                    |....            |    isstdcnt: 0 0x280-0x284 (4)
0x280|            00 00 00 1b                        |    ....        |    leapcnt: 27 0x284-0x288 (4)
0x280|                        00 00 00 3c            |        ...<    |    timecnt: 60 0x288-0x28c (4)
0x280|                                    00 00 00 06|            ....|    typecnt: 6 0x28c-0x290 (4)
0x290|00 00 00 14                                    |....            |    charcnt: 20 0x290-0x294 (4)
     |                                               |                |  v2plusdatablock{}: 0x294-0x62c (920)
     |                                               |                |    transition_times[0:60]: 0x294-0x474 (480)
0x290|            ff ff ff ff 72 9c ae d4            |    ....r...    |      [0]: "1894-10-31T04:21:40Z" (-2372096300) transition_time 0x294-0x29c (8)
0x290|                                    ff ff ff ff|            ....|      [1]: "1920-05-01T04:16:48Z" (-1567453392) transition_time 0x29c-0x2a4 (8)
0x2a0|a2 92 8f 30                                    |...0            |
0x2a0|            ff ff ff ff b6 7b 52 40            |    .....{R@    |      [2]: "1930-12-01T04:00:00Z" (-1233432000) transition_time 0x2a4-0x2ac (8)
0x2a0|                                    ff ff ff ff|            ....|      [3]: "1931-04-01T03:00:00Z" (-1222981200) transition_time 0x2ac-0x2b4 (8)
0x2b0|b7 1a c9 b0                                    |....            |
0x2b0|            ff ff ff ff b8 1e 8f 40            |    .......@    |      [4]: "1931-10-15T04:00:00Z" (-1205956800) transition_time 0x2b4-0x2bc (8)
0x2b0|                                    ff ff ff ff|            ....|      [5]: "1932-03-01T03:00:00Z" (-1194037200) transition_time 0x2bc-0x2c4 (8)
0x2c0|b8 d4 70 30                                    |..p0            |
0x2c0|            ff ff ff ff ba 17 7d c0            |    ......}.    |      [6]: "1932-11-01T04:00:00Z" (-1172865600) transition_time 0x2c4-0x2cc (8)
0x2c0|                                    ff ff ff ff|            ....|      [7]: "1933-03-01T03:00:00Z" (-1162501200) transition_time 0x2cc-0x2d4 (8)
0x2d0|ba b5 a3 b0                                    |....            |
0x2d0|            ff ff ff ff bb f8 b1 40            |    .......@    |      [8]: "1933-11-01T04:00:00Z" (-1141329600) transition_time 0x2d4-0x2dc (8)
0x2d0|                                    ff ff ff ff|            ....|      [9]: "1934-03-01T03:00:00Z" (-1130965200) transition_time 0x2dc-0x2e4 (8)
0x2e0|bc 96 d7 30                                    |...0            |
0x2e0|            ff ff ff ff bd d9 e4 c0            |    ........    |      [10]: "1934-11-01T04:00:00Z" (-1109793600) transition_time 0x2e4-0x2ec (8)
0x2e0|                                    ff ff ff ff|            ....|      [11]: "1935-03-01T03:00:00Z" (-1099429200) transition_time 0x2ec-0x2f4 (8)
0x2f0|be 78 0a b0                                    |.x..            |
0x2f0|            ff ff ff ff bf bb 18 40            |    .......@    |      [12]: "1935-11-01T04:00:00Z" (-1078257600) transition_time 0x2f4-0x2fc (8)
0x2f0|                                    ff ff ff ff|            ....|      [13]: "1936-03-01T03:00:00Z" (-1067806800) transition_time 0x2fc-0x304 (8)
0x300|c0 5a 8f b0                                    |.Z..            |
0x300|            ff ff ff ff c1 9d 9d 40            |    .......@    |      [14]: "1936-11-01T04:00:00Z" (-1046635200) transition_time 0x304-0x30c (8)
0x300|                                    ff ff ff ff|            ....|      [15]: "1937-03-01T03:00:00Z" (-1036270800) transition_time 0x30c-0x314 (8)
0x310|c2 3b c3 30                                    |.;.0            |
0x310|            ff ff ff ff c3 7e d0 c0            |    .....~..    |      [16]: "1937-11-01T04:00:00Z" (-1015099200) transition_time 0x314-0x31c (8)
0x310|                                    ff ff ff ff|            ....|      [17]: "1938-03-01T03:00:00Z" (-1004734800) transition_time 0x31c-0x324 (8)
0x320|c4 1c f6 b0                                    |....            |
0x320|            ff ff ff ff c5 60 04 40            |    .....`.@    |      [18]: "1938-11-01T04:00:00Z" (-983563200) transition_time 0x324-0x32c (8)
0x320|                                    ff ff ff ff|            ....|      [19]: "1939-03-01T03:00:00Z" (-973198800) transition_time 0x32c-0x334 (8)
0x330|c5 fe 2a 30                                    |..*0            |
0x330|            ff ff ff ff c7 41 37 c0            |    .....A7.    |      [20]: "1939-11-01T04:00:00Z" (-952027200) transition_time 0x334-0x33c (8)
0x330|                                    ff ff ff ff|            ....|      [21]: "1940-03-01T03:00:00Z" (-941576400) transition_time 0x33c-0x344 (8)
0x340|c7 e0 af 30                                    |...0            |
0x340|            ff ff ff ff c8 81 94 40            |    .......@    |      [22]: "1940-07-01T04:00:00Z" (-931032000) transition_time 0x344-0x34c (8)
0x340|                                    ff ff ff ff|            ....|      [23]: "1941-06-15T03:00:00Z" (-900882000) transition_time 0x34c-0x354 (8)
0x350|ca 4d a1 b0                                    |.M..            |
0x350|            ff ff ff ff ca ee 86 c0            |    ........    |      [24]: "1941-10-15T04:00:00Z" (-890337600) transition_time 0x354-0x35c (8)
0x350|                                    ff ff ff ff|            ....|      [25]: "1943-08-01T03:00:00Z" (-833749200) transition_time 0x35c-0x364 (8)
0x360|ce 4d ff 30                                    |.M.0            |
0x360|            ff ff ff ff ce b0 ed c0            |    ........    |      [26]: "1943-10-15T04:00:00Z" (-827265600) transition_time 0x364-0x36c (8)
0x360|                                    ff ff ff ff|            ....|      [27]: "1946-03-01T03:00:00Z" (-752274000) transition_time 0x36c-0x374 (8)
0x370|d3 29 35 b0                                    |.)5.            |
0x370|            ff ff ff ff d4 43 64 c0            |    .....Cd.    |      [28]: "1946-10-01T04:00:00Z" (-733780800) transition_time 0x374-0x37c (8)
0x370|                                    ff ff ff ff|            ....|      [29]: "1963-10-01T03:00:00Z" (-197326800) transition_time 0x37c-0x384 (8)
0x380|f4 3d 08 30                                    |.=.0            |
0x380|            ff ff ff ff f4 9f f6 c0            |    ........    |      [30]: "1963-12-15T04:00:00Z" (-190843200) transition_time 0x384-0x38c (8)
0x380|                                    ff ff ff ff|            ....|      [31]: "1964-03-01T03:00:00Z" (-184194000) transition_time 0x38c-0x394 (8)
0x390|f5 05 6c 30                                    |..l0            |
0x390|            ff ff ff ff f6 32 10 40            |    .....2.@    |      [32]: "1964-10-15T04:00:00Z" (-164491200) transition_time 0x394-0x39c (8)
0x390|                                    ff ff ff ff|            ....|      [33]: "1965-03-01T03:00:00Z" (-152658000) transition_time 0x39c-0x3a4 (8)
0x3a0|f6 e6 9f b0                                    |....            |
0x3a0|            ff ff ff ff f8 13 43 c0            |    ......C.    |      [34]: "1965-10-15T04:00:00Z" (-132955200) transition_time 0x3a4-0x3ac (8)
0x3a0|                                    ff ff ff ff|            ....|      [35]: "1966-03-01T03:00:00Z" (-121122000) transition_time 0x3ac-0x3b4 (8)
0x3b0|f8 c7 d3 30                                    |...0            |
0x3b0|            ff ff ff ff f9 f4 77 40            |    ......w@    |      [36]: "1966-10-15T04:00:00Z" (-101419200) transition_time 0x3b4-0x3bc (8)
0x3b0|                                    ff ff ff ff|            ....|      [37]: "1967-04-02T03:00:00Z" (-86821200) transition_time 0x3bc-0x3c4 (8)
0x3c0|fa d3 36 b0                                    |..6.            |
0x3c0|            ff ff ff ff fb c3 35 c0            |    ......5.    |      [38]: "1967-10-01T04:00:00Z" (-71092800) transition_time 0x3c4-0x3cc (8)
0x3c0|                                    ff ff ff ff|            ....|      [39]: "1968-04-07T03:00:00Z" (-54766800) transition_time 0x3cc-0x3d4 (8)
0x3d0|fc bc 53 30                                    |..S0            |
0x3d0|            ff ff ff ff fd ac 52 40            |    ......R@    |      [40]: "1968-10-06T04:00:00Z" (-39038400) transition_time 0x3d4-0x3dc (8)
0x3d0|                                    ff ff ff ff|            ....|      [41]: "1969-04-06T03:00:00Z" (-23317200) transition_time 0x3dc-0x3e4 (8)
0x3e0|fe 9c 35 30                                    |..50            |
0x3e0|            ff ff ff ff ff 8c 34 40            |    ......4@    |      [42]: "1969-10-05T04:00:00Z" (-7588800) transition_time 0x3e4-0x3ec (8)
0x3e0|                                    00 00 00 00|            ....|      [43]: "1974-01-23T03:00:03Z" (128142003) transition_time 0x3ec-0x3f4 (8)
0x3f0|07 a3 4a b3                                    |..J.            |
0x3f0|            00 00 00 00 08 24 6f a3            |    .....$o.    |      [44]: "1974-05-01T02:00:03Z" (136605603) transition_time 0x3f4-0x3fc (8)
0x3f0|                                    00 00 00 00|            ....|      [45]: "1988-12-01T03:00:14Z" (596948414) transition_time 0x3fc-0x404 (8)
0x400|23 94 b5 be                                    |#...            |
0x400|            00 00 00 00 24 10 94 ae            |    ....$...    |      [46]: "1989-03-05T02:00:14Z" (605066414) transition_time 0x404-0x40c (8)
0x400|                                    00 00 00 00|            ....|      [47]: "1989-10-15T03:00:14Z" (624423614) transition_time 0x40c-0x414 (8)
0x410|25 37 f2 be                                    |%7..            |
0x410|            00 00 00 00 25 f0 76 af            |    ....%.v.    |      [48]: "1990-03-04T02:00:15Z" (636516015) transition_time 0x414-0x41c (8)
0x410|                                    00 00 00 00|            ....|      [49]: "1990-10-21T03:00:15Z" (656478015) transition_time 0x41c-0x424 (8)
0x420|27 21 0f 3f                                    |'!.?            |
0x420|            00 00 00 00 27 d0 58 b0            |    ....'.X.    |      [50]: "1991-03-03T02:00:16Z" (667965616) transition_time 0x424-0x42c (8)
0x420|                                    00 00 00 00|            ....|      [51]: "1991-10-20T04:00:16Z" (687931216) transition_time 0x42c-0x434 (8)
0x430|29 00 ff 50                                    |)..P            |
0x430|            00 00 00 00 29 b0 3a b0            |    ....).:.    |      [52]: "1992-03-01T02:00:16Z" (699415216) transition_time 0x434-0x43c (8)
0x430|                                    00 00 00 00|            ....|      [53]: "1992-10-18T03:00:17Z" (719377217) transition_time 0x43c-0x444 (8)
0x440|2a e0 d3 41                                    |*..A            |
0x440|            00 00 00 00 2b 99 57 31            |    ....+.W1    |      [54]: "1993-03-07T02:00:17Z" (731469617) transition_time 0x444-0x44c (8)
0x440|                                    00 00 00 00|            ....|      [55]: "1999-10-03T03:00:22Z" (938919622) transition_time 0x44c-0x454 (8)
0x450|37 f6 c6 c6                                    |7...            |
0x450|            00 00 00 00 38 bf 2a c6            |    ....8.*.    |      [56]: "2000-03-03T03:00:22Z" (952052422) transition_time 0x454-0x45c (8)
0x450|                                    00 00 00 00|            ....|      [57]: "2007-12-30T03:00:23Z" (1198983623) transition_time 0x45c-0x464 (8)
0x460|47 77 09 c7                                    |Gw..            |
0x460|            00 00 00 00 47 dc 7f 37            |    ....G..7    |      [58]: "2008-03-16T02:00:23Z" (1205632823) transition_time 0x464-0x46c (8)
0x460|                                    00 00 00 00|            ....|      [59]: "2023-06-28T00:00:27Z" (1687910427) transition_time 0x46c-0x474 (8)
0x470|64 9b 78 1b                                    |d.x.            |
     |                                               |                |    transition_types[0:60]: 0x474-0x4b0 (60)
0x470|            01                                 |    .           |      [0]: 1 transition_type 0x474-0x475 (1)
0x470|               02                              |     .          |      [1]: 2 transition_type 0x475-0x476 (1)
0x470|                  03                           |      .         |      [2]: 3 transition_type 0x476-0x477 (1)
0x470|                     02                        |       .        |      [3]: 2 transition_type 0x477-0x478 (1)
0x470|                        03                     |        .       |      [4]: 3 transition_type 0x478-0x479 (1)
0x470|                           02                  |         .      |      [5]: 2 transition_type 0x479-0x47a (1)
0x470|                              03               |          .     |      [6]: 3 transition_type 0x47a-0x47b (1)
0x470|                                 02            |           .    |      [7]: 2 transition_type 0x47b-0x47c (1)
0x470|                                    03         |            .   |      [8]: 3 transition_type 0x47c-0x47d (1)
0x470|                                       02      |             .  |      [9]: 2 transition_type 0x47d-0x47e (1)
0x470|                                          03   |              . |      [10]: 3 transition_type 0x47e-0x47f (1)
0x470|                                             02|               .|      [11]: 2 transition_type 0x47f-0x480 (1)
0x480|03                                             |.               |      [12]: 3 transition_type 0x480-0x481 (1)
0x480|   02                                          | .              |      [13]: 2 transition_type 0x481-0x482 (1)
0x480|      03                                       |  .             |      [14]: 3 transition_type 0x482-0x483 (1)
0x480|         02                                    |   .            |      [15]: 2 transition_type 0x483-0x484 (1)
0x480|            03                                 |    .           |      [16]: 3 transition_type 0x484-0x485 (1)
0x480|               02                              |     .          |      [17]: 2 transition_type 0x485-0x486 (1)
0x480|                  03                           |      .         |      [18]: 3 transition_type 0x486-0x487 (1)
0x480|                     02                        |       .        |      [19]: 2 transition_type 0x487-0x488 (1)
0x480|                        03                     |        .       |      [20]: 3 transition_type 0x488-0x489 (1)
0x480|                           02                  |         .      |      [21]: 2 transition_type 0x489-0x48a (1)
0x480|                              03               |          .     |      [22]: 3 transition_type 0x48a-0x48b (1)
0x480|                                 02            |           .    |      [23]: 2 transition_type 0x48b-0x48c (1)
0x480|                                    03         |            .   |      [24]: 3 transition_type 0x48c-0x48d (1)
0x480|                                       02      |             .  |      [25]: 2 transition_type 0x48d-0x48e (1)
0x480|                                          03   |              . |      [26]: 3 transition_type 0x48e-0x48f (1)
0x480|                                             02|               .|      [27]: 2 transition_type 0x48f-0x490 (1)
0x490|03                                             |.               |      [28]: 3 transition_type 0x490-0x491 (1)
0x490|   02                                          | .              |      [29]: 2 transition_type 0x491-0x492 (1)
0x490|      03                                       |  .             |      [30]: 3 transition_type 0x492-0x493 (1)
0x490|         02                                    |   .            |      [31]: 2 transition_type 0x493-0x494 (1)
0x490|            03                                 |    .           |      [32]: 3 transition_type 0x494-0x495 (1)
0x490|               02                              |     .          |      [33]: 2 transition_type 0x495-0x496 (1)
0x490|                  03                           |      .         |      [34]: 3 transition_type 0x496-0x497 (1)
0x490|                     02                        |       .        |      [35]: 2 transition_type 0x497-0x498 (1)
0x490|                        03                     |        .       |      [36]: 3 transition_type 0x498-0x499 (1)
0x490|                           02                  |         .      |      [37]: 2 transition_type 0x499-0x49a (1)
0x490|                              03               |          .     |      [38]: 3 transition_type 0x49a-0x49b (1)
0x490|                                 02            |           .    |      [39]: 2 transition_type 0x49b-0x49c (1)
0x490|                                    03         |            .   |      [40]: 3 transition_type 0x49c-0x49d (1)
0x490|                                       02      |             .  |      [41]: 2 transition_type 0x49d-0x49e (1)
0x490|                                          05   |              . |      [42]: 5 transition_type 0x49e-0x49f (1)
0x490|                                             04|               .|      [43]: 4 transition_type 0x49f-0x4a0 (1)
0x4a0|05                                             |.               |      [44]: 5 transition_type 0x4a0-0x4a1 (1)
0x4a0|   04                                          | .              |      [45]: 4 transition_type 0x4a1-0x4a2 (1)
0x4a0|      05                                       |  .             |      [46]: 5 transition_type 0x4a2-0x4a3 (1)
0x4a0|         04                                    |   .            |      [47]: 4 transition_type 0x4a3-0x4a4 (1)
0x4a0|            05                                 |    .           |      [48]: 5 transition_type 0x4a4-0x4a5 (1)
0x4a0|               04                              |     .          |      [49]: 4 transition_type 0x4a5-0x4a6 (1)
0x4a0|                  02                           |      .         |      [50]: 2 transition_type 0x4a6-0x4a7 (1)
0x4a0|                     04                        |       .        |      [51]: 4 transition_type 0x4a7-0x4a8 (1)
0x4a0|                        05                     |        .       |      [52]: 5 transition_type 0x4a8-0x4a9 (1)
0x4a0|                           04                  |         .      |      [53]: 4 transition_type 0x4a9-0x4aa (1)
0x4a0|                              05               |          .     |      [54]: 5 transition_type 0x4aa-0x4ab (1)
0x4a0|                                 03            |           .    |      [55]: 3 transition_type 0x4ab-0x4ac (1)
0x4a0|                                    05         |            .   |      [56]: 5 transition_type 0x4ac-0x4ad (1)
0x4a0|                                       04      |             .  |      [57]: 4 transition_type 0x4ad-0x4ae (1)
0x4a0|                                          05   |              . |      [58]: 5 transition_type 0x4ae-0x4af (1)
0x4a0|                                             05|               .|      [59]: 5 transition_type 0x4af-0x4b0 (1)
     |                                               |                |    local_time_type_records[0:6]: 0x4b0-0x4d4 (36)
     |                                               |                |      [0]{}: local_time_type 0x4b0-0x4b6 (6)
0x4b0|ff ff c2 ac                                    |....            |        utoff: -15700 (valid) 0x4b0-0x4b4 (4)
0x4b0|            00                                 |    .           |        dst: 0 (valid) 0x4b4-0x4b5 (1)
0x4b0|               00                              |     .          |        idx: 0 (valid) 0x4b5-0x4b6 (1)
     |                                               |                |      [1]{}: local_time_type 0x4b6-0x4bc (6)
0x4b0|                  ff ff c3 d0                  |      ....      |        utoff: -15408 (valid) 0x4b6-0x4ba (4)
0x4b0|                              00               |          .     |        dst: 0 (valid) 0x4ba-0x4bb (1)
0x4b0|                                 04            |           .    |        idx: 4 (valid) 0x4bb-0x4bc (1)
     |                                               |                |      [2]{}: local_time_type 0x4bc-0x4c2 (6)
0x4b0|                                    ff ff c7 c0|            ....|        utoff: -14400 (valid) 0x4bc-0x4c0 (4)
0x4c0|00                                             |.               |        dst: 0 (valid) 0x4c0-0x4c1 (1)
0x4c0|   08                                          | .              |        idx: 8 (valid) 0x4c1-0x4c2 (1)
     |                                               |                |      [3]{}: local_time_type 0x4c2-0x4c8 (6)
0x4c0|      ff ff d5 d0                              |  ....          |        utoff: -10800 (valid) 0x4c2-0x4c6 (4)
0x4c0|                  01                           |      .         |        dst: 1 (valid) 0x4c6-0x4c7 (1)
0x4c0|                     0c                        |       .        |        idx: 12 (valid) 0x4c7-0x4c8 (1)
     |                                               |                |      [4]{}: local_time_type 0x4c8-0x4ce (6)
0x4c0|                        ff ff e3 e0            |        ....    |        utoff: -7200 (valid) 0x4c8-0x4cc (4)
0x4c0|                                    01         |            .   |        dst: 1 (valid) 0x4cc-0x4cd (1)
0x4c0|                                       10      |             .  |        idx: 16 (valid) 0x4cd-0x4ce (1)
     |                                               |                |      [5]{}: local_time_type 0x4ce-0x4d4 (6)
0x4c0|                                          ff ff|              ..|        utoff: -10800 (valid) 0x4ce-0x4d2 (4)
0x4d0|d5 d0                                          |..              |
0x4d0|      00                                       |  .             |        dst: 0 (valid) 0x4d2-0x4d3 (1)
0x4d0|         0c                                    |   .            |        idx: 12 (valid) 0x4d3-0x4d4 (1)
     |                                               |                |    time_zone_designations[0:5]: 0x4d4-0x4e8 (20)
0x4d0|            4c 4d 54 00                        |    LMT.        |      [0]: "LMT" time_zone_designation 0x4d4-0x4d8 (4)
0x4d0|                        43 4d 54 00            |        CMT.    |      [1]: "CMT" time_zone_designation 0x4d8-0x4dc (4)
0x4d0|                                    2d 30 34 00|            -04.|      [2]: "-04" time_zone_designation 0x4dc-0x4e0 (4)
0x4e0|2d 30 33 00                                    |-03.            |      [3]: "-03" time_zone_designation 0x4e0-0x4e4 (4)
0x4e0|            2d 30 32 00                        |    -02.        |      [4]: "-02" time_zone_designation 0x4e4-0x4e8 (4)
     |                                               |                |    leap_second_records[0:27]: 0x4e8-0x62c (324)
     |                                               |                |      [0]{}: leap_second_record 0x4e8-0x4f4 (12)
0x4e0|                        00 00 00 00 04 b2 58 00|        ......X.|        occur: "1972-07-01T00:00:00Z" (78796800) 0x4e8-0x4f0 (8)
0x4f0|00 00 00 01                                    |....            |        corr: 1 0x4f0-0x4f4 (4)
     |                                               |                |      [1]{}: leap_second_record 0x4f4-0x500 (12)
0x4f0|            00 00 00 00 05 a4 ec 01            |    ........    |        occur: "1973-01-01T00:00:01Z" (94694401) 0x4f4-0x4fc (8)
0x4f0|                                    00 00 00 02|            ....|        corr: 2 0x4fc-0x500 (4)
     |                                               |                |      [2]{}: leap_second_record 0x500-0x50c (12)
0x500|00 00 00 00 07 86 1f 82                        |........        |        occur: "1974-01-01T00:00:02Z" (126230402) 0x500-0x508 (8)
0x500|                        00 00 00 03            |        ....    |        corr: 3 0x508-0x50c (4)
     |                                               |                |      [3]{}: leap_second_record 0x50c-0x518 (12)
0x500|                                    00 00 00 00|            ....|        occur: "1975-01-01T00:00:03Z" (157766403) 0x50c-0x514 (8)
0x510|09 67 53 03                                    |.gS.            |
0x510|            00 00 00 04                        |    ....        |        corr: 4 0x514-0x518 (4)
     |                                               |                |      [4]{}: leap_second_record 0x518-0x524 (12)
0x510|                        00 00 00 00 0b 48 86 84|        .....H..|        occur: "1976-01-01T00:00:04Z" (189302404) 0x518-0x520 (8)
0x520|00 00 00 05                                    |....            |        corr: 5 0x520-0x524 (4)
     |                                               |                |      [5]{}: leap_second_record 0x524-0x530 (12)
0x520|            00 00 00 00 0d 2b 0b 85            |    .....+..    |        occur: "1977-01-01T00:00:05Z" (220924805) 0x524-0x52c (8)
0x520|                                    00 00 00 06|            ....|        corr: 6 0x52c-0x530 (4)
     |                                               |                |      [6]{}: leap_second_record 0x530-0x53c (12)
0x530|00 00 00 00 0f 0c 3f 06                        |......?.        |        occur: "1978-01-01T00:00:06Z" (252460806) 0x530-0x538 (8)
0x530|                        00 00 00 07            |        ....    |        corr: 7 0x538-0x53c (4)
     |                                               |                |      [7]{}: leap_second_record 0x53c-0x548 (12)
0x530|                                    00 00 00 00|            ....|        occur: "1979-01-01T00:00:07Z" (283996807) 0x53c-0x544 (8)
0x540|10 ed 72 87                                    |..r.            |
0x540|            00 00 00 08                        |    ....        |        corr: 8 0x544-0x548 (4)
     |                                               |                |      [8]{}: leap_second_record 0x548-0x554 (12)
0x540|                        00 00 00 00 12 ce a6 08|        ........|        occur: "1980-01-01T00:00:08Z" (315532808) 0x548-0x550 (8)
0x550|00 00 00 09                                    |....            |        corr: 9 0x550-0x554 (4)
     |                                               |                |      [9]{}: leap_second_record 0x554-0x560 (12)
0x550|            00 00 00 00 15 9f ca 89            |    ........    |        occur: "1981-07-01T00:00:09Z" (362793609) 0x554-0x55c (8)
0x550|                                    00 00 00 0a|            ....|        corr: 10 0x55c-0x560 (4)
     |                                               |                |      [10]{}: leap_second_record 0x560-0x56c (12)
0x560|00 00 00 00 17 80 fe 0a                        |........        |        occur: "1982-07-01T00:00:10Z" (394329610) 0x560-0x568 (8)
0x560|                        00 00 00 0b            |        ....    |        corr: 11 0x568-0x56c (4)
     |                                               |                |      [11]{}: leap_second_record 0x56c-0x578 (12)
0x560|                                    00 00 00 00|            ....|        occur: "1983-07-01T00:00:11Z" (425865611) 0x56c-0x574 (8)
0x570|19 62 31 8b                                    |.b1.            |
0x570|            00 00 00 0c                        |    ....        |        corr: 12 0x574-0x578 (4)
     |                                               |                |      [12]{}: leap_second_record 0x578-0x584 (12)
0x570|                        00 00 00 00 1d 25 ea 0c|        .....%..|        occur: "1985-07-01T00:00:12Z" (489024012) 0x578-0x580 (8)
0x580|00 00 00 0d                                    |....            |        corr: 13 0x580-0x584 (4)
     |                                               |                |      [13]{}: leap_second_record 0x584-0x590 (12)
0x580|            00 00 00 00 21 da e5 0d            |    ....!...    |        occur: "1988-01-01T00:00:13Z" (567993613) 0x584-0x58c (8)
0x580|                                    00 00 00 0e|            ....|        corr: 14 0x58c-0x590 (4)
     |                                               |                |      [14]{}: leap_second_record 0x590-0x59c (12)
0x590|00 00 00 00 25 9e 9d 8e                        |....%...        |        occur: "1990-01-01T00:00:14Z" (631152014) 0x590-0x598 (8)
0x590|                        00 00 00 0f            |        ....    |        corr: 15 0x598-0x59c (4)
     |                                               |                |      [15]{}: leap_second_record 0x59c-0x5a8 (12)
0x590|                                    00 00 00 00|            ....|        occur: "1991-01-01T00:00:15Z" (662688015) 0x59c-0x5a4 (8)
0x5a0|27 7f d1 0f                                    |'...            |
0x5a0|            00 00 00 10                        |    ....        |        corr: 16 0x5a4-0x5a8 (4)
     |                                               |                |      [16]{}: leap_second_record 0x5a8-0x5b4 (12)
0x5a0|                        00 00 00 00 2a 50 f5 90|        ....*P..|        occur: "1992-07-01T00:00:16Z" (709948816) 0x5a8-0x5b0 (8)
0x5b0|00 00 00 11                                    |....            |        corr: 17 0x5b0-0x5b4 (4)
     |                                               |                |      [17]{}: leap_second_record 0x5b4-0x5c0 (12)
0x5b0|            00 00 00 00 2c 32 29 11            |    ....,2).    |        occur: "1993-07-01T00:00:17Z" (741484817) 0x5b4-0x5bc (8)
0x5b0|                                    00 00 00 12|            ....|        corr: 18 0x5bc-0x5c0 (4)
     |                                               |                |      [18]{}: leap_second_record 0x5c0-0x5cc (12)
0x5c0|00 00 00 00 2e 13 5c 92                        |......\.        |        occur: "1994-07-01T00:00:18Z" (773020818) 0x5c0-0x5c8 (8)
0x5c0|                        00 00 00 13            |        ....    |        corr: 19 0x5c8-0x5cc (4)
     |                                               |                |      [19]{}: leap_second_record 0x5cc-0x5d8 (12)
0x5c0|                                    00 00 00 00|            ....|        occur: "1996-01-01T00:00:19Z" (820454419) 0x5cc-0x5d4 (8)
0x5d0|30 e7 24 13                                    |0.$.            |
0x5d0|            00 00 00 14                        |    ....        |        corr: 20 0x5d4-0x5d8 (4)
     |                                               |                |      [20]{}: leap_second_record 0x5d8-0x5e4 (12)
0x5d0|                        00 00 00 00 33 b8 48 94|        ....3.H.|        occur: "1997-07-01T00:00:20Z" (867715220) 0x5d8-0x5e0 (8)
0x5e0|00 00 00 15                                    |....            |        corr: 21 0x5e0-0x5e4 (4)
     |                                               |                |      [21]{}: leap_second_record 0x5e4-0x5f0 (12)
0x5e0|            00 00 00 00 36 8c 10 15            |    ....6...    |        occur: "1999-01-01T00:00:21Z" (915148821) 0x5e4-0x5ec (8)
0x5e0|                                    00 00 00 16|            ....|        corr: 22 0x5ec-0x5f0 (4)
     |                                               |                |      [22]{}: leap_second_record 0x5f0-0x5fc (12)
0x5f0|00 00 00 00 43 b7 1b 96                        |....C...        |        occur: "2006-01-01T00:00:22Z" (1136073622) 0x5f0-0x5f8 (8)
0x5f0|                        00 00 00 17            |        ....    |        corr: 23 0x5f8-0x5fc (4)
     |                                               |                |      [23]{}: leap_second_record 0x5fc-0x608 (12)
0x5f0|                                    00 00 00 00|            ....|        occur: "2009-01-01T00:00:23Z" (1230768023) 0x5fc-0x604 (8)
0x600|49 5c 07 97                                    |I\..            |
0x600|            00 00 00 18                        |    ....        |        corr: 24 0x604-0x608 (4)
     |                                               |                |      [24]{}: leap_second_record 0x608-0x614 (12)
0x600|                        00 00 00 00 4f ef 93 18|        ....O...|        occur: "2012-07-01T00:00:24Z" (1341100824) 0x608-0x610 (8)
0x610|00 00 00 19                                    |....            |        corr: 25 0x610-0x614 (4)
     |                                               |                |      [25]{}: leap_second_record 0x614-0x620 (12)
0x610|            00 00 00 00 55 93 2d 99            |    ....U.-.    |        occur: "2015-07-01T00:00:25Z" (1435708825) 0x614-0x61c (8)
0x610|                                    00 00 00 1a|            ....|        corr: 26 0x61c-0x620 (4)
     |                                               |                |      [26]{}: leap_second_record 0x620-0x62c (12)
0x620|00 00 00 00 58 68 46 9a                        |....XhF.        |        occur: "2017-01-01T00:00:26Z" (1483228826) 0x620-0x628 (8)
0x620|                        00 00 00 1b            |        ....    |        corr: 27 0x628-0x62c (4)
     |                                               |                |    standard_wall_indicators[0:0]: 0x62c-0x62c (0)
     |                                               |                |    ut_local_indicators[0:0]: 0x62c-0x62c (0)
     |                                               |                |  footer{}: 0x62c-0x62e (2)
0x620|                                    0a         |            .   |    nl1: 10 (valid) 0x62c-0x62d (1)
     |                                               |                |    tz_string: "" 0x62d-0x62d (0)
0x620|                                       0a|     |             .| |    nl2: 10 (valid) 0x62d-0x62e (1)
