$ fq -d tzif dv Samarkand
     |00 01 02 03 04 05 06 07 08 09 0a 0b 0c 0d 0e 0f|0123456789abcdef|.{}: Samarkand (tzif) 0x0-0x456 (1110)
     |                                               |                |  v1header{}: 0x0-0x2c (44)
0x000|54 5a 69 66                                    |TZif            |    magic: 0x545a6966 (valid) 0x0-0x4 (4)
0x000|            32                                 |    2           |    ver: "2" (0x32) (valid) 0x4-0x5 (1)
0x000|               00 00 00 00 00 00 00 00 00 00 00|     ...........|    reserved: raw bits 0x5-0x14 (15)
0x010|00 00 00 00                                    |....            |
0x010|            00 00 00 00                        |    ....        |    isutcnt: 0 0x14-0x18 (4)
0x010|                        00 00 00 07            |        ....    |    isstdcnt: 7 0x18-0x1c (4)
0x010|                                    00 00 00 1b|            ....|    leapcnt: 27 0x1c-0x20 (4)
0x020|00 00 00 19                                    |....            |    timecnt: 25 0x20-0x24 (4)
0x020|            00 00 00 07                        |    ....        |    typecnt: 7 0x24-0x28 (4)
0x020|                        00 00 00 10            |        ....    |    charcnt: 16 0x28-0x2c (4)
     |                                               |                |  v1datablock{}: 0x2c-0x1c2 (406)
     |                                               |                |    transition_times[0:25]: 0x2c-0x90 (100)
0x020|                                    aa 19 85 37|            ...7|      [0]: "1924-05-01T19:32:07Z" (-1441168073) transition_time 0x2c-0x30 (4)
0x030|b5 a3 fd 40                                    |...@            |      [1]: "1930-06-20T20:00:00Z" (-1247544000) transition_time 0x30-0x34 (4)
0x030|            15 27 8b b9                        |    .'..        |      [2]: "1981-03-31T19:00:09Z" (354913209) transition_time 0x34-0x38 (4)
0x030|                        16 18 c0 2a            |        ...*    |      [3]: "1981-09-30T18:00:10Z" (370720810) transition_time 0x38-0x3c (4)
0x030|                                    17 08 b1 2a|            ...*|      [4]: "1982-03-31T18:00:10Z" (386445610) transition_time 0x3c-0x40 (4)
0x040|17 f9 f3 ab                                    |....            |      [5]: "1982-09-30T18:00:11Z" (402256811) transition_time 0x40-0x44 (4)
0x040|            18 e9 f2 bb                        |    ....        |      [6]: "1983-03-31T19:00:11Z" (417985211) transition_time 0x44-0x48 (4)
0x040|                        19 db 27 2c            |        ..',    |      [7]: "1983-09-30T18:00:12Z" (433792812) transition_time 0x48-0x4c (4)
0x040|                                    1a cc 77 bc|            ..w.|      [8]: "1984-03-31T19:00:12Z" (449607612) transition_time 0x4c-0x50 (4)
0x050|1b bc 84 dc                                    |....            |      [9]: "1984-09-29T21:00:12Z" (465339612) transition_time 0x50-0x54 (4)
0x050|            1c ac 75 dc                        |    ..u.        |      [10]: "1985-03-30T21:00:12Z" (481064412) transition_time 0x54-0x58 (4)
0x050|                        1d 9c 66 dd            |        ..f.    |      [11]: "1985-09-28T21:00:13Z" (496789213) transition_time 0x58-0x5c (4)
0x050|                                    1e 8c 57 dd|            ..W.|      [12]: "1986-03-29T21:00:13Z" (512514013) transition_time 0x5c-0x60 (4)
0x060|1f 7c 48 dd                                    |.|H.            |      [13]: "1986-09-27T21:00:13Z" (528238813) transition_time 0x60-0x64 (4)
0x060|            20 6c 39 dd                        |     l9.        |      [14]: "1987-03-28T21:00:13Z" (543963613) transition_time 0x64-0x68 (4)
0x060|                        21 5c 2a dd            |        !\*.    |      [15]: "1987-09-26T21:00:13Z" (559688413) transition_time 0x68-0x6c (4)
0x060|                                    22 4c 1b de|            "L..|      [16]: "1988-03-26T21:00:14Z" (575413214) transition_time 0x6c-0x70 (4)
0x070|23 3c 0c de                                    |#<..            |      [17]: "1988-09-24T21:00:14Z" (591138014) transition_time 0x70-0x74 (4)
0x070|            24 2b fd de                        |    $+..        |      [18]: "1989-03-25T21:00:14Z" (606862814) transition_time 0x74-0x78 (4)
0x070|                        25 1b ee de            |        %...    |      [19]: "1989-09-23T21:00:14Z" (622587614) transition_time 0x78-0x7c (4)
0x070|                                    26 0b df df|            &...|      [20]: "1990-03-24T21:00:15Z" (638312415) transition_time 0x7c-0x80 (4)
0x080|27 05 0b 5f                                    |'.._            |      [21]: "1990-09-29T21:00:15Z" (654642015) transition_time 0x80-0x84 (4)
0x080|            27 f4 fc 60                        |    '..`        |      [22]: "1991-03-30T21:00:16Z" (670366816) transition_time 0x84-0x88 (4)
0x080|                        28 e4 ed 60            |        (..`    |      [23]: "1991-09-28T21:00:16Z" (686091616) transition_time 0x88-0x8c (4)
0x080|                                    64 9b 78 1b|            d.x.|      [24]: "2023-06-28T00:00:27Z" (1687910427) transition_time 0x8c-0x90 (4)
     |                                               |                |    transition_types[0:25]: 0x90-0xa9 (25)
0x090|01                                             |.               |      [0]: 1 transition_type 0x90-0x91 (1)
0x090|   02                                          | .              |      [1]: 2 transition_type 0x91-0x92 (1)
0x090|      03                                       |  .             |      [2]: 3 transition_type 0x92-0x93 (1)
0x090|         04                                    |   .            |      [3]: 4 transition_type 0x93-0x94 (1)
0x090|            03                                 |    .           |      [4]: 3 transition_type 0x94-0x95 (1)
0x090|               02                              |     .          |      [5]: 2 transition_type 0x95-0x96 (1)
0x090|                  03                           |      .         |      [6]: 3 transition_type 0x96-0x97 (1)
0x090|                     02                        |       .        |      [7]: 2 transition_type 0x97-0x98 (1)
0x090|                        03                     |        .       |      [8]: 3 transition_type 0x98-0x99 (1)
0x090|                           05                  |         .      |      [9]: 5 transition_type 0x99-0x9a (1)
0x090|                              06               |          .     |      [10]: 6 transition_type 0x9a-0x9b (1)
0x090|                                 05            |           .    |      [11]: 5 transition_type 0x9b-0x9c (1)
0x090|                                    06         |            .   |      [12]: 6 transition_type 0x9c-0x9d (1)
0x090|                                       05      |             .  |      [13]: 5 transition_type 0x9d-0x9e (1)
0x090|                                          06   |              . |      [14]: 6 transition_type 0x9e-0x9f (1)
0x090|                                             05|               .|      [15]: 5 transition_type 0x9f-0xa0 (1)
0x0a0|06                                             |.               |      [16]: 6 transition_type 0xa0-0xa1 (1)
0x0a0|   05                                          | .              |      [17]: 5 transition_type 0xa1-0xa2 (1)
0x0a0|      06                                       |  .             |      [18]: 6 transition_type 0xa2-0xa3 (1)
0x0a0|         05                                    |   .            |      [19]: 5 transition_type 0xa3-0xa4 (1)
0x0a0|            06                                 |    .           |      [20]: 6 transition_type 0xa4-0xa5 (1)
0x0a0|               05                              |     .          |      [21]: 5 transition_type 0xa5-0xa6 (1)
0x0a0|                  06                           |      .         |      [22]: 6 transition_type 0xa6-0xa7 (1)
0x0a0|                     05                        |       .        |      [23]: 5 transition_type 0xa7-0xa8 (1)
0x0a0|                        05                     |        .       |      [24]: 5 transition_type 0xa8-0xa9 (1)
     |                                               |                |    local_time_type_records[0:7]: 0xa9-0xd3 (42)
     |                                               |                |      [0]{}: local_time_type 0xa9-0xaf (6)
0x0a0|                           00 00 3e c9         |         ..>.   |        utoff: 16073 (valid) 0xa9-0xad (4)
0x0a0|                                       00      |             .  |        dst: 0 (valid) 0xad-0xae (1)
0x0a0|                                          00   |              . |        idx: 0 (valid) 0xae-0xaf (1)
     |                                               |                |      [1]{}: local_time_type 0xaf-0xb5 (6)
0x0a0|                                             00|               .|        utoff: 14400 (valid) 0xaf-0xb3 (4)
0x0b0|00 38 40                                       |.8@             |
0x0b0|         00                                    |   .            |        dst: 0 (valid) 0xb3-0xb4 (1)
0x0b0|            04                                 |    .           |        idx: 4 (valid) 0xb4-0xb5 (1)
     |                                               |                |      [2]{}: local_time_type 0xb5-0xbb (6)
0x0b0|               00 00 46 50                     |     ..FP       |        utoff: 18000 (valid) 0xb5-0xb9 (4)
0x0b0|                           00                  |         .      |        dst: 0 (valid) 0xb9-0xba (1)
0x0b0|                              08               |          .     |        idx: 8 (valid) 0xba-0xbb (1)
     |                                               |                |      [3]{}: local_time_type 0xbb-0xc1 (6)
0x0b0|                                 00 00 54 60   |           ..T` |        utoff: 21600 (valid) 0xbb-0xbf (4)
0x0b0|                                             01|               .|        dst: 1 (valid) 0xbf-0xc0 (1)
0x0c0|0c                                             |.               |        idx: 12 (valid) 0xc0-0xc1 (1)
     |                                               |                |      [4]{}: local_time_type 0xc1-0xc7 (6)
0x0c0|   00 00 54 60                                 | ..T`           |        utoff: 21600 (valid) 0xc1-0xc5 (4)
0x0c0|               00                              |     .          |        dst: 0 (valid) 0xc5-0xc6 (1)
0x0c0|                  0c                           |      .         |        idx: 12 (valid) 0xc6-0xc7 (1)
     |                                               |                |      [5]{}: local_time_type 0xc7-0xcd (6)
0x0c0|                     00 00 46 50               |       ..FP     |        utoff: 18000 (valid) 0xc7-0xcb (4)
0x0c0|                                 00            |           .    |        dst: 0 (valid) 0xcb-0xcc (1)
0x0c0|                                    08         |            .   |        idx: 8 (valid) 0xcc-0xcd (1)
     |                                               |                |      [6]{}: local_time_type 0xcd-0xd3 (6)
0x0c0|                                       00 00 54|             ..T|        utoff: 21600 (valid) 0xcd-0xd1 (4)
0x0d0|60                                             |`               |
0x0d0|   01                                          | .              |        dst: 1 (valid) 0xd1-0xd2 (1)
0x0d0|      0c                                       |  .             |        idx: 12 (valid) 0xd2-0xd3 (1)
     |                                               |                |    time_zone_designations[0:4]: 0xd3-0xe3 (16)
0x0d0|         4c 4d 54 00                           |   LMT.         |      [0]: "LMT" time_zone_designation 0xd3-0xd7 (4)
0x0d0|                     2b 30 34 00               |       +04.     |      [1]: "+04" time_zone_designation 0xd7-0xdb (4)
0x0d0|                                 2b 30 35 00   |           +05. |      [2]: "+05" time_zone_designation 0xdb-0xdf (4)
0x0d0|                                             2b|               +|      [3]: "+06" time_zone_designation 0xdf-0xe3 (4)
0x0e0|30 36 00                                       |06.             |
     |                                               |                |    leap_second_records[0:27]: 0xe3-0x1bb (216)
     |                                               |                |      [0]{}: leap_second_record 0xe3-0xeb (8)
0x0e0|         04 b2 58 00                           |   ..X.         |        occur: "1972-07-01T00:00:00Z" (78796800) 0xe3-0xe7 (4)
0x0e0|                     00 00 00 01               |       ....     |        corr: 1 0xe7-0xeb (4)
     |                                               |                |      [1]{}: leap_second_record 0xeb-0xf3 (8)
0x0e0|                                 05 a4 ec 01   |           .... |        occur: "1973-01-01T00:00:01Z" (94694401) 0xeb-0xef (4)
0x0e0|                                             00|               .|        corr: 2 0xef-0xf3 (4)
0x0f0|00 00 02                                       |...             |
     |                                               |                |      [2]{}: leap_second_record 0xf3-0xfb (8)
0x0f0|         07 86 1f 82                           |   ....         |        occur: "1974-01-01T00:00:02Z" (126230402) 0xf3-0xf7 (4)
0x0f0|                     00 00 00 03               |       ....     |        corr: 3 0xf7-0xfb (4)
     |                                               |                |      [3]{}: leap_second_record 0xfb-0x103 (8)
0x0f0|                                 09 67 53 03   |           .gS. |        occur: "1975-01-01T00:00:03Z" (157766403) 0xfb-0xff (4)
0x0f0|                                             00|               .|        corr: 4 0xff-0x103 (4)
0x100|00 00 04                                       |...             |
     |                                               |                |      [4]{}: leap_second_record 0x103-0x10b (8)
0x100|         0b 48 86 84                           |   .H..         |        occur: "1976-01-01T00:00:04Z" (189302404) 0x103-0x107 (4)
0x100|                     00 00 00 05               |       ....     |        corr: 5 0x107-0x10b (4)
     |                                               |                |      [5]{}: leap_second_record 0x10b-0x113 (8)
0x100|                                 0d 2b 0b 85   |           .+.. |        occur: "1977-01-01T00:00:05Z" (220924805) 0x10b-0x10f (4)
0x100|                                             00|               .|        corr: 6 0x10f-0x113 (4)
0x110|00 00 06                                       |...             |
     |                                               |                |      [6]{}: leap_second_record 0x113-0x11b (8)
0x110|         0f 0c 3f 06                           |   ..?.         |        occur: "1978-01-01T00:00:06Z" (252460806) 0x113-0x117 (4)
0x110|                     00 00 00 07               |       ....     |        corr: 7 0x117-0x11b (4)
     |                                               |                |      [7]{}: leap_second_record 0x11b-0x123 (8)
0x110|                                 10 ed 72 87   |           ..r. |        occur: "1979-01-01T00:00:07Z" (283996807) 0x11b-0x11f (4)
0x110|                                             00|               .|        corr: 8 0x11f-0x123 (4)
0x120|00 00 08                                       |...             |
     |                                               |                |      [8]{}: leap_second_record 0x123-0x12b (8)
0x120|         12 ce a6 08                           |   ....         |        occur: "1980-01-01T00:00:08Z" (315532808) 0x123-0x127 (4)
0x120|                     00 00 00 09               |       ....     |        corr: 9 0x127-0x12b (4)
     |                                               |                |      [9]{}: leap_second_record 0x12b-0x133 (8)
0x120|                                 15 9f ca 89   |           .... |        occur: "1981-07-01T00:00:09Z" (362793609) 0x12b-0x12f (4)
0x120|                                             00|               .|        corr: 10 0x12f-0x133 (4)
0x130|00 00 0a                                       |...             |
     |                                               |                |      [10]{}: leap_second_record 0x133-0x13b (8)
0x130|         17 80 fe 0a                           |   ....         |        occur: "1982-07-01T00:00:10Z" (394329610) 0x133-0x137 (4)
0x130|                     00 00 00 0b               |       ....     |        corr: 11 0x137-0x13b (4)
     |                                               |                |      [11]{}: leap_second_record 0x13b-0x143 (8)
0x130|                                 19 62 31 8b   |           .b1. |        occur: "1983-07-01T00:00:11Z" (425865611) 0x13b-0x13f (4)
0x130|                                             00|               .|        corr: 12 0x13f-0x143 (4)
0x140|00 00 0c                                       |...             |
     |                                               |                |      [12]{}: leap_second_record 0x143-0x14b (8)
0x140|         1d 25 ea 0c                           |   .%..         |        occur: "1985-07-01T00:00:12Z" (489024012) 0x143-0x147 (4)
0x140|                     00 00 00 0d               |       ....     |        corr: 13 0x147-0x14b (4)
     |                                               |                |      [13]{}: leap_second_record 0x14b-0x153 (8)
0x140|                                 21 da e5 0d   |           !... |        occur: "1988-01-01T00:00:13Z" (567993613) 0x14b-0x14f (4)
0x140|                                             00|               .|        corr: 14 0x14f-0x153 (4)
0x150|00 00 0e                                       |...             |
     |                                               |                |      [14]{}: leap_second_record 0x153-0x15b (8)
0x150|         25 9e 9d 8e                           |   %...         |        occur: "1990-01-01T00:00:14Z" (631152014) 0x153-0x157 (4)
0x150|                     00 00 00 0f               |       ....     |        corr: 15 0x157-0x15b (4)
     |                                               |                |      [15]{}: leap_second_record 0x15b-0x163 (8)
0x150|                                 27 7f d1 0f   |           '... |        occur: "1991-01-01T00:00:15Z" (662688015) 0x15b-0x15f (4)
0x150|                                             00|               .|        corr: 16 0x15f-0x163 (4)
0x160|00 00 10                                       |...             |
     |                                               |                |      [16]{}: leap_second_record 0x163-0x16b (8)
0x160|         2a 50 f5 90                           |   *P..         |        occur: "1992-07-01T00:00:16Z" (709948816) 0x163-0x167 (4)
0x160|                     00 00 00 11               |       ....     |        corr: 17 0x167-0x16b (4)
     |                                               |                |      [17]{}: leap_second_record 0x16b-0x173 (8)
0x160|                                 2c 32 29 11   |           ,2). |        occur: "1993-07-01T00:00:17Z" (741484817) 0x16b-0x16f (4)
0x160|                                             00|               .|        corr: 18 0x16f-0x173 (4)
0x170|00 00 12                                       |...             |
     |                                               |                |      [18]{}: leap_second_record 0x173-0x17b (8)
0x170|         2e 13 5c 92                           |   ..\.         |        occur: "1994-07-01T00:00:18Z" (773020818) 0x173-0x177 (4)
0x170|                     00 00 00 13               |       ....     |        corr: 19 0x177-0x17b (4)
     |                                               |                |      [19]{}: leap_second_record 0x17b-0x183 (8)
0x170|                                 30 e7 24 13   |           0.$. |        occur: "1996-01-01T00:00:19Z" (820454419) 0x17b-0x17f (4)
0x170|                                             00|               .|        corr: 20 0x17f-0x183 (4)
0x180|00 00 14                                       |...             |
     |                                               |                |      [20]{}: leap_second_record 0x183-0x18b (8)
0x180|         33 b8 48 94                           |   3.H.         |        occur: "1997-07-01T00:00:20Z" (867715220) 0x183-0x187 (4)
0x180|                     00 00 00 15               |       ....     |        corr: 21 0x187-0x18b (4)
     |                                               |                |      [21]{}: leap_second_record 0x18b-0x193 (8)
0x180|                                 36 8c 10 15   |           6... |        occur: "1999-01-01T00:00:21Z" (915148821) 0x18b-0x18f (4)
0x180|                                             00|               .|        corr: 22 0x18f-0x193 (4)
0x190|00 00 16                                       |...             |
     |                                               |                |      [22]{}: leap_second_record 0x193-0x19b (8)
0x190|         43 b7 1b 96                           |   C...         |        occur: "2006-01-01T00:00:22Z" (1136073622) 0x193-0x197 (4)
0x190|                     00 00 00 17               |       ....     |        corr: 23 0x197-0x19b (4)
     |                                               |                |      [23]{}: leap_second_record 0x19b-0x1a3 (8)
0x190|                                 49 5c 07 97   |           I\.. |        occur: "2009-01-01T00:00:23Z" (1230768023) 0x19b-0x19f (4)
0x190|                                             00|               .|        corr: 24 0x19f-0x1a3 (4)
0x1a0|00 00 18                                       |...             |
     |                                               |                |      [24]{}: leap_second_record 0x1a3-0x1ab (8)
0x1a0|         4f ef 93 18                           |   O...         |        occur: "2012-07-01T00:00:24Z" (1341100824) 0x1a3-0x1a7 (4)
0x1a0|                     00 00 00 19               |       ....     |        corr: 25 0x1a7-0x1ab (4)
     |                                               |                |      [25]{}: leap_second_record 0x1ab-0x1b3 (8)
0x1a0|                                 55 93 2d 99   |           U.-. |        occur: "2015-07-01T00:00:25Z" (1435708825) 0x1ab-0x1af (4)
0x1a0|                                             00|               .|        corr: 26 0x1af-0x1b3 (4)
0x1b0|00 00 1a                                       |...             |
     |                                               |                |      [26]{}: leap_second_record 0x1b3-0x1bb (8)
0x1b0|         58 68 46 9a                           |   XhF.         |        occur: "2017-01-01T00:00:26Z" (1483228826) 0x1b3-0x1b7 (4)
0x1b0|                     00 00 00 1b               |       ....     |        corr: 27 0x1b7-0x1bb (4)
     |                                               |                |    standard_wall_indicators[0:7]: 0x1bb-0x1c2 (7)
0x1b0|                                 00            |           .    |      [0]: 0 standard_wall_indicator (valid) 0x1bb-0x1bc (1)
0x1b0|                                    00         |            .   |      [1]: 0 standard_wall_indicator (valid) 0x1bc-0x1bd (1)
0x1b0|                                       00      |             .  |      [2]: 0 standard_wall_indicator (valid) 0x1bd-0x1be (1)
0x1b0|                                          00   |              . |      [3]: 0 standard_wall_indicator (valid) 0x1be-0x1bf (1)
0x1b0|                                             00|               .|      [4]: 0 standard_wall_indicator (valid) 0x1bf-0x1c0 (1)
0x1c0|01                                             |.               |      [5]: 1 standard_wall_indicator (valid) 0x1c0-0x1c1 (1)
0x1c0|   01                                          | .              |      [6]: 1 standard_wall_indicator (valid) 0x1c1-0x1c2 (1)
     |                                               |                |    ut_local_indicators[0:0]: 0x1c2-0x1c2 (0)
     |                                               |                |  v2plusheader{}: 0x1c2-0x1ee (44)
0x1c0|      54 5a 69 66                              |  TZif          |    magic: 0x545a6966 (valid) 0x1c2-0x1c6 (4)
0x1c0|                  32                           |      2         |    ver: "2" (0x32) (valid) 0x1c6-0x1c7 (1)
0x1c0|                     00 00 00 00 00 00 00 00 00|       .........|    reserved: raw bits 0x1c7-0x1d6 (15)
0x1d0|00 00 00 00 00 00                              |......          |
0x1d0|                  00 00 00 00                  |      ....      |    isutcnt: 0 0x1d6-0x1da (4)
0x1d0|                              00 00 00 07      |          ....  |    isstdcnt: 7 0x1da-0x1de (4)
0x1d0|                                          00 00|              ..|    leapcnt: 27 0x1de-0x1e2 (4)
0x1e0|00 1b                                          |..              |
0x1e0|      00 00 00 19                              |  ....          |    timecnt: 25 0x1e2-0x1e6 (4)
0x1e0|                  00 00 00 07                  |      ....      |    typecnt: 7 0x1e6-0x1ea (4)
0x1e0|                              00 00 00 10      |          ....  |    charcnt: 16 0x1ea-0x1ee (4)
     |                                               |                |  v2plusdatablock{}: 0x1ee-0x454 (614)
     |                                               |                |    transition_times[0:25]: 0x1ee-0x2b6 (200)
0x1e0|                                          ff ff|              ..|      [0]: "1924-05-01T19:32:07Z" (-1441168073) transition_time 0x1ee-0x1f6 (8)
0x1f0|ff ff aa 19 85 37                              |.....7          |
0x1f0|                  ff ff ff ff b5 a3 fd 40      |      .......@  |      [1]: "1930-06-20T20:00:00Z" (-1247544000) transition_time 0x1f6-0x1fe (8)
0x1f0|                                          00 00|              ..|      [2]: "1981-03-31T19:00:09Z" (354913209) transition_time 0x1fe-0x206 (8)
0x200|00 00 15 27 8b b9                              |...'..          |
0x200|                  00 00 00 00 16 18 c0 2a      |      .......*  |      [3]: "1981-09-30T18:00:10Z" (370720810) transition_time 0x206-0x20e (8)
0x200|                                          00 00|              ..|      [4]: "1982-03-31T18:00:10Z" (386445610) transition_time 0x20e-0x216 (8)
0x210|00 00 17 08 b1 2a                              |.....*          |
0x210|                  00 00 00 00 17 f9 f3 ab      |      ........  |      [5]: "1982-09-30T18:00:11Z" (402256811) transition_time 0x216-0x21e (8)
0x210|                                          00 00|              ..|      [6]: "1983-03-31T19:00:11Z" (417985211) transition_time 0x21e-0x226 (8)
0x220|00 00 18 e9 f2 bb                              |......          |
0x220|                  00 00 00 00 19 db 27 2c      |      ......',  |      [7]: "1983-09-30T18:00:12Z" (433792812) transition_time 0x226-0x22e (8)
0x220|                                          00 00|              ..|      [8]: "1984-03-31T19:00:12Z" (449607612) transition_time 0x22e-0x236 (8)
0x230|00 00 1a cc 77 bc                              |....w.          |
0x230|                  00 00 00 00 1b bc 84 dc      |      ........  |      [9]: "1984-09-29T21:00:12Z" (465339612) transition_time 0x236-0x23e (8)
0x230|                                          00 00|              ..|      [10]: "1985-03-30T21:00:12Z" (481064412) transition_time 0x23e-0x246 (8)
0x240|00 00 1c ac 75 dc                              |....u.          |
0x240|                  00 00 00 00 1d 9c 66 dd      |      ......f.  |      [11]: "1985-09-28T21:00:13Z" (496789213) transition_time 0x246-0x24e (8)
0x240|                                          00 00|              ..|      [12]: "1986-03-29T21:00:13Z" (512514013) transition_time 0x24e-0x256 (8)
0x250|00 00 1e 8c 57 dd                              |....W.          |
0x250|                  00 00 00 00 1f 7c 48 dd      |      .....|H.  |      [13]: "1986-09-27T21:00:13Z" (528238813) transition_time 0x256-0x25e (8)
0x250|                                          00 00|              ..|      [14]: "1987-03-28T21:00:13Z" (543963613) transition_time 0x25e-0x266 (8)
0x260|00 00 20 6c 39 dd                              |.. l9.          |
0x260|                  00 00 00 00 21 5c 2a dd      |      ....!\*.  |      [15]: "1987-09-26T21:00:13Z" (559688413) transition_time 0x266-0x26e (8)
0x260|                                          00 00|              ..|      [16]: "1988-03-26T21:00:14Z" (575413214) transition_time 0x26e-0x276 (8)
0x270|00 00 22 4c 1b de                              |.."L..          |
0x270|                  00 00 00 00 23 3c 0c de      |      ....#<..  |      [17]: "1988-09-24T21:00:14Z" (591138014) transition_time 0x276-0x27e (8)
0x270|                                          00 00|              ..|      [18]: "1989-03-25T21:00:14Z" (606862814) transition_time 0x27e-0x286 (8)
0x280|00 00 24 2b fd de                              |..$+..          |
0x280|                  00 00 00 00 25 1b ee de      |      ....%...  |      [19]: "1989-09-23T21:00:14Z" (622587614) transition_time 0x286-0x28e (8)
0x280|                                          00 00|              ..|      [20]: "1990-03-24T21:00:15Z" (638312415) transition_time 0x28e-0x296 (8)
0x290|00 00 26 0b df df                              |..&...          |
0x290|                  00 00 00 00 27 05 0b 5f      |      ....'.._  |      [21]: "1990-09-29T21:00:15Z" (654642015) transition_time 0x296-0x29e (8)
0x290|                                          00 00|              ..|      [22]: "1991-03-30T21:00:16Z" (670366816) transition_time 0x29e-0x2a6 (8)
0x2a0|00 00 27 f4 fc 60                              |..'..`          |
0x2a0|                  00 00 00 00 28 e4 ed 60      |      ....(..`  |      [23]: "1991-09-28T21:00:16Z" (686091616) transition_time 0x2a6-0x2ae (8)
0x2a0|                                          00 00|              ..|      [24]: "2023-06-28T00:00:27Z" (1687910427) transition_time 0x2ae-0x2b6 (8)
0x2b0|00 00 64 9b 78 1b                              |..d.x.          |
     |                                               |                |    transition_types[0:25]: 0x2b6-0x2cf (25)
0x2b0|                  01                           |      .         |      [0]: 1 transition_type 0x2b6-0x2b7 (1)
0x2b0|                     02                        |       .        |      [1]: 2 transition_type 0x2b7-0x2b8 (1)
0x2b0|                        03                     |        .       |      [2]: 3 transition_type 0x2b8-0x2b9 (1)
0x2b0|                           04                  |         .      |      [3]: 4 transition_type 0x2b9-0x2ba (1)
0x2b0|                              03               |          .     |      [4]: 3 transition_type 0x2ba-0x2bb (1)
0x2b0|                                 02            |           .    |      [5]: 2 transition_type 0x2bb-0x2bc (1)
0x2b0|                                    03         |            .   |      [6]: 3 transition_type 0x2bc-0x2bd (1)
0x2b0|                                       02      |             .  |      [7]: 2 transition_type 0x2bd-0x2be (1)
0x2b0|                                          03   |              . |      [8]: 3 transition_type 0x2be-0x2bf (1)
0x2b0|                                             05|               .|      [9]: 5 transition_type 0x2bf-0x2c0 (1)
0x2c0|06                                             |.               |      [10]: 6 transition_type 0x2c0-0x2c1 (1)
0x2c0|   05                                          | .              |      [11]: 5 transition_type 0x2c1-0x2c2 (1)
0x2c0|      06                                       |  .             |      [12]: 6 transition_type 0x2c2-0x2c3 (1)
0x2c0|         05                                    |   .            |      [13]: 5 transition_type 0x2c3-0x2c4 (1)
0x2c0|            06                                 |    .           |      [14]: 6 transition_type 0x2c4-0x2c5 (1)
0x2c0|               05                              |     .          |      [15]: 5 transition_type 0x2c5-0x2c6 (1)
0x2c0|                  06                           |      .         |      [16]: 6 transition_type 0x2c6-0x2c7 (1)
0x2c0|                     05                        |       .        |      [17]: 5 transition_type 0x2c7-0x2c8 (1)
0x2c0|                        06                     |        .       |      [18]: 6 transition_type 0x2c8-0x2c9 (1)
0x2c0|                           05                  |         .      |      [19]: 5 transition_type 0x2c9-0x2ca (1)
0x2c0|                              06               |          .     |      [20]: 6 transition_type 0x2ca-0x2cb (1)
0x2c0|                                 05            |           .    |      [21]: 5 transition_type 0x2cb-0x2cc (1)
0x2c0|                                    06         |            .   |      [22]: 6 transition_type 0x2cc-0x2cd (1)
0x2c0|                                       05      |             .  |      [23]: 5 transition_type 0x2cd-0x2ce (1)
0x2c0|                                          05   |              . |      [24]: 5 transition_type 0x2ce-0x2cf (1)
     |                                               |                |    local_time_type_records[0:7]: 0x2cf-0x2f9 (42)
     |                                               |                |      [0]{}: local_time_type 0x2cf-0x2d5 (6)
0x2c0|                                             00|               .|        utoff: 16073 (valid) 0x2cf-0x2d3 (4)
0x2d0|00 3e c9                                       |.>.             |
0x2d0|         00                                    |   .            |        dst: 0 (valid) 0x2d3-0x2d4 (1)
0x2d0|            00                                 |    .           |        idx: 0 (valid) 0x2d4-0x2d5 (1)
     |                                               |                |      [1]{}: local_time_type 0x2d5-0x2db (6)
0x2d0|               00 00 38 40                     |     ..8@       |        utoff: 14400 (valid) 0x2d5-0x2d9 (4)
0x2d0|                           00                  |         .      |        dst: 0 (valid) 0x2d9-0x2da (1)
0x2d0|                              04               |          .     |        idx: 4 (valid) 0x2da-0x2db (1)
     |                                               |                |      [2]{}: local_time_type 0x2db-0x2e1 (6)
0x2d0|                                 00 00 46 50   |           ..FP |        utoff: 18000 (valid) 0x2db-0x2df (4)
0x2d0|                                             00|               .|        dst: 0 (valid) 0x2df-0x2e0 (1)
0x2e0|08                                             |.               |        idx: 8 (valid) 0x2e0-0x2e1 (1)
     |                                               |                |      [3]{}: local_time_type 0x2e1-0x2e7 (6)
0x2e0|   00 00 54 60                                 | ..T`           |        utoff: 21600 (valid) 0x2e1-0x2e5 (4)
0x2e0|               01                              |     .          |        dst: 1 (valid) 0x2e5-0x2e6 (1)
0x2e0|                  0c                           |      .         |        idx: 12 (valid) 0x2e6-0x2e7 (1)
     |                                               |                |      [4]{}: local_time_type 0x2e7-0x2ed (6)
0x2e0|                     00 00 54 60               |       ..T`     |        utoff: 21600 (valid) 0x2e7-0x2eb (4)
0x2e0|                                 00            |           .    |        dst: 0 (valid) 0x2eb-0x2ec (1)
0x2e0|                                    0c         |            .   |        idx: 12 (valid) 0x2ec-0x2ed (1)
     |                                               |                |      [5]{}: local_time_type 0x2ed-0x2f3 (6)
0x2e0|                                       00 00 46|             ..F|        utoff: 18000 (valid) 0x2ed-0x2f1 (4)
0x2f0|50                                             |P               |
0x2f0|   00                                          | .              |        dst: 0 (valid) 0x2f1-0x2f2 (1)
0x2f0|      08                                       |  .             |        idx: 8 (valid) 0x2f2-0x2f3 (1)
     |                                               |                |      [6]{}: local_time_type 0x2f3-0x2f9 (6)
0x2f0|         00 00 54 60                           |   ..T`         |        utoff: 21600 (valid) 0x2f3-0x2f7 (4)
0x2f0|                     01                        |       .        |        dst: 1 (valid) 0x2f7-0x2f8 (1)
0x2f0|                        0c                     |        .       |        idx: 12 (valid) 0x2f8-0x2f9 (1)
     |                                               |                |    time_zone_designations[0:4]: 0x2f9-0x309 (16)
0x2f0|                           4c 4d 54 00         |         LMT.   |      [0]: "LMT" time_zone_designation 0x2f9-0x2fd (4)
0x2f0|                                       2b 30 34|             +04|      [1]: "+04" time_zone_designation 0x2fd-0x301 (4)
0x300|00                                             |.               |
0x300|   2b 30 35 00                                 | +05.           |      [2]: "+05" time_zone_designation 0x301-0x305 (4)
0x300|               2b 30 36 00                     |     +06.       |      [3]: "+06" time_zone_designation 0x305-0x309 (4)
     |                                               |                |    leap_second_records[0:27]: 0x309-0x44d (324)
     |                                               |                |      [0]{}: leap_second_record 0x309-0x315 (12)
0x300|                           00 00 00 00 04 b2 58|         ......X|        occur: "1972-07-01T00:00:00Z" (78796800) 0x309-0x311 (8)
0x310|00                                             |.               |
0x310|   00 00 00 01                                 | ....           |        corr: 1 0x311-0x315 (4)
     |                                               |                |      [1]{}: leap_second_record 0x315-0x321 (12)
0x310|               00 00 00 00 05 a4 ec 01         |     ........   |        occur: "1973-01-01T00:00:01Z" (94694401) 0x315-0x31d (8)
0x310|                                       00 00 00|             ...|        corr: 2 0x31d-0x321 (4)
0x320|02                                             |.               |
     |                                               |                |      [2]{}: leap_second_record 0x321-0x32d (12)
0x320|   00 00 00 00 07 86 1f 82                     | ........       |        occur: "1974-01-01T00:00:02Z" (126230402) 0x321-0x329 (8)
0x320|                           00 00 00 03         |         ....   |        corr: 3 0x329-0x32d (4)
     |                                               |                |      [3]{}: leap_second_record 0x32d-0x339 (12)
0x320|                                       00 00 00|             ...|        occur: "1975-01-01T00:00:03Z" (157766403) 0x32d-0x335 (8)
0x330|00 09 67 53 03                                 |..gS.           |
0x330|               00 00 00 04                     |     ....       |        corr: 4 0x335-0x339 (4)
     |                                               |                |      [4]{}: leap_second_record 0x339-0x345 (12)
0x330|                           00 00 00 00 0b 48 86|         .....H.|        occur: "1976-01-01T00:00:04Z" (189302404) 0x339-0x341 (8)
0x340|84                                             |.               |
0x340|   00 00 00 05                                 | ....           |        corr: 5 0x341-0x345 (4)
     |                                               |                |      [5]{}: leap_second_record 0x345-0x351 (12)
0x340|               00 00 00 00 0d 2b 0b 85         |     .....+..   |        occur: "1977-01-01T00:00:05Z" (220924805) 0x345-0x34d (8)
0x340|                                       00 00 00|             ...|        corr: 6 0x34d-0x351 (4)
0x350|06                                             |.               |
     |                                               |                |      [6]{}: leap_second_record 0x351-0x35d (12)
0x350|   00 00 00 00 0f 0c 3f 06                     | ......?.       |        occur: "1978-01-01T00:00:06Z" (252460806) 0x351-0x359 (8)
0x350|                           00 00 00 07         |         ....   |        corr: 7 0x359-0x35d (4)
     |                                               |                |      [7]{}: leap_second_record 0x35d-0x369 (12)
0x350|                                       00 00 00|             ...|        occur: "1979-01-01T00:00:07Z" (283996807) 0x35d-0x365 (8)
0x360|00 10 ed 72 87                                 |...r.           |
0x360|               00 00 00 08                     |     ....       |        corr: 8 0x365-0x369 (4)
     |                                               |                |      [8]{}: leap_second_record 0x369-0x375 (12)
0x360|                           00 00 00 00 12 ce a6|         .......|        occur: "1980-01-01T00:00:08Z" (315532808) 0x369-0x371 (8)
0x370|08                                             |.               |
0x370|   00 00 00 09                                 | ....           |        corr: 9 0x371-0x375 (4)
     |                                               |                |      [9]{}: leap_second_record 0x375-0x381 (12)
0x370|               00 00 00 00 15 9f ca 89         |     ........   |        occur: "1981-07-01T00:00:09Z" (362793609) 0x375-0x37d (8)
0x370|                                       00 00 00|             ...|        corr: 10 0x37d-0x381 (4)
0x380|0a                                             |.               |
     |                                               |                |      [10]{}: leap_second_record 0x381-0x38d (12)
0x380|   00 00 00 00 17 80 fe 0a                     | ........       |        occur: "1982-07-01T00:00:10Z" (394329610) 0x381-0x389 (8)
0x380|                           00 00 00 0b         |         ....   |        corr: 11 0x389-0x38d (4)
     |                                               |                |      [11]{}: leap_second_record 0x38d-0x399 (12)
0x380|                                       00 00 00|             ...|        occur: "1983-07-01T00:00:11Z" (425865611) 0x38d-0x395 (8)
0x390|00 19 62 31 8b                                 |..b1.           |
0x390|               00 00 00 0c                     |     ....       |        corr: 12 0x395-0x399 (4)
     |                                               |                |      [12]{}: leap_second_record 0x399-0x3a5 (12)
0x390|                           00 00 00 00 1d 25 ea|         .....%.|        occur: "1985-07-01T00:00:12Z" (489024012) 0x399-0x3a1 (8)
0x3a0|0c                                             |.               |
0x3a0|   00 00 00 0d                                 | ....           |        corr: 13 0x3a1-0x3a5 (4)
     |                                               |                |      [13]{}: leap_second_record 0x3a5-0x3b1 (12)
0x3a0|               00 00 00 00 21 da e5 0d         |     ....!...   |        occur: "1988-01-01T00:00:13Z" (567993613) 0x3a5-0x3ad (8)
0x3a0|                                       00 00 00|             ...|        corr: 14 0x3ad-0x3b1 (4)
0x3b0|0e                                             |.               |
     |                                               |                |      [14]{}: leap_second_record 0x3b1-0x3bd (12)
0x3b0|   00 00 00 00 25 9e 9d 8e                     | ....%...       |        occur: "1990-01-01T00:00:14Z" (631152014) 0x3b1-0x3b9 (8)
0x3b0|                           00 00 00 0f         |         ....   |        corr: 15 0x3b9-0x3bd (4)
     |                                               |                |      [15]{}: leap_second_record 0x3bd-0x3c9 (12)
0x3b0|                                       00 00 00|             ...|        occur: "1991-01-01T00:00:15Z" (662688015) 0x3bd-0x3c5 (8)
0x3c0|00 27 7f d1 0f                                 |.'...           |
0x3c0|               00 00 00 10                     |     ....       |        corr: 16 0x3c5-0x3c9 (4)
     |                                               |                |      [16]{}: leap_second_record 0x3c9-0x3d5 (12)
0x3c0|                           00 00 00 00 2a 50 f5|         ....*P.|        occur: "1992-07-01T00:00:16Z" (709948816) 0x3c9-0x3d1 (8)
0x3d0|90                                             |.               |
0x3d0|   00 00 00 11                                 | ....           |        corr: 17 0x3d1-0x3d5 (4)
     |                                               |                |      [17]{}: leap_second_record 0x3d5-0x3e1 (12)
0x3d0|               00 00 00 00 2c 32 29 11         |     ....,2).   |        occur: "1993-07-01T00:00:17Z" (741484817) 0x3d5-0x3dd (8)
0x3d0|                                       00 00 00|             ...|        corr: 18 0x3dd-0x3e1 (4)
0x3e0|12                                             |.               |
     |                                               |                |      [18]{}: leap_second_record 0x3e1-0x3ed (12)
0x3e0|   00 00 00 00 2e 13 5c 92                     | ......\.       |        occur: "1994-07-01T00:00:18Z" (773020818) 0x3e1-0x3e9 (8)
0x3e0|                           00 00 00 13         |         ....   |        corr: 19 0x3e9-0x3ed (4)
     |                                               |                |      [19]{}: leap_second_record 0x3ed-0x3f9 (12)
0x3e0|                                       00 00 00|             ...|        occur: "1996-01-01T00:00:19Z" (820454419) 0x3ed-0x3f5 (8)
0x3f0|00 30 e7 24 13                                 |.0.$.           |
0x3f0|               00 00 00 14                     |     ....       |        corr: 20 0x3f5-0x3f9 (4)
     |                                               |                |      [20]{}: leap_second_record 0x3f9-0x405 (12)
0x3f0|                           00 00 00 00 33 b8 48|         ....3.H|        occur: "1997-07-01T00:00:20Z" (867715220) 0x3f9-0x401 (8)
0x400|94                                             |.               |
0x400|   00 00 00 15                                 | ....           |        corr: 21 0x401-0x405 (4)
     |                                               |                |      [21]{}: leap_second_record 0x405-0x411 (12)
0x400|               00 00 00 00 36 8c 10 15         |     ....6...   |        occur: "1999-01-01T00:00:21Z" (915148821) 0x405-0x40d (8)
0x400|                                       00 00 00|             ...|        corr: 22 0x40d-0x411 (4)
0x410|16                                             |.               |
     |                                               |                |      [22]{}: leap_second_record 0x411-0x41d (12)
0x410|   00 00 00 00 43 b7 1b 96                     | ....C...       |        occur: "2006-01-01T00:00:22Z" (1136073622) 0x411-0x419 (8)
0x410|                           00 00 00 17         |         ....   |        corr: 23 0x419-0x41d (4)
     |                                               |                |      [23]{}: leap_second_record 0x41d-0x429 (12)
0x410|                                       00 00 00|             ...|        occur: "2009-01-01T00:00:23Z" (1230768023) 0x41d-0x425 (8)
0x420|00 49 5c 07 97                                 |.I\..           |
0x420|               00 00 00 18                     |     ....       |        corr: 24 0x425-0x429 (4)
     |                                               |                |      [24]{}: leap_second_record 0x429-0x435 (12)
0x420|                           00 00 00 00 4f ef 93|         ....O..|        occur: "2012-07-01T00:00:24Z" (1341100824) 0x429-0x431 (8)
0x430|18                                             |.               |
0x430|   00 00 00 19                                 | ....           |        corr: 25 0x431-0x435 (4)
     |                                               |                |      [25]{}: leap_second_record 0x435-0x441 (12)
0x430|               00 00 00 00 55 93 2d 99         |     ....U.-.   |        occur: "2015-07-01T00:00:25Z" (1435708825) 0x435-0x43d (8)
0x430|                                       00 00 00|             ...|        corr: 26 0x43d-0x441 (4)
0x440|1a                                             |.               |
     |                                               |                |      [26]{}: leap_second_record 0x441-0x44d (12)
0x440|   00 00 00 00 58 68 46 9a                     | ....XhF.       |        occur: "2017-01-01T00:00:26Z" (1483228826) 0x441-0x449 (8)
0x440|                           00 00 00 1b         |         ....   |        corr: 27 0x449-0x44d (4)
     |                                               |                |    standard_wall_indicators[0:7]: 0x44d-0x454 (7)
0x440|                                       00      |             .  |      [0]: 0 standard_wall_indicator (valid) 0x44d-0x44e (1)
0x440|                                          00   |              . |      [1]: 0 standard_wall_indicator (valid) 0x44e-0x44f (1)
0x440|                                             00|               .|      [2]: 0 standard_wall_indicator (valid) 0x44f-0x450 (1)
0x450|00                                             |.               |      [3]: 0 standard_wall_indicator (valid) 0x450-0x451 (1)
0x450|   00                                          | .              |      [4]: 0 standard_wall_indicator (valid) 0x451-0x452 (1)
0x450|      01                                       |  .             |      [5]: 1 standard_wall_indicator (valid) 0x452-0x453 (1)
0x450|         01                                    |   .            |      [6]: 1 standard_wall_indicator (valid) 0x453-0x454 (1)
     |                                               |                |    ut_local_indicators[0:0]: 0x454-0x454 (0)
     |                                               |                |  footer{}: 0x454-0x456 (2)
0x450|            0a                                 |    .           |    nl1: 10 (valid) 0x454-0x455 (1)
     |                                               |                |    tz_string: "" 0x455-0x455 (0)
0x450|               0a|                             |     .|         |    nl2: 10 (valid) 0x455-0x456 (1)
