$ fq -d tzif dv Samara
     |00 01 02 03 04 05 06 07 08 09 0a 0b 0c 0d 0e 0f|0123456789abcdef|.{}: Samara (tzif) 0x0-0x4bf (1215)
     |                                               |                |  v1header{}: 0x0-0x2c (44)
0x000|54 5a 69 66                                    |TZif            |    magic: 0x545a6966 (valid) 0x0-0x4 (4)
0x000|            32                                 |    2           |    ver: "2" (0x32) (valid) 0x4-0x5 (1)
0x000|               00 00 00 00 00 00 00 00 00 00 00|     ...........|    reserved: raw bits 0x5-0x14 (15)
0x010|00 00 00 00                                    |....            |
0x010|            00 00 00 0b                        |    ....        |    isutcnt: 11 0x14-0x18 (4)
0x010|                        00 00 00 0b            |        ....    |    isstdcnt: 11 0x18-0x1c (4)
0x010|                                    00 00 00 00|            ....|    leapcnt: 0 0x1c-0x20 (4)
0x020|00 00 00 41                                    |...A            |    timecnt: 65 0x20-0x24 (4)
0x020|            00 00 00 0b                        |    ....        |    typecnt: 11 0x24-0x28 (4)
0x020|                        00 00 00 10            |        ....    |    charcnt: 16 0x28-0x2c (4)
     |                                               |                |  v1datablock{}: 0x2c-0x1d9 (429)
     |                                               |                |    transition_times[0:65]: 0x2c-0x130 (260)
0x020|                                    a1 00 39 80|            ..9.|      [0]: "1919-07-01T00:00:00Z" (-1593820800) transition_time 0x2c-0x30 (4)
0x030|b5 a4 0b 50                                    |...P            |      [1]: "1930-06-20T21:00:00Z" (-1247540400) transition_time 0x30-0x34 (4)
0x030|            15 27 99 c0                        |    .'..        |      [2]: "1981-03-31T20:00:00Z" (354916800) transition_time 0x34-0x38 (4)
0x030|                        16 18 ce 30            |        ...0    |      [3]: "1981-09-30T19:00:00Z" (370724400) transition_time 0x38-0x3c (4)
0x030|                                    17 08 cd 40|            ...@|      [4]: "1982-03-31T20:00:00Z" (386452800) transition_time 0x3c-0x40 (4)
0x040|17 fa 01 b0                                    |....            |      [5]: "1982-09-30T19:00:00Z" (402260400) transition_time 0x40-0x44 (4)
0x040|            18 ea 00 c0                        |    ....        |      [6]: "1983-03-31T20:00:00Z" (417988800) transition_time 0x44-0x48 (4)
0x040|                        19 db 35 30            |        ..50    |      [7]: "1983-09-30T19:00:00Z" (433796400) transition_time 0x48-0x4c (4)
0x040|                                    1a cc 85 c0|            ....|      [8]: "1984-03-31T20:00:00Z" (449611200) transition_time 0x4c-0x50 (4)
0x050|1b bc 92 e0                                    |....            |      [9]: "1984-09-29T22:00:00Z" (465343200) transition_time 0x50-0x54 (4)
0x050|            1c ac 83 e0                        |    ....        |      [10]: "1985-03-30T22:00:00Z" (481068000) transition_time 0x54-0x58 (4)
0x050|                        1d 9c 74 e0            |        ..t.    |      [11]: "1985-09-28T22:00:00Z" (496792800) transition_time 0x58-0x5c (4)
0x050|                                    1e 8c 65 e0|            ..e.|      [12]: "1986-03-29T22:00:00Z" (512517600) transition_time 0x5c-0x60 (4)
0x060|1f 7c 56 e0                                    |.|V.            |      [13]: "1986-09-27T22:00:00Z" (528242400) transition_time 0x60-0x64 (4)
0x060|            20 6c 47 e0                        |     lG.        |      [14]: "1987-03-28T22:00:00Z" (543967200) transition_time 0x64-0x68 (4)
0x060|                        21 5c 38 e0            |        !\8.    |      [15]: "1987-09-26T22:00:00Z" (559692000) transition_time 0x68-0x6c (4)
0x060|                                    22 4c 29 e0|            "L).|      [16]: "1988-03-26T22:00:00Z" (575416800) transition_time 0x6c-0x70 (4)
0x070|23 3c 1a e0                                    |#<..            |      [17]: "1988-09-24T22:00:00Z" (591141600) transition_time 0x70-0x74 (4)
0x070|            24 2c 0b e0                        |    $,..        |      [18]: "1989-03-25T22:00:00Z" (606866400) transition_time 0x74-0x78 (4)
0x070|                        25 1c 0a f0            |        %...    |      [19]: "1989-09-23T23:00:00Z" (622594800) transition_time 0x78-0x7c (4)
0x070|                                    26 0b fb f0|            &...|      [20]: "1990-03-24T23:00:00Z" (638319600) transition_time 0x7c-0x80 (4)
0x080|27 05 27 70                                    |'.'p            |      [21]: "1990-09-29T23:00:00Z" (654649200) transition_time 0x80-0x84 (4)
0x080|            27 f5 18 70                        |    '..p        |      [22]: "1991-03-30T23:00:00Z" (670374000) transition_time 0x84-0x88 (4)
0x080|                        28 e5 17 80            |        (...    |      [23]: "1991-09-29T00:00:00Z" (686102400) transition_time 0x88-0x8c (4)
0x080|                                    29 00 c7 00|            )...|      [24]: "1991-10-20T00:00:00Z" (687916800) transition_time 0x8c-0x90 (4)
0x090|29 d4 ec 60                                    |)..`            |      [25]: "1992-03-28T22:00:00Z" (701820000) transition_time 0x90-0x94 (4)
0x090|            2a c4 dd 60                        |    *..`        |      [26]: "1992-09-26T22:00:00Z" (717544800) transition_time 0x94-0x98 (4)
0x090|                        2b b4 ce 60            |        +..`    |      [27]: "1993-03-27T22:00:00Z" (733269600) transition_time 0x98-0x9c (4)
0x090|                                    2c a4 bf 60|            ,..`|      [28]: "1993-09-25T22:00:00Z" (748994400) transition_time 0x9c-0xa0 (4)
0x0a0|2d 94 b0 60                                    |-..`            |      [29]: "1994-03-26T22:00:00Z" (764719200) transition_time 0xa0-0xa4 (4)
0x0a0|            2e 84 a1 60                        |    ...`        |      [30]: "1994-09-24T22:00:00Z" (780444000) transition_time 0xa4-0xa8 (4)
0x0a0|                        2f 74 92 60            |        /t.`    |      [31]: "1995-03-25T22:00:00Z" (796168800) transition_time 0xa8-0xac (4)
0x0a0|                                    30 64 83 60|            0d.`|      [32]: "1995-09-23T22:00:00Z" (811893600) transition_time 0xac-0xb0 (4)
0x0b0|31 5d ae e0                                    |1]..            |      [33]: "1996-03-30T22:00:00Z" (828223200) transition_time 0xb0-0xb4 (4)
0x0b0|            32 72 89 e0                        |    2r..        |      [34]: "1996-10-26T22:00:00Z" (846367200) transition_time 0xb4-0xb8 (4)
0x0b0|                        33 3d 90 e0            |        3=..    |      [35]: "1997-03-29T22:00:00Z" (859672800) transition_time 0xb8-0xbc (4)
0x0b0|                                    34 52 6b e0|            4Rk.|      [36]: "1997-10-25T22:00:00Z" (877816800) transition_time 0xbc-0xc0 (4)
0x0c0|35 1d 72 e0                                    |5.r.            |      [37]: "1998-03-28T22:00:00Z" (891122400) transition_time 0xc0-0xc4 (4)
0x0c0|            36 32 4d e0                        |    62M.        |      [38]: "1998-10-24T22:00:00Z" (909266400) transition_time 0xc4-0xc8 (4)
0x0c0|                        36 fd 54 e0            |        6.T.    |      [39]: "1999-03-27T22:00:00Z" (922572000) transition_time 0xc8-0xcc (4)
0x0c0|                                    38 1b 6a 60|            8.j`|      [40]: "1999-10-30T22:00:00Z" (941320800) transition_time 0xcc-0xd0 (4)
0x0d0|38 dd 36 e0                                    |8.6.            |      [41]: "2000-03-25T22:00:00Z" (954021600) transition_time 0xd0-0xd4 (4)
0x0d0|            39 fb 4c 60                        |    9.L`        |      [42]: "2000-10-28T22:00:00Z" (972770400) transition_time 0xd4-0xd8 (4)
0x0d0|                        3a bd 18 e0            |        :...    |      [43]: "2001-03-24T22:00:00Z" (985471200) transition_time 0xd8-0xdc (4)
0x0d0|                                    3b db 2e 60|            ;..`|      [44]: "2001-10-27T22:00:00Z" (1004220000) transition_time 0xdc-0xe0 (4)
0x0e0|3c a6 35 60                                    |<.5`            |      [45]: "2002-03-30T22:00:00Z" (1017525600) transition_time 0xe0-0xe4 (4)
0x0e0|            3d bb 10 60                        |    =..`        |      [46]: "2002-10-26T22:00:00Z" (1035669600) transition_time 0xe4-0xe8 (4)
0x0e0|                        3e 86 17 60            |        >..`    |      [47]: "2003-03-29T22:00:00Z" (1048975200) transition_time 0xe8-0xec (4)
0x0e0|                                    3f 9a f2 60|            ?..`|      [48]: "2003-10-25T22:00:00Z" (1067119200) transition_time 0xec-0xf0 (4)
0x0f0|40 65 f9 60                                    |@e.`            |      [49]: "2004-03-27T22:00:00Z" (1080424800) transition_time 0xf0-0xf4 (4)
0x0f0|            41 84 0e e0                        |    A...        |      [50]: "2004-10-30T22:00:00Z" (1099173600) transition_time 0xf4-0xf8 (4)
0x0f0|                        42 45 db 60            |        BE.`    |      [51]: "2005-03-26T22:00:00Z" (1111874400) transition_time 0xf8-0xfc (4)
0x0f0|                                    43 63 f0 e0|            Cc..|      [52]: "2005-10-29T22:00:00Z" (1130623200) transition_time 0xfc-0x100 (4)
0x100|44 25 bd 60                                    |D%.`            |      [53]: "2006-03-25T22:00:00Z" (1143324000) transition_time 0x100-0x104 (4)
0x100|            45 43 d2 e0                        |    EC..        |      [54]: "2006-10-28T22:00:00Z" (1162072800) transition_time 0x104-0x108 (4)
0x100|                        46 05 9f 60            |        F..`    |      [55]: "2007-03-24T22:00:00Z" (1174773600) transition_time 0x108-0x10c (4)
0x100|                                    47 23 b4 e0|            G#..|      [56]: "2007-10-27T22:00:00Z" (1193522400) transition_time 0x10c-0x110 (4)
0x110|47 ee bb e0                                    |G...            |      [57]: "2008-03-29T22:00:00Z" (1206828000) transition_time 0x110-0x114 (4)
0x110|            49 03 96 e0                        |    I...        |      [58]: "2008-10-25T22:00:00Z" (1224972000) transition_time 0x114-0x118 (4)
0x110|                        49 ce 9d e0            |        I...    |      [59]: "2009-03-28T22:00:00Z" (1238277600) transition_time 0x118-0x11c (4)
0x110|                                    4a e3 78 e0|            J.x.|      [60]: "2009-10-24T22:00:00Z" (1256421600) transition_time 0x11c-0x120 (4)
0x120|4b ae 7f e0                                    |K...            |      [61]: "2010-03-27T22:00:00Z" (1269727200) transition_time 0x120-0x124 (4)
0x120|            4c cc a3 70                        |    L..p        |      [62]: "2010-10-30T23:00:00Z" (1288479600) transition_time 0x124-0x128 (4)
0x120|                        4d 8e 6f f0            |        M.o.    |      [63]: "2011-03-26T23:00:00Z" (1301180400) transition_time 0x128-0x12c (4)
0x120|                                    7f ff ff ff|            ....|      [64]: "2038-01-19T03:14:07Z" (2147483647) transition_time 0x12c-0x130 (4)
     |                                               |                |    transition_types[0:65]: 0x130-0x171 (65)
0x130|01                                             |.               |      [0]: 1 transition_type 0x130-0x131 (1)
0x130|   02                                          | .              |      [1]: 2 transition_type 0x131-0x132 (1)
0x130|      03                                       |  .             |      [2]: 3 transition_type 0x132-0x133 (1)
0x130|         02                                    |   .            |      [3]: 2 transition_type 0x133-0x134 (1)
0x130|            03                                 |    .           |      [4]: 3 transition_type 0x134-0x135 (1)
0x130|               02                              |     .          |      [5]: 2 transition_type 0x135-0x136 (1)
0x130|                  03                           |      .         |      [6]: 3 transition_type 0x136-0x137 (1)
0x130|                     02                        |       .        |      [7]: 2 transition_type 0x137-0x138 (1)
0x130|                        03                     |        .       |      [8]: 3 transition_type 0x138-0x139 (1)
0x130|                           04                  |         .      |      [9]: 4 transition_type 0x139-0x13a (1)
0x130|                              05               |          .     |      [10]: 5 transition_type 0x13a-0x13b (1)
0x130|                                 04            |           .    |      [11]: 4 transition_type 0x13b-0x13c (1)
0x130|                                    05         |            .   |      [12]: 5 transition_type 0x13c-0x13d (1)
0x130|                                       04      |             .  |      [13]: 4 transition_type 0x13d-0x13e (1)
0x130|                                          05   |              . |      [14]: 5 transition_type 0x13e-0x13f (1)
0x130|                                             04|               .|      [15]: 4 transition_type 0x13f-0x140 (1)
0x140|05                                             |.               |      [16]: 5 transition_type 0x140-0x141 (1)
0x140|   04                                          | .              |      [17]: 4 transition_type 0x141-0x142 (1)
0x140|      06                                       |  .             |      [18]: 6 transition_type 0x142-0x143 (1)
0x140|         07                                    |   .            |      [19]: 7 transition_type 0x143-0x144 (1)
0x140|            06                                 |    .           |      [20]: 6 transition_type 0x144-0x145 (1)
0x140|               07                              |     .          |      [21]: 7 transition_type 0x145-0x146 (1)
0x140|                  08                           |      .         |      [22]: 8 transition_type 0x146-0x147 (1)
0x140|                     07                        |       .        |      [23]: 7 transition_type 0x147-0x148 (1)
0x140|                        02                     |        .       |      [24]: 2 transition_type 0x148-0x149 (1)
0x140|                           05                  |         .      |      [25]: 5 transition_type 0x149-0x14a (1)
0x140|                              04               |          .     |      [26]: 4 transition_type 0x14a-0x14b (1)
0x140|                                 05            |           .    |      [27]: 5 transition_type 0x14b-0x14c (1)
0x140|                                    04         |            .   |      [28]: 4 transition_type 0x14c-0x14d (1)
0x140|                                       05      |             .  |      [29]: 5 transition_type 0x14d-0x14e (1)
0x140|                                          04   |              . |      [30]: 4 transition_type 0x14e-0x14f (1)
0x140|                                             05|               .|      [31]: 5 transition_type 0x14f-0x150 (1)
0x150|04                                             |.               |      [32]: 4 transition_type 0x150-0x151 (1)
0x150|   05                                          | .              |      [33]: 5 transition_type 0x151-0x152 (1)
0x150|      04                                       |  .             |      [34]: 4 transition_type 0x152-0x153 (1)
0x150|         05                                    |   .            |      [35]: 5 transition_type 0x153-0x154 (1)
0x150|            04                                 |    .           |      [36]: 4 transition_type 0x154-0x155 (1)
0x150|               05                              |     .          |      [37]: 5 transition_type 0x155-0x156 (1)
0x150|                  04                           |      .         |      [38]: 4 transition_type 0x156-0x157 (1)
0x150|                     05                        |       .        |      [39]: 5 transition_type 0x157-0x158 (1)
0x150|                        04                     |        .       |      [40]: 4 transition_type 0x158-0x159 (1)
0x150|                           05                  |         .      |      [41]: 5 transition_type 0x159-0x15a (1)
0x150|                              04               |          .     |      [42]: 4 transition_type 0x15a-0x15b (1)
0x150|                                 05            |           .    |      [43]: 5 transition_type 0x15b-0x15c (1)
0x150|                                    04         |            .   |      [44]: 4 transition_type 0x15c-0x15d (1)
0x150|                                       05      |             .  |      [45]: 5 transition_type 0x15d-0x15e (1)
0x150|                                          04   |              . |      [46]: 4 transition_type 0x15e-0x15f (1)
0x150|                                             05|               .|      [47]: 5 transition_type 0x15f-0x160 (1)
0x160|04                                             |.               |      [48]: 4 transition_type 0x160-0x161 (1)
0x160|   05                                          | .              |      [49]: 5 transition_type 0x161-0x162 (1)
0x160|      04                                       |  .             |      [50]: 4 transition_type 0x162-0x163 (1)
0x160|         05                                    |   .            |      [51]: 5 transition_type 0x163-0x164 (1)
0x160|            04                                 |    .           |      [52]: 4 transition_type 0x164-0x165 (1)
0x160|               05                              |     .          |      [53]: 5 transition_type 0x165-0x166 (1)
0x160|                  04                           |      .         |      [54]: 4 transition_type 0x166-0x167 (1)
0x160|                     05                        |       .        |      [55]: 5 transition_type 0x167-0x168 (1)
0x160|                        04                     |        .       |      [56]: 4 transition_type 0x168-0x169 (1)
0x160|                           05                  |         .      |      [57]: 5 transition_type 0x169-0x16a (1)
0x160|                              04               |          .     |      [58]: 4 transition_type 0x16a-0x16b (1)
0x160|                                 05            |           .    |      [59]: 5 transition_type 0x16b-0x16c (1)
0x160|                                    04         |            .   |      [60]: 4 transition_type 0x16c-0x16d (1)
0x160|                                       06      |             .  |      [61]: 6 transition_type 0x16d-0x16e (1)
0x160|                                          07   |              . |      [62]: 7 transition_type 0x16e-0x16f (1)
0x160|                                             04|               .|      [63]: 4 transition_type 0x16f-0x170 (1)
0x170|04                                             |.               |      [64]: 4 transition_type 0x170-0x171 (1)
     |                                               |                |    local_time_type_records[0:11]: 0x171-0x1b3 (66)
     |                                               |                |      [0]{}: local_time_type 0x171-0x177 (6)
0x170|   00 00 2e f4                                 | ....           |        utoff: 12020 (valid) 0x171-0x175 (4)
0x170|               00                              |     .          |        dst: 0 (valid) 0x175-0x176 (1)
0x170|                  00                           |      .         |        idx: 0 (valid) 0x176-0x177 (1)
     |                                               |                |      [1]{}: local_time_type 0x177-0x17d (6)
0x170|                     00 00 2a 30               |       ..*0     |        utoff: 10800 (valid) 0x177-0x17b (4)
0x170|                                 00            |           .    |        dst: 0 (valid) 0x17b-0x17c (1)
0x170|                                    04         |            .   |        idx: 4 (valid) 0x17c-0x17d (1)
     |                                               |                |      [2]{}: local_time_type 0x17d-0x183 (6)
0x170|                                       00 00 38|             ..8|        utoff: 14400 (valid) 0x17d-0x181 (4)
0x180|40                                             |@               |
0x180|   00                                          | .              |        dst: 0 (valid) 0x181-0x182 (1)
0x180|      08                                       |  .             |        idx: 8 (valid) 0x182-0x183 (1)
     |                                               |                |      [3]{}: local_time_type 0x183-0x189 (6)
0x180|         00 00 46 50                           |   ..FP         |        utoff: 18000 (valid) 0x183-0x187 (4)
0x180|                     01                        |       .        |        dst: 1 (valid) 0x187-0x188 (1)
0x180|                        0c                     |        .       |        idx: 12 (valid) 0x188-0x189 (1)
     |                                               |                |      [4]{}: local_time_type 0x189-0x18f (6)
0x180|                           00 00 38 40         |         ..8@   |        utoff: 14400 (valid) 0x189-0x18d (4)
0x180|                                       00      |             .  |        dst: 0 (valid) 0x18d-0x18e (1)
0x180|                                          08   |              . |        idx: 8 (valid) 0x18e-0x18f (1)
     |                                               |                |      [5]{}: local_time_type 0x18f-0x195 (6)
0x180|                                             00|               .|        utoff: 18000 (valid) 0x18f-0x193 (4)
0x190|00 46 50                                       |.FP             |
0x190|         01                                    |   .            |        dst: 1 (valid) 0x193-0x194 (1)
0x190|            0c                                 |    .           |        idx: 12 (valid) 0x194-0x195 (1)
     |                                               |                |      [6]{}: local_time_type 0x195-0x19b (6)
0x190|               00 00 38 40                     |     ..8@       |        utoff: 14400 (valid) 0x195-0x199 (4)
0x190|                           01                  |         .      |        dst: 1 (valid) 0x199-0x19a (1)
0x190|                              08               |          .     |        idx: 8 (valid) 0x19a-0x19b (1)
     |                                               |                |      [7]{}: local_time_type 0x19b-0x1a1 (6)
0x190|                                 00 00 2a 30   |           ..*0 |        utoff: 10800 (valid) 0x19b-0x19f (4)
0x190|                                             00|               .|        dst: 0 (valid) 0x19f-0x1a0 (1)
0x1a0|04                                             |.               |        idx: 4 (valid) 0x1a0-0x1a1 (1)
     |                                               |                |      [8]{}: local_time_type 0x1a1-0x1a7 (6)
0x1a0|   00 00 2a 30                                 | ..*0           |        utoff: 10800 (valid) 0x1a1-0x1a5 (4)
0x1a0|               01                              |     .          |        dst: 1 (valid) 0x1a5-0x1a6 (1)
0x1a0|                  04                           |      .         |        idx: 4 (valid) 0x1a6-0x1a7 (1)
     |                                               |                |      [9]{}: local_time_type 0x1a7-0x1ad (6)
0x1a0|                     00 00 38 40               |       ..8@     |        utoff: 14400 (valid) 0x1a7-0x1ab (4)
0x1a0|                                 01            |           .    |        dst: 1 (valid) 0x1ab-0x1ac (1)
0x1a0|                                    08         |            .   |        idx: 8 (valid) 0x1ac-0x1ad (1)
     |                                               |                |      [10]{}: local_time_type 0x1ad-0x1b3 (6)
0x1a0|                                       00 00 38|             ..8|        utoff: 14400 (valid) 0x1ad-0x1b1 (4)
0x1b0|40                                             |@               |
0x1b0|   00                                          | .              |        dst: 0 (valid) 0x1b1-0x1b2 (1)
0x1b0|      08                                       |  .             |        idx: 8 (valid) 0x1b2-0x1b3 (1)
     |                                               |                |    time_zone_designations[0:4]: 0x1b3-0x1c3 (16)
0x1b0|         4c 4d 54 00                           |   LMT.         |      [0]: "LMT" time_zone_designation 0x1b3-0x1b7 (4)
0x1b0|                     2b 30 33 00               |       +03.     |      [1]: "+03" time_zone_designation 0x1b7-0x1bb (4)
0x1b0|                                 2b 30 34 00   |           +04. |      [2]: "+04" time_zone_designation 0x1bb-0x1bf (4)
0x1b0|                                             2b|               +|      [3]: "+05" time_zone_designation 0x1bf-0x1c3 (4)
0x1c0|30 35 00                                       |05.             |
     |                                               |                |    leap_second_records[0:0]: 0x1c3-0x1c3 (0)
     |                                               |                |    standard_wall_indicators[0:11]: 0x1c3-0x1ce (11)
0x1c0|         00                                    |   .            |      [0]: 0 standard_wall_indicator (valid) 0x1c3-0x1c4 (1)
0x1c0|            01                                 |    .           |      [1]: 1 standard_wall_indicator (valid) 0x1c4-0x1c5 (1)
0x1c0|               00                              |     .          |      [2]: 0 standard_wall_indicator (valid) 0x1c5-0x1c6 (1)
0x1c0|                  00                           |      .         |      [3]: 0 standard_wall_indicator (valid) 0x1c6-0x1c7 (1)
0x1c0|                     01                        |       .        |      [4]: 1 standard_wall_indicator (valid) 0x1c7-0x1c8 (1)
0x1c0|                        01                     |        .       |      [5]: 1 standard_wall_indicator (valid) 0x1c8-0x1c9 (1)
0x1c0|                           01                  |         .      |      [6]: 1 standard_wall_indicator (valid) 0x1c9-0x1ca (1)
0x1c0|                              01               |          .     |      [7]: 1 standard_wall_indicator (valid) 0x1ca-0x1cb (1)
0x1c0|                                 01            |           .    |      [8]: 1 standard_wall_indicator (valid) 0x1cb-0x1cc (1)
0x1c0|                                    01         |            .   |      [9]: 1 standard_wall_indicator (valid) 0x1cc-0x1cd (1)
0x1c0|                                       01      |             .  |      [10]: 1 standard_wall_indicator (valid) 0x1cd-0x1ce (1)
     |                                               |                |    ut_local_indicators[0:11]: 0x1ce-0x1d9 (11)
0x1c0|                                          00   |              . |      [0]: 0 ut_local_indicator (valid) 0x1ce-0x1cf (1)
0x1c0|                                             01|               .|      [1]: 1 ut_local_indicator (valid) 0x1cf-0x1d0 (1)
0x1d0|00                                             |.               |      [2]: 0 ut_local_indicator (valid) 0x1d0-0x1d1 (1)
0x1d0|   00                                          | .              |      [3]: 0 ut_local_indicator (valid) 0x1d1-0x1d2 (1)
0x1d0|      00                                       |  .             |      [4]: 0 ut_local_indicator (valid) 0x1d2-0x1d3 (1)
0x1d0|         00                                    |   .            |      [5]: 0 ut_local_indicator (valid) 0x1d3-0x1d4 (1)
0x1d0|            00                                 |    .           |      [6]: 0 ut_local_indicator (valid) 0x1d4-0x1d5 (1)
0x1d0|               00                              |     .          |      [7]: 0 ut_local_indicator (valid) 0x1d5-0x1d6 (1)
0x1d0|                  00                           |      .         |      [8]: 0 ut_local_indicator (valid) 0x1d6-0x1d7 (1)
0x1d0|                     00                        |       .        |      [9]: 0 ut_local_indicator (valid) 0x1d7-0x1d8 (1)
0x1d0|                        00                     |        .       |      [10]: 0 ut_local_indicator (valid) 0x1d8-0x1d9 (1)
     |                                               |                |  v2plusheader{}: 0x1d9-0x205 (44)
0x1d0|                           54 5a 69 66         |         TZif   |    magic: 0x545a6966 (valid) 0x1d9-0x1dd (4)
0x1d0|                                       32      |             2  |    ver: "2" (0x32) (valid) 0x1dd-0x1de (1)
0x1d0|                                          00 00|              ..|    reserved: raw bits 0x1de-0x1ed (15)
0x1e0|00 00 00 00 00 00 00 00 00 00 00 00 00         |.............   |
0x1e0|                                       00 00 00|             ...|    isutcnt: 11 0x1ed-0x1f1 (4)
0x1f0|0b                                             |.               |
0x1f0|   00 00 00 0b                                 | ....           |    isstdcnt: 11 0x1f1-0x1f5 (4)
0x1f0|               00 00 00 00                     |     ....       |    leapcnt: 0 0x1f5-0x1f9 (4)
0x1f0|                           00 00 00 41         |         ...A   |    timecnt: 65 0x1f9-0x1fd (4)
0x1f0|                                       00 00 00|             ...|    typecnt: 11 0x1fd-0x201 (4)
0x200|0b                                             |.               |
0x200|   00 00 00 10                                 | ....           |    charcnt: 16 0x201-0x205 (4)
     |                                               |                |  v2plusdatablock{}: 0x205-0x4b6 (689)
     |                                               |                |    transition_times[0:65]: 0x205-0x40d (520)
0x200|               ff ff ff ff a1 00 39 80         |     ......9.   |      [0]: "1919-07-01T00:00:00Z" (-1593820800) transition_time 0x205-0x20d (8)
0x200|                                       ff ff ff|             ...|      [1]: "1930-06-20T21:00:00Z" (-1247540400) transition_time 0x20d-0x215 (8)
0x210|ff b5 a4 0b 50                                 |....P           |
0x210|               00 00 00 00 15 27 99 c0         |     .....'..   |      [2]: "1981-03-31T20:00:00Z" (354916800) transition_time 0x215-0x21d (8)
0x210|                                       00 00 00|             ...|      [3]: "1981-09-30T19:00:00Z" (370724400) transition_time 0x21d-0x225 (8)
0x220|00 16 18 ce 30                                 |....0           |
0x220|               00 00 00 00 17 08 cd 40         |     .......@   |      [4]: "1982-03-31T20:00:00Z" (386452800) transition_time 0x225-0x22d (8)
0x220|                                       00 00 00|             ...|      [5]: "1982-09-30T19:00:00Z" (402260400) transition_time 0x22d-0x235 (8)
0x230|00 17 fa 01 b0                                 |.....           |
0x230|               00 00 00 00 18 ea 00 c0         |     ........   |      [6]: "1983-03-31T20:00:00Z" (417988800) transition_time 0x235-0x23d (8)
0x230|                                       00 00 00|             ...|      [7]: "1983-09-30T19:00:00Z" (433796400) transition_time 0x23d-0x245 (8)
0x240|00 19 db 35 30                                 |...50           |
0x240|               00 00 00 00 1a cc 85 c0         |     ........   |      [8]: "1984-03-31T20:00:00Z" (449611200) transition_time 0x245-0x24d (8)
0x240|                                       00 00 00|             ...|      [9]: "1984-09-29T22:00:00Z" (465343200) transition_time 0x24d-0x255 (8)
0x250|00 1b bc 92 e0                                 |.....           |
0x250|               00 00 00 00 1c ac 83 e0         |     ........   |      [10]: "1985-03-30T22:00:00Z" (481068000) transition_time 0x255-0x25d (8)
0x250|                                       00 00 00|             ...|      [11]: "1985-09-28T22:00:00Z" (496792800) transition_time 0x25d-0x265 (8)
0x260|00 1d 9c 74 e0                                 |...t.           |
0x260|               00 00 00 00 1e 8c 65 e0         |     ......e.   |      [12]: "1986-03-29T22:00:00Z" (512517600) transition_time 0x265-0x26d (8)
0x260|                                       00 00 00|             ...|      [13]: "1986-09-27T22:00:00Z" (528242400) transition_time 0x26d-0x275 (8)
0x270|00 1f 7c 56 e0                                 |..|V.           |
0x270|               00 00 00 00 20 6c 47 e0         |     .... lG.   |      [14]: "1987-03-28T22:00:00Z" (543967200) transition_time 0x275-0x27d (8)
0x270|                                       00 00 00|             ...|      [15]: "1987-09-26T22:00:00Z" (559692000) transition_time 0x27d-0x285 (8)
0x280|00 21 5c 38 e0                                 |.!\8.           |
0x280|               00 00 00 00 22 4c 29 e0         |     ...."L).   |      [16]: "1988-03-26T22:00:00Z" (575416800) transition_time 0x285-0x28d (8)
0x280|                                       00 00 00|             ...|      [17]: "1988-09-24T22:00:00Z" (591141600) transition_time 0x28d-0x295 (8)
0x290|00 23 3c 1a e0                                 |.#<..           |
0x290|               00 00 00 00 24 2c 0b e0         |     ....$,..   |      [18]: "1989-03-25T22:00:00Z" (606866400) transition_time 0x295-0x29d (8)
0x290|                                       00 00 00|             ...|      [19]: "1989-09-23T23:00:00Z" (622594800) transition_time 0x29d-0x2a5 (8)
0x2a0|00 25 1c 0a f0                                 |.%...           |
0x2a0|               00 00 00 00 26 0b fb f0         |     ....&...   |      [20]: "1990-03-24T23:00:00Z" (638319600) transition_time 0x2a5-0x2ad (8)
0x2a0|                                       00 00 00|             ...|      [21]: "1990-09-29T23:00:00Z" (654649200) transition_time 0x2ad-0x2b5 (8)
0x2b0|00 27 05 27 70                                 |.'.'p           |
0x2b0|               00 00 00 00 27 f5 18 70         |     ....'..p   |      [22]: "1991-03-30T23:00:00Z" (670374000) transition_time 0x2b5-0x2bd (8)
0x2b0|                                       00 00 00|             ...|      [23]: "1991-09-29T00:00:00Z" (686102400) transition_time 0x2bd-0x2c5 (8)
0x2c0|00 28 e5 17 80                                 |.(...           |
0x2c0|               00 00 00 00 29 00 c7 00         |     ....)...   |      [24]: "1991-10-20T00:00:00Z" (687916800) transition_time 0x2c5-0x2cd (8)
0x2c0|                                       00 00 00|             ...|      [25]: "1992-03-28T22:00:00Z" (701820000) transition_time 0x2cd-0x2d5 (8)
0x2d0|00 29 d4 ec 60                                 |.)..`           |
0x2d0|               00 00 00 00 2a c4 dd 60         |     ....*..`   |      [26]: "1992-09-26T22:00:00Z" (717544800) transition_time 0x2d5-0x2dd (8)
0x2d0|                                       00 00 00|             ...|      [27]: "1993-03-27T22:00:00Z" (733269600) transition_time 0x2dd-0x2e5 (8)
0x2e0|00 2b b4 ce 60                                 |.+..`           |
0x2e0|               00 00 00 00 2c a4 bf 60         |     ....,..`   |      [28]: "1993-09-25T22:00:00Z" (748994400) transition_time 0x2e5-0x2ed (8)
0x2e0|                                       00 00 00|             ...|      [29]: "1994-03-26T22:00:00Z" (764719200) transition_time 0x2ed-0x2f5 (8)
0x2f0|00 2d 94 b0 60                                 |.-..`           |
0x2f0|               00 00 00 00 2e 84 a1 60         |     .......`   |      [30]: "1994-09-24T22:00:00Z" (780444000) transition_time 0x2f5-0x2fd (8)
0x2f0|                                       00 00 00|             ...|      [31]: "1995-03-25T22:00:00Z" (796168800) transition_time 0x2fd-0x305 (8)
0x300|00 2f 74 92 60                                 |./t.`           |
0x300|               00 00 00 00 30 64 83 60         |     ....0d.`   |      [32]: "1995-09-23T22:00:00Z" (811893600) transition_time 0x305-0x30d (8)
0x300|                                       00 00 00|             ...|      [33]: "1996-03-30T22:00:00Z" (828223200) transition_time 0x30d-0x315 (8)
0x310|00 31 5d ae e0                                 |.1]..           |
0x310|               00 00 00 00 32 72 89 e0         |     ....2r..   |      [34]: "1996-10-26T22:00:00Z" (846367200) transition_time 0x315-0x31d (8)
0x310|                                       00 00 00|             ...|      [35]: "1997-03-29T22:00:00Z" (859672800) transition_time 0x31d-0x325 (8)
0x320|00 33 3d 90 e0                                 |.3=..           |
0x320|               00 00 00 00 34 52 6b e0         |     ....4Rk.   |      [36]: "1997-10-25T22:00:00Z" (877816800) transition_time 0x325-0x32d (8)
0x320|                                       00 00 00|             ...|      [37]: "1998-03-28T22:00:00Z" (891122400) transition_time 0x32d-0x335 (8)
0x330|00 35 1d 72 e0                                 |.5.r.           |
0x330|               00 00 00 00 36 32 4d e0         |     ....62M.   |      [38]: "1998-10-24T22:00:00Z" (909266400) transition_time 0x335-0x33d (8)
0x330|                                       00 00 00|             ...|      [39]: "1999-03-27T22:00:00Z" (922572000) transition_time 0x33d-0x345 (8)
0x340|00 36 fd 54 e0                                 |.6.T.           |
0x340|               00 00 00 00 38 1b 6a 60         |     ....8.j`   |      [40]: "1999-10-30T22:00:00Z" (941320800) transition_time 0x345-0x34d (8)
0x340|                                       00 00 00|             ...|      [41]: "2000-03-25T22:00:00Z" (954021600) transition_time 0x34d-0x355 (8)
0x350|00 38 dd 36 e0                                 |.8.6.           |
0x350|               00 00 00 00 39 fb 4c 60         |     ....9.L`   |      [42]: "2000-10-28T22:00:00Z" (972770400) transition_time 0x355-0x35d (8)
0x350|                                       00 00 00|             ...|      [43]: "2001-03-24T22:00:00Z" (985471200) transition_time 0x35d-0x365 (8)
0x360|00 3a bd 18 e0                                 |.:...           |
0x360|               00 00 00 00 3b db 2e 60         |     ....;..`   |      [44]: "2001-10-27T22:00:00Z" (1004220000) transition_time 0x365-0x36d (8)
0x360|                                       00 00 00|             ...|      [45]: "2002-03-30T22:00:00Z" (1017525600) transition_time 0x36d-0x375 (8)
0x370|00 3c a6 35 60                                 |.<.5`           |
0x370|               00 00 00 00 3d bb 10 60         |     ....=..`   |      [46]: "2002-10-26T22:00:00Z" (1035669600) transition_time 0x375-0x37d (8)
0x370|                                       00 00 00|             ...|      [47]: "2003-03-29T22:00:00Z" (1048975200) transition_time 0x37d-0x385 (8)
0x380|00 3e 86 17 60                                 |.>..`           |
0x380|               00 00 00 00 3f 9a f2 60         |     ....?..`   |      [48]: "2003-10-25T22:00:00Z" (1067119200) transition_time 0x385-0x38d (8)
0x380|                                       00 00 00|             ...|      [49]: "2004-03-27T22:00:00Z" (1080424800) transition_time 0x38d-0x395 (8)
0x390|00 40 65 f9 60                                 |.@e.`           |
0x390|               00 00 00 00 41 84 0e e0         |     ....A...   |      [50]: "2004-10-30T22:00:00Z" (1099173600) transition_time 0x395-0x39d (8)
0x390|                                       00 00 00|             ...|      [51]: "2005-03-26T22:00:00Z" (1111874400) transition_time 0x39d-0x3a5 (8)
0x3a0|00 42 45 db 60                                 |.BE.`           |
0x3a0|               00 00 00 00 43 63 f0 e0         |     ....Cc..   |      [52]: "2005-10-29T22:00:00Z" (1130623200) transition_time 0x3a5-0x3ad (8)
0x3a0|                                       00 00 00|             ...|      [53]: "2006-03-25T22:00:00Z" (1143324000) transition_time 0x3ad-0x3b5 (8)
0x3b0|00 44 25 bd 60                                 |.D%.`           |
0x3b0|               00 00 00 00 45 43 d2 e0         |     ....EC..   |      [54]: "2006-10-28T22:00:00Z" (1162072800) transition_time 0x3b5-0x3bd (8)
0x3b0|                                       00 00 00|             ...|      [55]: "2007-03-24T22:00:00Z" (1174773600) transition_time 0x3bd-0x3c5 (8)
0x3c0|00 46 05 9f 60                                 |.F..`           |
0x3c0|               00 00 00 00 47 23 b4 e0         |     ....G#..   |      [56]: "2007-10-27T22:00:00Z" (1193522400) transition_time 0x3c5-0x3cd (8)
0x3c0|                                       00 00 00|             ...|      [57]: "2008-03-29T22:00:00Z" (1206828000) transition_time 0x3cd-0x3d5 (8)
0x3d0|00 47 ee bb e0                                 |.G...           |
0x3d0|               00 00 00 00 49 03 96 e0         |     ....I...   |      [58]: "2008-10-25T22:00:00Z" (1224972000) transition_time 0x3d5-0x3dd (8)
0x3d0|                                       00 00 00|             ...|      [59]: "2009-03-28T22:00:00Z" (1238277600) transition_time 0x3dd-0x3e5 (8)
0x3e0|00 49 ce 9d e0                                 |.I...           |
0x3e0|               00 00 00 00 4a e3 78 e0         |     ....J.x.   |      [60]: "2009-10-24T22:00:00Z" (1256421600) transition_time 0x3e5-0x3ed (8)
0x3e0|                                       00 00 00|             ...|      [61]: "2010-03-27T22:00:00Z" (1269727200) transition_time 0x3ed-0x3f5 (8)
0x3f0|00 4b ae 7f e0                                 |.K...           |
0x3f0|               00 00 00 00 4c cc a3 70         |     ....L..p   |      [62]: "2010-10-30T23:00:00Z" (1288479600) transition_time 0x3f5-0x3fd (8)
0x3f0|                                       00 00 00|             ...|      [63]: "2011-03-26T23:00:00Z" (1301180400) transition_time 0x3fd-0x405 (8)
0x400|00 4d 8e 6f f0                                 |.M.o.           |
0x400|               00 00 00 00 7f ff ff ff         |     ........   |      [64]: "2038-01-19T03:14:07Z" (2147483647) transition_time 0x405-0x40d (8)
     |                                               |                |    transition_types[0:65]: 0x40d-0x44e (65)
0x400|                                       01      |             .  |      [0]: 1 transition_type 0x40d-0x40e (1)
0x400|                                          02   |              . |      [1]: 2 transition_type 0x40e-0x40f (1)
0x400|                                             03|               .|      [2]: 3 transition_type 0x40f-0x410 (1)
0x410|02                                             |.               |      [3]: 2 transition_type 0x410-0x411 (1)
0x410|   03                                          | .              |      [4]: 3 transition_type 0x411-0x412 (1)
0x410|      02                                       |  .             |      [5]: 2 transition_type 0x412-0x413 (1)
0x410|         03                                    |   .            |      [6]: 3 transition_type 0x413-0x414 (1)
0x410|            02                                 |    .           |      [7]: 2 transition_type 0x414-0x415 (1)
0x410|               03                              |     .          |      [8]: 3 transition_type 0x415-0x416 (1)
0x410|                  04                           |      .         |      [9]: 4 transition_type 0x416-0x417 (1)
0x410|                     05                        |       .        |      [10]: 5 transition_type 0x417-0x418 (1)
0x410|                        04                     |        .       |      [11]: 4 transition_type 0x418-0x419 (1)
0x410|                           05                  |         .      |      [12]: 5 transition_type 0x419-0x41a (1)
0x410|                              04               |          .     |      [13]: 4 transition_type 0x41a-0x41b (1)
0x410|                                 05            |           .    |      [14]: 5 transition_type 0x41b-0x41c (1)
0x410|                                    04         |            .   |      [15]: 4 transition_type 0x41c-0x41d (1)
0x410|                                       05      |             .  |      [16]: 5 transition_type 0x41d-0x41e (1)
0x410|                                          04   |              . |      [17]: 4 transition_type 0x41e-0x41f (1)
0x410|                                             06|               .|      [18]: 6 transition_type 0x41f-0x420 (1)
0x420|07                                             |.               |      [19]: 7 transition_type 0x420-0x421 (1)
0x420|   06                                          | .              |      [20]: 6 transition_type 0x421-0x422 (1)
0x420|      07                                       |  .             |      [21]: 7 transition_type 0x422-0x423 (1)
0x420|         08                                    |   .            |      [22]: 8 transition_type 0x423-0x424 (1)
0x420|            07                                 |    .           |      [23]: 7 transition_type 0x424-0x425 (1)
0x420|               02                              |     .          |      [24]: 2 transition_type 0x425-0x426 (1)
0x420|                  05                           |      .         |      [25]: 5 transition_type 0x426-0x427 (1)
0x420|                     04                        |       .        |      [26]: 4 transition_type 0x427-0x428 (1)
0x420|                        05                     |        .       |      [27]: 5 transition_type 0x428-0x429 (1)
0x420|                           04                  |         .      |      [28]: 4 transition_type 0x429-0x42a (1)
0x420|                              05               |          .     |      [29]: 5 transition_type 0x42a-0x42b (1)
0x420|                                 04            |           .    |      [30]: 4 transition_type 0x42b-0x42c (1)
0x420|                                    05         |            .   |      [31]: 5 transition_type 0x42c-0x42d (1)
0x420|                                       04      |             .  |      [32]: 4 transition_type 0x42d-0x42e (1)
0x420|                                          05   |              . |      [33]: 5 transition_type 0x42e-0x42f (1)
0x420|                                             04|               .|      [34]: 4 transition_type 0x42f-0x430 (1)
0x430|05                                             |.               |      [35]: 5 transition_type 0x430-0x431 (1)
0x430|   04                                          | .              |      [36]: 4 transition_type 0x431-0x432 (1)
0x430|      05                                       |  .             |      [37]: 5 transition_type 0x432-0x433 (1)
0x430|         04                                    |   .            |      [38]: 4 transition_type 0x433-0x434 (1)
0x430|            05                                 |    .           |      [39]: 5 transition_type 0x434-0x435 (1)
0x430|               04                              |     .          |      [40]: 4 transition_type 0x435-0x436 (1)
0x430|                  05                           |      .         |      [41]: 5 transition_type 0x436-0x437 (1)
0x430|                     04                        |       .        |      [42]: 4 transition_type 0x437-0x438 (1)
0x430|                        05                     |        .       |      [43]: 5 transition_type 0x438-0x439 (1)
0x430|                           04                  |         .      |      [44]: 4 transition_type 0x439-0x43a (1)
0x430|                              05               |          .     |      [45]: 5 transition_type 0x43a-0x43b (1)
0x430|                                 04            |           .    |      [46]: 4 transition_type 0x43b-0x43c (1)
0x430|                                    05         |            .   |      [47]: 5 transition_type 0x43c-0x43d (1)
0x430|                                       04      |             .  |      [48]: 4 transition_type 0x43d-0x43e (1)
0x430|                                          05   |              . |      [49]: 5 transition_type 0x43e-0x43f (1)
0x430|                                             04|               .|      [50]: 4 transition_type 0x43f-0x440 (1)
0x440|05                                             |.               |      [51]: 5 transition_type 0x440-0x441 (1)
0x440|   04                                          | .              |      [52]: 4 transition_type 0x441-0x442 (1)
0x440|      05                                       |  .             |      [53]: 5 transition_type 0x442-0x443 (1)
0x440|         04                                    |   .            |      [54]: 4 transition_type 0x443-0x444 (1)
0x440|            05                                 |    .           |      [55]: 5 transition_type 0x444-0x445 (1)
0x440|               04                              |     .          |      [56]: 4 transition_type 0x445-0x446 (1)
0x440|                  05                           |      .         |      [57]: 5 transition_type 0x446-0x447 (1)
0x440|                     04                        |       .        |      [58]: 4 transition_type 0x447-0x448 (1)
0x440|                        05                     |        .       |      [59]: 5 transition_type 0x448-0x449 (1)
0x440|                           04                  |         .      |      [60]: 4 transition_type 0x449-0x44a (1)
0x440|                              06               |          .     |      [61]: 6 transition_type 0x44a-0x44b (1)
0x440|                                 07            |           .    |      [62]: 7 transition_type 0x44b-0x44c (1)
0x440|                                    04         |            .   |      [63]: 4 transition_type 0x44c-0x44d (1)
0x440|                                       04      |             .  |      [64]: 4 transition_type 0x44d-0x44e (1)
     |                                               |                |    local_time_type_records[0:11]: 0x44e-0x490 (66)
     |                                               |                |      [0]{}: local_time_type 0x44e-0x454 (6)
0x440|                                          00 00|              ..|        utoff: 12020 (valid) 0x44e-0x452 (4)
0x450|2e f4                                          |..              |
0x450|      00                                       |  .             |        dst: 0 (valid) 0x452-0x453 (1)
0x450|         00                                    |   .            |        idx: 0 (valid) 0x453-0x454 (1)
     |                                               |                |      [1]{}: local_time_type 0x454-0x45a (6)
0x450|            00 00 2a 30                        |    ..*0        |        utoff: 10800 (valid) 0x454-0x458 (4)
0x450|                        00                     |        .       |        dst: 0 (valid) 0x458-0x459 (1)
0x450|                           04                  |         .      |        idx: 4 (valid) 0x459-0x45a (1)
     |                                               |                |      [2]{}: local_time_type 0x45a-0x460 (6)
0x450|                              00 00 38 40      |          ..8@  |        utoff: 14400 (valid) 0x45a-0x45e (4)
0x450|                                          00   |              . |        dst: 0 (valid) 0x45e-0x45f (1)
0x450|                                             08|               .|        idx: 8 (valid) 0x45f-0x460 (1)
     |                                               |                |      [3]{}: local_time_type 0x460-0x466 (6)
0x460|00 00 46 50                                    |..FP            |        utoff: 18000 (valid) 0x460-0x464 (4)
0x460|            01                                 |    .           |        dst: 1 (valid) 0x464-0x465 (1)
0x460|               0c                              |     .          |        idx: 12 (valid) 0x465-0x466 (1)
     |                                               |                |      [4]{}: local_time_type 0x466-0x46c (6)
0x460|                  00 00 38 40                  |      ..8@      |        utoff: 14400 (valid) 0x466-0x46a (4)
0x460|                              00               |          .     |        dst: 0 (valid) 0x46a-0x46b (1)
0x460|                                 08            |           .    |        idx: 8 (valid) 0x46b-0x46c (1)
     |                                               |                |      [5]{}: local_time_type 0x46c-0x472 (6)
0x460|                                    00 00 46 50|            ..FP|        utoff: 18000 (valid) 0x46c-0x470 (4)
0x470|01                                             |.               |        dst: 1 (valid) 0x470-0x471 (1)
0x470|   0c                                          | .              |        idx: 12 (valid) 0x471-0x472 (1)
     |                                               |                |      [6]{}: local_time_type 0x472-0x478 (6)
0x470|      00 00 38 40                              |  ..8@          |        utoff: 14400 (valid) 0x472-0x476 (4)
0x470|                  01                           |      .         |        dst: 1 (valid) 0x476-0x477 (1)
0x470|                     08                        |       .        |        idx: 8 (valid) 0x477-0x478 (1)
     |                                               |                |      [7]{}: local_time_type 0x478-0x47e (6)
0x470|                        00 00 2a 30            |        ..*0    |        utoff: 10800 (valid) 0x478-0x47c (4)
0x470|                                    00         |            .   |        dst: 0 (valid) 0x47c-0x47d (1)
0x470|                                       04      |             .  |        idx: 4 (valid) 0x47d-0x47e (1)
     |                                               |                |      [8]{}: local_time_type 0x47e-0x484 (6)
0x470|                                          00 00|              ..|        utoff: 10800 (valid) 0x47e-0x482 (4)
0x480|2a 30                                          |*0              |
0x480|      01                                       |  .             |        dst: 1 (valid) 0x482-0x483 (1)
0x480|         04                                    |   .            |        idx: 4 (valid) 0x483-0x484 (1)
     |                                               |                |      [9]{}: local_time_type 0x484-0x48a (6)
0x480|            00 00 38 40                        |    ..8@        |        utoff: 14400 (valid) 0x484-0x488 (4)
0x480|                        01                     |        .       |        dst: 1 (valid) 0x488-0x489 (1)
0x480|                           08                  |         .      |        idx: 8 (valid) 0x489-0x48a (1)
     |                                               |                |      [10]{}: local_time_type 0x48a-0x490 (6)
0x480|                              00 00 38 40      |          ..8@  |        utoff: 14400 (valid) 0x48a-0x48e (4)
0x480|                                          00   |              . |        dst: 0 (valid) 0x48e-0x48f (1)
0x480|                                             08|               .|        idx: 8 (valid) 0x48f-0x490 (1)
     |                                               |                |    time_zone_designations[0:4]: 0x490-0x4a0 (16)
0x490|4c 4d 54 00                                    |LMT.            |      [0]: "LMT" time_zone_designation 0x490-0x494 (4)
0x490|            2b 30 33 00                        |    +03.        |      [1]: "+03" time_zone_designation 0x494-0x498 (4)
0x490|                        2b 30 34 00            |        +04.    |      [2]: "+04" time_zone_designation 0x498-0x49c (4)
0x490|                                    2b 30 35 00|            +05.|      [3]: "+05" time_zone_designation 0x49c-0x4a0 (4)
     |                                               |                |    leap_second_records[0:0]: 0x4a0-0x4a0 (0)
     |                                               |                |    standard_wall_indicators[0:11]: 0x4a0-0x4ab (11)
0x4a0|00                                             |.               |      [0]: 0 standard_wall_indicator (valid) 0x4a0-0x4a1 (1)
0x4a0|   01                                          | .              |      [1]: 1 standard_wall_indicator (valid) 0x4a1-0x4a2 (1)
0x4a0|      00                                       |  .             |      [2]: 0 standard_wall_indicator (valid) 0x4a2-0x4a3 (1)
0x4a0|         00                                    |   .            |      [3]: 0 standard_wall_indicator (valid) 0x4a3-0x4a4 (1)
0x4a0|            01                                 |    .           |      [4]: 1 standard_wall_indicator (valid) 0x4a4-0x4a5 (1)
0x4a0|               01                              |     .          |      [5]: 1 standard_wall_indicator (valid) 0x4a5-0x4a6 (1)
0x4a0|                  01                           |      .         |      [6]: 1 standard_wall_indicator (valid) 0x4a6-0x4a7 (1)
0x4a0|                     01                        |       .        |      [7]: 1 standard_wall_indicator (valid) 0x4a7-0x4a8 (1)
0x4a0|                        01                     |        .       |      [8]: 1 standard_wall_indicator (valid) 0x4a8-0x4a9 (1)
0x4a0|                           01                  |         .      |      [9]: 1 standard_wall_indicator (valid) 0x4a9-0x4aa (1)
0x4a0|                              01               |          .     |      [10]: 1 standard_wall_indicator (valid) 0x4aa-0x4ab (1)
     |                                               |                |    ut_local_indicators[0:11]: 0x4ab-0x4b6 (11)
0x4a0|                                 00            |           .    |      [0]: 0 ut_local_indicator (valid) 0x4ab-0x4ac (1)
0x4a0|                                    01         |            .   |      [1]: 1 ut_local_indicator (valid) 0x4ac-0x4ad (1)
0x4a0|                                       00      |             .  |      [2]: 0 ut_local_indicator (valid) 0x4ad-0x4ae (1)
0x4a0|                                          00   |              . |      [3]: 0 ut_local_indicator (valid) 0x4ae-0x4af (1)
0x4a0|                                             00|               .|      [4]: 0 ut_local_indicator (valid) 0x4af-0x4b0 (1)
0x4b0|00                                             |.               |      [5]: 0 ut_local_indicator (valid) 0x4b0-0x4b1 (1)
0x4b0|   00                                          | .              |      [6]: 0 ut_local_indicator (valid) 0x4b1-0x4b2 (1)
0x4b0|      00                                       |  .             |      [7]: 0 ut_local_indicator (valid) 0x4b2-0x4b3 (1)
0x4b0|         00                                    |   .            |      [8]: 0 ut_local_indicator (valid) 0x4b3-0x4b4 (1)
0x4b0|            00                                 |    .           |      [9]: 0 ut_local_indicator (valid) 0x4b4-0x4b5 (1)
0x4b0|               00                              |     .          |      [10]: 0 ut_local_indicator (valid) 0x4b5-0x4b6 (1)
     |                                               |                |  footer{}: 0x4b6-0x4bf (9)
0x4b0|                  0a                           |      .         |    nl1: 10 (valid) 0x4b6-0x4b7 (1)
0x4b0|                     3c 2b 30 34 3e 2d 34      |       <+04>-4  |    tz_string: "<+04>-4" 0x4b7-0x4be (7)
0x4b0|                                          0a|  |              .||    nl2: 10 (valid) 0x4be-0x4bf (1)
