$ fq -d tzif dv San_Luis
     |00 01 02 03 04 05 06 07 08 09 0a 0b 0c 0d 0e 0f|0123456789abcdef|.{}: San_Luis (tzif) 0x0-0x664 (1636)
     |                                               |                |  v1header{}: 0x0-0x2c (44)
0x000|54 5a 69 66                                    |TZif            |    magic: 0x545a6966 (valid) 0x0-0x4 (4)
0x000|            32                                 |    2           |    ver: "2" (0x32) (valid) 0x4-0x5 (1)
0x000|               00 00 00 00 00 00 00 00 00 00 00|     ...........|    reserved: raw bits 0x5-0x14 (15)
0x010|00 00 00 00                                    |....            |
0x010|            00 00 00 00                        |    ....        |    isutcnt: 0 0x14-0x18 (4)
0x010|                        00 00 00 00            |        ....    |    isstdcnt: 0 0x18-0x1c (4)
0x010|                                    00 00 00 1b|            ....|    leapcnt: 27 0x1c-0x20 (4)
0x020|00 00 00 3f                                    |...?            |    timecnt: 63 0x20-0x24 (4)
0x020|            00 00 00 07                        |    ....        |    typecnt: 7 0x24-0x28 (4)
0x020|                        00 00 00 14            |        ....    |    charcnt: 20 0x28-0x2c (4)
     |                                               |                |  v1datablock{}: 0x2c-0x27d (593)
     |                                               |                |    transition_times[0:63]: 0x2c-0x128 (252)
0x020|                                    80 00 00 00|            ....|      [0]: "1901-12-13T20:45:52Z" (-2147483648) transition_time 0x2c-0x30 (4)
0x030|a2 92 8f 30                                    |...0            |      [1]: "1920-05-01T04:16:48Z" (-1567453392) transition_time 0x30-0x34 (4)
0x030|            b6 7b 52 40                        |    .{R@        |      [2]: "1930-12-01T04:00:00Z" (-1233432000) transition_time 0x34-0x38 (4)
0x030|                        b7 1a c9 b0            |        ....    |      [3]: "1931-04-01T03:00:00Z" (-1222981200) transition_time 0x38-0x3c (4)
0x030|                                    b8 1e 8f 40|            ...@|      [4]: "1931-10-15T04:00:00Z" (-1205956800) transition_time 0x3c-0x40 (4)
0x040|b8 d4 70 30                                    |..p0            |      [5]: "1932-03-01T03:00:00Z" (-1194037200) transition_time 0x40-0x44 (4)
0x040|            ba 17 7d c0                        |    ..}.        |      [6]: "1932-11-01T04:00:00Z" (-1172865600) transition_time 0x44-0x48 (4)
0x040|                        ba b5 a3 b0            |        ....    |      [7]: "1933-03-01T03:00:00Z" (-1162501200) transition_time 0x48-0x4c (4)
0x040|                                    bb f8 b1 40|            ...@|      [8]: "1933-11-01T04:00:00Z" (-1141329600) transition_time 0x4c-0x50 (4)
0x050|bc 96 d7 30                                    |...0            |      [9]: "1934-03-01T03:00:00Z" (-1130965200) transition_time 0x50-0x54 (4)
0x050|            bd d9 e4 c0                        |    ....        |      [10]: "1934-11-01T04:00:00Z" (-1109793600) transition_time 0x54-0x58 (4)
0x050|                        be 78 0a b0            |        .x..    |      [11]: "1935-03-01T03:00:00Z" (-1099429200) transition_time 0x58-0x5c (4)
0x050|                                    bf bb 18 40|            ...@|      [12]: "1935-11-01T04:00:00Z" (-1078257600) transition_time 0x5c-0x60 (4)
0x060|c0 5a 8f b0                                    |.Z..            |      [13]: "1936-03-01T03:00:00Z" (-1067806800) transition_time 0x60-0x64 (4)
0x060|            c1 9d 9d 40                        |    ...@        |      [14]: "1936-11-01T04:00:00Z" (-1046635200) transition_time 0x64-0x68 (4)
0x060|                        c2 3b c3 30            |        .;.0    |      [15]: "1937-03-01T03:00:00Z" (-1036270800) transition_time 0x68-0x6c (4)
0x060|                                    c3 7e d0 c0|            .~..|      [16]: "1937-11-01T04:00:00Z" (-1015099200) transition_time 0x6c-0x70 (4)
0x070|c4 1c f6 b0                                    |....            |      [17]: "1938-03-01T03:00:00Z" (-1004734800) transition_time 0x70-0x74 (4)
0x070|            c5 60 04 40                        |    .`.@        |      [18]: "1938-11-01T04:00:00Z" (-983563200) transition_time 0x74-0x78 (4)
0x070|                        c5 fe 2a 30            |        ..*0    |      [19]: "1939-03-01T03:00:00Z" (-973198800) transition_time 0x78-0x7c (4)
0x070|                                    c7 41 37 c0|            .A7.|      [20]: "1939-11-01T04:00:00Z" (-952027200) transition_time 0x7c-0x80 (4)
0x080|c7 e0 af 30                                    |...0            |      [21]: "1940-03-01T03:00:00Z" (-941576400) transition_time 0x80-0x84 (4)
0x080|            c8 81 94 40                        |    ...@        |      [22]: "1940-07-01T04:00:00Z" (-931032000) transition_time 0x84-0x88 (4)
0x080|                        ca 4d a1 b0            |        .M..    |      [23]: "1941-06-15T03:00:00Z" (-900882000) transition_time 0x88-0x8c (4)
0x080|                                    ca ee 86 c0|            ....|      [24]: "1941-10-15T04:00:00Z" (-890337600) transition_time 0x8c-0x90 (4)
0x090|ce 4d ff 30                                    |.M.0            |      [25]: "1943-08-01T03:00:00Z" (-833749200) transition_time 0x90-0x94 (4)
0x090|            ce b0 ed c0                        |    ....        |      [26]: "1943-10-15T04:00:00Z" (-827265600) transition_time 0x94-0x98 (4)
0x090|                        d3 29 35 b0            |        .)5.    |      [27]: "1946-03-01T03:00:00Z" (-752274000) transition_time 0x98-0x9c (4)
0x090|                                    d4 43 64 c0|            .Cd.|      [28]: "1946-10-01T04:00:00Z" (-733780800) transition_time 0x9c-0xa0 (4)
0x0a0|f4 3d 08 30                                    |.=.0            |      [29]: "1963-10-01T03:00:00Z" (-197326800) transition_time 0xa0-0xa4 (4)
0x0a0|            f4 9f f6 c0                        |    ....        |      [30]: "1963-12-15T04:00:00Z" (-190843200) transition_time 0xa4-0xa8 (4)
0x0a0|                        f5 05 6c 30            |        ..l0    |      [31]: "1964-03-01T03:00:00Z" (-184194000) transition_time 0xa8-0xac (4)
0x0a0|                                    f6 32 10 40|            .2.@|      [32]: "1964-10-15T04:00:00Z" (-164491200) transition_time 0xac-0xb0 (4)
0x0b0|f6 e6 9f b0                                    |....            |      [33]: "1965-03-01T03:00:00Z" (-152658000) transition_time 0xb0-0xb4 (4)
0x0b0|            f8 13 43 c0                        |    ..C.        |      [34]: "1965-10-15T04:00:00Z" (-132955200) transition_time 0xb4-0xb8 (4)
0x0b0|                        f8 c7 d3 30            |        ...0    |      [35]: "1966-03-01T03:00:00Z" (-121122000) transition_time 0xb8-0xbc (4)
0x0b0|                                    f9 f4 77 40|            ..w@|      [36]: "1966-10-15T04:00:00Z" (-101419200) transition_time 0xbc-0xc0 (4)
0x0c0|fa d3 36 b0                                    |..6.            |      [37]: "1967-04-02T03:00:00Z" (-86821200) transition_time 0xc0-0xc4 (4)
0x0c0|            fb c3 35 c0                        |    ..5.        |      [38]: "1967-10-01T04:00:00Z" (-71092800) transition_time 0xc4-0xc8 (4)
0x0c0|                        fc bc 53 30            |        ..S0    |      [39]: "1968-04-07T03:00:00Z" (-54766800) transition_time 0xc8-0xcc (4)
0x0c0|                                    fd ac 52 40|            ..R@|      [40]: "1968-10-06T04:00:00Z" (-39038400) transition_time 0xcc-0xd0 (4)
0x0d0|fe 9c 35 30                                    |..50            |      [41]: "1969-04-06T03:00:00Z" (-23317200) transition_time 0xd0-0xd4 (4)
0x0d0|            ff 8c 34 40                        |    ..4@        |      [42]: "1969-10-05T04:00:00Z" (-7588800) transition_time 0xd4-0xd8 (4)
0x0d0|                        07 a3 4a b3            |        ..J.    |      [43]: "1974-01-23T03:00:03Z" (128142003) transition_time 0xd8-0xdc (4)
0x0d0|                                    08 24 6f a3|            .$o.|      [44]: "1974-05-01T02:00:03Z" (136605603) transition_time 0xdc-0xe0 (4)
0x0e0|23 94 b5 be                                    |#...            |      [45]: "1988-12-01T03:00:14Z" (596948414) transition_time 0xe0-0xe4 (4)
0x0e0|            24 10 94 ae                        |    $...        |      [46]: "1989-03-05T02:00:14Z" (605066414) transition_time 0xe4-0xe8 (4)
0x0e0|                        25 37 f2 be            |        %7..    |      [47]: "1989-10-15T03:00:14Z" (624423614) transition_time 0xe8-0xec (4)
0x0e0|                                    25 fd a5 af|            %...|      [48]: "1990-03-14T02:00:15Z" (637380015) transition_time 0xec-0xf0 (4)
0x0f0|27 19 34 4f                                    |'.4O            |      [49]: "1990-10-15T04:00:15Z" (655963215) transition_time 0xf0-0xf4 (4)
0x0f0|            27 cd c3 c0                        |    '...        |      [50]: "1991-03-01T03:00:16Z" (667796416) transition_time 0xf4-0xf8 (4)
0x0f0|                        28 47 1b d0            |        (G..    |      [51]: "1991-06-01T04:00:16Z" (675748816) transition_time 0xf8-0xfc (4)
0x0f0|                                    37 f6 c6 c6|            7...|      [52]: "1999-10-03T03:00:22Z" (938919622) transition_time 0xfc-0x100 (4)
0x100|38 bf 2a c6                                    |8.*.            |      [53]: "2000-03-03T03:00:22Z" (952052422) transition_time 0x100-0x104 (4)
0x100|            40 ba 9f c6                        |    @...        |      [54]: "2004-05-31T03:00:22Z" (1085972422) transition_time 0x104-0x108 (4)
0x100|                        41 03 30 56            |        A.0V    |      [55]: "2004-07-25T04:00:22Z" (1090728022) transition_time 0x108-0x10c (4)
0x100|                                    47 77 09 c7|            Gw..|      [56]: "2007-12-30T03:00:23Z" (1198983623) transition_time 0x10c-0x110 (4)
0x110|47 93 fc b7                                    |G...            |      [57]: "2008-01-21T02:00:23Z" (1200880823) transition_time 0x110-0x114 (4)
0x110|            47 d3 52 c7                        |    G.R.        |      [58]: "2008-03-09T03:00:23Z" (1205031623) transition_time 0x114-0x118 (4)
0x110|                        48 f1 76 57            |        H.vW    |      [59]: "2008-10-12T04:00:23Z" (1223784023) transition_time 0x118-0x11c (4)
0x110|                                    49 b3 34 c8|            I.4.|      [60]: "2009-03-08T03:00:24Z" (1236481224) transition_time 0x11c-0x120 (4)
0x120|4a d1 58 58                                    |J.XX            |      [61]: "2009-10-11T04:00:24Z" (1255233624) transition_time 0x120-0x124 (4)
0x120|            64 9b 78 1b                        |    d.x.        |      [62]: "2023-06-28T00:00:27Z" (1687910427) transition_time 0x124-0x128 (4)
     |                                               |                |    transition_types[0:63]: 0x128-0x167 (63)
0x120|                        01                     |        .       |      [0]: 1 transition_type 0x128-0x129 (1)
0x120|                           02                  |         .      |      [1]: 2 transition_type 0x129-0x12a (1)
0x120|                              03               |          .     |      [2]: 3 transition_type 0x12a-0x12b (1)
0x120|                                 02            |           .    |      [3]: 2 transition_type 0x12b-0x12c (1)
0x120|                                    03         |            .   |      [4]: 3 transition_type 0x12c-0x12d (1)
0x120|                                       02      |             .  |      [5]: 2 transition_type 0x12d-0x12e (1)
0x120|                                          03   |              . |      [6]: 3 transition_type 0x12e-0x12f (1)
0x120|                                             02|               .|      [7]: 2 transition_type 0x12f-0x130 (1)
0x130|03                                             |.               |      [8]: 3 transition_type 0x130-0x131 (1)
0x130|   02                                          | .              |      [9]: 2 transition_type 0x131-0x132 (1)
0x130|      03                                       |  .             |      [10]: 3 transition_type 0x132-0x133 (1)
0x130|         02                                    |   .            |      [11]: 2 transition_type 0x133-0x134 (1)
0x130|            03                                 |    .           |      [12]: 3 transition_type 0x134-0x135 (1)
0x130|               02                              |     .          |      [13]: 2 transition_type 0x135-0x136 (1)
0x130|                  03                           |      .         |      [14]: 3 transition_type 0x136-0x137 (1)
0x130|                     02                        |       .        |      [15]: 2 transition_type 0x137-0x138 (1)
0x130|                        03                     |        .       |      [16]: 3 transition_type 0x138-0x139 (1)
0x130|                           02                  |         .      |      [17]: 2 transition_type 0x139-0x13a (1)
0x130|                              03               |          .     |      [18]: 3 transition_type 0x13a-0x13b (1)
0x130|                                 02            |           .    |      [19]: 2 transition_type 0x13b-0x13c (1)
0x130|                                    03         |            .   |      [20]: 3 transition_type 0x13c-0x13d (1)
0x130|                                       02      |             .  |      [21]: 2 transition_type 0x13d-0x13e (1)
0x130|                                          03   |              . |      [22]: 3 transition_type 0x13e-0x13f (1)
0x130|                                             02|               .|      [23]: 2 transition_type 0x13f-0x140 (1)
0x140|03                                             |.               |      [24]: 3 transition_type 0x140-0x141 (1)
0x140|   02                                          | .              |      [25]: 2 transition_type 0x141-0x142 (1)
0x140|      03                                       |  .             |      [26]: 3 transition_type 0x142-0x143 (1)
0x140|         02                                    |   .            |      [27]: 2 transition_type 0x143-0x144 (1)
0x140|            03                                 |    .           |      [28]: 3 transition_type 0x144-0x145 (1)
0x140|               02                              |     .          |      [29]: 2 transition_type 0x145-0x146 (1)
0x140|                  03                           |      .         |      [30]: 3 transition_type 0x146-0x147 (1)
0x140|                     02                        |       .        |      [31]: 2 transition_type 0x147-0x148 (1)
0x140|                        03                     |        .       |      [32]: 3 transition_type 0x148-0x149 (1)
0x140|                           02                  |         .      |      [33]: 2 transition_type 0x149-0x14a (1)
0x140|                              03               |          .     |      [34]: 3 transition_type 0x14a-0x14b (1)
0x140|                                 02            |           .    |      [35]: 2 transition_type 0x14b-0x14c (1)
0x140|                                    03         |            .   |      [36]: 3 transition_type 0x14c-0x14d (1)
0x140|                                       02      |             .  |      [37]: 2 transition_type 0x14d-0x14e (1)
0x140|                                          03   |              . |      [38]: 3 transition_type 0x14e-0x14f (1)
0x140|                                             02|               .|      [39]: 2 transition_type 0x14f-0x150 (1)
0x150|03                                             |.               |      [40]: 3 transition_type 0x150-0x151 (1)
0x150|   02                                          | .              |      [41]: 2 transition_type 0x151-0x152 (1)
0x150|      05                                       |  .             |      [42]: 5 transition_type 0x152-0x153 (1)
0x150|         04                                    |   .            |      [43]: 4 transition_type 0x153-0x154 (1)
0x150|            05                                 |    .           |      [44]: 5 transition_type 0x154-0x155 (1)
0x150|               04                              |     .          |      [45]: 4 transition_type 0x155-0x156 (1)
0x150|                  05                           |      .         |      [46]: 5 transition_type 0x156-0x157 (1)
0x150|                     04                        |       .        |      [47]: 4 transition_type 0x157-0x158 (1)
0x150|                        02                     |        .       |      [48]: 2 transition_type 0x158-0x159 (1)
0x150|                           03                  |         .      |      [49]: 3 transition_type 0x159-0x15a (1)
0x150|                              02               |          .     |      [50]: 2 transition_type 0x15a-0x15b (1)
0x150|                                 05            |           .    |      [51]: 5 transition_type 0x15b-0x15c (1)
0x150|                                    03         |            .   |      [52]: 3 transition_type 0x15c-0x15d (1)
0x150|                                       05      |             .  |      [53]: 5 transition_type 0x15d-0x15e (1)
0x150|                                          02   |              . |      [54]: 2 transition_type 0x15e-0x15f (1)
0x150|                                             05|               .|      [55]: 5 transition_type 0x15f-0x160 (1)
0x160|04                                             |.               |      [56]: 4 transition_type 0x160-0x161 (1)
0x160|   03                                          | .              |      [57]: 3 transition_type 0x161-0x162 (1)
0x160|      02                                       |  .             |      [58]: 2 transition_type 0x162-0x163 (1)
0x160|         03                                    |   .            |      [59]: 3 transition_type 0x163-0x164 (1)
0x160|            02                                 |    .           |      [60]: 2 transition_type 0x164-0x165 (1)
0x160|               05                              |     .          |      [61]: 5 transition_type 0x165-0x166 (1)
0x160|                  05                           |      .         |      [62]: 5 transition_type 0x166-0x167 (1)
     |                                               |                |    local_time_type_records[0:7]: 0x167-0x191 (42)
     |                                               |                |      [0]{}: local_time_type 0x167-0x16d (6)
0x160|                     ff ff c1 cc               |       ....     |        utoff: -15924 (valid) 0x167-0x16b (4)
0x160|                                 00            |           .    |        dst: 0 (valid) 0x16b-0x16c (1)
0x160|                                    00         |            .   |        idx: 0 (valid) 0x16c-0x16d (1)
     |                                               |                |      [1]{}: local_time_type 0x16d-0x173 (6)
0x160|                                       ff ff c3|             ...|        utoff: -15408 (valid) 0x16d-0x171 (4)
0x170|d0                                             |.               |
0x170|   00                                          | .              |        dst: 0 (valid) 0x171-0x172 (1)
0x170|      04                                       |  .             |        idx: 4 (valid) 0x172-0x173 (1)
     |                                               |                |      [2]{}: local_time_type 0x173-0x179 (6)
0x170|         ff ff c7 c0                           |   ....         |        utoff: -14400 (valid) 0x173-0x177 (4)
0x170|                     00                        |       .        |        dst: 0 (valid) 0x177-0x178 (1)
0x170|                        08                     |        .       |        idx: 8 (valid) 0x178-0x179 (1)
     |                                               |                |      [3]{}: local_time_type 0x179-0x17f (6)
0x170|                           ff ff d5 d0         |         ....   |        utoff: -10800 (valid) 0x179-0x17d (4)
0x170|                                       01      |             .  |        dst: 1 (valid) 0x17d-0x17e (1)
0x170|                                          0c   |              . |        idx: 12 (valid) 0x17e-0x17f (1)
     |                                               |                |      [4]{}: local_time_type 0x17f-0x185 (6)
0x170|                                             ff|               .|        utoff: -7200 (valid) 0x17f-0x183 (4)
0x180|ff e3 e0                                       |...             |
0x180|         01                                    |   .            |        dst: 1 (valid) 0x183-0x184 (1)
0x180|            10                                 |    .           |        idx: 16 (valid) 0x184-0x185 (1)
     |                                               |                |      [5]{}: local_time_type 0x185-0x18b (6)
0x180|               ff ff d5 d0                     |     ....       |        utoff: -10800 (valid) 0x185-0x189 (4)
0x180|                           00                  |         .      |        dst: 0 (valid) 0x189-0x18a (1)
0x180|                              0c               |          .     |        idx: 12 (valid) 0x18a-0x18b (1)
     |                                               |                |      [6]{}: local_time_type 0x18b-0x191 (6)
0x180|                                 ff ff d5 d0   |           .... |        utoff: -10800 (valid) 0x18b-0x18f (4)
0x180|                                             01|               .|        dst: 1 (valid) 0x18f-0x190 (1)
0x190|0c                                             |.               |        idx: 12 (valid) 0x190-0x191 (1)
     |                                               |                |    time_zone_designations[0:5]: 0x191-0x1a5 (20)
0x190|   4c 4d 54 00                                 | LMT.           |      [0]: "LMT" time_zone_designation 0x191-0x195 (4)
0x190|               43 4d 54 00                     |     CMT.       |      [1]: "CMT" time_zone_designation 0x195-0x199 (4)
0x190|                           2d 30 34 00         |         -04.   |      [2]: "-04" time_zone_designation 0x199-0x19d (4)
0x190|                                       2d 30 33|             -03|      [3]: "-03" time_zone_designation 0x19d-0x1a1 (4)
0x1a0|00                                             |.               |
0x1a0|   2d 30 32 00                                 | -02.           |      [4]: "-02" time_zone_designation 0x1a1-0x1a5 (4)
     |                                               |                |    leap_second_records[0:27]: 0x1a5-0x27d (216)
     |                                               |                |      [0]{}: leap_second_record 0x1a5-0x1ad (8)
0x1a0|               04 b2 58 00                     |     ..X.       |        occur: "1972-07-01T00:00:00Z" (78796800) 0x1a5-0x1a9 (4)
0x1a0|                           00 00 00 01         |         ....   |        corr: 1 0x1a9-0x1ad (4)
     |                                               |                |      [1]{}: leap_second_record 0x1ad-0x1b5 (8)
0x1a0|                                       05 a4 ec|             ...|        occur: "1973-01-01T00:00:01Z" (94694401) 0x1ad-0x1b1 (4)
0x1b0|01                                             |.               |
0x1b0|   00 00 00 02                                 | ....           |        corr: 2 0x1b1-0x1b5 (4)
     |                                               |                |      [2]{}: leap_second_record 0x1b5-0x1bd (8)
0x1b0|               07 86 1f 82                     |     ....       |        occur: "1974-01-01T00:00:02Z" (126230402) 0x1b5-0x1b9 (4)
0x1b0|                           00 00 00 03         |         ....   |        corr: 3 0x1b9-0x1bd (4)
     |                                               |                |      [3]{}: leap_second_record 0x1bd-0x1c5 (8)
0x1b0|                                       09 67 53|             .gS|        occur: "1975-01-01T00:00:03Z" (157766403) 0x1bd-0x1c1 (4)
0x1c0|03                                             |.               |
0x1c0|   00 00 00 04                                 | ....           |        corr: 4 0x1c1-0x1c5 (4)
     |                                               |                |      [4]{}: leap_second_record 0x1c5-0x1cd (8)
0x1c0|               0b 48 86 84                     |     .H..       |        occur: "1976-01-01T00:00:04Z" (189302404) 0x1c5-0x1c9 (4)
0x1c0|                           00 00 00 05         |         ....   |        corr: 5 0x1c9-0x1cd (4)
     |                                               |                |      [5]{}: leap_second_record 0x1cd-0x1d5 (8)
0x1c0|                                       0d 2b 0b|             .+.|        occur: "1977-01-01T00:00:05Z" (220924805) 0x1cd-0x1d1 (4)
0x1d0|85                                             |.               |
0x1d0|   00 00 00 06                                 | ....           |        corr: 6 0x1d1-0x1d5 (4)
     |                                               |                |      [6]{}: leap_second_record 0x1d5-0x1dd (8)
0x1d0|               0f 0c 3f 06                     |     ..?.       |        occur: "1978-01-01T00:00:06Z" (252460806) 0x1d5-0x1d9 (4)
0x1d0|                           00 00 00 07         |         ....   |        corr: 7 0x1d9-0x1dd (4)
     |                                               |                |      [7]{}: leap_second_record 0x1dd-0x1e5 (8)
0x1d0|                                       10 ed 72|             ..r|        occur: "1979-01-01T00:00:07Z" (283996807) 0x1dd-0x1e1 (4)
0x1e0|87                                             |.               |
0x1e0|   00 00 00 08                                 | ....           |        corr: 8 0x1e1-0x1e5 (4)
     |                                               |                |      [8]{}: leap_second_record 0x1e5-0x1ed (8)
0x1e0|               12 ce a6 08                     |     ....       |        occur: "1980-01-01T00:00:08Z" (315532808) 0x1e5-0x1e9 (4)
0x1e0|                           00 00 00 09         |         ....   |        corr: 9 0x1e9-0x1ed (4)
     |                                               |                |      [9]{}: leap_second_record 0x1ed-0x1f5 (8)
0x1e0|                                       15 9f ca|             ...|        occur: "1981-07-01T00:00:09Z" (362793609) 0x1ed-0x1f1 (4)
0x1f0|89                                             |.               |
0x1f0|   00 00 00 0a                                 | ....           |        corr: 10 0x1f1-0x1f5 (4)
     |                                               |                |      [10]{}: leap_second_record 0x1f5-0x1fd (8)
0x1f0|               17 80 fe 0a                     |     ....       |        occur: "1982-07-01T00:00:10Z" (394329610) 0x1f5-0x1f9 (4)
0x1f0|                           00 00 00 0b         |         ....   |        corr: 11 0x1f9-0x1fd (4)
     |                                               |                |      [11]{}: leap_second_record 0x1fd-0x205 (8)
0x1f0|                                       19 62 31|             .b1|        occur: "1983-07-01T00:00:11Z" (425865611) 0x1fd-0x201 (4)
0x200|8b                                             |.               |
0x200|   00 00 00 0c                                 | ....           |        corr: 12 0x201-0x205 (4)
     |                                               |                |      [12]{}: leap_second_record 0x205-0x20d (8)
0x200|               1d 25 ea 0c                     |     .%..       |        occur: "1985-07-01T00:00:12Z" (489024012) 0x205-0x209 (4)
0x200|                           00 00 00 0d         |         ....   |        corr: 13 0x209-0x20d (4)
     |                                               |                |      [13]{}: leap_second_record 0x20d-0x215 (8)
0x200|                                       21 da e5|             !..|        occur: "1988-01-01T00:00:13Z" (567993613) 0x20d-0x211 (4)
0x210|0d                                             |.               |
0x210|   00 00 00 0e                                 | ....           |        corr: 14 0x211-0x215 (4)
     |                                               |                |      [14]{}: leap_second_record 0x215-0x21d (8)
0x210|               25 9e 9d 8e                     |     %...       |        occur: "1990-01-01T00:00:14Z" (631152014) 0x215-0x219 (4)
0x210|                           00 00 00 0f         |         ....   |        corr: 15 0x219-0x21d (4)
     |                                               |                |      [15]{}: leap_second_record 0x21d-0x225 (8)
0x210|                                       27 7f d1|             '..|        occur: "1991-01-01T00:00:15Z" (662688015) 0x21d-0x221 (4)
0x220|0f                                             |.               |
0x220|   00 00 00 10                                 | ....           |        corr: 16 0x221-0x225 (4)
     |                                               |                |      [16]{}: leap_second_record 0x225-0x22d (8)
0x220|               2a 50 f5 90                     |     *P..       |        occur: "1992-07-01T00:00:16Z" (709948816) 0x225-0x229 (4)
0x220|                           00 00 00 11         |         ....   |        corr: 17 0x229-0x22d (4)
     |                                               |                |      [17]{}: leap_second_record 0x22d-0x235 (8)
0x220|                                       2c 32 29|             ,2)|        occur: "1993-07-01T00:00:17Z" (741484817) 0x22d-0x231 (4)
0x230|11                                             |.               |
0x230|   00 00 00 12                                 | ....           |        corr: 18 0x231-0x235 (4)
     |                                               |                |      [18]{}: leap_second_record 0x235-0x23d (8)
0x230|               2e 13 5c 92                     |     ..\.       |        occur: "1994-07-01T00:00:18Z" (773020818) 0x235-0x239 (4)
0x230|                           00 00 00 13         |         ....   |        corr: 19 0x239-0x23d (4)
     |                                               |                |      [19]{}: leap_second_record 0x23d-0x245 (8)
0x230|                                       30 e7 24|             0.$|        occur: "1996-01-01T00:00:19Z" (820454419) 0x23d-0x241 (4)
0x240|13                                             |.               |
0x240|   00 00 00 14                                 | ....           |        corr: 20 0x241-0x245 (4)
     |                                               |                |      [20]{}: leap_second_record 0x245-0x24d (8)
0x240|               33 b8 48 94                     |     3.H.       |        occur: "1997-07-01T00:00:20Z" (867715220) 0x245-0x249 (4)
0x240|                           00 00 00 15         |         ....   |        corr: 21 0x249-0x24d (4)
     |                                               |                |      [21]{}: leap_second_record 0x24d-0x255 (8)
0x240|                                       36 8c 10|             6..|        occur: "1999-01-01T00:00:21Z" (915148821) 0x24d-0x251 (4)
0x250|15                                             |.               |
0x250|   00 00 00 16                                 | ....           |        corr: 22 0x251-0x255 (4)
     |                                               |                |      [22]{}: leap_second_record 0x255-0x25d (8)
0x250|               43 b7 1b 96                     |     C...       |        occur: "2006-01-01T00:00:22Z" (1136073622) 0x255-0x259 (4)
0x250|                           00 00 00 17         |         ....   |        corr: 23 0x259-0x25d (4)
     |                                               |                |      [23]{}: leap_second_record 0x25d-0x265 (8)
0x250|                                       49 5c 07|             I\.|        occur: "2009-01-01T00:00:23Z" (1230768023) 0x25d-0x261 (4)
0x260|97                                             |.               |
0x260|   00 00 00 18                                 | ....           |        corr: 24 0x261-0x265 (4)
     |                                               |                |      [24]{}: leap_second_record 0x265-0x26d (8)
0x260|               4f ef 93 18                     |     O...       |        occur: "2012-07-01T00:00:24Z" (1341100824) 0x265-0x269 (4)
0x260|                           00 00 00 19         |         ....   |        corr: 25 0x269-0x26d (4)
     |                                               |                |      [25]{}: leap_second_record 0x26d-0x275 (8)
0x260|                                       55 93 2d|             U.-|        occur: "2015-07-01T00:00:25Z" (1435708825) 0x26d-0x271 (4)
0x270|99                                             |.               |
0x270|   00 00 00 1a                                 | ....           |        corr: 26 0x271-0x275 (4)
     |                                               |                |      [26]{}: leap_second_record 0x275-0x27d (8)
0x270|               58 68 46 9a                     |     XhF.       |        occur: "2017-01-01T00:00:26Z" (1483228826) 0x275-0x279 (4)
0x270|                           00 00 00 1b         |         ....   |        corr: 27 0x279-0x27d (4)
     |                                               |                |    standard_wall_indicators[0:0]: 0x27d-0x27d (0)
     |                                               |                |    ut_local_indicators[0:0]: 0x27d-0x27d (0)
     |                                               |                |  v2plusheader{}: 0x27d-0x2a9 (44)
0x270|                                       54 5a 69|             TZi|    magic: 0x545a6966 (valid) 0x27d-0x281 (4)
0x280|66                                             |f               |
0x280|   32                                          | 2              |    ver: "2" (0x32) (valid) 0x281-0x282 (1)
0x280|      00 00 00 00 00 00 00 00 00 00 00 00 00 00|  ..............|    reserved: raw bits 0x282-0x291 (15)
0x290|00                                             |.               |
0x290|   00 00 00 00                                 | ....           |    isutcnt: 0 0x291-0x295 (4)
0x290|               00 00 00 00                     |     ....       |    isstdcnt: 0 0x295-0x299 (4)
0x290|                           00 00 00 1b         |         ....   |    leapcnt: 27 0x299-0x29d (4)
0x290|                                       00 00 00|             ...|    timecnt: 63 0x29d-0x2a1 (4)
0x2a0|3f                                             |?               |
0x2a0|   00 00 00 07                                 | ....           |    typecnt: 7 0x2a1-0x2a5 (4)
0x2a0|               00 00 00 14                     |     ....       |    charcnt: 20 0x2a5-0x2a9 (4)
     |                                               |                |  v2plusdatablock{}: 0x2a9-0x662 (953)
     |                                               |                |    transition_times[0:63]: 0x2a9-0x4a1 (504)
0x2a0|                           ff ff ff ff 72 9c af|         ....r..|      [0]: "1894-10-31T04:25:24Z" (-2372096076) transition_time 0x2a9-0x2b1 (8)
0x2b0|b4                                             |.               |
0x2b0|   ff ff ff ff a2 92 8f 30                     | .......0       |      [1]: "1920-05-01T04:16:48Z" (-1567453392) transition_time 0x2b1-0x2b9 (8)
0x2b0|                           ff ff ff ff b6 7b 52|         .....{R|      [2]: "1930-12-01T04:00:00Z" (-1233432000) transition_time 0x2b9-0x2c1 (8)
0x2c0|40                                             |@               |
0x2c0|   ff ff ff ff b7 1a c9 b0                     | ........       |      [3]: "1931-04-01T03:00:00Z" (-1222981200) transition_time 0x2c1-0x2c9 (8)
0x2c0|                           ff ff ff ff b8 1e 8f|         .......|      [4]: "1931-10-15T04:00:00Z" (-1205956800) transition_time 0x2c9-0x2d1 (8)
0x2d0|40                                             |@               |
0x2d0|   ff ff ff ff b8 d4 70 30                     | ......p0       |      [5]: "1932-03-01T03:00:00Z" (-1194037200) transition_time 0x2d1-0x2d9 (8)
0x2d0|                           ff ff ff ff ba 17 7d|         ......}|      [6]: "1932-11-01T04:00:00Z" (-1172865600) transition_time 0x2d9-0x2e1 (8)
0x2e0|c0                                             |.               |
0x2e0|   ff ff ff ff ba b5 a3 b0                     | ........       |      [7]: "1933-03-01T03:00:00Z" (-1162501200) transition_time 0x2e1-0x2e9 (8)
0x2e0|                           ff ff ff ff bb f8 b1|         .......|      [8]: "1933-11-01T04:00:00Z" (-1141329600) transition_time 0x2e9-0x2f1 (8)
0x2f0|40                                             |@               |
0x2f0|   ff ff ff ff bc 96 d7 30                     | .......0       |      [9]: "1934-03-01T03:00:00Z" (-1130965200) transition_time 0x2f1-0x2f9 (8)
0x2f0|                           ff ff ff ff bd d9 e4|         .......|      [10]: "1934-11-01T04:00:00Z" (-1109793600) transition_time 0x2f9-0x301 (8)
0x300|c0                                             |.               |
0x300|   ff ff ff ff be 78 0a b0                     | .....x..       |      [11]: "1935-03-01T03:00:00Z" (-1099429200) transition_time 0x301-0x309 (8)
0x300|                           ff ff ff ff bf bb 18|         .......|      [12]: "1935-11-01T04:00:00Z" (-1078257600) transition_time 0x309-0x311 (8)
0x310|40                                             |@               |
0x310|   ff ff ff ff c0 5a 8f b0                     | .....Z..       |      [13]: "1936-03-01T03:00:00Z" (-1067806800) transition_time 0x311-0x319 (8)
0x310|                           ff ff ff ff c1 9d 9d|         .......|      [14]: "1936-11-01T04:00:00Z" (-1046635200) transition_time 0x319-0x321 (8)
0x320|40                                             |@               |
0x320|   ff ff ff ff c2 3b c3 30                     | .....;.0       |      [15]: "1937-03-01T03:00:00Z" (-1036270800) transition_time 0x321-0x329 (8)
0x320|                           ff ff ff ff c3 7e d0|         .....~.|      [16]: "1937-11-01T04:00:00Z" (-1015099200) transition_time 0x329-0x331 (8)
0x330|c0                                             |.               |
0x330|   ff ff ff ff c4 1c f6 b0                     | ........       |      [17]: "1938-03-01T03:00:00Z" (-1004734800) transition_time 0x331-0x339 (8)
0x330|                           ff ff ff ff c5 60 04|         .....`.|      [18]: "1938-11-01T04:00:00Z" (-983563200) transition_time 0x339-0x341 (8)
0x340|40                                             |@               |
0x340|   ff ff ff ff c5 fe 2a 30                     | ......*0       |      [19]: "1939-03-01T03:00:00Z" (-973198800) transition_time 0x341-0x349 (8)
0x340|                           ff ff ff ff c7 41 37|         .....A7|      [20]: "1939-11-01T04:00:00Z" (-952027200) transition_time 0x349-0x351 (8)
0x350|c0                                             |.               |
0x350|   ff ff ff ff c7 e0 af 30                     | .......0       |      [21]: "1940-03-01T03:00:00Z" (-941576400) transition_time 0x351-0x359 (8)
0x350|                           ff ff ff ff c8 81 94|         .......|      [22]: "1940-07-01T04:00:00Z" (-931032000) transition_time 0x359-0x361 (8)
0x360|40                                             |@               |
0x360|   ff ff ff ff ca 4d a1 b0                     | .....M..       |      [23]: "1941-06-15T03:00:00Z" (-900882000) transition_time 0x361-0x369 (8)
0x360|                           ff ff ff ff ca ee 86|         .......|      [24]: "1941-10-15T04:00:00Z" (-890337600) transition_time 0x369-0x371 (8)
0x370|c0                                             |.               |
0x370|   ff ff ff ff ce 4d ff 30                     | .....M.0       |      [25]: "1943-08-01T03:00:00Z" (-833749200) transition_time 0x371-0x379 (8)
0x370|                           ff ff ff ff ce b0 ed|         .......|      [26]: "1943-10-15T04:00:00Z" (-827265600) transition_time 0x379-0x381 (8)
0x380|c0                                             |.               |
0x380|   ff ff ff ff d3 29 35 b0                     | .....)5.       |      [27]: "1946-03-01T03:00:00Z" (-752274000) transition_time 0x381-0x389 (8)
0x380|                           ff ff ff ff d4 43 64|         .....Cd|      [28]: "1946-10-01T04:00:00Z" (-733780800) transition_time 0x389-0x391 (8)
0x390|c0                                             |.               |
0x390|   ff ff ff ff f4 3d 08 30                     | .....=.0       |      [29]: "1963-10-01T03:00:00Z" (-197326800) transition_time 0x391-0x399 (8)
0x390|                           ff ff ff ff f4 9f f6|         .......|      [30]: "1963-12-15T04:00:00Z" (-190843200) transition_time 0x399-0x3a1 (8)
0x3a0|c0                                             |.               |
0x3a0|   ff ff ff ff f5 05 6c 30                     | ......l0       |      [31]: "1964-03-01T03:00:00Z" (-184194000) transition_time 0x3a1-0x3a9 (8)
0x3a0|                           ff ff ff ff f6 32 10|         .....2.|      [32]: "1964-10-15T04:00:00Z" (-164491200) transition_time 0x3a9-0x3b1 (8)
0x3b0|40                                             |@               |
0x3b0|   ff ff ff ff f6 e6 9f b0                     | ........       |      [33]: "1965-03-01T03:00:00Z" (-152658000) transition_time 0x3b1-0x3b9 (8)
0x3b0|                           ff ff ff ff f8 13 43|         ......C|      [34]: "1965-10-15T04:00:00Z" (-132955200) transition_time 0x3b9-0x3c1 (8)
0x3c0|c0                                             |.               |
0x3c0|   ff ff ff ff f8 c7 d3 30                     | .......0       |      [35]: "1966-03-01T03:00:00Z" (-121122000) transition_time 0x3c1-0x3c9 (8)
0x3c0|                           ff ff ff ff f9 f4 77|         ......w|      [36]: "1966-10-15T04:00:00Z" (-101419200) transition_time 0x3c9-0x3d1 (8)
0x3d0|40                                             |@               |
0x3d0|   ff ff ff ff fa d3 36 b0                     | ......6.       |      [37]: "1967-04-02T03:00:00Z" (-86821200) transition_time 0x3d1-0x3d9 (8)
0x3d0|                           ff ff ff ff fb c3 35|         ......5|      [38]: "1967-10-01T04:00:00Z" (-71092800) transition_time 0x3d9-0x3e1 (8)
0x3e0|c0                                             |.               |
0x3e0|   ff ff ff ff fc bc 53 30                     | ......S0       |      [39]: "1968-04-07T03:00:00Z" (-54766800) transition_time 0x3e1-0x3e9 (8)
0x3e0|                           ff ff ff ff fd ac 52|         ......R|      [40]: "1968-10-06T04:00:00Z" (-39038400) transition_time 0x3e9-0x3f1 (8)
0x3f0|40                                             |@               |
0x3f0|   ff ff ff ff fe 9c 35 30                     | ......50       |      [41]: "1969-04-06T03:00:00Z" (-23317200) transition_time 0x3f1-0x3f9 (8)
0x3f0|                           ff ff ff ff ff 8c 34|         ......4|      [42]: "1969-10-05T04:00:00Z" (-7588800) transition_time 0x3f9-0x401 (8)
0x400|40                                             |@               |
0x400|   00 00 00 00 07 a3 4a b3                     | ......J.       |      [43]: "1974-01-23T03:00:03Z" (128142003) transition_time 0x401-0x409 (8)
0x400|                           00 00 00 00 08 24 6f|         .....$o|      [44]: "1974-05-01T02:00:03Z" (136605603) transition_time 0x409-0x411 (8)
0x410|a3                                             |.               |
0x410|   00 00 00 00 23 94 b5 be                     | ....#...       |      [45]: "1988-12-01T03:00:14Z" (596948414) transition_time 0x411-0x419 (8)
0x410|                           00 00 00 00 24 10 94|         ....$..|      [46]: "1989-03-05T02:00:14Z" (605066414) transition_time 0x419-0x421 (8)
0x420|ae                                             |.               |
0x420|   00 00 00 00 25 37 f2 be                     | ....%7..       |      [47]: "1989-10-15T03:00:14Z" (624423614) transition_time 0x421-0x429 (8)
0x420|                           00 00 00 00 25 fd a5|         ....%..|      [48]: "1990-03-14T02:00:15Z" (637380015) transition_time 0x429-0x431 (8)
0x430|af                                             |.               |
0x430|   00 00 00 00 27 19 34 4f                     | ....'.4O       |      [49]: "1990-10-15T04:00:15Z" (655963215) transition_time 0x431-0x439 (8)
0x430|                           00 00 00 00 27 cd c3|         ....'..|      [50]: "1991-03-01T03:00:16Z" (667796416) transition_time 0x439-0x441 (8)
0x440|c0                                             |.               |
0x440|   00 00 00 00 28 47 1b d0                     | ....(G..       |      [51]: "1991-06-01T04:00:16Z" (675748816) transition_time 0x441-0x449 (8)
0x440|                           00 00 00 00 37 f6 c6|         ....7..|      [52]: "1999-10-03T03:00:22Z" (938919622) transition_time 0x449-0x451 (8)
0x450|c6                                             |.               |
0x450|   00 00 00 00 38 bf 2a c6                     | ....8.*.       |      [53]: "2000-03-03T03:00:22Z" (952052422) transition_time 0x451-0x459 (8)
0x450|                           00 00 00 00 40 ba 9f|         ....@..|      [54]: "2004-05-31T03:00:22Z" (1085972422) transition_time 0x459-0x461 (8)
0x460|c6                                             |.               |
0x460|   00 00 00 00 41 03 30 56                     | ....A.0V       |      [55]: "2004-07-25T04:00:22Z" (1090728022) transition_time 0x461-0x469 (8)
0x460|                           00 00 00 00 47 77 09|         ....Gw.|      [56]: "2007-12-30T03:00:23Z" (1198983623) transition_time 0x469-0x471 (8)
0x470|c7                                             |.               |
0x470|   00 00 00 00 47 93 fc b7                     | ....G...       |      [57]: "2008-01-21T02:00:23Z" (1200880823) transition_time 0x471-0x479 (8)
0x470|                           00 00 00 00 47 d3 52|         ....G.R|      [58]: "2008-03-09T03:00:23Z" (1205031623) transition_time 0x479-0x481 (8)
0x480|c7                                             |.               |
0x480|   00 00 00 00 48 f1 76 57                     | ....H.vW       |      [59]: "2008-10-12T04:00:23Z" (1223784023) transition_time 0x481-0x489 (8)
0x480|                           00 00 00 00 49 b3 34|         ....I.4|      [60]: "2009-03-08T03:00:24Z" (1236481224) transition_time 0x489-0x491 (8)
0x490|c8                                             |.               |
0x490|   00 00 00 00 4a d1 58 58                     | ....J.XX       |      [61]: "2009-10-11T04:00:24Z" (1255233624) transition_time 0x491-0x499 (8)
0x490|                           00 00 00 00 64 9b 78|         ....d.x|      [62]: "2023-06-28T00:00:27Z" (1687910427) transition_time 0x499-0x4a1 (8)
0x4a0|1b                                             |.               |
     |                                               |                |    transition_types[0:63]: 0x4a1-0x4e0 (63)
0x4a0|   01                                          | .              |      [0]: 1 transition_type 0x4a1-0x4a2 (1)
0x4a0|      02                                       |  .             |      [1]: 2 transition_type 0x4a2-0x4a3 (1)
0x4a0|         03                                    |   .            |      [2]: 3 transition_type 0x4a3-0x4a4 (1)
0x4a0|            02                                 |    .           |      [3]: 2 transition_type 0x4a4-0x4a5 (1)
0x4a0|               03                              |     .          |      [4]: 3 transition_type 0x4a5-0x4a6 (1)
0x4a0|                  02                           |      .         |      [5]: 2 transition_type 0x4a6-0x4a7 (1)
0x4a0|                     03                        |       .        |      [6]: 3 transition_type 0x4a7-0x4a8 (1)
0x4a0|                        02                     |        .       |      [7]: 2 transition_type 0x4a8-0x4a9 (1)
0x4a0|                           03                  |         .      |      [8]: 3 transition_type 0x4a9-0x4aa (1)
0x4a0|                              02               |          .     |      [9]: 2 transition_type 0x4aa-0x4ab (1)
0x4a0|                                 03            |           .    |      [10]: 3 transition_type 0x4ab-0x4ac (1)
0x4a0|                                    02         |            .   |      [11]: 2 transition_type 0x4ac-0x4ad (1)
0x4a0|                                       03      |             .  |      [12]: 3 transition_type 0x4ad-0x4ae (1)
0x4a0|                                          02   |              . |      [13]: 2 transition_type 0x4ae-0x4af (1)
0x4a0|                                             03|               .|      [14]: 3 transition_type 0x4af-0x4b0 (1)
0x4b0|02                                             |.               |      [15]: 2 transition_type 0x4b0-0x4b1 (1)
0x4b0|   03                                          | .              |      [16]: 3 transition_type 0x4b1-0x4b2 (1)
0x4b0|      02                                       |  .             |      [17]: 2 transition_type 0x4b2-0x4b3 (1)
0x4b0|         03                                    |   .            |      [18]: 3 transition_type 0x4b3-0x4b4 (1)
0x4b0|            02                                 |    .           |      [19]: 2 transition_type 0x4b4-0x4b5 (1)
0x4b0|               03                              |     .          |      [20]: 3 transition_type 0x4b5-0x4b6 (1)
0x4b0|                  02                           |      .         |      [21]: 2 transition_type 0x4b6-0x4b7 (1)
0x4b0|                     03                        |       .        |      [22]: 3 transition_type 0x4b7-0x4b8 (1)
0x4b0|                        02                     |        .       |      [23]: 2 transition_type 0x4b8-0x4b9 (1)
0x4b0|                           03                  |         .      |      [24]: 3 transition_type 0x4b9-0x4ba (1)
0x4b0|                              02               |          .     |      [25]: 2 transition_type 0x4ba-0x4bb (1)
0x4b0|                                 03            |           .    |      [26]: 3 transition_type 0x4bb-0x4bc (1)
0x4b0|                                    02         |            .   |      [27]: 2 transition_type 0x4bc-0x4bd (1)
0x4b0|                                       03      |             .  |      [28]: 3 transition_type 0x4bd-0x4be (1)
0x4b0|                                          02   |              . |      [29]: 2 transition_type 0x4be-0x4bf (1)
0x4b0|                                             03|               .|      [30]: 3 transition_type 0x4bf-0x4c0 (1)
0x4c0|02                                             |.               |      [31]: 2 transition_type 0x4c0-0x4c1 (1)
0x4c0|   03                                          | .              |      [32]: 3 transition_type 0x4c1-0x4c2 (1)
0x4c0|      02                                       |  .             |      [33]: 2 transition_type 0x4c2-0x4c3 (1)
0x4c0|         03                                    |   .            |      [34]: 3 transition_type 0x4c3-0x4c4 (1)
0x4c0|            02                                 |    .           |      [35]: 2 transition_type 0x4c4-0x4c5 (1)
0x4c0|               03                              |     .          |      [36]: 3 transition_type 0x4c5-0x4c6 (1)
0x4c0|                  02                           |      .         |      [37]: 2 transition_type 0x4c6-0x4c7 (1)
0x4c0|                     03                        |       .        |      [38]: 3 transition_type 0x4c7-0x4c8 (1)
0x4c0|                        02                     |        .       |      [39]: 2 transition_type 0x4c8-0x4c9 (1)
0x4c0|                           03                  |         .      |      [40]: 3 transition_type 0x4c9-0x4ca (1)
0x4c0|                              02               |          .     |      [41]: 2 transition_type 0x4ca-0x4cb (1)
0x4c0|                                 05            |           .    |      [42]: 5 transition_type 0x4cb-0x4cc (1)
0x4c0|                                    04         |            .   |      [43]: 4 transition_type 0x4cc-0x4cd (1)
0x4c0|                                       05      |             .  |      [44]: 5 transition_type 0x4cd-0x4ce (1)
0x4c0|                                          04   |              . |      [45]: 4 transition_type 0x4ce-0x4cf (1)
0x4c0|                                             05|               .|      [46]: 5 transition_type 0x4cf-0x4d0 (1)
0x4d0|04                                             |.               |      [47]: 4 transition_type 0x4d0-0x4d1 (1)
0x4d0|   02                                          | .              |      [48]: 2 transition_type 0x4d1-0x4d2 (1)
0x4d0|      03                                       |  .             |      [49]: 3 transition_type 0x4d2-0x4d3 (1)
0x4d0|         02                                    |   .            |      [50]: 2 transition_type 0x4d3-0x4d4 (1)
0x4d0|            05                                 |    .           |      [51]: 5 transition_type 0x4d4-0x4d5 (1)
0x4d0|               03                              |     .          |      [52]: 3 transition_type 0x4d5-0x4d6 (1)
0x4d0|                  05                           |      .         |      [53]: 5 transition_type 0x4d6-0x4d7 (1)
0x4d0|                     02                        |       .        |      [54]: 2 transition_type 0x4d7-0x4d8 (1)
0x4d0|                        05                     |        .       |      [55]: 5 transition_type 0x4d8-0x4d9 (1)
0x4d0|                           04                  |         .      |      [56]: 4 transition_type 0x4d9-0x4da (1)
0x4d0|                              03               |          .     |      [57]: 3 transition_type 0x4da-0x4db (1)
0x4d0|                                 02            |           .    |      [58]: 2 transition_type 0x4db-0x4dc (1)
0x4d0|                                    03         |            .   |      [59]: 3 transition_type 0x4dc-0x4dd (1)
0x4d0|                                       02      |             .  |      [60]: 2 transition_type 0x4dd-0x4de (1)
0x4d0|                                          05   |              . |      [61]: 5 transition_type 0x4de-0x4df (1)
0x4d0|                                             05|               .|      [62]: 5 transition_type 0x4df-0x4e0 (1)
     |                                               |                |    local_time_type_records[0:7]: 0x4e0-0x50a (42)
     |                                               |                |      [0]{}: local_time_type 0x4e0-0x4e6 (6)
0x4e0|ff ff c1 cc                                    |....            |        utoff: -15924 (valid) 0x4e0-0x4e4 (4)
0x4e0|            00                                 |    .           |        dst: 0 (valid) 0x4e4-0x4e5 (1)
0x4e0|               00                              |     .          |        idx: 0 (valid) 0x4e5-0x4e6 (1)
     |                                               |                |      [1]{}: local_time_type 0x4e6-0x4ec (6)
0x4e0|                  ff ff c3 d0                  |      ....      |        utoff: -15408 (valid) 0x4e6-0x4ea (4)
0x4e0|                              00               |          .     |        dst: 0 (valid) 0x4ea-0x4eb (1)
0x4e0|                                 04            |           .    |        idx: 4 (valid) 0x4eb-0x4ec (1)
     |                                               |                |      [2]{}: local_time_type 0x4ec-0x4f2 (6)
0x4e0|                                    ff ff c7 c0|            ....|        utoff: -14400 (valid) 0x4ec-0x4f0 (4)
0x4f0|00                                             |.               |        dst: 0 (valid) 0x4f0-0x4f1 (1)
0x4f0|   08                                          | .              |        idx: 8 (valid) 0x4f1-0x4f2 (1)
     |                                               |                |      [3]{}: local_time_type 0x4f2-0x4f8 (6)
0x4f0|      ff ff d5 d0                              |  ....          |        utoff: -10800 (valid) 0x4f2-0x4f6 (4)
0x4f0|                  01                           |      .         |        dst: 1 (valid) 0x4f6-0x4f7 (1)
0x4f0|                     0c                        |       .        |        idx: 12 (valid) 0x4f7-0x4f8 (1)
     |                                               |                |      [4]{}: local_time_type 0x4f8-0x4fe (6)
0x4f0|                        ff ff e3 e0            |        ....    |        utoff: -7200 (valid) 0x4f8-0x4fc (4)
0x4f0|                                    01         |            .   |        dst: 1 (valid) 0x4fc-0x4fd (1)
0x4f0|                                       10      |             .  |        idx: 16 (valid) 0x4fd-0x4fe (1)
     |                                               |                |      [5]{}: local_time_type 0x4fe-0x504 (6)
0x4f0|                                          ff ff|              ..|        utoff: -10800 (valid) 0x4fe-0x502 (4)
0x500|d5 d0                                          |..              |
0x500|      00                                       |  .             |        dst: 0 (valid) 0x502-0x503 (1)
0x500|         0c                                    |   .            |        idx: 12 (valid) 0x503-0x504 (1)
     |                                               |                |      [6]{}: local_time_type 0x504-0x50a (6)
0x500|            ff ff d5 d0                        |    ....        |        utoff: -10800 (valid) 0x504-0x508 (4)
0x500|                        01                     |        .       |        dst: 1 (valid) 0x508-0x509 (1)
0x500|                           0c                  |         .      |        idx: 12 (valid) 0x509-0x50a (1)
     |                                               |                |    time_zone_designations[0:5]: 0x50a-0x51e (20)
0x500|                              4c 4d 54 00      |          LMT.  |      [0]: "LMT" time_zone_designation 0x50a-0x50e (4)
0x500|                                          43 4d|              CM|      [1]: "CMT" time_zone_designation 0x50e-0x512 (4)
0x510|54 00                                          |T.              |
0x510|      2d 30 34 00                              |  -04.          |      [2]: "-04" time_zone_designation 0x512-0x516 (4)
0x510|                  2d 30 33 00                  |      -03.      |      [3]: "-03" time_zone_designation 0x516-0x51a (4)
0x510|                              2d 30 32 00      |          -02.  |      [4]: "-02" time_zone_designation 0x51a-0x51e (4)
     |                                               |                |    leap_second_records[0:27]: 0x51e-0x662 (324)
     |                                               |                |      [0]{}: leap_second_record 0x51e-0x52a (12)
0x510|                                          00 00|              ..|        occur: "1972-07-01T00:00:00Z" (78796800) 0x51e-0x526 (8)
0x520|00 00 04 b2 58 00                              |....X.          |
0x520|                  00 00 00 01                  |      ....      |        corr: 1 0x526-0x52a (4)
     |                                               |                |      [1]{}: leap_second_record 0x52a-0x536 (12)
0x520|                              00 00 00 00 05 a4|          ......|        occur: "1973-01-01T00:00:01Z" (94694401) 0x52a-0x532 (8)
0x530|ec 01                                          |..              |
0x530|      00 00 00 02                              |  ....          |        corr: 2 0x532-0x536 (4)
     |                                               |                |      [2]{}: leap_second_record 0x536-0x542 (12)
0x530|                  00 00 00 00 07 86 1f 82      |      ........  |        occur: "1974-01-01T00:00:02Z" (126230402) 0x536-0x53e (8)
0x530|                                          00 00|              ..|        corr: 3 0x53e-0x542 (4)
0x540|00 03                                          |..              |
     |                                               |                |      [3]{}: leap_second_record 0x542-0x54e (12)
0x540|      00 00 00 00 09 67 53 03                  |  .....gS.      |        occur: "1975-01-01T00:00:03Z" (157766403) 0x542-0x54a (8)
0x540|                              00 00 00 04      |          ....  |        corr: 4 0x54a-0x54e (4)
     |                                               |                |      [4]{}: leap_second_record 0x54e-0x55a (12)
0x540|                                          00 00|              ..|        occur: "1976-01-01T00:00:04Z" (189302404) 0x54e-0x556 (8)
0x550|00 00 0b 48 86 84                              |...H..          |
0x550|                  00 00 00 05                  |      ....      |        corr: 5 0x556-0x55a (4)
     |                                               |                |      [5]{}: leap_second_record 0x55a-0x566 (12)
0x550|                              00 00 00 00 0d 2b|          .....+|        occur: "1977-01-01T00:00:05Z" (220924805) 0x55a-0x562 (8)
0x560|0b 85                                          |..              |
0x560|      00 00 00 06                              |  ....          |        corr: 6 0x562-0x566 (4)
     |                                               |                |      [6]{}: leap_second_record 0x566-0x572 (12)
0x560|                  00 00 00 00 0f 0c 3f 06      |      ......?.  |        occur: "1978-01-01T00:00:06Z" (252460806) 0x566-0x56e (8)
0x560|                                          00 00|              ..|        corr: 7 0x56e-0x572 (4)
0x570|00 07                                          |..              |
     |                                               |                |      [7]{}: leap_second_record 0x572-0x57e (12)
0x570|      00 00 00 00 10 ed 72 87                  |  ......r.      |        occur: "1979-01-01T00:00:07Z" (283996807) 0x572-0x57a (8)
0x570|                              00 00 00 08      |          ....  |        corr: 8 0x57a-0x57e (4)
     |                                               |                |      [8]{}: leap_second_record 0x57e-0x58a (12)
0x570|                                          00 00|              ..|        occur: "1980-01-01T00:00:08Z" (315532808) 0x57e-0x586 (8)
0x580|00 00 12 ce a6 08                              |......          |
0x580|                  00 00 00 09                  |      ....      |        corr: 9 0x586-0x58a (4)
     |                                               |                |      [9]{}: leap_second_record 0x58a-0x596 (12)
0x580|                              00 00 00 00 15 9f|          ......|        occur: "1981-07-01T00:00:09Z" (362793609) 0x58a-0x592 (8)
0x590|ca 89                                          |..              |
0x590|      00 00 00 0a                              |  ....          |        corr: 10 0x592-0x596 (4)
     |                                               |                |      [10]{}: leap_second_record 0x596-0x5a2 (12)
0x590|                  00 00 00 00 17 80 fe 0a      |      ........  |        occur: "1982-07-01T00:00:10Z" (394329610) 0x596-0x59e (8)
0x590|                                          00 00|              ..|        corr: 11 0x59e-0x5a2 (4)
0x5a0|00 0b                                          |..              |
     |                                               |                |      [11]{}: leap_second_record 0x5a2-0x5ae (12)
0x5a0|      00 00 00 00 19 62 31 8b                  |  .....b1.      |        occur: "1983-07-01T00:00:11Z" (425865611) 0x5a2-0x5aa (8)
0x5a0|                              00 00 00 0c      |          ....  |        corr: 12 0x5aa-0x5ae (4)
     |                                               |                |      [12]{}: leap_second_record 0x5ae-0x5ba (12)
0x5a0|                                          00 00|              ..|        occur: "1985-07-01T00:00:12Z" (489024012) 0x5ae-0x5b6 (8)
0x5b0|00 00 1d 25 ea 0c                              |...%..          |
0x5b0|                  00 00 00 0d                  |      ....      |        corr: 13 0x5b6-0x5ba (4)
     |                                               |                |      [13]{}: leap_second_record 0x5ba-0x5c6 (12)
0x5b0|                              00 00 00 00 21 da|          ....!.|        occur: "1988-01-01T00:00:13Z" (567993613) 0x5ba-0x5c2 (8)
0x5c0|e5 0d                                          |..              |
0x5c0|      00 00 00 0e                              |  ....          |        corr: 14 0x5c2-0x5c6 (4)
     |                                               |                |      [14]{}: leap_second_record 0x5c6-0x5d2 (12)
0x5c0|                  00 00 00 00 25 9e 9d 8e      |      ....%...  |        occur: "1990-01-01T00:00:14Z" (631152014) 0x5c6-0x5ce (8)
0x5c0|                                          00 00|              ..|        corr: 15 0x5ce-0x5d2 (4)
0x5d0|00 0f                                          |..              |
     |                                               |                |      [15]{}: leap_second_record 0x5d2-0x5de (12)
0x5d0|      00 00 00 00 27 7f d1 0f                  |  ....'...      |        occur: "1991-01-01T00:00:15Z" (662688015) 0x5d2-0x5da (8)
0x5d0|                              00 00 00 10      |          ....  |        corr: 16 0x5da-0x5de (4)
     |                                               |                |      [16]{}: leap_second_record 0x5de-0x5ea (12)
0x5d0|                                          00 00|              ..|        occur: "1992-07-01T00:00:16Z" (709948816) 0x5de-0x5e6 (8)
0x5e0|00 00 2a 50 f5 90                              |..*P..          |
0x5e0|                  00 00 00 11                  |      ....      |        corr: 17 0x5e6-0x5ea (4)
     |                                               |                |      [17]{}: leap_second_record 0x5ea-0x5f6 (12)
0x5e0|                              00 00 00 00 2c 32|          ....,2|        occur: "1993-07-01T00:00:17Z" (741484817) 0x5ea-0x5f2 (8)
0x5f0|29 11                                          |).              |
0x5f0|      00 00 00 12                              |  ....          |        corr: 18 0x5f2-0x5f6 (4)
     |                                               |                |      [18]{}: leap_second_record 0x5f6-0x602 (12)
0x5f0|                  00 00 00 00 2e 13 5c 92      |      ......\.  |        occur: "1994-07-01T00:00:18Z" (773020818) 0x5f6-0x5fe (8)
0x5f0|                                          00 00|              ..|        corr: 19 0x5fe-0x602 (4)
0x600|00 13                                          |..              |
     |                                               |                |      [19]{}: leap_second_record 0x602-0x60e (12)
0x600|      00 00 00 00 30 e7 24 13                  |  ....0.$.      |        occur: "1996-01-01T00:00:19Z" (820454419) 0x602-0x60a (8)
0x600|                              00 00 00 14      |          ....  |        corr: 20 0x60a-0x60e (4)
     |                                               |                |      [20]{}: leap_second_record 0x60e-0x61a (12)
0x600|                                          00 00|              ..|        occur: "1997-07-01T00:00:20Z" (867715220) 0x60e-0x616 (8)
0x610|00 00 33 b8 48 94                              |..3.H.          |
0x610|                  00 00 00 15                  |      ....      |        corr: 21 0x616-0x61a (4)
     |                                               |                |      [21]{}: leap_second_record 0x61a-0x626 (12)
0x610|                              00 00 00 00 36 8c|          ....6.|        occur: "1999-01-01T00:00:21Z" (915148821) 0x61a-0x622 (8)
0x620|10 15                                          |..              |
0x620|      00 00 00 16                              |  ....          |        corr: 22 0x622-0x626 (4)
     |                                               |                |      [22]{}: leap_second_record 0x626-0x632 (12)
0x620|                  00 00 00 00 43 b7 1b 96      |      ....C...  |        occur: "2006-01-01T00:00:22Z" (1136073622) 0x626-0x62e (8)
0x620|                                          00 00|              ..|        corr: 23 0x62e-0x632 (4)
0x630|00 17                                          |..              |
     |                                               |                |      [23]{}: leap_second_record 0x632-0x63e (12)
0x630|      00 00 00 00 49 5c 07 97                  |  ....I\..      |        occur: "2009-01-01T00:00:23Z" (1230768023) 0x632-0x63a (8)
0x630|                              00 00 00 18      |          ....  |        corr: 24 0x63a-0x63e (4)
     |                                               |                |      [24]{}: leap_second_record 0x63e-0x64a (12)
0x630|                                          00 00|              ..|        occur: "2012-07-01T00:00:24Z" (1341100824) 0x63e-0x646 (8)
0x640|00 00 4f ef 93 18                              |..O...          |
0x640|                  00 00 00 19                  |      ....      |        corr: 25 0x646-0x64a (4)
     |                                               |                |      [25]{}: leap_second_record 0x64a-0x656 (12)
0x640|                              00 00 00 00 55 93|          ....U.|        occur: "2015-07-01T00:00:25Z" (1435708825) 0x64a-0x652 (8)
0x650|2d 99                                          |-.              |
0x650|      00 00 00 1a                              |  ....          |        corr: 26 0x652-0x656 (4)
     |                                               |                |      [26]{}: leap_second_record 0x656-0x662 (12)
0x650|                  00 00 00 00 58 68 46 9a      |      ....XhF.  |        occur: "2017-01-01T00:00:26Z" (1483228826) 0x656-0x65e (8)
0x650|                                          00 00|              ..|        corr: 27 0x65e-0x662 (4)
0x660|00 1b                                          |..              |
     |                                               |                |    standard_wall_indicators[0:0]: 0x662-0x662 (0)
     |                                               |                |    ut_local_indicators[0:0]: 0x662-0x662 (0)
     |                                               |                |  footer{}: 0x662-0x664 (2)
0x660|      0a                                       |  .             |    nl1: 10 (valid) 0x662-0x663 (1)
     |                                               |                |    tz_string: "" 0x663-0x663 (0)
0x660|         0a|                                   |   .|           |    nl2: 10 (valid) 0x663-0x664 (1)
