$ fq -d tzif dv San_Juan
     |00 01 02 03 04 05 06 07 08 09 0a 0b 0c 0d 0e 0f|0123456789abcdef|.{}: San_Juan (tzif) 0x0-0x657.7 (1624)
     |                                               |                |  v1header{}: 0x0-0x2b.7 (44)
0x000|54 5a 69 66                                    |TZif            |    magic: 0x545a6966 (valid) 0x0-0x3.7 (4)
0x000|            32                                 |    2           |    ver: "2" (0x32) (valid) 0x4-0x4.7 (1)
0x000|               00 00 00 00 00 00 00 00 00 00 00|     ...........|    reserved: raw bits 0x5-0x13.7 (15)
0x010|00 00 00 00                                    |....            |
0x010|            00 00 00 00                        |    ....        |    isutcnt: 0 0x14-0x17.7 (4)
0x010|                        00 00 00 00            |        ....    |    isstdcnt: 0 0x18-0x1b.7 (4)
0x010|                                    00 00 00 1b|            ....|    leapcnt: 27 0x1c-0x1f.7 (4)
0x020|00 00 00 3f                                    |...?            |    timecnt: 63 0x20-0x23.7 (4)
0x020|            00 00 00 06                        |    ....        |    typecnt: 6 0x24-0x27.7 (4)
0x020|                        00 00 00 14            |        ....    |    charcnt: 20 0x28-0x2b.7 (4)
     |                                               |                |  v1datablock{}: 0x2c-0x276.7 (587)
     |                                               |                |    transition_times[0:63]: 0x2c-0x127.7 (252)
0x020|                                    80 00 00 00|            ....|      [0]: "1901-12-13T20:45:52Z" (-2147483648) transition_time 0x2c-0x2f.7 (4)
0x030|a2 92 8f 30                                    |...0            |      [1]: "1920-05-01T04:16:48Z" (-1567453392) transition_time 0x30-0x33.7 (4)
0x030|            b6 7b 52 40                        |    .{R@        |      [2]: "1930-12-01T04:00:00Z" (-1233432000) transition_time 0x34-0x37.7 (4)
0x030|                        b7 1a c9 b0            |        ....    |      [3]: "1931-04-01T03:00:00Z" (-1222981200) transition_time 0x38-0x3b.7 (4)
0x030|                                    b8 1e 8f 40|            ...@|      [4]: "1931-10-15T04:00:00Z" (-1205956800) transition_time 0x3c-0x3f.7 (4)
0x040|b8 d4 70 30                                    |..p0            |      [5]: "1932-03-01T03:00:00Z" (-1194037200) transition_time 0x40-0x43.7 (4)
0x040|            ba 17 7d c0                        |    ..}.        |      [6]: "1932-11-01T04:00:00Z" (-1172865600) transition_time 0x44-0x47.7 (4)
0x040|                        ba b5 a3 b0            |        ....    |      [7]: "1933-03-01T03:00:00Z" (-1162501200) transition_time 0x48-0x4b.7 (4)
0x040|                                    bb f8 b1 40|            ...@|      [8]: "1933-11-01T04:00:00Z" (-1141329600) transition_time 0x4c-0x4f.7 (4)
0x050|bc 96 d7 30                                    |...0            |      [9]: "1934-03-01T03:00:00Z" (-1130965200) transition_time 0x50-0x53.7 (4)
0x050|            bd d9 e4 c0                        |    ....        |      [10]: "1934-11-01T04:00:00Z" (-1109793600) transition_time 0x54-0x57.7 (4)
0x050|                        be 78 0a b0            |        .x..    |      [11]: "1935-03-01T03:00:00Z" (-1099429200) transition_time 0x58-0x5b.7 (4)
0x050|                                    bf bb 18 40|            ...@|      [12]: "1935-11-01T04:00:00Z" (-1078257600) transition_time 0x5c-0x5f.7 (4)
0x060|c0 5a 8f b0                                    |.Z..            |      [13]: "1936-03-01T03:00:00Z" (-1067806800) transition_time 0x60-0x63.7 (4)
0x060|            c1 9d 9d 40                        |    ...@        |      [14]: "1936-11-01T04:00:00Z" (-1046635200) transition_time 0x64-0x67.7 (4)
0x060|                        c2 3b c3 30            |        .;.0    |      [15]: "1937-03-01T03:00:00Z" (-1036270800) transition_time 0x68-0x6b.7 (4)
0x060|                                    c3 7e d0 c0|            .~..|      [16]: "1937-11-01T04:00:00Z" (-1015099200) transition_time 0x6c-0x6f.7 (4)
0x070|c4 1c f6 b0                                    |....            |      [17]: "1938-03-01T03:00:00Z" (-1004734800) transition_time 0x70-0x73.7 (4)
0x070|            c5 60 04 40                        |    .`.@        |      [18]: "1938-11-01T04:00:00Z" (-983563200) transition_time 0x74-0x77.7 (4)
0x070|                        c5 fe 2a 30            |        ..*0    |      [19]: "1939-03-01T03:00:00Z" (-973198800) transition_time 0x78-0x7b.7 (4)
0x070|                                    c7 41 37 c0|            .A7.|      [20]: "1939-11-01T04:00:00Z" (-952027200) transition_time 0x7c-0x7f.7 (4)
0x080|c7 e0 af 30                                    |...0            |      [21]: "1940-03-01T03:00:00Z" (-941576400) transition_time 0x80-0x83.7 (4)
0x080|            c8 81 94 40                        |    ...@        |      [22]: "1940-07-01T04:00:00Z" (-931032000) transition_time 0x84-0x87.7 (4)
0x080|                        ca 4d a1 b0            |        .M..    |      [23]: "1941-06-15T03:00:00Z" (-900882000) transition_time 0x88-0x8b.7 (4)
0x080|                                    ca ee 86 c0|            ....|      [24]: "1941-10-15T04:00:00Z" (-890337600) transition_time 0x8c-0x8f.7 (4)
0x090|ce 4d ff 30                                    |.M.0            |      [25]: "1943-08-01T03:00:00Z" (-833749200) transition_time 0x90-0x93.7 (4)
0x090|            ce b0 ed c0                        |    ....        |      [26]: "1943-10-15T04:00:00Z" (-827265600) transition_time 0x94-0x97.7 (4)
0x090|                        d3 29 35 b0            |        .)5.    |      [27]: "1946-03-01T03:00:00Z" (-752274000) transition_time 0x98-0x9b.7 (4)
0x090|                                    d4 43 64 c0|            .Cd.|      [28]: "1946-10-01T04:00:00Z" (-733780800) transition_time 0x9c-0x9f.7 (4)
0x0a0|f4 3d 08 30                                    |.=.0            |      [29]: "1963-10-01T03:00:00Z" (-197326800) transition_time 0xa0-0xa3.7 (4)
0x0a0|            f4 9f f6 c0                        |    ....        |      [30]: "1963-12-15T04:00:00Z" (-190843200) transition_time 0xa4-0xa7.7 (4)
0x0a0|                        f5 05 6c 30            |        ..l0    |      [31]: "1964-03-01T03:00:00Z" (-184194000) transition_time 0xa8-0xab.7 (4)
0x0a0|                                    f6 32 10 40|            .2.@|      [32]: "1964-10-15T04:00:00Z" (-164491200) transition_time 0xac-0xaf.7 (4)
0x0b0|f6 e6 9f b0                                    |....            |      [33]: "1965-03-01T03:00:00Z" (-152658000) transition_time 0xb0-0xb3.7 (4)
0x0b0|            f8 13 43 c0                        |    ..C.        |      [34]: "1965-10-15T04:00:00Z" (-132955200) transition_time 0xb4-0xb7.7 (4)
0x0b0|                        f8 c7 d3 30            |        ...0    |      [35]: "1966-03-01T03:00:00Z" (-121122000) transition_time 0xb8-0xbb.7 (4)
0x0b0|                                    f9 f4 77 40|            ..w@|      [36]: "1966-10-15T04:00:00Z" (-101419200) transition_time 0xbc-0xbf.7 (4)
0x0c0|fa d3 36 b0                                    |..6.            |      [37]: "1967-04-02T03:00:00Z" (-86821200) transition_time 0xc0-0xc3.7 (4)
0x0c0|            fb c3 35 c0                        |    ..5.        |      [38]: "1967-10-01T04:00:00Z" (-71092800) transition_time 0xc4-0xc7.7 (4)
0x0c0|                        fc bc 53 30            |        ..S0    |      [39]: "1968-04-07T03:00:00Z" (-54766800) transition_time 0xc8-0xcb.7 (4)
0x0c0|                                    fd ac 52 40|            ..R@|      [40]: "1968-10-06T04:00:00Z" (-39038400) transition_time 0xcc-0xcf.7 (4)
0x0d0|fe 9c 35 30                                    |..50            |      [41]: "1969-04-06T03:00:00Z" (-23317200) transition_time 0xd0-0xd3.7 (4)
0x0d0|            ff 8c 34 40                        |    ..4@        |      [42]: "1969-10-05T04:00:00Z" (-7588800) transition_time 0xd4-0xd7.7 (4)
0x0d0|                        07 a3 4a b3            |        ..J.    |      [43]: "1974-01-23T03:00:03Z" (128142003) transition_time 0xd8-0xdb.7 (4)
0x0d0|                                    08 24 6f a3|            .$o.|      [44]: "1974-05-01T02:00:03Z" (136605603) transition_time 0xdc-0xdf.7 (4)
0x0e0|23 94 b5 be                                    |#...            |      [45]: "1988-12-01T03:00:14Z" (596948414) transition_time 0xe0-0xe3.7 (4)
0x0e0|            24 10 94 ae                        |    $...        |      [46]: "1989-03-05T02:00:14Z" (605066414) transition_time 0xe4-0xe7.7 (4)
0x0e0|                        25 37 f2 be            |        %7..    |      [47]: "1989-10-15T03:00:14Z" (624423614) transition_time 0xe8-0xeb.7 (4)
0x0e0|                                    25 f0 76 af|            %.v.|      [48]: "1990-03-04T02:00:15Z" (636516015) transition_time 0xec-0xef.7 (4)
0x0f0|27 21 0f 3f                                    |'!.?            |      [49]: "1990-10-21T03:00:15Z" (656478015) transition_time 0xf0-0xf3.7 (4)
0x0f0|            27 cd b5 b0                        |    '...        |      [50]: "1991-03-01T02:00:16Z" (667792816) transition_time 0xf4-0xf7.7 (4)
0x0f0|                        28 26 26 50            |        (&&P    |      [51]: "1991-05-07T04:00:16Z" (673588816) transition_time 0xf8-0xfb.7 (4)
0x0f0|                                    29 00 f1 40|            )..@|      [52]: "1991-10-20T03:00:16Z" (687927616) transition_time 0xfc-0xff.7 (4)
0x100|29 b0 3a b0                                    |).:.            |      [53]: "1992-03-01T02:00:16Z" (699415216) transition_time 0x100-0x103.7 (4)
0x100|            2a e0 d3 41                        |    *..A        |      [54]: "1992-10-18T03:00:17Z" (719377217) transition_time 0x104-0x107.7 (4)
0x100|                        2b 99 57 31            |        +.W1    |      [55]: "1993-03-07T02:00:17Z" (731469617) transition_time 0x108-0x10b.7 (4)
0x100|                                    37 f6 c6 c6|            7...|      [56]: "1999-10-03T03:00:22Z" (938919622) transition_time 0x10c-0x10f.7 (4)
0x110|38 bf 2a c6                                    |8.*.            |      [57]: "2000-03-03T03:00:22Z" (952052422) transition_time 0x110-0x113.7 (4)
0x110|            40 ba 9f c6                        |    @...        |      [58]: "2004-05-31T03:00:22Z" (1085972422) transition_time 0x114-0x117.7 (4)
0x110|                        41 03 30 56            |        A.0V    |      [59]: "2004-07-25T04:00:22Z" (1090728022) transition_time 0x118-0x11b.7 (4)
0x110|                                    47 77 09 c7|            Gw..|      [60]: "2007-12-30T03:00:23Z" (1198983623) transition_time 0x11c-0x11f.7 (4)
0x120|47 dc 7f 37                                    |G..7            |      [61]: "2008-03-16T02:00:23Z" (1205632823) transition_time 0x120-0x123.7 (4)
0x120|            64 9b 78 1b                        |    d.x.        |      [62]: "2023-06-28T00:00:27Z" (1687910427) transition_time 0x124-0x127.7 (4)
     |                                               |                |    transition_types[0:63]: 0x128-0x166.7 (63)
0x120|                        01                     |        .       |      [0]: 1 transition_type 0x128-0x128.7 (1)
0x120|                           02                  |         .      |      [1]: 2 transition_type 0x129-0x129.7 (1)
0x120|                              03               |          .     |      [2]: 3 transition_type 0x12a-0x12a.7 (1)
0x120|                                 02            |           .    |      [3]: 2 transition_type 0x12b-0x12b.7 (1)
0x120|                                    03         |            .   |      [4]: 3 transition_type 0x12c-0x12c.7 (1)
0x120|                                       02      |             .  |      [5]: 2 transition_type 0x12d-0x12d.7 (1)
0x120|                                          03   |              . |      [6]: 3 transition_type 0x12e-0x12e.7 (1)
0x120|                                             02|               .|      [7]: 2 transition_type 0x12f-0x12f.7 (1)
0x130|03                                             |.               |      [8]: 3 transition_type 0x130-0x130.7 (1)
0x130|   02                                          | .              |      [9]: 2 transition_type 0x131-0x131.7 (1)
0x130|      03                                       |  .             |      [10]: 3 transition_type 0x132-0x132.7 (1)
0x130|         02                                    |   .            |      [11]: 2 transition_type 0x133-0x133.7 (1)
0x130|            03                                 |    .           |      [12]: 3 transition_type 0x134-0x134.7 (1)
0x130|               02                              |     .          |      [13]: 2 transition_type 0x135-0x135.7 (1)
0x130|                  03                           |      .         |      [14]: 3 transition_type 0x136-0x136.7 (1)
0x130|                     02                        |       .        |      [15]: 2 transition_type 0x137-0x137.7 (1)
0x130|                        03                     |        .       |      [16]: 3 transition_type 0x138-0x138.7 (1)
0x130|                           02                  |         .      |      [17]: 2 transition_type 0x139-0x139.7 (1)
0x130|                              03               |          .     |      [18]: 3 transition_type 0x13a-0x13a.7 (1)
0x130|                                 02            |           .    |      [19]: 2 transition_type 0x13b-0x13b.7 (1)
0x130|                                    03         |            .   |      [20]: 3 transition_type 0x13c-0x13c.7 (1)
0x130|                                       02      |             .  |      [21]: 2 transition_type 0x13d-0x13d.7 (1)
0x130|                                          03   |              . |      [22]: 3 transition_type 0x13e-0x13e.7 (1)
0x130|                                             02|               .|      [23]: 2 transition_type 0x13f-0x13f.7 (1)
0x140|03                                             |.               |      [24]: 3 transition_type 0x140-0x140.7 (1)
0x140|   02                                          | .              |      [25]: 2 transition_type 0x141-0x141.7 (1)
0x140|      03                                       |  .             |      [26]: 3 transition_type 0x142-0x142.7 (1)
0x140|         02                                    |   .            |      [27]: 2 transition_type 0x143-0x143.7 (1)
0x140|            03                                 |    .           |      [28]: 3 transition_type 0x144-0x144.7 (1)
0x140|               02                              |     .          |      [29]: 2 transition_type 0x145-0x145.7 (1)
0x140|                  03                           |      .         |      [30]: 3 transition_type 0x146-0x146.7 (1)
0x140|                     02                        |       .        |      [31]: 2 transition_type 0x147-0x147.7 (1)
0x140|                        03                     |        .       |      [32]: 3 transition_type 0x148-0x148.7 (1)
0x140|                           02                  |         .      |      [33]: 2 transition_type 0x149-0x149.7 (1)
0x140|                              03               |          .     |      [34]: 3 transition_type 0x14a-0x14a.7 (1)
0x140|                                 02            |           .    |      [35]: 2 transition_type 0x14b-0x14b.7 (1)
0x140|                                    03         |            .   |      [36]: 3 transition_type 0x14c-0x14c.7 (1)
0x140|                                       02      |             .  |      [37]: 2 transition_type 0x14d-0x14d.7 (1)
0x140|                                          03   |              . |      [38]: 3 transition_type 0x14e-0x14e.7 (1)
0x140|                                             02|               .|      [39]: 2 transition_type 0x14f-0x14f.7 (1)
0x150|03                                             |.               |      [40]: 3 transition_type 0x150-0x150.7 (1)
0x150|   02                                          | .              |      [41]: 2 transition_type 0x151-0x151.7 (1)
0x150|      05                                       |  .             |      [42]: 5 transition_type 0x152-0x152.7 (1)
0x150|         04                                    |   .            |      [43]: 4 transition_type 0x153-0x153.7 (1)
0x150|            05                                 |    .           |      [44]: 5 transition_type 0x154-0x154.7 (1)
0x150|               04                              |     .          |      [45]: 4 transition_type 0x155-0x155.7 (1)
0x150|                  05                           |      .         |      [46]: 5 transition_type 0x156-0x156.7 (1)
0x150|                     04                        |       .        |      [47]: 4 transition_type 0x157-0x157.7 (1)
0x150|                        05                     |        .       |      [48]: 5 transition_type 0x158-0x158.7 (1)
0x150|                           04                  |         .      |      [49]: 4 transition_type 0x159-0x159.7 (1)
0x150|                              02               |          .     |      [50]: 2 transition_type 0x15a-0x15a.7 (1)
0x150|                                 05            |           .    |      [51]: 5 transition_type 0x15b-0x15b.7 (1)
0x150|                                    04         |            .   |      [52]: 4 transition_type 0x15c-0x15c.7 (1)
0x150|                                       05      |             .  |      [53]: 5 transition_type 0x15d-0x15d.7 (1)
0x150|                                          04   |              . |      [54]: 4 transition_type 0x15e-0x15e.7 (1)
0x150|                                             05|               .|      [55]: 5 transition_type 0x15f-0x15f.7 (1)
0x160|03                                             |.               |      [56]: 3 transition_type 0x160-0x160.7 (1)
0x160|   05                                          | .              |      [57]: 5 transition_type 0x161-0x161.7 (1)
0x160|      02                                       |  .             |      [58]: 2 transition_type 0x162-0x162.7 (1)
0x160|         05                                    |   .            |      [59]: 5 transition_type 0x163-0x163.7 (1)
0x160|            04                                 |    .           |      [60]: 4 transition_type 0x164-0x164.7 (1)
0x160|               05                              |     .          |      [61]: 5 transition_type 0x165-0x165.7 (1)
0x160|                  05                           |      .         |      [62]: 5 transition_type 0x166-0x166.7 (1)
     |                                               |                |    local_time_type_records[0:6]: 0x167-0x18a.7 (36)
     |                                               |                |      [0]{}: local_time_type 0x167-0x16c.7 (6)
0x160|                     ff ff bf c4               |       ....     |        utoff: -16444 (valid) 0x167-0x16a.7 (4)
0x160|                                 00            |           .    |        dst: 0 (valid) 0x16b-0x16b.7 (1)
0x160|                                    00         |            .   |        idx: 0 (valid) 0x16c-0x16c.7 (1)
     |                                               |                |      [1]{}: local_time_type 0x16d-0x172.7 (6)
0x160|                                       ff ff c3|             ...|        utoff: -15408 (valid) 0x16d-0x170.7 (4)
0x170|d0                                             |.               |
0x170|   00                                          | .              |        dst: 0 (valid) 0x171-0x171.7 (1)
0x170|      04                                       |  .             |        idx: 4 (valid) 0x172-0x172.7 (1)
     |                                               |                |      [2]{}: local_time_type 0x173-0x178.7 (6)
0x170|         ff ff c7 c0                           |   ....         |        utoff: -14400 (valid) 0x173-0x176.7 (4)
0x170|                     00                        |       .        |        dst: 0 (valid) 0x177-0x177.7 (1)
0x170|                        08                     |        .       |        idx: 8 (valid) 0x178-0x178.7 (1)
     |                                               |                |      [3]{}: local_time_type 0x179-0x17e.7 (6)
0x170|                           ff ff d5 d0         |         ....   |        utoff: -10800 (valid) 0x179-0x17c.7 (4)
0x170|                                       01      |             .  |        dst: 1 (valid) 0x17d-0x17d.7 (1)
0x170|                                          0c   |              . |        idx: 12 (valid) 0x17e-0x17e.7 (1)
     |                                               |                |      [4]{}: local_time_type 0x17f-0x184.7 (6)
0x170|                                             ff|               .|        utoff: -7200 (valid) 0x17f-0x182.7 (4)
0x180|ff e3 e0                                       |...             |
0x180|         01                                    |   .            |        dst: 1 (valid) 0x183-0x183.7 (1)
0x180|            10                                 |    .           |        idx: 16 (valid) 0x184-0x184.7 (1)
     |                                               |                |      [5]{}: local_time_type 0x185-0x18a.7 (6)
0x180|               ff ff d5 d0                     |     ....       |        utoff: -10800 (valid) 0x185-0x188.7 (4)
0x180|                           00                  |         .      |        dst: 0 (valid) 0x189-0x189.7 (1)
0x180|                              0c               |          .     |        idx: 12 (valid) 0x18a-0x18a.7 (1)
     |                                               |                |    time_zone_designations[0:5]: 0x18b-0x19e.7 (20)
0x180|                                 4c 4d 54 00   |           LMT. |      [0]: "LMT" time_zone_designation 0x18b-0x18e.7 (4)
0x180|                                             43|               C|      [1]: "CMT" time_zone_designation 0x18f-0x192.7 (4)
0x190|4d 54 00                                       |MT.             |
0x190|         2d 30 34 00                           |   -04.         |      [2]: "-04" time_zone_designation 0x193-0x196.7 (4)
0x190|                     2d 30 33 00               |       -03.     |      [3]: "-03" time_zone_designation 0x197-0x19a.7 (4)
0x190|                                 2d 30 32 00   |           -02. |      [4]: "-02" time_zone_designation 0x19b-0x19e.7 (4)
     |                                               |                |    leap_second_records[0:27]: 0x19f-0x276.7 (216)
     |                                               |                |      [0]{}: leap_second_record 0x19f-0x1a6.7 (8)
0x190|                                             04|               .|        occur: "1972-07-01T00:00:00Z" (78796800) 0x19f-0x1a2.7 (4)
0x1a0|b2 58 00                                       |.X.             |
0x1a0|         00 00 00 01                           |   ....         |        corr: 1 0x1a3-0x1a6.7 (4)
     |                                               |                |      [1]{}: leap_second_record 0x1a7-0x1ae.7 (8)
0x1a0|                     05 a4 ec 01               |       ....     |        occur: "1973-01-01T00:00:01Z" (94694401) 0x1a7-0x1aa.7 (4)
0x1a0|                                 00 00 00 02   |           .... |        corr: 2 0x1ab-0x1ae.7 (4)
     |                                               |                |      [2]{}: leap_second_record 0x1af-0x1b6.7 (8)
0x1a0|                                             07|               .|        occur: "1974-01-01T00:00:02Z" (126230402) 0x1af-0x1b2.7 (4)
0x1b0|86 1f 82                                       |...             |
0x1b0|         00 00 00 03                           |   ....         |        corr: 3 0x1b3-0x1b6.7 (4)
     |                                               |                |      [3]{}: leap_second_record 0x1b7-0x1be.7 (8)
0x1b0|                     09 67 53 03               |       .gS.     |        occur: "1975-01-01T00:00:03Z" (157766403) 0x1b7-0x1ba.7 (4)
0x1b0|                                 00 00 00 04   |           .... |        corr: 4 0x1bb-0x1be.7 (4)
     |                                               |                |      [4]{}: leap_second_record 0x1bf-0x1c6.7 (8)
0x1b0|                                             0b|               .|        occur: "1976-01-01T00:00:04Z" (189302404) 0x1bf-0x1c2.7 (4)
0x1c0|48 86 84                                       |H..             |
0x1c0|         00 00 00 05                           |   ....         |        corr: 5 0x1c3-0x1c6.7 (4)
     |                                               |                |      [5]{}: leap_second_record 0x1c7-0x1ce.7 (8)
0x1c0|                     0d 2b 0b 85               |       .+..     |        occur: "1977-01-01T00:00:05Z" (220924805) 0x1c7-0x1ca.7 (4)
0x1c0|                                 00 00 00 06   |           .... |        corr: 6 0x1cb-0x1ce.7 (4)
     |                                               |                |      [6]{}: leap_second_record 0x1cf-0x1d6.7 (8)
0x1c0|                                             0f|               .|        occur: "1978-01-01T00:00:06Z" (252460806) 0x1cf-0x1d2.7 (4)
0x1d0|0c 3f 06                                       |.?.             |
0x1d0|         00 00 00 07                           |   ....         |        corr: 7 0x1d3-0x1d6.7 (4)
     |                                               |                |      [7]{}: leap_second_record 0x1d7-0x1de.7 (8)
0x1d0|                     10 ed 72 87               |       ..r.     |        occur: "1979-01-01T00:00:07Z" (283996807) 0x1d7-0x1da.7 (4)
0x1d0|                                 00 00 00 08   |           .... |        corr: 8 0x1db-0x1de.7 (4)
     |                                               |                |      [8]{}: leap_second_record 0x1df-0x1e6.7 (8)
0x1d0|                                             12|               .|        occur: "1980-01-01T00:00:08Z" (315532808) 0x1df-0x1e2.7 (4)
0x1e0|ce a6 08                                       |...             |
0x1e0|         00 00 00 09                           |   ....         |        corr: 9 0x1e3-0x1e6.7 (4)
     |                                               |                |      [9]{}: leap_second_record 0x1e7-0x1ee.7 (8)
0x1e0|                     15 9f ca 89               |       ....     |        occur: "1981-07-01T00:00:09Z" (362793609) 0x1e7-0x1ea.7 (4)
0x1e0|                                 00 00 00 0a   |           .... |        corr: 10 0x1eb-0x1ee.7 (4)
     |                                               |                |      [10]{}: leap_second_record 0x1ef-0x1f6.7 (8)
0x1e0|                                             17|               .|        occur: "1982-07-01T00:00:10Z" (394329610) 0x1ef-0x1f2.7 (4)
0x1f0|80 fe 0a                                       |...             |
0x1f0|         00 00 00 0b                           |   ....         |        corr: 11 0x1f3-0x1f6.7 (4)
     |                                               |                |      [11]{}: leap_second_record 0x1f7-0x1fe.7 (8)
0x1f0|                     19 62 31 8b               |       .b1.     |        occur: "1983-07-01T00:00:11Z" (425865611) 0x1f7-0x1fa.7 (4)
0x1f0|                                 00 00 00 0c   |           .... |        corr: 12 0x1fb-0x1fe.7 (4)
     |                                               |                |      [12]{}: leap_second_record 0x1ff-0x206.7 (8)
0x1f0|                                             1d|               .|        occur: "1985-07-01T00:00:12Z" (489024012) 0x1ff-0x202.7 (4)
0x200|25 ea 0c                                       |%..             |
0x200|         00 00 00 0d                           |   ....         |        corr: 13 0x203-0x206.7 (4)
     |                                               |                |      [13]{}: leap_second_record 0x207-0x20e.7 (8)
0x200|                     21 da e5 0d               |       !...     |        occur: "1988-01-01T00:00:13Z" (567993613) 0x207-0x20a.7 (4)
0x200|                                 00 00 00 0e   |           .... |        corr: 14 0x20b-0x20e.7 (4)
     |                                               |                |      [14]{}: leap_second_record 0x20f-0x216.7 (8)
0x200|                                             25|               %|        occur: "1990-01-01T00:00:14Z" (631152014) 0x20f-0x212.7 (4)
0x210|9e 9d 8e                                       |...             |
0x210|         00 00 00 0f                           |   ....         |        corr: 15 0x213-0x216.7 (4)
     |                                               |                |      [15]{}: leap_second_record 0x217-0x21e.7 (8)
0x210|                     27 7f d1 0f               |       '...     |        occur: "1991-01-01T00:00:15Z" (662688015) 0x217-0x21a.7 (4)
0x210|                                 00 00 00 10   |           .... |        corr: 16 0x21b-0x21e.7 (4)
     |                                               |                |      [16]{}: leap_second_record 0x21f-0x226.7 (8)
0x210|                                             2a|               *|        occur: "1992-07-01T00:00:16Z" (709948816) 0x21f-0x222.7 (4)
0x220|50 f5 90                                       |P..             |
0x220|         00 00 00 11                           |   ....         |        corr: 17 0x223-0x226.7 (4)
     |                                               |                |      [17]{}: leap_second_record 0x227-0x22e.7 (8)
0x220|                     2c 32 29 11               |       ,2).     |        occur: "1993-07-01T00:00:17Z" (741484817) 0x227-0x22a.7 (4)
0x220|                                 00 00 00 12   |           .... |        corr: 18 0x22b-0x22e.7 (4)
     |                                               |                |      [18]{}: leap_second_record 0x22f-0x236.7 (8)
0x220|                                             2e|               .|        occur: "1994-07-01T00:00:18Z" (773020818) 0x22f-0x232.7 (4)
0x230|13 5c 92                                       |.\.             |
0x230|         00 00 00 13                           |   ....         |        corr: 19 0x233-0x236.7 (4)
     |                                               |                |      [19]{}: leap_second_record 0x237-0x23e.7 (8)
0x230|                     30 e7 24 13               |       0.$.     |        occur: "1996-01-01T00:00:19Z" (820454419) 0x237-0x23a.7 (4)
0x230|                                 00 00 00 14   |           .... |        corr: 20 0x23b-0x23e.7 (4)
     |                                               |                |      [20]{}: leap_second_record 0x23f-0x246.7 (8)
0x230|                                             33|               3|        occur: "1997-07-01T00:00:20Z" (867715220) 0x23f-0x242.7 (4)
0x240|b8 48 94                                       |.H.             |
0x240|         00 00 00 15                           |   ....         |        corr: 21 0x243-0x246.7 (4)
     |                                               |                |      [21]{}: leap_second_record 0x247-0x24e.7 (8)
0x240|                     36 8c 10 15               |       6...     |        occur: "1999-01-01T00:00:21Z" (915148821) 0x247-0x24a.7 (4)
0x240|                                 00 00 00 16   |           .... |        corr: 22 0x24b-0x24e.7 (4)
     |                                               |                |      [22]{}: leap_second_record 0x24f-0x256.7 (8)
0x240|                                             43|               C|        occur: "2006-01-01T00:00:22Z" (1136073622) 0x24f-0x252.7 (4)
0x250|b7 1b 96                                       |...             |
0x250|         00 00 00 17                           |   ....         |        corr: 23 0x253-0x256.7 (4)
     |                                               |                |      [23]{}: leap_second_record 0x257-0x25e.7 (8)
0x250|                     49 5c 07 97               |       I\..     |        occur: "2009-01-01T00:00:23Z" (1230768023) 0x257-0x25a.7 (4)
0x250|                                 00 00 00 18   |           .... |        corr: 24 0x25b-0x25e.7 (4)
     |                                               |                |      [24]{}: leap_second_record 0x25f-0x266.7 (8)
0x250|                                             4f|               O|        occur: "2012-07-01T00:00:24Z" (1341100824) 0x25f-0x262.7 (4)
0x260|ef 93 18                                       |...             |
0x260|         00 00 00 19                           |   ....         |        corr: 25 0x263-0x266.7 (4)
     |                                               |                |      [25]{}: leap_second_record 0x267-0x26e.7 (8)
0x260|                     55 93 2d 99               |       U.-.     |        occur: "2015-07-01T00:00:25Z" (1435708825) 0x267-0x26a.7 (4)
0x260|                                 00 00 00 1a   |           .... |        corr: 26 0x26b-0x26e.7 (4)
     |                                               |                |      [26]{}: leap_second_record 0x26f-0x276.7 (8)
0x260|                                             58|               X|        occur: "2017-01-01T00:00:26Z" (1483228826) 0x26f-0x272.7 (4)
0x270|68 46 9a                                       |hF.             |
0x270|         00 00 00 1b                           |   ....         |        corr: 27 0x273-0x276.7 (4)
     |                                               |                |    standard_wall_indicators[0:0]: 0x277-NA (0)
     |                                               |                |    ut_local_indicators[0:0]: 0x277-NA (0)
     |                                               |                |  v2plusheader{}: 0x277-0x2a2.7 (44)
0x270|                     54 5a 69 66               |       TZif     |    magic: 0x545a6966 (valid) 0x277-0x27a.7 (4)
0x270|                                 32            |           2    |    ver: "2" (0x32) (valid) 0x27b-0x27b.7 (1)
0x270|                                    00 00 00 00|            ....|    reserved: raw bits 0x27c-0x28a.7 (15)
0x280|00 00 00 00 00 00 00 00 00 00 00               |...........     |
0x280|                                 00 00 00 00   |           .... |    isutcnt: 0 0x28b-0x28e.7 (4)
0x280|                                             00|               .|    isstdcnt: 0 0x28f-0x292.7 (4)
0x290|00 00 00                                       |...             |
0x290|         00 00 00 1b                           |   ....         |    leapcnt: 27 0x293-0x296.7 (4)
0x290|                     00 00 00 3f               |       ...?     |    timecnt: 63 0x297-0x29a.7 (4)
0x290|                                 00 00 00 06   |           .... |    typecnt: 6 0x29b-0x29e.7 (4)
0x290|                                             00|               .|    charcnt: 20 0x29f-0x2a2.7 (4)
0x2a0|00 00 14                                       |...             |
     |                                               |                |  v2plusdatablock{}: 0x2a3-0x655.7 (947)
     |                                               |                |    transition_times[0:63]: 0x2a3-0x49a.7 (504)
0x2a0|         ff ff ff ff 72 9c b1 bc               |   ....r...     |      [0]: "1894-10-31T04:34:04Z" (-2372095556) transition_time 0x2a3-0x2aa.7 (8)
0x2a0|                                 ff ff ff ff a2|           .....|      [1]: "1920-05-01T04:16:48Z" (-1567453392) transition_time 0x2ab-0x2b2.7 (8)
0x2b0|92 8f 30                                       |..0             |
0x2b0|         ff ff ff ff b6 7b 52 40               |   .....{R@     |      [2]: "1930-12-01T04:00:00Z" (-1233432000) transition_time 0x2b3-0x2ba.7 (8)
0x2b0|                                 ff ff ff ff b7|           .....|      [3]: "1931-04-01T03:00:00Z" (-1222981200) transition_time 0x2bb-0x2c2.7 (8)
0x2c0|1a c9 b0                                       |...             |
0x2c0|         ff ff ff ff b8 1e 8f 40               |   .......@     |      [4]: "1931-10-15T04:00:00Z" (-1205956800) transition_time 0x2c3-0x2ca.7 (8)
0x2c0|                                 ff ff ff ff b8|           .....|      [5]: "1932-03-01T03:00:00Z" (-1194037200) transition_time 0x2cb-0x2d2.7 (8)
0x2d0|d4 70 30                                       |.p0             |
0x2d0|         ff ff ff ff ba 17 7d c0               |   ......}.     |      [6]: "1932-11-01T04:00:00Z" (-1172865600) transition_time 0x2d3-0x2da.7 (8)
0x2d0|                                 ff ff ff ff ba|           .....|      [7]: "1933-03-01T03:00:00Z" (-1162501200) transition_time 0x2db-0x2e2.7 (8)
0x2e0|b5 a3 b0                                       |...             |
0x2e0|         ff ff ff ff bb f8 b1 40               |   .......@     |      [8]: "1933-11-01T04:00:00Z" (-1141329600) transition_time 0x2e3-0x2ea.7 (8)
0x2e0|                                 ff ff ff ff bc|           .....|      [9]: "1934-03-01T03:00:00Z" (-1130965200) transition_time 0x2eb-0x2f2.7 (8)
0x2f0|96 d7 30                                       |..0             |
0x2f0|         ff ff ff ff bd d9 e4 c0               |   ........     |      [10]: "1934-11-01T04:00:00Z" (-1109793600) transition_time 0x2f3-0x2fa.7 (8)
0x2f0|                                 ff ff ff ff be|           .....|      [11]: "1935-03-01T03:00:00Z" (-1099429200) transition_time 0x2fb-0x302.7 (8)
0x300|78 0a b0                                       |x..             |
0x300|         ff ff ff ff bf bb 18 40               |   .......@     |      [12]: "1935-11-01T04:00:00Z" (-1078257600) transition_time 0x303-0x30a.7 (8)
0x300|                                 ff ff ff ff c0|           .....|      [13]: "1936-03-01T03:00:00Z" (-1067806800) transition_time 0x30b-0x312.7 (8)
0x310|5a 8f b0                                       |Z..             |
0x310|         ff ff ff ff c1 9d 9d 40               |   .......@     |      [14]: "1936-11-01T04:00:00Z" (-1046635200) transition_time 0x313-0x31a.7 (8)
0x310|                                 ff ff ff ff c2|           .....|      [15]: "1937-03-01T03:00:00Z" (-1036270800) transition_time 0x31b-0x322.7 (8)
0x320|3b c3 30                                       |;.0             |
0x320|         ff ff ff ff c3 7e d0 c0               |   .....~..     |      [16]: "1937-11-01T04:00:00Z" (-1015099200) transition_time 0x323-0x32a.7 (8)
0x320|                                 ff ff ff ff c4|           .....|      [17]: "1938-03-01T03:00:00Z" (-1004734800) transition_time 0x32b-0x332.7 (8)
0x330|1c f6 b0                                       |...             |
0x330|         ff ff ff ff c5 60 04 40               |   .....`.@     |      [18]: "1938-11-01T04:00:00Z" (-983563200) transition_time 0x333-0x33a.7 (8)
0x330|                                 ff ff ff ff c5|           .....|      [19]: "1939-03-01T03:00:00Z" (-973198800) transition_time 0x33b-0x342.7 (8)
0x340|fe 2a 30                                       |.*0             |
0x340|         ff ff ff ff c7 41 37 c0               |   .....A7.     |      [20]: "1939-11-01T04:00:00Z" (-952027200) transition_time 0x343-0x34a.7 (8)
0x340|                                 ff ff ff ff c7|           .....|      [21]: "1940-03-01T03:00:00Z" (-941576400) transition_time 0x34b-0x352.7 (8)
0x350|e0 af 30                                       |..0             |
0x350|         ff ff ff ff c8 81 94 40               |   .......@     |      [22]: "1940-07-01T04:00:00Z" (-931032000) transition_time 0x353-0x35a.7 (8)
0x350|                                 ff ff ff ff ca|           .....|      [23]: "1941-06-15T03:00:00Z" (-900882000) transition_time 0x35b-0x362.7 (8)
0x360|4d a1 b0                                       |M..             |
0x360|         ff ff ff ff ca ee 86 c0               |   ........     |      [24]: "1941-10-15T04:00:00Z" (-890337600) transition_time 0x363-0x36a.7 (8)
0x360|                                 ff ff ff ff ce|           .....|      [25]: "1943-08-01T03:00:00Z" (-833749200) transition_time 0x36b-0x372.7 (8)
0x370|4d ff 30                                       |M.0             |
0x370|         ff ff ff ff ce b0 ed c0               |   ........     |      [26]: "1943-10-15T04:00:00Z" (-827265600) transition_time 0x373-0x37a.7 (8)
0x370|                                 ff ff ff ff d3|           .....|      [27]: "1946-03-01T03:00:00Z" (-752274000) transition_time 0x37b-0x382.7 (8)
0x380|29 35 b0                                       |)5.             |
0x380|         ff ff ff ff d4 43 64 c0               |   .....Cd.     |      [28]: "1946-10-01T04:00:00Z" (-733780800) transition_time 0x383-0x38a.7 (8)
0x380|                                 ff ff ff ff f4|           .....|      [29]: "1963-10-01T03:00:00Z" (-197326800) transition_time 0x38b-0x392.7 (8)
0x390|3d 08 30                                       |=.0             |
0x390|         ff ff ff ff f4 9f f6 c0               |   ........     |      [30]: "1963-12-15T04:00:00Z" (-190843200) transition_time 0x393-0x39a.7 (8)
0x390|                                 ff ff ff ff f5|           .....|      [31]: "1964-03-01T03:00:00Z" (-184194000) transition_time 0x39b-0x3a2.7 (8)
0x3a0|05 6c 30                                       |.l0             |
0x3a0|         ff ff ff ff f6 32 10 40               |   .....2.@     |      [32]: "1964-10-15T04:00:00Z" (-164491200) transition_time 0x3a3-0x3aa.7 (8)
0x3a0|                                 ff ff ff ff f6|           .....|      [33]: "1965-03-01T03:00:00Z" (-152658000) transition_time 0x3ab-0x3b2.7 (8)
0x3b0|e6 9f b0                                       |...             |
0x3b0|         ff ff ff ff f8 13 43 c0               |   ......C.     |      [34]: "1965-10-15T04:00:00Z" (-132955200) transition_time 0x3b3-0x3ba.7 (8)
0x3b0|                                 ff ff ff ff f8|           .....|      [35]: "1966-03-01T03:00:00Z" (-121122000) transition_time 0x3bb-0x3c2.7 (8)
0x3c0|c7 d3 30                                       |..0             |
0x3c0|         ff ff ff ff f9 f4 77 40               |   ......w@     |      [36]: "1966-10-15T04:00:00Z" (-101419200) transition_time 0x3c3-0x3ca.7 (8)
0x3c0|                                 ff ff ff ff fa|           .....|      [37]: "1967-04-02T03:00:00Z" (-86821200) transition_time 0x3cb-0x3d2.7 (8)
0x3d0|d3 36 b0                                       |.6.             |
0x3d0|         ff ff ff ff fb c3 35 c0               |   ......5.     |      [38]: "1967-10-01T04:00:00Z" (-71092800) transition_time 0x3d3-0x3da.7 (8)
0x3d0|                                 ff ff ff ff fc|           .....|      [39]: "1968-04-07T03:00:00Z" (-54766800) transition_time 0x3db-0x3e2.7 (8)
0x3e0|bc 53 30                                       |.S0             |
0x3e0|         ff ff ff ff fd ac 52 40               |   ......R@     |      [40]: "1968-10-06T04:00:00Z" (-39038400) transition_time 0x3e3-0x3ea.7 (8)
0x3e0|                                 ff ff ff ff fe|           .....|      [41]: "1969-04-06T03:00:00Z" (-23317200) transition_time 0x3eb-0x3f2.7 (8)
0x3f0|9c 35 30                                       |.50             |
0x3f0|         ff ff ff ff ff 8c 34 40               |   ......4@     |      [42]: "1969-10-05T04:00:00Z" (-7588800) transition_time 0x3f3-0x3fa.7 (8)
0x3f0|                                 00 00 00 00 07|           .....|      [43]: "1974-01-23T03:00:03Z" (128142003) transition_time 0x3fb-0x402.7 (8)
0x400|a3 4a b3                                       |.J.             |
0x400|         00 00 00 00 08 24 6f a3               |   .....$o.     |      [44]: "1974-05-01T02:00:03Z" (136605603) transition_time 0x403-0x40a.7 (8)
0x400|                                 00 00 00 00 23|           ....#|      [45]: "1988-12-01T03:00:14Z" (596948414) transition_time 0x40b-0x412.7 (8)
0x410|94 b5 be                                       |...             |
0x410|         00 00 00 00 24 10 94 ae               |   ....$...     |      [46]: "1989-03-05T02:00:14Z" (605066414) transition_time 0x413-0x41a.7 (8)
0x410|                                 00 00 00 00 25|           ....%|      [47]: "1989-10-15T03:00:14Z" (624423614) transition_time 0x41b-0x422.7 (8)
0x420|37 f2 be                                       |7..             |
0x420|         00 00 00 00 25 f0 76 af               |   ....%.v.     |      [48]: "1990-03-04T02:00:15Z" (636516015) transition_time 0x423-0x42a.7 (8)
0x420|                                 00 00 00 00 27|           ....'|      [49]: "1990-10-21T03:00:15Z" (656478015) transition_time 0x42b-0x432.7 (8)
0x430|21 0f 3f                                       |!.?             |
0x430|         00 00 00 00 27 cd b5 b0               |   ....'...     |      [50]: "1991-03-01T02:00:16Z" (667792816) transition_time 0x433-0x43a.7 (8)
0x430|                                 00 00 00 00 28|           ....(|      [51]: "1991-05-07T04:00:16Z" (673588816) transition_time 0x43b-0x442.7 (8)
0x440|26 26 50                                       |&&P             |
0x440|         00 00 00 00 29 00 f1 40               |   ....)..@     |      [52]: "1991-10-20T03:00:16Z" (687927616) transition_time 0x443-0x44a.7 (8)
0x440|                                 00 00 00 00 29|           ....)|      [53]: "1992-03-01T02:00:16Z" (699415216) transition_time 0x44b-0x452.7 (8)
0x450|b0 3a b0                                       |.:.             |
0x450|         00 00 00 00 2a e0 d3 41               |   ....*..A     |      [54]: "1992-10-18T03:00:17Z" (719377217) transition_time 0x453-0x45a.7 (8)
0x450|                                 00 00 00 00 2b|           ....+|      [55]: "1993-03-07T02:00:17Z" (731469617) transition_time 0x45b-0x462.7 (8)
0x460|99 57 31                                       |.W1             |
0x460|         00 00 00 00 37 f6 c6 c6               |   ....7...     |      [56]: "1999-10-03T03:00:22Z" (938919622) transition_time 0x463-0x46a.7 (8)
0x460|                                 00 00 00 00 38|           ....8|      [57]: "2000-03-03T03:00:22Z" (952052422) transition_time 0x46b-0x472.7 (8)
0x470|bf 2a c6                                       |.*.             |
0x470|         00 00 00 00 40 ba 9f c6               |   ....@...     |      [58]: "2004-05-31T03:00:22Z" (1085972422) transition_time 0x473-0x47a.7 (8)
0x470|                                 00 00 00 00 41|           ....A|      [59]: "2004-07-25T04:00:22Z" (1090728022) transition_time 0x47b-0x482.7 (8)
0x480|03 30 56                                       |.0V             |
0x480|         00 00 00 00 47 77 09 c7               |   ....Gw..     |      [60]: "2007-12-30T03:00:23Z" (1198983623) transition_time 0x483-0x48a.7 (8)
0x480|                                 00 00 00 00 47|           ....G|      [61]: "2008-03-16T02:00:23Z" (1205632823) transition_time 0x48b-0x492.7 (8)
0x490|dc 7f 37                                       |..7             |
0x490|         00 00 00 00 64 9b 78 1b               |   ....d.x.     |      [62]: "2023-06-28T00:00:27Z" (1687910427) transition_time 0x493-0x49a.7 (8)
     |                                               |                |    transition_types[0:63]: 0x49b-0x4d9.7 (63)
0x490|                                 01            |           .    |      [0]: 1 transition_type 0x49b-0x49b.7 (1)
0x490|                                    02         |            .   |      [1]: 2 transition_type 0x49c-0x49c.7 (1)
0x490|                                       03      |             .  |      [2]: 3 transition_type 0x49d-0x49d.7 (1)
0x490|                                          02   |              . |      [3]: 2 transition_type 0x49e-0x49e.7 (1)
0x490|                                             03|               .|      [4]: 3 transition_type 0x49f-0x49f.7 (1)
0x4a0|02                                             |.               |      [5]: 2 transition_type 0x4a0-0x4a0.7 (1)
0x4a0|   03                                          | .              |      [6]: 3 transition_type 0x4a1-0x4a1.7 (1)
0x4a0|      02                                       |  .             |      [7]: 2 transition_type 0x4a2-0x4a2.7 (1)
0x4a0|         03                                    |   .            |      [8]: 3 transition_type 0x4a3-0x4a3.7 (1)
0x4a0|            02                                 |    .           |      [9]: 2 transition_type 0x4a4-0x4a4.7 (1)
0x4a0|               03                              |     .          |      [10]: 3 transition_type 0x4a5-0x4a5.7 (1)
0x4a0|                  02                           |      .         |      [11]: 2 transition_type 0x4a6-0x4a6.7 (1)
0x4a0|                     03                        |       .        |      [12]: 3 transition_type 0x4a7-0x4a7.7 (1)
0x4a0|                        02                     |        .       |      [13]: 2 transition_type 0x4a8-0x4a8.7 (1)
0x4a0|                           03                  |         .      |      [14]: 3 transition_type 0x4a9-0x4a9.7 (1)
0x4a0|                              02               |          .     |      [15]: 2 transition_type 0x4aa-0x4aa.7 (1)
0x4a0|                                 03            |           .    |      [16]: 3 transition_type 0x4ab-0x4ab.7 (1)
0x4a0|                                    02         |            .   |      [17]: 2 transition_type 0x4ac-0x4ac.7 (1)
0x4a0|                                       03      |             .  |      [18]: 3 transition_type 0x4ad-0x4ad.7 (1)
0x4a0|                                          02   |              . |      [19]: 2 transition_type 0x4ae-0x4ae.7 (1)
0x4a0|                                             03|               .|      [20]: 3 transition_type 0x4af-0x4af.7 (1)
0x4b0|02                                             |.               |      [21]: 2 transition_type 0x4b0-0x4b0.7 (1)
0x4b0|   03                                          | .              |      [22]: 3 transition_type 0x4b1-0x4b1.7 (1)
0x4b0|      02                                       |  .             |      [23]: 2 transition_type 0x4b2-0x4b2.7 (1)
0x4b0|         03                                    |   .            |      [24]: 3 transition_type 0x4b3-0x4b3.7 (1)
0x4b0|            02                                 |    .           |      [25]: 2 transition_type 0x4b4-0x4b4.7 (1)
0x4b0|               03                              |     .          |      [26]: 3 transition_type 0x4b5-0x4b5.7 (1)
0x4b0|                  02                           |      .         |      [27]: 2 transition_type 0x4b6-0x4b6.7 (1)
0x4b0|                     03                        |       .        |      [28]: 3 transition_type 0x4b7-0x4b7.7 (1)
0x4b0|                        02                     |        .       |      [29]: 2 transition_type 0x4b8-0x4b8.7 (1)
0x4b0|                           03                  |         .      |      [30]: 3 transition_type 0x4b9-0x4b9.7 (1)
0x4b0|                              02               |          .     |      [31]: 2 transition_type 0x4ba-0x4ba.7 (1)
0x4b0|                                 03            |           .    |      [32]: 3 transition_type 0x4bb-0x4bb.7 (1)
0x4b0|                                    02         |            .   |      [33]: 2 transition_type 0x4bc-0x4bc.7 (1)
0x4b0|                                       03      |             .  |      [34]: 3 transition_type 0x4bd-0x4bd.7 (1)
0x4b0|                                          02   |              . |      [35]: 2 transition_type 0x4be-0x4be.7 (1)
0x4b0|                                             03|               .|      [36]: 3 transition_type 0x4bf-0x4bf.7 (1)
0x4c0|02                                             |.               |      [37]: 2 transition_type 0x4c0-0x4c0.7 (1)
0x4c0|   03                                          | .              |      [38]: 3 transition_type 0x4c1-0x4c1.7 (1)
0x4c0|      02                                       |  .             |      [39]: 2 transition_type 0x4c2-0x4c2.7 (1)
0x4c0|         03                                    |   .            |      [40]: 3 transition_type 0x4c3-0x4c3.7 (1)
0x4c0|            02                                 |    .           |      [41]: 2 transition_type 0x4c4-0x4c4.7 (1)
0x4c0|               05                              |     .          |      [42]: 5 transition_type 0x4c5-0x4c5.7 (1)
0x4c0|                  04                           |      .         |      [43]: 4 transition_type 0x4c6-0x4c6.7 (1)
0x4c0|                     05                        |       .        |      [44]: 5 transition_type 0x4c7-0x4c7.7 (1)
0x4c0|                        04                     |        .       |      [45]: 4 transition_type 0x4c8-0x4c8.7 (1)
0x4c0|                           05                  |         .      |      [46]: 5 transition_type 0x4c9-0x4c9.7 (1)
0x4c0|                              04               |          .     |      [47]: 4 transition_type 0x4ca-0x4ca.7 (1)
0x4c0|                                 05            |           .    |      [48]: 5 transition_type 0x4cb-0x4cb.7 (1)
0x4c0|                                    04         |            .   |      [49]: 4 transition_type 0x4cc-0x4cc.7 (1)
0x4c0|                                       02      |             .  |      [50]: 2 transition_type 0x4cd-0x4cd.7 (1)
0x4c0|                                          05   |              . |      [51]: 5 transition_type 0x4ce-0x4ce.7 (1)
0x4c0|                                             04|               .|      [52]: 4 transition_type 0x4cf-0x4cf.7 (1)
0x4d0|05                                             |.               |      [53]: 5 transition_type 0x4d0-0x4d0.7 (1)
0x4d0|   04                                          | .              |      [54]: 4 transition_type 0x4d1-0x4d1.7 (1)
0x4d0|      05                                       |  .             |      [55]: 5 transition_type 0x4d2-0x4d2.7 (1)
0x4d0|         03                                    |   .            |      [56]: 3 transition_type 0x4d3-0x4d3.7 (1)
0x4d0|            05                                 |    .           |      [57]: 5 transition_type 0x4d4-0x4d4.7 (1)
0x4d0|               02                              |     .          |      [58]: 2 transition_type 0x4d5-0x4d5.7 (1)
0x4d0|                  05                           |      .         |      [59]: 5 transition_type 0x4d6-0x4d6.7 (1)
0x4d0|                     04                        |       .        |      [60]: 4 transition_type 0x4d7-0x4d7.7 (1)
0x4d0|                        05                     |        .       |      [61]: 5 transition_type 0x4d8-0x4d8.7 (1)
0x4d0|                           05                  |         .      |      [62]: 5 transition_type 0x4d9-0x4d9.7 (1)
     |                                               |                |    local_time_type_records[0:6]: 0x4da-0x4fd.7 (36)
     |                                               |                |      [0]{}: local_time_type 0x4da-0x4df.7 (6)
0x4d0|                              ff ff bf c4      |          ....  |        utoff: -16444 (valid) 0x4da-0x4dd.7 (4)
0x4d0|                                          00   |              . |        dst: 0 (valid) 0x4de-0x4de.7 (1)
0x4d0|                                             00|               .|        idx: 0 (valid) 0x4df-0x4df.7 (1)
     |                                               |                |      [1]{}: local_time_type 0x4e0-0x4e5.7 (6)
0x4e0|ff ff c3 d0                                    |....            |        utoff: -15408 (valid) 0x4e0-0x4e3.7 (4)
0x4e0|            00                                 |    .           |        dst: 0 (valid) 0x4e4-0x4e4.7 (1)
0x4e0|               04                              |     .          |        idx: 4 (valid) 0x4e5-0x4e5.7 (1)
     |                                               |                |      [2]{}: local_time_type 0x4e6-0x4eb.7 (6)
0x4e0|                  ff ff c7 c0                  |      ....      |        utoff: -14400 (valid) 0x4e6-0x4e9.7 (4)
0x4e0|                              00               |          .     |        dst: 0 (valid) 0x4ea-0x4ea.7 (1)
0x4e0|                                 08            |           .    |        idx: 8 (valid) 0x4eb-0x4eb.7 (1)
     |                                               |                |      [3]{}: local_time_type 0x4ec-0x4f1.7 (6)
0x4e0|                                    ff ff d5 d0|            ....|        utoff: -10800 (valid) 0x4ec-0x4ef.7 (4)
0x4f0|01                                             |.               |        dst: 1 (valid) 0x4f0-0x4f0.7 (1)
0x4f0|   0c                                          | .              |        idx: 12 (valid) 0x4f1-0x4f1.7 (1)
     |                                               |                |      [4]{}: local_time_type 0x4f2-0x4f7.7 (6)
0x4f0|      ff ff e3 e0                              |  ....          |        utoff: -7200 (valid) 0x4f2-0x4f5.7 (4)
0x4f0|                  01                           |      .         |        dst: 1 (valid) 0x4f6-0x4f6.7 (1)
0x4f0|                     10                        |       .        |        idx: 16 (valid) 0x4f7-0x4f7.7 (1)
     |                                               |                |      [5]{}: local_time_type 0x4f8-0x4fd.7 (6)
0x4f0|                        ff ff d5 d0            |        ....    |        utoff: -10800 (valid) 0x4f8-0x4fb.7 (4)
0x4f0|                                    00         |            .   |        dst: 0 (valid) 0x4fc-0x4fc.7 (1)
0x4f0|                                       0c      |             .  |        idx: 12 (valid) 0x4fd-0x4fd.7 (1)
     |                                               |                |    time_zone_designations[0:5]: 0x4fe-0x511.7 (20)
0x4f0|                                          4c 4d|              LM|      [0]: "LMT" time_zone_designation 0x4fe-0x501.7 (4)
0x500|54 00                                          |T.              |
0x500|      43 4d 54 00                              |  CMT.          |      [1]: "CMT" time_zone_designation 0x502-0x505.7 (4)
0x500|                  2d 30 34 00                  |      -04.      |      [2]: "-04" time_zone_designation 0x506-0x509.7 (4)
0x500|                              2d 30 33 00      |          -03.  |      [3]: "-03" time_zone_designation 0x50a-0x50d.7 (4)
0x500|                                          2d 30|              -0|      [4]: "-02" time_zone_designation 0x50e-0x511.7 (4)
0x510|32 00                                          |2.              |
     |                                               |                |    leap_second_records[0:27]: 0x512-0x655.7 (324)
     |                                               |                |      [0]{}: leap_second_record 0x512-0x51d.7 (12)
0x510|      00 00 00 00 04 b2 58 00                  |  ......X.      |        occur: "1972-07-01T00:00:00Z" (78796800) 0x512-0x519.7 (8)
0x510|                              00 00 00 01      |          ....  |        corr: 1 0x51a-0x51d.7 (4)
     |                                               |                |      [1]{}: leap_second_record 0x51e-0x529.7 (12)
0x510|                                          00 00|              ..|        occur: "1973-01-01T00:00:01Z" (94694401) 0x51e-0x525.7 (8)
0x520|00 00 05 a4 ec 01                              |......          |
0x520|                  00 00 00 02                  |      ....      |        corr: 2 0x526-0x529.7 (4)
     |                                               |                |      [2]{}: leap_second_record 0x52a-0x535.7 (12)
0x520|                              00 00 00 00 07 86|          ......|        occur: "1974-01-01T00:00:02Z" (126230402) 0x52a-0x531.7 (8)
0x530|1f 82                                          |..              |
0x530|      00 00 00 03                              |  ....          |        corr: 3 0x532-0x535.7 (4)
     |                                               |                |      [3]{}: leap_second_record 0x536-0x541.7 (12)
0x530|                  00 00 00 00 09 67 53 03      |      .....gS.  |        occur: "1975-01-01T00:00:03Z" (157766403) 0x536-0x53d.7 (8)
0x530|                                          00 00|              ..|        corr: 4 0x53e-0x541.7 (4)
0x540|00 04                                          |..              |
     |                                               |                |      [4]{}: leap_second_record 0x542-0x54d.7 (12)
0x540|      00 00 00 00 0b 48 86 84                  |  .....H..      |        occur: "1976-01-01T00:00:04Z" (189302404) 0x542-0x549.7 (8)
0x540|                              00 00 00 05      |          ....  |        corr: 5 0x54a-0x54d.7 (4)
     |                                               |                |      [5]{}: leap_second_record 0x54e-0x559.7 (12)
0x540|                                          00 00|              ..|        occur: "1977-01-01T00:00:05Z" (220924805) 0x54e-0x555.7 (8)
0x550|00 00 0d 2b 0b 85                              |...+..          |
0x550|                  00 00 00 06                  |      ....      |        corr: 6 0x556-0x559.7 (4)
     |                                               |                |      [6]{}: leap_second_record 0x55a-0x565.7 (12)
0x550|                              00 00 00 00 0f 0c|          ......|        occur: "1978-01-01T00:00:06Z" (252460806) 0x55a-0x561.7 (8)
0x560|3f 06                                          |?.              |
0x560|      00 00 00 07                              |  ....          |        corr: 7 0x562-0x565.7 (4)
     |                                               |                |      [7]{}: leap_second_record 0x566-0x571.7 (12)
0x560|                  00 00 00 00 10 ed 72 87      |      ......r.  |        occur: "1979-01-01T00:00:07Z" (283996807) 0x566-0x56d.7 (8)
0x560|                                          00 00|              ..|        corr: 8 0x56e-0x571.7 (4)
0x570|00 08                                          |..              |
     |                                               |                |      [8]{}: leap_second_record 0x572-0x57d.7 (12)
0x570|      00 00 00 00 12 ce a6 08                  |  ........      |        occur: "1980-01-01T00:00:08Z" (315532808) 0x572-0x579.7 (8)
0x570|                              00 00 00 09      |          ....  |        corr: 9 0x57a-0x57d.7 (4)
     |                                               |                |      [9]{}: leap_second_record 0x57e-0x589.7 (12)
0x570|                                          00 00|              ..|        occur: "1981-07-01T00:00:09Z" (362793609) 0x57e-0x585.7 (8)
0x580|00 00 15 9f ca 89                              |......          |
0x580|                  00 00 00 0a                  |      ....      |        corr: 10 0x586-0x589.7 (4)
     |                                               |                |      [10]{}: leap_second_record 0x58a-0x595.7 (12)
0x580|                              00 00 00 00 17 80|          ......|        occur: "1982-07-01T00:00:10Z" (394329610) 0x58a-0x591.7 (8)
0x590|fe 0a                                          |..              |
0x590|      00 00 00 0b                              |  ....          |        corr: 11 0x592-0x595.7 (4)
     |                                               |                |      [11]{}: leap_second_record 0x596-0x5a1.7 (12)
0x590|                  00 00 00 00 19 62 31 8b      |      .....b1.  |        occur: "1983-07-01T00:00:11Z" (425865611) 0x596-0x59d.7 (8)
0x590|                                          00 00|              ..|        corr: 12 0x59e-0x5a1.7 (4)
0x5a0|00 0c                                          |..              |
     |                                               |                |      [12]{}: leap_second_record 0x5a2-0x5ad.7 (12)
0x5a0|      00 00 00 00 1d 25 ea 0c                  |  .....%..      |        occur: "1985-07-01T00:00:12Z" (489024012) 0x5a2-0x5a9.7 (8)
0x5a0|                              00 00 00 0d      |          ....  |        corr: 13 0x5aa-0x5ad.7 (4)
     |                                               |                |      [13]{}: leap_second_record 0x5ae-0x5b9.7 (12)
0x5a0|                                          00 00|              ..|        occur: "1988-01-01T00:00:13Z" (567993613) 0x5ae-0x5b5.7 (8)
0x5b0|00 00 21 da e5 0d                              |..!...          |
0x5b0|                  00 00 00 0e                  |      ....      |        corr: 14 0x5b6-0x5b9.7 (4)
     |                                               |                |      [14]{}: leap_second_record 0x5ba-0x5c5.7 (12)
0x5b0|                              00 00 00 00 25 9e|          ....%.|        occur: "1990-01-01T00:00:14Z" (631152014) 0x5ba-0x5c1.7 (8)
0x5c0|9d 8e                                          |..              |
0x5c0|      00 00 00 0f                              |  ....          |        corr: 15 0x5c2-0x5c5.7 (4)
     |                                               |                |      [15]{}: leap_second_record 0x5c6-0x5d1.7 (12)
0x5c0|                  00 00 00 00 27 7f d1 0f      |      ....'...  |        occur: "1991-01-01T00:00:15Z" (662688015) 0x5c6-0x5cd.7 (8)
0x5c0|                                          00 00|              ..|        corr: 16 0x5ce-0x5d1.7 (4)
0x5d0|00 10                                          |..              |
     |                                               |                |      [16]{}: leap_second_record 0x5d2-0x5dd.7 (12)
0x5d0|      00 00 00 00 2a 50 f5 90                  |  ....*P..      |        occur: "1992-07-01T00:00:16Z" (709948816) 0x5d2-0x5d9.7 (8)
0x5d0|                              00 00 00 11      |          ....  |        corr: 17 0x5da-0x5dd.7 (4)
     |                                               |                |      [17]{}: leap_second_record 0x5de-0x5e9.7 (12)
0x5d0|                                          00 00|              ..|        occur: "1993-07-01T00:00:17Z" (741484817) 0x5de-0x5e5.7 (8)
0x5e0|00 00 2c 32 29 11                              |..,2).          |
0x5e0|                  00 00 00 12                  |      ....      |        corr: 18 0x5e6-0x5e9.7 (4)
     |                                               |                |      [18]{}: leap_second_record 0x5ea-0x5f5.7 (12)
0x5e0|                              00 00 00 00 2e 13|          ......|        occur: "1994-07-01T00:00:18Z" (773020818) 0x5ea-0x5f1.7 (8)
0x5f0|5c 92                                          |\.              |
0x5f0|      00 00 00 13                              |  ....          |        corr: 19 0x5f2-0x5f5.7 (4)
     |                                               |                |      [19]{}: leap_second_record 0x5f6-0x601.7 (12)
0x5f0|                  00 00 00 00 30 e7 24 13      |      ....0.$.  |        occur: "1996-01-01T00:00:19Z" (820454419) 0x5f6-0x5fd.7 (8)
0x5f0|                                          00 00|              ..|        corr: 20 0x5fe-0x601.7 (4)
0x600|00 14                                          |..              |
     |                                               |                |      [20]{}: leap_second_record 0x602-0x60d.7 (12)
0x600|      00 00 00 00 33 b8 48 94                  |  ....3.H.      |        occur: "1997-07-01T00:00:20Z" (867715220) 0x602-0x609.7 (8)
0x600|                              00 00 00 15      |          ....  |        corr: 21 0x60a-0x60d.7 (4)
     |                                               |                |      [21]{}: leap_second_record 0x60e-0x619.7 (12)
0x600|                                          00 00|              ..|        occur: "1999-01-01T00:00:21Z" (915148821) 0x60e-0x615.7 (8)
0x610|00 00 36 8c 10 15                              |..6...          |
0x610|                  00 00 00 16                  |      ....      |        corr: 22 0x616-0x619.7 (4)
     |                                               |                |      [22]{}: leap_second_record 0x61a-0x625.7 (12)
0x610|                              00 00 00 00 43 b7|          ....C.|        occur: "2006-01-01T00:00:22Z" (1136073622) 0x61a-0x621.7 (8)
0x620|1b 96                                          |..              |
0x620|      00 00 00 17                              |  ....          |        corr: 23 0x622-0x625.7 (4)
     |                                               |                |      [23]{}: leap_second_record 0x626-0x631.7 (12)
0x620|                  00 00 00 00 49 5c 07 97      |      ....I\..  |        occur: "2009-01-01T00:00:23Z" (1230768023) 0x626-0x62d.7 (8)
0x620|                                          00 00|              ..|        corr: 24 0x62e-0x631.7 (4)
0x630|00 18                                          |..              |
     |                                               |                |      [24]{}: leap_second_record 0x632-0x63d.7 (12)
0x630|      00 00 00 00 4f ef 93 18                  |  ....O...      |        occur: "2012-07-01T00:00:24Z" (1341100824) 0x632-0x639.7 (8)
0x630|                              00 00 00 19      |          ....  |        corr: 25 0x63a-0x63d.7 (4)
     |                                               |                |      [25]{}: leap_second_record 0x63e-0x649.7 (12)
0x630|                                          00 00|              ..|        occur: "2015-07-01T00:00:25Z" (1435708825) 0x63e-0x645.7 (8)
0x640|00 00 55 93 2d 99                              |..U.-.          |
0x640|                  00 00 00 1a                  |      ....      |        corr: 26 0x646-0x649.7 (4)
     |                                               |                |      [26]{}: leap_second_record 0x64a-0x655.7 (12)
0x640|                              00 00 00 00 58 68|          ....Xh|        occur: "2017-01-01T00:00:26Z" (1483228826) 0x64a-0x651.7 (8)
0x650|46 9a                                          |F.              |
0x650|      00 00 00 1b                              |  ....          |        corr: 27 0x652-0x655.7 (4)
     |                                               |                |    standard_wall_indicators[0:0]: 0x656-NA (0)
     |                                               |                |    ut_local_indicators[0:0]: 0x656-NA (0)
     |                                               |                |  footer{}: 0x656-0x657.7 (2)
0x650|                  0a                           |      .         |    nl1: 10 (valid) 0x656-0x656.7 (1)
     |                                               |                |    tz_string: "" 0x657-NA (0)
0x650|                     0a|                       |       .|       |    nl2: 10 (valid) 0x657-0x657.7 (1)
