$ fq -d tzif dv Santo_Domingo
     |00 01 02 03 04 05 06 07 08 09 0a 0b 0c 0d 0e 0f|0123456789abcdef|.{}: Santo_Domingo (tzif) 0x0-0x3ef.7 (1008)
     |                                               |                |  v1header{}: 0x0-0x2b.7 (44)
0x000|54 5a 69 66                                    |TZif            |    magic: 0x545a6966 (valid) 0x0-0x3.7 (4)
0x000|            32                                 |    2           |    ver: "2" (0x32) (valid) 0x4-0x4.7 (1)
0x000|               00 00 00 00 00 00 00 00 00 00 00|     ...........|    reserved: raw bits 0x5-0x13.7 (15)
0x010|00 00 00 00                                    |....            |
0x010|            00 00 00 00                        |    ....        |    isutcnt: 0 0x14-0x17.7 (4)
0x010|                        00 00 00 00            |        ....    |    isstdcnt: 0 0x18-0x1b.7 (4)
0x010|                                    00 00 00 1b|            ....|    leapcnt: 27 0x1c-0x1f.7 (4)
0x020|00 00 00 12                                    |....            |    timecnt: 18 0x20-0x23.7 (4)
0x020|            00 00 00 06                        |    ....        |    typecnt: 6 0x24-0x27.7 (4)
0x020|                        00 00 00 1b            |        ....    |    charcnt: 27 0x28-0x2b.7 (4)
     |                                               |                |  v1datablock{}: 0x2c-0x19c.7 (369)
     |                                               |                |    transition_times[0:18]: 0x2c-0x73.7 (72)
0x020|                                    80 00 00 00|            ....|      [0]: "1901-12-13T20:45:52Z" (-2147483648) transition_time 0x2c-0x2f.7 (4)
0x030|ba df 42 60                                    |..B`            |      [1]: "1933-04-01T16:40:00Z" (-1159773600) transition_time 0x30-0x33.7 (4)
0x030|            fa 08 4b d0                        |    ..K.        |      [2]: "1966-10-30T05:00:00Z" (-100119600) transition_time 0x34-0x37.7 (4)
0x030|                        fa a7 c3 40            |        ...@    |      [3]: "1967-02-28T04:00:00Z" (-89668800) transition_time 0x38-0x3b.7 (4)
0x030|                                    ff a7 f1 d0|            ....|      [4]: "1969-10-26T05:00:00Z" (-5770800) transition_time 0x3c-0x3f.7 (4)
0x040|00 43 7b c8                                    |.C{.            |      [5]: "1970-02-21T04:30:00Z" (4422600) transition_time 0x40-0x43.7 (4)
0x040|            01 87 d3 d0                        |    ....        |      [6]: "1970-10-25T05:00:00Z" (25678800) transition_time 0x44-0x47.7 (4)
0x040|                        01 fa 7f 48            |        ...H    |      [7]: "1971-01-20T04:30:00Z" (33193800) transition_time 0x48-0x4b.7 (4)
0x040|                                    03 70 f0 50|            .p.P|      [8]: "1971-10-31T05:00:00Z" (57733200) transition_time 0x4c-0x4f.7 (4)
0x050|03 dd 04 48                                    |...H            |      [9]: "1972-01-21T04:30:00Z" (64816200) transition_time 0x50-0x53.7 (4)
0x050|            05 50 d2 51                        |    .P.Q        |      [10]: "1972-10-29T05:00:01Z" (89182801) transition_time 0x54-0x57.7 (4)
0x050|                        05 bf 89 4a            |        ...J    |      [11]: "1973-01-21T04:30:02Z" (96438602) transition_time 0x58-0x5b.7 (4)
0x050|                                    07 30 b4 52|            .0.R|      [12]: "1973-10-28T05:00:02Z" (120632402) transition_time 0x5c-0x5f.7 (4)
0x060|07 a0 bc cb                                    |....            |      [13]: "1974-01-21T04:30:03Z" (127974603) transition_time 0x60-0x63.7 (4)
0x060|            09 10 96 53                        |    ...S        |      [14]: "1974-10-27T05:00:03Z" (152082003) transition_time 0x64-0x67.7 (4)
0x060|                        39 fb bc f6            |        9...    |      [15]: "2000-10-29T06:00:22Z" (972799222) transition_time 0x68-0x6b.7 (4)
0x060|                                    3a 29 e1 76|            :).v|      [16]: "2000-12-03T06:00:22Z" (975823222) transition_time 0x6c-0x6f.7 (4)
0x070|64 9b 78 1b                                    |d.x.            |      [17]: "2023-06-28T00:00:27Z" (1687910427) transition_time 0x70-0x73.7 (4)
     |                                               |                |    transition_types[0:18]: 0x74-0x85.7 (18)
0x070|            01                                 |    .           |      [0]: 1 transition_type 0x74-0x74.7 (1)
0x070|               03                              |     .          |      [1]: 3 transition_type 0x75-0x75.7 (1)
0x070|                  02                           |      .         |      [2]: 2 transition_type 0x76-0x76.7 (1)
0x070|                     03                        |       .        |      [3]: 3 transition_type 0x77-0x77.7 (1)
0x070|                        04                     |        .       |      [4]: 4 transition_type 0x78-0x78.7 (1)
0x070|                           03                  |         .      |      [5]: 3 transition_type 0x79-0x79.7 (1)
0x070|                              04               |          .     |      [6]: 4 transition_type 0x7a-0x7a.7 (1)
0x070|                                 03            |           .    |      [7]: 3 transition_type 0x7b-0x7b.7 (1)
0x070|                                    04         |            .   |      [8]: 4 transition_type 0x7c-0x7c.7 (1)
0x070|                                       03      |             .  |      [9]: 3 transition_type 0x7d-0x7d.7 (1)
0x070|                                          04   |              . |      [10]: 4 transition_type 0x7e-0x7e.7 (1)
0x070|                                             03|               .|      [11]: 3 transition_type 0x7f-0x7f.7 (1)
0x080|04                                             |.               |      [12]: 4 transition_type 0x80-0x80.7 (1)
0x080|   03                                          | .              |      [13]: 3 transition_type 0x81-0x81.7 (1)
0x080|      05                                       |  .             |      [14]: 5 transition_type 0x82-0x82.7 (1)
0x080|         03                                    |   .            |      [15]: 3 transition_type 0x83-0x83.7 (1)
0x080|            05                                 |    .           |      [16]: 5 transition_type 0x84-0x84.7 (1)
0x080|               05                              |     .          |      [17]: 5 transition_type 0x85-0x85.7 (1)
     |                                               |                |    local_time_type_records[0:6]: 0x86-0xa9.7 (36)
     |                                               |                |      [0]{}: local_time_type 0x86-0x8b.7 (6)
0x080|                  ff ff be 78                  |      ...x      |        utoff: -16776 (valid) 0x86-0x89.7 (4)
0x080|                              00               |          .     |        dst: 0 (valid) 0x8a-0x8a.7 (1)
0x080|                                 00            |           .    |        idx: 0 (valid) 0x8b-0x8b.7 (1)
     |                                               |                |      [1]{}: local_time_type 0x8c-0x91.7 (6)
0x080|                                    ff ff be 60|            ...`|        utoff: -16800 (valid) 0x8c-0x8f.7 (4)
0x090|00                                             |.               |        dst: 0 (valid) 0x90-0x90.7 (1)
0x090|   04                                          | .              |        idx: 4 (valid) 0x91-0x91.7 (1)
     |                                               |                |      [2]{}: local_time_type 0x92-0x97.7 (6)
0x090|      ff ff c7 c0                              |  ....          |        utoff: -14400 (valid) 0x92-0x95.7 (4)
0x090|                  01                           |      .         |        dst: 1 (valid) 0x96-0x96.7 (1)
0x090|                     09                        |       .        |        idx: 9 (valid) 0x97-0x97.7 (1)
     |                                               |                |      [3]{}: local_time_type 0x98-0x9d.7 (6)
0x090|                        ff ff b9 b0            |        ....    |        utoff: -18000 (valid) 0x98-0x9b.7 (4)
0x090|                                    00         |            .   |        dst: 0 (valid) 0x9c-0x9c.7 (1)
0x090|                                       0d      |             .  |        idx: 13 (valid) 0x9d-0x9d.7 (1)
     |                                               |                |      [4]{}: local_time_type 0x9e-0xa3.7 (6)
0x090|                                          ff ff|              ..|        utoff: -16200 (valid) 0x9e-0xa1.7 (4)
0x0a0|c0 b8                                          |..              |
0x0a0|      01                                       |  .             |        dst: 1 (valid) 0xa2-0xa2.7 (1)
0x0a0|         11                                    |   .            |        idx: 17 (valid) 0xa3-0xa3.7 (1)
     |                                               |                |      [5]{}: local_time_type 0xa4-0xa9.7 (6)
0x0a0|            ff ff c7 c0                        |    ....        |        utoff: -14400 (valid) 0xa4-0xa7.7 (4)
0x0a0|                        00                     |        .       |        dst: 0 (valid) 0xa8-0xa8.7 (1)
0x0a0|                           17                  |         .      |        idx: 23 (valid) 0xa9-0xa9.7 (1)
     |                                               |                |    time_zone_designations[0:6]: 0xaa-0xc4.7 (27)
0x0a0|                              4c 4d 54 00      |          LMT.  |      [0]: "LMT" time_zone_designation 0xaa-0xad.7 (4)
0x0a0|                                          53 44|              SD|      [1]: "SDMT" time_zone_designation 0xae-0xb2.7 (5)
0x0b0|4d 54 00                                       |MT.             |
0x0b0|         45 44 54 00                           |   EDT.         |      [2]: "EDT" time_zone_designation 0xb3-0xb6.7 (4)
0x0b0|                     45 53 54 00               |       EST.     |      [3]: "EST" time_zone_designation 0xb7-0xba.7 (4)
0x0b0|                                 2d 30 34 33 30|           -0430|      [4]: "-0430" time_zone_designation 0xbb-0xc0.7 (6)
0x0c0|00                                             |.               |
0x0c0|   41 53 54 00                                 | AST.           |      [5]: "AST" time_zone_designation 0xc1-0xc4.7 (4)
     |                                               |                |    leap_second_records[0:27]: 0xc5-0x19c.7 (216)
     |                                               |                |      [0]{}: leap_second_record 0xc5-0xcc.7 (8)
0x0c0|               04 b2 58 00                     |     ..X.       |        occur: "1972-07-01T00:00:00Z" (78796800) 0xc5-0xc8.7 (4)
0x0c0|                           00 00 00 01         |         ....   |        corr: 1 0xc9-0xcc.7 (4)
     |                                               |                |      [1]{}: leap_second_record 0xcd-0xd4.7 (8)
0x0c0|                                       05 a4 ec|             ...|        occur: "1973-01-01T00:00:01Z" (94694401) 0xcd-0xd0.7 (4)
0x0d0|01                                             |.               |
0x0d0|   00 00 00 02                                 | ....           |        corr: 2 0xd1-0xd4.7 (4)
     |                                               |                |      [2]{}: leap_second_record 0xd5-0xdc.7 (8)
0x0d0|               07 86 1f 82                     |     ....       |        occur: "1974-01-01T00:00:02Z" (126230402) 0xd5-0xd8.7 (4)
0x0d0|                           00 00 00 03         |         ....   |        corr: 3 0xd9-0xdc.7 (4)
     |                                               |                |      [3]{}: leap_second_record 0xdd-0xe4.7 (8)
0x0d0|                                       09 67 53|             .gS|        occur: "1975-01-01T00:00:03Z" (157766403) 0xdd-0xe0.7 (4)
0x0e0|03                                             |.               |
0x0e0|   00 00 00 04                                 | ....           |        corr: 4 0xe1-0xe4.7 (4)
     |                                               |                |      [4]{}: leap_second_record 0xe5-0xec.7 (8)
0x0e0|               0b 48 86 84                     |     .H..       |        occur: "1976-01-01T00:00:04Z" (189302404) 0xe5-0xe8.7 (4)
0x0e0|                           00 00 00 05         |         ....   |        corr: 5 0xe9-0xec.7 (4)
     |                                               |                |      [5]{}: leap_second_record 0xed-0xf4.7 (8)
0x0e0|                                       0d 2b 0b|             .+.|        occur: "1977-01-01T00:00:05Z" (220924805) 0xed-0xf0.7 (4)
0x0f0|85                                             |.               |
0x0f0|   00 00 00 06                                 | ....           |        corr: 6 0xf1-0xf4.7 (4)
     |                                               |                |      [6]{}: leap_second_record 0xf5-0xfc.7 (8)
0x0f0|               0f 0c 3f 06                     |     ..?.       |        occur: "1978-01-01T00:00:06Z" (252460806) 0xf5-0xf8.7 (4)
0x0f0|                           00 00 00 07         |         ....   |        corr: 7 0xf9-0xfc.7 (4)
     |                                               |                |      [7]{}: leap_second_record 0xfd-0x104.7 (8)
0x0f0|                                       10 ed 72|             ..r|        occur: "1979-01-01T00:00:07Z" (283996807) 0xfd-0x100.7 (4)
0x100|87                                             |.               |
0x100|   00 00 00 08                                 | ....           |        corr: 8 0x101-0x104.7 (4)
     |                                               |                |      [8]{}: leap_second_record 0x105-0x10c.7 (8)
0x100|               12 ce a6 08                     |     ....       |        occur: "1980-01-01T00:00:08Z" (315532808) 0x105-0x108.7 (4)
0x100|                           00 00 00 09         |         ....   |        corr: 9 0x109-0x10c.7 (4)
     |                                               |                |      [9]{}: leap_second_record 0x10d-0x114.7 (8)
0x100|                                       15 9f ca|             ...|        occur: "1981-07-01T00:00:09Z" (362793609) 0x10d-0x110.7 (4)
0x110|89                                             |.               |
0x110|   00 00 00 0a                                 | ....           |        corr: 10 0x111-0x114.7 (4)
     |                                               |                |      [10]{}: leap_second_record 0x115-0x11c.7 (8)
0x110|               17 80 fe 0a                     |     ....       |        occur: "1982-07-01T00:00:10Z" (394329610) 0x115-0x118.7 (4)
0x110|                           00 00 00 0b         |         ....   |        corr: 11 0x119-0x11c.7 (4)
     |                                               |                |      [11]{}: leap_second_record 0x11d-0x124.7 (8)
0x110|                                       19 62 31|             .b1|        occur: "1983-07-01T00:00:11Z" (425865611) 0x11d-0x120.7 (4)
0x120|8b                                             |.               |
0x120|   00 00 00 0c                                 | ....           |        corr: 12 0x121-0x124.7 (4)
     |                                               |                |      [12]{}: leap_second_record 0x125-0x12c.7 (8)
0x120|               1d 25 ea 0c                     |     .%..       |        occur: "1985-07-01T00:00:12Z" (489024012) 0x125-0x128.7 (4)
0x120|                           00 00 00 0d         |         ....   |        corr: 13 0x129-0x12c.7 (4)
     |                                               |                |      [13]{}: leap_second_record 0x12d-0x134.7 (8)
0x120|                                       21 da e5|             !..|        occur: "1988-01-01T00:00:13Z" (567993613) 0x12d-0x130.7 (4)
0x130|0d                                             |.               |
0x130|   00 00 00 0e                                 | ....           |        corr: 14 0x131-0x134.7 (4)
     |                                               |                |      [14]{}: leap_second_record 0x135-0x13c.7 (8)
0x130|               25 9e 9d 8e                     |     %...       |        occur: "1990-01-01T00:00:14Z" (631152014) 0x135-0x138.7 (4)
0x130|                           00 00 00 0f         |         ....   |        corr: 15 0x139-0x13c.7 (4)
     |                                               |                |      [15]{}: leap_second_record 0x13d-0x144.7 (8)
0x130|                                       27 7f d1|             '..|        occur: "1991-01-01T00:00:15Z" (662688015) 0x13d-0x140.7 (4)
0x140|0f                                             |.               |
0x140|   00 00 00 10                                 | ....           |        corr: 16 0x141-0x144.7 (4)
     |                                               |                |      [16]{}: leap_second_record 0x145-0x14c.7 (8)
0x140|               2a 50 f5 90                     |     *P..       |        occur: "1992-07-01T00:00:16Z" (709948816) 0x145-0x148.7 (4)
0x140|                           00 00 00 11         |         ....   |        corr: 17 0x149-0x14c.7 (4)
     |                                               |                |      [17]{}: leap_second_record 0x14d-0x154.7 (8)
0x140|                                       2c 32 29|             ,2)|        occur: "1993-07-01T00:00:17Z" (741484817) 0x14d-0x150.7 (4)
0x150|11                                             |.               |
0x150|   00 00 00 12                                 | ....           |        corr: 18 0x151-0x154.7 (4)
     |                                               |                |      [18]{}: leap_second_record 0x155-0x15c.7 (8)
0x150|               2e 13 5c 92                     |     ..\.       |        occur: "1994-07-01T00:00:18Z" (773020818) 0x155-0x158.7 (4)
0x150|                           00 00 00 13         |         ....   |        corr: 19 0x159-0x15c.7 (4)
     |                                               |                |      [19]{}: leap_second_record 0x15d-0x164.7 (8)
0x150|                                       30 e7 24|             0.$|        occur: "1996-01-01T00:00:19Z" (820454419) 0x15d-0x160.7 (4)
0x160|13                                             |.               |
0x160|   00 00 00 14                                 | ....           |        corr: 20 0x161-0x164.7 (4)
     |                                               |                |      [20]{}: leap_second_record 0x165-0x16c.7 (8)
0x160|               33 b8 48 94                     |     3.H.       |        occur: "1997-07-01T00:00:20Z" (867715220) 0x165-0x168.7 (4)
0x160|                           00 00 00 15         |         ....   |        corr: 21 0x169-0x16c.7 (4)
     |                                               |                |      [21]{}: leap_second_record 0x16d-0x174.7 (8)
0x160|                                       36 8c 10|             6..|        occur: "1999-01-01T00:00:21Z" (915148821) 0x16d-0x170.7 (4)
0x170|15                                             |.               |
0x170|   00 00 00 16                                 | ....           |        corr: 22 0x171-0x174.7 (4)
     |                                               |                |      [22]{}: leap_second_record 0x175-0x17c.7 (8)
0x170|               43 b7 1b 96                     |     C...       |        occur: "2006-01-01T00:00:22Z" (1136073622) 0x175-0x178.7 (4)
0x170|                           00 00 00 17         |         ....   |        corr: 23 0x179-0x17c.7 (4)
     |                                               |                |      [23]{}: leap_second_record 0x17d-0x184.7 (8)
0x170|                                       49 5c 07|             I\.|        occur: "2009-01-01T00:00:23Z" (1230768023) 0x17d-0x180.7 (4)
0x180|97                                             |.               |
0x180|   00 00 00 18                                 | ....           |        corr: 24 0x181-0x184.7 (4)
     |                                               |                |      [24]{}: leap_second_record 0x185-0x18c.7 (8)
0x180|               4f ef 93 18                     |     O...       |        occur: "2012-07-01T00:00:24Z" (1341100824) 0x185-0x188.7 (4)
0x180|                           00 00 00 19         |         ....   |        corr: 25 0x189-0x18c.7 (4)
     |                                               |                |      [25]{}: leap_second_record 0x18d-0x194.7 (8)
0x180|                                       55 93 2d|             U.-|        occur: "2015-07-01T00:00:25Z" (1435708825) 0x18d-0x190.7 (4)
0x190|99                                             |.               |
0x190|   00 00 00 1a                                 | ....           |        corr: 26 0x191-0x194.7 (4)
     |                                               |                |      [26]{}: leap_second_record 0x195-0x19c.7 (8)
0x190|               58 68 46 9a                     |     XhF.       |        occur: "2017-01-01T00:00:26Z" (1483228826) 0x195-0x198.7 (4)
0x190|                           00 00 00 1b         |         ....   |        corr: 27 0x199-0x19c.7 (4)
     |                                               |                |    standard_wall_indicators[0:0]: 0x19d-NA (0)
     |                                               |                |    ut_local_indicators[0:0]: 0x19d-NA (0)
     |                                               |                |  v2plusheader{}: 0x19d-0x1c8.7 (44)
0x190|                                       54 5a 69|             TZi|    magic: 0x545a6966 (valid) 0x19d-0x1a0.7 (4)
0x1a0|66                                             |f               |
0x1a0|   32                                          | 2              |    ver: "2" (0x32) (valid) 0x1a1-0x1a1.7 (1)
0x1a0|      00 00 00 00 00 00 00 00 00 00 00 00 00 00|  ..............|    reserved: raw bits 0x1a2-0x1b0.7 (15)
0x1b0|00                                             |.               |
0x1b0|   00 00 00 00                                 | ....           |    isutcnt: 0 0x1b1-0x1b4.7 (4)
0x1b0|               00 00 00 00                     |     ....       |    isstdcnt: 0 0x1b5-0x1b8.7 (4)
0x1b0|                           00 00 00 1b         |         ....   |    leapcnt: 27 0x1b9-0x1bc.7 (4)
0x1b0|                                       00 00 00|             ...|    timecnt: 18 0x1bd-0x1c0.7 (4)
0x1c0|12                                             |.               |
0x1c0|   00 00 00 06                                 | ....           |    typecnt: 6 0x1c1-0x1c4.7 (4)
0x1c0|               00 00 00 1b                     |     ....       |    charcnt: 27 0x1c5-0x1c8.7 (4)
     |                                               |                |  v2plusdatablock{}: 0x1c9-0x3ed.7 (549)
     |                                               |                |    transition_times[0:18]: 0x1c9-0x258.7 (144)
0x1c0|                           ff ff ff ff 69 87 1d|         ....i..|      [0]: "1890-01-01T04:39:36Z" (-2524504824) transition_time 0x1c9-0x1d0.7 (8)
0x1d0|08                                             |.               |
0x1d0|   ff ff ff ff ba df 42 60                     | ......B`       |      [1]: "1933-04-01T16:40:00Z" (-1159773600) transition_time 0x1d1-0x1d8.7 (8)
0x1d0|                           ff ff ff ff fa 08 4b|         ......K|      [2]: "1966-10-30T05:00:00Z" (-100119600) transition_time 0x1d9-0x1e0.7 (8)
0x1e0|d0                                             |.               |
0x1e0|   ff ff ff ff fa a7 c3 40                     | .......@       |      [3]: "1967-02-28T04:00:00Z" (-89668800) transition_time 0x1e1-0x1e8.7 (8)
0x1e0|                           ff ff ff ff ff a7 f1|         .......|      [4]: "1969-10-26T05:00:00Z" (-5770800) transition_time 0x1e9-0x1f0.7 (8)
0x1f0|d0                                             |.               |
0x1f0|   00 00 00 00 00 43 7b c8                     | .....C{.       |      [5]: "1970-02-21T04:30:00Z" (4422600) transition_time 0x1f1-0x1f8.7 (8)
0x1f0|                           00 00 00 00 01 87 d3|         .......|      [6]: "1970-10-25T05:00:00Z" (25678800) transition_time 0x1f9-0x200.7 (8)
0x200|d0                                             |.               |
0x200|   00 00 00 00 01 fa 7f 48                     | .......H       |      [7]: "1971-01-20T04:30:00Z" (33193800) transition_time 0x201-0x208.7 (8)
0x200|                           00 00 00 00 03 70 f0|         .....p.|      [8]: "1971-10-31T05:00:00Z" (57733200) transition_time 0x209-0x210.7 (8)
0x210|50                                             |P               |
0x210|   00 00 00 00 03 dd 04 48                     | .......H       |      [9]: "1972-01-21T04:30:00Z" (64816200) transition_time 0x211-0x218.7 (8)
0x210|                           00 00 00 00 05 50 d2|         .....P.|      [10]: "1972-10-29T05:00:01Z" (89182801) transition_time 0x219-0x220.7 (8)
0x220|51                                             |Q               |
0x220|   00 00 00 00 05 bf 89 4a                     | .......J       |      [11]: "1973-01-21T04:30:02Z" (96438602) transition_time 0x221-0x228.7 (8)
0x220|                           00 00 00 00 07 30 b4|         .....0.|      [12]: "1973-10-28T05:00:02Z" (120632402) transition_time 0x229-0x230.7 (8)
0x230|52                                             |R               |
0x230|   00 00 00 00 07 a0 bc cb                     | ........       |      [13]: "1974-01-21T04:30:03Z" (127974603) transition_time 0x231-0x238.7 (8)
0x230|                           00 00 00 00 09 10 96|         .......|      [14]: "1974-10-27T05:00:03Z" (152082003) transition_time 0x239-0x240.7 (8)
0x240|53                                             |S               |
0x240|   00 00 00 00 39 fb bc f6                     | ....9...       |      [15]: "2000-10-29T06:00:22Z" (972799222) transition_time 0x241-0x248.7 (8)
0x240|                           00 00 00 00 3a 29 e1|         ....:).|      [16]: "2000-12-03T06:00:22Z" (975823222) transition_time 0x249-0x250.7 (8)
0x250|76                                             |v               |
0x250|   00 00 00 00 64 9b 78 1b                     | ....d.x.       |      [17]: "2023-06-28T00:00:27Z" (1687910427) transition_time 0x251-0x258.7 (8)
     |                                               |                |    transition_types[0:18]: 0x259-0x26a.7 (18)
0x250|                           01                  |         .      |      [0]: 1 transition_type 0x259-0x259.7 (1)
0x250|                              03               |          .     |      [1]: 3 transition_type 0x25a-0x25a.7 (1)
0x250|                                 02            |           .    |      [2]: 2 transition_type 0x25b-0x25b.7 (1)
0x250|                                    03         |            .   |      [3]: 3 transition_type 0x25c-0x25c.7 (1)
0x250|                                       04      |             .  |      [4]: 4 transition_type 0x25d-0x25d.7 (1)
0x250|                                          03   |              . |      [5]: 3 transition_type 0x25e-0x25e.7 (1)
0x250|                                             04|               .|      [6]: 4 transition_type 0x25f-0x25f.7 (1)
0x260|03                                             |.               |      [7]: 3 transition_type 0x260-0x260.7 (1)
0x260|   04                                          | .              |      [8]: 4 transition_type 0x261-0x261.7 (1)
0x260|      03                                       |  .             |      [9]: 3 transition_type 0x262-0x262.7 (1)
0x260|         04                                    |   .            |      [10]: 4 transition_type 0x263-0x263.7 (1)
0x260|            03                                 |    .           |      [11]: 3 transition_type 0x264-0x264.7 (1)
0x260|               04                              |     .          |      [12]: 4 transition_type 0x265-0x265.7 (1)
0x260|                  03                           |      .         |      [13]: 3 transition_type 0x266-0x266.7 (1)
0x260|                     05                        |       .        |      [14]: 5 transition_type 0x267-0x267.7 (1)
0x260|                        03                     |        .       |      [15]: 3 transition_type 0x268-0x268.7 (1)
0x260|                           05                  |         .      |      [16]: 5 transition_type 0x269-0x269.7 (1)
0x260|                              05               |          .     |      [17]: 5 transition_type 0x26a-0x26a.7 (1)
     |                                               |                |    local_time_type_records[0:6]: 0x26b-0x28e.7 (36)
     |                                               |                |      [0]{}: local_time_type 0x26b-0x270.7 (6)
0x260|                                 ff ff be 78   |           ...x |        utoff: -16776 (valid) 0x26b-0x26e.7 (4)
0x260|                                             00|               .|        dst: 0 (valid) 0x26f-0x26f.7 (1)
0x270|00                                             |.               |        idx: 0 (valid) 0x270-0x270.7 (1)
     |                                               |                |      [1]{}: local_time_type 0x271-0x276.7 (6)
0x270|   ff ff be 60                                 | ...`           |        utoff: -16800 (valid) 0x271-0x274.7 (4)
0x270|               00                              |     .          |        dst: 0 (valid) 0x275-0x275.7 (1)
0x270|                  04                           |      .         |        idx: 4 (valid) 0x276-0x276.7 (1)
     |                                               |                |      [2]{}: local_time_type 0x277-0x27c.7 (6)
0x270|                     ff ff c7 c0               |       ....     |        utoff: -14400 (valid) 0x277-0x27a.7 (4)
0x270|                                 01            |           .    |        dst: 1 (valid) 0x27b-0x27b.7 (1)
0x270|                                    09         |            .   |        idx: 9 (valid) 0x27c-0x27c.7 (1)
     |                                               |                |      [3]{}: local_time_type 0x27d-0x282.7 (6)
0x270|                                       ff ff b9|             ...|        utoff: -18000 (valid) 0x27d-0x280.7 (4)
0x280|b0                                             |.               |
0x280|   00                                          | .              |        dst: 0 (valid) 0x281-0x281.7 (1)
0x280|      0d                                       |  .             |        idx: 13 (valid) 0x282-0x282.7 (1)
     |                                               |                |      [4]{}: local_time_type 0x283-0x288.7 (6)
0x280|         ff ff c0 b8                           |   ....         |        utoff: -16200 (valid) 0x283-0x286.7 (4)
0x280|                     01                        |       .        |        dst: 1 (valid) 0x287-0x287.7 (1)
0x280|                        11                     |        .       |        idx: 17 (valid) 0x288-0x288.7 (1)
     |                                               |                |      [5]{}: local_time_type 0x289-0x28e.7 (6)
0x280|                           ff ff c7 c0         |         ....   |        utoff: -14400 (valid) 0x289-0x28c.7 (4)
0x280|                                       00      |             .  |        dst: 0 (valid) 0x28d-0x28d.7 (1)
0x280|                                          17   |              . |        idx: 23 (valid) 0x28e-0x28e.7 (1)
     |                                               |                |    time_zone_designations[0:6]: 0x28f-0x2a9.7 (27)
0x280|                                             4c|               L|      [0]: "LMT" time_zone_designation 0x28f-0x292.7 (4)
0x290|4d 54 00                                       |MT.             |
0x290|         53 44 4d 54 00                        |   SDMT.        |      [1]: "SDMT" time_zone_designation 0x293-0x297.7 (5)
0x290|                        45 44 54 00            |        EDT.    |      [2]: "EDT" time_zone_designation 0x298-0x29b.7 (4)
0x290|                                    45 53 54 00|            EST.|      [3]: "EST" time_zone_designation 0x29c-0x29f.7 (4)
0x2a0|2d 30 34 33 30 00                              |-0430.          |      [4]: "-0430" time_zone_designation 0x2a0-0x2a5.7 (6)
0x2a0|                  41 53 54 00                  |      AST.      |      [5]: "AST" time_zone_designation 0x2a6-0x2a9.7 (4)
     |                                               |                |    leap_second_records[0:27]: 0x2aa-0x3ed.7 (324)
     |                                               |                |      [0]{}: leap_second_record 0x2aa-0x2b5.7 (12)
0x2a0|                              00 00 00 00 04 b2|          ......|        occur: "1972-07-01T00:00:00Z" (78796800) 0x2aa-0x2b1.7 (8)
0x2b0|58 00                                          |X.              |
0x2b0|      00 00 00 01                              |  ....          |        corr: 1 0x2b2-0x2b5.7 (4)
     |                                               |                |      [1]{}: leap_second_record 0x2b6-0x2c1.7 (12)
0x2b0|                  00 00 00 00 05 a4 ec 01      |      ........  |        occur: "1973-01-01T00:00:01Z" (94694401) 0x2b6-0x2bd.7 (8)
0x2b0|                                          00 00|              ..|        corr: 2 0x2be-0x2c1.7 (4)
0x2c0|00 02                                          |..              |
     |                                               |                |      [2]{}: leap_second_record 0x2c2-0x2cd.7 (12)
0x2c0|      00 00 00 00 07 86 1f 82                  |  ........      |        occur: "1974-01-01T00:00:02Z" (126230402) 0x2c2-0x2c9.7 (8)
0x2c0|                              00 00 00 03      |          ....  |        corr: 3 0x2ca-0x2cd.7 (4)
     |                                               |                |      [3]{}: leap_second_record 0x2ce-0x2d9.7 (12)
0x2c0|                                          00 00|              ..|        occur: "1975-01-01T00:00:03Z" (157766403) 0x2ce-0x2d5.7 (8)
0x2d0|00 00 09 67 53 03                              |...gS.          |
0x2d0|                  00 00 00 04                  |      ....      |        corr: 4 0x2d6-0x2d9.7 (4)
     |                                               |                |      [4]{}: leap_second_record 0x2da-0x2e5.7 (12)
0x2d0|                              00 00 00 00 0b 48|          .....H|        occur: "1976-01-01T00:00:04Z" (189302404) 0x2da-0x2e1.7 (8)
0x2e0|86 84                                          |..              |
0x2e0|      00 00 00 05                              |  ....          |        corr: 5 0x2e2-0x2e5.7 (4)
     |                                               |                |      [5]{}: leap_second_record 0x2e6-0x2f1.7 (12)
0x2e0|                  00 00 00 00 0d 2b 0b 85      |      .....+..  |        occur: "1977-01-01T00:00:05Z" (220924805) 0x2e6-0x2ed.7 (8)
0x2e0|                                          00 00|              ..|        corr: 6 0x2ee-0x2f1.7 (4)
0x2f0|00 06                                          |..              |
     |                                               |                |      [6]{}: leap_second_record 0x2f2-0x2fd.7 (12)
0x2f0|      00 00 00 00 0f 0c 3f 06                  |  ......?.      |        occur: "1978-01-01T00:00:06Z" (252460806) 0x2f2-0x2f9.7 (8)
0x2f0|                              00 00 00 07      |          ....  |        corr: 7 0x2fa-0x2fd.7 (4)
     |                                               |                |      [7]{}: leap_second_record 0x2fe-0x309.7 (12)
0x2f0|                                          00 00|              ..|        occur: "1979-01-01T00:00:07Z" (283996807) 0x2fe-0x305.7 (8)
0x300|00 00 10 ed 72 87                              |....r.          |
0x300|                  00 00 00 08                  |      ....      |        corr: 8 0x306-0x309.7 (4)
     |                                               |                |      [8]{}: leap_second_record 0x30a-0x315.7 (12)
0x300|                              00 00 00 00 12 ce|          ......|        occur: "1980-01-01T00:00:08Z" (315532808) 0x30a-0x311.7 (8)
0x310|a6 08                                          |..              |
0x310|      00 00 00 09                              |  ....          |        corr: 9 0x312-0x315.7 (4)
     |                                               |                |      [9]{}: leap_second_record 0x316-0x321.7 (12)
0x310|                  00 00 00 00 15 9f ca 89      |      ........  |        occur: "1981-07-01T00:00:09Z" (362793609) 0x316-0x31d.7 (8)
0x310|                                          00 00|              ..|        corr: 10 0x31e-0x321.7 (4)
0x320|00 0a                                          |..              |
     |                                               |                |      [10]{}: leap_second_record 0x322-0x32d.7 (12)
0x320|      00 00 00 00 17 80 fe 0a                  |  ........      |        occur: "1982-07-01T00:00:10Z" (394329610) 0x322-0x329.7 (8)
0x320|                              00 00 00 0b      |          ....  |        corr: 11 0x32a-0x32d.7 (4)
     |                                               |                |      [11]{}: leap_second_record 0x32e-0x339.7 (12)
0x320|                                          00 00|              ..|        occur: "1983-07-01T00:00:11Z" (425865611) 0x32e-0x335.7 (8)
0x330|00 00 19 62 31 8b                              |...b1.          |
0x330|                  00 00 00 0c                  |      ....      |        corr: 12 0x336-0x339.7 (4)
     |                                               |                |      [12]{}: leap_second_record 0x33a-0x345.7 (12)
0x330|                              00 00 00 00 1d 25|          .....%|        occur: "1985-07-01T00:00:12Z" (489024012) 0x33a-0x341.7 (8)
0x340|ea 0c                                          |..              |
0x340|      00 00 00 0d                              |  ....          |        corr: 13 0x342-0x345.7 (4)
     |                                               |                |      [13]{}: leap_second_record 0x346-0x351.7 (12)
0x340|                  00 00 00 00 21 da e5 0d      |      ....!...  |        occur: "1988-01-01T00:00:13Z" (567993613) 0x346-0x34d.7 (8)
0x340|                                          00 00|              ..|        corr: 14 0x34e-0x351.7 (4)
0x350|00 0e                                          |..              |
     |                                               |                |      [14]{}: leap_second_record 0x352-0x35d.7 (12)
0x350|      00 00 00 00 25 9e 9d 8e                  |  ....%...      |        occur: "1990-01-01T00:00:14Z" (631152014) 0x352-0x359.7 (8)
0x350|                              00 00 00 0f      |          ....  |        corr: 15 0x35a-0x35d.7 (4)
     |                                               |                |      [15]{}: leap_second_record 0x35e-0x369.7 (12)
0x350|                                          00 00|              ..|        occur: "1991-01-01T00:00:15Z" (662688015) 0x35e-0x365.7 (8)
0x360|00 00 27 7f d1 0f                              |..'...          |
0x360|                  00 00 00 10                  |      ....      |        corr: 16 0x366-0x369.7 (4)
     |                                               |                |      [16]{}: leap_second_record 0x36a-0x375.7 (12)
0x360|                              00 00 00 00 2a 50|          ....*P|        occur: "1992-07-01T00:00:16Z" (709948816) 0x36a-0x371.7 (8)
0x370|f5 90                                          |..              |
0x370|      00 00 00 11                              |  ....          |        corr: 17 0x372-0x375.7 (4)
     |                                               |                |      [17]{}: leap_second_record 0x376-0x381.7 (12)
0x370|                  00 00 00 00 2c 32 29 11      |      ....,2).  |        occur: "1993-07-01T00:00:17Z" (741484817) 0x376-0x37d.7 (8)
0x370|                                          00 00|              ..|        corr: 18 0x37e-0x381.7 (4)
0x380|00 12                                          |..              |
     |                                               |                |      [18]{}: leap_second_record 0x382-0x38d.7 (12)
0x380|      00 00 00 00 2e 13 5c 92                  |  ......\.      |        occur: "1994-07-01T00:00:18Z" (773020818) 0x382-0x389.7 (8)
0x380|                              00 00 00 13      |          ....  |        corr: 19 0x38a-0x38d.7 (4)
     |                                               |                |      [19]{}: leap_second_record 0x38e-0x399.7 (12)
0x380|                                          00 00|              ..|        occur: "1996-01-01T00:00:19Z" (820454419) 0x38e-0x395.7 (8)
0x390|00 00 30 e7 24 13                              |..0.$.          |
0x390|                  00 00 00 14                  |      ....      |        corr: 20 0x396-0x399.7 (4)
     |                                               |                |      [20]{}: leap_second_record 0x39a-0x3a5.7 (12)
0x390|                              00 00 00 00 33 b8|          ....3.|        occur: "1997-07-01T00:00:20Z" (867715220) 0x39a-0x3a1.7 (8)
0x3a0|48 94                                          |H.              |
0x3a0|      00 00 00 15                              |  ....          |        corr: 21 0x3a2-0x3a5.7 (4)
     |                                               |                |      [21]{}: leap_second_record 0x3a6-0x3b1.7 (12)
0x3a0|                  00 00 00 00 36 8c 10 15      |      ....6...  |        occur: "1999-01-01T00:00:21Z" (915148821) 0x3a6-0x3ad.7 (8)
0x3a0|                                          00 00|              ..|        corr: 22 0x3ae-0x3b1.7 (4)
0x3b0|00 16                                          |..              |
     |                                               |                |      [22]{}: leap_second_record 0x3b2-0x3bd.7 (12)
0x3b0|      00 00 00 00 43 b7 1b 96                  |  ....C...      |        occur: "2006-01-01T00:00:22Z" (1136073622) 0x3b2-0x3b9.7 (8)
0x3b0|                              00 00 00 17      |          ....  |        corr: 23 0x3ba-0x3bd.7 (4)
     |                                               |                |      [23]{}: leap_second_record 0x3be-0x3c9.7 (12)
0x3b0|                                          00 00|              ..|        occur: "2009-01-01T00:00:23Z" (1230768023) 0x3be-0x3c5.7 (8)
0x3c0|00 00 49 5c 07 97                              |..I\..          |
0x3c0|                  00 00 00 18                  |      ....      |        corr: 24 0x3c6-0x3c9.7 (4)
     |                                               |                |      [24]{}: leap_second_record 0x3ca-0x3d5.7 (12)
0x3c0|                              00 00 00 00 4f ef|          ....O.|        occur: "2012-07-01T00:00:24Z" (1341100824) 0x3ca-0x3d1.7 (8)
0x3d0|93 18                                          |..              |
0x3d0|      00 00 00 19                              |  ....          |        corr: 25 0x3d2-0x3d5.7 (4)
     |                                               |                |      [25]{}: leap_second_record 0x3d6-0x3e1.7 (12)
0x3d0|                  00 00 00 00 55 93 2d 99      |      ....U.-.  |        occur: "2015-07-01T00:00:25Z" (1435708825) 0x3d6-0x3dd.7 (8)
0x3d0|                                          00 00|              ..|        corr: 26 0x3de-0x3e1.7 (4)
0x3e0|00 1a                                          |..              |
     |                                               |                |      [26]{}: leap_second_record 0x3e2-0x3ed.7 (12)
0x3e0|      00 00 00 00 58 68 46 9a                  |  ....XhF.      |        occur: "2017-01-01T00:00:26Z" (1483228826) 0x3e2-0x3e9.7 (8)
0x3e0|                              00 00 00 1b      |          ....  |        corr: 27 0x3ea-0x3ed.7 (4)
     |                                               |                |    standard_wall_indicators[0:0]: 0x3ee-NA (0)
     |                                               |                |    ut_local_indicators[0:0]: 0x3ee-NA (0)
     |                                               |                |  footer{}: 0x3ee-0x3ef.7 (2)
0x3e0|                                          0a   |              . |    nl1: 10 (valid) 0x3ee-0x3ee.7 (1)
     |                                               |                |    tz_string: "" 0x3ef-NA (0)
0x3e0|                                             0a|               .|    nl2: 10 (valid) 0x3ef-0x3ef.7 (1)
