$ fq -d tzif dv Santiago
     |00 01 02 03 04 05 06 07 08 09 0a 0b 0c 0d 0e 0f|0123456789abcdef|.{}: Santiago (tzif) 0x0-0xa47.7 (2632)
     |                                               |                |  v1header{}: 0x0-0x2b.7 (44)
0x000|54 5a 69 66                                    |TZif            |    magic: 0x545a6966 (valid) 0x0-0x3.7 (4)
0x000|            32                                 |    2           |    ver: "2" (0x32) (valid) 0x4-0x4.7 (1)
0x000|               00 00 00 00 00 00 00 00 00 00 00|     ...........|    reserved: raw bits 0x5-0x13.7 (15)
0x010|00 00 00 00                                    |....            |
0x010|            00 00 00 08                        |    ....        |    isutcnt: 8 0x14-0x17.7 (4)
0x010|                        00 00 00 08            |        ....    |    isstdcnt: 8 0x18-0x1b.7 (4)
0x010|                                    00 00 00 1b|            ....|    leapcnt: 27 0x1c-0x1f.7 (4)
0x020|00 00 00 83                                    |....            |    timecnt: 131 0x20-0x23.7 (4)
0x020|            00 00 00 08                        |    ....        |    typecnt: 8 0x24-0x27.7 (4)
0x020|                        00 00 00 14            |        ....    |    charcnt: 20 0x28-0x2b.7 (4)
     |                                               |                |  v1datablock{}: 0x2c-0x3e6.7 (955)
     |                                               |                |    transition_times[0:131]: 0x2c-0x237.7 (524)
0x020|                                    80 00 00 00|            ....|      [0]: "1901-12-13T20:45:52Z" (-2147483648) transition_time 0x2c-0x2f.7 (4)
0x030|8f 30 47 45                                    |.0GE            |      [1]: "1910-01-10T04:42:45Z" (-1892661435) transition_time 0x30-0x33.7 (4)
0x030|            9b 5c e5 50                        |    .\.P        |      [2]: "1916-07-01T05:00:00Z" (-1688410800) transition_time 0x34-0x37.7 (4)
0x030|                        9f 7c e2 c5            |        .|..    |      [3]: "1918-09-10T04:42:45Z" (-1619205435) transition_time 0x38-0x3b.7 (4)
0x030|                                    a1 00 71 c0|            ..q.|      [4]: "1919-07-01T04:00:00Z" (-1593806400) transition_time 0x3c-0x3f.7 (4)
0x040|b0 5e 77 c5                                    |.^w.            |      [5]: "1927-09-01T04:42:45Z" (-1335986235) transition_time 0x40-0x43.7 (4)
0x040|            b1 77 3d 40                        |    .w=@        |      [6]: "1928-04-01T04:00:00Z" (-1317585600) transition_time 0x44-0x47.7 (4)
0x040|                        b2 41 00 d0            |        .A..    |      [7]: "1928-09-01T05:00:00Z" (-1304362800) transition_time 0x48-0x4b.7 (4)
0x040|                                    b3 58 70 c0|            .Xp.|      [8]: "1929-04-01T04:00:00Z" (-1286049600) transition_time 0x4c-0x4f.7 (4)
0x050|b4 22 34 50                                    |."4P            |      [9]: "1929-09-01T05:00:00Z" (-1272826800) transition_time 0x50-0x53.7 (4)
0x050|            b5 39 a4 40                        |    .9.@        |      [10]: "1930-04-01T04:00:00Z" (-1254513600) transition_time 0x54-0x57.7 (4)
0x050|                        b6 03 67 d0            |        ..g.    |      [11]: "1930-09-01T05:00:00Z" (-1241290800) transition_time 0x58-0x5b.7 (4)
0x050|                                    b7 1a d7 c0|            ....|      [12]: "1931-04-01T04:00:00Z" (-1222977600) transition_time 0x5c-0x5f.7 (4)
0x060|b7 e4 9b 50                                    |...P            |      [13]: "1931-09-01T05:00:00Z" (-1209754800) transition_time 0x60-0x63.7 (4)
0x060|            b8 fd 5c c0                        |    ..\.        |      [14]: "1932-04-01T04:00:00Z" (-1191355200) transition_time 0x64-0x67.7 (4)
0x060|                        b9 c7 20 50            |        .. P    |      [15]: "1932-09-01T05:00:00Z" (-1178132400) transition_time 0x68-0x6b.7 (4)
0x060|                                    cc 1c 6e 40|            ..n@|      [16]: "1942-06-01T04:00:00Z" (-870552000) transition_time 0x6c-0x6f.7 (4)
0x070|cc 6c e7 d0                                    |.l..            |      [17]: "1942-08-01T05:00:00Z" (-865278000) transition_time 0x70-0x73.7 (4)
0x070|            d3 dc 8f c0                        |    ....        |      [18]: "1946-07-15T04:00:00Z" (-740520000) transition_time 0x74-0x77.7 (4)
0x070|                        d4 17 d5 30            |        ...0    |      [19]: "1946-08-29T03:00:00Z" (-736635600) transition_time 0x78-0x7b.7 (4)
0x070|                                    d5 33 55 c0|            .3U.|      [20]: "1947-04-01T04:00:00Z" (-718056000) transition_time 0x7c-0x7f.7 (4)
0x080|d5 76 92 40                                    |.v.@            |      [21]: "1947-05-22T04:00:00Z" (-713649600) transition_time 0x80-0x83.7 (4)
0x080|            fd d1 3c 40                        |    ..<@        |      [22]: "1968-11-03T04:00:00Z" (-36619200) transition_time 0x84-0x87.7 (4)
0x080|                        fe 92 fa b0            |        ....    |      [23]: "1969-03-30T03:00:00Z" (-23922000) transition_time 0x88-0x8b.7 (4)
0x080|                                    ff cc cd c0|            ....|      [24]: "1969-11-23T04:00:00Z" (-3355200) transition_time 0x8c-0x8f.7 (4)
0x090|00 72 dc b0                                    |.r..            |      [25]: "1970-03-29T03:00:00Z" (7527600) transition_time 0x90-0x93.7 (4)
0x090|            01 75 50 c0                        |    .uP.        |      [26]: "1970-10-11T04:00:00Z" (24465600) transition_time 0x94-0x97.7 (4)
0x090|                        02 40 49 b0            |        .@I.    |      [27]: "1971-03-14T03:00:00Z" (37767600) transition_time 0x98-0x9b.7 (4)
0x090|                                    03 55 32 c0|            .U2.|      [28]: "1971-10-10T04:00:00Z" (55915200) transition_time 0x9c-0x9f.7 (4)
0x0a0|04 20 2b b0                                    |. +.            |      [29]: "1972-03-12T03:00:00Z" (69217200) transition_time 0xa0-0xa3.7 (4)
0x0a0|            05 3e 4f 41                        |    .>OA        |      [30]: "1972-10-15T04:00:01Z" (87969601) transition_time 0xa4-0xa7.7 (4)
0x0a0|                        06 00 0d b2            |        ....    |      [31]: "1973-03-11T03:00:02Z" (100666802) transition_time 0xa8-0xab.7 (4)
0x0a0|                                    07 0b bc 42|            ...B|      [32]: "1973-09-30T04:00:02Z" (118209602) transition_time 0xac-0xaf.7 (4)
0x0b0|07 df ef b3                                    |....            |      [33]: "1974-03-10T03:00:03Z" (132116403) transition_time 0xb0-0xb3.7 (4)
0x0b0|            08 fe 13 43                        |    ...C        |      [34]: "1974-10-13T04:00:03Z" (150868803) transition_time 0xb4-0xb7.7 (4)
0x0b0|                        09 bf d1 b4            |        ....    |      [35]: "1975-03-09T03:00:04Z" (163566004) transition_time 0xb8-0xbb.7 (4)
0x0b0|                                    0a dd f5 44|            ...D|      [36]: "1975-10-12T04:00:04Z" (182318404) transition_time 0xbc-0xbf.7 (4)
0x0c0|0b a8 ee 35                                    |...5            |      [37]: "1976-03-14T03:00:05Z" (195620405) transition_time 0xc0-0xc3.7 (4)
0x0c0|            0c bd d7 45                        |    ...E        |      [38]: "1976-10-10T04:00:05Z" (213768005) transition_time 0xc4-0xc7.7 (4)
0x0c0|                        0d 88 d0 36            |        ...6    |      [39]: "1977-03-13T03:00:06Z" (227070006) transition_time 0xc8-0xcb.7 (4)
0x0c0|                                    0e 9d b9 46|            ...F|      [40]: "1977-10-09T04:00:06Z" (245217606) transition_time 0xcc-0xcf.7 (4)
0x0d0|0f 68 b2 37                                    |.h.7            |      [41]: "1978-03-12T03:00:07Z" (258519607) transition_time 0xd0-0xd3.7 (4)
0x0d0|            10 86 d5 c7                        |    ....        |      [42]: "1978-10-15T04:00:07Z" (277272007) transition_time 0xd4-0xd7.7 (4)
0x0d0|                        11 48 94 38            |        .H.8    |      [43]: "1979-03-11T03:00:08Z" (289969208) transition_time 0xd8-0xdb.7 (4)
0x0d0|                                    12 66 b7 c8|            .f..|      [44]: "1979-10-14T04:00:08Z" (308721608) transition_time 0xdc-0xdf.7 (4)
0x0e0|13 28 76 39                                    |.(v9            |      [45]: "1980-03-09T03:00:09Z" (321418809) transition_time 0xe0-0xe3.7 (4)
0x0e0|            14 46 99 c9                        |    .F..        |      [46]: "1980-10-12T04:00:09Z" (340171209) transition_time 0xe4-0xe7.7 (4)
0x0e0|                        15 11 92 b9            |        ....    |      [47]: "1981-03-15T03:00:09Z" (353473209) transition_time 0xe8-0xeb.7 (4)
0x0e0|                                    16 26 7b ca|            .&{.|      [48]: "1981-10-11T04:00:10Z" (371620810) transition_time 0xec-0xef.7 (4)
0x0f0|16 f1 74 ba                                    |..t.            |      [49]: "1982-03-14T03:00:10Z" (384922810) transition_time 0xf0-0xf3.7 (4)
0x0f0|            18 06 5d cb                        |    ..].        |      [50]: "1982-10-10T04:00:11Z" (403070411) transition_time 0xf4-0xf7.7 (4)
0x0f0|                        18 d1 56 bb            |        ..V.    |      [51]: "1983-03-13T03:00:11Z" (416372411) transition_time 0xf8-0xfb.7 (4)
0x0f0|                                    19 e6 3f cc|            ..?.|      [52]: "1983-10-09T04:00:12Z" (434520012) transition_time 0xfc-0xff.7 (4)
0x100|1a b1 38 bc                                    |..8.            |      [53]: "1984-03-11T03:00:12Z" (447822012) transition_time 0x100-0x103.7 (4)
0x100|            1b cf 5c 4c                        |    ..\L        |      [54]: "1984-10-14T04:00:12Z" (466574412) transition_time 0x104-0x107.7 (4)
0x100|                        1c 91 1a bc            |        ....    |      [55]: "1985-03-10T03:00:12Z" (479271612) transition_time 0x108-0x10b.7 (4)
0x100|                                    1d af 3e 4d|            ..>M|      [56]: "1985-10-13T04:00:13Z" (498024013) transition_time 0x10c-0x10f.7 (4)
0x110|1e 70 fc bd                                    |.p..            |      [57]: "1986-03-09T03:00:13Z" (510721213) transition_time 0x110-0x113.7 (4)
0x110|            1f 8f 20 4d                        |    .. M        |      [58]: "1986-10-12T04:00:13Z" (529473613) transition_time 0x114-0x117.7 (4)
0x110|                        20 7f 03 3d            |         ..=    |      [59]: "1987-04-12T03:00:13Z" (545194813) transition_time 0x118-0x11b.7 (4)
0x110|                                    21 6f 02 4d|            !o.M|      [60]: "1987-10-11T04:00:13Z" (560923213) transition_time 0x11c-0x11f.7 (4)
0x120|22 39 fb 3e                                    |"9.>            |      [61]: "1988-03-13T03:00:14Z" (574225214) transition_time 0x120-0x123.7 (4)
0x120|            23 4e e4 4e                        |    #N.N        |      [62]: "1988-10-09T04:00:14Z" (592372814) transition_time 0x124-0x127.7 (4)
0x120|                        24 19 dd 3e            |        $..>    |      [63]: "1989-03-12T03:00:14Z" (605674814) transition_time 0x128-0x12b.7 (4)
0x120|                                    25 38 00 ce|            %8..|      [64]: "1989-10-15T04:00:14Z" (624427214) transition_time 0x12c-0x12f.7 (4)
0x130|25 f9 bf 3f                                    |%..?            |      [65]: "1990-03-11T03:00:15Z" (637124415) transition_time 0x130-0x133.7 (4)
0x130|            26 f2 f8 cf                        |    &...        |      [66]: "1990-09-16T04:00:15Z" (653457615) transition_time 0x134-0x137.7 (4)
0x130|                        27 d9 a1 40            |        '..@    |      [67]: "1991-03-10T03:00:16Z" (668574016) transition_time 0x138-0x13b.7 (4)
0x130|                                    28 f7 c4 d0|            (...|      [68]: "1991-10-13T04:00:16Z" (687326416) transition_time 0x13c-0x13f.7 (4)
0x140|29 c2 bd c0                                    |)...            |      [69]: "1992-03-15T03:00:16Z" (700628416) transition_time 0x140-0x143.7 (4)
0x140|            2a d7 a6 d1                        |    *...        |      [70]: "1992-10-11T04:00:17Z" (718776017) transition_time 0x144-0x147.7 (4)
0x140|                        2b a2 9f c1            |        +...    |      [71]: "1993-03-14T03:00:17Z" (732078017) transition_time 0x148-0x14b.7 (4)
0x140|                                    2c b7 88 d2|            ,...|      [72]: "1993-10-10T04:00:18Z" (750225618) transition_time 0x14c-0x14f.7 (4)
0x150|2d 82 81 c2                                    |-...            |      [73]: "1994-03-13T03:00:18Z" (763527618) transition_time 0x150-0x153.7 (4)
0x150|            2e 97 6a d3                        |    ..j.        |      [74]: "1994-10-09T04:00:19Z" (781675219) transition_time 0x154-0x157.7 (4)
0x150|                        2f 62 63 c3            |        /bc.    |      [75]: "1995-03-12T03:00:19Z" (794977219) transition_time 0x158-0x15b.7 (4)
0x150|                                    30 80 87 53|            0..S|      [76]: "1995-10-15T04:00:19Z" (813729619) transition_time 0x15c-0x15f.7 (4)
0x160|31 42 45 c4                                    |1BE.            |      [77]: "1996-03-10T03:00:20Z" (826426820) transition_time 0x160-0x163.7 (4)
0x160|            32 60 69 54                        |    2`iT        |      [78]: "1996-10-13T04:00:20Z" (845179220) transition_time 0x164-0x167.7 (4)
0x160|                        33 3d d7 44            |        3=.D    |      [79]: "1997-03-30T03:00:20Z" (859690820) transition_time 0x168-0x16b.7 (4)
0x160|                                    34 40 4b 55|            4@KU|      [80]: "1997-10-12T04:00:21Z" (876628821) transition_time 0x16c-0x16f.7 (4)
0x170|35 0b 44 45                                    |5.DE            |      [81]: "1998-03-15T03:00:21Z" (889930821) transition_time 0x170-0x173.7 (4)
0x170|            36 0d b8 55                        |    6..U        |      [82]: "1998-09-27T04:00:21Z" (906868821) transition_time 0x174-0x177.7 (4)
0x170|                        37 06 d5 c6            |        7...    |      [83]: "1999-04-04T03:00:22Z" (923194822) transition_time 0x178-0x17b.7 (4)
0x170|                                    38 00 0f 56|            8..V|      [84]: "1999-10-10T04:00:22Z" (939528022) transition_time 0x17c-0x17f.7 (4)
0x180|38 cb 08 46                                    |8..F            |      [85]: "2000-03-12T03:00:22Z" (952830022) transition_time 0x180-0x183.7 (4)
0x180|            39 e9 2b d6                        |    9.+.        |      [86]: "2000-10-15T04:00:22Z" (971582422) transition_time 0x184-0x187.7 (4)
0x180|                        3a aa ea 46            |        :..F    |      [87]: "2001-03-11T03:00:22Z" (984279622) transition_time 0x188-0x18b.7 (4)
0x180|                                    3b c9 0d d6|            ;...|      [88]: "2001-10-14T04:00:22Z" (1003032022) transition_time 0x18c-0x18f.7 (4)
0x190|3c 8a cc 46                                    |<..F            |      [89]: "2002-03-10T03:00:22Z" (1015729222) transition_time 0x190-0x193.7 (4)
0x190|            3d a8 ef d6                        |    =...        |      [90]: "2002-10-13T04:00:22Z" (1034481622) transition_time 0x194-0x197.7 (4)
0x190|                        3e 6a ae 46            |        >j.F    |      [91]: "2003-03-09T03:00:22Z" (1047178822) transition_time 0x198-0x19b.7 (4)
0x190|                                    3f 88 d1 d6|            ?...|      [92]: "2003-10-12T04:00:22Z" (1065931222) transition_time 0x19c-0x19f.7 (4)
0x1a0|40 53 ca c6                                    |@S..            |      [93]: "2004-03-14T03:00:22Z" (1079233222) transition_time 0x1a0-0x1a3.7 (4)
0x1a0|            41 68 b3 d6                        |    Ah..        |      [94]: "2004-10-10T04:00:22Z" (1097380822) transition_time 0x1a4-0x1a7.7 (4)
0x1a0|                        42 33 ac c6            |        B3..    |      [95]: "2005-03-13T03:00:22Z" (1110682822) transition_time 0x1a8-0x1ab.7 (4)
0x1a0|                                    43 48 95 d6|            CH..|      [96]: "2005-10-09T04:00:22Z" (1128830422) transition_time 0x1ac-0x1af.7 (4)
0x1b0|44 13 8e c7                                    |D...            |      [97]: "2006-03-12T03:00:23Z" (1142132423) transition_time 0x1b0-0x1b3.7 (4)
0x1b0|            45 31 b2 57                        |    E1.W        |      [98]: "2006-10-15T04:00:23Z" (1160884823) transition_time 0x1b4-0x1b7.7 (4)
0x1b0|                        45 f3 70 c7            |        E.p.    |      [99]: "2007-03-11T03:00:23Z" (1173582023) transition_time 0x1b8-0x1bb.7 (4)
0x1b0|                                    47 11 94 57|            G..W|      [100]: "2007-10-14T04:00:23Z" (1192334423) transition_time 0x1bc-0x1bf.7 (4)
0x1c0|47 ef 02 47                                    |G..G            |      [101]: "2008-03-30T03:00:23Z" (1206846023) transition_time 0x1c0-0x1c3.7 (4)
0x1c0|            48 f1 76 57                        |    H.vW        |      [102]: "2008-10-12T04:00:23Z" (1223784023) transition_time 0x1c4-0x1c7.7 (4)
0x1c0|                        49 bc 6f 48            |        I.oH    |      [103]: "2009-03-15T03:00:24Z" (1237086024) transition_time 0x1c8-0x1cb.7 (4)
0x1c0|                                    4a d1 58 58|            J.XX|      [104]: "2009-10-11T04:00:24Z" (1255233624) transition_time 0x1cc-0x1cf.7 (4)
0x1d0|4b b8 00 c8                                    |K...            |      [105]: "2010-04-04T03:00:24Z" (1270350024) transition_time 0x1d0-0x1d3.7 (4)
0x1d0|            4c b1 3a 58                        |    L.:X        |      [106]: "2010-10-10T04:00:24Z" (1286683224) transition_time 0x1d4-0x1d7.7 (4)
0x1d0|                        4d c6 07 48            |        M..H    |      [107]: "2011-05-08T03:00:24Z" (1304823624) transition_time 0x1d8-0x1db.7 (4)
0x1d0|                                    4e 50 82 d8|            NP..|      [108]: "2011-08-21T04:00:24Z" (1313899224) transition_time 0x1dc-0x1df.7 (4)
0x1e0|4f 9c ae c8                                    |O...            |      [109]: "2012-04-29T03:00:24Z" (1335668424) transition_time 0x1e0-0x1e3.7 (4)
0x1e0|            50 42 d9 d9                        |    PB..        |      [110]: "2012-09-02T04:00:25Z" (1346558425) transition_time 0x1e4-0x1e7.7 (4)
0x1e0|                        51 7c 90 c9            |        Q|..    |      [111]: "2013-04-28T03:00:25Z" (1367118025) transition_time 0x1e8-0x1eb.7 (4)
0x1e0|                                    52 2b f6 59|            R+.Y|      [112]: "2013-09-08T04:00:25Z" (1378612825) transition_time 0x1ec-0x1ef.7 (4)
0x1f0|53 5c 72 c9                                    |S\r.            |      [113]: "2014-04-27T03:00:25Z" (1398567625) transition_time 0x1f0-0x1f3.7 (4)
0x1f0|            54 0b d8 59                        |    T..Y        |      [114]: "2014-09-07T04:00:25Z" (1410062425) transition_time 0x1f4-0x1f7.7 (4)
0x1f0|                        57 37 e6 4a            |        W7.J    |      [115]: "2016-05-15T03:00:26Z" (1463281226) transition_time 0x1f8-0x1fb.7 (4)
0x1f0|                                    57 af ec da|            W...|      [116]: "2016-08-14T04:00:26Z" (1471147226) transition_time 0x1fc-0x1ff.7 (4)
0x200|59 17 c8 4b                                    |Y..K            |      [117]: "2017-05-14T03:00:27Z" (1494730827) transition_time 0x200-0x203.7 (4)
0x200|            59 8f ce db                        |    Y...        |      [118]: "2017-08-13T04:00:27Z" (1502596827) transition_time 0x204-0x207.7 (4)
0x200|                        5a f7 aa 4b            |        Z..K    |      [119]: "2018-05-13T03:00:27Z" (1526180427) transition_time 0x208-0x20b.7 (4)
0x200|                                    5b 6f b0 db|            [o..|      [120]: "2018-08-12T04:00:27Z" (1534046427) transition_time 0x20c-0x20f.7 (4)
0x210|5c a9 67 cb                                    |\.g.            |      [121]: "2019-04-07T03:00:27Z" (1554606027) transition_time 0x210-0x213.7 (4)
0x210|            5d 74 7c db                        |    ]t|.        |      [122]: "2019-09-08T04:00:27Z" (1567915227) transition_time 0x214-0x217.7 (4)
0x210|                        5e 89 49 cb            |        ^.I.    |      [123]: "2020-04-05T03:00:27Z" (1586055627) transition_time 0x218-0x21b.7 (4)
0x210|                                    5f 54 5e db|            _T^.|      [124]: "2020-09-06T04:00:27Z" (1599364827) transition_time 0x21c-0x21f.7 (4)
0x220|60 69 2b cb                                    |`i+.            |      [125]: "2021-04-04T03:00:27Z" (1617505227) transition_time 0x220-0x223.7 (4)
0x220|            61 34 40 db                        |    a4@.        |      [126]: "2021-09-05T04:00:27Z" (1630814427) transition_time 0x224-0x227.7 (4)
0x220|                        62 49 0d cb            |        bI..    |      [127]: "2022-04-03T03:00:27Z" (1648954827) transition_time 0x228-0x22b.7 (4)
0x220|                                    63 1d 5d 5b|            c.][|      [128]: "2022-09-11T04:00:27Z" (1662868827) transition_time 0x22c-0x22f.7 (4)
0x230|64 28 ef cb                                    |d(..            |      [129]: "2023-04-02T03:00:27Z" (1680404427) transition_time 0x230-0x233.7 (4)
0x230|            64 9b 78 1b                        |    d.x.        |      [130]: "2023-06-28T00:00:27Z" (1687910427) transition_time 0x234-0x237.7 (4)
     |                                               |                |    transition_types[0:131]: 0x238-0x2ba.7 (131)
0x230|                        01                     |        .       |      [0]: 1 transition_type 0x238-0x238.7 (1)
0x230|                           02                  |         .      |      [1]: 2 transition_type 0x239-0x239.7 (1)
0x230|                              01               |          .     |      [2]: 1 transition_type 0x23a-0x23a.7 (1)
0x230|                                 03            |           .    |      [3]: 3 transition_type 0x23b-0x23b.7 (1)
0x230|                                    01         |            .   |      [4]: 1 transition_type 0x23c-0x23c.7 (1)
0x230|                                       04      |             .  |      [5]: 4 transition_type 0x23d-0x23d.7 (1)
0x230|                                          02   |              . |      [6]: 2 transition_type 0x23e-0x23e.7 (1)
0x230|                                             04|               .|      [7]: 4 transition_type 0x23f-0x23f.7 (1)
0x240|02                                             |.               |      [8]: 2 transition_type 0x240-0x240.7 (1)
0x240|   04                                          | .              |      [9]: 4 transition_type 0x241-0x241.7 (1)
0x240|      02                                       |  .             |      [10]: 2 transition_type 0x242-0x242.7 (1)
0x240|         04                                    |   .            |      [11]: 4 transition_type 0x243-0x243.7 (1)
0x240|            02                                 |    .           |      [12]: 2 transition_type 0x244-0x244.7 (1)
0x240|               04                              |     .          |      [13]: 4 transition_type 0x245-0x245.7 (1)
0x240|                  02                           |      .         |      [14]: 2 transition_type 0x246-0x246.7 (1)
0x240|                     03                        |       .        |      [15]: 3 transition_type 0x247-0x247.7 (1)
0x240|                        02                     |        .       |      [16]: 2 transition_type 0x248-0x248.7 (1)
0x240|                           03                  |         .      |      [17]: 3 transition_type 0x249-0x249.7 (1)
0x240|                              05               |          .     |      [18]: 5 transition_type 0x24a-0x24a.7 (1)
0x240|                                 04            |           .    |      [19]: 4 transition_type 0x24b-0x24b.7 (1)
0x240|                                    02         |            .   |      [20]: 2 transition_type 0x24c-0x24c.7 (1)
0x240|                                       03      |             .  |      [21]: 3 transition_type 0x24d-0x24d.7 (1)
0x240|                                          06   |              . |      [22]: 6 transition_type 0x24e-0x24e.7 (1)
0x240|                                             07|               .|      [23]: 7 transition_type 0x24f-0x24f.7 (1)
0x250|06                                             |.               |      [24]: 6 transition_type 0x250-0x250.7 (1)
0x250|   07                                          | .              |      [25]: 7 transition_type 0x251-0x251.7 (1)
0x250|      06                                       |  .             |      [26]: 6 transition_type 0x252-0x252.7 (1)
0x250|         07                                    |   .            |      [27]: 7 transition_type 0x253-0x253.7 (1)
0x250|            06                                 |    .           |      [28]: 6 transition_type 0x254-0x254.7 (1)
0x250|               07                              |     .          |      [29]: 7 transition_type 0x255-0x255.7 (1)
0x250|                  06                           |      .         |      [30]: 6 transition_type 0x256-0x256.7 (1)
0x250|                     07                        |       .        |      [31]: 7 transition_type 0x257-0x257.7 (1)
0x250|                        06                     |        .       |      [32]: 6 transition_type 0x258-0x258.7 (1)
0x250|                           07                  |         .      |      [33]: 7 transition_type 0x259-0x259.7 (1)
0x250|                              06               |          .     |      [34]: 6 transition_type 0x25a-0x25a.7 (1)
0x250|                                 07            |           .    |      [35]: 7 transition_type 0x25b-0x25b.7 (1)
0x250|                                    06         |            .   |      [36]: 6 transition_type 0x25c-0x25c.7 (1)
0x250|                                       07      |             .  |      [37]: 7 transition_type 0x25d-0x25d.7 (1)
0x250|                                          06   |              . |      [38]: 6 transition_type 0x25e-0x25e.7 (1)
0x250|                                             07|               .|      [39]: 7 transition_type 0x25f-0x25f.7 (1)
0x260|06                                             |.               |      [40]: 6 transition_type 0x260-0x260.7 (1)
0x260|   07                                          | .              |      [41]: 7 transition_type 0x261-0x261.7 (1)
0x260|      06                                       |  .             |      [42]: 6 transition_type 0x262-0x262.7 (1)
0x260|         07                                    |   .            |      [43]: 7 transition_type 0x263-0x263.7 (1)
0x260|            06                                 |    .           |      [44]: 6 transition_type 0x264-0x264.7 (1)
0x260|               07                              |     .          |      [45]: 7 transition_type 0x265-0x265.7 (1)
0x260|                  06                           |      .         |      [46]: 6 transition_type 0x266-0x266.7 (1)
0x260|                     07                        |       .        |      [47]: 7 transition_type 0x267-0x267.7 (1)
0x260|                        06                     |        .       |      [48]: 6 transition_type 0x268-0x268.7 (1)
0x260|                           07                  |         .      |      [49]: 7 transition_type 0x269-0x269.7 (1)
0x260|                              06               |          .     |      [50]: 6 transition_type 0x26a-0x26a.7 (1)
0x260|                                 07            |           .    |      [51]: 7 transition_type 0x26b-0x26b.7 (1)
0x260|                                    06         |            .   |      [52]: 6 transition_type 0x26c-0x26c.7 (1)
0x260|                                       07      |             .  |      [53]: 7 transition_type 0x26d-0x26d.7 (1)
0x260|                                          06   |              . |      [54]: 6 transition_type 0x26e-0x26e.7 (1)
0x260|                                             07|               .|      [55]: 7 transition_type 0x26f-0x26f.7 (1)
0x270|06                                             |.               |      [56]: 6 transition_type 0x270-0x270.7 (1)
0x270|   07                                          | .              |      [57]: 7 transition_type 0x271-0x271.7 (1)
0x270|      06                                       |  .             |      [58]: 6 transition_type 0x272-0x272.7 (1)
0x270|         07                                    |   .            |      [59]: 7 transition_type 0x273-0x273.7 (1)
0x270|            06                                 |    .           |      [60]: 6 transition_type 0x274-0x274.7 (1)
0x270|               07                              |     .          |      [61]: 7 transition_type 0x275-0x275.7 (1)
0x270|                  06                           |      .         |      [62]: 6 transition_type 0x276-0x276.7 (1)
0x270|                     07                        |       .        |      [63]: 7 transition_type 0x277-0x277.7 (1)
0x270|                        06                     |        .       |      [64]: 6 transition_type 0x278-0x278.7 (1)
0x270|                           07                  |         .      |      [65]: 7 transition_type 0x279-0x279.7 (1)
0x270|                              06               |          .     |      [66]: 6 transition_type 0x27a-0x27a.7 (1)
0x270|                                 07            |           .    |      [67]: 7 transition_type 0x27b-0x27b.7 (1)
0x270|                                    06         |            .   |      [68]: 6 transition_type 0x27c-0x27c.7 (1)
0x270|                                       07      |             .  |      [69]: 7 transition_type 0x27d-0x27d.7 (1)
0x270|                                          06   |              . |      [70]: 6 transition_type 0x27e-0x27e.7 (1)
0x270|                                             07|               .|      [71]: 7 transition_type 0x27f-0x27f.7 (1)
0x280|06                                             |.               |      [72]: 6 transition_type 0x280-0x280.7 (1)
0x280|   07                                          | .              |      [73]: 7 transition_type 0x281-0x281.7 (1)
0x280|      06                                       |  .             |      [74]: 6 transition_type 0x282-0x282.7 (1)
0x280|         07                                    |   .            |      [75]: 7 transition_type 0x283-0x283.7 (1)
0x280|            06                                 |    .           |      [76]: 6 transition_type 0x284-0x284.7 (1)
0x280|               07                              |     .          |      [77]: 7 transition_type 0x285-0x285.7 (1)
0x280|                  06                           |      .         |      [78]: 6 transition_type 0x286-0x286.7 (1)
0x280|                     07                        |       .        |      [79]: 7 transition_type 0x287-0x287.7 (1)
0x280|                        06                     |        .       |      [80]: 6 transition_type 0x288-0x288.7 (1)
0x280|                           07                  |         .      |      [81]: 7 transition_type 0x289-0x289.7 (1)
0x280|                              06               |          .     |      [82]: 6 transition_type 0x28a-0x28a.7 (1)
0x280|                                 07            |           .    |      [83]: 7 transition_type 0x28b-0x28b.7 (1)
0x280|                                    06         |            .   |      [84]: 6 transition_type 0x28c-0x28c.7 (1)
0x280|                                       07      |             .  |      [85]: 7 transition_type 0x28d-0x28d.7 (1)
0x280|                                          06   |              . |      [86]: 6 transition_type 0x28e-0x28e.7 (1)
0x280|                                             07|               .|      [87]: 7 transition_type 0x28f-0x28f.7 (1)
0x290|06                                             |.               |      [88]: 6 transition_type 0x290-0x290.7 (1)
0x290|   07                                          | .              |      [89]: 7 transition_type 0x291-0x291.7 (1)
0x290|      06                                       |  .             |      [90]: 6 transition_type 0x292-0x292.7 (1)
0x290|         07                                    |   .            |      [91]: 7 transition_type 0x293-0x293.7 (1)
0x290|            06                                 |    .           |      [92]: 6 transition_type 0x294-0x294.7 (1)
0x290|               07                              |     .          |      [93]: 7 transition_type 0x295-0x295.7 (1)
0x290|                  06                           |      .         |      [94]: 6 transition_type 0x296-0x296.7 (1)
0x290|                     07                        |       .        |      [95]: 7 transition_type 0x297-0x297.7 (1)
0x290|                        06                     |        .       |      [96]: 6 transition_type 0x298-0x298.7 (1)
0x290|                           07                  |         .      |      [97]: 7 transition_type 0x299-0x299.7 (1)
0x290|                              06               |          .     |      [98]: 6 transition_type 0x29a-0x29a.7 (1)
0x290|                                 07            |           .    |      [99]: 7 transition_type 0x29b-0x29b.7 (1)
0x290|                                    06         |            .   |      [100]: 6 transition_type 0x29c-0x29c.7 (1)
0x290|                                       07      |             .  |      [101]: 7 transition_type 0x29d-0x29d.7 (1)
0x290|                                          06   |              . |      [102]: 6 transition_type 0x29e-0x29e.7 (1)
0x290|                                             07|               .|      [103]: 7 transition_type 0x29f-0x29f.7 (1)
0x2a0|06                                             |.               |      [104]: 6 transition_type 0x2a0-0x2a0.7 (1)
0x2a0|   07                                          | .              |      [105]: 7 transition_type 0x2a1-0x2a1.7 (1)
0x2a0|      06                                       |  .             |      [106]: 6 transition_type 0x2a2-0x2a2.7 (1)
0x2a0|         07                                    |   .            |      [107]: 7 transition_type 0x2a3-0x2a3.7 (1)
0x2a0|            06                                 |    .           |      [108]: 6 transition_type 0x2a4-0x2a4.7 (1)
0x2a0|               07                              |     .          |      [109]: 7 transition_type 0x2a5-0x2a5.7 (1)
0x2a0|                  06                           |      .         |      [110]: 6 transition_type 0x2a6-0x2a6.7 (1)
0x2a0|                     07                        |       .        |      [111]: 7 transition_type 0x2a7-0x2a7.7 (1)
0x2a0|                        06                     |        .       |      [112]: 6 transition_type 0x2a8-0x2a8.7 (1)
0x2a0|                           07                  |         .      |      [113]: 7 transition_type 0x2a9-0x2a9.7 (1)
0x2a0|                              06               |          .     |      [114]: 6 transition_type 0x2aa-0x2aa.7 (1)
0x2a0|                                 07            |           .    |      [115]: 7 transition_type 0x2ab-0x2ab.7 (1)
0x2a0|                                    06         |            .   |      [116]: 6 transition_type 0x2ac-0x2ac.7 (1)
0x2a0|                                       07      |             .  |      [117]: 7 transition_type 0x2ad-0x2ad.7 (1)
0x2a0|                                          06   |              . |      [118]: 6 transition_type 0x2ae-0x2ae.7 (1)
0x2a0|                                             07|               .|      [119]: 7 transition_type 0x2af-0x2af.7 (1)
0x2b0|06                                             |.               |      [120]: 6 transition_type 0x2b0-0x2b0.7 (1)
0x2b0|   07                                          | .              |      [121]: 7 transition_type 0x2b1-0x2b1.7 (1)
0x2b0|      06                                       |  .             |      [122]: 6 transition_type 0x2b2-0x2b2.7 (1)
0x2b0|         07                                    |   .            |      [123]: 7 transition_type 0x2b3-0x2b3.7 (1)
0x2b0|            06                                 |    .           |      [124]: 6 transition_type 0x2b4-0x2b4.7 (1)
0x2b0|               07                              |     .          |      [125]: 7 transition_type 0x2b5-0x2b5.7 (1)
0x2b0|                  06                           |      .         |      [126]: 6 transition_type 0x2b6-0x2b6.7 (1)
0x2b0|                     07                        |       .        |      [127]: 7 transition_type 0x2b7-0x2b7.7 (1)
0x2b0|                        06                     |        .       |      [128]: 6 transition_type 0x2b8-0x2b8.7 (1)
0x2b0|                           07                  |         .      |      [129]: 7 transition_type 0x2b9-0x2b9.7 (1)
0x2b0|                              07               |          .     |      [130]: 7 transition_type 0x2ba-0x2ba.7 (1)
     |                                               |                |    local_time_type_records[0:8]: 0x2bb-0x2ea.7 (48)
     |                                               |                |      [0]{}: local_time_type 0x2bb-0x2c0.7 (6)
0x2b0|                                 ff ff bd bb   |           .... |        utoff: -16965 (valid) 0x2bb-0x2be.7 (4)
0x2b0|                                             00|               .|        dst: 0 (valid) 0x2bf-0x2bf.7 (1)
0x2c0|00                                             |.               |        idx: 0 (valid) 0x2c0-0x2c0.7 (1)
     |                                               |                |      [1]{}: local_time_type 0x2c1-0x2c6.7 (6)
0x2c0|   ff ff bd bb                                 | ....           |        utoff: -16965 (valid) 0x2c1-0x2c4.7 (4)
0x2c0|               00                              |     .          |        dst: 0 (valid) 0x2c5-0x2c5.7 (1)
0x2c0|                  04                           |      .         |        idx: 4 (valid) 0x2c6-0x2c6.7 (1)
     |                                               |                |      [2]{}: local_time_type 0x2c7-0x2cc.7 (6)
0x2c0|                     ff ff b9 b0               |       ....     |        utoff: -18000 (valid) 0x2c7-0x2ca.7 (4)
0x2c0|                                 00            |           .    |        dst: 0 (valid) 0x2cb-0x2cb.7 (1)
0x2c0|                                    08         |            .   |        idx: 8 (valid) 0x2cc-0x2cc.7 (1)
     |                                               |                |      [3]{}: local_time_type 0x2cd-0x2d2.7 (6)
0x2c0|                                       ff ff c7|             ...|        utoff: -14400 (valid) 0x2cd-0x2d0.7 (4)
0x2d0|c0                                             |.               |
0x2d0|   00                                          | .              |        dst: 0 (valid) 0x2d1-0x2d1.7 (1)
0x2d0|      0c                                       |  .             |        idx: 12 (valid) 0x2d2-0x2d2.7 (1)
     |                                               |                |      [4]{}: local_time_type 0x2d3-0x2d8.7 (6)
0x2d0|         ff ff c7 c0                           |   ....         |        utoff: -14400 (valid) 0x2d3-0x2d6.7 (4)
0x2d0|                     01                        |       .        |        dst: 1 (valid) 0x2d7-0x2d7.7 (1)
0x2d0|                        0c                     |        .       |        idx: 12 (valid) 0x2d8-0x2d8.7 (1)
     |                                               |                |      [5]{}: local_time_type 0x2d9-0x2de.7 (6)
0x2d0|                           ff ff d5 d0         |         ....   |        utoff: -10800 (valid) 0x2d9-0x2dc.7 (4)
0x2d0|                                       01      |             .  |        dst: 1 (valid) 0x2dd-0x2dd.7 (1)
0x2d0|                                          10   |              . |        idx: 16 (valid) 0x2de-0x2de.7 (1)
     |                                               |                |      [6]{}: local_time_type 0x2df-0x2e4.7 (6)
0x2d0|                                             ff|               .|        utoff: -10800 (valid) 0x2df-0x2e2.7 (4)
0x2e0|ff d5 d0                                       |...             |
0x2e0|         01                                    |   .            |        dst: 1 (valid) 0x2e3-0x2e3.7 (1)
0x2e0|            10                                 |    .           |        idx: 16 (valid) 0x2e4-0x2e4.7 (1)
     |                                               |                |      [7]{}: local_time_type 0x2e5-0x2ea.7 (6)
0x2e0|               ff ff c7 c0                     |     ....       |        utoff: -14400 (valid) 0x2e5-0x2e8.7 (4)
0x2e0|                           00                  |         .      |        dst: 0 (valid) 0x2e9-0x2e9.7 (1)
0x2e0|                              0c               |          .     |        idx: 12 (valid) 0x2ea-0x2ea.7 (1)
     |                                               |                |    time_zone_designations[0:5]: 0x2eb-0x2fe.7 (20)
0x2e0|                                 4c 4d 54 00   |           LMT. |      [0]: "LMT" time_zone_designation 0x2eb-0x2ee.7 (4)
0x2e0|                                             53|               S|      [1]: "SMT" time_zone_designation 0x2ef-0x2f2.7 (4)
0x2f0|4d 54 00                                       |MT.             |
0x2f0|         2d 30 35 00                           |   -05.         |      [2]: "-05" time_zone_designation 0x2f3-0x2f6.7 (4)
0x2f0|                     2d 30 34 00               |       -04.     |      [3]: "-04" time_zone_designation 0x2f7-0x2fa.7 (4)
0x2f0|                                 2d 30 33 00   |           -03. |      [4]: "-03" time_zone_designation 0x2fb-0x2fe.7 (4)
     |                                               |                |    leap_second_records[0:27]: 0x2ff-0x3d6.7 (216)
     |                                               |                |      [0]{}: leap_second_record 0x2ff-0x306.7 (8)
0x2f0|                                             04|               .|        occur: "1972-07-01T00:00:00Z" (78796800) 0x2ff-0x302.7 (4)
0x300|b2 58 00                                       |.X.             |
0x300|         00 00 00 01                           |   ....         |        corr: 1 0x303-0x306.7 (4)
     |                                               |                |      [1]{}: leap_second_record 0x307-0x30e.7 (8)
0x300|                     05 a4 ec 01               |       ....     |        occur: "1973-01-01T00:00:01Z" (94694401) 0x307-0x30a.7 (4)
0x300|                                 00 00 00 02   |           .... |        corr: 2 0x30b-0x30e.7 (4)
     |                                               |                |      [2]{}: leap_second_record 0x30f-0x316.7 (8)
0x300|                                             07|               .|        occur: "1974-01-01T00:00:02Z" (126230402) 0x30f-0x312.7 (4)
0x310|86 1f 82                                       |...             |
0x310|         00 00 00 03                           |   ....         |        corr: 3 0x313-0x316.7 (4)
     |                                               |                |      [3]{}: leap_second_record 0x317-0x31e.7 (8)
0x310|                     09 67 53 03               |       .gS.     |        occur: "1975-01-01T00:00:03Z" (157766403) 0x317-0x31a.7 (4)
0x310|                                 00 00 00 04   |           .... |        corr: 4 0x31b-0x31e.7 (4)
     |                                               |                |      [4]{}: leap_second_record 0x31f-0x326.7 (8)
0x310|                                             0b|               .|        occur: "1976-01-01T00:00:04Z" (189302404) 0x31f-0x322.7 (4)
0x320|48 86 84                                       |H..             |
0x320|         00 00 00 05                           |   ....         |        corr: 5 0x323-0x326.7 (4)
     |                                               |                |      [5]{}: leap_second_record 0x327-0x32e.7 (8)
0x320|                     0d 2b 0b 85               |       .+..     |        occur: "1977-01-01T00:00:05Z" (220924805) 0x327-0x32a.7 (4)
0x320|                                 00 00 00 06   |           .... |        corr: 6 0x32b-0x32e.7 (4)
     |                                               |                |      [6]{}: leap_second_record 0x32f-0x336.7 (8)
0x320|                                             0f|               .|        occur: "1978-01-01T00:00:06Z" (252460806) 0x32f-0x332.7 (4)
0x330|0c 3f 06                                       |.?.             |
0x330|         00 00 00 07                           |   ....         |        corr: 7 0x333-0x336.7 (4)
     |                                               |                |      [7]{}: leap_second_record 0x337-0x33e.7 (8)
0x330|                     10 ed 72 87               |       ..r.     |        occur: "1979-01-01T00:00:07Z" (283996807) 0x337-0x33a.7 (4)
0x330|                                 00 00 00 08   |           .... |        corr: 8 0x33b-0x33e.7 (4)
     |                                               |                |      [8]{}: leap_second_record 0x33f-0x346.7 (8)
0x330|                                             12|               .|        occur: "1980-01-01T00:00:08Z" (315532808) 0x33f-0x342.7 (4)
0x340|ce a6 08                                       |...             |
0x340|         00 00 00 09                           |   ....         |        corr: 9 0x343-0x346.7 (4)
     |                                               |                |      [9]{}: leap_second_record 0x347-0x34e.7 (8)
0x340|                     15 9f ca 89               |       ....     |        occur: "1981-07-01T00:00:09Z" (362793609) 0x347-0x34a.7 (4)
0x340|                                 00 00 00 0a   |           .... |        corr: 10 0x34b-0x34e.7 (4)
     |                                               |                |      [10]{}: leap_second_record 0x34f-0x356.7 (8)
0x340|                                             17|               .|        occur: "1982-07-01T00:00:10Z" (394329610) 0x34f-0x352.7 (4)
0x350|80 fe 0a                                       |...             |
0x350|         00 00 00 0b                           |   ....         |        corr: 11 0x353-0x356.7 (4)
     |                                               |                |      [11]{}: leap_second_record 0x357-0x35e.7 (8)
0x350|                     19 62 31 8b               |       .b1.     |        occur: "1983-07-01T00:00:11Z" (425865611) 0x357-0x35a.7 (4)
0x350|                                 00 00 00 0c   |           .... |        corr: 12 0x35b-0x35e.7 (4)
     |                                               |                |      [12]{}: leap_second_record 0x35f-0x366.7 (8)
0x350|                                             1d|               .|        occur: "1985-07-01T00:00:12Z" (489024012) 0x35f-0x362.7 (4)
0x360|25 ea 0c                                       |%..             |
0x360|         00 00 00 0d                           |   ....         |        corr: 13 0x363-0x366.7 (4)
     |                                               |                |      [13]{}: leap_second_record 0x367-0x36e.7 (8)
0x360|                     21 da e5 0d               |       !...     |        occur: "1988-01-01T00:00:13Z" (567993613) 0x367-0x36a.7 (4)
0x360|                                 00 00 00 0e   |           .... |        corr: 14 0x36b-0x36e.7 (4)
     |                                               |                |      [14]{}: leap_second_record 0x36f-0x376.7 (8)
0x360|                                             25|               %|        occur: "1990-01-01T00:00:14Z" (631152014) 0x36f-0x372.7 (4)
0x370|9e 9d 8e                                       |...             |
0x370|         00 00 00 0f                           |   ....         |        corr: 15 0x373-0x376.7 (4)
     |                                               |                |      [15]{}: leap_second_record 0x377-0x37e.7 (8)
0x370|                     27 7f d1 0f               |       '...     |        occur: "1991-01-01T00:00:15Z" (662688015) 0x377-0x37a.7 (4)
0x370|                                 00 00 00 10   |           .... |        corr: 16 0x37b-0x37e.7 (4)
     |                                               |                |      [16]{}: leap_second_record 0x37f-0x386.7 (8)
0x370|                                             2a|               *|        occur: "1992-07-01T00:00:16Z" (709948816) 0x37f-0x382.7 (4)
0x380|50 f5 90                                       |P..             |
0x380|         00 00 00 11                           |   ....         |        corr: 17 0x383-0x386.7 (4)
     |                                               |                |      [17]{}: leap_second_record 0x387-0x38e.7 (8)
0x380|                     2c 32 29 11               |       ,2).     |        occur: "1993-07-01T00:00:17Z" (741484817) 0x387-0x38a.7 (4)
0x380|                                 00 00 00 12   |           .... |        corr: 18 0x38b-0x38e.7 (4)
     |                                               |                |      [18]{}: leap_second_record 0x38f-0x396.7 (8)
0x380|                                             2e|               .|        occur: "1994-07-01T00:00:18Z" (773020818) 0x38f-0x392.7 (4)
0x390|13 5c 92                                       |.\.             |
0x390|         00 00 00 13                           |   ....         |        corr: 19 0x393-0x396.7 (4)
     |                                               |                |      [19]{}: leap_second_record 0x397-0x39e.7 (8)
0x390|                     30 e7 24 13               |       0.$.     |        occur: "1996-01-01T00:00:19Z" (820454419) 0x397-0x39a.7 (4)
0x390|                                 00 00 00 14   |           .... |        corr: 20 0x39b-0x39e.7 (4)
     |                                               |                |      [20]{}: leap_second_record 0x39f-0x3a6.7 (8)
0x390|                                             33|               3|        occur: "1997-07-01T00:00:20Z" (867715220) 0x39f-0x3a2.7 (4)
0x3a0|b8 48 94                                       |.H.             |
0x3a0|         00 00 00 15                           |   ....         |        corr: 21 0x3a3-0x3a6.7 (4)
     |                                               |                |      [21]{}: leap_second_record 0x3a7-0x3ae.7 (8)
0x3a0|                     36 8c 10 15               |       6...     |        occur: "1999-01-01T00:00:21Z" (915148821) 0x3a7-0x3aa.7 (4)
0x3a0|                                 00 00 00 16   |           .... |        corr: 22 0x3ab-0x3ae.7 (4)
     |                                               |                |      [22]{}: leap_second_record 0x3af-0x3b6.7 (8)
0x3a0|                                             43|               C|        occur: "2006-01-01T00:00:22Z" (1136073622) 0x3af-0x3b2.7 (4)
0x3b0|b7 1b 96                                       |...             |
0x3b0|         00 00 00 17                           |   ....         |        corr: 23 0x3b3-0x3b6.7 (4)
     |                                               |                |      [23]{}: leap_second_record 0x3b7-0x3be.7 (8)
0x3b0|                     49 5c 07 97               |       I\..     |        occur: "2009-01-01T00:00:23Z" (1230768023) 0x3b7-0x3ba.7 (4)
0x3b0|                                 00 00 00 18   |           .... |        corr: 24 0x3bb-0x3be.7 (4)
     |                                               |                |      [24]{}: leap_second_record 0x3bf-0x3c6.7 (8)
0x3b0|                                             4f|               O|        occur: "2012-07-01T00:00:24Z" (1341100824) 0x3bf-0x3c2.7 (4)
0x3c0|ef 93 18                                       |...             |
0x3c0|         00 00 00 19                           |   ....         |        corr: 25 0x3c3-0x3c6.7 (4)
     |                                               |                |      [25]{}: leap_second_record 0x3c7-0x3ce.7 (8)
0x3c0|                     55 93 2d 99               |       U.-.     |        occur: "2015-07-01T00:00:25Z" (1435708825) 0x3c7-0x3ca.7 (4)
0x3c0|                                 00 00 00 1a   |           .... |        corr: 26 0x3cb-0x3ce.7 (4)
     |                                               |                |      [26]{}: leap_second_record 0x3cf-0x3d6.7 (8)
0x3c0|                                             58|               X|        occur: "2017-01-01T00:00:26Z" (1483228826) 0x3cf-0x3d2.7 (4)
0x3d0|68 46 9a                                       |hF.             |
0x3d0|         00 00 00 1b                           |   ....         |        corr: 27 0x3d3-0x3d6.7 (4)
     |                                               |                |    standard_wall_indicators[0:8]: 0x3d7-0x3de.7 (8)
0x3d0|                     00                        |       .        |      [0]: 0 standard_wall_indicator (valid) 0x3d7-0x3d7.7 (1)
0x3d0|                        00                     |        .       |      [1]: 0 standard_wall_indicator (valid) 0x3d8-0x3d8.7 (1)
0x3d0|                           00                  |         .      |      [2]: 0 standard_wall_indicator (valid) 0x3d9-0x3d9.7 (1)
0x3d0|                              00               |          .     |      [3]: 0 standard_wall_indicator (valid) 0x3da-0x3da.7 (1)
0x3d0|                                 00            |           .    |      [4]: 0 standard_wall_indicator (valid) 0x3db-0x3db.7 (1)
0x3d0|                                    00         |            .   |      [5]: 0 standard_wall_indicator (valid) 0x3dc-0x3dc.7 (1)
0x3d0|                                       01      |             .  |      [6]: 1 standard_wall_indicator (valid) 0x3dd-0x3dd.7 (1)
0x3d0|                                          01   |              . |      [7]: 1 standard_wall_indicator (valid) 0x3de-0x3de.7 (1)
     |                                               |                |    ut_local_indicators[0:8]: 0x3df-0x3e6.7 (8)
0x3d0|                                             00|               .|      [0]: 0 ut_local_indicator (valid) 0x3df-0x3df.7 (1)
0x3e0|00                                             |.               |      [1]: 0 ut_local_indicator (valid) 0x3e0-0x3e0.7 (1)
0x3e0|   00                                          | .              |      [2]: 0 ut_local_indicator (valid) 0x3e1-0x3e1.7 (1)
0x3e0|      00                                       |  .             |      [3]: 0 ut_local_indicator (valid) 0x3e2-0x3e2.7 (1)
0x3e0|         00                                    |   .            |      [4]: 0 ut_local_indicator (valid) 0x3e3-0x3e3.7 (1)
0x3e0|            00                                 |    .           |      [5]: 0 ut_local_indicator (valid) 0x3e4-0x3e4.7 (1)
0x3e0|               01                              |     .          |      [6]: 1 ut_local_indicator (valid) 0x3e5-0x3e5.7 (1)
0x3e0|                  01                           |      .         |      [7]: 1 ut_local_indicator (valid) 0x3e6-0x3e6.7 (1)
     |                                               |                |  v2plusheader{}: 0x3e7-0x412.7 (44)
0x3e0|                     54 5a 69 66               |       TZif     |    magic: 0x545a6966 (valid) 0x3e7-0x3ea.7 (4)
0x3e0|                                 32            |           2    |    ver: "2" (0x32) (valid) 0x3eb-0x3eb.7 (1)
0x3e0|                                    00 00 00 00|            ....|    reserved: raw bits 0x3ec-0x3fa.7 (15)
0x3f0|00 00 00 00 00 00 00 00 00 00 00               |...........     |
0x3f0|                                 00 00 00 08   |           .... |    isutcnt: 8 0x3fb-0x3fe.7 (4)
0x3f0|                                             00|               .|    isstdcnt: 8 0x3ff-0x402.7 (4)
0x400|00 00 08                                       |...             |
0x400|         00 00 00 1b                           |   ....         |    leapcnt: 27 0x403-0x406.7 (4)
0x400|                     00 00 00 83               |       ....     |    timecnt: 131 0x407-0x40a.7 (4)
0x400|                                 00 00 00 08   |           .... |    typecnt: 8 0x40b-0x40e.7 (4)
0x400|                                             00|               .|    charcnt: 20 0x40f-0x412.7 (4)
0x410|00 00 14                                       |...             |
     |                                               |                |  v2plusdatablock{}: 0x413-0xa45.7 (1587)
     |                                               |                |    transition_times[0:131]: 0x413-0x82a.7 (1048)
0x410|         ff ff ff ff 69 87 1d c5               |   ....i...     |      [0]: "1890-01-01T04:42:45Z" (-2524504635) transition_time 0x413-0x41a.7 (8)
0x410|                                 ff ff ff ff 8f|           .....|      [1]: "1910-01-10T04:42:45Z" (-1892661435) transition_time 0x41b-0x422.7 (8)
0x420|30 47 45                                       |0GE             |
0x420|         ff ff ff ff 9b 5c e5 50               |   .....\.P     |      [2]: "1916-07-01T05:00:00Z" (-1688410800) transition_time 0x423-0x42a.7 (8)
0x420|                                 ff ff ff ff 9f|           .....|      [3]: "1918-09-10T04:42:45Z" (-1619205435) transition_time 0x42b-0x432.7 (8)
0x430|7c e2 c5                                       ||..             |
0x430|         ff ff ff ff a1 00 71 c0               |   ......q.     |      [4]: "1919-07-01T04:00:00Z" (-1593806400) transition_time 0x433-0x43a.7 (8)
0x430|                                 ff ff ff ff b0|           .....|      [5]: "1927-09-01T04:42:45Z" (-1335986235) transition_time 0x43b-0x442.7 (8)
0x440|5e 77 c5                                       |^w.             |
0x440|         ff ff ff ff b1 77 3d 40               |   .....w=@     |      [6]: "1928-04-01T04:00:00Z" (-1317585600) transition_time 0x443-0x44a.7 (8)
0x440|                                 ff ff ff ff b2|           .....|      [7]: "1928-09-01T05:00:00Z" (-1304362800) transition_time 0x44b-0x452.7 (8)
0x450|41 00 d0                                       |A..             |
0x450|         ff ff ff ff b3 58 70 c0               |   .....Xp.     |      [8]: "1929-04-01T04:00:00Z" (-1286049600) transition_time 0x453-0x45a.7 (8)
0x450|                                 ff ff ff ff b4|           .....|      [9]: "1929-09-01T05:00:00Z" (-1272826800) transition_time 0x45b-0x462.7 (8)
0x460|22 34 50                                       |"4P             |
0x460|         ff ff ff ff b5 39 a4 40               |   .....9.@     |      [10]: "1930-04-01T04:00:00Z" (-1254513600) transition_time 0x463-0x46a.7 (8)
0x460|                                 ff ff ff ff b6|           .....|      [11]: "1930-09-01T05:00:00Z" (-1241290800) transition_time 0x46b-0x472.7 (8)
0x470|03 67 d0                                       |.g.             |
0x470|         ff ff ff ff b7 1a d7 c0               |   ........     |      [12]: "1931-04-01T04:00:00Z" (-1222977600) transition_time 0x473-0x47a.7 (8)
0x470|                                 ff ff ff ff b7|           .....|      [13]: "1931-09-01T05:00:00Z" (-1209754800) transition_time 0x47b-0x482.7 (8)
0x480|e4 9b 50                                       |..P             |
0x480|         ff ff ff ff b8 fd 5c c0               |   ......\.     |      [14]: "1932-04-01T04:00:00Z" (-1191355200) transition_time 0x483-0x48a.7 (8)
0x480|                                 ff ff ff ff b9|           .....|      [15]: "1932-09-01T05:00:00Z" (-1178132400) transition_time 0x48b-0x492.7 (8)
0x490|c7 20 50                                       |. P             |
0x490|         ff ff ff ff cc 1c 6e 40               |   ......n@     |      [16]: "1942-06-01T04:00:00Z" (-870552000) transition_time 0x493-0x49a.7 (8)
0x490|                                 ff ff ff ff cc|           .....|      [17]: "1942-08-01T05:00:00Z" (-865278000) transition_time 0x49b-0x4a2.7 (8)
0x4a0|6c e7 d0                                       |l..             |
0x4a0|         ff ff ff ff d3 dc 8f c0               |   ........     |      [18]: "1946-07-15T04:00:00Z" (-740520000) transition_time 0x4a3-0x4aa.7 (8)
0x4a0|                                 ff ff ff ff d4|           .....|      [19]: "1946-08-29T03:00:00Z" (-736635600) transition_time 0x4ab-0x4b2.7 (8)
0x4b0|17 d5 30                                       |..0             |
0x4b0|         ff ff ff ff d5 33 55 c0               |   .....3U.     |      [20]: "1947-04-01T04:00:00Z" (-718056000) transition_time 0x4b3-0x4ba.7 (8)
0x4b0|                                 ff ff ff ff d5|           .....|      [21]: "1947-05-22T04:00:00Z" (-713649600) transition_time 0x4bb-0x4c2.7 (8)
0x4c0|76 92 40                                       |v.@             |
0x4c0|         ff ff ff ff fd d1 3c 40               |   ......<@     |      [22]: "1968-11-03T04:00:00Z" (-36619200) transition_time 0x4c3-0x4ca.7 (8)
0x4c0|                                 ff ff ff ff fe|           .....|      [23]: "1969-03-30T03:00:00Z" (-23922000) transition_time 0x4cb-0x4d2.7 (8)
0x4d0|92 fa b0                                       |...             |
0x4d0|         ff ff ff ff ff cc cd c0               |   ........     |      [24]: "1969-11-23T04:00:00Z" (-3355200) transition_time 0x4d3-0x4da.7 (8)
0x4d0|                                 00 00 00 00 00|           .....|      [25]: "1970-03-29T03:00:00Z" (7527600) transition_time 0x4db-0x4e2.7 (8)
0x4e0|72 dc b0                                       |r..             |
0x4e0|         00 00 00 00 01 75 50 c0               |   .....uP.     |      [26]: "1970-10-11T04:00:00Z" (24465600) transition_time 0x4e3-0x4ea.7 (8)
0x4e0|                                 00 00 00 00 02|           .....|      [27]: "1971-03-14T03:00:00Z" (37767600) transition_time 0x4eb-0x4f2.7 (8)
0x4f0|40 49 b0                                       |@I.             |
0x4f0|         00 00 00 00 03 55 32 c0               |   .....U2.     |      [28]: "1971-10-10T04:00:00Z" (55915200) transition_time 0x4f3-0x4fa.7 (8)
0x4f0|                                 00 00 00 00 04|           .....|      [29]: "1972-03-12T03:00:00Z" (69217200) transition_time 0x4fb-0x502.7 (8)
0x500|20 2b b0                                       | +.             |
0x500|         00 00 00 00 05 3e 4f 41               |   .....>OA     |      [30]: "1972-10-15T04:00:01Z" (87969601) transition_time 0x503-0x50a.7 (8)
0x500|                                 00 00 00 00 06|           .....|      [31]: "1973-03-11T03:00:02Z" (100666802) transition_time 0x50b-0x512.7 (8)
0x510|00 0d b2                                       |...             |
0x510|         00 00 00 00 07 0b bc 42               |   .......B     |      [32]: "1973-09-30T04:00:02Z" (118209602) transition_time 0x513-0x51a.7 (8)
0x510|                                 00 00 00 00 07|           .....|      [33]: "1974-03-10T03:00:03Z" (132116403) transition_time 0x51b-0x522.7 (8)
0x520|df ef b3                                       |...             |
0x520|         00 00 00 00 08 fe 13 43               |   .......C     |      [34]: "1974-10-13T04:00:03Z" (150868803) transition_time 0x523-0x52a.7 (8)
0x520|                                 00 00 00 00 09|           .....|      [35]: "1975-03-09T03:00:04Z" (163566004) transition_time 0x52b-0x532.7 (8)
0x530|bf d1 b4                                       |...             |
0x530|         00 00 00 00 0a dd f5 44               |   .......D     |      [36]: "1975-10-12T04:00:04Z" (182318404) transition_time 0x533-0x53a.7 (8)
0x530|                                 00 00 00 00 0b|           .....|      [37]: "1976-03-14T03:00:05Z" (195620405) transition_time 0x53b-0x542.7 (8)
0x540|a8 ee 35                                       |..5             |
0x540|         00 00 00 00 0c bd d7 45               |   .......E     |      [38]: "1976-10-10T04:00:05Z" (213768005) transition_time 0x543-0x54a.7 (8)
0x540|                                 00 00 00 00 0d|           .....|      [39]: "1977-03-13T03:00:06Z" (227070006) transition_time 0x54b-0x552.7 (8)
0x550|88 d0 36                                       |..6             |
0x550|         00 00 00 00 0e 9d b9 46               |   .......F     |      [40]: "1977-10-09T04:00:06Z" (245217606) transition_time 0x553-0x55a.7 (8)
0x550|                                 00 00 00 00 0f|           .....|      [41]: "1978-03-12T03:00:07Z" (258519607) transition_time 0x55b-0x562.7 (8)
0x560|68 b2 37                                       |h.7             |
0x560|         00 00 00 00 10 86 d5 c7               |   ........     |      [42]: "1978-10-15T04:00:07Z" (277272007) transition_time 0x563-0x56a.7 (8)
0x560|                                 00 00 00 00 11|           .....|      [43]: "1979-03-11T03:00:08Z" (289969208) transition_time 0x56b-0x572.7 (8)
0x570|48 94 38                                       |H.8             |
0x570|         00 00 00 00 12 66 b7 c8               |   .....f..     |      [44]: "1979-10-14T04:00:08Z" (308721608) transition_time 0x573-0x57a.7 (8)
0x570|                                 00 00 00 00 13|           .....|      [45]: "1980-03-09T03:00:09Z" (321418809) transition_time 0x57b-0x582.7 (8)
0x580|28 76 39                                       |(v9             |
0x580|         00 00 00 00 14 46 99 c9               |   .....F..     |      [46]: "1980-10-12T04:00:09Z" (340171209) transition_time 0x583-0x58a.7 (8)
0x580|                                 00 00 00 00 15|           .....|      [47]: "1981-03-15T03:00:09Z" (353473209) transition_time 0x58b-0x592.7 (8)
0x590|11 92 b9                                       |...             |
0x590|         00 00 00 00 16 26 7b ca               |   .....&{.     |      [48]: "1981-10-11T04:00:10Z" (371620810) transition_time 0x593-0x59a.7 (8)
0x590|                                 00 00 00 00 16|           .....|      [49]: "1982-03-14T03:00:10Z" (384922810) transition_time 0x59b-0x5a2.7 (8)
0x5a0|f1 74 ba                                       |.t.             |
0x5a0|         00 00 00 00 18 06 5d cb               |   ......].     |      [50]: "1982-10-10T04:00:11Z" (403070411) transition_time 0x5a3-0x5aa.7 (8)
0x5a0|                                 00 00 00 00 18|           .....|      [51]: "1983-03-13T03:00:11Z" (416372411) transition_time 0x5ab-0x5b2.7 (8)
0x5b0|d1 56 bb                                       |.V.             |
0x5b0|         00 00 00 00 19 e6 3f cc               |   ......?.     |      [52]: "1983-10-09T04:00:12Z" (434520012) transition_time 0x5b3-0x5ba.7 (8)
0x5b0|                                 00 00 00 00 1a|           .....|      [53]: "1984-03-11T03:00:12Z" (447822012) transition_time 0x5bb-0x5c2.7 (8)
0x5c0|b1 38 bc                                       |.8.             |
0x5c0|         00 00 00 00 1b cf 5c 4c               |   ......\L     |      [54]: "1984-10-14T04:00:12Z" (466574412) transition_time 0x5c3-0x5ca.7 (8)
0x5c0|                                 00 00 00 00 1c|           .....|      [55]: "1985-03-10T03:00:12Z" (479271612) transition_time 0x5cb-0x5d2.7 (8)
0x5d0|91 1a bc                                       |...             |
0x5d0|         00 00 00 00 1d af 3e 4d               |   ......>M     |      [56]: "1985-10-13T04:00:13Z" (498024013) transition_time 0x5d3-0x5da.7 (8)
0x5d0|                                 00 00 00 00 1e|           .....|      [57]: "1986-03-09T03:00:13Z" (510721213) transition_time 0x5db-0x5e2.7 (8)
0x5e0|70 fc bd                                       |p..             |
0x5e0|         00 00 00 00 1f 8f 20 4d               |   ...... M     |      [58]: "1986-10-12T04:00:13Z" (529473613) transition_time 0x5e3-0x5ea.7 (8)
0x5e0|                                 00 00 00 00 20|           .... |      [59]: "1987-04-12T03:00:13Z" (545194813) transition_time 0x5eb-0x5f2.7 (8)
0x5f0|7f 03 3d                                       |..=             |
0x5f0|         00 00 00 00 21 6f 02 4d               |   ....!o.M     |      [60]: "1987-10-11T04:00:13Z" (560923213) transition_time 0x5f3-0x5fa.7 (8)
0x5f0|                                 00 00 00 00 22|           ...."|      [61]: "1988-03-13T03:00:14Z" (574225214) transition_time 0x5fb-0x602.7 (8)
0x600|39 fb 3e                                       |9.>             |
0x600|         00 00 00 00 23 4e e4 4e               |   ....#N.N     |      [62]: "1988-10-09T04:00:14Z" (592372814) transition_time 0x603-0x60a.7 (8)
0x600|                                 00 00 00 00 24|           ....$|      [63]: "1989-03-12T03:00:14Z" (605674814) transition_time 0x60b-0x612.7 (8)
0x610|19 dd 3e                                       |..>             |
0x610|         00 00 00 00 25 38 00 ce               |   ....%8..     |      [64]: "1989-10-15T04:00:14Z" (624427214) transition_time 0x613-0x61a.7 (8)
0x610|                                 00 00 00 00 25|           ....%|      [65]: "1990-03-11T03:00:15Z" (637124415) transition_time 0x61b-0x622.7 (8)
0x620|f9 bf 3f                                       |..?             |
0x620|         00 00 00 00 26 f2 f8 cf               |   ....&...     |      [66]: "1990-09-16T04:00:15Z" (653457615) transition_time 0x623-0x62a.7 (8)
0x620|                                 00 00 00 00 27|           ....'|      [67]: "1991-03-10T03:00:16Z" (668574016) transition_time 0x62b-0x632.7 (8)
0x630|d9 a1 40                                       |..@             |
0x630|         00 00 00 00 28 f7 c4 d0               |   ....(...     |      [68]: "1991-10-13T04:00:16Z" (687326416) transition_time 0x633-0x63a.7 (8)
0x630|                                 00 00 00 00 29|           ....)|      [69]: "1992-03-15T03:00:16Z" (700628416) transition_time 0x63b-0x642.7 (8)
0x640|c2 bd c0                                       |...             |
0x640|         00 00 00 00 2a d7 a6 d1               |   ....*...     |      [70]: "1992-10-11T04:00:17Z" (718776017) transition_time 0x643-0x64a.7 (8)
0x640|                                 00 00 00 00 2b|           ....+|      [71]: "1993-03-14T03:00:17Z" (732078017) transition_time 0x64b-0x652.7 (8)
0x650|a2 9f c1                                       |...             |
0x650|         00 00 00 00 2c b7 88 d2               |   ....,...     |      [72]: "1993-10-10T04:00:18Z" (750225618) transition_time 0x653-0x65a.7 (8)
0x650|                                 00 00 00 00 2d|           ....-|      [73]: "1994-03-13T03:00:18Z" (763527618) transition_time 0x65b-0x662.7 (8)
0x660|82 81 c2                                       |...             |
0x660|         00 00 00 00 2e 97 6a d3               |   ......j.     |      [74]: "1994-10-09T04:00:19Z" (781675219) transition_time 0x663-0x66a.7 (8)
0x660|                                 00 00 00 00 2f|           ..../|      [75]: "1995-03-12T03:00:19Z" (794977219) transition_time 0x66b-0x672.7 (8)
0x670|62 63 c3                                       |bc.             |
0x670|         00 00 00 00 30 80 87 53               |   ....0..S     |      [76]: "1995-10-15T04:00:19Z" (813729619) transition_time 0x673-0x67a.7 (8)
0x670|                                 00 00 00 00 31|           ....1|      [77]: "1996-03-10T03:00:20Z" (826426820) transition_time 0x67b-0x682.7 (8)
0x680|42 45 c4                                       |BE.             |
0x680|         00 00 00 00 32 60 69 54               |   ....2`iT     |      [78]: "1996-10-13T04:00:20Z" (845179220) transition_time 0x683-0x68a.7 (8)
0x680|                                 00 00 00 00 33|           ....3|      [79]: "1997-03-30T03:00:20Z" (859690820) transition_time 0x68b-0x692.7 (8)
0x690|3d d7 44                                       |=.D             |
0x690|         00 00 00 00 34 40 4b 55               |   ....4@KU     |      [80]: "1997-10-12T04:00:21Z" (876628821) transition_time 0x693-0x69a.7 (8)
0x690|                                 00 00 00 00 35|           ....5|      [81]: "1998-03-15T03:00:21Z" (889930821) transition_time 0x69b-0x6a2.7 (8)
0x6a0|0b 44 45                                       |.DE             |
0x6a0|         00 00 00 00 36 0d b8 55               |   ....6..U     |      [82]: "1998-09-27T04:00:21Z" (906868821) transition_time 0x6a3-0x6aa.7 (8)
0x6a0|                                 00 00 00 00 37|           ....7|      [83]: "1999-04-04T03:00:22Z" (923194822) transition_time 0x6ab-0x6b2.7 (8)
0x6b0|06 d5 c6                                       |...             |
0x6b0|         00 00 00 00 38 00 0f 56               |   ....8..V     |      [84]: "1999-10-10T04:00:22Z" (939528022) transition_time 0x6b3-0x6ba.7 (8)
0x6b0|                                 00 00 00 00 38|           ....8|      [85]: "2000-03-12T03:00:22Z" (952830022) transition_time 0x6bb-0x6c2.7 (8)
0x6c0|cb 08 46                                       |..F             |
0x6c0|         00 00 00 00 39 e9 2b d6               |   ....9.+.     |      [86]: "2000-10-15T04:00:22Z" (971582422) transition_time 0x6c3-0x6ca.7 (8)
0x6c0|                                 00 00 00 00 3a|           ....:|      [87]: "2001-03-11T03:00:22Z" (984279622) transition_time 0x6cb-0x6d2.7 (8)
0x6d0|aa ea 46                                       |..F             |
0x6d0|         00 00 00 00 3b c9 0d d6               |   ....;...     |      [88]: "2001-10-14T04:00:22Z" (1003032022) transition_time 0x6d3-0x6da.7 (8)
0x6d0|                                 00 00 00 00 3c|           ....<|      [89]: "2002-03-10T03:00:22Z" (1015729222) transition_time 0x6db-0x6e2.7 (8)
0x6e0|8a cc 46                                       |..F             |
0x6e0|         00 00 00 00 3d a8 ef d6               |   ....=...     |      [90]: "2002-10-13T04:00:22Z" (1034481622) transition_time 0x6e3-0x6ea.7 (8)
0x6e0|                                 00 00 00 00 3e|           ....>|      [91]: "2003-03-09T03:00:22Z" (1047178822) transition_time 0x6eb-0x6f2.7 (8)
0x6f0|6a ae 46                                       |j.F             |
0x6f0|         00 00 00 00 3f 88 d1 d6               |   ....?...     |      [92]: "2003-10-12T04:00:22Z" (1065931222) transition_time 0x6f3-0x6fa.7 (8)
0x6f0|                                 00 00 00 00 40|           ....@|      [93]: "2004-03-14T03:00:22Z" (1079233222) transition_time 0x6fb-0x702.7 (8)
0x700|53 ca c6                                       |S..             |
0x700|         00 00 00 00 41 68 b3 d6               |   ....Ah..     |      [94]: "2004-10-10T04:00:22Z" (1097380822) transition_time 0x703-0x70a.7 (8)
0x700|                                 00 00 00 00 42|           ....B|      [95]: "2005-03-13T03:00:22Z" (1110682822) transition_time 0x70b-0x712.7 (8)
0x710|33 ac c6                                       |3..             |
0x710|         00 00 00 00 43 48 95 d6               |   ....CH..     |      [96]: "2005-10-09T04:00:22Z" (1128830422) transition_time 0x713-0x71a.7 (8)
0x710|                                 00 00 00 00 44|           ....D|      [97]: "2006-03-12T03:00:23Z" (1142132423) transition_time 0x71b-0x722.7 (8)
0x720|13 8e c7                                       |...             |
0x720|         00 00 00 00 45 31 b2 57               |   ....E1.W     |      [98]: "2006-10-15T04:00:23Z" (1160884823) transition_time 0x723-0x72a.7 (8)
0x720|                                 00 00 00 00 45|           ....E|      [99]: "2007-03-11T03:00:23Z" (1173582023) transition_time 0x72b-0x732.7 (8)
0x730|f3 70 c7                                       |.p.             |
0x730|         00 00 00 00 47 11 94 57               |   ....G..W     |      [100]: "2007-10-14T04:00:23Z" (1192334423) transition_time 0x733-0x73a.7 (8)
0x730|                                 00 00 00 00 47|           ....G|      [101]: "2008-03-30T03:00:23Z" (1206846023) transition_time 0x73b-0x742.7 (8)
0x740|ef 02 47                                       |..G             |
0x740|         00 00 00 00 48 f1 76 57               |   ....H.vW     |      [102]: "2008-10-12T04:00:23Z" (1223784023) transition_time 0x743-0x74a.7 (8)
0x740|                                 00 00 00 00 49|           ....I|      [103]: "2009-03-15T03:00:24Z" (1237086024) transition_time 0x74b-0x752.7 (8)
0x750|bc 6f 48                                       |.oH             |
0x750|         00 00 00 00 4a d1 58 58               |   ....J.XX     |      [104]: "2009-10-11T04:00:24Z" (1255233624) transition_time 0x753-0x75a.7 (8)
0x750|                                 00 00 00 00 4b|           ....K|      [105]: "2010-04-04T03:00:24Z" (1270350024) transition_time 0x75b-0x762.7 (8)
0x760|b8 00 c8                                       |...             |
0x760|         00 00 00 00 4c b1 3a 58               |   ....L.:X     |      [106]: "2010-10-10T04:00:24Z" (1286683224) transition_time 0x763-0x76a.7 (8)
0x760|                                 00 00 00 00 4d|           ....M|      [107]: "2011-05-08T03:00:24Z" (1304823624) transition_time 0x76b-0x772.7 (8)
0x770|c6 07 48                                       |..H             |
0x770|         00 00 00 00 4e 50 82 d8               |   ....NP..     |      [108]: "2011-08-21T04:00:24Z" (1313899224) transition_time 0x773-0x77a.7 (8)
0x770|                                 00 00 00 00 4f|           ....O|      [109]: "2012-04-29T03:00:24Z" (1335668424) transition_time 0x77b-0x782.7 (8)
0x780|9c ae c8                                       |...             |
0x780|         00 00 00 00 50 42 d9 d9               |   ....PB..     |      [110]: "2012-09-02T04:00:25Z" (1346558425) transition_time 0x783-0x78a.7 (8)
0x780|                                 00 00 00 00 51|           ....Q|      [111]: "2013-04-28T03:00:25Z" (1367118025) transition_time 0x78b-0x792.7 (8)
0x790|7c 90 c9                                       ||..             |
0x790|         00 00 00 00 52 2b f6 59               |   ....R+.Y     |      [112]: "2013-09-08T04:00:25Z" (1378612825) transition_time 0x793-0x79a.7 (8)
0x790|                                 00 00 00 00 53|           ....S|      [113]: "2014-04-27T03:00:25Z" (1398567625) transition_time 0x79b-0x7a2.7 (8)
0x7a0|5c 72 c9                                       |\r.             |
0x7a0|         00 00 00 00 54 0b d8 59               |   ....T..Y     |      [114]: "2014-09-07T04:00:25Z" (1410062425) transition_time 0x7a3-0x7aa.7 (8)
0x7a0|                                 00 00 00 00 57|           ....W|      [115]: "2016-05-15T03:00:26Z" (1463281226) transition_time 0x7ab-0x7b2.7 (8)
0x7b0|37 e6 4a                                       |7.J             |
0x7b0|         00 00 00 00 57 af ec da               |   ....W...     |      [116]: "2016-08-14T04:00:26Z" (1471147226) transition_time 0x7b3-0x7ba.7 (8)
0x7b0|                                 00 00 00 00 59|           ....Y|      [117]: "2017-05-14T03:00:27Z" (1494730827) transition_time 0x7bb-0x7c2.7 (8)
0x7c0|17 c8 4b                                       |..K             |
0x7c0|         00 00 00 00 59 8f ce db               |   ....Y...     |      [118]: "2017-08-13T04:00:27Z" (1502596827) transition_time 0x7c3-0x7ca.7 (8)
0x7c0|                                 00 00 00 00 5a|           ....Z|      [119]: "2018-05-13T03:00:27Z" (1526180427) transition_time 0x7cb-0x7d2.7 (8)
0x7d0|f7 aa 4b                                       |..K             |
0x7d0|         00 00 00 00 5b 6f b0 db               |   ....[o..     |      [120]: "2018-08-12T04:00:27Z" (1534046427) transition_time 0x7d3-0x7da.7 (8)
0x7d0|                                 00 00 00 00 5c|           ....\|      [121]: "2019-04-07T03:00:27Z" (1554606027) transition_time 0x7db-0x7e2.7 (8)
0x7e0|a9 67 cb                                       |.g.             |
0x7e0|         00 00 00 00 5d 74 7c db               |   ....]t|.     |      [122]: "2019-09-08T04:00:27Z" (1567915227) transition_time 0x7e3-0x7ea.7 (8)
0x7e0|                                 00 00 00 00 5e|           ....^|      [123]: "2020-04-05T03:00:27Z" (1586055627) transition_time 0x7eb-0x7f2.7 (8)
0x7f0|89 49 cb                                       |.I.             |
0x7f0|         00 00 00 00 5f 54 5e db               |   ...._T^.     |      [124]: "2020-09-06T04:00:27Z" (1599364827) transition_time 0x7f3-0x7fa.7 (8)
0x7f0|                                 00 00 00 00 60|           ....`|      [125]: "2021-04-04T03:00:27Z" (1617505227) transition_time 0x7fb-0x802.7 (8)
0x800|69 2b cb                                       |i+.             |
0x800|         00 00 00 00 61 34 40 db               |   ....a4@.     |      [126]: "2021-09-05T04:00:27Z" (1630814427) transition_time 0x803-0x80a.7 (8)
0x800|                                 00 00 00 00 62|           ....b|      [127]: "2022-04-03T03:00:27Z" (1648954827) transition_time 0x80b-0x812.7 (8)
0x810|49 0d cb                                       |I..             |
0x810|         00 00 00 00 63 1d 5d 5b               |   ....c.][     |      [128]: "2022-09-11T04:00:27Z" (1662868827) transition_time 0x813-0x81a.7 (8)
0x810|                                 00 00 00 00 64|           ....d|      [129]: "2023-04-02T03:00:27Z" (1680404427) transition_time 0x81b-0x822.7 (8)
0x820|28 ef cb                                       |(..             |
0x820|         00 00 00 00 64 9b 78 1b               |   ....d.x.     |      [130]: "2023-06-28T00:00:27Z" (1687910427) transition_time 0x823-0x82a.7 (8)
     |                                               |                |    transition_types[0:131]: 0x82b-0x8ad.7 (131)
0x820|                                 01            |           .    |      [0]: 1 transition_type 0x82b-0x82b.7 (1)
0x820|                                    02         |            .   |      [1]: 2 transition_type 0x82c-0x82c.7 (1)
0x820|                                       01      |             .  |      [2]: 1 transition_type 0x82d-0x82d.7 (1)
0x820|                                          03   |              . |      [3]: 3 transition_type 0x82e-0x82e.7 (1)
0x820|                                             01|               .|      [4]: 1 transition_type 0x82f-0x82f.7 (1)
0x830|04                                             |.               |      [5]: 4 transition_type 0x830-0x830.7 (1)
0x830|   02                                          | .              |      [6]: 2 transition_type 0x831-0x831.7 (1)
0x830|      04                                       |  .             |      [7]: 4 transition_type 0x832-0x832.7 (1)
0x830|         02                                    |   .            |      [8]: 2 transition_type 0x833-0x833.7 (1)
0x830|            04                                 |    .           |      [9]: 4 transition_type 0x834-0x834.7 (1)
0x830|               02                              |     .          |      [10]: 2 transition_type 0x835-0x835.7 (1)
0x830|                  04                           |      .         |      [11]: 4 transition_type 0x836-0x836.7 (1)
0x830|                     02                        |       .        |      [12]: 2 transition_type 0x837-0x837.7 (1)
0x830|                        04                     |        .       |      [13]: 4 transition_type 0x838-0x838.7 (1)
0x830|                           02                  |         .      |      [14]: 2 transition_type 0x839-0x839.7 (1)
0x830|                              03               |          .     |      [15]: 3 transition_type 0x83a-0x83a.7 (1)
0x830|                                 02            |           .    |      [16]: 2 transition_type 0x83b-0x83b.7 (1)
0x830|                                    03         |            .   |      [17]: 3 transition_type 0x83c-0x83c.7 (1)
0x830|                                       05      |             .  |      [18]: 5 transition_type 0x83d-0x83d.7 (1)
0x830|                                          04   |              . |      [19]: 4 transition_type 0x83e-0x83e.7 (1)
0x830|                                             02|               .|      [20]: 2 transition_type 0x83f-0x83f.7 (1)
0x840|03                                             |.               |      [21]: 3 transition_type 0x840-0x840.7 (1)
0x840|   06                                          | .              |      [22]: 6 transition_type 0x841-0x841.7 (1)
0x840|      07                                       |  .             |      [23]: 7 transition_type 0x842-0x842.7 (1)
0x840|         06                                    |   .            |      [24]: 6 transition_type 0x843-0x843.7 (1)
0x840|            07                                 |    .           |      [25]: 7 transition_type 0x844-0x844.7 (1)
0x840|               06                              |     .          |      [26]: 6 transition_type 0x845-0x845.7 (1)
0x840|                  07                           |      .         |      [27]: 7 transition_type 0x846-0x846.7 (1)
0x840|                     06                        |       .        |      [28]: 6 transition_type 0x847-0x847.7 (1)
0x840|                        07                     |        .       |      [29]: 7 transition_type 0x848-0x848.7 (1)
0x840|                           06                  |         .      |      [30]: 6 transition_type 0x849-0x849.7 (1)
0x840|                              07               |          .     |      [31]: 7 transition_type 0x84a-0x84a.7 (1)
0x840|                                 06            |           .    |      [32]: 6 transition_type 0x84b-0x84b.7 (1)
0x840|                                    07         |            .   |      [33]: 7 transition_type 0x84c-0x84c.7 (1)
0x840|                                       06      |             .  |      [34]: 6 transition_type 0x84d-0x84d.7 (1)
0x840|                                          07   |              . |      [35]: 7 transition_type 0x84e-0x84e.7 (1)
0x840|                                             06|               .|      [36]: 6 transition_type 0x84f-0x84f.7 (1)
0x850|07                                             |.               |      [37]: 7 transition_type 0x850-0x850.7 (1)
0x850|   06                                          | .              |      [38]: 6 transition_type 0x851-0x851.7 (1)
0x850|      07                                       |  .             |      [39]: 7 transition_type 0x852-0x852.7 (1)
0x850|         06                                    |   .            |      [40]: 6 transition_type 0x853-0x853.7 (1)
0x850|            07                                 |    .           |      [41]: 7 transition_type 0x854-0x854.7 (1)
0x850|               06                              |     .          |      [42]: 6 transition_type 0x855-0x855.7 (1)
0x850|                  07                           |      .         |      [43]: 7 transition_type 0x856-0x856.7 (1)
0x850|                     06                        |       .        |      [44]: 6 transition_type 0x857-0x857.7 (1)
0x850|                        07                     |        .       |      [45]: 7 transition_type 0x858-0x858.7 (1)
0x850|                           06                  |         .      |      [46]: 6 transition_type 0x859-0x859.7 (1)
0x850|                              07               |          .     |      [47]: 7 transition_type 0x85a-0x85a.7 (1)
0x850|                                 06            |           .    |      [48]: 6 transition_type 0x85b-0x85b.7 (1)
0x850|                                    07         |            .   |      [49]: 7 transition_type 0x85c-0x85c.7 (1)
0x850|                                       06      |             .  |      [50]: 6 transition_type 0x85d-0x85d.7 (1)
0x850|                                          07   |              . |      [51]: 7 transition_type 0x85e-0x85e.7 (1)
0x850|                                             06|               .|      [52]: 6 transition_type 0x85f-0x85f.7 (1)
0x860|07                                             |.               |      [53]: 7 transition_type 0x860-0x860.7 (1)
0x860|   06                                          | .              |      [54]: 6 transition_type 0x861-0x861.7 (1)
0x860|      07                                       |  .             |      [55]: 7 transition_type 0x862-0x862.7 (1)
0x860|         06                                    |   .            |      [56]: 6 transition_type 0x863-0x863.7 (1)
0x860|            07                                 |    .           |      [57]: 7 transition_type 0x864-0x864.7 (1)
0x860|               06                              |     .          |      [58]: 6 transition_type 0x865-0x865.7 (1)
0x860|                  07                           |      .         |      [59]: 7 transition_type 0x866-0x866.7 (1)
0x860|                     06                        |       .        |      [60]: 6 transition_type 0x867-0x867.7 (1)
0x860|                        07                     |        .       |      [61]: 7 transition_type 0x868-0x868.7 (1)
0x860|                           06                  |         .      |      [62]: 6 transition_type 0x869-0x869.7 (1)
0x860|                              07               |          .     |      [63]: 7 transition_type 0x86a-0x86a.7 (1)
0x860|                                 06            |           .    |      [64]: 6 transition_type 0x86b-0x86b.7 (1)
0x860|                                    07         |            .   |      [65]: 7 transition_type 0x86c-0x86c.7 (1)
0x860|                                       06      |             .  |      [66]: 6 transition_type 0x86d-0x86d.7 (1)
0x860|                                          07   |              . |      [67]: 7 transition_type 0x86e-0x86e.7 (1)
0x860|                                             06|               .|      [68]: 6 transition_type 0x86f-0x86f.7 (1)
0x870|07                                             |.               |      [69]: 7 transition_type 0x870-0x870.7 (1)
0x870|   06                                          | .              |      [70]: 6 transition_type 0x871-0x871.7 (1)
0x870|      07                                       |  .             |      [71]: 7 transition_type 0x872-0x872.7 (1)
0x870|         06                                    |   .            |      [72]: 6 transition_type 0x873-0x873.7 (1)
0x870|            07                                 |    .           |      [73]: 7 transition_type 0x874-0x874.7 (1)
0x870|               06                              |     .          |      [74]: 6 transition_type 0x875-0x875.7 (1)
0x870|                  07                           |      .         |      [75]: 7 transition_type 0x876-0x876.7 (1)
0x870|                     06                        |       .        |      [76]: 6 transition_type 0x877-0x877.7 (1)
0x870|                        07                     |        .       |      [77]: 7 transition_type 0x878-0x878.7 (1)
0x870|                           06                  |         .      |      [78]: 6 transition_type 0x879-0x879.7 (1)
0x870|                              07               |          .     |      [79]: 7 transition_type 0x87a-0x87a.7 (1)
0x870|                                 06            |           .    |      [80]: 6 transition_type 0x87b-0x87b.7 (1)
0x870|                                    07         |            .   |      [81]: 7 transition_type 0x87c-0x87c.7 (1)
0x870|                                       06      |             .  |      [82]: 6 transition_type 0x87d-0x87d.7 (1)
0x870|                                          07   |              . |      [83]: 7 transition_type 0x87e-0x87e.7 (1)
0x870|                                             06|               .|      [84]: 6 transition_type 0x87f-0x87f.7 (1)
0x880|07                                             |.               |      [85]: 7 transition_type 0x880-0x880.7 (1)
0x880|   06                                          | .              |      [86]: 6 transition_type 0x881-0x881.7 (1)
0x880|      07                                       |  .             |      [87]: 7 transition_type 0x882-0x882.7 (1)
0x880|         06                                    |   .            |      [88]: 6 transition_type 0x883-0x883.7 (1)
0x880|            07                                 |    .           |      [89]: 7 transition_type 0x884-0x884.7 (1)
0x880|               06                              |     .          |      [90]: 6 transition_type 0x885-0x885.7 (1)
0x880|                  07                           |      .         |      [91]: 7 transition_type 0x886-0x886.7 (1)
0x880|                     06                        |       .        |      [92]: 6 transition_type 0x887-0x887.7 (1)
0x880|                        07                     |        .       |      [93]: 7 transition_type 0x888-0x888.7 (1)
0x880|                           06                  |         .      |      [94]: 6 transition_type 0x889-0x889.7 (1)
0x880|                              07               |          .     |      [95]: 7 transition_type 0x88a-0x88a.7 (1)
0x880|                                 06            |           .    |      [96]: 6 transition_type 0x88b-0x88b.7 (1)
0x880|                                    07         |            .   |      [97]: 7 transition_type 0x88c-0x88c.7 (1)
0x880|                                       06      |             .  |      [98]: 6 transition_type 0x88d-0x88d.7 (1)
0x880|                                          07   |              . |      [99]: 7 transition_type 0x88e-0x88e.7 (1)
0x880|                                             06|               .|      [100]: 6 transition_type 0x88f-0x88f.7 (1)
0x890|07                                             |.               |      [101]: 7 transition_type 0x890-0x890.7 (1)
0x890|   06                                          | .              |      [102]: 6 transition_type 0x891-0x891.7 (1)
0x890|      07                                       |  .             |      [103]: 7 transition_type 0x892-0x892.7 (1)
0x890|         06                                    |   .            |      [104]: 6 transition_type 0x893-0x893.7 (1)
0x890|            07                                 |    .           |      [105]: 7 transition_type 0x894-0x894.7 (1)
0x890|               06                              |     .          |      [106]: 6 transition_type 0x895-0x895.7 (1)
0x890|                  07                           |      .         |      [107]: 7 transition_type 0x896-0x896.7 (1)
0x890|                     06                        |       .        |      [108]: 6 transition_type 0x897-0x897.7 (1)
0x890|                        07                     |        .       |      [109]: 7 transition_type 0x898-0x898.7 (1)
0x890|                           06                  |         .      |      [110]: 6 transition_type 0x899-0x899.7 (1)
0x890|                              07               |          .     |      [111]: 7 transition_type 0x89a-0x89a.7 (1)
0x890|                                 06            |           .    |      [112]: 6 transition_type 0x89b-0x89b.7 (1)
0x890|                                    07         |            .   |      [113]: 7 transition_type 0x89c-0x89c.7 (1)
0x890|                                       06      |             .  |      [114]: 6 transition_type 0x89d-0x89d.7 (1)
0x890|                                          07   |              . |      [115]: 7 transition_type 0x89e-0x89e.7 (1)
0x890|                                             06|               .|      [116]: 6 transition_type 0x89f-0x89f.7 (1)
0x8a0|07                                             |.               |      [117]: 7 transition_type 0x8a0-0x8a0.7 (1)
0x8a0|   06                                          | .              |      [118]: 6 transition_type 0x8a1-0x8a1.7 (1)
0x8a0|      07                                       |  .             |      [119]: 7 transition_type 0x8a2-0x8a2.7 (1)
0x8a0|         06                                    |   .            |      [120]: 6 transition_type 0x8a3-0x8a3.7 (1)
0x8a0|            07                                 |    .           |      [121]: 7 transition_type 0x8a4-0x8a4.7 (1)
0x8a0|               06                              |     .          |      [122]: 6 transition_type 0x8a5-0x8a5.7 (1)
0x8a0|                  07                           |      .         |      [123]: 7 transition_type 0x8a6-0x8a6.7 (1)
0x8a0|                     06                        |       .        |      [124]: 6 transition_type 0x8a7-0x8a7.7 (1)
0x8a0|                        07                     |        .       |      [125]: 7 transition_type 0x8a8-0x8a8.7 (1)
0x8a0|                           06                  |         .      |      [126]: 6 transition_type 0x8a9-0x8a9.7 (1)
0x8a0|                              07               |          .     |      [127]: 7 transition_type 0x8aa-0x8aa.7 (1)
0x8a0|                                 06            |           .    |      [128]: 6 transition_type 0x8ab-0x8ab.7 (1)
0x8a0|                                    07         |            .   |      [129]: 7 transition_type 0x8ac-0x8ac.7 (1)
0x8a0|                                       07      |             .  |      [130]: 7 transition_type 0x8ad-0x8ad.7 (1)
     |                                               |                |    local_time_type_records[0:8]: 0x8ae-0x8dd.7 (48)
     |                                               |                |      [0]{}: local_time_type 0x8ae-0x8b3.7 (6)
0x8a0|                                          ff ff|              ..|        utoff: -16965 (valid) 0x8ae-0x8b1.7 (4)
0x8b0|bd bb                                          |..              |
0x8b0|      00                                       |  .             |        dst: 0 (valid) 0x8b2-0x8b2.7 (1)
0x8b0|         00                                    |   .            |        idx: 0 (valid) 0x8b3-0x8b3.7 (1)
     |                                               |                |      [1]{}: local_time_type 0x8b4-0x8b9.7 (6)
0x8b0|            ff ff bd bb                        |    ....        |        utoff: -16965 (valid) 0x8b4-0x8b7.7 (4)
0x8b0|                        00                     |        .       |        dst: 0 (valid) 0x8b8-0x8b8.7 (1)
0x8b0|                           04                  |         .      |        idx: 4 (valid) 0x8b9-0x8b9.7 (1)
     |                                               |                |      [2]{}: local_time_type 0x8ba-0x8bf.7 (6)
0x8b0|                              ff ff b9 b0      |          ....  |        utoff: -18000 (valid) 0x8ba-0x8bd.7 (4)
0x8b0|                                          00   |              . |        dst: 0 (valid) 0x8be-0x8be.7 (1)
0x8b0|                                             08|               .|        idx: 8 (valid) 0x8bf-0x8bf.7 (1)
     |                                               |                |      [3]{}: local_time_type 0x8c0-0x8c5.7 (6)
0x8c0|ff ff c7 c0                                    |....            |        utoff: -14400 (valid) 0x8c0-0x8c3.7 (4)
0x8c0|            00                                 |    .           |        dst: 0 (valid) 0x8c4-0x8c4.7 (1)
0x8c0|               0c                              |     .          |        idx: 12 (valid) 0x8c5-0x8c5.7 (1)
     |                                               |                |      [4]{}: local_time_type 0x8c6-0x8cb.7 (6)
0x8c0|                  ff ff c7 c0                  |      ....      |        utoff: -14400 (valid) 0x8c6-0x8c9.7 (4)
0x8c0|                              01               |          .     |        dst: 1 (valid) 0x8ca-0x8ca.7 (1)
0x8c0|                                 0c            |           .    |        idx: 12 (valid) 0x8cb-0x8cb.7 (1)
     |                                               |                |      [5]{}: local_time_type 0x8cc-0x8d1.7 (6)
0x8c0|                                    ff ff d5 d0|            ....|        utoff: -10800 (valid) 0x8cc-0x8cf.7 (4)
0x8d0|01                                             |.               |        dst: 1 (valid) 0x8d0-0x8d0.7 (1)
0x8d0|   10                                          | .              |        idx: 16 (valid) 0x8d1-0x8d1.7 (1)
     |                                               |                |      [6]{}: local_time_type 0x8d2-0x8d7.7 (6)
0x8d0|      ff ff d5 d0                              |  ....          |        utoff: -10800 (valid) 0x8d2-0x8d5.7 (4)
0x8d0|                  01                           |      .         |        dst: 1 (valid) 0x8d6-0x8d6.7 (1)
0x8d0|                     10                        |       .        |        idx: 16 (valid) 0x8d7-0x8d7.7 (1)
     |                                               |                |      [7]{}: local_time_type 0x8d8-0x8dd.7 (6)
0x8d0|                        ff ff c7 c0            |        ....    |        utoff: -14400 (valid) 0x8d8-0x8db.7 (4)
0x8d0|                                    00         |            .   |        dst: 0 (valid) 0x8dc-0x8dc.7 (1)
0x8d0|                                       0c      |             .  |        idx: 12 (valid) 0x8dd-0x8dd.7 (1)
     |                                               |                |    time_zone_designations[0:5]: 0x8de-0x8f1.7 (20)
0x8d0|                                          4c 4d|              LM|      [0]: "LMT" time_zone_designation 0x8de-0x8e1.7 (4)
0x8e0|54 00                                          |T.              |
0x8e0|      53 4d 54 00                              |  SMT.          |      [1]: "SMT" time_zone_designation 0x8e2-0x8e5.7 (4)
0x8e0|                  2d 30 35 00                  |      -05.      |      [2]: "-05" time_zone_designation 0x8e6-0x8e9.7 (4)
0x8e0|                              2d 30 34 00      |          -04.  |      [3]: "-04" time_zone_designation 0x8ea-0x8ed.7 (4)
0x8e0|                                          2d 30|              -0|      [4]: "-03" time_zone_designation 0x8ee-0x8f1.7 (4)
0x8f0|33 00                                          |3.              |
     |                                               |                |    leap_second_records[0:27]: 0x8f2-0xa35.7 (324)
     |                                               |                |      [0]{}: leap_second_record 0x8f2-0x8fd.7 (12)
0x8f0|      00 00 00 00 04 b2 58 00                  |  ......X.      |        occur: "1972-07-01T00:00:00Z" (78796800) 0x8f2-0x8f9.7 (8)
0x8f0|                              00 00 00 01      |          ....  |        corr: 1 0x8fa-0x8fd.7 (4)
     |                                               |                |      [1]{}: leap_second_record 0x8fe-0x909.7 (12)
0x8f0|                                          00 00|              ..|        occur: "1973-01-01T00:00:01Z" (94694401) 0x8fe-0x905.7 (8)
0x900|00 00 05 a4 ec 01                              |......          |
0x900|                  00 00 00 02                  |      ....      |        corr: 2 0x906-0x909.7 (4)
     |                                               |                |      [2]{}: leap_second_record 0x90a-0x915.7 (12)
0x900|                              00 00 00 00 07 86|          ......|        occur: "1974-01-01T00:00:02Z" (126230402) 0x90a-0x911.7 (8)
0x910|1f 82                                          |..              |
0x910|      00 00 00 03                              |  ....          |        corr: 3 0x912-0x915.7 (4)
     |                                               |                |      [3]{}: leap_second_record 0x916-0x921.7 (12)
0x910|                  00 00 00 00 09 67 53 03      |      .....gS.  |        occur: "1975-01-01T00:00:03Z" (157766403) 0x916-0x91d.7 (8)
0x910|                                          00 00|              ..|        corr: 4 0x91e-0x921.7 (4)
0x920|00 04                                          |..              |
     |                                               |                |      [4]{}: leap_second_record 0x922-0x92d.7 (12)
0x920|      00 00 00 00 0b 48 86 84                  |  .....H..      |        occur: "1976-01-01T00:00:04Z" (189302404) 0x922-0x929.7 (8)
0x920|                              00 00 00 05      |          ....  |        corr: 5 0x92a-0x92d.7 (4)
     |                                               |                |      [5]{}: leap_second_record 0x92e-0x939.7 (12)
0x920|                                          00 00|              ..|        occur: "1977-01-01T00:00:05Z" (220924805) 0x92e-0x935.7 (8)
0x930|00 00 0d 2b 0b 85                              |...+..          |
0x930|                  00 00 00 06                  |      ....      |        corr: 6 0x936-0x939.7 (4)
     |                                               |                |      [6]{}: leap_second_record 0x93a-0x945.7 (12)
0x930|                              00 00 00 00 0f 0c|          ......|        occur: "1978-01-01T00:00:06Z" (252460806) 0x93a-0x941.7 (8)
0x940|3f 06                                          |?.              |
0x940|      00 00 00 07                              |  ....          |        corr: 7 0x942-0x945.7 (4)
     |                                               |                |      [7]{}: leap_second_record 0x946-0x951.7 (12)
0x940|                  00 00 00 00 10 ed 72 87      |      ......r.  |        occur: "1979-01-01T00:00:07Z" (283996807) 0x946-0x94d.7 (8)
0x940|                                          00 00|              ..|        corr: 8 0x94e-0x951.7 (4)
0x950|00 08                                          |..              |
     |                                               |                |      [8]{}: leap_second_record 0x952-0x95d.7 (12)
0x950|      00 00 00 00 12 ce a6 08                  |  ........      |        occur: "1980-01-01T00:00:08Z" (315532808) 0x952-0x959.7 (8)
0x950|                              00 00 00 09      |          ....  |        corr: 9 0x95a-0x95d.7 (4)
     |                                               |                |      [9]{}: leap_second_record 0x95e-0x969.7 (12)
0x950|                                          00 00|              ..|        occur: "1981-07-01T00:00:09Z" (362793609) 0x95e-0x965.7 (8)
0x960|00 00 15 9f ca 89                              |......          |
0x960|                  00 00 00 0a                  |      ....      |        corr: 10 0x966-0x969.7 (4)
     |                                               |                |      [10]{}: leap_second_record 0x96a-0x975.7 (12)
0x960|                              00 00 00 00 17 80|          ......|        occur: "1982-07-01T00:00:10Z" (394329610) 0x96a-0x971.7 (8)
0x970|fe 0a                                          |..              |
0x970|      00 00 00 0b                              |  ....          |        corr: 11 0x972-0x975.7 (4)
     |                                               |                |      [11]{}: leap_second_record 0x976-0x981.7 (12)
0x970|                  00 00 00 00 19 62 31 8b      |      .....b1.  |        occur: "1983-07-01T00:00:11Z" (425865611) 0x976-0x97d.7 (8)
0x970|                                          00 00|              ..|        corr: 12 0x97e-0x981.7 (4)
0x980|00 0c                                          |..              |
     |                                               |                |      [12]{}: leap_second_record 0x982-0x98d.7 (12)
0x980|      00 00 00 00 1d 25 ea 0c                  |  .....%..      |        occur: "1985-07-01T00:00:12Z" (489024012) 0x982-0x989.7 (8)
0x980|                              00 00 00 0d      |          ....  |        corr: 13 0x98a-0x98d.7 (4)
     |                                               |                |      [13]{}: leap_second_record 0x98e-0x999.7 (12)
0x980|                                          00 00|              ..|        occur: "1988-01-01T00:00:13Z" (567993613) 0x98e-0x995.7 (8)
0x990|00 00 21 da e5 0d                              |..!...          |
0x990|                  00 00 00 0e                  |      ....      |        corr: 14 0x996-0x999.7 (4)
     |                                               |                |      [14]{}: leap_second_record 0x99a-0x9a5.7 (12)
0x990|                              00 00 00 00 25 9e|          ....%.|        occur: "1990-01-01T00:00:14Z" (631152014) 0x99a-0x9a1.7 (8)
0x9a0|9d 8e                                          |..              |
0x9a0|      00 00 00 0f                              |  ....          |        corr: 15 0x9a2-0x9a5.7 (4)
     |                                               |                |      [15]{}: leap_second_record 0x9a6-0x9b1.7 (12)
0x9a0|                  00 00 00 00 27 7f d1 0f      |      ....'...  |        occur: "1991-01-01T00:00:15Z" (662688015) 0x9a6-0x9ad.7 (8)
0x9a0|                                          00 00|              ..|        corr: 16 0x9ae-0x9b1.7 (4)
0x9b0|00 10                                          |..              |
     |                                               |                |      [16]{}: leap_second_record 0x9b2-0x9bd.7 (12)
0x9b0|      00 00 00 00 2a 50 f5 90                  |  ....*P..      |        occur: "1992-07-01T00:00:16Z" (709948816) 0x9b2-0x9b9.7 (8)
0x9b0|                              00 00 00 11      |          ....  |        corr: 17 0x9ba-0x9bd.7 (4)
     |                                               |                |      [17]{}: leap_second_record 0x9be-0x9c9.7 (12)
0x9b0|                                          00 00|              ..|        occur: "1993-07-01T00:00:17Z" (741484817) 0x9be-0x9c5.7 (8)
0x9c0|00 00 2c 32 29 11                              |..,2).          |
0x9c0|                  00 00 00 12                  |      ....      |        corr: 18 0x9c6-0x9c9.7 (4)
     |                                               |                |      [18]{}: leap_second_record 0x9ca-0x9d5.7 (12)
0x9c0|                              00 00 00 00 2e 13|          ......|        occur: "1994-07-01T00:00:18Z" (773020818) 0x9ca-0x9d1.7 (8)
0x9d0|5c 92                                          |\.              |
0x9d0|      00 00 00 13                              |  ....          |        corr: 19 0x9d2-0x9d5.7 (4)
     |                                               |                |      [19]{}: leap_second_record 0x9d6-0x9e1.7 (12)
0x9d0|                  00 00 00 00 30 e7 24 13      |      ....0.$.  |        occur: "1996-01-01T00:00:19Z" (820454419) 0x9d6-0x9dd.7 (8)
0x9d0|                                          00 00|              ..|        corr: 20 0x9de-0x9e1.7 (4)
0x9e0|00 14                                          |..              |
     |                                               |                |      [20]{}: leap_second_record 0x9e2-0x9ed.7 (12)
0x9e0|      00 00 00 00 33 b8 48 94                  |  ....3.H.      |        occur: "1997-07-01T00:00:20Z" (867715220) 0x9e2-0x9e9.7 (8)
0x9e0|                              00 00 00 15      |          ....  |        corr: 21 0x9ea-0x9ed.7 (4)
     |                                               |                |      [21]{}: leap_second_record 0x9ee-0x9f9.7 (12)
0x9e0|                                          00 00|              ..|        occur: "1999-01-01T00:00:21Z" (915148821) 0x9ee-0x9f5.7 (8)
0x9f0|00 00 36 8c 10 15                              |..6...          |
0x9f0|                  00 00 00 16                  |      ....      |        corr: 22 0x9f6-0x9f9.7 (4)
     |                                               |                |      [22]{}: leap_second_record 0x9fa-0xa05.7 (12)
0x9f0|                              00 00 00 00 43 b7|          ....C.|        occur: "2006-01-01T00:00:22Z" (1136073622) 0x9fa-0xa01.7 (8)
0xa00|1b 96                                          |..              |
0xa00|      00 00 00 17                              |  ....          |        corr: 23 0xa02-0xa05.7 (4)
     |                                               |                |      [23]{}: leap_second_record 0xa06-0xa11.7 (12)
0xa00|                  00 00 00 00 49 5c 07 97      |      ....I\..  |        occur: "2009-01-01T00:00:23Z" (1230768023) 0xa06-0xa0d.7 (8)
0xa00|                                          00 00|              ..|        corr: 24 0xa0e-0xa11.7 (4)
0xa10|00 18                                          |..              |
     |                                               |                |      [24]{}: leap_second_record 0xa12-0xa1d.7 (12)
0xa10|      00 00 00 00 4f ef 93 18                  |  ....O...      |        occur: "2012-07-01T00:00:24Z" (1341100824) 0xa12-0xa19.7 (8)
0xa10|                              00 00 00 19      |          ....  |        corr: 25 0xa1a-0xa1d.7 (4)
     |                                               |                |      [25]{}: leap_second_record 0xa1e-0xa29.7 (12)
0xa10|                                          00 00|              ..|        occur: "2015-07-01T00:00:25Z" (1435708825) 0xa1e-0xa25.7 (8)
0xa20|00 00 55 93 2d 99                              |..U.-.          |
0xa20|                  00 00 00 1a                  |      ....      |        corr: 26 0xa26-0xa29.7 (4)
     |                                               |                |      [26]{}: leap_second_record 0xa2a-0xa35.7 (12)
0xa20|                              00 00 00 00 58 68|          ....Xh|        occur: "2017-01-01T00:00:26Z" (1483228826) 0xa2a-0xa31.7 (8)
0xa30|46 9a                                          |F.              |
0xa30|      00 00 00 1b                              |  ....          |        corr: 27 0xa32-0xa35.7 (4)
     |                                               |                |    standard_wall_indicators[0:8]: 0xa36-0xa3d.7 (8)
0xa30|                  00                           |      .         |      [0]: 0 standard_wall_indicator (valid) 0xa36-0xa36.7 (1)
0xa30|                     00                        |       .        |      [1]: 0 standard_wall_indicator (valid) 0xa37-0xa37.7 (1)
0xa30|                        00                     |        .       |      [2]: 0 standard_wall_indicator (valid) 0xa38-0xa38.7 (1)
0xa30|                           00                  |         .      |      [3]: 0 standard_wall_indicator (valid) 0xa39-0xa39.7 (1)
0xa30|                              00               |          .     |      [4]: 0 standard_wall_indicator (valid) 0xa3a-0xa3a.7 (1)
0xa30|                                 00            |           .    |      [5]: 0 standard_wall_indicator (valid) 0xa3b-0xa3b.7 (1)
0xa30|                                    01         |            .   |      [6]: 1 standard_wall_indicator (valid) 0xa3c-0xa3c.7 (1)
0xa30|                                       01      |             .  |      [7]: 1 standard_wall_indicator (valid) 0xa3d-0xa3d.7 (1)
     |                                               |                |    ut_local_indicators[0:8]: 0xa3e-0xa45.7 (8)
0xa30|                                          00   |              . |      [0]: 0 ut_local_indicator (valid) 0xa3e-0xa3e.7 (1)
0xa30|                                             00|               .|      [1]: 0 ut_local_indicator (valid) 0xa3f-0xa3f.7 (1)
0xa40|00                                             |.               |      [2]: 0 ut_local_indicator (valid) 0xa40-0xa40.7 (1)
0xa40|   00                                          | .              |      [3]: 0 ut_local_indicator (valid) 0xa41-0xa41.7 (1)
0xa40|      00                                       |  .             |      [4]: 0 ut_local_indicator (valid) 0xa42-0xa42.7 (1)
0xa40|         00                                    |   .            |      [5]: 0 ut_local_indicator (valid) 0xa43-0xa43.7 (1)
0xa40|            01                                 |    .           |      [6]: 1 ut_local_indicator (valid) 0xa44-0xa44.7 (1)
0xa40|               01                              |     .          |      [7]: 1 ut_local_indicator (valid) 0xa45-0xa45.7 (1)
     |                                               |                |  footer{}: 0xa46-0xa47.7 (2)
0xa40|                  0a                           |      .         |    nl1: 10 (valid) 0xa46-0xa46.7 (1)
     |                                               |                |    tz_string: "" 0xa47-NA (0)
0xa40|                     0a|                       |       .|       |    nl2: 10 (valid) 0xa47-0xa47.7 (1)
