$ fq -d tzif dv Santarem
     |00 01 02 03 04 05 06 07 08 09 0a 0b 0c 0d 0e 0f|0123456789abcdef|.{}: Santarem (tzif) 0x0-0x46f.7 (1136)
     |                                               |                |  v1header{}: 0x0-0x2b.7 (44)
0x000|54 5a 69 66                                    |TZif            |    magic: 0x545a6966 (valid) 0x0-0x3.7 (4)
0x000|            32                                 |    2           |    ver: "2" (0x32) (valid) 0x4-0x4.7 (1)
0x000|               00 00 00 00 00 00 00 00 00 00 00|     ...........|    reserved: raw bits 0x5-0x13.7 (15)
0x010|00 00 00 00                                    |....            |
0x010|            00 00 00 00                        |    ....        |    isutcnt: 0 0x14-0x17.7 (4)
0x010|                        00 00 00 00            |        ....    |    isstdcnt: 0 0x18-0x1b.7 (4)
0x010|                                    00 00 00 1b|            ....|    leapcnt: 27 0x1c-0x1f.7 (4)
0x020|00 00 00 1f                                    |....            |    timecnt: 31 0x20-0x23.7 (4)
0x020|            00 00 00 04                        |    ....        |    typecnt: 4 0x24-0x27.7 (4)
0x020|                        00 00 00 0c            |        ....    |    charcnt: 12 0x28-0x2b.7 (4)
     |                                               |                |  v1datablock{}: 0x2c-0x1c2.7 (407)
     |                                               |                |    transition_times[0:31]: 0x2c-0xa7.7 (124)
0x020|                                    96 aa 7a 48|            ..zH|      [0]: "1914-01-01T03:38:48Z" (-1767212472) transition_time 0x2c-0x2f.7 (4)
0x030|b8 0f 57 f0                                    |..W.            |      [1]: "1931-10-03T15:00:00Z" (-1206954000) transition_time 0x30-0x33.7 (4)
0x030|            b8 fd 4e b0                        |    ..N.        |      [2]: "1932-04-01T03:00:00Z" (-1191358800) transition_time 0x34-0x37.7 (4)
0x030|                        b9 f1 42 40            |        ..B@    |      [3]: "1932-10-03T04:00:00Z" (-1175371200) transition_time 0x38-0x3b.7 (4)
0x030|                                    ba de 82 30|            ...0|      [4]: "1933-04-01T03:00:00Z" (-1159822800) transition_time 0x3c-0x3f.7 (4)
0x040|da 38 bc 40                                    |.8.@            |      [5]: "1949-12-01T04:00:00Z" (-633816000) transition_time 0x40-0x43.7 (4)
0x040|            da ec 08 40                        |    ...@        |      [6]: "1950-04-16T04:00:00Z" (-622065600) transition_time 0x44-0x47.7 (4)
0x040|                        dc 19 ef c0            |        ....    |      [7]: "1950-12-01T04:00:00Z" (-602280000) transition_time 0x48-0x4b.7 (4)
0x040|                                    dc b9 67 30|            ..g0|      [8]: "1951-04-01T03:00:00Z" (-591829200) transition_time 0x4c-0x4f.7 (4)
0x050|dd fb 23 40                                    |..#@            |      [9]: "1951-12-01T04:00:00Z" (-570744000) transition_time 0x50-0x53.7 (4)
0x050|            de 9b ec 30                        |    ...0        |      [10]: "1952-04-01T03:00:00Z" (-560206800) transition_time 0x54-0x57.7 (4)
0x050|                        df dd a8 40            |        ...@    |      [11]: "1952-12-01T04:00:00Z" (-539121600) transition_time 0x58-0x5b.7 (4)
0x050|                                    e0 54 41 30|            .TA0|      [12]: "1953-03-01T03:00:00Z" (-531349200) transition_time 0x5c-0x5f.7 (4)
0x060|f4 98 0d c0                                    |....            |      [13]: "1963-12-09T04:00:00Z" (-191361600) transition_time 0x60-0x63.7 (4)
0x060|            f5 05 6c 30                        |    ..l0        |      [14]: "1964-03-01T03:00:00Z" (-184194000) transition_time 0x64-0x67.7 (4)
0x060|                        f6 c0 72 40            |        ..r@    |      [15]: "1965-01-31T04:00:00Z" (-155160000) transition_time 0x68-0x6b.7 (4)
0x060|                                    f7 0e 2c b0|            ..,.|      [16]: "1965-03-31T03:00:00Z" (-150066000) transition_time 0x6c-0x6f.7 (4)
0x070|f8 51 3a 40                                    |.Q:@            |      [17]: "1965-12-01T04:00:00Z" (-128894400) transition_time 0x70-0x73.7 (4)
0x070|            f8 c7 d3 30                        |    ...0        |      [18]: "1966-03-01T03:00:00Z" (-121122000) transition_time 0x74-0x77.7 (4)
0x070|                        fa 0a e0 c0            |        ....    |      [19]: "1966-11-01T04:00:00Z" (-99950400) transition_time 0x78-0x7b.7 (4)
0x070|                                    fa a9 06 b0|            ....|      [20]: "1967-03-01T03:00:00Z" (-89586000) transition_time 0x7c-0x7f.7 (4)
0x080|fb ec 14 40                                    |...@            |      [21]: "1967-11-01T04:00:00Z" (-68414400) transition_time 0x80-0x83.7 (4)
0x080|            fc 8b 8b b0                        |    ....        |      [22]: "1968-03-01T03:00:00Z" (-57963600) transition_time 0x84-0x87.7 (4)
0x080|                        1d c9 9c 4d            |        ...M    |      [23]: "1985-11-02T04:00:13Z" (499752013) transition_time 0x88-0x8b.7 (4)
0x080|                                    1e 78 e5 bd|            .x..|      [24]: "1986-03-15T03:00:13Z" (511239613) transition_time 0x8c-0x8f.7 (4)
0x090|1f a0 43 cd                                    |..C.            |      [25]: "1986-10-25T04:00:13Z" (530596813) transition_time 0x90-0x93.7 (4)
0x090|            20 33 dd bd                        |     3..        |      [26]: "1987-02-14T03:00:13Z" (540270013) transition_time 0x94-0x97.7 (4)
0x090|                        21 81 77 4d            |        !.wM    |      [27]: "1987-10-25T04:00:13Z" (562132813) transition_time 0x98-0x9b.7 (4)
0x090|                                    22 0b d6 be|            "...|      [28]: "1988-02-07T03:00:14Z" (571201214) transition_time 0x9c-0x9f.7 (4)
0x0a0|48 60 71 57                                    |H`qW            |      [29]: "2008-06-24T04:00:23Z" (1214280023) transition_time 0xa0-0xa3.7 (4)
0x0a0|            64 9b 78 1b                        |    d.x.        |      [30]: "2023-06-28T00:00:27Z" (1687910427) transition_time 0xa4-0xa7.7 (4)
     |                                               |                |    transition_types[0:31]: 0xa8-0xc6.7 (31)
0x0a0|                        02                     |        .       |      [0]: 2 transition_type 0xa8-0xa8.7 (1)
0x0a0|                           01                  |         .      |      [1]: 1 transition_type 0xa9-0xa9.7 (1)
0x0a0|                              02               |          .     |      [2]: 2 transition_type 0xaa-0xaa.7 (1)
0x0a0|                                 01            |           .    |      [3]: 1 transition_type 0xab-0xab.7 (1)
0x0a0|                                    02         |            .   |      [4]: 2 transition_type 0xac-0xac.7 (1)
0x0a0|                                       01      |             .  |      [5]: 1 transition_type 0xad-0xad.7 (1)
0x0a0|                                          02   |              . |      [6]: 2 transition_type 0xae-0xae.7 (1)
0x0a0|                                             01|               .|      [7]: 1 transition_type 0xaf-0xaf.7 (1)
0x0b0|02                                             |.               |      [8]: 2 transition_type 0xb0-0xb0.7 (1)
0x0b0|   01                                          | .              |      [9]: 1 transition_type 0xb1-0xb1.7 (1)
0x0b0|      02                                       |  .             |      [10]: 2 transition_type 0xb2-0xb2.7 (1)
0x0b0|         01                                    |   .            |      [11]: 1 transition_type 0xb3-0xb3.7 (1)
0x0b0|            02                                 |    .           |      [12]: 2 transition_type 0xb4-0xb4.7 (1)
0x0b0|               01                              |     .          |      [13]: 1 transition_type 0xb5-0xb5.7 (1)
0x0b0|                  02                           |      .         |      [14]: 2 transition_type 0xb6-0xb6.7 (1)
0x0b0|                     01                        |       .        |      [15]: 1 transition_type 0xb7-0xb7.7 (1)
0x0b0|                        02                     |        .       |      [16]: 2 transition_type 0xb8-0xb8.7 (1)
0x0b0|                           01                  |         .      |      [17]: 1 transition_type 0xb9-0xb9.7 (1)
0x0b0|                              02               |          .     |      [18]: 2 transition_type 0xba-0xba.7 (1)
0x0b0|                                 01            |           .    |      [19]: 1 transition_type 0xbb-0xbb.7 (1)
0x0b0|                                    02         |            .   |      [20]: 2 transition_type 0xbc-0xbc.7 (1)
0x0b0|                                       01      |             .  |      [21]: 1 transition_type 0xbd-0xbd.7 (1)
0x0b0|                                          02   |              . |      [22]: 2 transition_type 0xbe-0xbe.7 (1)
0x0b0|                                             01|               .|      [23]: 1 transition_type 0xbf-0xbf.7 (1)
0x0c0|02                                             |.               |      [24]: 2 transition_type 0xc0-0xc0.7 (1)
0x0c0|   01                                          | .              |      [25]: 1 transition_type 0xc1-0xc1.7 (1)
0x0c0|      02                                       |  .             |      [26]: 2 transition_type 0xc2-0xc2.7 (1)
0x0c0|         01                                    |   .            |      [27]: 1 transition_type 0xc3-0xc3.7 (1)
0x0c0|            02                                 |    .           |      [28]: 2 transition_type 0xc4-0xc4.7 (1)
0x0c0|               03                              |     .          |      [29]: 3 transition_type 0xc5-0xc5.7 (1)
0x0c0|                  03                           |      .         |      [30]: 3 transition_type 0xc6-0xc6.7 (1)
     |                                               |                |    local_time_type_records[0:4]: 0xc7-0xde.7 (24)
     |                                               |                |      [0]{}: local_time_type 0xc7-0xcc.7 (6)
0x0c0|                     ff ff cc b8               |       ....     |        utoff: -13128 (valid) 0xc7-0xca.7 (4)
0x0c0|                                 00            |           .    |        dst: 0 (valid) 0xcb-0xcb.7 (1)
0x0c0|                                    00         |            .   |        idx: 0 (valid) 0xcc-0xcc.7 (1)
     |                                               |                |      [1]{}: local_time_type 0xcd-0xd2.7 (6)
0x0c0|                                       ff ff d5|             ...|        utoff: -10800 (valid) 0xcd-0xd0.7 (4)
0x0d0|d0                                             |.               |
0x0d0|   01                                          | .              |        dst: 1 (valid) 0xd1-0xd1.7 (1)
0x0d0|      04                                       |  .             |        idx: 4 (valid) 0xd2-0xd2.7 (1)
     |                                               |                |      [2]{}: local_time_type 0xd3-0xd8.7 (6)
0x0d0|         ff ff c7 c0                           |   ....         |        utoff: -14400 (valid) 0xd3-0xd6.7 (4)
0x0d0|                     00                        |       .        |        dst: 0 (valid) 0xd7-0xd7.7 (1)
0x0d0|                        08                     |        .       |        idx: 8 (valid) 0xd8-0xd8.7 (1)
     |                                               |                |      [3]{}: local_time_type 0xd9-0xde.7 (6)
0x0d0|                           ff ff d5 d0         |         ....   |        utoff: -10800 (valid) 0xd9-0xdc.7 (4)
0x0d0|                                       00      |             .  |        dst: 0 (valid) 0xdd-0xdd.7 (1)
0x0d0|                                          04   |              . |        idx: 4 (valid) 0xde-0xde.7 (1)
     |                                               |                |    time_zone_designations[0:3]: 0xdf-0xea.7 (12)
0x0d0|                                             4c|               L|      [0]: "LMT" time_zone_designation 0xdf-0xe2.7 (4)
0x0e0|4d 54 00                                       |MT.             |
0x0e0|         2d 30 33 00                           |   -03.         |      [1]: "-03" time_zone_designation 0xe3-0xe6.7 (4)
0x0e0|                     2d 30 34 00               |       -04.     |      [2]: "-04" time_zone_designation 0xe7-0xea.7 (4)
     |                                               |                |    leap_second_records[0:27]: 0xeb-0x1c2.7 (216)
     |                                               |                |      [0]{}: leap_second_record 0xeb-0xf2.7 (8)
0x0e0|                                 04 b2 58 00   |           ..X. |        occur: "1972-07-01T00:00:00Z" (78796800) 0xeb-0xee.7 (4)
0x0e0|                                             00|               .|        corr: 1 0xef-0xf2.7 (4)
0x0f0|00 00 01                                       |...             |
     |                                               |                |      [1]{}: leap_second_record 0xf3-0xfa.7 (8)
0x0f0|         05 a4 ec 01                           |   ....         |        occur: "1973-01-01T00:00:01Z" (94694401) 0xf3-0xf6.7 (4)
0x0f0|                     00 00 00 02               |       ....     |        corr: 2 0xf7-0xfa.7 (4)
     |                                               |                |      [2]{}: leap_second_record 0xfb-0x102.7 (8)
0x0f0|                                 07 86 1f 82   |           .... |        occur: "1974-01-01T00:00:02Z" (126230402) 0xfb-0xfe.7 (4)
0x0f0|                                             00|               .|        corr: 3 0xff-0x102.7 (4)
0x100|00 00 03                                       |...             |
     |                                               |                |      [3]{}: leap_second_record 0x103-0x10a.7 (8)
0x100|         09 67 53 03                           |   .gS.         |        occur: "1975-01-01T00:00:03Z" (157766403) 0x103-0x106.7 (4)
0x100|                     00 00 00 04               |       ....     |        corr: 4 0x107-0x10a.7 (4)
     |                                               |                |      [4]{}: leap_second_record 0x10b-0x112.7 (8)
0x100|                                 0b 48 86 84   |           .H.. |        occur: "1976-01-01T00:00:04Z" (189302404) 0x10b-0x10e.7 (4)
0x100|                                             00|               .|        corr: 5 0x10f-0x112.7 (4)
0x110|00 00 05                                       |...             |
     |                                               |                |      [5]{}: leap_second_record 0x113-0x11a.7 (8)
0x110|         0d 2b 0b 85                           |   .+..         |        occur: "1977-01-01T00:00:05Z" (220924805) 0x113-0x116.7 (4)
0x110|                     00 00 00 06               |       ....     |        corr: 6 0x117-0x11a.7 (4)
     |                                               |                |      [6]{}: leap_second_record 0x11b-0x122.7 (8)
0x110|                                 0f 0c 3f 06   |           ..?. |        occur: "1978-01-01T00:00:06Z" (252460806) 0x11b-0x11e.7 (4)
0x110|                                             00|               .|        corr: 7 0x11f-0x122.7 (4)
0x120|00 00 07                                       |...             |
     |                                               |                |      [7]{}: leap_second_record 0x123-0x12a.7 (8)
0x120|         10 ed 72 87                           |   ..r.         |        occur: "1979-01-01T00:00:07Z" (283996807) 0x123-0x126.7 (4)
0x120|                     00 00 00 08               |       ....     |        corr: 8 0x127-0x12a.7 (4)
     |                                               |                |      [8]{}: leap_second_record 0x12b-0x132.7 (8)
0x120|                                 12 ce a6 08   |           .... |        occur: "1980-01-01T00:00:08Z" (315532808) 0x12b-0x12e.7 (4)
0x120|                                             00|               .|        corr: 9 0x12f-0x132.7 (4)
0x130|00 00 09                                       |...             |
     |                                               |                |      [9]{}: leap_second_record 0x133-0x13a.7 (8)
0x130|         15 9f ca 89                           |   ....         |        occur: "1981-07-01T00:00:09Z" (362793609) 0x133-0x136.7 (4)
0x130|                     00 00 00 0a               |       ....     |        corr: 10 0x137-0x13a.7 (4)
     |                                               |                |      [10]{}: leap_second_record 0x13b-0x142.7 (8)
0x130|                                 17 80 fe 0a   |           .... |        occur: "1982-07-01T00:00:10Z" (394329610) 0x13b-0x13e.7 (4)
0x130|                                             00|               .|        corr: 11 0x13f-0x142.7 (4)
0x140|00 00 0b                                       |...             |
     |                                               |                |      [11]{}: leap_second_record 0x143-0x14a.7 (8)
0x140|         19 62 31 8b                           |   .b1.         |        occur: "1983-07-01T00:00:11Z" (425865611) 0x143-0x146.7 (4)
0x140|                     00 00 00 0c               |       ....     |        corr: 12 0x147-0x14a.7 (4)
     |                                               |                |      [12]{}: leap_second_record 0x14b-0x152.7 (8)
0x140|                                 1d 25 ea 0c   |           .%.. |        occur: "1985-07-01T00:00:12Z" (489024012) 0x14b-0x14e.7 (4)
0x140|                                             00|               .|        corr: 13 0x14f-0x152.7 (4)
0x150|00 00 0d                                       |...             |
     |                                               |                |      [13]{}: leap_second_record 0x153-0x15a.7 (8)
0x150|         21 da e5 0d                           |   !...         |        occur: "1988-01-01T00:00:13Z" (567993613) 0x153-0x156.7 (4)
0x150|                     00 00 00 0e               |       ....     |        corr: 14 0x157-0x15a.7 (4)
     |                                               |                |      [14]{}: leap_second_record 0x15b-0x162.7 (8)
0x150|                                 25 9e 9d 8e   |           %... |        occur: "1990-01-01T00:00:14Z" (631152014) 0x15b-0x15e.7 (4)
0x150|                                             00|               .|        corr: 15 0x15f-0x162.7 (4)
0x160|00 00 0f                                       |...             |
     |                                               |                |      [15]{}: leap_second_record 0x163-0x16a.7 (8)
0x160|         27 7f d1 0f                           |   '...         |        occur: "1991-01-01T00:00:15Z" (662688015) 0x163-0x166.7 (4)
0x160|                     00 00 00 10               |       ....     |        corr: 16 0x167-0x16a.7 (4)
     |                                               |                |      [16]{}: leap_second_record 0x16b-0x172.7 (8)
0x160|                                 2a 50 f5 90   |           *P.. |        occur: "1992-07-01T00:00:16Z" (709948816) 0x16b-0x16e.7 (4)
0x160|                                             00|               .|        corr: 17 0x16f-0x172.7 (4)
0x170|00 00 11                                       |...             |
     |                                               |                |      [17]{}: leap_second_record 0x173-0x17a.7 (8)
0x170|         2c 32 29 11                           |   ,2).         |        occur: "1993-07-01T00:00:17Z" (741484817) 0x173-0x176.7 (4)
0x170|                     00 00 00 12               |       ....     |        corr: 18 0x177-0x17a.7 (4)
     |                                               |                |      [18]{}: leap_second_record 0x17b-0x182.7 (8)
0x170|                                 2e 13 5c 92   |           ..\. |        occur: "1994-07-01T00:00:18Z" (773020818) 0x17b-0x17e.7 (4)
0x170|                                             00|               .|        corr: 19 0x17f-0x182.7 (4)
0x180|00 00 13                                       |...             |
     |                                               |                |      [19]{}: leap_second_record 0x183-0x18a.7 (8)
0x180|         30 e7 24 13                           |   0.$.         |        occur: "1996-01-01T00:00:19Z" (820454419) 0x183-0x186.7 (4)
0x180|                     00 00 00 14               |       ....     |        corr: 20 0x187-0x18a.7 (4)
     |                                               |                |      [20]{}: leap_second_record 0x18b-0x192.7 (8)
0x180|                                 33 b8 48 94   |           3.H. |        occur: "1997-07-01T00:00:20Z" (867715220) 0x18b-0x18e.7 (4)
0x180|                                             00|               .|        corr: 21 0x18f-0x192.7 (4)
0x190|00 00 15                                       |...             |
     |                                               |                |      [21]{}: leap_second_record 0x193-0x19a.7 (8)
0x190|         36 8c 10 15                           |   6...         |        occur: "1999-01-01T00:00:21Z" (915148821) 0x193-0x196.7 (4)
0x190|                     00 00 00 16               |       ....     |        corr: 22 0x197-0x19a.7 (4)
     |                                               |                |      [22]{}: leap_second_record 0x19b-0x1a2.7 (8)
0x190|                                 43 b7 1b 96   |           C... |        occur: "2006-01-01T00:00:22Z" (1136073622) 0x19b-0x19e.7 (4)
0x190|                                             00|               .|        corr: 23 0x19f-0x1a2.7 (4)
0x1a0|00 00 17                                       |...             |
     |                                               |                |      [23]{}: leap_second_record 0x1a3-0x1aa.7 (8)
0x1a0|         49 5c 07 97                           |   I\..         |        occur: "2009-01-01T00:00:23Z" (1230768023) 0x1a3-0x1a6.7 (4)
0x1a0|                     00 00 00 18               |       ....     |        corr: 24 0x1a7-0x1aa.7 (4)
     |                                               |                |      [24]{}: leap_second_record 0x1ab-0x1b2.7 (8)
0x1a0|                                 4f ef 93 18   |           O... |        occur: "2012-07-01T00:00:24Z" (1341100824) 0x1ab-0x1ae.7 (4)
0x1a0|                                             00|               .|        corr: 25 0x1af-0x1b2.7 (4)
0x1b0|00 00 19                                       |...             |
     |                                               |                |      [25]{}: leap_second_record 0x1b3-0x1ba.7 (8)
0x1b0|         55 93 2d 99                           |   U.-.         |        occur: "2015-07-01T00:00:25Z" (1435708825) 0x1b3-0x1b6.7 (4)
0x1b0|                     00 00 00 1a               |       ....     |        corr: 26 0x1b7-0x1ba.7 (4)
     |                                               |                |      [26]{}: leap_second_record 0x1bb-0x1c2.7 (8)
0x1b0|                                 58 68 46 9a   |           XhF. |        occur: "2017-01-01T00:00:26Z" (1483228826) 0x1bb-0x1be.7 (4)
0x1b0|                                             00|               .|        corr: 27 0x1bf-0x1c2.7 (4)
0x1c0|00 00 1b                                       |...             |
     |                                               |                |    standard_wall_indicators[0:0]: 0x1c3-NA (0)
     |                                               |                |    ut_local_indicators[0:0]: 0x1c3-NA (0)
     |                                               |                |  v2plusheader{}: 0x1c3-0x1ee.7 (44)
0x1c0|         54 5a 69 66                           |   TZif         |    magic: 0x545a6966 (valid) 0x1c3-0x1c6.7 (4)
0x1c0|                     32                        |       2        |    ver: "2" (0x32) (valid) 0x1c7-0x1c7.7 (1)
0x1c0|                        00 00 00 00 00 00 00 00|        ........|    reserved: raw bits 0x1c8-0x1d6.7 (15)
0x1d0|00 00 00 00 00 00 00                           |.......         |
0x1d0|                     00 00 00 00               |       ....     |    isutcnt: 0 0x1d7-0x1da.7 (4)
0x1d0|                                 00 00 00 00   |           .... |    isstdcnt: 0 0x1db-0x1de.7 (4)
0x1d0|                                             00|               .|    leapcnt: 27 0x1df-0x1e2.7 (4)
0x1e0|00 00 1b                                       |...             |
0x1e0|         00 00 00 1f                           |   ....         |    timecnt: 31 0x1e3-0x1e6.7 (4)
0x1e0|                     00 00 00 04               |       ....     |    typecnt: 4 0x1e7-0x1ea.7 (4)
0x1e0|                                 00 00 00 0c   |           .... |    charcnt: 12 0x1eb-0x1ee.7 (4)
     |                                               |                |  v2plusdatablock{}: 0x1ef-0x46d.7 (639)
     |                                               |                |    transition_times[0:31]: 0x1ef-0x2e6.7 (248)
0x1e0|                                             ff|               .|      [0]: "1914-01-01T03:38:48Z" (-1767212472) transition_time 0x1ef-0x1f6.7 (8)
0x1f0|ff ff ff 96 aa 7a 48                           |.....zH         |
0x1f0|                     ff ff ff ff b8 0f 57 f0   |       ......W. |      [1]: "1931-10-03T15:00:00Z" (-1206954000) transition_time 0x1f7-0x1fe.7 (8)
0x1f0|                                             ff|               .|      [2]: "1932-04-01T03:00:00Z" (-1191358800) transition_time 0x1ff-0x206.7 (8)
0x200|ff ff ff b8 fd 4e b0                           |.....N.         |
0x200|                     ff ff ff ff b9 f1 42 40   |       ......B@ |      [3]: "1932-10-03T04:00:00Z" (-1175371200) transition_time 0x207-0x20e.7 (8)
0x200|                                             ff|               .|      [4]: "1933-04-01T03:00:00Z" (-1159822800) transition_time 0x20f-0x216.7 (8)
0x210|ff ff ff ba de 82 30                           |......0         |
0x210|                     ff ff ff ff da 38 bc 40   |       .....8.@ |      [5]: "1949-12-01T04:00:00Z" (-633816000) transition_time 0x217-0x21e.7 (8)
0x210|                                             ff|               .|      [6]: "1950-04-16T04:00:00Z" (-622065600) transition_time 0x21f-0x226.7 (8)
0x220|ff ff ff da ec 08 40                           |......@         |
0x220|                     ff ff ff ff dc 19 ef c0   |       ........ |      [7]: "1950-12-01T04:00:00Z" (-602280000) transition_time 0x227-0x22e.7 (8)
0x220|                                             ff|               .|      [8]: "1951-04-01T03:00:00Z" (-591829200) transition_time 0x22f-0x236.7 (8)
0x230|ff ff ff dc b9 67 30                           |.....g0         |
0x230|                     ff ff ff ff dd fb 23 40   |       ......#@ |      [9]: "1951-12-01T04:00:00Z" (-570744000) transition_time 0x237-0x23e.7 (8)
0x230|                                             ff|               .|      [10]: "1952-04-01T03:00:00Z" (-560206800) transition_time 0x23f-0x246.7 (8)
0x240|ff ff ff de 9b ec 30                           |......0         |
0x240|                     ff ff ff ff df dd a8 40   |       .......@ |      [11]: "1952-12-01T04:00:00Z" (-539121600) transition_time 0x247-0x24e.7 (8)
0x240|                                             ff|               .|      [12]: "1953-03-01T03:00:00Z" (-531349200) transition_time 0x24f-0x256.7 (8)
0x250|ff ff ff e0 54 41 30                           |....TA0         |
0x250|                     ff ff ff ff f4 98 0d c0   |       ........ |      [13]: "1963-12-09T04:00:00Z" (-191361600) transition_time 0x257-0x25e.7 (8)
0x250|                                             ff|               .|      [14]: "1964-03-01T03:00:00Z" (-184194000) transition_time 0x25f-0x266.7 (8)
0x260|ff ff ff f5 05 6c 30                           |.....l0         |
0x260|                     ff ff ff ff f6 c0 72 40   |       ......r@ |      [15]: "1965-01-31T04:00:00Z" (-155160000) transition_time 0x267-0x26e.7 (8)
0x260|                                             ff|               .|      [16]: "1965-03-31T03:00:00Z" (-150066000) transition_time 0x26f-0x276.7 (8)
0x270|ff ff ff f7 0e 2c b0                           |.....,.         |
0x270|                     ff ff ff ff f8 51 3a 40   |       .....Q:@ |      [17]: "1965-12-01T04:00:00Z" (-128894400) transition_time 0x277-0x27e.7 (8)
0x270|                                             ff|               .|      [18]: "1966-03-01T03:00:00Z" (-121122000) transition_time 0x27f-0x286.7 (8)
0x280|ff ff ff f8 c7 d3 30                           |......0         |
0x280|                     ff ff ff ff fa 0a e0 c0   |       ........ |      [19]: "1966-11-01T04:00:00Z" (-99950400) transition_time 0x287-0x28e.7 (8)
0x280|                                             ff|               .|      [20]: "1967-03-01T03:00:00Z" (-89586000) transition_time 0x28f-0x296.7 (8)
0x290|ff ff ff fa a9 06 b0                           |.......         |
0x290|                     ff ff ff ff fb ec 14 40   |       .......@ |      [21]: "1967-11-01T04:00:00Z" (-68414400) transition_time 0x297-0x29e.7 (8)
0x290|                                             ff|               .|      [22]: "1968-03-01T03:00:00Z" (-57963600) transition_time 0x29f-0x2a6.7 (8)
0x2a0|ff ff ff fc 8b 8b b0                           |.......         |
0x2a0|                     00 00 00 00 1d c9 9c 4d   |       .......M |      [23]: "1985-11-02T04:00:13Z" (499752013) transition_time 0x2a7-0x2ae.7 (8)
0x2a0|                                             00|               .|      [24]: "1986-03-15T03:00:13Z" (511239613) transition_time 0x2af-0x2b6.7 (8)
0x2b0|00 00 00 1e 78 e5 bd                           |....x..         |
0x2b0|                     00 00 00 00 1f a0 43 cd   |       ......C. |      [25]: "1986-10-25T04:00:13Z" (530596813) transition_time 0x2b7-0x2be.7 (8)
0x2b0|                                             00|               .|      [26]: "1987-02-14T03:00:13Z" (540270013) transition_time 0x2bf-0x2c6.7 (8)
0x2c0|00 00 00 20 33 dd bd                           |... 3..         |
0x2c0|                     00 00 00 00 21 81 77 4d   |       ....!.wM |      [27]: "1987-10-25T04:00:13Z" (562132813) transition_time 0x2c7-0x2ce.7 (8)
0x2c0|                                             00|               .|      [28]: "1988-02-07T03:00:14Z" (571201214) transition_time 0x2cf-0x2d6.7 (8)
0x2d0|00 00 00 22 0b d6 be                           |..."...         |
0x2d0|                     00 00 00 00 48 60 71 57   |       ....H`qW |      [29]: "2008-06-24T04:00:23Z" (1214280023) transition_time 0x2d7-0x2de.7 (8)
0x2d0|                                             00|               .|      [30]: "2023-06-28T00:00:27Z" (1687910427) transition_time 0x2df-0x2e6.7 (8)
0x2e0|00 00 00 64 9b 78 1b                           |...d.x.         |
     |                                               |                |    transition_types[0:31]: 0x2e7-0x305.7 (31)
0x2e0|                     02                        |       .        |      [0]: 2 transition_type 0x2e7-0x2e7.7 (1)
0x2e0|                        01                     |        .       |      [1]: 1 transition_type 0x2e8-0x2e8.7 (1)
0x2e0|                           02                  |         .      |      [2]: 2 transition_type 0x2e9-0x2e9.7 (1)
0x2e0|                              01               |          .     |      [3]: 1 transition_type 0x2ea-0x2ea.7 (1)
0x2e0|                                 02            |           .    |      [4]: 2 transition_type 0x2eb-0x2eb.7 (1)
0x2e0|                                    01         |            .   |      [5]: 1 transition_type 0x2ec-0x2ec.7 (1)
0x2e0|                                       02      |             .  |      [6]: 2 transition_type 0x2ed-0x2ed.7 (1)
0x2e0|                                          01   |              . |      [7]: 1 transition_type 0x2ee-0x2ee.7 (1)
0x2e0|                                             02|               .|      [8]: 2 transition_type 0x2ef-0x2ef.7 (1)
0x2f0|01                                             |.               |      [9]: 1 transition_type 0x2f0-0x2f0.7 (1)
0x2f0|   02                                          | .              |      [10]: 2 transition_type 0x2f1-0x2f1.7 (1)
0x2f0|      01                                       |  .             |      [11]: 1 transition_type 0x2f2-0x2f2.7 (1)
0x2f0|         02                                    |   .            |      [12]: 2 transition_type 0x2f3-0x2f3.7 (1)
0x2f0|            01                                 |    .           |      [13]: 1 transition_type 0x2f4-0x2f4.7 (1)
0x2f0|               02                              |     .          |      [14]: 2 transition_type 0x2f5-0x2f5.7 (1)
0x2f0|                  01                           |      .         |      [15]: 1 transition_type 0x2f6-0x2f6.7 (1)
0x2f0|                     02                        |       .        |      [16]: 2 transition_type 0x2f7-0x2f7.7 (1)
0x2f0|                        01                     |        .       |      [17]: 1 transition_type 0x2f8-0x2f8.7 (1)
0x2f0|                           02                  |         .      |      [18]: 2 transition_type 0x2f9-0x2f9.7 (1)
0x2f0|                              01               |          .     |      [19]: 1 transition_type 0x2fa-0x2fa.7 (1)
0x2f0|                                 02            |           .    |      [20]: 2 transition_type 0x2fb-0x2fb.7 (1)
0x2f0|                                    01         |            .   |      [21]: 1 transition_type 0x2fc-0x2fc.7 (1)
0x2f0|                                       02      |             .  |      [22]: 2 transition_type 0x2fd-0x2fd.7 (1)
0x2f0|                                          01   |              . |      [23]: 1 transition_type 0x2fe-0x2fe.7 (1)
0x2f0|                                             02|               .|      [24]: 2 transition_type 0x2ff-0x2ff.7 (1)
0x300|01                                             |.               |      [25]: 1 transition_type 0x300-0x300.7 (1)
0x300|   02                                          | .              |      [26]: 2 transition_type 0x301-0x301.7 (1)
0x300|      01                                       |  .             |      [27]: 1 transition_type 0x302-0x302.7 (1)
0x300|         02                                    |   .            |      [28]: 2 transition_type 0x303-0x303.7 (1)
0x300|            03                                 |    .           |      [29]: 3 transition_type 0x304-0x304.7 (1)
0x300|               03                              |     .          |      [30]: 3 transition_type 0x305-0x305.7 (1)
     |                                               |                |    local_time_type_records[0:4]: 0x306-0x31d.7 (24)
     |                                               |                |      [0]{}: local_time_type 0x306-0x30b.7 (6)
0x300|                  ff ff cc b8                  |      ....      |        utoff: -13128 (valid) 0x306-0x309.7 (4)
0x300|                              00               |          .     |        dst: 0 (valid) 0x30a-0x30a.7 (1)
0x300|                                 00            |           .    |        idx: 0 (valid) 0x30b-0x30b.7 (1)
     |                                               |                |      [1]{}: local_time_type 0x30c-0x311.7 (6)
0x300|                                    ff ff d5 d0|            ....|        utoff: -10800 (valid) 0x30c-0x30f.7 (4)
0x310|01                                             |.               |        dst: 1 (valid) 0x310-0x310.7 (1)
0x310|   04                                          | .              |        idx: 4 (valid) 0x311-0x311.7 (1)
     |                                               |                |      [2]{}: local_time_type 0x312-0x317.7 (6)
0x310|      ff ff c7 c0                              |  ....          |        utoff: -14400 (valid) 0x312-0x315.7 (4)
0x310|                  00                           |      .         |        dst: 0 (valid) 0x316-0x316.7 (1)
0x310|                     08                        |       .        |        idx: 8 (valid) 0x317-0x317.7 (1)
     |                                               |                |      [3]{}: local_time_type 0x318-0x31d.7 (6)
0x310|                        ff ff d5 d0            |        ....    |        utoff: -10800 (valid) 0x318-0x31b.7 (4)
0x310|                                    00         |            .   |        dst: 0 (valid) 0x31c-0x31c.7 (1)
0x310|                                       04      |             .  |        idx: 4 (valid) 0x31d-0x31d.7 (1)
     |                                               |                |    time_zone_designations[0:3]: 0x31e-0x329.7 (12)
0x310|                                          4c 4d|              LM|      [0]: "LMT" time_zone_designation 0x31e-0x321.7 (4)
0x320|54 00                                          |T.              |
0x320|      2d 30 33 00                              |  -03.          |      [1]: "-03" time_zone_designation 0x322-0x325.7 (4)
0x320|                  2d 30 34 00                  |      -04.      |      [2]: "-04" time_zone_designation 0x326-0x329.7 (4)
     |                                               |                |    leap_second_records[0:27]: 0x32a-0x46d.7 (324)
     |                                               |                |      [0]{}: leap_second_record 0x32a-0x335.7 (12)
0x320|                              00 00 00 00 04 b2|          ......|        occur: "1972-07-01T00:00:00Z" (78796800) 0x32a-0x331.7 (8)
0x330|58 00                                          |X.              |
0x330|      00 00 00 01                              |  ....          |        corr: 1 0x332-0x335.7 (4)
     |                                               |                |      [1]{}: leap_second_record 0x336-0x341.7 (12)
0x330|                  00 00 00 00 05 a4 ec 01      |      ........  |        occur: "1973-01-01T00:00:01Z" (94694401) 0x336-0x33d.7 (8)
0x330|                                          00 00|              ..|        corr: 2 0x33e-0x341.7 (4)
0x340|00 02                                          |..              |
     |                                               |                |      [2]{}: leap_second_record 0x342-0x34d.7 (12)
0x340|      00 00 00 00 07 86 1f 82                  |  ........      |        occur: "1974-01-01T00:00:02Z" (126230402) 0x342-0x349.7 (8)
0x340|                              00 00 00 03      |          ....  |        corr: 3 0x34a-0x34d.7 (4)
     |                                               |                |      [3]{}: leap_second_record 0x34e-0x359.7 (12)
0x340|                                          00 00|              ..|        occur: "1975-01-01T00:00:03Z" (157766403) 0x34e-0x355.7 (8)
0x350|00 00 09 67 53 03                              |...gS.          |
0x350|                  00 00 00 04                  |      ....      |        corr: 4 0x356-0x359.7 (4)
     |                                               |                |      [4]{}: leap_second_record 0x35a-0x365.7 (12)
0x350|                              00 00 00 00 0b 48|          .....H|        occur: "1976-01-01T00:00:04Z" (189302404) 0x35a-0x361.7 (8)
0x360|86 84                                          |..              |
0x360|      00 00 00 05                              |  ....          |        corr: 5 0x362-0x365.7 (4)
     |                                               |                |      [5]{}: leap_second_record 0x366-0x371.7 (12)
0x360|                  00 00 00 00 0d 2b 0b 85      |      .....+..  |        occur: "1977-01-01T00:00:05Z" (220924805) 0x366-0x36d.7 (8)
0x360|                                          00 00|              ..|        corr: 6 0x36e-0x371.7 (4)
0x370|00 06                                          |..              |
     |                                               |                |      [6]{}: leap_second_record 0x372-0x37d.7 (12)
0x370|      00 00 00 00 0f 0c 3f 06                  |  ......?.      |        occur: "1978-01-01T00:00:06Z" (252460806) 0x372-0x379.7 (8)
0x370|                              00 00 00 07      |          ....  |        corr: 7 0x37a-0x37d.7 (4)
     |                                               |                |      [7]{}: leap_second_record 0x37e-0x389.7 (12)
0x370|                                          00 00|              ..|        occur: "1979-01-01T00:00:07Z" (283996807) 0x37e-0x385.7 (8)
0x380|00 00 10 ed 72 87                              |....r.          |
0x380|                  00 00 00 08                  |      ....      |        corr: 8 0x386-0x389.7 (4)
     |                                               |                |      [8]{}: leap_second_record 0x38a-0x395.7 (12)
0x380|                              00 00 00 00 12 ce|          ......|        occur: "1980-01-01T00:00:08Z" (315532808) 0x38a-0x391.7 (8)
0x390|a6 08                                          |..              |
0x390|      00 00 00 09                              |  ....          |        corr: 9 0x392-0x395.7 (4)
     |                                               |                |      [9]{}: leap_second_record 0x396-0x3a1.7 (12)
0x390|                  00 00 00 00 15 9f ca 89      |      ........  |        occur: "1981-07-01T00:00:09Z" (362793609) 0x396-0x39d.7 (8)
0x390|                                          00 00|              ..|        corr: 10 0x39e-0x3a1.7 (4)
0x3a0|00 0a                                          |..              |
     |                                               |                |      [10]{}: leap_second_record 0x3a2-0x3ad.7 (12)
0x3a0|      00 00 00 00 17 80 fe 0a                  |  ........      |        occur: "1982-07-01T00:00:10Z" (394329610) 0x3a2-0x3a9.7 (8)
0x3a0|                              00 00 00 0b      |          ....  |        corr: 11 0x3aa-0x3ad.7 (4)
     |                                               |                |      [11]{}: leap_second_record 0x3ae-0x3b9.7 (12)
0x3a0|                                          00 00|              ..|        occur: "1983-07-01T00:00:11Z" (425865611) 0x3ae-0x3b5.7 (8)
0x3b0|00 00 19 62 31 8b                              |...b1.          |
0x3b0|                  00 00 00 0c                  |      ....      |        corr: 12 0x3b6-0x3b9.7 (4)
     |                                               |                |      [12]{}: leap_second_record 0x3ba-0x3c5.7 (12)
0x3b0|                              00 00 00 00 1d 25|          .....%|        occur: "1985-07-01T00:00:12Z" (489024012) 0x3ba-0x3c1.7 (8)
0x3c0|ea 0c                                          |..              |
0x3c0|      00 00 00 0d                              |  ....          |        corr: 13 0x3c2-0x3c5.7 (4)
     |                                               |                |      [13]{}: leap_second_record 0x3c6-0x3d1.7 (12)
0x3c0|                  00 00 00 00 21 da e5 0d      |      ....!...  |        occur: "1988-01-01T00:00:13Z" (567993613) 0x3c6-0x3cd.7 (8)
0x3c0|                                          00 00|              ..|        corr: 14 0x3ce-0x3d1.7 (4)
0x3d0|00 0e                                          |..              |
     |                                               |                |      [14]{}: leap_second_record 0x3d2-0x3dd.7 (12)
0x3d0|      00 00 00 00 25 9e 9d 8e                  |  ....%...      |        occur: "1990-01-01T00:00:14Z" (631152014) 0x3d2-0x3d9.7 (8)
0x3d0|                              00 00 00 0f      |          ....  |        corr: 15 0x3da-0x3dd.7 (4)
     |                                               |                |      [15]{}: leap_second_record 0x3de-0x3e9.7 (12)
0x3d0|                                          00 00|              ..|        occur: "1991-01-01T00:00:15Z" (662688015) 0x3de-0x3e5.7 (8)
0x3e0|00 00 27 7f d1 0f                              |..'...          |
0x3e0|                  00 00 00 10                  |      ....      |        corr: 16 0x3e6-0x3e9.7 (4)
     |                                               |                |      [16]{}: leap_second_record 0x3ea-0x3f5.7 (12)
0x3e0|                              00 00 00 00 2a 50|          ....*P|        occur: "1992-07-01T00:00:16Z" (709948816) 0x3ea-0x3f1.7 (8)
0x3f0|f5 90                                          |..              |
0x3f0|      00 00 00 11                              |  ....          |        corr: 17 0x3f2-0x3f5.7 (4)
     |                                               |                |      [17]{}: leap_second_record 0x3f6-0x401.7 (12)
0x3f0|                  00 00 00 00 2c 32 29 11      |      ....,2).  |        occur: "1993-07-01T00:00:17Z" (741484817) 0x3f6-0x3fd.7 (8)
0x3f0|                                          00 00|              ..|        corr: 18 0x3fe-0x401.7 (4)
0x400|00 12                                          |..              |
     |                                               |                |      [18]{}: leap_second_record 0x402-0x40d.7 (12)
0x400|      00 00 00 00 2e 13 5c 92                  |  ......\.      |        occur: "1994-07-01T00:00:18Z" (773020818) 0x402-0x409.7 (8)
0x400|                              00 00 00 13      |          ....  |        corr: 19 0x40a-0x40d.7 (4)
     |                                               |                |      [19]{}: leap_second_record 0x40e-0x419.7 (12)
0x400|                                          00 00|              ..|        occur: "1996-01-01T00:00:19Z" (820454419) 0x40e-0x415.7 (8)
0x410|00 00 30 e7 24 13                              |..0.$.          |
0x410|                  00 00 00 14                  |      ....      |        corr: 20 0x416-0x419.7 (4)
     |                                               |                |      [20]{}: leap_second_record 0x41a-0x425.7 (12)
0x410|                              00 00 00 00 33 b8|          ....3.|        occur: "1997-07-01T00:00:20Z" (867715220) 0x41a-0x421.7 (8)
0x420|48 94                                          |H.              |
0x420|      00 00 00 15                              |  ....          |        corr: 21 0x422-0x425.7 (4)
     |                                               |                |      [21]{}: leap_second_record 0x426-0x431.7 (12)
0x420|                  00 00 00 00 36 8c 10 15      |      ....6...  |        occur: "1999-01-01T00:00:21Z" (915148821) 0x426-0x42d.7 (8)
0x420|                                          00 00|              ..|        corr: 22 0x42e-0x431.7 (4)
0x430|00 16                                          |..              |
     |                                               |                |      [22]{}: leap_second_record 0x432-0x43d.7 (12)
0x430|      00 00 00 00 43 b7 1b 96                  |  ....C...      |        occur: "2006-01-01T00:00:22Z" (1136073622) 0x432-0x439.7 (8)
0x430|                              00 00 00 17      |          ....  |        corr: 23 0x43a-0x43d.7 (4)
     |                                               |                |      [23]{}: leap_second_record 0x43e-0x449.7 (12)
0x430|                                          00 00|              ..|        occur: "2009-01-01T00:00:23Z" (1230768023) 0x43e-0x445.7 (8)
0x440|00 00 49 5c 07 97                              |..I\..          |
0x440|                  00 00 00 18                  |      ....      |        corr: 24 0x446-0x449.7 (4)
     |                                               |                |      [24]{}: leap_second_record 0x44a-0x455.7 (12)
0x440|                              00 00 00 00 4f ef|          ....O.|        occur: "2012-07-01T00:00:24Z" (1341100824) 0x44a-0x451.7 (8)
0x450|93 18                                          |..              |
0x450|      00 00 00 19                              |  ....          |        corr: 25 0x452-0x455.7 (4)
     |                                               |                |      [25]{}: leap_second_record 0x456-0x461.7 (12)
0x450|                  00 00 00 00 55 93 2d 99      |      ....U.-.  |        occur: "2015-07-01T00:00:25Z" (1435708825) 0x456-0x45d.7 (8)
0x450|                                          00 00|              ..|        corr: 26 0x45e-0x461.7 (4)
0x460|00 1a                                          |..              |
     |                                               |                |      [26]{}: leap_second_record 0x462-0x46d.7 (12)
0x460|      00 00 00 00 58 68 46 9a                  |  ....XhF.      |        occur: "2017-01-01T00:00:26Z" (1483228826) 0x462-0x469.7 (8)
0x460|                              00 00 00 1b      |          ....  |        corr: 27 0x46a-0x46d.7 (4)
     |                                               |                |    standard_wall_indicators[0:0]: 0x46e-NA (0)
     |                                               |                |    ut_local_indicators[0:0]: 0x46e-NA (0)
     |                                               |                |  footer{}: 0x46e-0x46f.7 (2)
0x460|                                          0a   |              . |    nl1: 10 (valid) 0x46e-0x46e.7 (1)
     |                                               |                |    tz_string: "" 0x46f-NA (0)
0x460|                                             0a|               .|    nl2: 10 (valid) 0x46f-0x46f.7 (1)
