$ fq -d tzif dv Sao_Paulo
     |00 01 02 03 04 05 06 07 08 09 0a 0b 0c 0d 0e 0f|0123456789abcdef|.{}: Sao_Paulo (tzif) 0x0-0x7ba (1978)
     |                                               |                |  v1header{}: 0x0-0x2c (44)
0x000|54 5a 69 66                                    |TZif            |    magic: 0x545a6966 (valid) 0x0-0x4 (4)
0x000|            32                                 |    2           |    ver: "2" (0x32) (valid) 0x4-0x5 (1)
0x000|               00 00 00 00 00 00 00 00 00 00 00|     ...........|    reserved: raw bits 0x5-0x14 (15)
0x010|00 00 00 00                                    |....            |
0x010|            00 00 00 00                        |    ....        |    isutcnt: 0 0x14-0x18 (4)
0x010|                        00 00 00 00            |        ....    |    isstdcnt: 0 0x18-0x1c (4)
0x010|                                    00 00 00 1b|            ....|    leapcnt: 27 0x1c-0x20 (4)
0x020|00 00 00 5c                                    |...\            |    timecnt: 92 0x20-0x24 (4)
0x020|            00 00 00 03                        |    ....        |    typecnt: 3 0x24-0x28 (4)
0x020|                        00 00 00 0c            |        ....    |    charcnt: 12 0x28-0x2c (4)
     |                                               |                |  v1datablock{}: 0x2c-0x2ee (706)
     |                                               |                |    transition_times[0:92]: 0x2c-0x19c (368)
0x020|                                    96 aa 72 b4|            ..r.|      [0]: "1914-01-01T03:06:28Z" (-1767214412) transition_time 0x2c-0x30 (4)
0x030|b8 0f 49 e0                                    |..I.            |      [1]: "1931-10-03T14:00:00Z" (-1206957600) transition_time 0x30-0x34 (4)
0x030|            b8 fd 40 a0                        |    ..@.        |      [2]: "1932-04-01T02:00:00Z" (-1191362400) transition_time 0x34-0x38 (4)
0x030|                        b9 f1 34 30            |        ..40    |      [3]: "1932-10-03T03:00:00Z" (-1175374800) transition_time 0x38-0x3c (4)
0x030|                                    ba de 74 20|            ..t |      [4]: "1933-04-01T02:00:00Z" (-1159826400) transition_time 0x3c-0x40 (4)
0x040|da 38 ae 30                                    |.8.0            |      [5]: "1949-12-01T03:00:00Z" (-633819600) transition_time 0x40-0x44 (4)
0x040|            da eb fa 30                        |    ...0        |      [6]: "1950-04-16T03:00:00Z" (-622069200) transition_time 0x44-0x48 (4)
0x040|                        dc 19 e1 b0            |        ....    |      [7]: "1950-12-01T03:00:00Z" (-602283600) transition_time 0x48-0x4c (4)
0x040|                                    dc b9 59 20|            ..Y |      [8]: "1951-04-01T02:00:00Z" (-591832800) transition_time 0x4c-0x50 (4)
0x050|dd fb 15 30                                    |...0            |      [9]: "1951-12-01T03:00:00Z" (-570747600) transition_time 0x50-0x54 (4)
0x050|            de 9b de 20                        |    ...         |      [10]: "1952-04-01T02:00:00Z" (-560210400) transition_time 0x54-0x58 (4)
0x050|                        df dd 9a 30            |        ...0    |      [11]: "1952-12-01T03:00:00Z" (-539125200) transition_time 0x58-0x5c (4)
0x050|                                    e0 54 33 20|            .T3 |      [12]: "1953-03-01T02:00:00Z" (-531352800) transition_time 0x5c-0x60 (4)
0x060|f4 5a 09 30                                    |.Z.0            |      [13]: "1963-10-23T03:00:00Z" (-195426000) transition_time 0x60-0x64 (4)
0x060|            f5 05 5e 20                        |    ..^         |      [14]: "1964-03-01T02:00:00Z" (-184197600) transition_time 0x64-0x68 (4)
0x060|                        f6 c0 64 30            |        ..d0    |      [15]: "1965-01-31T03:00:00Z" (-155163600) transition_time 0x68-0x6c (4)
0x060|                                    f7 0e 1e a0|            ....|      [16]: "1965-03-31T02:00:00Z" (-150069600) transition_time 0x6c-0x70 (4)
0x070|f8 51 2c 30                                    |.Q,0            |      [17]: "1965-12-01T03:00:00Z" (-128898000) transition_time 0x70-0x74 (4)
0x070|            f8 c7 c5 20                        |    ...         |      [18]: "1966-03-01T02:00:00Z" (-121125600) transition_time 0x74-0x78 (4)
0x070|                        fa 0a d2 b0            |        ....    |      [19]: "1966-11-01T03:00:00Z" (-99954000) transition_time 0x78-0x7c (4)
0x070|                                    fa a8 f8 a0|            ....|      [20]: "1967-03-01T02:00:00Z" (-89589600) transition_time 0x7c-0x80 (4)
0x080|fb ec 06 30                                    |...0            |      [21]: "1967-11-01T03:00:00Z" (-68418000) transition_time 0x80-0x84 (4)
0x080|            fc 8b 7d a0                        |    ..}.        |      [22]: "1968-03-01T02:00:00Z" (-57967200) transition_time 0x84-0x88 (4)
0x080|                        1d c9 8e 3d            |        ...=    |      [23]: "1985-11-02T03:00:13Z" (499748413) transition_time 0x88-0x8c (4)
0x080|                                    1e 78 d7 ad|            .x..|      [24]: "1986-03-15T02:00:13Z" (511236013) transition_time 0x8c-0x90 (4)
0x090|1f a0 35 bd                                    |..5.            |      [25]: "1986-10-25T03:00:13Z" (530593213) transition_time 0x90-0x94 (4)
0x090|            20 33 cf ad                        |     3..        |      [26]: "1987-02-14T02:00:13Z" (540266413) transition_time 0x94-0x98 (4)
0x090|                        21 81 69 3d            |        !.i=    |      [27]: "1987-10-25T03:00:13Z" (562129213) transition_time 0x98-0x9c (4)
0x090|                                    22 0b c8 ae|            "...|      [28]: "1988-02-07T02:00:14Z" (571197614) transition_time 0x9c-0xa0 (4)
0x0a0|23 58 10 be                                    |#X..            |      [29]: "1988-10-16T03:00:14Z" (592974014) transition_time 0xa0-0xa4 (4)
0x0a0|            23 e2 70 2e                        |    #.p.        |      [30]: "1989-01-29T02:00:14Z" (602042414) transition_time 0xa4-0xa8 (4)
0x0a0|                        25 37 f2 be            |        %7..    |      [31]: "1989-10-15T03:00:14Z" (624423614) transition_time 0xa8-0xac (4)
0x0a0|                                    25 d4 c7 2f|            %../|      [32]: "1990-02-11T02:00:15Z" (634701615) transition_time 0xac-0xb0 (4)
0x0b0|27 21 0f 3f                                    |'!.?            |      [33]: "1990-10-21T03:00:15Z" (656478015) transition_time 0xb0-0xb4 (4)
0x0b0|            27 bd e3 b0                        |    '...        |      [34]: "1991-02-17T02:00:16Z" (666756016) transition_time 0xb4-0xb8 (4)
0x0b0|                        29 00 f1 40            |        )..@    |      [35]: "1991-10-20T03:00:16Z" (687927616) transition_time 0xb8-0xbc (4)
0x0b0|                                    29 94 8b 30|            )..0|      [36]: "1992-02-09T02:00:16Z" (697600816) transition_time 0xbc-0xc0 (4)
0x0c0|2a ea 0d c1                                    |*...            |      [37]: "1992-10-25T03:00:17Z" (719982017) transition_time 0xc0-0xc4 (4)
0x0c0|            2b 6b 32 b1                        |    +k2.        |      [38]: "1993-01-31T02:00:17Z" (728445617) transition_time 0xc4-0xc8 (4)
0x0c0|                        2c c0 b5 42            |        ,..B    |      [39]: "1993-10-17T03:00:18Z" (750826818) transition_time 0xc8-0xcc (4)
0x0c0|                                    2d 66 c4 32|            -f.2|      [40]: "1994-02-20T02:00:18Z" (761709618) transition_time 0xcc-0xd0 (4)
0x0d0|2e a0 97 43                                    |...C            |      [41]: "1994-10-16T03:00:19Z" (782276419) transition_time 0xd0-0xd4 (4)
0x0d0|            2f 46 a6 33                        |    /F.3        |      [42]: "1995-02-19T02:00:19Z" (793159219) transition_time 0xd4-0xd8 (4)
0x0d0|                        30 80 79 43            |        0.yC    |      [43]: "1995-10-15T03:00:19Z" (813726019) transition_time 0xd8-0xdc (4)
0x0d0|                                    31 1d 4d b4|            1.M.|      [44]: "1996-02-11T02:00:20Z" (824004020) transition_time 0xdc-0xe0 (4)
0x0e0|32 57 20 c4                                    |2W .            |      [45]: "1996-10-06T03:00:20Z" (844570820) transition_time 0xe0-0xe4 (4)
0x0e0|            33 06 6a 34                        |    3.j4        |      [46]: "1997-02-16T02:00:20Z" (856058420) transition_time 0xe4-0xe8 (4)
0x0e0|                        34 38 54 45            |        48TE    |      [47]: "1997-10-06T03:00:21Z" (876106821) transition_time 0xe8-0xec (4)
0x0e0|                                    34 f8 c1 35|            4..5|      [48]: "1998-03-01T02:00:21Z" (888717621) transition_time 0xec-0xf0 (4)
0x0f0|36 20 1f 45                                    |6 .E            |      [49]: "1998-10-11T03:00:21Z" (908074821) transition_time 0xf0-0xf4 (4)
0x0f0|            36 cf 68 b6                        |    6.h.        |      [50]: "1999-02-21T02:00:22Z" (919562422) transition_time 0xf4-0xf8 (4)
0x0f0|                        37 f6 c6 c6            |        7...    |      [51]: "1999-10-03T03:00:22Z" (938919622) transition_time 0xf8-0xfc (4)
0x0f0|                                    38 b8 85 36|            8..6|      [52]: "2000-02-27T02:00:22Z" (951616822) transition_time 0xfc-0x100 (4)
0x100|39 df e3 46                                    |9..F            |      [53]: "2000-10-08T03:00:22Z" (970974022) transition_time 0x100-0x104 (4)
0x100|            3a 8f 2c b6                        |    :.,.        |      [54]: "2001-02-18T02:00:22Z" (982461622) transition_time 0x104-0x108 (4)
0x100|                        3b c8 ff c6            |        ;...    |      [55]: "2001-10-14T03:00:22Z" (1003028422) transition_time 0x108-0x10c (4)
0x100|                                    3c 6f 0e b6|            <o..|      [56]: "2002-02-17T02:00:22Z" (1013911222) transition_time 0x10c-0x110 (4)
0x110|3d c4 91 46                                    |=..F            |      [57]: "2002-11-03T03:00:22Z" (1036292422) transition_time 0x110-0x114 (4)
0x110|            3e 4e f0 b6                        |    >N..        |      [58]: "2003-02-16T02:00:22Z" (1045360822) transition_time 0x114-0x118 (4)
0x110|                        3f 91 fe 46            |        ?..F    |      [59]: "2003-10-19T03:00:22Z" (1066532422) transition_time 0x118-0x11c (4)
0x110|                                    40 2e d2 b6|            @...|      [60]: "2004-02-15T02:00:22Z" (1076810422) transition_time 0x11c-0x120 (4)
0x120|41 86 f8 46                                    |A..F            |      [61]: "2004-11-02T03:00:22Z" (1099364422) transition_time 0x120-0x124 (4)
0x120|            42 17 ef 36                        |    B..6        |      [62]: "2005-02-20T02:00:22Z" (1108864822) transition_time 0x124-0x128 (4)
0x120|                        43 51 c2 46            |        CQ.F    |      [63]: "2005-10-16T03:00:22Z" (1129431622) transition_time 0x128-0x12c (4)
0x120|                                    43 f7 d1 37|            C..7|      [64]: "2006-02-19T02:00:23Z" (1140314423) transition_time 0x12c-0x130 (4)
0x130|45 4d 53 c7                                    |EMS.            |      [65]: "2006-11-05T03:00:23Z" (1162695623) transition_time 0x130-0x134 (4)
0x130|            45 e0 ed b7                        |    E...        |      [66]: "2007-02-25T02:00:23Z" (1172368823) transition_time 0x134-0x138 (4)
0x130|                        47 11 86 47            |        G..G    |      [67]: "2007-10-14T03:00:23Z" (1192330823) transition_time 0x138-0x13c (4)
0x130|                                    47 b7 95 37|            G..7|      [68]: "2008-02-17T02:00:23Z" (1203213623) transition_time 0x13c-0x140 (4)
0x140|48 fa a2 c7                                    |H...            |      [69]: "2008-10-19T03:00:23Z" (1224385223) transition_time 0x140-0x144 (4)
0x140|            49 97 77 38                        |    I.w8        |      [70]: "2009-02-15T02:00:24Z" (1234663224) transition_time 0x144-0x148 (4)
0x140|                        4a da 84 c8            |        J...    |      [71]: "2009-10-18T03:00:24Z" (1255834824) transition_time 0x148-0x14c (4)
0x140|                                    4b 80 93 b8|            K...|      [72]: "2010-02-21T02:00:24Z" (1266717624) transition_time 0x14c-0x150 (4)
0x150|4c ba 66 c8                                    |L.f.            |      [73]: "2010-10-17T03:00:24Z" (1287284424) transition_time 0x150-0x154 (4)
0x150|            4d 60 75 b8                        |    M`u.        |      [74]: "2011-02-20T02:00:24Z" (1298167224) transition_time 0x154-0x158 (4)
0x150|                        4e 9a 48 c8            |        N.H.    |      [75]: "2011-10-16T03:00:24Z" (1318734024) transition_time 0x158-0x15c (4)
0x150|                                    4f 49 92 38|            OI.8|      [76]: "2012-02-26T02:00:24Z" (1330221624) transition_time 0x15c-0x160 (4)
0x160|50 83 65 49                                    |P.eI            |      [77]: "2012-10-21T03:00:25Z" (1350788425) transition_time 0x160-0x164 (4)
0x160|            51 20 39 b9                        |    Q 9.        |      [78]: "2013-02-17T02:00:25Z" (1361066425) transition_time 0x164-0x168 (4)
0x160|                        52 63 47 49            |        RcGI    |      [79]: "2013-10-20T03:00:25Z" (1382238025) transition_time 0x168-0x16c (4)
0x160|                                    53 00 1b b9|            S...|      [80]: "2014-02-16T02:00:25Z" (1392516025) transition_time 0x16c-0x170 (4)
0x170|54 43 29 49                                    |TC)I            |      [81]: "2014-10-19T03:00:25Z" (1413687625) transition_time 0x170-0x174 (4)
0x170|            54 e9 38 39                        |    T.89        |      [82]: "2015-02-22T02:00:25Z" (1424570425) transition_time 0x174-0x178 (4)
0x170|                        56 23 0b 4a            |        V#.J    |      [83]: "2015-10-18T03:00:26Z" (1445137226) transition_time 0x178-0x17c (4)
0x170|                                    56 c9 1a 3a|            V..:|      [84]: "2016-02-21T02:00:26Z" (1456020026) transition_time 0x17c-0x180 (4)
0x180|58 02 ed 4a                                    |X..J            |      [85]: "2016-10-16T03:00:26Z" (1476586826) transition_time 0x180-0x184 (4)
0x180|            58 a8 fc 3b                        |    X..;        |      [86]: "2017-02-19T02:00:27Z" (1487469627) transition_time 0x184-0x188 (4)
0x180|                        59 e2 cf 4b            |        Y..K    |      [87]: "2017-10-15T03:00:27Z" (1508036427) transition_time 0x188-0x18c (4)
0x180|                                    5a 88 de 3b|            Z..;|      [88]: "2018-02-18T02:00:27Z" (1518919227) transition_time 0x18c-0x190 (4)
0x190|5b de 60 cb                                    |[.`.            |      [89]: "2018-11-04T03:00:27Z" (1541300427) transition_time 0x190-0x194 (4)
0x190|            5c 68 c0 3b                        |    \h.;        |      [90]: "2019-02-17T02:00:27Z" (1550368827) transition_time 0x194-0x198 (4)
0x190|                        64 9b 78 1b            |        d.x.    |      [91]: "2023-06-28T00:00:27Z" (1687910427) transition_time 0x198-0x19c (4)
     |                                               |                |    transition_types[0:92]: 0x19c-0x1f8 (92)
0x190|                                    02         |            .   |      [0]: 2 transition_type 0x19c-0x19d (1)
0x190|                                       01      |             .  |      [1]: 1 transition_type 0x19d-0x19e (1)
0x190|                                          02   |              . |      [2]: 2 transition_type 0x19e-0x19f (1)
0x190|                                             01|               .|      [3]: 1 transition_type 0x19f-0x1a0 (1)
0x1a0|02                                             |.               |      [4]: 2 transition_type 0x1a0-0x1a1 (1)
0x1a0|   01                                          | .              |      [5]: 1 transition_type 0x1a1-0x1a2 (1)
0x1a0|      02                                       |  .             |      [6]: 2 transition_type 0x1a2-0x1a3 (1)
0x1a0|         01                                    |   .            |      [7]: 1 transition_type 0x1a3-0x1a4 (1)
0x1a0|            02                                 |    .           |      [8]: 2 transition_type 0x1a4-0x1a5 (1)
0x1a0|               01                              |     .          |      [9]: 1 transition_type 0x1a5-0x1a6 (1)
0x1a0|                  02                           |      .         |      [10]: 2 transition_type 0x1a6-0x1a7 (1)
0x1a0|                     01                        |       .        |      [11]: 1 transition_type 0x1a7-0x1a8 (1)
0x1a0|                        02                     |        .       |      [12]: 2 transition_type 0x1a8-0x1a9 (1)
0x1a0|                           01                  |         .      |      [13]: 1 transition_type 0x1a9-0x1aa (1)
0x1a0|                              02               |          .     |      [14]: 2 transition_type 0x1aa-0x1ab (1)
0x1a0|                                 01            |           .    |      [15]: 1 transition_type 0x1ab-0x1ac (1)
0x1a0|                                    02         |            .   |      [16]: 2 transition_type 0x1ac-0x1ad (1)
0x1a0|                                       01      |             .  |      [17]: 1 transition_type 0x1ad-0x1ae (1)
0x1a0|                                          02   |              . |      [18]: 2 transition_type 0x1ae-0x1af (1)
0x1a0|                                             01|               .|      [19]: 1 transition_type 0x1af-0x1b0 (1)
0x1b0|02                                             |.               |      [20]: 2 transition_type 0x1b0-0x1b1 (1)
0x1b0|   01                                          | .              |      [21]: 1 transition_type 0x1b1-0x1b2 (1)
0x1b0|      02                                       |  .             |      [22]: 2 transition_type 0x1b2-0x1b3 (1)
0x1b0|         01                                    |   .            |      [23]: 1 transition_type 0x1b3-0x1b4 (1)
0x1b0|            02                                 |    .           |      [24]: 2 transition_type 0x1b4-0x1b5 (1)
0x1b0|               01                              |     .          |      [25]: 1 transition_type 0x1b5-0x1b6 (1)
0x1b0|                  02                           |      .         |      [26]: 2 transition_type 0x1b6-0x1b7 (1)
0x1b0|                     01                        |       .        |      [27]: 1 transition_type 0x1b7-0x1b8 (1)
0x1b0|                        02                     |        .       |      [28]: 2 transition_type 0x1b8-0x1b9 (1)
0x1b0|                           01                  |         .      |      [29]: 1 transition_type 0x1b9-0x1ba (1)
0x1b0|                              02               |          .     |      [30]: 2 transition_type 0x1ba-0x1bb (1)
0x1b0|                                 01            |           .    |      [31]: 1 transition_type 0x1bb-0x1bc (1)
0x1b0|                                    02         |            .   |      [32]: 2 transition_type 0x1bc-0x1bd (1)
0x1b0|                                       01      |             .  |      [33]: 1 transition_type 0x1bd-0x1be (1)
0x1b0|                                          02   |              . |      [34]: 2 transition_type 0x1be-0x1bf (1)
0x1b0|                                             01|               .|      [35]: 1 transition_type 0x1bf-0x1c0 (1)
0x1c0|02                                             |.               |      [36]: 2 transition_type 0x1c0-0x1c1 (1)
0x1c0|   01                                          | .              |      [37]: 1 transition_type 0x1c1-0x1c2 (1)
0x1c0|      02                                       |  .             |      [38]: 2 transition_type 0x1c2-0x1c3 (1)
0x1c0|         01                                    |   .            |      [39]: 1 transition_type 0x1c3-0x1c4 (1)
0x1c0|            02                                 |    .           |      [40]: 2 transition_type 0x1c4-0x1c5 (1)
0x1c0|               01                              |     .          |      [41]: 1 transition_type 0x1c5-0x1c6 (1)
0x1c0|                  02                           |      .         |      [42]: 2 transition_type 0x1c6-0x1c7 (1)
0x1c0|                     01                        |       .        |      [43]: 1 transition_type 0x1c7-0x1c8 (1)
0x1c0|                        02                     |        .       |      [44]: 2 transition_type 0x1c8-0x1c9 (1)
0x1c0|                           01                  |         .      |      [45]: 1 transition_type 0x1c9-0x1ca (1)
0x1c0|                              02               |          .     |      [46]: 2 transition_type 0x1ca-0x1cb (1)
0x1c0|                                 01            |           .    |      [47]: 1 transition_type 0x1cb-0x1cc (1)
0x1c0|                                    02         |            .   |      [48]: 2 transition_type 0x1cc-0x1cd (1)
0x1c0|                                       01      |             .  |      [49]: 1 transition_type 0x1cd-0x1ce (1)
0x1c0|                                          02   |              . |      [50]: 2 transition_type 0x1ce-0x1cf (1)
0x1c0|                                             01|               .|      [51]: 1 transition_type 0x1cf-0x1d0 (1)
0x1d0|02                                             |.               |      [52]: 2 transition_type 0x1d0-0x1d1 (1)
0x1d0|   01                                          | .              |      [53]: 1 transition_type 0x1d1-0x1d2 (1)
0x1d0|      02                                       |  .             |      [54]: 2 transition_type 0x1d2-0x1d3 (1)
0x1d0|         01                                    |   .            |      [55]: 1 transition_type 0x1d3-0x1d4 (1)
0x1d0|            02                                 |    .           |      [56]: 2 transition_type 0x1d4-0x1d5 (1)
0x1d0|               01                              |     .          |      [57]: 1 transition_type 0x1d5-0x1d6 (1)
0x1d0|                  02                           |      .         |      [58]: 2 transition_type 0x1d6-0x1d7 (1)
0x1d0|                     01                        |       .        |      [59]: 1 transition_type 0x1d7-0x1d8 (1)
0x1d0|                        02                     |        .       |      [60]: 2 transition_type 0x1d8-0x1d9 (1)
0x1d0|                           01                  |         .      |      [61]: 1 transition_type 0x1d9-0x1da (1)
0x1d0|                              02               |          .     |      [62]: 2 transition_type 0x1da-0x1db (1)
0x1d0|                                 01            |           .    |      [63]: 1 transition_type 0x1db-0x1dc (1)
0x1d0|                                    02         |            .   |      [64]: 2 transition_type 0x1dc-0x1dd (1)
0x1d0|                                       01      |             .  |      [65]: 1 transition_type 0x1dd-0x1de (1)
0x1d0|                                          02   |              . |      [66]: 2 transition_type 0x1de-0x1df (1)
0x1d0|                                             01|               .|      [67]: 1 transition_type 0x1df-0x1e0 (1)
0x1e0|02                                             |.               |      [68]: 2 transition_type 0x1e0-0x1e1 (1)
0x1e0|   01                                          | .              |      [69]: 1 transition_type 0x1e1-0x1e2 (1)
0x1e0|      02                                       |  .             |      [70]: 2 transition_type 0x1e2-0x1e3 (1)
0x1e0|         01                                    |   .            |      [71]: 1 transition_type 0x1e3-0x1e4 (1)
0x1e0|            02                                 |    .           |      [72]: 2 transition_type 0x1e4-0x1e5 (1)
0x1e0|               01                              |     .          |      [73]: 1 transition_type 0x1e5-0x1e6 (1)
0x1e0|                  02                           |      .         |      [74]: 2 transition_type 0x1e6-0x1e7 (1)
0x1e0|                     01                        |       .        |      [75]: 1 transition_type 0x1e7-0x1e8 (1)
0x1e0|                        02                     |        .       |      [76]: 2 transition_type 0x1e8-0x1e9 (1)
0x1e0|                           01                  |         .      |      [77]: 1 transition_type 0x1e9-0x1ea (1)
0x1e0|                              02               |          .     |      [78]: 2 transition_type 0x1ea-0x1eb (1)
0x1e0|                                 01            |           .    |      [79]: 1 transition_type 0x1eb-0x1ec (1)
0x1e0|                                    02         |            .   |      [80]: 2 transition_type 0x1ec-0x1ed (1)
0x1e0|                                       01      |             .  |      [81]: 1 transition_type 0x1ed-0x1ee (1)
0x1e0|                                          02   |              . |      [82]: 2 transition_type 0x1ee-0x1ef (1)
0x1e0|                                             01|               .|      [83]: 1 transition_type 0x1ef-0x1f0 (1)
0x1f0|02                                             |.               |      [84]: 2 transition_type 0x1f0-0x1f1 (1)
0x1f0|   01                                          | .              |      [85]: 1 transition_type 0x1f1-0x1f2 (1)
0x1f0|      02                                       |  .             |      [86]: 2 transition_type 0x1f2-0x1f3 (1)
0x1f0|         01                                    |   .            |      [87]: 1 transition_type 0x1f3-0x1f4 (1)
0x1f0|            02                                 |    .           |      [88]: 2 transition_type 0x1f4-0x1f5 (1)
0x1f0|               01                              |     .          |      [89]: 1 transition_type 0x1f5-0x1f6 (1)
0x1f0|                  02                           |      .         |      [90]: 2 transition_type 0x1f6-0x1f7 (1)
0x1f0|                     02                        |       .        |      [91]: 2 transition_type 0x1f7-0x1f8 (1)
     |                                               |                |    local_time_type_records[0:3]: 0x1f8-0x20a (18)
     |                                               |                |      [0]{}: local_time_type 0x1f8-0x1fe (6)
0x1f0|                        ff ff d4 4c            |        ...L    |        utoff: -11188 (valid) 0x1f8-0x1fc (4)
0x1f0|                                    00         |            .   |        dst: 0 (valid) 0x1fc-0x1fd (1)
0x1f0|                                       00      |             .  |        idx: 0 (valid) 0x1fd-0x1fe (1)
     |                                               |                |      [1]{}: local_time_type 0x1fe-0x204 (6)
0x1f0|                                          ff ff|              ..|        utoff: -7200 (valid) 0x1fe-0x202 (4)
0x200|e3 e0                                          |..              |
0x200|      01                                       |  .             |        dst: 1 (valid) 0x202-0x203 (1)
0x200|         04                                    |   .            |        idx: 4 (valid) 0x203-0x204 (1)
     |                                               |                |      [2]{}: local_time_type 0x204-0x20a (6)
0x200|            ff ff d5 d0                        |    ....        |        utoff: -10800 (valid) 0x204-0x208 (4)
0x200|                        00                     |        .       |        dst: 0 (valid) 0x208-0x209 (1)
0x200|                           08                  |         .      |        idx: 8 (valid) 0x209-0x20a (1)
     |                                               |                |    time_zone_designations[0:3]: 0x20a-0x216 (12)
0x200|                              4c 4d 54 00      |          LMT.  |      [0]: "LMT" time_zone_designation 0x20a-0x20e (4)
0x200|                                          2d 30|              -0|      [1]: "-02" time_zone_designation 0x20e-0x212 (4)
0x210|32 00                                          |2.              |
0x210|      2d 30 33 00                              |  -03.          |      [2]: "-03" time_zone_designation 0x212-0x216 (4)
     |                                               |                |    leap_second_records[0:27]: 0x216-0x2ee (216)
     |                                               |                |      [0]{}: leap_second_record 0x216-0x21e (8)
0x210|                  04 b2 58 00                  |      ..X.      |        occur: "1972-07-01T00:00:00Z" (78796800) 0x216-0x21a (4)
0x210|                              00 00 00 01      |          ....  |        corr: 1 0x21a-0x21e (4)
     |                                               |                |      [1]{}: leap_second_record 0x21e-0x226 (8)
0x210|                                          05 a4|              ..|        occur: "1973-01-01T00:00:01Z" (94694401) 0x21e-0x222 (4)
0x220|ec 01                                          |..              |
0x220|      00 00 00 02                              |  ....          |        corr: 2 0x222-0x226 (4)
     |                                               |                |      [2]{}: leap_second_record 0x226-0x22e (8)
0x220|                  07 86 1f 82                  |      ....      |        occur: "1974-01-01T00:00:02Z" (126230402) 0x226-0x22a (4)
0x220|                              00 00 00 03      |          ....  |        corr: 3 0x22a-0x22e (4)
     |                                               |                |      [3]{}: leap_second_record 0x22e-0x236 (8)
0x220|                                          09 67|              .g|        occur: "1975-01-01T00:00:03Z" (157766403) 0x22e-0x232 (4)
0x230|53 03                                          |S.              |
0x230|      00 00 00 04                              |  ....          |        corr: 4 0x232-0x236 (4)
     |                                               |                |      [4]{}: leap_second_record 0x236-0x23e (8)
0x230|                  0b 48 86 84                  |      .H..      |        occur: "1976-01-01T00:00:04Z" (189302404) 0x236-0x23a (4)
0x230|                              00 00 00 05      |          ....  |        corr: 5 0x23a-0x23e (4)
     |                                               |                |      [5]{}: leap_second_record 0x23e-0x246 (8)
0x230|                                          0d 2b|              .+|        occur: "1977-01-01T00:00:05Z" (220924805) 0x23e-0x242 (4)
0x240|0b 85                                          |..              |
0x240|      00 00 00 06                              |  ....          |        corr: 6 0x242-0x246 (4)
     |                                               |                |      [6]{}: leap_second_record 0x246-0x24e (8)
0x240|                  0f 0c 3f 06                  |      ..?.      |        occur: "1978-01-01T00:00:06Z" (252460806) 0x246-0x24a (4)
0x240|                              00 00 00 07      |          ....  |        corr: 7 0x24a-0x24e (4)
     |                                               |                |      [7]{}: leap_second_record 0x24e-0x256 (8)
0x240|                                          10 ed|              ..|        occur: "1979-01-01T00:00:07Z" (283996807) 0x24e-0x252 (4)
0x250|72 87                                          |r.              |
0x250|      00 00 00 08                              |  ....          |        corr: 8 0x252-0x256 (4)
     |                                               |                |      [8]{}: leap_second_record 0x256-0x25e (8)
0x250|                  12 ce a6 08                  |      ....      |        occur: "1980-01-01T00:00:08Z" (315532808) 0x256-0x25a (4)
0x250|                              00 00 00 09      |          ....  |        corr: 9 0x25a-0x25e (4)
     |                                               |                |      [9]{}: leap_second_record 0x25e-0x266 (8)
0x250|                                          15 9f|              ..|        occur: "1981-07-01T00:00:09Z" (362793609) 0x25e-0x262 (4)
0x260|ca 89                                          |..              |
0x260|      00 00 00 0a                              |  ....          |        corr: 10 0x262-0x266 (4)
     |                                               |                |      [10]{}: leap_second_record 0x266-0x26e (8)
0x260|                  17 80 fe 0a                  |      ....      |        occur: "1982-07-01T00:00:10Z" (394329610) 0x266-0x26a (4)
0x260|                              00 00 00 0b      |          ....  |        corr: 11 0x26a-0x26e (4)
     |                                               |                |      [11]{}: leap_second_record 0x26e-0x276 (8)
0x260|                                          19 62|              .b|        occur: "1983-07-01T00:00:11Z" (425865611) 0x26e-0x272 (4)
0x270|31 8b                                          |1.              |
0x270|      00 00 00 0c                              |  ....          |        corr: 12 0x272-0x276 (4)
     |                                               |                |      [12]{}: leap_second_record 0x276-0x27e (8)
0x270|                  1d 25 ea 0c                  |      .%..      |        occur: "1985-07-01T00:00:12Z" (489024012) 0x276-0x27a (4)
0x270|                              00 00 00 0d      |          ....  |        corr: 13 0x27a-0x27e (4)
     |                                               |                |      [13]{}: leap_second_record 0x27e-0x286 (8)
0x270|                                          21 da|              !.|        occur: "1988-01-01T00:00:13Z" (567993613) 0x27e-0x282 (4)
0x280|e5 0d                                          |..              |
0x280|      00 00 00 0e                              |  ....          |        corr: 14 0x282-0x286 (4)
     |                                               |                |      [14]{}: leap_second_record 0x286-0x28e (8)
0x280|                  25 9e 9d 8e                  |      %...      |        occur: "1990-01-01T00:00:14Z" (631152014) 0x286-0x28a (4)
0x280|                              00 00 00 0f      |          ....  |        corr: 15 0x28a-0x28e (4)
     |                                               |                |      [15]{}: leap_second_record 0x28e-0x296 (8)
0x280|                                          27 7f|              '.|        occur: "1991-01-01T00:00:15Z" (662688015) 0x28e-0x292 (4)
0x290|d1 0f                                          |..              |
0x290|      00 00 00 10                              |  ....          |        corr: 16 0x292-0x296 (4)
     |                                               |                |      [16]{}: leap_second_record 0x296-0x29e (8)
0x290|                  2a 50 f5 90                  |      *P..      |        occur: "1992-07-01T00:00:16Z" (709948816) 0x296-0x29a (4)
0x290|                              00 00 00 11      |          ....  |        corr: 17 0x29a-0x29e (4)
     |                                               |                |      [17]{}: leap_second_record 0x29e-0x2a6 (8)
0x290|                                          2c 32|              ,2|        occur: "1993-07-01T00:00:17Z" (741484817) 0x29e-0x2a2 (4)
0x2a0|29 11                                          |).              |
0x2a0|      00 00 00 12                              |  ....          |        corr: 18 0x2a2-0x2a6 (4)
     |                                               |                |      [18]{}: leap_second_record 0x2a6-0x2ae (8)
0x2a0|                  2e 13 5c 92                  |      ..\.      |        occur: "1994-07-01T00:00:18Z" (773020818) 0x2a6-0x2aa (4)
0x2a0|                              00 00 00 13      |          ....  |        corr: 19 0x2aa-0x2ae (4)
     |                                               |                |      [19]{}: leap_second_record 0x2ae-0x2b6 (8)
0x2a0|                                          30 e7|              0.|        occur: "1996-01-01T00:00:19Z" (820454419) 0x2ae-0x2b2 (4)
0x2b0|24 13                                          |$.              |
0x2b0|      00 00 00 14                              |  ....          |        corr: 20 0x2b2-0x2b6 (4)
     |                                               |                |      [20]{}: leap_second_record 0x2b6-0x2be (8)
0x2b0|                  33 b8 48 94                  |      3.H.      |        occur: "1997-07-01T00:00:20Z" (867715220) 0x2b6-0x2ba (4)
0x2b0|                              00 00 00 15      |          ....  |        corr: 21 0x2ba-0x2be (4)
     |                                               |                |      [21]{}: leap_second_record 0x2be-0x2c6 (8)
0x2b0|                                          36 8c|              6.|        occur: "1999-01-01T00:00:21Z" (915148821) 0x2be-0x2c2 (4)
0x2c0|10 15                                          |..              |
0x2c0|      00 00 00 16                              |  ....          |        corr: 22 0x2c2-0x2c6 (4)
     |                                               |                |      [22]{}: leap_second_record 0x2c6-0x2ce (8)
0x2c0|                  43 b7 1b 96                  |      C...      |        occur: "2006-01-01T00:00:22Z" (1136073622) 0x2c6-0x2ca (4)
0x2c0|                              00 00 00 17      |          ....  |        corr: 23 0x2ca-0x2ce (4)
     |                                               |                |      [23]{}: leap_second_record 0x2ce-0x2d6 (8)
0x2c0|                                          49 5c|              I\|        occur: "2009-01-01T00:00:23Z" (1230768023) 0x2ce-0x2d2 (4)
0x2d0|07 97                                          |..              |
0x2d0|      00 00 00 18                              |  ....          |        corr: 24 0x2d2-0x2d6 (4)
     |                                               |                |      [24]{}: leap_second_record 0x2d6-0x2de (8)
0x2d0|                  4f ef 93 18                  |      O...      |        occur: "2012-07-01T00:00:24Z" (1341100824) 0x2d6-0x2da (4)
0x2d0|                              00 00 00 19      |          ....  |        corr: 25 0x2da-0x2de (4)
     |                                               |                |      [25]{}: leap_second_record 0x2de-0x2e6 (8)
0x2d0|                                          55 93|              U.|        occur: "2015-07-01T00:00:25Z" (1435708825) 0x2de-0x2e2 (4)
0x2e0|2d 99                                          |-.              |
0x2e0|      00 00 00 1a                              |  ....          |        corr: 26 0x2e2-0x2e6 (4)
     |                                               |                |      [26]{}: leap_second_record 0x2e6-0x2ee (8)
0x2e0|                  58 68 46 9a                  |      XhF.      |        occur: "2017-01-01T00:00:26Z" (1483228826) 0x2e6-0x2ea (4)
0x2e0|                              00 00 00 1b      |          ....  |        corr: 27 0x2ea-0x2ee (4)
     |                                               |                |    standard_wall_indicators[0:0]: 0x2ee-0x2ee (0)
     |                                               |                |    ut_local_indicators[0:0]: 0x2ee-0x2ee (0)
     |                                               |                |  v2plusheader{}: 0x2ee-0x31a (44)
0x2e0|                                          54 5a|              TZ|    magic: 0x545a6966 (valid) 0x2ee-0x2f2 (4)
0x2f0|69 66                                          |if              |
0x2f0|      32                                       |  2             |    ver: "2" (0x32) (valid) 0x2f2-0x2f3 (1)
0x2f0|         00 00 00 00 00 00 00 00 00 00 00 00 00|   .............|    reserved: raw bits 0x2f3-0x302 (15)
0x300|00 00                                          |..              |
0x300|      00 00 00 00                              |  ....          |    isutcnt: 0 0x302-0x306 (4)
0x300|                  00 00 00 00                  |      ....      |    isstdcnt: 0 0x306-0x30a (4)
0x300|                              00 00 00 1b      |          ....  |    leapcnt: 27 0x30a-0x30e (4)
0x300|                                          00 00|              ..|    timecnt: 92 0x30e-0x312 (4)
0x310|00 5c                                          |.\              |
0x310|      00 00 00 03                              |  ....          |    typecnt: 3 0x312-0x316 (4)
0x310|                  00 00 00 0c                  |      ....      |    charcnt: 12 0x316-0x31a (4)
     |                                               |                |  v2plusdatablock{}: 0x31a-0x7b8 (1182)
     |                                               |                |    transition_times[0:92]: 0x31a-0x5fa (736)
0x310|                              ff ff ff ff 96 aa|          ......|      [0]: "1914-01-01T03:06:28Z" (-1767214412) transition_time 0x31a-0x322 (8)
0x320|72 b4                                          |r.              |
0x320|      ff ff ff ff b8 0f 49 e0                  |  ......I.      |      [1]: "1931-10-03T14:00:00Z" (-1206957600) transition_time 0x322-0x32a (8)
0x320|                              ff ff ff ff b8 fd|          ......|      [2]: "1932-04-01T02:00:00Z" (-1191362400) transition_time 0x32a-0x332 (8)
0x330|40 a0                                          |@.              |
0x330|      ff ff ff ff b9 f1 34 30                  |  ......40      |      [3]: "1932-10-03T03:00:00Z" (-1175374800) transition_time 0x332-0x33a (8)
0x330|                              ff ff ff ff ba de|          ......|      [4]: "1933-04-01T02:00:00Z" (-1159826400) transition_time 0x33a-0x342 (8)
0x340|74 20                                          |t               |
0x340|      ff ff ff ff da 38 ae 30                  |  .....8.0      |      [5]: "1949-12-01T03:00:00Z" (-633819600) transition_time 0x342-0x34a (8)
0x340|                              ff ff ff ff da eb|          ......|      [6]: "1950-04-16T03:00:00Z" (-622069200) transition_time 0x34a-0x352 (8)
0x350|fa 30                                          |.0              |
0x350|      ff ff ff ff dc 19 e1 b0                  |  ........      |      [7]: "1950-12-01T03:00:00Z" (-602283600) transition_time 0x352-0x35a (8)
0x350|                              ff ff ff ff dc b9|          ......|      [8]: "1951-04-01T02:00:00Z" (-591832800) transition_time 0x35a-0x362 (8)
0x360|59 20                                          |Y               |
0x360|      ff ff ff ff dd fb 15 30                  |  .......0      |      [9]: "1951-12-01T03:00:00Z" (-570747600) transition_time 0x362-0x36a (8)
0x360|                              ff ff ff ff de 9b|          ......|      [10]: "1952-04-01T02:00:00Z" (-560210400) transition_time 0x36a-0x372 (8)
0x370|de 20                                          |.               |
0x370|      ff ff ff ff df dd 9a 30                  |  .......0      |      [11]: "1952-12-01T03:00:00Z" (-539125200) transition_time 0x372-0x37a (8)
0x370|                              ff ff ff ff e0 54|          .....T|      [12]: "1953-03-01T02:00:00Z" (-531352800) transition_time 0x37a-0x382 (8)
0x380|33 20                                          |3               |
0x380|      ff ff ff ff f4 5a 09 30                  |  .....Z.0      |      [13]: "1963-10-23T03:00:00Z" (-195426000) transition_time 0x382-0x38a (8)
0x380|                              ff ff ff ff f5 05|          ......|      [14]: "1964-03-01T02:00:00Z" (-184197600) transition_time 0x38a-0x392 (8)
0x390|5e 20                                          |^               |
0x390|      ff ff ff ff f6 c0 64 30                  |  ......d0      |      [15]: "1965-01-31T03:00:00Z" (-155163600) transition_time 0x392-0x39a (8)
0x390|                              ff ff ff ff f7 0e|          ......|      [16]: "1965-03-31T02:00:00Z" (-150069600) transition_time 0x39a-0x3a2 (8)
0x3a0|1e a0                                          |..              |
0x3a0|      ff ff ff ff f8 51 2c 30                  |  .....Q,0      |      [17]: "1965-12-01T03:00:00Z" (-128898000) transition_time 0x3a2-0x3aa (8)
0x3a0|                              ff ff ff ff f8 c7|          ......|      [18]: "1966-03-01T02:00:00Z" (-121125600) transition_time 0x3aa-0x3b2 (8)
0x3b0|c5 20                                          |.               |
0x3b0|      ff ff ff ff fa 0a d2 b0                  |  ........      |      [19]: "1966-11-01T03:00:00Z" (-99954000) transition_time 0x3b2-0x3ba (8)
0x3b0|                              ff ff ff ff fa a8|          ......|      [20]: "1967-03-01T02:00:00Z" (-89589600) transition_time 0x3ba-0x3c2 (8)
0x3c0|f8 a0                                          |..              |
0x3c0|      ff ff ff ff fb ec 06 30                  |  .......0      |      [21]: "1967-11-01T03:00:00Z" (-68418000) transition_time 0x3c2-0x3ca (8)
0x3c0|                              ff ff ff ff fc 8b|          ......|      [22]: "1968-03-01T02:00:00Z" (-57967200) transition_time 0x3ca-0x3d2 (8)
0x3d0|7d a0                                          |}.              |
0x3d0|      00 00 00 00 1d c9 8e 3d                  |  .......=      |      [23]: "1985-11-02T03:00:13Z" (499748413) transition_time 0x3d2-0x3da (8)
0x3d0|                              00 00 00 00 1e 78|          .....x|      [24]: "1986-03-15T02:00:13Z" (511236013) transition_time 0x3da-0x3e2 (8)
0x3e0|d7 ad                                          |..              |
0x3e0|      00 00 00 00 1f a0 35 bd                  |  ......5.      |      [25]: "1986-10-25T03:00:13Z" (530593213) transition_time 0x3e2-0x3ea (8)
0x3e0|                              00 00 00 00 20 33|          .... 3|      [26]: "1987-02-14T02:00:13Z" (540266413) transition_time 0x3ea-0x3f2 (8)
0x3f0|cf ad                                          |..              |
0x3f0|      00 00 00 00 21 81 69 3d                  |  ....!.i=      |      [27]: "1987-10-25T03:00:13Z" (562129213) transition_time 0x3f2-0x3fa (8)
0x3f0|                              00 00 00 00 22 0b|          ....".|      [28]: "1988-02-07T02:00:14Z" (571197614) transition_time 0x3fa-0x402 (8)
0x400|c8 ae                                          |..              |
0x400|      00 00 00 00 23 58 10 be                  |  ....#X..      |      [29]: "1988-10-16T03:00:14Z" (592974014) transition_time 0x402-0x40a (8)
0x400|                              00 00 00 00 23 e2|          ....#.|      [30]: "1989-01-29T02:00:14Z" (602042414) transition_time 0x40a-0x412 (8)
0x410|70 2e                                          |p.              |
0x410|      00 00 00 00 25 37 f2 be                  |  ....%7..      |      [31]: "1989-10-15T03:00:14Z" (624423614) transition_time 0x412-0x41a (8)
0x410|                              00 00 00 00 25 d4|          ....%.|      [32]: "1990-02-11T02:00:15Z" (634701615) transition_time 0x41a-0x422 (8)
0x420|c7 2f                                          |./              |
0x420|      00 00 00 00 27 21 0f 3f                  |  ....'!.?      |      [33]: "1990-10-21T03:00:15Z" (656478015) transition_time 0x422-0x42a (8)
0x420|                              00 00 00 00 27 bd|          ....'.|      [34]: "1991-02-17T02:00:16Z" (666756016) transition_time 0x42a-0x432 (8)
0x430|e3 b0                                          |..              |
0x430|      00 00 00 00 29 00 f1 40                  |  ....)..@      |      [35]: "1991-10-20T03:00:16Z" (687927616) transition_time 0x432-0x43a (8)
0x430|                              00 00 00 00 29 94|          ....).|      [36]: "1992-02-09T02:00:16Z" (697600816) transition_time 0x43a-0x442 (8)
0x440|8b 30                                          |.0              |
0x440|      00 00 00 00 2a ea 0d c1                  |  ....*...      |      [37]: "1992-10-25T03:00:17Z" (719982017) transition_time 0x442-0x44a (8)
0x440|                              00 00 00 00 2b 6b|          ....+k|      [38]: "1993-01-31T02:00:17Z" (728445617) transition_time 0x44a-0x452 (8)
0x450|32 b1                                          |2.              |
0x450|      00 00 00 00 2c c0 b5 42                  |  ....,..B      |      [39]: "1993-10-17T03:00:18Z" (750826818) transition_time 0x452-0x45a (8)
0x450|                              00 00 00 00 2d 66|          ....-f|      [40]: "1994-02-20T02:00:18Z" (761709618) transition_time 0x45a-0x462 (8)
0x460|c4 32                                          |.2              |
0x460|      00 00 00 00 2e a0 97 43                  |  .......C      |      [41]: "1994-10-16T03:00:19Z" (782276419) transition_time 0x462-0x46a (8)
0x460|                              00 00 00 00 2f 46|          ..../F|      [42]: "1995-02-19T02:00:19Z" (793159219) transition_time 0x46a-0x472 (8)
0x470|a6 33                                          |.3              |
0x470|      00 00 00 00 30 80 79 43                  |  ....0.yC      |      [43]: "1995-10-15T03:00:19Z" (813726019) transition_time 0x472-0x47a (8)
0x470|                              00 00 00 00 31 1d|          ....1.|      [44]: "1996-02-11T02:00:20Z" (824004020) transition_time 0x47a-0x482 (8)
0x480|4d b4                                          |M.              |
0x480|      00 00 00 00 32 57 20 c4                  |  ....2W .      |      [45]: "1996-10-06T03:00:20Z" (844570820) transition_time 0x482-0x48a (8)
0x480|                              00 00 00 00 33 06|          ....3.|      [46]: "1997-02-16T02:00:20Z" (856058420) transition_time 0x48a-0x492 (8)
0x490|6a 34                                          |j4              |
0x490|      00 00 00 00 34 38 54 45                  |  ....48TE      |      [47]: "1997-10-06T03:00:21Z" (876106821) transition_time 0x492-0x49a (8)
0x490|                              00 00 00 00 34 f8|          ....4.|      [48]: "1998-03-01T02:00:21Z" (888717621) transition_time 0x49a-0x4a2 (8)
0x4a0|c1 35                                          |.5              |
0x4a0|      00 00 00 00 36 20 1f 45                  |  ....6 .E      |      [49]: "1998-10-11T03:00:21Z" (908074821) transition_time 0x4a2-0x4aa (8)
0x4a0|                              00 00 00 00 36 cf|          ....6.|      [50]: "1999-02-21T02:00:22Z" (919562422) transition_time 0x4aa-0x4b2 (8)
0x4b0|68 b6                                          |h.              |
0x4b0|      00 00 00 00 37 f6 c6 c6                  |  ....7...      |      [51]: "1999-10-03T03:00:22Z" (938919622) transition_time 0x4b2-0x4ba (8)
0x4b0|                              00 00 00 00 38 b8|          ....8.|      [52]: "2000-02-27T02:00:22Z" (951616822) transition_time 0x4ba-0x4c2 (8)
0x4c0|85 36                                          |.6              |
0x4c0|      00 00 00 00 39 df e3 46                  |  ....9..F      |      [53]: "2000-10-08T03:00:22Z" (970974022) transition_time 0x4c2-0x4ca (8)
0x4c0|                              00 00 00 00 3a 8f|          ....:.|      [54]: "2001-02-18T02:00:22Z" (982461622) transition_time 0x4ca-0x4d2 (8)
0x4d0|2c b6                                          |,.              |
0x4d0|      00 00 00 00 3b c8 ff c6                  |  ....;...      |      [55]: "2001-10-14T03:00:22Z" (1003028422) transition_time 0x4d2-0x4da (8)
0x4d0|                              00 00 00 00 3c 6f|          ....<o|      [56]: "2002-02-17T02:00:22Z" (1013911222) transition_time 0x4da-0x4e2 (8)
0x4e0|0e b6                                          |..              |
0x4e0|      00 00 00 00 3d c4 91 46                  |  ....=..F      |      [57]: "2002-11-03T03:00:22Z" (1036292422) transition_time 0x4e2-0x4ea (8)
0x4e0|                              00 00 00 00 3e 4e|          ....>N|      [58]: "2003-02-16T02:00:22Z" (1045360822) transition_time 0x4ea-0x4f2 (8)
0x4f0|f0 b6                                          |..              |
0x4f0|      00 00 00 00 3f 91 fe 46                  |  ....?..F      |      [59]: "2003-10-19T03:00:22Z" (1066532422) transition_time 0x4f2-0x4fa (8)
0x4f0|                              00 00 00 00 40 2e|          ....@.|      [60]: "2004-02-15T02:00:22Z" (1076810422) transition_time 0x4fa-0x502 (8)
0x500|d2 b6                                          |..              |
0x500|      00 00 00 00 41 86 f8 46                  |  ....A..F      |      [61]: "2004-11-02T03:00:22Z" (1099364422) transition_time 0x502-0x50a (8)
0x500|                              00 00 00 00 42 17|          ....B.|      [62]: "2005-02-20T02:00:22Z" (1108864822) transition_time 0x50a-0x512 (8)
0x510|ef 36                                          |.6              |
0x510|      00 00 00 00 43 51 c2 46                  |  ....CQ.F      |      [63]: "2005-10-16T03:00:22Z" (1129431622) transition_time 0x512-0x51a (8)
0x510|                              00 00 00 00 43 f7|          ....C.|      [64]: "2006-02-19T02:00:23Z" (1140314423) transition_time 0x51a-0x522 (8)
0x520|d1 37                                          |.7              |
0x520|      00 00 00 00 45 4d 53 c7                  |  ....EMS.      |      [65]: "2006-11-05T03:00:23Z" (1162695623) transition_time 0x522-0x52a (8)
0x520|                              00 00 00 00 45 e0|          ....E.|      [66]: "2007-02-25T02:00:23Z" (1172368823) transition_time 0x52a-0x532 (8)
0x530|ed b7                                          |..              |
0x530|      00 00 00 00 47 11 86 47                  |  ....G..G      |      [67]: "2007-10-14T03:00:23Z" (1192330823) transition_time 0x532-0x53a (8)
0x530|                              00 00 00 00 47 b7|          ....G.|      [68]: "2008-02-17T02:00:23Z" (1203213623) transition_time 0x53a-0x542 (8)
0x540|95 37                                          |.7              |
0x540|      00 00 00 00 48 fa a2 c7                  |  ....H...      |      [69]: "2008-10-19T03:00:23Z" (1224385223) transition_time 0x542-0x54a (8)
0x540|                              00 00 00 00 49 97|          ....I.|      [70]: "2009-02-15T02:00:24Z" (1234663224) transition_time 0x54a-0x552 (8)
0x550|77 38                                          |w8              |
0x550|      00 00 00 00 4a da 84 c8                  |  ....J...      |      [71]: "2009-10-18T03:00:24Z" (1255834824) transition_time 0x552-0x55a (8)
0x550|                              00 00 00 00 4b 80|          ....K.|      [72]: "2010-02-21T02:00:24Z" (1266717624) transition_time 0x55a-0x562 (8)
0x560|93 b8                                          |..              |
0x560|      00 00 00 00 4c ba 66 c8                  |  ....L.f.      |      [73]: "2010-10-17T03:00:24Z" (1287284424) transition_time 0x562-0x56a (8)
0x560|                              00 00 00 00 4d 60|          ....M`|      [74]: "2011-02-20T02:00:24Z" (1298167224) transition_time 0x56a-0x572 (8)
0x570|75 b8                                          |u.              |
0x570|      00 00 00 00 4e 9a 48 c8                  |  ....N.H.      |      [75]: "2011-10-16T03:00:24Z" (1318734024) transition_time 0x572-0x57a (8)
0x570|                              00 00 00 00 4f 49|          ....OI|      [76]: "2012-02-26T02:00:24Z" (1330221624) transition_time 0x57a-0x582 (8)
0x580|92 38                                          |.8              |
0x580|      00 00 00 00 50 83 65 49                  |  ....P.eI      |      [77]: "2012-10-21T03:00:25Z" (1350788425) transition_time 0x582-0x58a (8)
0x580|                              00 00 00 00 51 20|          ....Q |      [78]: "2013-02-17T02:00:25Z" (1361066425) transition_time 0x58a-0x592 (8)
0x590|39 b9                                          |9.              |
0x590|      00 00 00 00 52 63 47 49                  |  ....RcGI      |      [79]: "2013-10-20T03:00:25Z" (1382238025) transition_time 0x592-0x59a (8)
0x590|                              00 00 00 00 53 00|          ....S.|      [80]: "2014-02-16T02:00:25Z" (1392516025) transition_time 0x59a-0x5a2 (8)
0x5a0|1b b9                                          |..              |
0x5a0|      00 00 00 00 54 43 29 49                  |  ....TC)I      |      [81]: "2014-10-19T03:00:25Z" (1413687625) transition_time 0x5a2-0x5aa (8)
0x5a0|                              00 00 00 00 54 e9|          ....T.|      [82]: "2015-02-22T02:00:25Z" (1424570425) transition_time 0x5aa-0x5b2 (8)
0x5b0|38 39                                          |89              |
0x5b0|      00 00 00 00 56 23 0b 4a                  |  ....V#.J      |      [83]: "2015-10-18T03:00:26Z" (1445137226) transition_time 0x5b2-0x5ba (8)
0x5b0|                              00 00 00 00 56 c9|          ....V.|      [84]: "2016-02-21T02:00:26Z" (1456020026) transition_time 0x5ba-0x5c2 (8)
0x5c0|1a 3a                                          |.:              |
0x5c0|      00 00 00 00 58 02 ed 4a                  |  ....X..J      |      [85]: "2016-10-16T03:00:26Z" (1476586826) transition_time 0x5c2-0x5ca (8)
0x5c0|                              00 00 00 00 58 a8|          ....X.|      [86]: "2017-02-19T02:00:27Z" (1487469627) transition_time 0x5ca-0x5d2 (8)
0x5d0|fc 3b                                          |.;              |
0x5d0|      00 00 00 00 59 e2 cf 4b                  |  ....Y..K      |      [87]: "2017-10-15T03:00:27Z" (1508036427) transition_time 0x5d2-0x5da (8)
0x5d0|                              00 00 00 00 5a 88|          ....Z.|      [88]: "2018-02-18T02:00:27Z" (1518919227) transition_time 0x5da-0x5e2 (8)
0x5e0|de 3b                                          |.;              |
0x5e0|      00 00 00 00 5b de 60 cb                  |  ....[.`.      |      [89]: "2018-11-04T03:00:27Z" (1541300427) transition_time 0x5e2-0x5ea (8)
0x5e0|                              00 00 00 00 5c 68|          ....\h|      [90]: "2019-02-17T02:00:27Z" (1550368827) transition_time 0x5ea-0x5f2 (8)
0x5f0|c0 3b                                          |.;              |
0x5f0|      00 00 00 00 64 9b 78 1b                  |  ....d.x.      |      [91]: "2023-06-28T00:00:27Z" (1687910427) transition_time 0x5f2-0x5fa (8)
     |                                               |                |    transition_types[0:92]: 0x5fa-0x656 (92)
0x5f0|                              02               |          .     |      [0]: 2 transition_type 0x5fa-0x5fb (1)
0x5f0|                                 01            |           .    |      [1]: 1 transition_type 0x5fb-0x5fc (1)
0x5f0|                                    02         |            .   |      [2]: 2 transition_type 0x5fc-0x5fd (1)
0x5f0|                                       01      |             .  |      [3]: 1 transition_type 0x5fd-0x5fe (1)
0x5f0|                                          02   |              . |      [4]: 2 transition_type 0x5fe-0x5ff (1)
0x5f0|                                             01|               .|      [5]: 1 transition_type 0x5ff-0x600 (1)
0x600|02                                             |.               |      [6]: 2 transition_type 0x600-0x601 (1)
0x600|   01                                          | .              |      [7]: 1 transition_type 0x601-0x602 (1)
0x600|      02                                       |  .             |      [8]: 2 transition_type 0x602-0x603 (1)
0x600|         01                                    |   .            |      [9]: 1 transition_type 0x603-0x604 (1)
0x600|            02                                 |    .           |      [10]: 2 transition_type 0x604-0x605 (1)
0x600|               01                              |     .          |      [11]: 1 transition_type 0x605-0x606 (1)
0x600|                  02                           |      .         |      [12]: 2 transition_type 0x606-0x607 (1)
0x600|                     01                        |       .        |      [13]: 1 transition_type 0x607-0x608 (1)
0x600|                        02                     |        .       |      [14]: 2 transition_type 0x608-0x609 (1)
0x600|                           01                  |         .      |      [15]: 1 transition_type 0x609-0x60a (1)
0x600|                              02               |          .     |      [16]: 2 transition_type 0x60a-0x60b (1)
0x600|                                 01            |           .    |      [17]: 1 transition_type 0x60b-0x60c (1)
0x600|                                    02         |            .   |      [18]: 2 transition_type 0x60c-0x60d (1)
0x600|                                       01      |             .  |      [19]: 1 transition_type 0x60d-0x60e (1)
0x600|                                          02   |              . |      [20]: 2 transition_type 0x60e-0x60f (1)
0x600|                                             01|               .|      [21]: 1 transition_type 0x60f-0x610 (1)
0x610|02                                             |.               |      [22]: 2 transition_type 0x610-0x611 (1)
0x610|   01                                          | .              |      [23]: 1 transition_type 0x611-0x612 (1)
0x610|      02                                       |  .             |      [24]: 2 transition_type 0x612-0x613 (1)
0x610|         01                                    |   .            |      [25]: 1 transition_type 0x613-0x614 (1)
0x610|            02                                 |    .           |      [26]: 2 transition_type 0x614-0x615 (1)
0x610|               01                              |     .          |      [27]: 1 transition_type 0x615-0x616 (1)
0x610|                  02                           |      .         |      [28]: 2 transition_type 0x616-0x617 (1)
0x610|                     01                        |       .        |      [29]: 1 transition_type 0x617-0x618 (1)
0x610|                        02                     |        .       |      [30]: 2 transition_type 0x618-0x619 (1)
0x610|                           01                  |         .      |      [31]: 1 transition_type 0x619-0x61a (1)
0x610|                              02               |          .     |      [32]: 2 transition_type 0x61a-0x61b (1)
0x610|                                 01            |           .    |      [33]: 1 transition_type 0x61b-0x61c (1)
0x610|                                    02         |            .   |      [34]: 2 transition_type 0x61c-0x61d (1)
0x610|                                       01      |             .  |      [35]: 1 transition_type 0x61d-0x61e (1)
0x610|                                          02   |              . |      [36]: 2 transition_type 0x61e-0x61f (1)
0x610|                                             01|               .|      [37]: 1 transition_type 0x61f-0x620 (1)
0x620|02                                             |.               |      [38]: 2 transition_type 0x620-0x621 (1)
0x620|   01                                          | .              |      [39]: 1 transition_type 0x621-0x622 (1)
0x620|      02                                       |  .             |      [40]: 2 transition_type 0x622-0x623 (1)
0x620|         01                                    |   .            |      [41]: 1 transition_type 0x623-0x624 (1)
0x620|            02                                 |    .           |      [42]: 2 transition_type 0x624-0x625 (1)
0x620|               01                              |     .          |      [43]: 1 transition_type 0x625-0x626 (1)
0x620|                  02                           |      .         |      [44]: 2 transition_type 0x626-0x627 (1)
0x620|                     01                        |       .        |      [45]: 1 transition_type 0x627-0x628 (1)
0x620|                        02                     |        .       |      [46]: 2 transition_type 0x628-0x629 (1)
0x620|                           01                  |         .      |      [47]: 1 transition_type 0x629-0x62a (1)
0x620|                              02               |          .     |      [48]: 2 transition_type 0x62a-0x62b (1)
0x620|                                 01            |           .    |      [49]: 1 transition_type 0x62b-0x62c (1)
0x620|                                    02         |            .   |      [50]: 2 transition_type 0x62c-0x62d (1)
0x620|                                       01      |             .  |      [51]: 1 transition_type 0x62d-0x62e (1)
0x620|                                          02   |              . |      [52]: 2 transition_type 0x62e-0x62f (1)
0x620|                                             01|               .|      [53]: 1 transition_type 0x62f-0x630 (1)
0x630|02                                             |.               |      [54]: 2 transition_type 0x630-0x631 (1)
0x630|   01                                          | .              |      [55]: 1 transition_type 0x631-0x632 (1)
0x630|      02                                       |  .             |      [56]: 2 transition_type 0x632-0x633 (1)
0x630|         01                                    |   .            |      [57]: 1 transition_type 0x633-0x634 (1)
0x630|            02                                 |    .           |      [58]: 2 transition_type 0x634-0x635 (1)
0x630|               01                              |     .          |      [59]: 1 transition_type 0x635-0x636 (1)
0x630|                  02                           |      .         |      [60]: 2 transition_type 0x636-0x637 (1)
0x630|                     01                        |       .        |      [61]: 1 transition_type 0x637-0x638 (1)
0x630|                        02                     |        .       |      [62]: 2 transition_type 0x638-0x639 (1)
0x630|                           01                  |         .      |      [63]: 1 transition_type 0x639-0x63a (1)
0x630|                              02               |          .     |      [64]: 2 transition_type 0x63a-0x63b (1)
0x630|                                 01            |           .    |      [65]: 1 transition_type 0x63b-0x63c (1)
0x630|                                    02         |            .   |      [66]: 2 transition_type 0x63c-0x63d (1)
0x630|                                       01      |             .  |      [67]: 1 transition_type 0x63d-0x63e (1)
0x630|                                          02   |              . |      [68]: 2 transition_type 0x63e-0x63f (1)
0x630|                                             01|               .|      [69]: 1 transition_type 0x63f-0x640 (1)
0x640|02                                             |.               |      [70]: 2 transition_type 0x640-0x641 (1)
0x640|   01                                          | .              |      [71]: 1 transition_type 0x641-0x642 (1)
0x640|      02                                       |  .             |      [72]: 2 transition_type 0x642-0x643 (1)
0x640|         01                                    |   .            |      [73]: 1 transition_type 0x643-0x644 (1)
0x640|            02                                 |    .           |      [74]: 2 transition_type 0x644-0x645 (1)
0x640|               01                              |     .          |      [75]: 1 transition_type 0x645-0x646 (1)
0x640|                  02                           |      .         |      [76]: 2 transition_type 0x646-0x647 (1)
0x640|                     01                        |       .        |      [77]: 1 transition_type 0x647-0x648 (1)
0x640|                        02                     |        .       |      [78]: 2 transition_type 0x648-0x649 (1)
0x640|                           01                  |         .      |      [79]: 1 transition_type 0x649-0x64a (1)
0x640|                              02               |          .     |      [80]: 2 transition_type 0x64a-0x64b (1)
0x640|                                 01            |           .    |      [81]: 1 transition_type 0x64b-0x64c (1)
0x640|                                    02         |            .   |      [82]: 2 transition_type 0x64c-0x64d (1)
0x640|                                       01      |             .  |      [83]: 1 transition_type 0x64d-0x64e (1)
0x640|                                          02   |              . |      [84]: 2 transition_type 0x64e-0x64f (1)
0x640|                                             01|               .|      [85]: 1 transition_type 0x64f-0x650 (1)
0x650|02                                             |.               |      [86]: 2 transition_type 0x650-0x651 (1)
0x650|   01                                          | .              |      [87]: 1 transition_type 0x651-0x652 (1)
0x650|      02                                       |  .             |      [88]: 2 transition_type 0x652-0x653 (1)
0x650|         01                                    |   .            |      [89]: 1 transition_type 0x653-0x654 (1)
0x650|            02                                 |    .           |      [90]: 2 transition_type 0x654-0x655 (1)
0x650|               02                              |     .          |      [91]: 2 transition_type 0x655-0x656 (1)
     |                                               |                |    local_time_type_records[0:3]: 0x656-0x668 (18)
     |                                               |                |      [0]{}: local_time_type 0x656-0x65c (6)
0x650|                  ff ff d4 4c                  |      ...L      |        utoff: -11188 (valid) 0x656-0x65a (4)
0x650|                              00               |          .     |        dst: 0 (valid) 0x65a-0x65b (1)
0x650|                                 00            |           .    |        idx: 0 (valid) 0x65b-0x65c (1)
     |                                               |                |      [1]{}: local_time_type 0x65c-0x662 (6)
0x650|                                    ff ff e3 e0|            ....|        utoff: -7200 (valid) 0x65c-0x660 (4)
0x660|01                                             |.               |        dst: 1 (valid) 0x660-0x661 (1)
0x660|   04                                          | .              |        idx: 4 (valid) 0x661-0x662 (1)
     |                                               |                |      [2]{}: local_time_type 0x662-0x668 (6)
0x660|      ff ff d5 d0                              |  ....          |        utoff: -10800 (valid) 0x662-0x666 (4)
0x660|                  00                           |      .         |        dst: 0 (valid) 0x666-0x667 (1)
0x660|                     08                        |       .        |        idx: 8 (valid) 0x667-0x668 (1)
     |                                               |                |    time_zone_designations[0:3]: 0x668-0x674 (12)
0x660|                        4c 4d 54 00            |        LMT.    |      [0]: "LMT" time_zone_designation 0x668-0x66c (4)
0x660|                                    2d 30 32 00|            -02.|      [1]: "-02" time_zone_designation 0x66c-0x670 (4)
0x670|2d 30 33 00                                    |-03.            |      [2]: "-03" time_zone_designation 0x670-0x674 (4)
     |                                               |                |    leap_second_records[0:27]: 0x674-0x7b8 (324)
     |                                               |                |      [0]{}: leap_second_record 0x674-0x680 (12)
0x670|            00 00 00 00 04 b2 58 00            |    ......X.    |        occur: "1972-07-01T00:00:00Z" (78796800) 0x674-0x67c (8)
0x670|                                    00 00 00 01|            ....|        corr: 1 0x67c-0x680 (4)
     |                                               |                |      [1]{}: leap_second_record 0x680-0x68c (12)
0x680|00 00 00 00 05 a4 ec 01                        |........        |        occur: "1973-01-01T00:00:01Z" (94694401) 0x680-0x688 (8)
0x680|                        00 00 00 02            |        ....    |        corr: 2 0x688-0x68c (4)
     |                                               |                |      [2]{}: leap_second_record 0x68c-0x698 (12)
0x680|                                    00 00 00 00|            ....|        occur: "1974-01-01T00:00:02Z" (126230402) 0x68c-0x694 (8)
0x690|07 86 1f 82                                    |....            |
0x690|            00 00 00 03                        |    ....        |        corr: 3 0x694-0x698 (4)
     |                                               |                |      [3]{}: leap_second_record 0x698-0x6a4 (12)
0x690|                        00 00 00 00 09 67 53 03|        .....gS.|        occur: "1975-01-01T00:00:03Z" (157766403) 0x698-0x6a0 (8)
0x6a0|00 00 00 04                                    |....            |        corr: 4 0x6a0-0x6a4 (4)
     |                                               |                |      [4]{}: leap_second_record 0x6a4-0x6b0 (12)
0x6a0|            00 00 00 00 0b 48 86 84            |    .....H..    |        occur: "1976-01-01T00:00:04Z" (189302404) 0x6a4-0x6ac (8)
0x6a0|                                    00 00 00 05|            ....|        corr: 5 0x6ac-0x6b0 (4)
     |                                               |                |      [5]{}: leap_second_record 0x6b0-0x6bc (12)
0x6b0|00 00 00 00 0d 2b 0b 85                        |.....+..        |        occur: "1977-01-01T00:00:05Z" (220924805) 0x6b0-0x6b8 (8)
0x6b0|                        00 00 00 06            |        ....    |        corr: 6 0x6b8-0x6bc (4)
     |                                               |                |      [6]{}: leap_second_record 0x6bc-0x6c8 (12)
0x6b0|                                    00 00 00 00|            ....|        occur: "1978-01-01T00:00:06Z" (252460806) 0x6bc-0x6c4 (8)
0x6c0|0f 0c 3f 06                                    |..?.            |
0x6c0|            00 00 00 07                        |    ....        |        corr: 7 0x6c4-0x6c8 (4)
     |                                               |                |      [7]{}: leap_second_record 0x6c8-0x6d4 (12)
0x6c0|                        00 00 00 00 10 ed 72 87|        ......r.|        occur: "1979-01-01T00:00:07Z" (283996807) 0x6c8-0x6d0 (8)
0x6d0|00 00 00 08                                    |....            |        corr: 8 0x6d0-0x6d4 (4)
     |                                               |                |      [8]{}: leap_second_record 0x6d4-0x6e0 (12)
0x6d0|            00 00 00 00 12 ce a6 08            |    ........    |        occur: "1980-01-01T00:00:08Z" (315532808) 0x6d4-0x6dc (8)
0x6d0|                                    00 00 00 09|            ....|        corr: 9 0x6dc-0x6e0 (4)
     |                                               |                |      [9]{}: leap_second_record 0x6e0-0x6ec (12)
0x6e0|00 00 00 00 15 9f ca 89                        |........        |        occur: "1981-07-01T00:00:09Z" (362793609) 0x6e0-0x6e8 (8)
0x6e0|                        00 00 00 0a            |        ....    |        corr: 10 0x6e8-0x6ec (4)
     |                                               |                |      [10]{}: leap_second_record 0x6ec-0x6f8 (12)
0x6e0|                                    00 00 00 00|            ....|        occur: "1982-07-01T00:00:10Z" (394329610) 0x6ec-0x6f4 (8)
0x6f0|17 80 fe 0a                                    |....            |
0x6f0|            00 00 00 0b                        |    ....        |        corr: 11 0x6f4-0x6f8 (4)
     |                                               |                |      [11]{}: leap_second_record 0x6f8-0x704 (12)
0x6f0|                        00 00 00 00 19 62 31 8b|        .....b1.|        occur: "1983-07-01T00:00:11Z" (425865611) 0x6f8-0x700 (8)
0x700|00 00 00 0c                                    |....            |        corr: 12 0x700-0x704 (4)
     |                                               |                |      [12]{}: leap_second_record 0x704-0x710 (12)
0x700|            00 00 00 00 1d 25 ea 0c            |    .....%..    |        occur: "1985-07-01T00:00:12Z" (489024012) 0x704-0x70c (8)
0x700|                                    00 00 00 0d|            ....|        corr: 13 0x70c-0x710 (4)
     |                                               |                |      [13]{}: leap_second_record 0x710-0x71c (12)
0x710|00 00 00 00 21 da e5 0d                        |....!...        |        occur: "1988-01-01T00:00:13Z" (567993613) 0x710-0x718 (8)
0x710|                        00 00 00 0e            |        ....    |        corr: 14 0x718-0x71c (4)
     |                                               |                |      [14]{}: leap_second_record 0x71c-0x728 (12)
0x710|                                    00 00 00 00|            ....|        occur: "1990-01-01T00:00:14Z" (631152014) 0x71c-0x724 (8)
0x720|25 9e 9d 8e                                    |%...            |
0x720|            00 00 00 0f                        |    ....        |        corr: 15 0x724-0x728 (4)
     |                                               |                |      [15]{}: leap_second_record 0x728-0x734 (12)
0x720|                        00 00 00 00 27 7f d1 0f|        ....'...|        occur: "1991-01-01T00:00:15Z" (662688015) 0x728-0x730 (8)
0x730|00 00 00 10                                    |....            |        corr: 16 0x730-0x734 (4)
     |                                               |                |      [16]{}: leap_second_record 0x734-0x740 (12)
0x730|            00 00 00 00 2a 50 f5 90            |    ....*P..    |        occur: "1992-07-01T00:00:16Z" (709948816) 0x734-0x73c (8)
0x730|                                    00 00 00 11|            ....|        corr: 17 0x73c-0x740 (4)
     |                                               |                |      [17]{}: leap_second_record 0x740-0x74c (12)
0x740|00 00 00 00 2c 32 29 11                        |....,2).        |        occur: "1993-07-01T00:00:17Z" (741484817) 0x740-0x748 (8)
0x740|                        00 00 00 12            |        ....    |        corr: 18 0x748-0x74c (4)
     |                                               |                |      [18]{}: leap_second_record 0x74c-0x758 (12)
0x740|                                    00 00 00 00|            ....|        occur: "1994-07-01T00:00:18Z" (773020818) 0x74c-0x754 (8)
0x750|2e 13 5c 92                                    |..\.            |
0x750|            00 00 00 13                        |    ....        |        corr: 19 0x754-0x758 (4)
     |                                               |                |      [19]{}: leap_second_record 0x758-0x764 (12)
0x750|                        00 00 00 00 30 e7 24 13|        ....0.$.|        occur: "1996-01-01T00:00:19Z" (820454419) 0x758-0x760 (8)
0x760|00 00 00 14                                    |....            |        corr: 20 0x760-0x764 (4)
     |                                               |                |      [20]{}: leap_second_record 0x764-0x770 (12)
0x760|            00 00 00 00 33 b8 48 94            |    ....3.H.    |        occur: "1997-07-01T00:00:20Z" (867715220) 0x764-0x76c (8)
0x760|                                    00 00 00 15|            ....|        corr: 21 0x76c-0x770 (4)
     |                                               |                |      [21]{}: leap_second_record 0x770-0x77c (12)
0x770|00 00 00 00 36 8c 10 15                        |....6...        |        occur: "1999-01-01T00:00:21Z" (915148821) 0x770-0x778 (8)
0x770|                        00 00 00 16            |        ....    |        corr: 22 0x778-0x77c (4)
     |                                               |                |      [22]{}: leap_second_record 0x77c-0x788 (12)
0x770|                                    00 00 00 00|            ....|        occur: "2006-01-01T00:00:22Z" (1136073622) 0x77c-0x784 (8)
0x780|43 b7 1b 96                                    |C...            |
0x780|            00 00 00 17                        |    ....        |        corr: 23 0x784-0x788 (4)
     |                                               |                |      [23]{}: leap_second_record 0x788-0x794 (12)
0x780|                        00 00 00 00 49 5c 07 97|        ....I\..|        occur: "2009-01-01T00:00:23Z" (1230768023) 0x788-0x790 (8)
0x790|00 00 00 18                                    |....            |        corr: 24 0x790-0x794 (4)
     |                                               |                |      [24]{}: leap_second_record 0x794-0x7a0 (12)
0x790|            00 00 00 00 4f ef 93 18            |    ....O...    |        occur: "2012-07-01T00:00:24Z" (1341100824) 0x794-0x79c (8)
0x790|                                    00 00 00 19|            ....|        corr: 25 0x79c-0x7a0 (4)
     |                                               |                |      [25]{}: leap_second_record 0x7a0-0x7ac (12)
0x7a0|00 00 00 00 55 93 2d 99                        |....U.-.        |        occur: "2015-07-01T00:00:25Z" (1435708825) 0x7a0-0x7a8 (8)
0x7a0|                        00 00 00 1a            |        ....    |        corr: 26 0x7a8-0x7ac (4)
     |                                               |                |      [26]{}: leap_second_record 0x7ac-0x7b8 (12)
0x7a0|                                    00 00 00 00|            ....|        occur: "2017-01-01T00:00:26Z" (1483228826) 0x7ac-0x7b4 (8)
0x7b0|58 68 46 9a                                    |XhF.            |
0x7b0|            00 00 00 1b                        |    ....        |        corr: 27 0x7b4-0x7b8 (4)
     |                                               |                |    standard_wall_indicators[0:0]: 0x7b8-0x7b8 (0)
     |                                               |                |    ut_local_indicators[0:0]: 0x7b8-0x7b8 (0)
     |                                               |                |  footer{}: 0x7b8-0x7ba (2)
0x7b0|                        0a                     |        .       |    nl1: 10 (valid) 0x7b8-0x7b9 (1)
     |                                               |                |    tz_string: "" 0x7b9-0x7b9 (0)
0x7b0|                           0a|                 |         .|     |    nl2: 10 (valid) 0x7b9-0x7ba (1)
