$ fq -d tzif dv Sao_Tome
    |00 01 02 03 04 05 06 07 08 09 0a 0b 0c 0d 0e 0f|0123456789abcdef|.{}: Sao_Tome (tzif) 0x0-0xfd.7 (254)
    |                                               |                |  v1header{}: 0x0-0x2b.7 (44)
0x00|54 5a 69 66                                    |TZif            |    magic: 0x545a6966 (valid) 0x0-0x3.7 (4)
0x00|            32                                 |    2           |    ver: "2" (0x32) (valid) 0x4-0x4.7 (1)
0x00|               00 00 00 00 00 00 00 00 00 00 00|     ...........|    reserved: raw bits 0x5-0x13.7 (15)
0x10|00 00 00 00                                    |....            |
0x10|            00 00 00 05                        |    ....        |    isutcnt: 5 0x14-0x17.7 (4)
0x10|                        00 00 00 05            |        ....    |    isstdcnt: 5 0x18-0x1b.7 (4)
0x10|                                    00 00 00 00|            ....|    leapcnt: 0 0x1c-0x1f.7 (4)
0x20|00 00 00 04                                    |....            |    timecnt: 4 0x20-0x23.7 (4)
0x20|            00 00 00 05                        |    ....        |    typecnt: 5 0x24-0x27.7 (4)
0x20|                        00 00 00 0c            |        ....    |    charcnt: 12 0x28-0x2b.7 (4)
    |                                               |                |  v1datablock{}: 0x2c-0x73.7 (72)
    |                                               |                |    transition_times[0:4]: 0x2c-0x3b.7 (16)
0x20|                                    80 00 00 00|            ....|      [0]: "1901-12-13T20:45:52Z" (-2147483648) transition_time 0x2c-0x2f.7 (4)
0x30|92 e6 8e 80                                    |....            |      [1]: "1912-01-01T00:00:00Z" (-1830384000) transition_time 0x30-0x33.7 (4)
0x30|            5a 49 88 10                        |    ZI..        |      [2]: "2018-01-01T01:00:00Z" (1514768400) transition_time 0x34-0x37.7 (4)
0x30|                        5c 2a bb 90            |        \*..    |      [3]: "2019-01-01T01:00:00Z" (1546304400) transition_time 0x38-0x3b.7 (4)
    |                                               |                |    transition_types[0:4]: 0x3c-0x3f.7 (4)
0x30|                                    01         |            .   |      [0]: 1 transition_type 0x3c-0x3c.7 (1)
0x30|                                       02      |             .  |      [1]: 2 transition_type 0x3d-0x3d.7 (1)
0x30|                                          03   |              . |      [2]: 3 transition_type 0x3e-0x3e.7 (1)
0x30|                                             04|               .|      [3]: 4 transition_type 0x3f-0x3f.7 (1)
    |                                               |                |    local_time_type_records[0:5]: 0x40-0x5d.7 (30)
    |                                               |                |      [0]{}: local_time_type 0x40-0x45.7 (6)
0x40|00 00 06 50                                    |...P            |        utoff: 1616 (valid) 0x40-0x43.7 (4)
0x40|            00                                 |    .           |        dst: 0 (valid) 0x44-0x44.7 (1)
0x40|               00                              |     .          |        idx: 0 (valid) 0x45-0x45.7 (1)
    |                                               |                |      [1]{}: local_time_type 0x46-0x4b.7 (6)
0x40|                  ff ff f7 63                  |      ...c      |        utoff: -2205 (valid) 0x46-0x49.7 (4)
0x40|                              00               |          .     |        dst: 0 (valid) 0x4a-0x4a.7 (1)
0x40|                                 00            |           .    |        idx: 0 (valid) 0x4b-0x4b.7 (1)
    |                                               |                |      [2]{}: local_time_type 0x4c-0x51.7 (6)
0x40|                                    00 00 00 00|            ....|        utoff: 0 (valid) 0x4c-0x4f.7 (4)
0x50|00                                             |.               |        dst: 0 (valid) 0x50-0x50.7 (1)
0x50|   04                                          | .              |        idx: 4 (valid) 0x51-0x51.7 (1)
    |                                               |                |      [3]{}: local_time_type 0x52-0x57.7 (6)
0x50|      00 00 0e 10                              |  ....          |        utoff: 3600 (valid) 0x52-0x55.7 (4)
0x50|                  00                           |      .         |        dst: 0 (valid) 0x56-0x56.7 (1)
0x50|                     08                        |       .        |        idx: 8 (valid) 0x57-0x57.7 (1)
    |                                               |                |      [4]{}: local_time_type 0x58-0x5d.7 (6)
0x50|                        00 00 00 00            |        ....    |        utoff: 0 (valid) 0x58-0x5b.7 (4)
0x50|                                    00         |            .   |        dst: 0 (valid) 0x5c-0x5c.7 (1)
0x50|                                       04      |             .  |        idx: 4 (valid) 0x5d-0x5d.7 (1)
    |                                               |                |    time_zone_designations[0:3]: 0x5e-0x69.7 (12)
0x50|                                          4c 4d|              LM|      [0]: "LMT" time_zone_designation 0x5e-0x61.7 (4)
0x60|54 00                                          |T.              |
0x60|      47 4d 54 00                              |  GMT.          |      [1]: "GMT" time_zone_designation 0x62-0x65.7 (4)
0x60|                  57 41 54 00                  |      WAT.      |      [2]: "WAT" time_zone_designation 0x66-0x69.7 (4)
    |                                               |                |    leap_second_records[0:0]: 0x6a-NA (0)
    |                                               |                |    standard_wall_indicators[0:5]: 0x6a-0x6e.7 (5)
0x60|                              00               |          .     |      [0]: 0 standard_wall_indicator (valid) 0x6a-0x6a.7 (1)
0x60|                                 00            |           .    |      [1]: 0 standard_wall_indicator (valid) 0x6b-0x6b.7 (1)
0x60|                                    01         |            .   |      [2]: 1 standard_wall_indicator (valid) 0x6c-0x6c.7 (1)
0x60|                                       00      |             .  |      [3]: 0 standard_wall_indicator (valid) 0x6d-0x6d.7 (1)
0x60|                                          00   |              . |      [4]: 0 standard_wall_indicator (valid) 0x6e-0x6e.7 (1)
    |                                               |                |    ut_local_indicators[0:5]: 0x6f-0x73.7 (5)
0x60|                                             00|               .|      [0]: 0 ut_local_indicator (valid) 0x6f-0x6f.7 (1)
0x70|00                                             |.               |      [1]: 0 ut_local_indicator (valid) 0x70-0x70.7 (1)
0x70|   01                                          | .              |      [2]: 1 ut_local_indicator (valid) 0x71-0x71.7 (1)
0x70|      00                                       |  .             |      [3]: 0 ut_local_indicator (valid) 0x72-0x72.7 (1)
0x70|         00                                    |   .            |      [4]: 0 ut_local_indicator (valid) 0x73-0x73.7 (1)
    |                                               |                |  v2plusheader{}: 0x74-0x9f.7 (44)
0x70|            54 5a 69 66                        |    TZif        |    magic: 0x545a6966 (valid) 0x74-0x77.7 (4)
0x70|                        32                     |        2       |    ver: "2" (0x32) (valid) 0x78-0x78.7 (1)
0x70|                           00 00 00 00 00 00 00|         .......|    reserved: raw bits 0x79-0x87.7 (15)
0x80|00 00 00 00 00 00 00 00                        |........        |
0x80|                        00 00 00 05            |        ....    |    isutcnt: 5 0x88-0x8b.7 (4)
0x80|                                    00 00 00 05|            ....|    isstdcnt: 5 0x8c-0x8f.7 (4)
0x90|00 00 00 00                                    |....            |    leapcnt: 0 0x90-0x93.7 (4)
0x90|            00 00 00 04                        |    ....        |    timecnt: 4 0x94-0x97.7 (4)
0x90|                        00 00 00 05            |        ....    |    typecnt: 5 0x98-0x9b.7 (4)
0x90|                                    00 00 00 0c|            ....|    charcnt: 12 0x9c-0x9f.7 (4)
    |                                               |                |  v2plusdatablock{}: 0xa0-0xf7.7 (88)
    |                                               |                |    transition_times[0:4]: 0xa0-0xbf.7 (32)
0xa0|ff ff ff ff 5e 3c fd 30                        |....^<.0        |      [0]: "1883-12-31T23:33:04Z" (-2713912016) transition_time 0xa0-0xa7.7 (8)
0xa0|                        ff ff ff ff 92 e6 8e 80|        ........|      [1]: "1912-01-01T00:00:00Z" (-1830384000) transition_time 0xa8-0xaf.7 (8)
0xb0|00 00 00 00 5a 49 88 10                        |....ZI..        |      [2]: "2018-01-01T01:00:00Z" (1514768400) transition_time 0xb0-0xb7.7 (8)
0xb0|                        00 00 00 00 5c 2a bb 90|        ....\*..|      [3]: "2019-01-01T01:00:00Z" (1546304400) transition_time 0xb8-0xbf.7 (8)
    |                                               |                |    transition_types[0:4]: 0xc0-0xc3.7 (4)
0xc0|01                                             |.               |      [0]: 1 transition_type 0xc0-0xc0.7 (1)
0xc0|   02                                          | .              |      [1]: 2 transition_type 0xc1-0xc1.7 (1)
0xc0|      03                                       |  .             |      [2]: 3 transition_type 0xc2-0xc2.7 (1)
0xc0|         04                                    |   .            |      [3]: 4 transition_type 0xc3-0xc3.7 (1)
    |                                               |                |    local_time_type_records[0:5]: 0xc4-0xe1.7 (30)
    |                                               |                |      [0]{}: local_time_type 0xc4-0xc9.7 (6)
0xc0|            00 00 06 50                        |    ...P        |        utoff: 1616 (valid) 0xc4-0xc7.7 (4)
0xc0|                        00                     |        .       |        dst: 0 (valid) 0xc8-0xc8.7 (1)
0xc0|                           00                  |         .      |        idx: 0 (valid) 0xc9-0xc9.7 (1)
    |                                               |                |      [1]{}: local_time_type 0xca-0xcf.7 (6)
0xc0|                              ff ff f7 63      |          ...c  |        utoff: -2205 (valid) 0xca-0xcd.7 (4)
0xc0|                                          00   |              . |        dst: 0 (valid) 0xce-0xce.7 (1)
0xc0|                                             00|               .|        idx: 0 (valid) 0xcf-0xcf.7 (1)
    |                                               |                |      [2]{}: local_time_type 0xd0-0xd5.7 (6)
0xd0|00 00 00 00                                    |....            |        utoff: 0 (valid) 0xd0-0xd3.7 (4)
0xd0|            00                                 |    .           |        dst: 0 (valid) 0xd4-0xd4.7 (1)
0xd0|               04                              |     .          |        idx: 4 (valid) 0xd5-0xd5.7 (1)
    |                                               |                |      [3]{}: local_time_type 0xd6-0xdb.7 (6)
0xd0|                  00 00 0e 10                  |      ....      |        utoff: 3600 (valid) 0xd6-0xd9.7 (4)
0xd0|                              00               |          .     |        dst: 0 (valid) 0xda-0xda.7 (1)
0xd0|                                 08            |           .    |        idx: 8 (valid) 0xdb-0xdb.7 (1)
    |                                               |                |      [4]{}: local_time_type 0xdc-0xe1.7 (6)
0xd0|                                    00 00 00 00|            ....|        utoff: 0 (valid) 0xdc-0xdf.7 (4)
0xe0|00                                             |.               |        dst: 0 (valid) 0xe0-0xe0.7 (1)
0xe0|   04                                          | .              |        idx: 4 (valid) 0xe1-0xe1.7 (1)
    |                                               |                |    time_zone_designations[0:3]: 0xe2-0xed.7 (12)
0xe0|      4c 4d 54 00                              |  LMT.          |      [0]: "LMT" time_zone_designation 0xe2-0xe5.7 (4)
0xe0|                  47 4d 54 00                  |      GMT.      |      [1]: "GMT" time_zone_designation 0xe6-0xe9.7 (4)
0xe0|                              57 41 54 00      |          WAT.  |      [2]: "WAT" time_zone_designation 0xea-0xed.7 (4)
    |                                               |                |    leap_second_records[0:0]: 0xee-NA (0)
    |                                               |                |    standard_wall_indicators[0:5]: 0xee-0xf2.7 (5)
0xe0|                                          00   |              . |      [0]: 0 standard_wall_indicator (valid) 0xee-0xee.7 (1)
0xe0|                                             00|               .|      [1]: 0 standard_wall_indicator (valid) 0xef-0xef.7 (1)
0xf0|01                                             |.               |      [2]: 1 standard_wall_indicator (valid) 0xf0-0xf0.7 (1)
0xf0|   00                                          | .              |      [3]: 0 standard_wall_indicator (valid) 0xf1-0xf1.7 (1)
0xf0|      00                                       |  .             |      [4]: 0 standard_wall_indicator (valid) 0xf2-0xf2.7 (1)
    |                                               |                |    ut_local_indicators[0:5]: 0xf3-0xf7.7 (5)
0xf0|         00                                    |   .            |      [0]: 0 ut_local_indicator (valid) 0xf3-0xf3.7 (1)
0xf0|            00                                 |    .           |      [1]: 0 ut_local_indicator (valid) 0xf4-0xf4.7 (1)
0xf0|               01                              |     .          |      [2]: 1 ut_local_indicator (valid) 0xf5-0xf5.7 (1)
0xf0|                  00                           |      .         |      [3]: 0 ut_local_indicator (valid) 0xf6-0xf6.7 (1)
0xf0|                     00                        |       .        |      [4]: 0 ut_local_indicator (valid) 0xf7-0xf7.7 (1)
    |                                               |                |  footer{}: 0xf8-0xfd.7 (6)
0xf0|                        0a                     |        .       |    nl1: 10 (valid) 0xf8-0xf8.7 (1)
0xf0|                           47 4d 54 30         |         GMT0   |    tz_string: "GMT0" 0xf9-0xfc.7 (4)
0xf0|                                       0a|     |             .| |    nl2: 10 (valid) 0xfd-0xfd.7 (1)
