$ fq -d tzif dv Scoresbysund
     |00 01 02 03 04 05 06 07 08 09 0a 0b 0c 0d 0e 0f|0123456789abcdef|.{}: Scoresbysund (tzif) 0x0-0x7e3.7 (2020)
     |                                               |                |  v1header{}: 0x0-0x2b.7 (44)
0x000|54 5a 69 66                                    |TZif            |    magic: 0x545a6966 (valid) 0x0-0x3.7 (4)
0x000|            32                                 |    2           |    ver: "2" (0x32) (valid) 0x4-0x4.7 (1)
0x000|               00 00 00 00 00 00 00 00 00 00 00|     ...........|    reserved: raw bits 0x5-0x13.7 (15)
0x010|00 00 00 00                                    |....            |
0x010|            00 00 00 07                        |    ....        |    isutcnt: 7 0x14-0x17.7 (4)
0x010|                        00 00 00 07            |        ....    |    isstdcnt: 7 0x18-0x1b.7 (4)
0x010|                                    00 00 00 1b|            ....|    leapcnt: 27 0x1c-0x1f.7 (4)
0x020|00 00 00 59                                    |...Y            |    timecnt: 89 0x20-0x23.7 (4)
0x020|            00 00 00 07                        |    ....        |    typecnt: 7 0x24-0x27.7 (4)
0x020|                        00 00 00 10            |        ....    |    charcnt: 16 0x28-0x2b.7 (4)
     |                                               |                |  v1datablock{}: 0x2c-0x308.7 (733)
     |                                               |                |    transition_times[0:89]: 0x2c-0x18f.7 (356)
0x020|                                    9b 80 4c 18|            ..L.|      [0]: "1916-07-28T01:27:52Z" (-1686090728) transition_time 0x2c-0x2f.7 (4)
0x030|13 4d 6e 49                                    |.MnI            |      [1]: "1980-04-06T04:00:09Z" (323841609) transition_time 0x30-0x33.7 (4)
0x030|            14 34 24 c9                        |    .4$.        |      [2]: "1980-09-28T04:00:09Z" (338961609) transition_time 0x34-0x37.7 (4)
0x030|                        15 23 f9 a9            |        .#..    |      [3]: "1981-03-29T02:00:09Z" (354679209) transition_time 0x38-0x3b.7 (4)
0x030|                                    16 13 dc 9a|            ....|      [4]: "1981-09-27T01:00:10Z" (370400410) transition_time 0x3c-0x3f.7 (4)
0x040|17 03 cd 9a                                    |....            |      [5]: "1982-03-28T01:00:10Z" (386125210) transition_time 0x40-0x43.7 (4)
0x040|            17 f3 be 9b                        |    ....        |      [6]: "1982-09-26T01:00:11Z" (401850011) transition_time 0x44-0x47.7 (4)
0x040|                        18 e3 af 9b            |        ....    |      [7]: "1983-03-27T01:00:11Z" (417574811) transition_time 0x48-0x4b.7 (4)
0x040|                                    19 d3 a0 9c|            ....|      [8]: "1983-09-25T01:00:12Z" (433299612) transition_time 0x4c-0x4f.7 (4)
0x050|1a c3 91 9c                                    |....            |      [9]: "1984-03-25T01:00:12Z" (449024412) transition_time 0x50-0x53.7 (4)
0x050|            1b bc bd 1c                        |    ....        |      [10]: "1984-09-30T01:00:12Z" (465354012) transition_time 0x54-0x57.7 (4)
0x050|                        1c ac ae 1c            |        ....    |      [11]: "1985-03-31T01:00:12Z" (481078812) transition_time 0x58-0x5b.7 (4)
0x050|                                    1d 9c 9f 1d|            ....|      [12]: "1985-09-29T01:00:13Z" (496803613) transition_time 0x5c-0x5f.7 (4)
0x060|1e 8c 90 1d                                    |....            |      [13]: "1986-03-30T01:00:13Z" (512528413) transition_time 0x60-0x63.7 (4)
0x060|            1f 7c 81 1d                        |    .|..        |      [14]: "1986-09-28T01:00:13Z" (528253213) transition_time 0x64-0x67.7 (4)
0x060|                        20 6c 72 1d            |         lr.    |      [15]: "1987-03-29T01:00:13Z" (543978013) transition_time 0x68-0x6b.7 (4)
0x060|                                    21 5c 63 1d|            !\c.|      [16]: "1987-09-27T01:00:13Z" (559702813) transition_time 0x6c-0x6f.7 (4)
0x070|22 4c 54 1e                                    |"LT.            |      [17]: "1988-03-27T01:00:14Z" (575427614) transition_time 0x70-0x73.7 (4)
0x070|            23 3c 45 1e                        |    #<E.        |      [18]: "1988-09-25T01:00:14Z" (591152414) transition_time 0x74-0x77.7 (4)
0x070|                        24 2c 36 1e            |        $,6.    |      [19]: "1989-03-26T01:00:14Z" (606877214) transition_time 0x78-0x7b.7 (4)
0x070|                                    25 1c 27 1e|            %.'.|      [20]: "1989-09-24T01:00:14Z" (622602014) transition_time 0x7c-0x7f.7 (4)
0x080|26 0c 18 1f                                    |&...            |      [21]: "1990-03-25T01:00:15Z" (638326815) transition_time 0x80-0x83.7 (4)
0x080|            27 05 43 9f                        |    '.C.        |      [22]: "1990-09-30T01:00:15Z" (654656415) transition_time 0x84-0x87.7 (4)
0x080|                        27 f5 34 a0            |        '.4.    |      [23]: "1991-03-31T01:00:16Z" (670381216) transition_time 0x88-0x8b.7 (4)
0x080|                                    28 e5 25 a0|            (.%.|      [24]: "1991-09-29T01:00:16Z" (686106016) transition_time 0x8c-0x8f.7 (4)
0x090|29 d5 16 a0                                    |)...            |      [25]: "1992-03-29T01:00:16Z" (701830816) transition_time 0x90-0x93.7 (4)
0x090|            2a c5 07 a1                        |    *...        |      [26]: "1992-09-27T01:00:17Z" (717555617) transition_time 0x94-0x97.7 (4)
0x090|                        2b b4 f8 a1            |        +...    |      [27]: "1993-03-28T01:00:17Z" (733280417) transition_time 0x98-0x9b.7 (4)
0x090|                                    2c a4 e9 a2|            ,...|      [28]: "1993-09-26T01:00:18Z" (749005218) transition_time 0x9c-0x9f.7 (4)
0x0a0|2d 94 da a2                                    |-...            |      [29]: "1994-03-27T01:00:18Z" (764730018) transition_time 0xa0-0xa3.7 (4)
0x0a0|            2e 84 cb a3                        |    ....        |      [30]: "1994-09-25T01:00:19Z" (780454819) transition_time 0xa4-0xa7.7 (4)
0x0a0|                        2f 74 bc a3            |        /t..    |      [31]: "1995-03-26T01:00:19Z" (796179619) transition_time 0xa8-0xab.7 (4)
0x0a0|                                    30 64 ad a3|            0d..|      [32]: "1995-09-24T01:00:19Z" (811904419) transition_time 0xac-0xaf.7 (4)
0x0b0|31 5d d9 24                                    |1].$            |      [33]: "1996-03-31T01:00:20Z" (828234020) transition_time 0xb0-0xb3.7 (4)
0x0b0|            32 72 b4 24                        |    2r.$        |      [34]: "1996-10-27T01:00:20Z" (846378020) transition_time 0xb4-0xb7.7 (4)
0x0b0|                        33 3d bb 24            |        3=.$    |      [35]: "1997-03-30T01:00:20Z" (859683620) transition_time 0xb8-0xbb.7 (4)
0x0b0|                                    34 52 96 25|            4R.%|      [36]: "1997-10-26T01:00:21Z" (877827621) transition_time 0xbc-0xbf.7 (4)
0x0c0|35 1d 9d 25                                    |5..%            |      [37]: "1998-03-29T01:00:21Z" (891133221) transition_time 0xc0-0xc3.7 (4)
0x0c0|            36 32 78 25                        |    62x%        |      [38]: "1998-10-25T01:00:21Z" (909277221) transition_time 0xc4-0xc7.7 (4)
0x0c0|                        36 fd 7f 26            |        6..&    |      [39]: "1999-03-28T01:00:22Z" (922582822) transition_time 0xc8-0xcb.7 (4)
0x0c0|                                    38 1b 94 a6|            8...|      [40]: "1999-10-31T01:00:22Z" (941331622) transition_time 0xcc-0xcf.7 (4)
0x0d0|38 dd 61 26                                    |8.a&            |      [41]: "2000-03-26T01:00:22Z" (954032422) transition_time 0xd0-0xd3.7 (4)
0x0d0|            39 fb 76 a6                        |    9.v.        |      [42]: "2000-10-29T01:00:22Z" (972781222) transition_time 0xd4-0xd7.7 (4)
0x0d0|                        3a bd 43 26            |        :.C&    |      [43]: "2001-03-25T01:00:22Z" (985482022) transition_time 0xd8-0xdb.7 (4)
0x0d0|                                    3b db 58 a6|            ;.X.|      [44]: "2001-10-28T01:00:22Z" (1004230822) transition_time 0xdc-0xdf.7 (4)
0x0e0|3c a6 5f a6                                    |<._.            |      [45]: "2002-03-31T01:00:22Z" (1017536422) transition_time 0xe0-0xe3.7 (4)
0x0e0|            3d bb 3a a6                        |    =.:.        |      [46]: "2002-10-27T01:00:22Z" (1035680422) transition_time 0xe4-0xe7.7 (4)
0x0e0|                        3e 86 41 a6            |        >.A.    |      [47]: "2003-03-30T01:00:22Z" (1048986022) transition_time 0xe8-0xeb.7 (4)
0x0e0|                                    3f 9b 1c a6|            ?...|      [48]: "2003-10-26T01:00:22Z" (1067130022) transition_time 0xec-0xef.7 (4)
0x0f0|40 66 23 a6                                    |@f#.            |      [49]: "2004-03-28T01:00:22Z" (1080435622) transition_time 0xf0-0xf3.7 (4)
0x0f0|            41 84 39 26                        |    A.9&        |      [50]: "2004-10-31T01:00:22Z" (1099184422) transition_time 0xf4-0xf7.7 (4)
0x0f0|                        42 46 05 a6            |        BF..    |      [51]: "2005-03-27T01:00:22Z" (1111885222) transition_time 0xf8-0xfb.7 (4)
0x0f0|                                    43 64 1b 26|            Cd.&|      [52]: "2005-10-30T01:00:22Z" (1130634022) transition_time 0xfc-0xff.7 (4)
0x100|44 25 e7 a7                                    |D%..            |      [53]: "2006-03-26T01:00:23Z" (1143334823) transition_time 0x100-0x103.7 (4)
0x100|            45 43 fd 27                        |    EC.'        |      [54]: "2006-10-29T01:00:23Z" (1162083623) transition_time 0x104-0x107.7 (4)
0x100|                        46 05 c9 a7            |        F...    |      [55]: "2007-03-25T01:00:23Z" (1174784423) transition_time 0x108-0x10b.7 (4)
0x100|                                    47 23 df 27|            G#.'|      [56]: "2007-10-28T01:00:23Z" (1193533223) transition_time 0x10c-0x10f.7 (4)
0x110|47 ee e6 27                                    |G..'            |      [57]: "2008-03-30T01:00:23Z" (1206838823) transition_time 0x110-0x113.7 (4)
0x110|            49 03 c1 27                        |    I..'        |      [58]: "2008-10-26T01:00:23Z" (1224982823) transition_time 0x114-0x117.7 (4)
0x110|                        49 ce c8 28            |        I..(    |      [59]: "2009-03-29T01:00:24Z" (1238288424) transition_time 0x118-0x11b.7 (4)
0x110|                                    4a e3 a3 28|            J..(|      [60]: "2009-10-25T01:00:24Z" (1256432424) transition_time 0x11c-0x11f.7 (4)
0x120|4b ae aa 28                                    |K..(            |      [61]: "2010-03-28T01:00:24Z" (1269738024) transition_time 0x120-0x123.7 (4)
0x120|            4c cc bf a8                        |    L...        |      [62]: "2010-10-31T01:00:24Z" (1288486824) transition_time 0x124-0x127.7 (4)
0x120|                        4d 8e 8c 28            |        M..(    |      [63]: "2011-03-27T01:00:24Z" (1301187624) transition_time 0x128-0x12b.7 (4)
0x120|                                    4e ac a1 a8|            N...|      [64]: "2011-10-30T01:00:24Z" (1319936424) transition_time 0x12c-0x12f.7 (4)
0x130|4f 6e 6e 28                                    |Onn(            |      [65]: "2012-03-25T01:00:24Z" (1332637224) transition_time 0x130-0x133.7 (4)
0x130|            50 8c 83 a9                        |    P...        |      [66]: "2012-10-28T01:00:25Z" (1351386025) transition_time 0x134-0x137.7 (4)
0x130|                        51 57 8a a9            |        QW..    |      [67]: "2013-03-31T01:00:25Z" (1364691625) transition_time 0x138-0x13b.7 (4)
0x130|                                    52 6c 65 a9|            Rle.|      [68]: "2013-10-27T01:00:25Z" (1382835625) transition_time 0x13c-0x13f.7 (4)
0x140|53 37 6c a9                                    |S7l.            |      [69]: "2014-03-30T01:00:25Z" (1396141225) transition_time 0x140-0x143.7 (4)
0x140|            54 4c 47 a9                        |    TLG.        |      [70]: "2014-10-26T01:00:25Z" (1414285225) transition_time 0x144-0x147.7 (4)
0x140|                        55 17 4e a9            |        U.N.    |      [71]: "2015-03-29T01:00:25Z" (1427590825) transition_time 0x148-0x14b.7 (4)
0x140|                                    56 2c 29 aa|            V,).|      [72]: "2015-10-25T01:00:26Z" (1445734826) transition_time 0x14c-0x14f.7 (4)
0x150|56 f7 30 aa                                    |V.0.            |      [73]: "2016-03-27T01:00:26Z" (1459040426) transition_time 0x150-0x153.7 (4)
0x150|            58 15 46 2a                        |    X.F*        |      [74]: "2016-10-30T01:00:26Z" (1477789226) transition_time 0x154-0x157.7 (4)
0x150|                        58 d7 12 ab            |        X...    |      [75]: "2017-03-26T01:00:27Z" (1490490027) transition_time 0x158-0x15b.7 (4)
0x150|                                    59 f5 28 2b|            Y.(+|      [76]: "2017-10-29T01:00:27Z" (1509238827) transition_time 0x15c-0x15f.7 (4)
0x160|5a b6 f4 ab                                    |Z...            |      [77]: "2018-03-25T01:00:27Z" (1521939627) transition_time 0x160-0x163.7 (4)
0x160|            5b d5 0a 2b                        |    [..+        |      [78]: "2018-10-28T01:00:27Z" (1540688427) transition_time 0x164-0x167.7 (4)
0x160|                        5c a0 11 2b            |        \..+    |      [79]: "2019-03-31T01:00:27Z" (1553994027) transition_time 0x168-0x16b.7 (4)
0x160|                                    5d b4 ec 2b|            ]..+|      [80]: "2019-10-27T01:00:27Z" (1572138027) transition_time 0x16c-0x16f.7 (4)
0x170|5e 7f f3 2b                                    |^..+            |      [81]: "2020-03-29T01:00:27Z" (1585443627) transition_time 0x170-0x173.7 (4)
0x170|            5f 94 ce 2b                        |    _..+        |      [82]: "2020-10-25T01:00:27Z" (1603587627) transition_time 0x174-0x177.7 (4)
0x170|                        60 5f d5 2b            |        `_.+    |      [83]: "2021-03-28T01:00:27Z" (1616893227) transition_time 0x178-0x17b.7 (4)
0x170|                                    61 7d ea ab|            a}..|      [84]: "2021-10-31T01:00:27Z" (1635642027) transition_time 0x17c-0x17f.7 (4)
0x180|62 3f b7 2b                                    |b?.+            |      [85]: "2022-03-27T01:00:27Z" (1648342827) transition_time 0x180-0x183.7 (4)
0x180|            63 5d cc ab                        |    c]..        |      [86]: "2022-10-30T01:00:27Z" (1667091627) transition_time 0x184-0x187.7 (4)
0x180|                        64 1f 99 2b            |        d..+    |      [87]: "2023-03-26T01:00:27Z" (1679792427) transition_time 0x188-0x18b.7 (4)
0x180|                                    64 9b 78 1b|            d.x.|      [88]: "2023-06-28T00:00:27Z" (1687910427) transition_time 0x18c-0x18f.7 (4)
     |                                               |                |    transition_types[0:89]: 0x190-0x1e8.7 (89)
0x190|01                                             |.               |      [0]: 1 transition_type 0x190-0x190.7 (1)
0x190|   02                                          | .              |      [1]: 2 transition_type 0x191-0x191.7 (1)
0x190|      03                                       |  .             |      [2]: 3 transition_type 0x192-0x192.7 (1)
0x190|         06                                    |   .            |      [3]: 6 transition_type 0x193-0x193.7 (1)
0x190|            04                                 |    .           |      [4]: 4 transition_type 0x194-0x194.7 (1)
0x190|               05                              |     .          |      [5]: 5 transition_type 0x195-0x195.7 (1)
0x190|                  04                           |      .         |      [6]: 4 transition_type 0x196-0x196.7 (1)
0x190|                     05                        |       .        |      [7]: 5 transition_type 0x197-0x197.7 (1)
0x190|                        04                     |        .       |      [8]: 4 transition_type 0x198-0x198.7 (1)
0x190|                           05                  |         .      |      [9]: 5 transition_type 0x199-0x199.7 (1)
0x190|                              04               |          .     |      [10]: 4 transition_type 0x19a-0x19a.7 (1)
0x190|                                 05            |           .    |      [11]: 5 transition_type 0x19b-0x19b.7 (1)
0x190|                                    04         |            .   |      [12]: 4 transition_type 0x19c-0x19c.7 (1)
0x190|                                       05      |             .  |      [13]: 5 transition_type 0x19d-0x19d.7 (1)
0x190|                                          04   |              . |      [14]: 4 transition_type 0x19e-0x19e.7 (1)
0x190|                                             05|               .|      [15]: 5 transition_type 0x19f-0x19f.7 (1)
0x1a0|04                                             |.               |      [16]: 4 transition_type 0x1a0-0x1a0.7 (1)
0x1a0|   05                                          | .              |      [17]: 5 transition_type 0x1a1-0x1a1.7 (1)
0x1a0|      04                                       |  .             |      [18]: 4 transition_type 0x1a2-0x1a2.7 (1)
0x1a0|         05                                    |   .            |      [19]: 5 transition_type 0x1a3-0x1a3.7 (1)
0x1a0|            04                                 |    .           |      [20]: 4 transition_type 0x1a4-0x1a4.7 (1)
0x1a0|               05                              |     .          |      [21]: 5 transition_type 0x1a5-0x1a5.7 (1)
0x1a0|                  04                           |      .         |      [22]: 4 transition_type 0x1a6-0x1a6.7 (1)
0x1a0|                     05                        |       .        |      [23]: 5 transition_type 0x1a7-0x1a7.7 (1)
0x1a0|                        04                     |        .       |      [24]: 4 transition_type 0x1a8-0x1a8.7 (1)
0x1a0|                           05                  |         .      |      [25]: 5 transition_type 0x1a9-0x1a9.7 (1)
0x1a0|                              04               |          .     |      [26]: 4 transition_type 0x1aa-0x1aa.7 (1)
0x1a0|                                 05            |           .    |      [27]: 5 transition_type 0x1ab-0x1ab.7 (1)
0x1a0|                                    04         |            .   |      [28]: 4 transition_type 0x1ac-0x1ac.7 (1)
0x1a0|                                       05      |             .  |      [29]: 5 transition_type 0x1ad-0x1ad.7 (1)
0x1a0|                                          04   |              . |      [30]: 4 transition_type 0x1ae-0x1ae.7 (1)
0x1a0|                                             05|               .|      [31]: 5 transition_type 0x1af-0x1af.7 (1)
0x1b0|04                                             |.               |      [32]: 4 transition_type 0x1b0-0x1b0.7 (1)
0x1b0|   05                                          | .              |      [33]: 5 transition_type 0x1b1-0x1b1.7 (1)
0x1b0|      04                                       |  .             |      [34]: 4 transition_type 0x1b2-0x1b2.7 (1)
0x1b0|         05                                    |   .            |      [35]: 5 transition_type 0x1b3-0x1b3.7 (1)
0x1b0|            04                                 |    .           |      [36]: 4 transition_type 0x1b4-0x1b4.7 (1)
0x1b0|               05                              |     .          |      [37]: 5 transition_type 0x1b5-0x1b5.7 (1)
0x1b0|                  04                           |      .         |      [38]: 4 transition_type 0x1b6-0x1b6.7 (1)
0x1b0|                     05                        |       .        |      [39]: 5 transition_type 0x1b7-0x1b7.7 (1)
0x1b0|                        04                     |        .       |      [40]: 4 transition_type 0x1b8-0x1b8.7 (1)
0x1b0|                           05                  |         .      |      [41]: 5 transition_type 0x1b9-0x1b9.7 (1)
0x1b0|                              04               |          .     |      [42]: 4 transition_type 0x1ba-0x1ba.7 (1)
0x1b0|                                 05            |           .    |      [43]: 5 transition_type 0x1bb-0x1bb.7 (1)
0x1b0|                                    04         |            .   |      [44]: 4 transition_type 0x1bc-0x1bc.7 (1)
0x1b0|                                       05      |             .  |      [45]: 5 transition_type 0x1bd-0x1bd.7 (1)
0x1b0|                                          04   |              . |      [46]: 4 transition_type 0x1be-0x1be.7 (1)
0x1b0|                                             05|               .|      [47]: 5 transition_type 0x1bf-0x1bf.7 (1)
0x1c0|04                                             |.               |      [48]: 4 transition_type 0x1c0-0x1c0.7 (1)
0x1c0|   05                                          | .              |      [49]: 5 transition_type 0x1c1-0x1c1.7 (1)
0x1c0|      04                                       |  .             |      [50]: 4 transition_type 0x1c2-0x1c2.7 (1)
0x1c0|         05                                    |   .            |      [51]: 5 transition_type 0x1c3-0x1c3.7 (1)
0x1c0|            04                                 |    .           |      [52]: 4 transition_type 0x1c4-0x1c4.7 (1)
0x1c0|               05                              |     .          |      [53]: 5 transition_type 0x1c5-0x1c5.7 (1)
0x1c0|                  04                           |      .         |      [54]: 4 transition_type 0x1c6-0x1c6.7 (1)
0x1c0|                     05                        |       .        |      [55]: 5 transition_type 0x1c7-0x1c7.7 (1)
0x1c0|                        04                     |        .       |      [56]: 4 transition_type 0x1c8-0x1c8.7 (1)
0x1c0|                           05                  |         .      |      [57]: 5 transition_type 0x1c9-0x1c9.7 (1)
0x1c0|                              04               |          .     |      [58]: 4 transition_type 0x1ca-0x1ca.7 (1)
0x1c0|                                 05            |           .    |      [59]: 5 transition_type 0x1cb-0x1cb.7 (1)
0x1c0|                                    04         |            .   |      [60]: 4 transition_type 0x1cc-0x1cc.7 (1)
0x1c0|                                       05      |             .  |      [61]: 5 transition_type 0x1cd-0x1cd.7 (1)
0x1c0|                                          04   |              . |      [62]: 4 transition_type 0x1ce-0x1ce.7 (1)
0x1c0|                                             05|               .|      [63]: 5 transition_type 0x1cf-0x1cf.7 (1)
0x1d0|04                                             |.               |      [64]: 4 transition_type 0x1d0-0x1d0.7 (1)
0x1d0|   05                                          | .              |      [65]: 5 transition_type 0x1d1-0x1d1.7 (1)
0x1d0|      04                                       |  .             |      [66]: 4 transition_type 0x1d2-0x1d2.7 (1)
0x1d0|         05                                    |   .            |      [67]: 5 transition_type 0x1d3-0x1d3.7 (1)
0x1d0|            04                                 |    .           |      [68]: 4 transition_type 0x1d4-0x1d4.7 (1)
0x1d0|               05                              |     .          |      [69]: 5 transition_type 0x1d5-0x1d5.7 (1)
0x1d0|                  04                           |      .         |      [70]: 4 transition_type 0x1d6-0x1d6.7 (1)
0x1d0|                     05                        |       .        |      [71]: 5 transition_type 0x1d7-0x1d7.7 (1)
0x1d0|                        04                     |        .       |      [72]: 4 transition_type 0x1d8-0x1d8.7 (1)
0x1d0|                           05                  |         .      |      [73]: 5 transition_type 0x1d9-0x1d9.7 (1)
0x1d0|                              04               |          .     |      [74]: 4 transition_type 0x1da-0x1da.7 (1)
0x1d0|                                 05            |           .    |      [75]: 5 transition_type 0x1db-0x1db.7 (1)
0x1d0|                                    04         |            .   |      [76]: 4 transition_type 0x1dc-0x1dc.7 (1)
0x1d0|                                       05      |             .  |      [77]: 5 transition_type 0x1dd-0x1dd.7 (1)
0x1d0|                                          04   |              . |      [78]: 4 transition_type 0x1de-0x1de.7 (1)
0x1d0|                                             05|               .|      [79]: 5 transition_type 0x1df-0x1df.7 (1)
0x1e0|04                                             |.               |      [80]: 4 transition_type 0x1e0-0x1e0.7 (1)
0x1e0|   05                                          | .              |      [81]: 5 transition_type 0x1e1-0x1e1.7 (1)
0x1e0|      04                                       |  .             |      [82]: 4 transition_type 0x1e2-0x1e2.7 (1)
0x1e0|         05                                    |   .            |      [83]: 5 transition_type 0x1e3-0x1e3.7 (1)
0x1e0|            04                                 |    .           |      [84]: 4 transition_type 0x1e4-0x1e4.7 (1)
0x1e0|               05                              |     .          |      [85]: 5 transition_type 0x1e5-0x1e5.7 (1)
0x1e0|                  04                           |      .         |      [86]: 4 transition_type 0x1e6-0x1e6.7 (1)
0x1e0|                     05                        |       .        |      [87]: 5 transition_type 0x1e7-0x1e7.7 (1)
0x1e0|                        05                     |        .       |      [88]: 5 transition_type 0x1e8-0x1e8.7 (1)
     |                                               |                |    local_time_type_records[0:7]: 0x1e9-0x212.7 (42)
     |                                               |                |      [0]{}: local_time_type 0x1e9-0x1ee.7 (6)
0x1e0|                           ff ff eb 68         |         ...h   |        utoff: -5272 (valid) 0x1e9-0x1ec.7 (4)
0x1e0|                                       00      |             .  |        dst: 0 (valid) 0x1ed-0x1ed.7 (1)
0x1e0|                                          00   |              . |        idx: 0 (valid) 0x1ee-0x1ee.7 (1)
     |                                               |                |      [1]{}: local_time_type 0x1ef-0x1f4.7 (6)
0x1e0|                                             ff|               .|        utoff: -7200 (valid) 0x1ef-0x1f2.7 (4)
0x1f0|ff e3 e0                                       |...             |
0x1f0|         00                                    |   .            |        dst: 0 (valid) 0x1f3-0x1f3.7 (1)
0x1f0|            04                                 |    .           |        idx: 4 (valid) 0x1f4-0x1f4.7 (1)
     |                                               |                |      [2]{}: local_time_type 0x1f5-0x1fa.7 (6)
0x1f0|               ff ff f1 f0                     |     ....       |        utoff: -3600 (valid) 0x1f5-0x1f8.7 (4)
0x1f0|                           01                  |         .      |        dst: 1 (valid) 0x1f9-0x1f9.7 (1)
0x1f0|                              08               |          .     |        idx: 8 (valid) 0x1fa-0x1fa.7 (1)
     |                                               |                |      [3]{}: local_time_type 0x1fb-0x200.7 (6)
0x1f0|                                 ff ff e3 e0   |           .... |        utoff: -7200 (valid) 0x1fb-0x1fe.7 (4)
0x1f0|                                             00|               .|        dst: 0 (valid) 0x1ff-0x1ff.7 (1)
0x200|04                                             |.               |        idx: 4 (valid) 0x200-0x200.7 (1)
     |                                               |                |      [4]{}: local_time_type 0x201-0x206.7 (6)
0x200|   ff ff f1 f0                                 | ....           |        utoff: -3600 (valid) 0x201-0x204.7 (4)
0x200|               00                              |     .          |        dst: 0 (valid) 0x205-0x205.7 (1)
0x200|                  08                           |      .         |        idx: 8 (valid) 0x206-0x206.7 (1)
     |                                               |                |      [5]{}: local_time_type 0x207-0x20c.7 (6)
0x200|                     00 00 00 00               |       ....     |        utoff: 0 (valid) 0x207-0x20a.7 (4)
0x200|                                 01            |           .    |        dst: 1 (valid) 0x20b-0x20b.7 (1)
0x200|                                    0c         |            .   |        idx: 12 (valid) 0x20c-0x20c.7 (1)
     |                                               |                |      [6]{}: local_time_type 0x20d-0x212.7 (6)
0x200|                                       00 00 00|             ...|        utoff: 0 (valid) 0x20d-0x210.7 (4)
0x210|00                                             |.               |
0x210|   01                                          | .              |        dst: 1 (valid) 0x211-0x211.7 (1)
0x210|      0c                                       |  .             |        idx: 12 (valid) 0x212-0x212.7 (1)
     |                                               |                |    time_zone_designations[0:4]: 0x213-0x222.7 (16)
0x210|         4c 4d 54 00                           |   LMT.         |      [0]: "LMT" time_zone_designation 0x213-0x216.7 (4)
0x210|                     2d 30 32 00               |       -02.     |      [1]: "-02" time_zone_designation 0x217-0x21a.7 (4)
0x210|                                 2d 30 31 00   |           -01. |      [2]: "-01" time_zone_designation 0x21b-0x21e.7 (4)
0x210|                                             2b|               +|      [3]: "+00" time_zone_designation 0x21f-0x222.7 (4)
0x220|30 30 00                                       |00.             |
     |                                               |                |    leap_second_records[0:27]: 0x223-0x2fa.7 (216)
     |                                               |                |      [0]{}: leap_second_record 0x223-0x22a.7 (8)
0x220|         04 b2 58 00                           |   ..X.         |        occur: "1972-07-01T00:00:00Z" (78796800) 0x223-0x226.7 (4)
0x220|                     00 00 00 01               |       ....     |        corr: 1 0x227-0x22a.7 (4)
     |                                               |                |      [1]{}: leap_second_record 0x22b-0x232.7 (8)
0x220|                                 05 a4 ec 01   |           .... |        occur: "1973-01-01T00:00:01Z" (94694401) 0x22b-0x22e.7 (4)
0x220|                                             00|               .|        corr: 2 0x22f-0x232.7 (4)
0x230|00 00 02                                       |...             |
     |                                               |                |      [2]{}: leap_second_record 0x233-0x23a.7 (8)
0x230|         07 86 1f 82                           |   ....         |        occur: "1974-01-01T00:00:02Z" (126230402) 0x233-0x236.7 (4)
0x230|                     00 00 00 03               |       ....     |        corr: 3 0x237-0x23a.7 (4)
     |                                               |                |      [3]{}: leap_second_record 0x23b-0x242.7 (8)
0x230|                                 09 67 53 03   |           .gS. |        occur: "1975-01-01T00:00:03Z" (157766403) 0x23b-0x23e.7 (4)
0x230|                                             00|               .|        corr: 4 0x23f-0x242.7 (4)
0x240|00 00 04                                       |...             |
     |                                               |                |      [4]{}: leap_second_record 0x243-0x24a.7 (8)
0x240|         0b 48 86 84                           |   .H..         |        occur: "1976-01-01T00:00:04Z" (189302404) 0x243-0x246.7 (4)
0x240|                     00 00 00 05               |       ....     |        corr: 5 0x247-0x24a.7 (4)
     |                                               |                |      [5]{}: leap_second_record 0x24b-0x252.7 (8)
0x240|                                 0d 2b 0b 85   |           .+.. |        occur: "1977-01-01T00:00:05Z" (220924805) 0x24b-0x24e.7 (4)
0x240|                                             00|               .|        corr: 6 0x24f-0x252.7 (4)
0x250|00 00 06                                       |...             |
     |                                               |                |      [6]{}: leap_second_record 0x253-0x25a.7 (8)
0x250|         0f 0c 3f 06                           |   ..?.         |        occur: "1978-01-01T00:00:06Z" (252460806) 0x253-0x256.7 (4)
0x250|                     00 00 00 07               |       ....     |        corr: 7 0x257-0x25a.7 (4)
     |                                               |                |      [7]{}: leap_second_record 0x25b-0x262.7 (8)
0x250|                                 10 ed 72 87   |           ..r. |        occur: "1979-01-01T00:00:07Z" (283996807) 0x25b-0x25e.7 (4)
0x250|                                             00|               .|        corr: 8 0x25f-0x262.7 (4)
0x260|00 00 08                                       |...             |
     |                                               |                |      [8]{}: leap_second_record 0x263-0x26a.7 (8)
0x260|         12 ce a6 08                           |   ....         |        occur: "1980-01-01T00:00:08Z" (315532808) 0x263-0x266.7 (4)
0x260|                     00 00 00 09               |       ....     |        corr: 9 0x267-0x26a.7 (4)
     |                                               |                |      [9]{}: leap_second_record 0x26b-0x272.7 (8)
0x260|                                 15 9f ca 89   |           .... |        occur: "1981-07-01T00:00:09Z" (362793609) 0x26b-0x26e.7 (4)
0x260|                                             00|               .|        corr: 10 0x26f-0x272.7 (4)
0x270|00 00 0a                                       |...             |
     |                                               |                |      [10]{}: leap_second_record 0x273-0x27a.7 (8)
0x270|         17 80 fe 0a                           |   ....         |        occur: "1982-07-01T00:00:10Z" (394329610) 0x273-0x276.7 (4)
0x270|                     00 00 00 0b               |       ....     |        corr: 11 0x277-0x27a.7 (4)
     |                                               |                |      [11]{}: leap_second_record 0x27b-0x282.7 (8)
0x270|                                 19 62 31 8b   |           .b1. |        occur: "1983-07-01T00:00:11Z" (425865611) 0x27b-0x27e.7 (4)
0x270|                                             00|               .|        corr: 12 0x27f-0x282.7 (4)
0x280|00 00 0c                                       |...             |
     |                                               |                |      [12]{}: leap_second_record 0x283-0x28a.7 (8)
0x280|         1d 25 ea 0c                           |   .%..         |        occur: "1985-07-01T00:00:12Z" (489024012) 0x283-0x286.7 (4)
0x280|                     00 00 00 0d               |       ....     |        corr: 13 0x287-0x28a.7 (4)
     |                                               |                |      [13]{}: leap_second_record 0x28b-0x292.7 (8)
0x280|                                 21 da e5 0d   |           !... |        occur: "1988-01-01T00:00:13Z" (567993613) 0x28b-0x28e.7 (4)
0x280|                                             00|               .|        corr: 14 0x28f-0x292.7 (4)
0x290|00 00 0e                                       |...             |
     |                                               |                |      [14]{}: leap_second_record 0x293-0x29a.7 (8)
0x290|         25 9e 9d 8e                           |   %...         |        occur: "1990-01-01T00:00:14Z" (631152014) 0x293-0x296.7 (4)
0x290|                     00 00 00 0f               |       ....     |        corr: 15 0x297-0x29a.7 (4)
     |                                               |                |      [15]{}: leap_second_record 0x29b-0x2a2.7 (8)
0x290|                                 27 7f d1 0f   |           '... |        occur: "1991-01-01T00:00:15Z" (662688015) 0x29b-0x29e.7 (4)
0x290|                                             00|               .|        corr: 16 0x29f-0x2a2.7 (4)
0x2a0|00 00 10                                       |...             |
     |                                               |                |      [16]{}: leap_second_record 0x2a3-0x2aa.7 (8)
0x2a0|         2a 50 f5 90                           |   *P..         |        occur: "1992-07-01T00:00:16Z" (709948816) 0x2a3-0x2a6.7 (4)
0x2a0|                     00 00 00 11               |       ....     |        corr: 17 0x2a7-0x2aa.7 (4)
     |                                               |                |      [17]{}: leap_second_record 0x2ab-0x2b2.7 (8)
0x2a0|                                 2c 32 29 11   |           ,2). |        occur: "1993-07-01T00:00:17Z" (741484817) 0x2ab-0x2ae.7 (4)
0x2a0|                                             00|               .|        corr: 18 0x2af-0x2b2.7 (4)
0x2b0|00 00 12                                       |...             |
     |                                               |                |      [18]{}: leap_second_record 0x2b3-0x2ba.7 (8)
0x2b0|         2e 13 5c 92                           |   ..\.         |        occur: "1994-07-01T00:00:18Z" (773020818) 0x2b3-0x2b6.7 (4)
0x2b0|                     00 00 00 13               |       ....     |        corr: 19 0x2b7-0x2ba.7 (4)
     |                                               |                |      [19]{}: leap_second_record 0x2bb-0x2c2.7 (8)
0x2b0|                                 30 e7 24 13   |           0.$. |        occur: "1996-01-01T00:00:19Z" (820454419) 0x2bb-0x2be.7 (4)
0x2b0|                                             00|               .|        corr: 20 0x2bf-0x2c2.7 (4)
0x2c0|00 00 14                                       |...             |
     |                                               |                |      [20]{}: leap_second_record 0x2c3-0x2ca.7 (8)
0x2c0|         33 b8 48 94                           |   3.H.         |        occur: "1997-07-01T00:00:20Z" (867715220) 0x2c3-0x2c6.7 (4)
0x2c0|                     00 00 00 15               |       ....     |        corr: 21 0x2c7-0x2ca.7 (4)
     |                                               |                |      [21]{}: leap_second_record 0x2cb-0x2d2.7 (8)
0x2c0|                                 36 8c 10 15   |           6... |        occur: "1999-01-01T00:00:21Z" (915148821) 0x2cb-0x2ce.7 (4)
0x2c0|                                             00|               .|        corr: 22 0x2cf-0x2d2.7 (4)
0x2d0|00 00 16                                       |...             |
     |                                               |                |      [22]{}: leap_second_record 0x2d3-0x2da.7 (8)
0x2d0|         43 b7 1b 96                           |   C...         |        occur: "2006-01-01T00:00:22Z" (1136073622) 0x2d3-0x2d6.7 (4)
0x2d0|                     00 00 00 17               |       ....     |        corr: 23 0x2d7-0x2da.7 (4)
     |                                               |                |      [23]{}: leap_second_record 0x2db-0x2e2.7 (8)
0x2d0|                                 49 5c 07 97   |           I\.. |        occur: "2009-01-01T00:00:23Z" (1230768023) 0x2db-0x2de.7 (4)
0x2d0|                                             00|               .|        corr: 24 0x2df-0x2e2.7 (4)
0x2e0|00 00 18                                       |...             |
     |                                               |                |      [24]{}: leap_second_record 0x2e3-0x2ea.7 (8)
0x2e0|         4f ef 93 18                           |   O...         |        occur: "2012-07-01T00:00:24Z" (1341100824) 0x2e3-0x2e6.7 (4)
0x2e0|                     00 00 00 19               |       ....     |        corr: 25 0x2e7-0x2ea.7 (4)
     |                                               |                |      [25]{}: leap_second_record 0x2eb-0x2f2.7 (8)
0x2e0|                                 55 93 2d 99   |           U.-. |        occur: "2015-07-01T00:00:25Z" (1435708825) 0x2eb-0x2ee.7 (4)
0x2e0|                                             00|               .|        corr: 26 0x2ef-0x2f2.7 (4)
0x2f0|00 00 1a                                       |...             |
     |                                               |                |      [26]{}: leap_second_record 0x2f3-0x2fa.7 (8)
0x2f0|         58 68 46 9a                           |   XhF.         |        occur: "2017-01-01T00:00:26Z" (1483228826) 0x2f3-0x2f6.7 (4)
0x2f0|                     00 00 00 1b               |       ....     |        corr: 27 0x2f7-0x2fa.7 (4)
     |                                               |                |    standard_wall_indicators[0:7]: 0x2fb-0x301.7 (7)
0x2f0|                                 00            |           .    |      [0]: 0 standard_wall_indicator (valid) 0x2fb-0x2fb.7 (1)
0x2f0|                                    00         |            .   |      [1]: 0 standard_wall_indicator (valid) 0x2fc-0x2fc.7 (1)
0x2f0|                                       01      |             .  |      [2]: 1 standard_wall_indicator (valid) 0x2fd-0x2fd.7 (1)
0x2f0|                                          01   |              . |      [3]: 1 standard_wall_indicator (valid) 0x2fe-0x2fe.7 (1)
0x2f0|                                             01|               .|      [4]: 1 standard_wall_indicator (valid) 0x2ff-0x2ff.7 (1)
0x300|01                                             |.               |      [5]: 1 standard_wall_indicator (valid) 0x300-0x300.7 (1)
0x300|   00                                          | .              |      [6]: 0 standard_wall_indicator (valid) 0x301-0x301.7 (1)
     |                                               |                |    ut_local_indicators[0:7]: 0x302-0x308.7 (7)
0x300|      00                                       |  .             |      [0]: 0 ut_local_indicator (valid) 0x302-0x302.7 (1)
0x300|         00                                    |   .            |      [1]: 0 ut_local_indicator (valid) 0x303-0x303.7 (1)
0x300|            00                                 |    .           |      [2]: 0 ut_local_indicator (valid) 0x304-0x304.7 (1)
0x300|               00                              |     .          |      [3]: 0 ut_local_indicator (valid) 0x305-0x305.7 (1)
0x300|                  01                           |      .         |      [4]: 1 ut_local_indicator (valid) 0x306-0x306.7 (1)
0x300|                     01                        |       .        |      [5]: 1 ut_local_indicator (valid) 0x307-0x307.7 (1)
0x300|                        00                     |        .       |      [6]: 0 ut_local_indicator (valid) 0x308-0x308.7 (1)
     |                                               |                |  v2plusheader{}: 0x309-0x334.7 (44)
0x300|                           54 5a 69 66         |         TZif   |    magic: 0x545a6966 (valid) 0x309-0x30c.7 (4)
0x300|                                       32      |             2  |    ver: "2" (0x32) (valid) 0x30d-0x30d.7 (1)
0x300|                                          00 00|              ..|    reserved: raw bits 0x30e-0x31c.7 (15)
0x310|00 00 00 00 00 00 00 00 00 00 00 00 00         |.............   |
0x310|                                       00 00 00|             ...|    isutcnt: 7 0x31d-0x320.7 (4)
0x320|07                                             |.               |
0x320|   00 00 00 07                                 | ....           |    isstdcnt: 7 0x321-0x324.7 (4)
0x320|               00 00 00 1b                     |     ....       |    leapcnt: 27 0x325-0x328.7 (4)
0x320|                           00 00 00 59         |         ...Y   |    timecnt: 89 0x329-0x32c.7 (4)
0x320|                                       00 00 00|             ...|    typecnt: 7 0x32d-0x330.7 (4)
0x330|07                                             |.               |
0x330|   00 00 00 10                                 | ....           |    charcnt: 16 0x331-0x334.7 (4)
     |                                               |                |  v2plusdatablock{}: 0x335-0x7e1.7 (1197)
     |                                               |                |    transition_times[0:89]: 0x335-0x5fc.7 (712)
0x330|               ff ff ff ff 9b 80 4c 18         |     ......L.   |      [0]: "1916-07-28T01:27:52Z" (-1686090728) transition_time 0x335-0x33c.7 (8)
0x330|                                       00 00 00|             ...|      [1]: "1980-04-06T04:00:09Z" (323841609) transition_time 0x33d-0x344.7 (8)
0x340|00 13 4d 6e 49                                 |..MnI           |
0x340|               00 00 00 00 14 34 24 c9         |     .....4$.   |      [2]: "1980-09-28T04:00:09Z" (338961609) transition_time 0x345-0x34c.7 (8)
0x340|                                       00 00 00|             ...|      [3]: "1981-03-29T02:00:09Z" (354679209) transition_time 0x34d-0x354.7 (8)
0x350|00 15 23 f9 a9                                 |..#..           |
0x350|               00 00 00 00 16 13 dc 9a         |     ........   |      [4]: "1981-09-27T01:00:10Z" (370400410) transition_time 0x355-0x35c.7 (8)
0x350|                                       00 00 00|             ...|      [5]: "1982-03-28T01:00:10Z" (386125210) transition_time 0x35d-0x364.7 (8)
0x360|00 17 03 cd 9a                                 |.....           |
0x360|               00 00 00 00 17 f3 be 9b         |     ........   |      [6]: "1982-09-26T01:00:11Z" (401850011) transition_time 0x365-0x36c.7 (8)
0x360|                                       00 00 00|             ...|      [7]: "1983-03-27T01:00:11Z" (417574811) transition_time 0x36d-0x374.7 (8)
0x370|00 18 e3 af 9b                                 |.....           |
0x370|               00 00 00 00 19 d3 a0 9c         |     ........   |      [8]: "1983-09-25T01:00:12Z" (433299612) transition_time 0x375-0x37c.7 (8)
0x370|                                       00 00 00|             ...|      [9]: "1984-03-25T01:00:12Z" (449024412) transition_time 0x37d-0x384.7 (8)
0x380|00 1a c3 91 9c                                 |.....           |
0x380|               00 00 00 00 1b bc bd 1c         |     ........   |      [10]: "1984-09-30T01:00:12Z" (465354012) transition_time 0x385-0x38c.7 (8)
0x380|                                       00 00 00|             ...|      [11]: "1985-03-31T01:00:12Z" (481078812) transition_time 0x38d-0x394.7 (8)
0x390|00 1c ac ae 1c                                 |.....           |
0x390|               00 00 00 00 1d 9c 9f 1d         |     ........   |      [12]: "1985-09-29T01:00:13Z" (496803613) transition_time 0x395-0x39c.7 (8)
0x390|                                       00 00 00|             ...|      [13]: "1986-03-30T01:00:13Z" (512528413) transition_time 0x39d-0x3a4.7 (8)
0x3a0|00 1e 8c 90 1d                                 |.....           |
0x3a0|               00 00 00 00 1f 7c 81 1d         |     .....|..   |      [14]: "1986-09-28T01:00:13Z" (528253213) transition_time 0x3a5-0x3ac.7 (8)
0x3a0|                                       00 00 00|             ...|      [15]: "1987-03-29T01:00:13Z" (543978013) transition_time 0x3ad-0x3b4.7 (8)
0x3b0|00 20 6c 72 1d                                 |. lr.           |
0x3b0|               00 00 00 00 21 5c 63 1d         |     ....!\c.   |      [16]: "1987-09-27T01:00:13Z" (559702813) transition_time 0x3b5-0x3bc.7 (8)
0x3b0|                                       00 00 00|             ...|      [17]: "1988-03-27T01:00:14Z" (575427614) transition_time 0x3bd-0x3c4.7 (8)
0x3c0|00 22 4c 54 1e                                 |."LT.           |
0x3c0|               00 00 00 00 23 3c 45 1e         |     ....#<E.   |      [18]: "1988-09-25T01:00:14Z" (591152414) transition_time 0x3c5-0x3cc.7 (8)
0x3c0|                                       00 00 00|             ...|      [19]: "1989-03-26T01:00:14Z" (606877214) transition_time 0x3cd-0x3d4.7 (8)
0x3d0|00 24 2c 36 1e                                 |.$,6.           |
0x3d0|               00 00 00 00 25 1c 27 1e         |     ....%.'.   |      [20]: "1989-09-24T01:00:14Z" (622602014) transition_time 0x3d5-0x3dc.7 (8)
0x3d0|                                       00 00 00|             ...|      [21]: "1990-03-25T01:00:15Z" (638326815) transition_time 0x3dd-0x3e4.7 (8)
0x3e0|00 26 0c 18 1f                                 |.&...           |
0x3e0|               00 00 00 00 27 05 43 9f         |     ....'.C.   |      [22]: "1990-09-30T01:00:15Z" (654656415) transition_time 0x3e5-0x3ec.7 (8)
0x3e0|                                       00 00 00|             ...|      [23]: "1991-03-31T01:00:16Z" (670381216) transition_time 0x3ed-0x3f4.7 (8)
0x3f0|00 27 f5 34 a0                                 |.'.4.           |
0x3f0|               00 00 00 00 28 e5 25 a0         |     ....(.%.   |      [24]: "1991-09-29T01:00:16Z" (686106016) transition_time 0x3f5-0x3fc.7 (8)
0x3f0|                                       00 00 00|             ...|      [25]: "1992-03-29T01:00:16Z" (701830816) transition_time 0x3fd-0x404.7 (8)
0x400|00 29 d5 16 a0                                 |.)...           |
0x400|               00 00 00 00 2a c5 07 a1         |     ....*...   |      [26]: "1992-09-27T01:00:17Z" (717555617) transition_time 0x405-0x40c.7 (8)
0x400|                                       00 00 00|             ...|      [27]: "1993-03-28T01:00:17Z" (733280417) transition_time 0x40d-0x414.7 (8)
0x410|00 2b b4 f8 a1                                 |.+...           |
0x410|               00 00 00 00 2c a4 e9 a2         |     ....,...   |      [28]: "1993-09-26T01:00:18Z" (749005218) transition_time 0x415-0x41c.7 (8)
0x410|                                       00 00 00|             ...|      [29]: "1994-03-27T01:00:18Z" (764730018) transition_time 0x41d-0x424.7 (8)
0x420|00 2d 94 da a2                                 |.-...           |
0x420|               00 00 00 00 2e 84 cb a3         |     ........   |      [30]: "1994-09-25T01:00:19Z" (780454819) transition_time 0x425-0x42c.7 (8)
0x420|                                       00 00 00|             ...|      [31]: "1995-03-26T01:00:19Z" (796179619) transition_time 0x42d-0x434.7 (8)
0x430|00 2f 74 bc a3                                 |./t..           |
0x430|               00 00 00 00 30 64 ad a3         |     ....0d..   |      [32]: "1995-09-24T01:00:19Z" (811904419) transition_time 0x435-0x43c.7 (8)
0x430|                                       00 00 00|             ...|      [33]: "1996-03-31T01:00:20Z" (828234020) transition_time 0x43d-0x444.7 (8)
0x440|00 31 5d d9 24                                 |.1].$           |
0x440|               00 00 00 00 32 72 b4 24         |     ....2r.$   |      [34]: "1996-10-27T01:00:20Z" (846378020) transition_time 0x445-0x44c.7 (8)
0x440|                                       00 00 00|             ...|      [35]: "1997-03-30T01:00:20Z" (859683620) transition_time 0x44d-0x454.7 (8)
0x450|00 33 3d bb 24                                 |.3=.$           |
0x450|               00 00 00 00 34 52 96 25         |     ....4R.%   |      [36]: "1997-10-26T01:00:21Z" (877827621) transition_time 0x455-0x45c.7 (8)
0x450|                                       00 00 00|             ...|      [37]: "1998-03-29T01:00:21Z" (891133221) transition_time 0x45d-0x464.7 (8)
0x460|00 35 1d 9d 25                                 |.5..%           |
0x460|               00 00 00 00 36 32 78 25         |     ....62x%   |      [38]: "1998-10-25T01:00:21Z" (909277221) transition_time 0x465-0x46c.7 (8)
0x460|                                       00 00 00|             ...|      [39]: "1999-03-28T01:00:22Z" (922582822) transition_time 0x46d-0x474.7 (8)
0x470|00 36 fd 7f 26                                 |.6..&           |
0x470|               00 00 00 00 38 1b 94 a6         |     ....8...   |      [40]: "1999-10-31T01:00:22Z" (941331622) transition_time 0x475-0x47c.7 (8)
0x470|                                       00 00 00|             ...|      [41]: "2000-03-26T01:00:22Z" (954032422) transition_time 0x47d-0x484.7 (8)
0x480|00 38 dd 61 26                                 |.8.a&           |
0x480|               00 00 00 00 39 fb 76 a6         |     ....9.v.   |      [42]: "2000-10-29T01:00:22Z" (972781222) transition_time 0x485-0x48c.7 (8)
0x480|                                       00 00 00|             ...|      [43]: "2001-03-25T01:00:22Z" (985482022) transition_time 0x48d-0x494.7 (8)
0x490|00 3a bd 43 26                                 |.:.C&           |
0x490|               00 00 00 00 3b db 58 a6         |     ....;.X.   |      [44]: "2001-10-28T01:00:22Z" (1004230822) transition_time 0x495-0x49c.7 (8)
0x490|                                       00 00 00|             ...|      [45]: "2002-03-31T01:00:22Z" (1017536422) transition_time 0x49d-0x4a4.7 (8)
0x4a0|00 3c a6 5f a6                                 |.<._.           |
0x4a0|               00 00 00 00 3d bb 3a a6         |     ....=.:.   |      [46]: "2002-10-27T01:00:22Z" (1035680422) transition_time 0x4a5-0x4ac.7 (8)
0x4a0|                                       00 00 00|             ...|      [47]: "2003-03-30T01:00:22Z" (1048986022) transition_time 0x4ad-0x4b4.7 (8)
0x4b0|00 3e 86 41 a6                                 |.>.A.           |
0x4b0|               00 00 00 00 3f 9b 1c a6         |     ....?...   |      [48]: "2003-10-26T01:00:22Z" (1067130022) transition_time 0x4b5-0x4bc.7 (8)
0x4b0|                                       00 00 00|             ...|      [49]: "2004-03-28T01:00:22Z" (1080435622) transition_time 0x4bd-0x4c4.7 (8)
0x4c0|00 40 66 23 a6                                 |.@f#.           |
0x4c0|               00 00 00 00 41 84 39 26         |     ....A.9&   |      [50]: "2004-10-31T01:00:22Z" (1099184422) transition_time 0x4c5-0x4cc.7 (8)
0x4c0|                                       00 00 00|             ...|      [51]: "2005-03-27T01:00:22Z" (1111885222) transition_time 0x4cd-0x4d4.7 (8)
0x4d0|00 42 46 05 a6                                 |.BF..           |
0x4d0|               00 00 00 00 43 64 1b 26         |     ....Cd.&   |      [52]: "2005-10-30T01:00:22Z" (1130634022) transition_time 0x4d5-0x4dc.7 (8)
0x4d0|                                       00 00 00|             ...|      [53]: "2006-03-26T01:00:23Z" (1143334823) transition_time 0x4dd-0x4e4.7 (8)
0x4e0|00 44 25 e7 a7                                 |.D%..           |
0x4e0|               00 00 00 00 45 43 fd 27         |     ....EC.'   |      [54]: "2006-10-29T01:00:23Z" (1162083623) transition_time 0x4e5-0x4ec.7 (8)
0x4e0|                                       00 00 00|             ...|      [55]: "2007-03-25T01:00:23Z" (1174784423) transition_time 0x4ed-0x4f4.7 (8)
0x4f0|00 46 05 c9 a7                                 |.F...           |
0x4f0|               00 00 00 00 47 23 df 27         |     ....G#.'   |      [56]: "2007-10-28T01:00:23Z" (1193533223) transition_time 0x4f5-0x4fc.7 (8)
0x4f0|                                       00 00 00|             ...|      [57]: "2008-03-30T01:00:23Z" (1206838823) transition_time 0x4fd-0x504.7 (8)
0x500|00 47 ee e6 27                                 |.G..'           |
0x500|               00 00 00 00 49 03 c1 27         |     ....I..'   |      [58]: "2008-10-26T01:00:23Z" (1224982823) transition_time 0x505-0x50c.7 (8)
0x500|                                       00 00 00|             ...|      [59]: "2009-03-29T01:00:24Z" (1238288424) transition_time 0x50d-0x514.7 (8)
0x510|00 49 ce c8 28                                 |.I..(           |
0x510|               00 00 00 00 4a e3 a3 28         |     ....J..(   |      [60]: "2009-10-25T01:00:24Z" (1256432424) transition_time 0x515-0x51c.7 (8)
0x510|                                       00 00 00|             ...|      [61]: "2010-03-28T01:00:24Z" (1269738024) transition_time 0x51d-0x524.7 (8)
0x520|00 4b ae aa 28                                 |.K..(           |
0x520|               00 00 00 00 4c cc bf a8         |     ....L...   |      [62]: "2010-10-31T01:00:24Z" (1288486824) transition_time 0x525-0x52c.7 (8)
0x520|                                       00 00 00|             ...|      [63]: "2011-03-27T01:00:24Z" (1301187624) transition_time 0x52d-0x534.7 (8)
0x530|00 4d 8e 8c 28                                 |.M..(           |
0x530|               00 00 00 00 4e ac a1 a8         |     ....N...   |      [64]: "2011-10-30T01:00:24Z" (1319936424) transition_time 0x535-0x53c.7 (8)
0x530|                                       00 00 00|             ...|      [65]: "2012-03-25T01:00:24Z" (1332637224) transition_time 0x53d-0x544.7 (8)
0x540|00 4f 6e 6e 28                                 |.Onn(           |
0x540|               00 00 00 00 50 8c 83 a9         |     ....P...   |      [66]: "2012-10-28T01:00:25Z" (1351386025) transition_time 0x545-0x54c.7 (8)
0x540|                                       00 00 00|             ...|      [67]: "2013-03-31T01:00:25Z" (1364691625) transition_time 0x54d-0x554.7 (8)
0x550|00 51 57 8a a9                                 |.QW..           |
0x550|               00 00 00 00 52 6c 65 a9         |     ....Rle.   |      [68]: "2013-10-27T01:00:25Z" (1382835625) transition_time 0x555-0x55c.7 (8)
0x550|                                       00 00 00|             ...|      [69]: "2014-03-30T01:00:25Z" (1396141225) transition_time 0x55d-0x564.7 (8)
0x560|00 53 37 6c a9                                 |.S7l.           |
0x560|               00 00 00 00 54 4c 47 a9         |     ....TLG.   |      [70]: "2014-10-26T01:00:25Z" (1414285225) transition_time 0x565-0x56c.7 (8)
0x560|                                       00 00 00|             ...|      [71]: "2015-03-29T01:00:25Z" (1427590825) transition_time 0x56d-0x574.7 (8)
0x570|00 55 17 4e a9                                 |.U.N.           |
0x570|               00 00 00 00 56 2c 29 aa         |     ....V,).   |      [72]: "2015-10-25T01:00:26Z" (1445734826) transition_time 0x575-0x57c.7 (8)
0x570|                                       00 00 00|             ...|      [73]: "2016-03-27T01:00:26Z" (1459040426) transition_time 0x57d-0x584.7 (8)
0x580|00 56 f7 30 aa                                 |.V.0.           |
0x580|               00 00 00 00 58 15 46 2a         |     ....X.F*   |      [74]: "2016-10-30T01:00:26Z" (1477789226) transition_time 0x585-0x58c.7 (8)
0x580|                                       00 00 00|             ...|      [75]: "2017-03-26T01:00:27Z" (1490490027) transition_time 0x58d-0x594.7 (8)
0x590|00 58 d7 12 ab                                 |.X...           |
0x590|               00 00 00 00 59 f5 28 2b         |     ....Y.(+   |      [76]: "2017-10-29T01:00:27Z" (1509238827) transition_time 0x595-0x59c.7 (8)
0x590|                                       00 00 00|             ...|      [77]: "2018-03-25T01:00:27Z" (1521939627) transition_time 0x59d-0x5a4.7 (8)
0x5a0|00 5a b6 f4 ab                                 |.Z...           |
0x5a0|               00 00 00 00 5b d5 0a 2b         |     ....[..+   |      [78]: "2018-10-28T01:00:27Z" (1540688427) transition_time 0x5a5-0x5ac.7 (8)
0x5a0|                                       00 00 00|             ...|      [79]: "2019-03-31T01:00:27Z" (1553994027) transition_time 0x5ad-0x5b4.7 (8)
0x5b0|00 5c a0 11 2b                                 |.\..+           |
0x5b0|               00 00 00 00 5d b4 ec 2b         |     ....]..+   |      [80]: "2019-10-27T01:00:27Z" (1572138027) transition_time 0x5b5-0x5bc.7 (8)
0x5b0|                                       00 00 00|             ...|      [81]: "2020-03-29T01:00:27Z" (1585443627) transition_time 0x5bd-0x5c4.7 (8)
0x5c0|00 5e 7f f3 2b                                 |.^..+           |
0x5c0|               00 00 00 00 5f 94 ce 2b         |     ...._..+   |      [82]: "2020-10-25T01:00:27Z" (1603587627) transition_time 0x5c5-0x5cc.7 (8)
0x5c0|                                       00 00 00|             ...|      [83]: "2021-03-28T01:00:27Z" (1616893227) transition_time 0x5cd-0x5d4.7 (8)
0x5d0|00 60 5f d5 2b                                 |.`_.+           |
0x5d0|               00 00 00 00 61 7d ea ab         |     ....a}..   |      [84]: "2021-10-31T01:00:27Z" (1635642027) transition_time 0x5d5-0x5dc.7 (8)
0x5d0|                                       00 00 00|             ...|      [85]: "2022-03-27T01:00:27Z" (1648342827) transition_time 0x5dd-0x5e4.7 (8)
0x5e0|00 62 3f b7 2b                                 |.b?.+           |
0x5e0|               00 00 00 00 63 5d cc ab         |     ....c]..   |      [86]: "2022-10-30T01:00:27Z" (1667091627) transition_time 0x5e5-0x5ec.7 (8)
0x5e0|                                       00 00 00|             ...|      [87]: "2023-03-26T01:00:27Z" (1679792427) transition_time 0x5ed-0x5f4.7 (8)
0x5f0|00 64 1f 99 2b                                 |.d..+           |
0x5f0|               00 00 00 00 64 9b 78 1b         |     ....d.x.   |      [88]: "2023-06-28T00:00:27Z" (1687910427) transition_time 0x5f5-0x5fc.7 (8)
     |                                               |                |    transition_types[0:89]: 0x5fd-0x655.7 (89)
0x5f0|                                       01      |             .  |      [0]: 1 transition_type 0x5fd-0x5fd.7 (1)
0x5f0|                                          02   |              . |      [1]: 2 transition_type 0x5fe-0x5fe.7 (1)
0x5f0|                                             03|               .|      [2]: 3 transition_type 0x5ff-0x5ff.7 (1)
0x600|06                                             |.               |      [3]: 6 transition_type 0x600-0x600.7 (1)
0x600|   04                                          | .              |      [4]: 4 transition_type 0x601-0x601.7 (1)
0x600|      05                                       |  .             |      [5]: 5 transition_type 0x602-0x602.7 (1)
0x600|         04                                    |   .            |      [6]: 4 transition_type 0x603-0x603.7 (1)
0x600|            05                                 |    .           |      [7]: 5 transition_type 0x604-0x604.7 (1)
0x600|               04                              |     .          |      [8]: 4 transition_type 0x605-0x605.7 (1)
0x600|                  05                           |      .         |      [9]: 5 transition_type 0x606-0x606.7 (1)
0x600|                     04                        |       .        |      [10]: 4 transition_type 0x607-0x607.7 (1)
0x600|                        05                     |        .       |      [11]: 5 transition_type 0x608-0x608.7 (1)
0x600|                           04                  |         .      |      [12]: 4 transition_type 0x609-0x609.7 (1)
0x600|                              05               |          .     |      [13]: 5 transition_type 0x60a-0x60a.7 (1)
0x600|                                 04            |           .    |      [14]: 4 transition_type 0x60b-0x60b.7 (1)
0x600|                                    05         |            .   |      [15]: 5 transition_type 0x60c-0x60c.7 (1)
0x600|                                       04      |             .  |      [16]: 4 transition_type 0x60d-0x60d.7 (1)
0x600|                                          05   |              . |      [17]: 5 transition_type 0x60e-0x60e.7 (1)
0x600|                                             04|               .|      [18]: 4 transition_type 0x60f-0x60f.7 (1)
0x610|05                                             |.               |      [19]: 5 transition_type 0x610-0x610.7 (1)
0x610|   04                                          | .              |      [20]: 4 transition_type 0x611-0x611.7 (1)
0x610|      05                                       |  .             |      [21]: 5 transition_type 0x612-0x612.7 (1)
0x610|         04                                    |   .            |      [22]: 4 transition_type 0x613-0x613.7 (1)
0x610|            05                                 |    .           |      [23]: 5 transition_type 0x614-0x614.7 (1)
0x610|               04                              |     .          |      [24]: 4 transition_type 0x615-0x615.7 (1)
0x610|                  05                           |      .         |      [25]: 5 transition_type 0x616-0x616.7 (1)
0x610|                     04                        |       .        |      [26]: 4 transition_type 0x617-0x617.7 (1)
0x610|                        05                     |        .       |      [27]: 5 transition_type 0x618-0x618.7 (1)
0x610|                           04                  |         .      |      [28]: 4 transition_type 0x619-0x619.7 (1)
0x610|                              05               |          .     |      [29]: 5 transition_type 0x61a-0x61a.7 (1)
0x610|                                 04            |           .    |      [30]: 4 transition_type 0x61b-0x61b.7 (1)
0x610|                                    05         |            .   |      [31]: 5 transition_type 0x61c-0x61c.7 (1)
0x610|                                       04      |             .  |      [32]: 4 transition_type 0x61d-0x61d.7 (1)
0x610|                                          05   |              . |      [33]: 5 transition_type 0x61e-0x61e.7 (1)
0x610|                                             04|               .|      [34]: 4 transition_type 0x61f-0x61f.7 (1)
0x620|05                                             |.               |      [35]: 5 transition_type 0x620-0x620.7 (1)
0x620|   04                                          | .              |      [36]: 4 transition_type 0x621-0x621.7 (1)
0x620|      05                                       |  .             |      [37]: 5 transition_type 0x622-0x622.7 (1)
0x620|         04                                    |   .            |      [38]: 4 transition_type 0x623-0x623.7 (1)
0x620|            05                                 |    .           |      [39]: 5 transition_type 0x624-0x624.7 (1)
0x620|               04                              |     .          |      [40]: 4 transition_type 0x625-0x625.7 (1)
0x620|                  05                           |      .         |      [41]: 5 transition_type 0x626-0x626.7 (1)
0x620|                     04                        |       .        |      [42]: 4 transition_type 0x627-0x627.7 (1)
0x620|                        05                     |        .       |      [43]: 5 transition_type 0x628-0x628.7 (1)
0x620|                           04                  |         .      |      [44]: 4 transition_type 0x629-0x629.7 (1)
0x620|                              05               |          .     |      [45]: 5 transition_type 0x62a-0x62a.7 (1)
0x620|                                 04            |           .    |      [46]: 4 transition_type 0x62b-0x62b.7 (1)
0x620|                                    05         |            .   |      [47]: 5 transition_type 0x62c-0x62c.7 (1)
0x620|                                       04      |             .  |      [48]: 4 transition_type 0x62d-0x62d.7 (1)
0x620|                                          05   |              . |      [49]: 5 transition_type 0x62e-0x62e.7 (1)
0x620|                                             04|               .|      [50]: 4 transition_type 0x62f-0x62f.7 (1)
0x630|05                                             |.               |      [51]: 5 transition_type 0x630-0x630.7 (1)
0x630|   04                                          | .              |      [52]: 4 transition_type 0x631-0x631.7 (1)
0x630|      05                                       |  .             |      [53]: 5 transition_type 0x632-0x632.7 (1)
0x630|         04                                    |   .            |      [54]: 4 transition_type 0x633-0x633.7 (1)
0x630|            05                                 |    .           |      [55]: 5 transition_type 0x634-0x634.7 (1)
0x630|               04                              |     .          |      [56]: 4 transition_type 0x635-0x635.7 (1)
0x630|                  05                           |      .         |      [57]: 5 transition_type 0x636-0x636.7 (1)
0x630|                     04                        |       .        |      [58]: 4 transition_type 0x637-0x637.7 (1)
0x630|                        05                     |        .       |      [59]: 5 transition_type 0x638-0x638.7 (1)
0x630|                           04                  |         .      |      [60]: 4 transition_type 0x639-0x639.7 (1)
0x630|                              05               |          .     |      [61]: 5 transition_type 0x63a-0x63a.7 (1)
0x630|                                 04            |           .    |      [62]: 4 transition_type 0x63b-0x63b.7 (1)
0x630|                                    05         |            .   |      [63]: 5 transition_type 0x63c-0x63c.7 (1)
0x630|                                       04      |             .  |      [64]: 4 transition_type 0x63d-0x63d.7 (1)
0x630|                                          05   |              . |      [65]: 5 transition_type 0x63e-0x63e.7 (1)
0x630|                                             04|               .|      [66]: 4 transition_type 0x63f-0x63f.7 (1)
0x640|05                                             |.               |      [67]: 5 transition_type 0x640-0x640.7 (1)
0x640|   04                                          | .              |      [68]: 4 transition_type 0x641-0x641.7 (1)
0x640|      05                                       |  .             |      [69]: 5 transition_type 0x642-0x642.7 (1)
0x640|         04                                    |   .            |      [70]: 4 transition_type 0x643-0x643.7 (1)
0x640|            05                                 |    .           |      [71]: 5 transition_type 0x644-0x644.7 (1)
0x640|               04                              |     .          |      [72]: 4 transition_type 0x645-0x645.7 (1)
0x640|                  05                           |      .         |      [73]: 5 transition_type 0x646-0x646.7 (1)
0x640|                     04                        |       .        |      [74]: 4 transition_type 0x647-0x647.7 (1)
0x640|                        05                     |        .       |      [75]: 5 transition_type 0x648-0x648.7 (1)
0x640|                           04                  |         .      |      [76]: 4 transition_type 0x649-0x649.7 (1)
0x640|                              05               |          .     |      [77]: 5 transition_type 0x64a-0x64a.7 (1)
0x640|                                 04            |           .    |      [78]: 4 transition_type 0x64b-0x64b.7 (1)
0x640|                                    05         |            .   |      [79]: 5 transition_type 0x64c-0x64c.7 (1)
0x640|                                       04      |             .  |      [80]: 4 transition_type 0x64d-0x64d.7 (1)
0x640|                                          05   |              . |      [81]: 5 transition_type 0x64e-0x64e.7 (1)
0x640|                                             04|               .|      [82]: 4 transition_type 0x64f-0x64f.7 (1)
0x650|05                                             |.               |      [83]: 5 transition_type 0x650-0x650.7 (1)
0x650|   04                                          | .              |      [84]: 4 transition_type 0x651-0x651.7 (1)
0x650|      05                                       |  .             |      [85]: 5 transition_type 0x652-0x652.7 (1)
0x650|         04                                    |   .            |      [86]: 4 transition_type 0x653-0x653.7 (1)
0x650|            05                                 |    .           |      [87]: 5 transition_type 0x654-0x654.7 (1)
0x650|               05                              |     .          |      [88]: 5 transition_type 0x655-0x655.7 (1)
     |                                               |                |    local_time_type_records[0:7]: 0x656-0x67f.7 (42)
     |                                               |                |      [0]{}: local_time_type 0x656-0x65b.7 (6)
0x650|                  ff ff eb 68                  |      ...h      |        utoff: -5272 (valid) 0x656-0x659.7 (4)
0x650|                              00               |          .     |        dst: 0 (valid) 0x65a-0x65a.7 (1)
0x650|                                 00            |           .    |        idx: 0 (valid) 0x65b-0x65b.7 (1)
     |                                               |                |      [1]{}: local_time_type 0x65c-0x661.7 (6)
0x650|                                    ff ff e3 e0|            ....|        utoff: -7200 (valid) 0x65c-0x65f.7 (4)
0x660|00                                             |.               |        dst: 0 (valid) 0x660-0x660.7 (1)
0x660|   04                                          | .              |        idx: 4 (valid) 0x661-0x661.7 (1)
     |                                               |                |      [2]{}: local_time_type 0x662-0x667.7 (6)
0x660|      ff ff f1 f0                              |  ....          |        utoff: -3600 (valid) 0x662-0x665.7 (4)
0x660|                  01                           |      .         |        dst: 1 (valid) 0x666-0x666.7 (1)
0x660|                     08                        |       .        |        idx: 8 (valid) 0x667-0x667.7 (1)
     |                                               |                |      [3]{}: local_time_type 0x668-0x66d.7 (6)
0x660|                        ff ff e3 e0            |        ....    |        utoff: -7200 (valid) 0x668-0x66b.7 (4)
0x660|                                    00         |            .   |        dst: 0 (valid) 0x66c-0x66c.7 (1)
0x660|                                       04      |             .  |        idx: 4 (valid) 0x66d-0x66d.7 (1)
     |                                               |                |      [4]{}: local_time_type 0x66e-0x673.7 (6)
0x660|                                          ff ff|              ..|        utoff: -3600 (valid) 0x66e-0x671.7 (4)
0x670|f1 f0                                          |..              |
0x670|      00                                       |  .             |        dst: 0 (valid) 0x672-0x672.7 (1)
0x670|         08                                    |   .            |        idx: 8 (valid) 0x673-0x673.7 (1)
     |                                               |                |      [5]{}: local_time_type 0x674-0x679.7 (6)
0x670|            00 00 00 00                        |    ....        |        utoff: 0 (valid) 0x674-0x677.7 (4)
0x670|                        01                     |        .       |        dst: 1 (valid) 0x678-0x678.7 (1)
0x670|                           0c                  |         .      |        idx: 12 (valid) 0x679-0x679.7 (1)
     |                                               |                |      [6]{}: local_time_type 0x67a-0x67f.7 (6)
0x670|                              00 00 00 00      |          ....  |        utoff: 0 (valid) 0x67a-0x67d.7 (4)
0x670|                                          01   |              . |        dst: 1 (valid) 0x67e-0x67e.7 (1)
0x670|                                             0c|               .|        idx: 12 (valid) 0x67f-0x67f.7 (1)
     |                                               |                |    time_zone_designations[0:4]: 0x680-0x68f.7 (16)
0x680|4c 4d 54 00                                    |LMT.            |      [0]: "LMT" time_zone_designation 0x680-0x683.7 (4)
0x680|            2d 30 32 00                        |    -02.        |      [1]: "-02" time_zone_designation 0x684-0x687.7 (4)
0x680|                        2d 30 31 00            |        -01.    |      [2]: "-01" time_zone_designation 0x688-0x68b.7 (4)
0x680|                                    2b 30 30 00|            +00.|      [3]: "+00" time_zone_designation 0x68c-0x68f.7 (4)
     |                                               |                |    leap_second_records[0:27]: 0x690-0x7d3.7 (324)
     |                                               |                |      [0]{}: leap_second_record 0x690-0x69b.7 (12)
0x690|00 00 00 00 04 b2 58 00                        |......X.        |        occur: "1972-07-01T00:00:00Z" (78796800) 0x690-0x697.7 (8)
0x690|                        00 00 00 01            |        ....    |        corr: 1 0x698-0x69b.7 (4)
     |                                               |                |      [1]{}: leap_second_record 0x69c-0x6a7.7 (12)
0x690|                                    00 00 00 00|            ....|        occur: "1973-01-01T00:00:01Z" (94694401) 0x69c-0x6a3.7 (8)
0x6a0|05 a4 ec 01                                    |....            |
0x6a0|            00 00 00 02                        |    ....        |        corr: 2 0x6a4-0x6a7.7 (4)
     |                                               |                |      [2]{}: leap_second_record 0x6a8-0x6b3.7 (12)
0x6a0|                        00 00 00 00 07 86 1f 82|        ........|        occur: "1974-01-01T00:00:02Z" (126230402) 0x6a8-0x6af.7 (8)
0x6b0|00 00 00 03                                    |....            |        corr: 3 0x6b0-0x6b3.7 (4)
     |                                               |                |      [3]{}: leap_second_record 0x6b4-0x6bf.7 (12)
0x6b0|            00 00 00 00 09 67 53 03            |    .....gS.    |        occur: "1975-01-01T00:00:03Z" (157766403) 0x6b4-0x6bb.7 (8)
0x6b0|                                    00 00 00 04|            ....|        corr: 4 0x6bc-0x6bf.7 (4)
     |                                               |                |      [4]{}: leap_second_record 0x6c0-0x6cb.7 (12)
0x6c0|00 00 00 00 0b 48 86 84                        |.....H..        |        occur: "1976-01-01T00:00:04Z" (189302404) 0x6c0-0x6c7.7 (8)
0x6c0|                        00 00 00 05            |        ....    |        corr: 5 0x6c8-0x6cb.7 (4)
     |                                               |                |      [5]{}: leap_second_record 0x6cc-0x6d7.7 (12)
0x6c0|                                    00 00 00 00|            ....|        occur: "1977-01-01T00:00:05Z" (220924805) 0x6cc-0x6d3.7 (8)
0x6d0|0d 2b 0b 85                                    |.+..            |
0x6d0|            00 00 00 06                        |    ....        |        corr: 6 0x6d4-0x6d7.7 (4)
     |                                               |                |      [6]{}: leap_second_record 0x6d8-0x6e3.7 (12)
0x6d0|                        00 00 00 00 0f 0c 3f 06|        ......?.|        occur: "1978-01-01T00:00:06Z" (252460806) 0x6d8-0x6df.7 (8)
0x6e0|00 00 00 07                                    |....            |        corr: 7 0x6e0-0x6e3.7 (4)
     |                                               |                |      [7]{}: leap_second_record 0x6e4-0x6ef.7 (12)
0x6e0|            00 00 00 00 10 ed 72 87            |    ......r.    |        occur: "1979-01-01T00:00:07Z" (283996807) 0x6e4-0x6eb.7 (8)
0x6e0|                                    00 00 00 08|            ....|        corr: 8 0x6ec-0x6ef.7 (4)
     |                                               |                |      [8]{}: leap_second_record 0x6f0-0x6fb.7 (12)
0x6f0|00 00 00 00 12 ce a6 08                        |........        |        occur: "1980-01-01T00:00:08Z" (315532808) 0x6f0-0x6f7.7 (8)
0x6f0|                        00 00 00 09            |        ....    |        corr: 9 0x6f8-0x6fb.7 (4)
     |                                               |                |      [9]{}: leap_second_record 0x6fc-0x707.7 (12)
0x6f0|                                    00 00 00 00|            ....|        occur: "1981-07-01T00:00:09Z" (362793609) 0x6fc-0x703.7 (8)
0x700|15 9f ca 89                                    |....            |
0x700|            00 00 00 0a                        |    ....        |        corr: 10 0x704-0x707.7 (4)
     |                                               |                |      [10]{}: leap_second_record 0x708-0x713.7 (12)
0x700|                        00 00 00 00 17 80 fe 0a|        ........|        occur: "1982-07-01T00:00:10Z" (394329610) 0x708-0x70f.7 (8)
0x710|00 00 00 0b                                    |....            |        corr: 11 0x710-0x713.7 (4)
     |                                               |                |      [11]{}: leap_second_record 0x714-0x71f.7 (12)
0x710|            00 00 00 00 19 62 31 8b            |    .....b1.    |        occur: "1983-07-01T00:00:11Z" (425865611) 0x714-0x71b.7 (8)
0x710|                                    00 00 00 0c|            ....|        corr: 12 0x71c-0x71f.7 (4)
     |                                               |                |      [12]{}: leap_second_record 0x720-0x72b.7 (12)
0x720|00 00 00 00 1d 25 ea 0c                        |.....%..        |        occur: "1985-07-01T00:00:12Z" (489024012) 0x720-0x727.7 (8)
0x720|                        00 00 00 0d            |        ....    |        corr: 13 0x728-0x72b.7 (4)
     |                                               |                |      [13]{}: leap_second_record 0x72c-0x737.7 (12)
0x720|                                    00 00 00 00|            ....|        occur: "1988-01-01T00:00:13Z" (567993613) 0x72c-0x733.7 (8)
0x730|21 da e5 0d                                    |!...            |
0x730|            00 00 00 0e                        |    ....        |        corr: 14 0x734-0x737.7 (4)
     |                                               |                |      [14]{}: leap_second_record 0x738-0x743.7 (12)
0x730|                        00 00 00 00 25 9e 9d 8e|        ....%...|        occur: "1990-01-01T00:00:14Z" (631152014) 0x738-0x73f.7 (8)
0x740|00 00 00 0f                                    |....            |        corr: 15 0x740-0x743.7 (4)
     |                                               |                |      [15]{}: leap_second_record 0x744-0x74f.7 (12)
0x740|            00 00 00 00 27 7f d1 0f            |    ....'...    |        occur: "1991-01-01T00:00:15Z" (662688015) 0x744-0x74b.7 (8)
0x740|                                    00 00 00 10|            ....|        corr: 16 0x74c-0x74f.7 (4)
     |                                               |                |      [16]{}: leap_second_record 0x750-0x75b.7 (12)
0x750|00 00 00 00 2a 50 f5 90                        |....*P..        |        occur: "1992-07-01T00:00:16Z" (709948816) 0x750-0x757.7 (8)
0x750|                        00 00 00 11            |        ....    |        corr: 17 0x758-0x75b.7 (4)
     |                                               |                |      [17]{}: leap_second_record 0x75c-0x767.7 (12)
0x750|                                    00 00 00 00|            ....|        occur: "1993-07-01T00:00:17Z" (741484817) 0x75c-0x763.7 (8)
0x760|2c 32 29 11                                    |,2).            |
0x760|            00 00 00 12                        |    ....        |        corr: 18 0x764-0x767.7 (4)
     |                                               |                |      [18]{}: leap_second_record 0x768-0x773.7 (12)
0x760|                        00 00 00 00 2e 13 5c 92|        ......\.|        occur: "1994-07-01T00:00:18Z" (773020818) 0x768-0x76f.7 (8)
0x770|00 00 00 13                                    |....            |        corr: 19 0x770-0x773.7 (4)
     |                                               |                |      [19]{}: leap_second_record 0x774-0x77f.7 (12)
0x770|            00 00 00 00 30 e7 24 13            |    ....0.$.    |        occur: "1996-01-01T00:00:19Z" (820454419) 0x774-0x77b.7 (8)
0x770|                                    00 00 00 14|            ....|        corr: 20 0x77c-0x77f.7 (4)
     |                                               |                |      [20]{}: leap_second_record 0x780-0x78b.7 (12)
0x780|00 00 00 00 33 b8 48 94                        |....3.H.        |        occur: "1997-07-01T00:00:20Z" (867715220) 0x780-0x787.7 (8)
0x780|                        00 00 00 15            |        ....    |        corr: 21 0x788-0x78b.7 (4)
     |                                               |                |      [21]{}: leap_second_record 0x78c-0x797.7 (12)
0x780|                                    00 00 00 00|            ....|        occur: "1999-01-01T00:00:21Z" (915148821) 0x78c-0x793.7 (8)
0x790|36 8c 10 15                                    |6...            |
0x790|            00 00 00 16                        |    ....        |        corr: 22 0x794-0x797.7 (4)
     |                                               |                |      [22]{}: leap_second_record 0x798-0x7a3.7 (12)
0x790|                        00 00 00 00 43 b7 1b 96|        ....C...|        occur: "2006-01-01T00:00:22Z" (1136073622) 0x798-0x79f.7 (8)
0x7a0|00 00 00 17                                    |....            |        corr: 23 0x7a0-0x7a3.7 (4)
     |                                               |                |      [23]{}: leap_second_record 0x7a4-0x7af.7 (12)
0x7a0|            00 00 00 00 49 5c 07 97            |    ....I\..    |        occur: "2009-01-01T00:00:23Z" (1230768023) 0x7a4-0x7ab.7 (8)
0x7a0|                                    00 00 00 18|            ....|        corr: 24 0x7ac-0x7af.7 (4)
     |                                               |                |      [24]{}: leap_second_record 0x7b0-0x7bb.7 (12)
0x7b0|00 00 00 00 4f ef 93 18                        |....O...        |        occur: "2012-07-01T00:00:24Z" (1341100824) 0x7b0-0x7b7.7 (8)
0x7b0|                        00 00 00 19            |        ....    |        corr: 25 0x7b8-0x7bb.7 (4)
     |                                               |                |      [25]{}: leap_second_record 0x7bc-0x7c7.7 (12)
0x7b0|                                    00 00 00 00|            ....|        occur: "2015-07-01T00:00:25Z" (1435708825) 0x7bc-0x7c3.7 (8)
0x7c0|55 93 2d 99                                    |U.-.            |
0x7c0|            00 00 00 1a                        |    ....        |        corr: 26 0x7c4-0x7c7.7 (4)
     |                                               |                |      [26]{}: leap_second_record 0x7c8-0x7d3.7 (12)
0x7c0|                        00 00 00 00 58 68 46 9a|        ....XhF.|        occur: "2017-01-01T00:00:26Z" (1483228826) 0x7c8-0x7cf.7 (8)
0x7d0|00 00 00 1b                                    |....            |        corr: 27 0x7d0-0x7d3.7 (4)
     |                                               |                |    standard_wall_indicators[0:7]: 0x7d4-0x7da.7 (7)
0x7d0|            00                                 |    .           |      [0]: 0 standard_wall_indicator (valid) 0x7d4-0x7d4.7 (1)
0x7d0|               00                              |     .          |      [1]: 0 standard_wall_indicator (valid) 0x7d5-0x7d5.7 (1)
0x7d0|                  01                           |      .         |      [2]: 1 standard_wall_indicator (valid) 0x7d6-0x7d6.7 (1)
0x7d0|                     01                        |       .        |      [3]: 1 standard_wall_indicator (valid) 0x7d7-0x7d7.7 (1)
0x7d0|                        01                     |        .       |      [4]: 1 standard_wall_indicator (valid) 0x7d8-0x7d8.7 (1)
0x7d0|                           01                  |         .      |      [5]: 1 standard_wall_indicator (valid) 0x7d9-0x7d9.7 (1)
0x7d0|                              00               |          .     |      [6]: 0 standard_wall_indicator (valid) 0x7da-0x7da.7 (1)
     |                                               |                |    ut_local_indicators[0:7]: 0x7db-0x7e1.7 (7)
0x7d0|                                 00            |           .    |      [0]: 0 ut_local_indicator (valid) 0x7db-0x7db.7 (1)
0x7d0|                                    00         |            .   |      [1]: 0 ut_local_indicator (valid) 0x7dc-0x7dc.7 (1)
0x7d0|                                       00      |             .  |      [2]: 0 ut_local_indicator (valid) 0x7dd-0x7dd.7 (1)
0x7d0|                                          00   |              . |      [3]: 0 ut_local_indicator (valid) 0x7de-0x7de.7 (1)
0x7d0|                                             01|               .|      [4]: 1 ut_local_indicator (valid) 0x7df-0x7df.7 (1)
0x7e0|01                                             |.               |      [5]: 1 ut_local_indicator (valid) 0x7e0-0x7e0.7 (1)
0x7e0|   00                                          | .              |      [6]: 0 ut_local_indicator (valid) 0x7e1-0x7e1.7 (1)
     |                                               |                |  footer{}: 0x7e2-0x7e3.7 (2)
0x7e0|      0a                                       |  .             |    nl1: 10 (valid) 0x7e2-0x7e2.7 (1)
     |                                               |                |    tz_string: "" 0x7e3-NA (0)
0x7e0|         0a|                                   |   .|           |    nl2: 10 (valid) 0x7e3-0x7e3.7 (1)
