$ fq -d tzif dv Simferopol
     |00 01 02 03 04 05 06 07 08 09 0a 0b 0c 0d 0e 0f|0123456789abcdef|.{}: Simferopol (tzif) 0x0-0x5bd (1469)
     |                                               |                |  v1header{}: 0x0-0x2c (44)
0x000|54 5a 69 66                                    |TZif            |    magic: 0x545a6966 (valid) 0x0-0x4 (4)
0x000|            32                                 |    2           |    ver: "2" (0x32) (valid) 0x4-0x5 (1)
0x000|               00 00 00 00 00 00 00 00 00 00 00|     ...........|    reserved: raw bits 0x5-0x14 (15)
0x010|00 00 00 00                                    |....            |
0x010|            00 00 00 10                        |    ....        |    isutcnt: 16 0x14-0x18 (4)
0x010|                        00 00 00 10            |        ....    |    isstdcnt: 16 0x18-0x1c (4)
0x010|                                    00 00 00 00|            ....|    leapcnt: 0 0x1c-0x20 (4)
0x020|00 00 00 4b                                    |...K            |    timecnt: 75 0x20-0x24 (4)
0x020|            00 00 00 10                        |    ....        |    typecnt: 16 0x24-0x28 (4)
0x020|                        00 00 00 22            |        ..."    |    charcnt: 34 0x28-0x2c (4)
     |                                               |                |  v1datablock{}: 0x2c-0x245 (537)
     |                                               |                |    transition_times[0:75]: 0x2c-0x158 (300)
0x020|                                    80 00 00 00|            ....|      [0]: "1901-12-13T20:45:52Z" (-2147483648) transition_time 0x2c-0x30 (4)
0x030|aa 19 a4 20                                    |...             |      [1]: "1924-05-01T21:44:00Z" (-1441160160) transition_time 0x30-0x34 (4)
0x030|            b5 a4 19 60                        |    ...`        |      [2]: "1930-06-20T22:00:00Z" (-1247536800) transition_time 0x34-0x38 (4)
0x030|                        cb 04 8d d0            |        ....    |      [3]: "1941-10-31T21:00:00Z" (-888894000) transition_time 0x38-0x3c (4)
0x030|                                    cc e7 4b 10|            ..K.|      [4]: "1942-11-02T01:00:00Z" (-857257200) transition_time 0x3c-0x40 (4)
0x040|cd a9 17 90                                    |....            |      [5]: "1943-03-29T01:00:00Z" (-844556400) transition_time 0x40-0x44 (4)
0x040|            ce a2 43 10                        |    ..C.        |      [6]: "1943-10-04T01:00:00Z" (-828226800) transition_time 0x44-0x48 (4)
0x040|                        cf 92 34 10            |        ..4.    |      [7]: "1944-04-03T01:00:00Z" (-812502000) transition_time 0x48-0x4c (4)
0x040|                                    cf 9f 38 e0|            ..8.|      [8]: "1944-04-12T22:00:00Z" (-811648800) transition_time 0x4c-0x50 (4)
0x050|15 27 a7 d0                                    |.'..            |      [9]: "1981-03-31T21:00:00Z" (354920400) transition_time 0x50-0x54 (4)
0x050|            16 18 dc 40                        |    ...@        |      [10]: "1981-09-30T20:00:00Z" (370728000) transition_time 0x54-0x58 (4)
0x050|                        17 08 db 50            |        ...P    |      [11]: "1982-03-31T21:00:00Z" (386456400) transition_time 0x58-0x5c (4)
0x050|                                    17 fa 0f c0|            ....|      [12]: "1982-09-30T20:00:00Z" (402264000) transition_time 0x5c-0x60 (4)
0x060|18 ea 0e d0                                    |....            |      [13]: "1983-03-31T21:00:00Z" (417992400) transition_time 0x60-0x64 (4)
0x060|            19 db 43 40                        |    ..C@        |      [14]: "1983-09-30T20:00:00Z" (433800000) transition_time 0x64-0x68 (4)
0x060|                        1a cc 93 d0            |        ....    |      [15]: "1984-03-31T21:00:00Z" (449614800) transition_time 0x68-0x6c (4)
0x060|                                    1b bc a0 f0|            ....|      [16]: "1984-09-29T23:00:00Z" (465346800) transition_time 0x6c-0x70 (4)
0x070|1c ac 91 f0                                    |....            |      [17]: "1985-03-30T23:00:00Z" (481071600) transition_time 0x70-0x74 (4)
0x070|            1d 9c 82 f0                        |    ....        |      [18]: "1985-09-28T23:00:00Z" (496796400) transition_time 0x74-0x78 (4)
0x070|                        1e 8c 73 f0            |        ..s.    |      [19]: "1986-03-29T23:00:00Z" (512521200) transition_time 0x78-0x7c (4)
0x070|                                    1f 7c 64 f0|            .|d.|      [20]: "1986-09-27T23:00:00Z" (528246000) transition_time 0x7c-0x80 (4)
0x080|20 6c 55 f0                                    | lU.            |      [21]: "1987-03-28T23:00:00Z" (543970800) transition_time 0x80-0x84 (4)
0x080|            21 5c 46 f0                        |    !\F.        |      [22]: "1987-09-26T23:00:00Z" (559695600) transition_time 0x84-0x88 (4)
0x080|                        22 4c 37 f0            |        "L7.    |      [23]: "1988-03-26T23:00:00Z" (575420400) transition_time 0x88-0x8c (4)
0x080|                                    23 3c 28 f0|            #<(.|      [24]: "1988-09-24T23:00:00Z" (591145200) transition_time 0x8c-0x90 (4)
0x090|24 2c 19 f0                                    |$,..            |      [25]: "1989-03-25T23:00:00Z" (606870000) transition_time 0x90-0x94 (4)
0x090|            25 1c 0a f0                        |    %...        |      [26]: "1989-09-23T23:00:00Z" (622594800) transition_time 0x94-0x98 (4)
0x090|                        26 8d 2e f0            |        &...    |      [27]: "1990-06-30T23:00:00Z" (646786800) transition_time 0x98-0x9c (4)
0x090|                                    29 d5 08 80|            )...|      [28]: "1992-03-29T00:00:00Z" (701827200) transition_time 0x9c-0xa0 (4)
0x0a0|2a c4 f9 80                                    |*...            |      [29]: "1992-09-27T00:00:00Z" (717552000) transition_time 0xa0-0xa4 (4)
0x0a0|            2b b4 ea 80                        |    +...        |      [30]: "1993-03-28T00:00:00Z" (733276800) transition_time 0xa4-0xa8 (4)
0x0a0|                        2c a4 db 80            |        ,...    |      [31]: "1993-09-26T00:00:00Z" (749001600) transition_time 0xa8-0xac (4)
0x0a0|                                    2d 94 cc 80|            -...|      [32]: "1994-03-27T00:00:00Z" (764726400) transition_time 0xac-0xb0 (4)
0x0b0|2d c2 c6 d0                                    |-...            |      [33]: "1994-04-30T21:00:00Z" (767739600) transition_time 0xb0-0xb4 (4)
0x0b0|            2e 84 af 70                        |    ...p        |      [34]: "1994-09-24T23:00:00Z" (780447600) transition_time 0xb4-0xb8 (4)
0x0b0|                        2f 74 a0 70            |        /t.p    |      [35]: "1995-03-25T23:00:00Z" (796172400) transition_time 0xb8-0xbc (4)
0x0b0|                                    30 64 91 70|            0d.p|      [36]: "1995-09-23T23:00:00Z" (811897200) transition_time 0xbc-0xc0 (4)
0x0c0|31 5d a0 d0                                    |1]..            |      [37]: "1996-03-30T21:00:00Z" (828219600) transition_time 0xc0-0xc4 (4)
0x0c0|            32 72 a6 00                        |    2r..        |      [38]: "1996-10-27T00:00:00Z" (846374400) transition_time 0xc4-0xc8 (4)
0x0c0|                        33 3d bb 10            |        3=..    |      [39]: "1997-03-30T01:00:00Z" (859683600) transition_time 0xc8-0xcc (4)
0x0c0|                                    34 52 96 10|            4R..|      [40]: "1997-10-26T01:00:00Z" (877827600) transition_time 0xcc-0xd0 (4)
0x0d0|35 1d 9d 10                                    |5...            |      [41]: "1998-03-29T01:00:00Z" (891133200) transition_time 0xd0-0xd4 (4)
0x0d0|            36 32 78 10                        |    62x.        |      [42]: "1998-10-25T01:00:00Z" (909277200) transition_time 0xd4-0xd8 (4)
0x0d0|                        36 fd 7f 10            |        6...    |      [43]: "1999-03-28T01:00:00Z" (922582800) transition_time 0xd8-0xdc (4)
0x0d0|                                    38 1b 94 90|            8...|      [44]: "1999-10-31T01:00:00Z" (941331600) transition_time 0xdc-0xe0 (4)
0x0e0|38 dd 61 10                                    |8.a.            |      [45]: "2000-03-26T01:00:00Z" (954032400) transition_time 0xe0-0xe4 (4)
0x0e0|            39 fb 76 90                        |    9.v.        |      [46]: "2000-10-29T01:00:00Z" (972781200) transition_time 0xe4-0xe8 (4)
0x0e0|                        3a bd 43 10            |        :.C.    |      [47]: "2001-03-25T01:00:00Z" (985482000) transition_time 0xe8-0xec (4)
0x0e0|                                    3b db 58 90|            ;.X.|      [48]: "2001-10-28T01:00:00Z" (1004230800) transition_time 0xec-0xf0 (4)
0x0f0|3c a6 5f 90                                    |<._.            |      [49]: "2002-03-31T01:00:00Z" (1017536400) transition_time 0xf0-0xf4 (4)
0x0f0|            3d bb 3a 90                        |    =.:.        |      [50]: "2002-10-27T01:00:00Z" (1035680400) transition_time 0xf4-0xf8 (4)
0x0f0|                        3e 86 41 90            |        >.A.    |      [51]: "2003-03-30T01:00:00Z" (1048986000) transition_time 0xf8-0xfc (4)
0x0f0|                                    3f 9b 1c 90|            ?...|      [52]: "2003-10-26T01:00:00Z" (1067130000) transition_time 0xfc-0x100 (4)
0x100|40 66 23 90                                    |@f#.            |      [53]: "2004-03-28T01:00:00Z" (1080435600) transition_time 0x100-0x104 (4)
0x100|            41 84 39 10                        |    A.9.        |      [54]: "2004-10-31T01:00:00Z" (1099184400) transition_time 0x104-0x108 (4)
0x100|                        42 46 05 90            |        BF..    |      [55]: "2005-03-27T01:00:00Z" (1111885200) transition_time 0x108-0x10c (4)
0x100|                                    43 64 1b 10|            Cd..|      [56]: "2005-10-30T01:00:00Z" (1130634000) transition_time 0x10c-0x110 (4)
0x110|44 25 e7 90                                    |D%..            |      [57]: "2006-03-26T01:00:00Z" (1143334800) transition_time 0x110-0x114 (4)
0x110|            45 43 fd 10                        |    EC..        |      [58]: "2006-10-29T01:00:00Z" (1162083600) transition_time 0x114-0x118 (4)
0x110|                        46 05 c9 90            |        F...    |      [59]: "2007-03-25T01:00:00Z" (1174784400) transition_time 0x118-0x11c (4)
0x110|                                    47 23 df 10|            G#..|      [60]: "2007-10-28T01:00:00Z" (1193533200) transition_time 0x11c-0x120 (4)
0x120|47 ee e6 10                                    |G...            |      [61]: "2008-03-30T01:00:00Z" (1206838800) transition_time 0x120-0x124 (4)
0x120|            49 03 c1 10                        |    I...        |      [62]: "2008-10-26T01:00:00Z" (1224982800) transition_time 0x124-0x128 (4)
0x120|                        49 ce c8 10            |        I...    |      [63]: "2009-03-29T01:00:00Z" (1238288400) transition_time 0x128-0x12c (4)
0x120|                                    4a e3 a3 10|            J...|      [64]: "2009-10-25T01:00:00Z" (1256432400) transition_time 0x12c-0x130 (4)
0x130|4b ae aa 10                                    |K...            |      [65]: "2010-03-28T01:00:00Z" (1269738000) transition_time 0x130-0x134 (4)
0x130|            4c cc bf 90                        |    L...        |      [66]: "2010-10-31T01:00:00Z" (1288486800) transition_time 0x134-0x138 (4)
0x130|                        4d 8e 8c 10            |        M...    |      [67]: "2011-03-27T01:00:00Z" (1301187600) transition_time 0x138-0x13c (4)
0x130|                                    4e ac a1 90|            N...|      [68]: "2011-10-30T01:00:00Z" (1319936400) transition_time 0x13c-0x140 (4)
0x140|4f 6e 6e 10                                    |Onn.            |      [69]: "2012-03-25T01:00:00Z" (1332637200) transition_time 0x140-0x144 (4)
0x140|            50 8c 83 90                        |    P...        |      [70]: "2012-10-28T01:00:00Z" (1351386000) transition_time 0x144-0x148 (4)
0x140|                        51 57 8a 90            |        QW..    |      [71]: "2013-03-31T01:00:00Z" (1364691600) transition_time 0x148-0x14c (4)
0x140|                                    52 6c 65 90|            Rle.|      [72]: "2013-10-27T01:00:00Z" (1382835600) transition_time 0x14c-0x150 (4)
0x150|53 37 5e 80                                    |S7^.            |      [73]: "2014-03-30T00:00:00Z" (1396137600) transition_time 0x150-0x154 (4)
0x150|            54 4c 1d 60                        |    TL.`        |      [74]: "2014-10-25T22:00:00Z" (1414274400) transition_time 0x154-0x158 (4)
     |                                               |                |    transition_types[0:75]: 0x158-0x1a3 (75)
0x150|                        01                     |        .       |      [0]: 1 transition_type 0x158-0x159 (1)
0x150|                           02                  |         .      |      [1]: 2 transition_type 0x159-0x15a (1)
0x150|                              03               |          .     |      [2]: 3 transition_type 0x15a-0x15b (1)
0x150|                                 06            |           .    |      [3]: 6 transition_type 0x15b-0x15c (1)
0x150|                                    04         |            .   |      [4]: 4 transition_type 0x15c-0x15d (1)
0x150|                                       05      |             .  |      [5]: 5 transition_type 0x15d-0x15e (1)
0x150|                                          04   |              . |      [6]: 4 transition_type 0x15e-0x15f (1)
0x150|                                             05|               .|      [7]: 5 transition_type 0x15f-0x160 (1)
0x160|03                                             |.               |      [8]: 3 transition_type 0x160-0x161 (1)
0x160|   07                                          | .              |      [9]: 7 transition_type 0x161-0x162 (1)
0x160|      03                                       |  .             |      [10]: 3 transition_type 0x162-0x163 (1)
0x160|         07                                    |   .            |      [11]: 7 transition_type 0x163-0x164 (1)
0x160|            03                                 |    .           |      [12]: 3 transition_type 0x164-0x165 (1)
0x160|               07                              |     .          |      [13]: 7 transition_type 0x165-0x166 (1)
0x160|                  03                           |      .         |      [14]: 3 transition_type 0x166-0x167 (1)
0x160|                     07                        |       .        |      [15]: 7 transition_type 0x167-0x168 (1)
0x160|                        08                     |        .       |      [16]: 8 transition_type 0x168-0x169 (1)
0x160|                           09                  |         .      |      [17]: 9 transition_type 0x169-0x16a (1)
0x160|                              08               |          .     |      [18]: 8 transition_type 0x16a-0x16b (1)
0x160|                                 09            |           .    |      [19]: 9 transition_type 0x16b-0x16c (1)
0x160|                                    08         |            .   |      [20]: 8 transition_type 0x16c-0x16d (1)
0x160|                                       09      |             .  |      [21]: 9 transition_type 0x16d-0x16e (1)
0x160|                                          08   |              . |      [22]: 8 transition_type 0x16e-0x16f (1)
0x160|                                             09|               .|      [23]: 9 transition_type 0x16f-0x170 (1)
0x170|08                                             |.               |      [24]: 8 transition_type 0x170-0x171 (1)
0x170|   09                                          | .              |      [25]: 9 transition_type 0x171-0x172 (1)
0x170|      08                                       |  .             |      [26]: 8 transition_type 0x172-0x173 (1)
0x170|         02                                    |   .            |      [27]: 2 transition_type 0x173-0x174 (1)
0x170|            0a                                 |    .           |      [28]: 10 transition_type 0x174-0x175 (1)
0x170|               0b                              |     .          |      [29]: 11 transition_type 0x175-0x176 (1)
0x170|                  0a                           |      .         |      [30]: 10 transition_type 0x176-0x177 (1)
0x170|                     0b                        |       .        |      [31]: 11 transition_type 0x177-0x178 (1)
0x170|                        0a                     |        .       |      [32]: 10 transition_type 0x178-0x179 (1)
0x170|                           07                  |         .      |      [33]: 7 transition_type 0x179-0x17a (1)
0x170|                              08               |          .     |      [34]: 8 transition_type 0x17a-0x17b (1)
0x170|                                 09            |           .    |      [35]: 9 transition_type 0x17b-0x17c (1)
0x170|                                    08         |            .   |      [36]: 8 transition_type 0x17c-0x17d (1)
0x170|                                       09      |             .  |      [37]: 9 transition_type 0x17d-0x17e (1)
0x170|                                          08   |              . |      [38]: 8 transition_type 0x17e-0x17f (1)
0x170|                                             0c|               .|      [39]: 12 transition_type 0x17f-0x180 (1)
0x180|0d                                             |.               |      [40]: 13 transition_type 0x180-0x181 (1)
0x180|   0c                                          | .              |      [41]: 12 transition_type 0x181-0x182 (1)
0x180|      0d                                       |  .             |      [42]: 13 transition_type 0x182-0x183 (1)
0x180|         0c                                    |   .            |      [43]: 12 transition_type 0x183-0x184 (1)
0x180|            0d                                 |    .           |      [44]: 13 transition_type 0x184-0x185 (1)
0x180|               0c                              |     .          |      [45]: 12 transition_type 0x185-0x186 (1)
0x180|                  0d                           |      .         |      [46]: 13 transition_type 0x186-0x187 (1)
0x180|                     0c                        |       .        |      [47]: 12 transition_type 0x187-0x188 (1)
0x180|                        0d                     |        .       |      [48]: 13 transition_type 0x188-0x189 (1)
0x180|                           0c                  |         .      |      [49]: 12 transition_type 0x189-0x18a (1)
0x180|                              0d               |          .     |      [50]: 13 transition_type 0x18a-0x18b (1)
0x180|                                 0c            |           .    |      [51]: 12 transition_type 0x18b-0x18c (1)
0x180|                                    0d         |            .   |      [52]: 13 transition_type 0x18c-0x18d (1)
0x180|                                       0c      |             .  |      [53]: 12 transition_type 0x18d-0x18e (1)
0x180|                                          0d   |              . |      [54]: 13 transition_type 0x18e-0x18f (1)
0x180|                                             0c|               .|      [55]: 12 transition_type 0x18f-0x190 (1)
0x190|0d                                             |.               |      [56]: 13 transition_type 0x190-0x191 (1)
0x190|   0c                                          | .              |      [57]: 12 transition_type 0x191-0x192 (1)
0x190|      0d                                       |  .             |      [58]: 13 transition_type 0x192-0x193 (1)
0x190|         0c                                    |   .            |      [59]: 12 transition_type 0x193-0x194 (1)
0x190|            0d                                 |    .           |      [60]: 13 transition_type 0x194-0x195 (1)
0x190|               0c                              |     .          |      [61]: 12 transition_type 0x195-0x196 (1)
0x190|                  0d                           |      .         |      [62]: 13 transition_type 0x196-0x197 (1)
0x190|                     0c                        |       .        |      [63]: 12 transition_type 0x197-0x198 (1)
0x190|                        0d                     |        .       |      [64]: 13 transition_type 0x198-0x199 (1)
0x190|                           0c                  |         .      |      [65]: 12 transition_type 0x199-0x19a (1)
0x190|                              0d               |          .     |      [66]: 13 transition_type 0x19a-0x19b (1)
0x190|                                 0c            |           .    |      [67]: 12 transition_type 0x19b-0x19c (1)
0x190|                                    0d         |            .   |      [68]: 13 transition_type 0x19c-0x19d (1)
0x190|                                       0c      |             .  |      [69]: 12 transition_type 0x19d-0x19e (1)
0x190|                                          0d   |              . |      [70]: 13 transition_type 0x19e-0x19f (1)
0x190|                                             0c|               .|      [71]: 12 transition_type 0x19f-0x1a0 (1)
0x1a0|0d                                             |.               |      [72]: 13 transition_type 0x1a0-0x1a1 (1)
0x1a0|   0e                                          | .              |      [73]: 14 transition_type 0x1a1-0x1a2 (1)
0x1a0|      08                                       |  .             |      [74]: 8 transition_type 0x1a2-0x1a3 (1)
     |                                               |                |    local_time_type_records[0:16]: 0x1a3-0x203 (96)
     |                                               |                |      [0]{}: local_time_type 0x1a3-0x1a9 (6)
0x1a0|         00 00 1f f8                           |   ....         |        utoff: 8184 (valid) 0x1a3-0x1a7 (4)
0x1a0|                     00                        |       .        |        dst: 0 (valid) 0x1a7-0x1a8 (1)
0x1a0|                        00                     |        .       |        idx: 0 (valid) 0x1a8-0x1a9 (1)
     |                                               |                |      [1]{}: local_time_type 0x1a9-0x1af (6)
0x1a0|                           00 00 1f e0         |         ....   |        utoff: 8160 (valid) 0x1a9-0x1ad (4)
0x1a0|                                       00      |             .  |        dst: 0 (valid) 0x1ad-0x1ae (1)
0x1a0|                                          04   |              . |        idx: 4 (valid) 0x1ae-0x1af (1)
     |                                               |                |      [2]{}: local_time_type 0x1af-0x1b5 (6)
0x1a0|                                             00|               .|        utoff: 7200 (valid) 0x1af-0x1b3 (4)
0x1b0|00 1c 20                                       |..              |
0x1b0|         00                                    |   .            |        dst: 0 (valid) 0x1b3-0x1b4 (1)
0x1b0|            08                                 |    .           |        idx: 8 (valid) 0x1b4-0x1b5 (1)
     |                                               |                |      [3]{}: local_time_type 0x1b5-0x1bb (6)
0x1b0|               00 00 2a 30                     |     ..*0       |        utoff: 10800 (valid) 0x1b5-0x1b9 (4)
0x1b0|                           00                  |         .      |        dst: 0 (valid) 0x1b9-0x1ba (1)
0x1b0|                              0c               |          .     |        idx: 12 (valid) 0x1ba-0x1bb (1)
     |                                               |                |      [4]{}: local_time_type 0x1bb-0x1c1 (6)
0x1b0|                                 00 00 0e 10   |           .... |        utoff: 3600 (valid) 0x1bb-0x1bf (4)
0x1b0|                                             00|               .|        dst: 0 (valid) 0x1bf-0x1c0 (1)
0x1c0|10                                             |.               |        idx: 16 (valid) 0x1c0-0x1c1 (1)
     |                                               |                |      [5]{}: local_time_type 0x1c1-0x1c7 (6)
0x1c0|   00 00 1c 20                                 | ...            |        utoff: 7200 (valid) 0x1c1-0x1c5 (4)
0x1c0|               01                              |     .          |        dst: 1 (valid) 0x1c5-0x1c6 (1)
0x1c0|                  14                           |      .         |        idx: 20 (valid) 0x1c6-0x1c7 (1)
     |                                               |                |      [6]{}: local_time_type 0x1c7-0x1cd (6)
0x1c0|                     00 00 1c 20               |       ...      |        utoff: 7200 (valid) 0x1c7-0x1cb (4)
0x1c0|                                 01            |           .    |        dst: 1 (valid) 0x1cb-0x1cc (1)
0x1c0|                                    14         |            .   |        idx: 20 (valid) 0x1cc-0x1cd (1)
     |                                               |                |      [7]{}: local_time_type 0x1cd-0x1d3 (6)
0x1c0|                                       00 00 38|             ..8|        utoff: 14400 (valid) 0x1cd-0x1d1 (4)
0x1d0|40                                             |@               |
0x1d0|   01                                          | .              |        dst: 1 (valid) 0x1d1-0x1d2 (1)
0x1d0|      19                                       |  .             |        idx: 25 (valid) 0x1d2-0x1d3 (1)
     |                                               |                |      [8]{}: local_time_type 0x1d3-0x1d9 (6)
0x1d0|         00 00 2a 30                           |   ..*0         |        utoff: 10800 (valid) 0x1d3-0x1d7 (4)
0x1d0|                     00                        |       .        |        dst: 0 (valid) 0x1d7-0x1d8 (1)
0x1d0|                        0c                     |        .       |        idx: 12 (valid) 0x1d8-0x1d9 (1)
     |                                               |                |      [9]{}: local_time_type 0x1d9-0x1df (6)
0x1d0|                           00 00 38 40         |         ..8@   |        utoff: 14400 (valid) 0x1d9-0x1dd (4)
0x1d0|                                       01      |             .  |        dst: 1 (valid) 0x1dd-0x1de (1)
0x1d0|                                          19   |              . |        idx: 25 (valid) 0x1de-0x1df (1)
     |                                               |                |      [10]{}: local_time_type 0x1df-0x1e5 (6)
0x1d0|                                             00|               .|        utoff: 10800 (valid) 0x1df-0x1e3 (4)
0x1e0|00 2a 30                                       |.*0             |
0x1e0|         01                                    |   .            |        dst: 1 (valid) 0x1e3-0x1e4 (1)
0x1e0|            1d                                 |    .           |        idx: 29 (valid) 0x1e4-0x1e5 (1)
     |                                               |                |      [11]{}: local_time_type 0x1e5-0x1eb (6)
0x1e0|               00 00 1c 20                     |     ...        |        utoff: 7200 (valid) 0x1e5-0x1e9 (4)
0x1e0|                           00                  |         .      |        dst: 0 (valid) 0x1e9-0x1ea (1)
0x1e0|                              08               |          .     |        idx: 8 (valid) 0x1ea-0x1eb (1)
     |                                               |                |      [12]{}: local_time_type 0x1eb-0x1f1 (6)
0x1e0|                                 00 00 2a 30   |           ..*0 |        utoff: 10800 (valid) 0x1eb-0x1ef (4)
0x1e0|                                             01|               .|        dst: 1 (valid) 0x1ef-0x1f0 (1)
0x1f0|1d                                             |.               |        idx: 29 (valid) 0x1f0-0x1f1 (1)
     |                                               |                |      [13]{}: local_time_type 0x1f1-0x1f7 (6)
0x1f0|   00 00 1c 20                                 | ...            |        utoff: 7200 (valid) 0x1f1-0x1f5 (4)
0x1f0|               00                              |     .          |        dst: 0 (valid) 0x1f5-0x1f6 (1)
0x1f0|                  08                           |      .         |        idx: 8 (valid) 0x1f6-0x1f7 (1)
     |                                               |                |      [14]{}: local_time_type 0x1f7-0x1fd (6)
0x1f0|                     00 00 38 40               |       ..8@     |        utoff: 14400 (valid) 0x1f7-0x1fb (4)
0x1f0|                                 00            |           .    |        dst: 0 (valid) 0x1fb-0x1fc (1)
0x1f0|                                    0c         |            .   |        idx: 12 (valid) 0x1fc-0x1fd (1)
     |                                               |                |      [15]{}: local_time_type 0x1fd-0x203 (6)
0x1f0|                                       00 00 2a|             ..*|        utoff: 10800 (valid) 0x1fd-0x201 (4)
0x200|30                                             |0               |
0x200|   00                                          | .              |        dst: 0 (valid) 0x201-0x202 (1)
0x200|      0c                                       |  .             |        idx: 12 (valid) 0x202-0x203 (1)
     |                                               |                |    time_zone_designations[0:8]: 0x203-0x225 (34)
0x200|         4c 4d 54 00                           |   LMT.         |      [0]: "LMT" time_zone_designation 0x203-0x207 (4)
0x200|                     53 4d 54 00               |       SMT.     |      [1]: "SMT" time_zone_designation 0x207-0x20b (4)
0x200|                                 45 45 54 00   |           EET. |      [2]: "EET" time_zone_designation 0x20b-0x20f (4)
0x200|                                             4d|               M|      [3]: "MSK" time_zone_designation 0x20f-0x213 (4)
0x210|53 4b 00                                       |SK.             |
0x210|         43 45 54 00                           |   CET.         |      [4]: "CET" time_zone_designation 0x213-0x217 (4)
0x210|                     43 45 53 54 00            |       CEST.    |      [5]: "CEST" time_zone_designation 0x217-0x21c (5)
0x210|                                    4d 53 44 00|            MSD.|      [6]: "MSD" time_zone_designation 0x21c-0x220 (4)
0x220|45 45 53 54 00                                 |EEST.           |      [7]: "EEST" time_zone_designation 0x220-0x225 (5)
     |                                               |                |    leap_second_records[0:0]: 0x225-0x225 (0)
     |                                               |                |    standard_wall_indicators[0:16]: 0x225-0x235 (16)
0x220|               00                              |     .          |      [0]: 0 standard_wall_indicator (valid) 0x225-0x226 (1)
0x220|                  00                           |      .         |      [1]: 0 standard_wall_indicator (valid) 0x226-0x227 (1)
0x220|                     00                        |       .        |      [2]: 0 standard_wall_indicator (valid) 0x227-0x228 (1)
0x220|                        00                     |        .       |      [3]: 0 standard_wall_indicator (valid) 0x228-0x229 (1)
0x220|                           01                  |         .      |      [4]: 1 standard_wall_indicator (valid) 0x229-0x22a (1)
0x220|                              01               |          .     |      [5]: 1 standard_wall_indicator (valid) 0x22a-0x22b (1)
0x220|                                 00            |           .    |      [6]: 0 standard_wall_indicator (valid) 0x22b-0x22c (1)
0x220|                                    00         |            .   |      [7]: 0 standard_wall_indicator (valid) 0x22c-0x22d (1)
0x220|                                       01      |             .  |      [8]: 1 standard_wall_indicator (valid) 0x22d-0x22e (1)
0x220|                                          01   |              . |      [9]: 1 standard_wall_indicator (valid) 0x22e-0x22f (1)
0x220|                                             01|               .|      [10]: 1 standard_wall_indicator (valid) 0x22f-0x230 (1)
0x230|01                                             |.               |      [11]: 1 standard_wall_indicator (valid) 0x230-0x231 (1)
0x230|   01                                          | .              |      [12]: 1 standard_wall_indicator (valid) 0x231-0x232 (1)
0x230|      01                                       |  .             |      [13]: 1 standard_wall_indicator (valid) 0x232-0x233 (1)
0x230|         00                                    |   .            |      [14]: 0 standard_wall_indicator (valid) 0x233-0x234 (1)
0x230|            01                                 |    .           |      [15]: 1 standard_wall_indicator (valid) 0x234-0x235 (1)
     |                                               |                |    ut_local_indicators[0:16]: 0x235-0x245 (16)
0x230|               00                              |     .          |      [0]: 0 ut_local_indicator (valid) 0x235-0x236 (1)
0x230|                  00                           |      .         |      [1]: 0 ut_local_indicator (valid) 0x236-0x237 (1)
0x230|                     00                        |       .        |      [2]: 0 ut_local_indicator (valid) 0x237-0x238 (1)
0x230|                        00                     |        .       |      [3]: 0 ut_local_indicator (valid) 0x238-0x239 (1)
0x230|                           00                  |         .      |      [4]: 0 ut_local_indicator (valid) 0x239-0x23a (1)
0x230|                              00               |          .     |      [5]: 0 ut_local_indicator (valid) 0x23a-0x23b (1)
0x230|                                 00            |           .    |      [6]: 0 ut_local_indicator (valid) 0x23b-0x23c (1)
0x230|                                    00         |            .   |      [7]: 0 ut_local_indicator (valid) 0x23c-0x23d (1)
0x230|                                       00      |             .  |      [8]: 0 ut_local_indicator (valid) 0x23d-0x23e (1)
0x230|                                          00   |              . |      [9]: 0 ut_local_indicator (valid) 0x23e-0x23f (1)
0x230|                                             00|               .|      [10]: 0 ut_local_indicator (valid) 0x23f-0x240 (1)
0x240|00                                             |.               |      [11]: 0 ut_local_indicator (valid) 0x240-0x241 (1)
0x240|   01                                          | .              |      [12]: 1 ut_local_indicator (valid) 0x241-0x242 (1)
0x240|      01                                       |  .             |      [13]: 1 ut_local_indicator (valid) 0x242-0x243 (1)
0x240|         00                                    |   .            |      [14]: 0 ut_local_indicator (valid) 0x243-0x244 (1)
0x240|            00                                 |    .           |      [15]: 0 ut_local_indicator (valid) 0x244-0x245 (1)
     |                                               |                |  v2plusheader{}: 0x245-0x271 (44)
0x240|               54 5a 69 66                     |     TZif       |    magic: 0x545a6966 (valid) 0x245-0x249 (4)
0x240|                           32                  |         2      |    ver: "2" (0x32) (valid) 0x249-0x24a (1)
0x240|                              00 00 00 00 00 00|          ......|    reserved: raw bits 0x24a-0x259 (15)
0x250|00 00 00 00 00 00 00 00 00                     |.........       |
0x250|                           00 00 00 10         |         ....   |    isutcnt: 16 0x259-0x25d (4)
0x250|                                       00 00 00|             ...|    isstdcnt: 16 0x25d-0x261 (4)
0x260|10                                             |.               |
0x260|   00 00 00 00                                 | ....           |    leapcnt: 0 0x261-0x265 (4)
0x260|               00 00 00 4b                     |     ...K       |    timecnt: 75 0x265-0x269 (4)
0x260|                           00 00 00 10         |         ....   |    typecnt: 16 0x269-0x26d (4)
0x260|                                       00 00 00|             ...|    charcnt: 34 0x26d-0x271 (4)
0x270|22                                             |"               |
     |                                               |                |  v2plusdatablock{}: 0x271-0x5b6 (837)
     |                                               |                |    transition_times[0:75]: 0x271-0x4c9 (600)
0x270|   ff ff ff ff 56 b6 c4 08                     | ....V...       |      [0]: "1879-12-31T21:43:36Z" (-2840148984) transition_time 0x271-0x279 (8)
0x270|                           ff ff ff ff aa 19 a4|         .......|      [1]: "1924-05-01T21:44:00Z" (-1441160160) transition_time 0x279-0x281 (8)
0x280|20                                             |                |
0x280|   ff ff ff ff b5 a4 19 60                     | .......`       |      [2]: "1930-06-20T22:00:00Z" (-1247536800) transition_time 0x281-0x289 (8)
0x280|                           ff ff ff ff cb 04 8d|         .......|      [3]: "1941-10-31T21:00:00Z" (-888894000) transition_time 0x289-0x291 (8)
0x290|d0                                             |.               |
0x290|   ff ff ff ff cc e7 4b 10                     | ......K.       |      [4]: "1942-11-02T01:00:00Z" (-857257200) transition_time 0x291-0x299 (8)
0x290|                           ff ff ff ff cd a9 17|         .......|      [5]: "1943-03-29T01:00:00Z" (-844556400) transition_time 0x299-0x2a1 (8)
0x2a0|90                                             |.               |
0x2a0|   ff ff ff ff ce a2 43 10                     | ......C.       |      [6]: "1943-10-04T01:00:00Z" (-828226800) transition_time 0x2a1-0x2a9 (8)
0x2a0|                           ff ff ff ff cf 92 34|         ......4|      [7]: "1944-04-03T01:00:00Z" (-812502000) transition_time 0x2a9-0x2b1 (8)
0x2b0|10                                             |.               |
0x2b0|   ff ff ff ff cf 9f 38 e0                     | ......8.       |      [8]: "1944-04-12T22:00:00Z" (-811648800) transition_time 0x2b1-0x2b9 (8)
0x2b0|                           00 00 00 00 15 27 a7|         .....'.|      [9]: "1981-03-31T21:00:00Z" (354920400) transition_time 0x2b9-0x2c1 (8)
0x2c0|d0                                             |.               |
0x2c0|   00 00 00 00 16 18 dc 40                     | .......@       |      [10]: "1981-09-30T20:00:00Z" (370728000) transition_time 0x2c1-0x2c9 (8)
0x2c0|                           00 00 00 00 17 08 db|         .......|      [11]: "1982-03-31T21:00:00Z" (386456400) transition_time 0x2c9-0x2d1 (8)
0x2d0|50                                             |P               |
0x2d0|   00 00 00 00 17 fa 0f c0                     | ........       |      [12]: "1982-09-30T20:00:00Z" (402264000) transition_time 0x2d1-0x2d9 (8)
0x2d0|                           00 00 00 00 18 ea 0e|         .......|      [13]: "1983-03-31T21:00:00Z" (417992400) transition_time 0x2d9-0x2e1 (8)
0x2e0|d0                                             |.               |
0x2e0|   00 00 00 00 19 db 43 40                     | ......C@       |      [14]: "1983-09-30T20:00:00Z" (433800000) transition_time 0x2e1-0x2e9 (8)
0x2e0|                           00 00 00 00 1a cc 93|         .......|      [15]: "1984-03-31T21:00:00Z" (449614800) transition_time 0x2e9-0x2f1 (8)
0x2f0|d0                                             |.               |
0x2f0|   00 00 00 00 1b bc a0 f0                     | ........       |      [16]: "1984-09-29T23:00:00Z" (465346800) transition_time 0x2f1-0x2f9 (8)
0x2f0|                           00 00 00 00 1c ac 91|         .......|      [17]: "1985-03-30T23:00:00Z" (481071600) transition_time 0x2f9-0x301 (8)
0x300|f0                                             |.               |
0x300|   00 00 00 00 1d 9c 82 f0                     | ........       |      [18]: "1985-09-28T23:00:00Z" (496796400) transition_time 0x301-0x309 (8)
0x300|                           00 00 00 00 1e 8c 73|         ......s|      [19]: "1986-03-29T23:00:00Z" (512521200) transition_time 0x309-0x311 (8)
0x310|f0                                             |.               |
0x310|   00 00 00 00 1f 7c 64 f0                     | .....|d.       |      [20]: "1986-09-27T23:00:00Z" (528246000) transition_time 0x311-0x319 (8)
0x310|                           00 00 00 00 20 6c 55|         .... lU|      [21]: "1987-03-28T23:00:00Z" (543970800) transition_time 0x319-0x321 (8)
0x320|f0                                             |.               |
0x320|   00 00 00 00 21 5c 46 f0                     | ....!\F.       |      [22]: "1987-09-26T23:00:00Z" (559695600) transition_time 0x321-0x329 (8)
0x320|                           00 00 00 00 22 4c 37|         ...."L7|      [23]: "1988-03-26T23:00:00Z" (575420400) transition_time 0x329-0x331 (8)
0x330|f0                                             |.               |
0x330|   00 00 00 00 23 3c 28 f0                     | ....#<(.       |      [24]: "1988-09-24T23:00:00Z" (591145200) transition_time 0x331-0x339 (8)
0x330|                           00 00 00 00 24 2c 19|         ....$,.|      [25]: "1989-03-25T23:00:00Z" (606870000) transition_time 0x339-0x341 (8)
0x340|f0                                             |.               |
0x340|   00 00 00 00 25 1c 0a f0                     | ....%...       |      [26]: "1989-09-23T23:00:00Z" (622594800) transition_time 0x341-0x349 (8)
0x340|                           00 00 00 00 26 8d 2e|         ....&..|      [27]: "1990-06-30T23:00:00Z" (646786800) transition_time 0x349-0x351 (8)
0x350|f0                                             |.               |
0x350|   00 00 00 00 29 d5 08 80                     | ....)...       |      [28]: "1992-03-29T00:00:00Z" (701827200) transition_time 0x351-0x359 (8)
0x350|                           00 00 00 00 2a c4 f9|         ....*..|      [29]: "1992-09-27T00:00:00Z" (717552000) transition_time 0x359-0x361 (8)
0x360|80                                             |.               |
0x360|   00 00 00 00 2b b4 ea 80                     | ....+...       |      [30]: "1993-03-28T00:00:00Z" (733276800) transition_time 0x361-0x369 (8)
0x360|                           00 00 00 00 2c a4 db|         ....,..|      [31]: "1993-09-26T00:00:00Z" (749001600) transition_time 0x369-0x371 (8)
0x370|80                                             |.               |
0x370|   00 00 00 00 2d 94 cc 80                     | ....-...       |      [32]: "1994-03-27T00:00:00Z" (764726400) transition_time 0x371-0x379 (8)
0x370|                           00 00 00 00 2d c2 c6|         ....-..|      [33]: "1994-04-30T21:00:00Z" (767739600) transition_time 0x379-0x381 (8)
0x380|d0                                             |.               |
0x380|   00 00 00 00 2e 84 af 70                     | .......p       |      [34]: "1994-09-24T23:00:00Z" (780447600) transition_time 0x381-0x389 (8)
0x380|                           00 00 00 00 2f 74 a0|         ..../t.|      [35]: "1995-03-25T23:00:00Z" (796172400) transition_time 0x389-0x391 (8)
0x390|70                                             |p               |
0x390|   00 00 00 00 30 64 91 70                     | ....0d.p       |      [36]: "1995-09-23T23:00:00Z" (811897200) transition_time 0x391-0x399 (8)
0x390|                           00 00 00 00 31 5d a0|         ....1].|      [37]: "1996-03-30T21:00:00Z" (828219600) transition_time 0x399-0x3a1 (8)
0x3a0|d0                                             |.               |
0x3a0|   00 00 00 00 32 72 a6 00                     | ....2r..       |      [38]: "1996-10-27T00:00:00Z" (846374400) transition_time 0x3a1-0x3a9 (8)
0x3a0|                           00 00 00 00 33 3d bb|         ....3=.|      [39]: "1997-03-30T01:00:00Z" (859683600) transition_time 0x3a9-0x3b1 (8)
0x3b0|10                                             |.               |
0x3b0|   00 00 00 00 34 52 96 10                     | ....4R..       |      [40]: "1997-10-26T01:00:00Z" (877827600) transition_time 0x3b1-0x3b9 (8)
0x3b0|                           00 00 00 00 35 1d 9d|         ....5..|      [41]: "1998-03-29T01:00:00Z" (891133200) transition_time 0x3b9-0x3c1 (8)
0x3c0|10                                             |.               |
0x3c0|   00 00 00 00 36 32 78 10                     | ....62x.       |      [42]: "1998-10-25T01:00:00Z" (909277200) transition_time 0x3c1-0x3c9 (8)
0x3c0|                           00 00 00 00 36 fd 7f|         ....6..|      [43]: "1999-03-28T01:00:00Z" (922582800) transition_time 0x3c9-0x3d1 (8)
0x3d0|10                                             |.               |
0x3d0|   00 00 00 00 38 1b 94 90                     | ....8...       |      [44]: "1999-10-31T01:00:00Z" (941331600) transition_time 0x3d1-0x3d9 (8)
0x3d0|                           00 00 00 00 38 dd 61|         ....8.a|      [45]: "2000-03-26T01:00:00Z" (954032400) transition_time 0x3d9-0x3e1 (8)
0x3e0|10                                             |.               |
0x3e0|   00 00 00 00 39 fb 76 90                     | ....9.v.       |      [46]: "2000-10-29T01:00:00Z" (972781200) transition_time 0x3e1-0x3e9 (8)
0x3e0|                           00 00 00 00 3a bd 43|         ....:.C|      [47]: "2001-03-25T01:00:00Z" (985482000) transition_time 0x3e9-0x3f1 (8)
0x3f0|10                                             |.               |
0x3f0|   00 00 00 00 3b db 58 90                     | ....;.X.       |      [48]: "2001-10-28T01:00:00Z" (1004230800) transition_time 0x3f1-0x3f9 (8)
0x3f0|                           00 00 00 00 3c a6 5f|         ....<._|      [49]: "2002-03-31T01:00:00Z" (1017536400) transition_time 0x3f9-0x401 (8)
0x400|90                                             |.               |
0x400|   00 00 00 00 3d bb 3a 90                     | ....=.:.       |      [50]: "2002-10-27T01:00:00Z" (1035680400) transition_time 0x401-0x409 (8)
0x400|                           00 00 00 00 3e 86 41|         ....>.A|      [51]: "2003-03-30T01:00:00Z" (1048986000) transition_time 0x409-0x411 (8)
0x410|90                                             |.               |
0x410|   00 00 00 00 3f 9b 1c 90                     | ....?...       |      [52]: "2003-10-26T01:00:00Z" (1067130000) transition_time 0x411-0x419 (8)
0x410|                           00 00 00 00 40 66 23|         ....@f#|      [53]: "2004-03-28T01:00:00Z" (1080435600) transition_time 0x419-0x421 (8)
0x420|90                                             |.               |
0x420|   00 00 00 00 41 84 39 10                     | ....A.9.       |      [54]: "2004-10-31T01:00:00Z" (1099184400) transition_time 0x421-0x429 (8)
0x420|                           00 00 00 00 42 46 05|         ....BF.|      [55]: "2005-03-27T01:00:00Z" (1111885200) transition_time 0x429-0x431 (8)
0x430|90                                             |.               |
0x430|   00 00 00 00 43 64 1b 10                     | ....Cd..       |      [56]: "2005-10-30T01:00:00Z" (1130634000) transition_time 0x431-0x439 (8)
0x430|                           00 00 00 00 44 25 e7|         ....D%.|      [57]: "2006-03-26T01:00:00Z" (1143334800) transition_time 0x439-0x441 (8)
0x440|90                                             |.               |
0x440|   00 00 00 00 45 43 fd 10                     | ....EC..       |      [58]: "2006-10-29T01:00:00Z" (1162083600) transition_time 0x441-0x449 (8)
0x440|                           00 00 00 00 46 05 c9|         ....F..|      [59]: "2007-03-25T01:00:00Z" (1174784400) transition_time 0x449-0x451 (8)
0x450|90                                             |.               |
0x450|   00 00 00 00 47 23 df 10                     | ....G#..       |      [60]: "2007-10-28T01:00:00Z" (1193533200) transition_time 0x451-0x459 (8)
0x450|                           00 00 00 00 47 ee e6|         ....G..|      [61]: "2008-03-30T01:00:00Z" (1206838800) transition_time 0x459-0x461 (8)
0x460|10                                             |.               |
0x460|   00 00 00 00 49 03 c1 10                     | ....I...       |      [62]: "2008-10-26T01:00:00Z" (1224982800) transition_time 0x461-0x469 (8)
0x460|                           00 00 00 00 49 ce c8|         ....I..|      [63]: "2009-03-29T01:00:00Z" (1238288400) transition_time 0x469-0x471 (8)
0x470|10                                             |.               |
0x470|   00 00 00 00 4a e3 a3 10                     | ....J...       |      [64]: "2009-10-25T01:00:00Z" (1256432400) transition_time 0x471-0x479 (8)
0x470|                           00 00 00 00 4b ae aa|         ....K..|      [65]: "2010-03-28T01:00:00Z" (1269738000) transition_time 0x479-0x481 (8)
0x480|10                                             |.               |
0x480|   00 00 00 00 4c cc bf 90                     | ....L...       |      [66]: "2010-10-31T01:00:00Z" (1288486800) transition_time 0x481-0x489 (8)
0x480|                           00 00 00 00 4d 8e 8c|         ....M..|      [67]: "2011-03-27T01:00:00Z" (1301187600) transition_time 0x489-0x491 (8)
0x490|10                                             |.               |
0x490|   00 00 00 00 4e ac a1 90                     | ....N...       |      [68]: "2011-10-30T01:00:00Z" (1319936400) transition_time 0x491-0x499 (8)
0x490|                           00 00 00 00 4f 6e 6e|         ....Onn|      [69]: "2012-03-25T01:00:00Z" (1332637200) transition_time 0x499-0x4a1 (8)
0x4a0|10                                             |.               |
0x4a0|   00 00 00 00 50 8c 83 90                     | ....P...       |      [70]: "2012-10-28T01:00:00Z" (1351386000) transition_time 0x4a1-0x4a9 (8)
0x4a0|                           00 00 00 00 51 57 8a|         ....QW.|      [71]: "2013-03-31T01:00:00Z" (1364691600) transition_time 0x4a9-0x4b1 (8)
0x4b0|90                                             |.               |
0x4b0|   00 00 00 00 52 6c 65 90                     | ....Rle.       |      [72]: "2013-10-27T01:00:00Z" (1382835600) transition_time 0x4b1-0x4b9 (8)
0x4b0|                           00 00 00 00 53 37 5e|         ....S7^|      [73]: "2014-03-30T00:00:00Z" (1396137600) transition_time 0x4b9-0x4c1 (8)
0x4c0|80                                             |.               |
0x4c0|   00 00 00 00 54 4c 1d 60                     | ....TL.`       |      [74]: "2014-10-25T22:00:00Z" (1414274400) transition_time 0x4c1-0x4c9 (8)
     |                                               |                |    transition_types[0:75]: 0x4c9-0x514 (75)
0x4c0|                           01                  |         .      |      [0]: 1 transition_type 0x4c9-0x4ca (1)
0x4c0|                              02               |          .     |      [1]: 2 transition_type 0x4ca-0x4cb (1)
0x4c0|                                 03            |           .    |      [2]: 3 transition_type 0x4cb-0x4cc (1)
0x4c0|                                    06         |            .   |      [3]: 6 transition_type 0x4cc-0x4cd (1)
0x4c0|                                       04      |             .  |      [4]: 4 transition_type 0x4cd-0x4ce (1)
0x4c0|                                          05   |              . |      [5]: 5 transition_type 0x4ce-0x4cf (1)
0x4c0|                                             04|               .|      [6]: 4 transition_type 0x4cf-0x4d0 (1)
0x4d0|05                                             |.               |      [7]: 5 transition_type 0x4d0-0x4d1 (1)
0x4d0|   03                                          | .              |      [8]: 3 transition_type 0x4d1-0x4d2 (1)
0x4d0|      07                                       |  .             |      [9]: 7 transition_type 0x4d2-0x4d3 (1)
0x4d0|         03                                    |   .            |      [10]: 3 transition_type 0x4d3-0x4d4 (1)
0x4d0|            07                                 |    .           |      [11]: 7 transition_type 0x4d4-0x4d5 (1)
0x4d0|               03                              |     .          |      [12]: 3 transition_type 0x4d5-0x4d6 (1)
0x4d0|                  07                           |      .         |      [13]: 7 transition_type 0x4d6-0x4d7 (1)
0x4d0|                     03                        |       .        |      [14]: 3 transition_type 0x4d7-0x4d8 (1)
0x4d0|                        07                     |        .       |      [15]: 7 transition_type 0x4d8-0x4d9 (1)
0x4d0|                           08                  |         .      |      [16]: 8 transition_type 0x4d9-0x4da (1)
0x4d0|                              09               |          .     |      [17]: 9 transition_type 0x4da-0x4db (1)
0x4d0|                                 08            |           .    |      [18]: 8 transition_type 0x4db-0x4dc (1)
0x4d0|                                    09         |            .   |      [19]: 9 transition_type 0x4dc-0x4dd (1)
0x4d0|                                       08      |             .  |      [20]: 8 transition_type 0x4dd-0x4de (1)
0x4d0|                                          09   |              . |      [21]: 9 transition_type 0x4de-0x4df (1)
0x4d0|                                             08|               .|      [22]: 8 transition_type 0x4df-0x4e0 (1)
0x4e0|09                                             |.               |      [23]: 9 transition_type 0x4e0-0x4e1 (1)
0x4e0|   08                                          | .              |      [24]: 8 transition_type 0x4e1-0x4e2 (1)
0x4e0|      09                                       |  .             |      [25]: 9 transition_type 0x4e2-0x4e3 (1)
0x4e0|         08                                    |   .            |      [26]: 8 transition_type 0x4e3-0x4e4 (1)
0x4e0|            02                                 |    .           |      [27]: 2 transition_type 0x4e4-0x4e5 (1)
0x4e0|               0a                              |     .          |      [28]: 10 transition_type 0x4e5-0x4e6 (1)
0x4e0|                  0b                           |      .         |      [29]: 11 transition_type 0x4e6-0x4e7 (1)
0x4e0|                     0a                        |       .        |      [30]: 10 transition_type 0x4e7-0x4e8 (1)
0x4e0|                        0b                     |        .       |      [31]: 11 transition_type 0x4e8-0x4e9 (1)
0x4e0|                           0a                  |         .      |      [32]: 10 transition_type 0x4e9-0x4ea (1)
0x4e0|                              07               |          .     |      [33]: 7 transition_type 0x4ea-0x4eb (1)
0x4e0|                                 08            |           .    |      [34]: 8 transition_type 0x4eb-0x4ec (1)
0x4e0|                                    09         |            .   |      [35]: 9 transition_type 0x4ec-0x4ed (1)
0x4e0|                                       08      |             .  |      [36]: 8 transition_type 0x4ed-0x4ee (1)
0x4e0|                                          09   |              . |      [37]: 9 transition_type 0x4ee-0x4ef (1)
0x4e0|                                             08|               .|      [38]: 8 transition_type 0x4ef-0x4f0 (1)
0x4f0|0c                                             |.               |      [39]: 12 transition_type 0x4f0-0x4f1 (1)
0x4f0|   0d                                          | .              |      [40]: 13 transition_type 0x4f1-0x4f2 (1)
0x4f0|      0c                                       |  .             |      [41]: 12 transition_type 0x4f2-0x4f3 (1)
0x4f0|         0d                                    |   .            |      [42]: 13 transition_type 0x4f3-0x4f4 (1)
0x4f0|            0c                                 |    .           |      [43]: 12 transition_type 0x4f4-0x4f5 (1)
0x4f0|               0d                              |     .          |      [44]: 13 transition_type 0x4f5-0x4f6 (1)
0x4f0|                  0c                           |      .         |      [45]: 12 transition_type 0x4f6-0x4f7 (1)
0x4f0|                     0d                        |       .        |      [46]: 13 transition_type 0x4f7-0x4f8 (1)
0x4f0|                        0c                     |        .       |      [47]: 12 transition_type 0x4f8-0x4f9 (1)
0x4f0|                           0d                  |         .      |      [48]: 13 transition_type 0x4f9-0x4fa (1)
0x4f0|                              0c               |          .     |      [49]: 12 transition_type 0x4fa-0x4fb (1)
0x4f0|                                 0d            |           .    |      [50]: 13 transition_type 0x4fb-0x4fc (1)
0x4f0|                                    0c         |            .   |      [51]: 12 transition_type 0x4fc-0x4fd (1)
0x4f0|                                       0d      |             .  |      [52]: 13 transition_type 0x4fd-0x4fe (1)
0x4f0|                                          0c   |              . |      [53]: 12 transition_type 0x4fe-0x4ff (1)
0x4f0|                                             0d|               .|      [54]: 13 transition_type 0x4ff-0x500 (1)
0x500|0c                                             |.               |      [55]: 12 transition_type 0x500-0x501 (1)
0x500|   0d                                          | .              |      [56]: 13 transition_type 0x501-0x502 (1)
0x500|      0c                                       |  .             |      [57]: 12 transition_type 0x502-0x503 (1)
0x500|         0d                                    |   .            |      [58]: 13 transition_type 0x503-0x504 (1)
0x500|            0c                                 |    .           |      [59]: 12 transition_type 0x504-0x505 (1)
0x500|               0d                              |     .          |      [60]: 13 transition_type 0x505-0x506 (1)
0x500|                  0c                           |      .         |      [61]: 12 transition_type 0x506-0x507 (1)
0x500|                     0d                        |       .        |      [62]: 13 transition_type 0x507-0x508 (1)
0x500|                        0c                     |        .       |      [63]: 12 transition_type 0x508-0x509 (1)
0x500|                           0d                  |         .      |      [64]: 13 transition_type 0x509-0x50a (1)
0x500|                              0c               |          .     |      [65]: 12 transition_type 0x50a-0x50b (1)
0x500|                                 0d            |           .    |      [66]: 13 transition_type 0x50b-0x50c (1)
0x500|                                    0c         |            .   |      [67]: 12 transition_type 0x50c-0x50d (1)
0x500|                                       0d      |             .  |      [68]: 13 transition_type 0x50d-0x50e (1)
0x500|                                          0c   |              . |      [69]: 12 transition_type 0x50e-0x50f (1)
0x500|                                             0d|               .|      [70]: 13 transition_type 0x50f-0x510 (1)
0x510|0c                                             |.               |      [71]: 12 transition_type 0x510-0x511 (1)
0x510|   0d                                          | .              |      [72]: 13 transition_type 0x511-0x512 (1)
0x510|      0e                                       |  .             |      [73]: 14 transition_type 0x512-0x513 (1)
0x510|         08                                    |   .            |      [74]: 8 transition_type 0x513-0x514 (1)
     |                                               |                |    local_time_type_records[0:16]: 0x514-0x574 (96)
     |                                               |                |      [0]{}: local_time_type 0x514-0x51a (6)
0x510|            00 00 1f f8                        |    ....        |        utoff: 8184 (valid) 0x514-0x518 (4)
0x510|                        00                     |        .       |        dst: 0 (valid) 0x518-0x519 (1)
0x510|                           00                  |         .      |        idx: 0 (valid) 0x519-0x51a (1)
     |                                               |                |      [1]{}: local_time_type 0x51a-0x520 (6)
0x510|                              00 00 1f e0      |          ....  |        utoff: 8160 (valid) 0x51a-0x51e (4)
0x510|                                          00   |              . |        dst: 0 (valid) 0x51e-0x51f (1)
0x510|                                             04|               .|        idx: 4 (valid) 0x51f-0x520 (1)
     |                                               |                |      [2]{}: local_time_type 0x520-0x526 (6)
0x520|00 00 1c 20                                    |...             |        utoff: 7200 (valid) 0x520-0x524 (4)
0x520|            00                                 |    .           |        dst: 0 (valid) 0x524-0x525 (1)
0x520|               08                              |     .          |        idx: 8 (valid) 0x525-0x526 (1)
     |                                               |                |      [3]{}: local_time_type 0x526-0x52c (6)
0x520|                  00 00 2a 30                  |      ..*0      |        utoff: 10800 (valid) 0x526-0x52a (4)
0x520|                              00               |          .     |        dst: 0 (valid) 0x52a-0x52b (1)
0x520|                                 0c            |           .    |        idx: 12 (valid) 0x52b-0x52c (1)
     |                                               |                |      [4]{}: local_time_type 0x52c-0x532 (6)
0x520|                                    00 00 0e 10|            ....|        utoff: 3600 (valid) 0x52c-0x530 (4)
0x530|00                                             |.               |        dst: 0 (valid) 0x530-0x531 (1)
0x530|   10                                          | .              |        idx: 16 (valid) 0x531-0x532 (1)
     |                                               |                |      [5]{}: local_time_type 0x532-0x538 (6)
0x530|      00 00 1c 20                              |  ...           |        utoff: 7200 (valid) 0x532-0x536 (4)
0x530|                  01                           |      .         |        dst: 1 (valid) 0x536-0x537 (1)
0x530|                     14                        |       .        |        idx: 20 (valid) 0x537-0x538 (1)
     |                                               |                |      [6]{}: local_time_type 0x538-0x53e (6)
0x530|                        00 00 1c 20            |        ...     |        utoff: 7200 (valid) 0x538-0x53c (4)
0x530|                                    01         |            .   |        dst: 1 (valid) 0x53c-0x53d (1)
0x530|                                       14      |             .  |        idx: 20 (valid) 0x53d-0x53e (1)
     |                                               |                |      [7]{}: local_time_type 0x53e-0x544 (6)
0x530|                                          00 00|              ..|        utoff: 14400 (valid) 0x53e-0x542 (4)
0x540|38 40                                          |8@              |
0x540|      01                                       |  .             |        dst: 1 (valid) 0x542-0x543 (1)
0x540|         19                                    |   .            |        idx: 25 (valid) 0x543-0x544 (1)
     |                                               |                |      [8]{}: local_time_type 0x544-0x54a (6)
0x540|            00 00 2a 30                        |    ..*0        |        utoff: 10800 (valid) 0x544-0x548 (4)
0x540|                        00                     |        .       |        dst: 0 (valid) 0x548-0x549 (1)
0x540|                           0c                  |         .      |        idx: 12 (valid) 0x549-0x54a (1)
     |                                               |                |      [9]{}: local_time_type 0x54a-0x550 (6)
0x540|                              00 00 38 40      |          ..8@  |        utoff: 14400 (valid) 0x54a-0x54e (4)
0x540|                                          01   |              . |        dst: 1 (valid) 0x54e-0x54f (1)
0x540|                                             19|               .|        idx: 25 (valid) 0x54f-0x550 (1)
     |                                               |                |      [10]{}: local_time_type 0x550-0x556 (6)
0x550|00 00 2a 30                                    |..*0            |        utoff: 10800 (valid) 0x550-0x554 (4)
0x550|            01                                 |    .           |        dst: 1 (valid) 0x554-0x555 (1)
0x550|               1d                              |     .          |        idx: 29 (valid) 0x555-0x556 (1)
     |                                               |                |      [11]{}: local_time_type 0x556-0x55c (6)
0x550|                  00 00 1c 20                  |      ...       |        utoff: 7200 (valid) 0x556-0x55a (4)
0x550|                              00               |          .     |        dst: 0 (valid) 0x55a-0x55b (1)
0x550|                                 08            |           .    |        idx: 8 (valid) 0x55b-0x55c (1)
     |                                               |                |      [12]{}: local_time_type 0x55c-0x562 (6)
0x550|                                    00 00 2a 30|            ..*0|        utoff: 10800 (valid) 0x55c-0x560 (4)
0x560|01                                             |.               |        dst: 1 (valid) 0x560-0x561 (1)
0x560|   1d                                          | .              |        idx: 29 (valid) 0x561-0x562 (1)
     |                                               |                |      [13]{}: local_time_type 0x562-0x568 (6)
0x560|      00 00 1c 20                              |  ...           |        utoff: 7200 (valid) 0x562-0x566 (4)
0x560|                  00                           |      .         |        dst: 0 (valid) 0x566-0x567 (1)
0x560|                     08                        |       .        |        idx: 8 (valid) 0x567-0x568 (1)
     |                                               |                |      [14]{}: local_time_type 0x568-0x56e (6)
0x560|                        00 00 38 40            |        ..8@    |        utoff: 14400 (valid) 0x568-0x56c (4)
0x560|                                    00         |            .   |        dst: 0 (valid) 0x56c-0x56d (1)
0x560|                                       0c      |             .  |        idx: 12 (valid) 0x56d-0x56e (1)
     |                                               |                |      [15]{}: local_time_type 0x56e-0x574 (6)
0x560|                                          00 00|              ..|        utoff: 10800 (valid) 0x56e-0x572 (4)
0x570|2a 30                                          |*0              |
0x570|      00                                       |  .             |        dst: 0 (valid) 0x572-0x573 (1)
0x570|         0c                                    |   .            |        idx: 12 (valid) 0x573-0x574 (1)
     |                                               |                |    time_zone_designations[0:8]: 0x574-0x596 (34)
0x570|            4c 4d 54 00                        |    LMT.        |      [0]: "LMT" time_zone_designation 0x574-0x578 (4)
0x570|                        53 4d 54 00            |        SMT.    |      [1]: "SMT" time_zone_designation 0x578-0x57c (4)
0x570|                                    45 45 54 00|            EET.|      [2]: "EET" time_zone_designation 0x57c-0x580 (4)
0x580|4d 53 4b 00                                    |MSK.            |      [3]: "MSK" time_zone_designation 0x580-0x584 (4)
0x580|            43 45 54 00                        |    CET.        |      [4]: "CET" time_zone_designation 0x584-0x588 (4)
0x580|                        43 45 53 54 00         |        CEST.   |      [5]: "CEST" time_zone_designation 0x588-0x58d (5)
0x580|                                       4d 53 44|             MSD|      [6]: "MSD" time_zone_designation 0x58d-0x591 (4)
0x590|00                                             |.               |
0x590|   45 45 53 54 00                              | EEST.          |      [7]: "EEST" time_zone_designation 0x591-0x596 (5)
     |                                               |                |    leap_second_records[0:0]: 0x596-0x596 (0)
     |                                               |                |    standard_wall_indicators[0:16]: 0x596-0x5a6 (16)
0x590|                  00                           |      .         |      [0]: 0 standard_wall_indicator (valid) 0x596-0x597 (1)
0x590|                     00                        |       .        |      [1]: 0 standard_wall_indicator (valid) 0x597-0x598 (1)
0x590|                        00                     |        .       |      [2]: 0 standard_wall_indicator (valid) 0x598-0x599 (1)
0x590|                           00                  |         .      |      [3]: 0 standard_wall_indicator (valid) 0x599-0x59a (1)
0x590|                              01               |          .     |      [4]: 1 standard_wall_indicator (valid) 0x59a-0x59b (1)
0x590|                                 01            |           .    |      [5]: 1 standard_wall_indicator (valid) 0x59b-0x59c (1)
0x590|                                    00         |            .   |      [6]: 0 standard_wall_indicator (valid) 0x59c-0x59d (1)
0x590|                                       00      |             .  |      [7]: 0 standard_wall_indicator (valid) 0x59d-0x59e (1)
0x590|                                          01   |              . |      [8]: 1 standard_wall_indicator (valid) 0x59e-0x59f (1)
0x590|                                             01|               .|      [9]: 1 standard_wall_indicator (valid) 0x59f-0x5a0 (1)
0x5a0|01                                             |.               |      [10]: 1 standard_wall_indicator (valid) 0x5a0-0x5a1 (1)
0x5a0|   01                                          | .              |      [11]: 1 standard_wall_indicator (valid) 0x5a1-0x5a2 (1)
0x5a0|      01                                       |  .             |      [12]: 1 standard_wall_indicator (valid) 0x5a2-0x5a3 (1)
0x5a0|         01                                    |   .            |      [13]: 1 standard_wall_indicator (valid) 0x5a3-0x5a4 (1)
0x5a0|            00                                 |    .           |      [14]: 0 standard_wall_indicator (valid) 0x5a4-0x5a5 (1)
0x5a0|               01                              |     .          |      [15]: 1 standard_wall_indicator (valid) 0x5a5-0x5a6 (1)
     |                                               |                |    ut_local_indicators[0:16]: 0x5a6-0x5b6 (16)
0x5a0|                  00                           |      .         |      [0]: 0 ut_local_indicator (valid) 0x5a6-0x5a7 (1)
0x5a0|                     00                        |       .        |      [1]: 0 ut_local_indicator (valid) 0x5a7-0x5a8 (1)
0x5a0|                        00                     |        .       |      [2]: 0 ut_local_indicator (valid) 0x5a8-0x5a9 (1)
0x5a0|                           00                  |         .      |      [3]: 0 ut_local_indicator (valid) 0x5a9-0x5aa (1)
0x5a0|                              00               |          .     |      [4]: 0 ut_local_indicator (valid) 0x5aa-0x5ab (1)
0x5a0|                                 00            |           .    |      [5]: 0 ut_local_indicator (valid) 0x5ab-0x5ac (1)
0x5a0|                                    00         |            .   |      [6]: 0 ut_local_indicator (valid) 0x5ac-0x5ad (1)
0x5a0|                                       00      |             .  |      [7]: 0 ut_local_indicator (valid) 0x5ad-0x5ae (1)
0x5a0|                                          00   |              . |      [8]: 0 ut_local_indicator (valid) 0x5ae-0x5af (1)
0x5a0|                                             00|               .|      [9]: 0 ut_local_indicator (valid) 0x5af-0x5b0 (1)
0x5b0|00                                             |.               |      [10]: 0 ut_local_indicator (valid) 0x5b0-0x5b1 (1)
0x5b0|   00                                          | .              |      [11]: 0 ut_local_indicator (valid) 0x5b1-0x5b2 (1)
0x5b0|      01                                       |  .             |      [12]: 1 ut_local_indicator (valid) 0x5b2-0x5b3 (1)
0x5b0|         01                                    |   .            |      [13]: 1 ut_local_indicator (valid) 0x5b3-0x5b4 (1)
0x5b0|            00                                 |    .           |      [14]: 0 ut_local_indicator (valid) 0x5b4-0x5b5 (1)
0x5b0|               00                              |     .          |      [15]: 0 ut_local_indicator (valid) 0x5b5-0x5b6 (1)
     |                                               |                |  footer{}: 0x5b6-0x5bd (7)
0x5b0|                  0a                           |      .         |    nl1: 10 (valid) 0x5b6-0x5b7 (1)
0x5b0|                     4d 53 4b 2d 33            |       MSK-3    |    tz_string: "MSK-3" 0x5b7-0x5bc (5)
0x5b0|                                    0a|        |            .|  |    nl2: 10 (valid) 0x5bc-0x5bd (1)
