$ fq -d tzif dv Singapore
     |00 01 02 03 04 05 06 07 08 09 0a 0b 0c 0d 0e 0f|0123456789abcdef|.{}: Singapore (tzif) 0x0-0x394 (916)
     |                                               |                |  v1header{}: 0x0-0x2c (44)
0x000|54 5a 69 66                                    |TZif            |    magic: 0x545a6966 (valid) 0x0-0x4 (4)
0x000|            32                                 |    2           |    ver: "2" (0x32) (valid) 0x4-0x5 (1)
0x000|               00 00 00 00 00 00 00 00 00 00 00|     ...........|    reserved: raw bits 0x5-0x14 (15)
0x010|00 00 00 00                                    |....            |
0x010|            00 00 00 00                        |    ....        |    isutcnt: 0 0x14-0x18 (4)
0x010|                        00 00 00 00            |        ....    |    isstdcnt: 0 0x18-0x1c (4)
0x010|                                    00 00 00 1b|            ....|    leapcnt: 27 0x1c-0x20 (4)
0x020|00 00 00 09                                    |....            |    timecnt: 9 0x20-0x24 (4)
0x020|            00 00 00 08                        |    ....        |    typecnt: 8 0x24-0x28 (4)
0x020|                        00 00 00 20            |        ...     |    charcnt: 32 0x28-0x2c (4)
     |                                               |                |  v1datablock{}: 0x2c-0x181 (341)
     |                                               |                |    transition_times[0:9]: 0x2c-0x50 (36)
0x020|                                    80 00 00 00|            ....|      [0]: "1901-12-13T20:45:52Z" (-2147483648) transition_time 0x2c-0x30 (4)
0x030|86 83 85 a3                                    |....            |      [1]: "1905-05-31T17:04:35Z" (-2038200925) transition_time 0x30-0x34 (4)
0x030|            ba 67 4e 90                        |    .gN.        |      [2]: "1932-12-31T17:00:00Z" (-1167634800) transition_time 0x34-0x38 (4)
0x030|                        c0 0a e4 60            |        ...`    |      [3]: "1935-12-31T16:40:00Z" (-1073028000) transition_time 0x38-0x3c (4)
0x030|                                    ca b3 e5 60|            ...`|      [4]: "1941-08-31T16:40:00Z" (-894180000) transition_time 0x3c-0x40 (4)
0x040|cb 91 5f 08                                    |.._.            |      [5]: "1942-02-15T16:30:00Z" (-879665400) transition_time 0x40-0x44 (4)
0x040|            d2 48 6d f0                        |    .Hm.        |      [6]: "1945-09-11T15:00:00Z" (-767005200) transition_time 0x44-0x48 (4)
0x040|                        16 91 f5 12            |        ....    |      [7]: "1981-12-31T16:30:10Z" (378664210) transition_time 0x48-0x4c (4)
0x040|                                    64 9b 78 1b|            d.x.|      [8]: "2023-06-28T00:00:27Z" (1687910427) transition_time 0x4c-0x50 (4)
     |                                               |                |    transition_types[0:9]: 0x50-0x59 (9)
0x050|01                                             |.               |      [0]: 1 transition_type 0x50-0x51 (1)
0x050|   02                                          | .              |      [1]: 2 transition_type 0x51-0x52 (1)
0x050|      03                                       |  .             |      [2]: 3 transition_type 0x52-0x53 (1)
0x050|         04                                    |   .            |      [3]: 4 transition_type 0x53-0x54 (1)
0x050|            05                                 |    .           |      [4]: 5 transition_type 0x54-0x55 (1)
0x050|               06                              |     .          |      [5]: 6 transition_type 0x55-0x56 (1)
0x050|                  05                           |      .         |      [6]: 5 transition_type 0x56-0x57 (1)
0x050|                     07                        |       .        |      [7]: 7 transition_type 0x57-0x58 (1)
0x050|                        07                     |        .       |      [8]: 7 transition_type 0x58-0x59 (1)
     |                                               |                |    local_time_type_records[0:8]: 0x59-0x89 (48)
     |                                               |                |      [0]{}: local_time_type 0x59-0x5f (6)
0x050|                           00 00 61 5d         |         ..a]   |        utoff: 24925 (valid) 0x59-0x5d (4)
0x050|                                       00      |             .  |        dst: 0 (valid) 0x5d-0x5e (1)
0x050|                                          00   |              . |        idx: 0 (valid) 0x5e-0x5f (1)
     |                                               |                |      [1]{}: local_time_type 0x5f-0x65 (6)
0x050|                                             00|               .|        utoff: 24925 (valid) 0x5f-0x63 (4)
0x060|00 61 5d                                       |.a]             |
0x060|         00                                    |   .            |        dst: 0 (valid) 0x63-0x64 (1)
0x060|            04                                 |    .           |        idx: 4 (valid) 0x64-0x65 (1)
     |                                               |                |      [2]{}: local_time_type 0x65-0x6b (6)
0x060|               00 00 62 70                     |     ..bp       |        utoff: 25200 (valid) 0x65-0x69 (4)
0x060|                           00                  |         .      |        dst: 0 (valid) 0x69-0x6a (1)
0x060|                              08               |          .     |        idx: 8 (valid) 0x6a-0x6b (1)
     |                                               |                |      [3]{}: local_time_type 0x6b-0x71 (6)
0x060|                                 00 00 67 20   |           ..g  |        utoff: 26400 (valid) 0x6b-0x6f (4)
0x060|                                             01|               .|        dst: 1 (valid) 0x6f-0x70 (1)
0x070|0c                                             |.               |        idx: 12 (valid) 0x70-0x71 (1)
     |                                               |                |      [4]{}: local_time_type 0x71-0x77 (6)
0x070|   00 00 67 20                                 | ..g            |        utoff: 26400 (valid) 0x71-0x75 (4)
0x070|               00                              |     .          |        dst: 0 (valid) 0x75-0x76 (1)
0x070|                  0c                           |      .         |        idx: 12 (valid) 0x76-0x77 (1)
     |                                               |                |      [5]{}: local_time_type 0x77-0x7d (6)
0x070|                     00 00 69 78               |       ..ix     |        utoff: 27000 (valid) 0x77-0x7b (4)
0x070|                                 00            |           .    |        dst: 0 (valid) 0x7b-0x7c (1)
0x070|                                    12         |            .   |        idx: 18 (valid) 0x7c-0x7d (1)
     |                                               |                |      [6]{}: local_time_type 0x7d-0x83 (6)
0x070|                                       00 00 7e|             ..~|        utoff: 32400 (valid) 0x7d-0x81 (4)
0x080|90                                             |.               |
0x080|   00                                          | .              |        dst: 0 (valid) 0x81-0x82 (1)
0x080|      18                                       |  .             |        idx: 24 (valid) 0x82-0x83 (1)
     |                                               |                |      [7]{}: local_time_type 0x83-0x89 (6)
0x080|         00 00 70 80                           |   ..p.         |        utoff: 28800 (valid) 0x83-0x87 (4)
0x080|                     00                        |       .        |        dst: 0 (valid) 0x87-0x88 (1)
0x080|                        1c                     |        .       |        idx: 28 (valid) 0x88-0x89 (1)
     |                                               |                |    time_zone_designations[0:7]: 0x89-0xa9 (32)
0x080|                           4c 4d 54 00         |         LMT.   |      [0]: "LMT" time_zone_designation 0x89-0x8d (4)
0x080|                                       53 4d 54|             SMT|      [1]: "SMT" time_zone_designation 0x8d-0x91 (4)
0x090|00                                             |.               |
0x090|   2b 30 37 00                                 | +07.           |      [2]: "+07" time_zone_designation 0x91-0x95 (4)
0x090|               2b 30 37 32 30 00               |     +0720.     |      [3]: "+0720" time_zone_designation 0x95-0x9b (6)
0x090|                                 2b 30 37 33 30|           +0730|      [4]: "+0730" time_zone_designation 0x9b-0xa1 (6)
0x0a0|00                                             |.               |
0x0a0|   2b 30 39 00                                 | +09.           |      [5]: "+09" time_zone_designation 0xa1-0xa5 (4)
0x0a0|               2b 30 38 00                     |     +08.       |      [6]: "+08" time_zone_designation 0xa5-0xa9 (4)
     |                                               |                |    leap_second_records[0:27]: 0xa9-0x181 (216)
     |                                               |                |      [0]{}: leap_second_record 0xa9-0xb1 (8)
0x0a0|                           04 b2 58 00         |         ..X.   |        occur: "1972-07-01T00:00:00Z" (78796800) 0xa9-0xad (4)
0x0a0|                                       00 00 00|             ...|        corr: 1 0xad-0xb1 (4)
0x0b0|01                                             |.               |
     |                                               |                |      [1]{}: leap_second_record 0xb1-0xb9 (8)
0x0b0|   05 a4 ec 01                                 | ....           |        occur: "1973-01-01T00:00:01Z" (94694401) 0xb1-0xb5 (4)
0x0b0|               00 00 00 02                     |     ....       |        corr: 2 0xb5-0xb9 (4)
     |                                               |                |      [2]{}: leap_second_record 0xb9-0xc1 (8)
0x0b0|                           07 86 1f 82         |         ....   |        occur: "1974-01-01T00:00:02Z" (126230402) 0xb9-0xbd (4)
0x0b0|                                       00 00 00|             ...|        corr: 3 0xbd-0xc1 (4)
0x0c0|03                                             |.               |
     |                                               |                |      [3]{}: leap_second_record 0xc1-0xc9 (8)
0x0c0|   09 67 53 03                                 | .gS.           |        occur: "1975-01-01T00:00:03Z" (157766403) 0xc1-0xc5 (4)
0x0c0|               00 00 00 04                     |     ....       |        corr: 4 0xc5-0xc9 (4)
     |                                               |                |      [4]{}: leap_second_record 0xc9-0xd1 (8)
0x0c0|                           0b 48 86 84         |         .H..   |        occur: "1976-01-01T00:00:04Z" (189302404) 0xc9-0xcd (4)
0x0c0|                                       00 00 00|             ...|        corr: 5 0xcd-0xd1 (4)
0x0d0|05                                             |.               |
     |                                               |                |      [5]{}: leap_second_record 0xd1-0xd9 (8)
0x0d0|   0d 2b 0b 85                                 | .+..           |        occur: "1977-01-01T00:00:05Z" (220924805) 0xd1-0xd5 (4)
0x0d0|               00 00 00 06                     |     ....       |        corr: 6 0xd5-0xd9 (4)
     |                                               |                |      [6]{}: leap_second_record 0xd9-0xe1 (8)
0x0d0|                           0f 0c 3f 06         |         ..?.   |        occur: "1978-01-01T00:00:06Z" (252460806) 0xd9-0xdd (4)
0x0d0|                                       00 00 00|             ...|        corr: 7 0xdd-0xe1 (4)
0x0e0|07                                             |.               |
     |                                               |                |      [7]{}: leap_second_record 0xe1-0xe9 (8)
0x0e0|   10 ed 72 87                                 | ..r.           |        occur: "1979-01-01T00:00:07Z" (283996807) 0xe1-0xe5 (4)
0x0e0|               00 00 00 08                     |     ....       |        corr: 8 0xe5-0xe9 (4)
     |                                               |                |      [8]{}: leap_second_record 0xe9-0xf1 (8)
0x0e0|                           12 ce a6 08         |         ....   |        occur: "1980-01-01T00:00:08Z" (315532808) 0xe9-0xed (4)
0x0e0|                                       00 00 00|             ...|        corr: 9 0xed-0xf1 (4)
0x0f0|09                                             |.               |
     |                                               |                |      [9]{}: leap_second_record 0xf1-0xf9 (8)
0x0f0|   15 9f ca 89                                 | ....           |        occur: "1981-07-01T00:00:09Z" (362793609) 0xf1-0xf5 (4)
0x0f0|               00 00 00 0a                     |     ....       |        corr: 10 0xf5-0xf9 (4)
     |                                               |                |      [10]{}: leap_second_record 0xf9-0x101 (8)
0x0f0|                           17 80 fe 0a         |         ....   |        occur: "1982-07-01T00:00:10Z" (394329610) 0xf9-0xfd (4)
0x0f0|                                       00 00 00|             ...|        corr: 11 0xfd-0x101 (4)
0x100|0b                                             |.               |
     |                                               |                |      [11]{}: leap_second_record 0x101-0x109 (8)
0x100|   19 62 31 8b                                 | .b1.           |        occur: "1983-07-01T00:00:11Z" (425865611) 0x101-0x105 (4)
0x100|               00 00 00 0c                     |     ....       |        corr: 12 0x105-0x109 (4)
     |                                               |                |      [12]{}: leap_second_record 0x109-0x111 (8)
0x100|                           1d 25 ea 0c         |         .%..   |        occur: "1985-07-01T00:00:12Z" (489024012) 0x109-0x10d (4)
0x100|                                       00 00 00|             ...|        corr: 13 0x10d-0x111 (4)
0x110|0d                                             |.               |
     |                                               |                |      [13]{}: leap_second_record 0x111-0x119 (8)
0x110|   21 da e5 0d                                 | !...           |        occur: "1988-01-01T00:00:13Z" (567993613) 0x111-0x115 (4)
0x110|               00 00 00 0e                     |     ....       |        corr: 14 0x115-0x119 (4)
     |                                               |                |      [14]{}: leap_second_record 0x119-0x121 (8)
0x110|                           25 9e 9d 8e         |         %...   |        occur: "1990-01-01T00:00:14Z" (631152014) 0x119-0x11d (4)
0x110|                                       00 00 00|             ...|        corr: 15 0x11d-0x121 (4)
0x120|0f                                             |.               |
     |                                               |                |      [15]{}: leap_second_record 0x121-0x129 (8)
0x120|   27 7f d1 0f                                 | '...           |        occur: "1991-01-01T00:00:15Z" (662688015) 0x121-0x125 (4)
0x120|               00 00 00 10                     |     ....       |        corr: 16 0x125-0x129 (4)
     |                                               |                |      [16]{}: leap_second_record 0x129-0x131 (8)
0x120|                           2a 50 f5 90         |         *P..   |        occur: "1992-07-01T00:00:16Z" (709948816) 0x129-0x12d (4)
0x120|                                       00 00 00|             ...|        corr: 17 0x12d-0x131 (4)
0x130|11                                             |.               |
     |                                               |                |      [17]{}: leap_second_record 0x131-0x139 (8)
0x130|   2c 32 29 11                                 | ,2).           |        occur: "1993-07-01T00:00:17Z" (741484817) 0x131-0x135 (4)
0x130|               00 00 00 12                     |     ....       |        corr: 18 0x135-0x139 (4)
     |                                               |                |      [18]{}: leap_second_record 0x139-0x141 (8)
0x130|                           2e 13 5c 92         |         ..\.   |        occur: "1994-07-01T00:00:18Z" (773020818) 0x139-0x13d (4)
0x130|                                       00 00 00|             ...|        corr: 19 0x13d-0x141 (4)
0x140|13                                             |.               |
     |                                               |                |      [19]{}: leap_second_record 0x141-0x149 (8)
0x140|   30 e7 24 13                                 | 0.$.           |        occur: "1996-01-01T00:00:19Z" (820454419) 0x141-0x145 (4)
0x140|               00 00 00 14                     |     ....       |        corr: 20 0x145-0x149 (4)
     |                                               |                |      [20]{}: leap_second_record 0x149-0x151 (8)
0x140|                           33 b8 48 94         |         3.H.   |        occur: "1997-07-01T00:00:20Z" (867715220) 0x149-0x14d (4)
0x140|                                       00 00 00|             ...|        corr: 21 0x14d-0x151 (4)
0x150|15                                             |.               |
     |                                               |                |      [21]{}: leap_second_record 0x151-0x159 (8)
0x150|   36 8c 10 15                                 | 6...           |        occur: "1999-01-01T00:00:21Z" (915148821) 0x151-0x155 (4)
0x150|               00 00 00 16                     |     ....       |        corr: 22 0x155-0x159 (4)
     |                                               |                |      [22]{}: leap_second_record 0x159-0x161 (8)
0x150|                           43 b7 1b 96         |         C...   |        occur: "2006-01-01T00:00:22Z" (1136073622) 0x159-0x15d (4)
0x150|                                       00 00 00|             ...|        corr: 23 0x15d-0x161 (4)
0x160|17                                             |.               |
     |                                               |                |      [23]{}: leap_second_record 0x161-0x169 (8)
0x160|   49 5c 07 97                                 | I\..           |        occur: "2009-01-01T00:00:23Z" (1230768023) 0x161-0x165 (4)
0x160|               00 00 00 18                     |     ....       |        corr: 24 0x165-0x169 (4)
     |                                               |                |      [24]{}: leap_second_record 0x169-0x171 (8)
0x160|                           4f ef 93 18         |         O...   |        occur: "2012-07-01T00:00:24Z" (1341100824) 0x169-0x16d (4)
0x160|                                       00 00 00|             ...|        corr: 25 0x16d-0x171 (4)
0x170|19                                             |.               |
     |                                               |                |      [25]{}: leap_second_record 0x171-0x179 (8)
0x170|   55 93 2d 99                                 | U.-.           |        occur: "2015-07-01T00:00:25Z" (1435708825) 0x171-0x175 (4)
0x170|               00 00 00 1a                     |     ....       |        corr: 26 0x175-0x179 (4)
     |                                               |                |      [26]{}: leap_second_record 0x179-0x181 (8)
0x170|                           58 68 46 9a         |         XhF.   |        occur: "2017-01-01T00:00:26Z" (1483228826) 0x179-0x17d (4)
0x170|                                       00 00 00|             ...|        corr: 27 0x17d-0x181 (4)
0x180|1b                                             |.               |
     |                                               |                |    standard_wall_indicators[0:0]: 0x181-0x181 (0)
     |                                               |                |    ut_local_indicators[0:0]: 0x181-0x181 (0)
     |                                               |                |  v2plusheader{}: 0x181-0x1ad (44)
0x180|   54 5a 69 66                                 | TZif           |    magic: 0x545a6966 (valid) 0x181-0x185 (4)
0x180|               32                              |     2          |    ver: "2" (0x32) (valid) 0x185-0x186 (1)
0x180|                  00 00 00 00 00 00 00 00 00 00|      ..........|    reserved: raw bits 0x186-0x195 (15)
0x190|00 00 00 00 00                                 |.....           |
0x190|               00 00 00 00                     |     ....       |    isutcnt: 0 0x195-0x199 (4)
0x190|                           00 00 00 00         |         ....   |    isstdcnt: 0 0x199-0x19d (4)
0x190|                                       00 00 00|             ...|    leapcnt: 27 0x19d-0x1a1 (4)
0x1a0|1b                                             |.               |
0x1a0|   00 00 00 09                                 | ....           |    timecnt: 9 0x1a1-0x1a5 (4)
0x1a0|               00 00 00 08                     |     ....       |    typecnt: 8 0x1a5-0x1a9 (4)
0x1a0|                           00 00 00 20         |         ...    |    charcnt: 32 0x1a9-0x1ad (4)
     |                                               |                |  v2plusdatablock{}: 0x1ad-0x392 (485)
     |                                               |                |    transition_times[0:9]: 0x1ad-0x1f5 (72)
0x1a0|                                       ff ff ff|             ...|      [0]: "1900-12-31T17:04:35Z" (-2177477725) transition_time 0x1ad-0x1b5 (8)
0x1b0|ff 7e 36 53 a3                                 |.~6S.           |
0x1b0|               ff ff ff ff 86 83 85 a3         |     ........   |      [1]: "1905-05-31T17:04:35Z" (-2038200925) transition_time 0x1b5-0x1bd (8)
0x1b0|                                       ff ff ff|             ...|      [2]: "1932-12-31T17:00:00Z" (-1167634800) transition_time 0x1bd-0x1c5 (8)
0x1c0|ff ba 67 4e 90                                 |..gN.           |
0x1c0|               ff ff ff ff c0 0a e4 60         |     .......`   |      [3]: "1935-12-31T16:40:00Z" (-1073028000) transition_time 0x1c5-0x1cd (8)
0x1c0|                                       ff ff ff|             ...|      [4]: "1941-08-31T16:40:00Z" (-894180000) transition_time 0x1cd-0x1d5 (8)
0x1d0|ff ca b3 e5 60                                 |....`           |
0x1d0|               ff ff ff ff cb 91 5f 08         |     ......_.   |      [5]: "1942-02-15T16:30:00Z" (-879665400) transition_time 0x1d5-0x1dd (8)
0x1d0|                                       ff ff ff|             ...|      [6]: "1945-09-11T15:00:00Z" (-767005200) transition_time 0x1dd-0x1e5 (8)
0x1e0|ff d2 48 6d f0                                 |..Hm.           |
0x1e0|               00 00 00 00 16 91 f5 12         |     ........   |      [7]: "1981-12-31T16:30:10Z" (378664210) transition_time 0x1e5-0x1ed (8)
0x1e0|                                       00 00 00|             ...|      [8]: "2023-06-28T00:00:27Z" (1687910427) transition_time 0x1ed-0x1f5 (8)
0x1f0|00 64 9b 78 1b                                 |.d.x.           |
     |                                               |                |    transition_types[0:9]: 0x1f5-0x1fe (9)
0x1f0|               01                              |     .          |      [0]: 1 transition_type 0x1f5-0x1f6 (1)
0x1f0|                  02                           |      .         |      [1]: 2 transition_type 0x1f6-0x1f7 (1)
0x1f0|                     03                        |       .        |      [2]: 3 transition_type 0x1f7-0x1f8 (1)
0x1f0|                        04                     |        .       |      [3]: 4 transition_type 0x1f8-0x1f9 (1)
0x1f0|                           05                  |         .      |      [4]: 5 transition_type 0x1f9-0x1fa (1)
0x1f0|                              06               |          .     |      [5]: 6 transition_type 0x1fa-0x1fb (1)
0x1f0|                                 05            |           .    |      [6]: 5 transition_type 0x1fb-0x1fc (1)
0x1f0|                                    07         |            .   |      [7]: 7 transition_type 0x1fc-0x1fd (1)
0x1f0|                                       07      |             .  |      [8]: 7 transition_type 0x1fd-0x1fe (1)
     |                                               |                |    local_time_type_records[0:8]: 0x1fe-0x22e (48)
     |                                               |                |      [0]{}: local_time_type 0x1fe-0x204 (6)
0x1f0|                                          00 00|              ..|        utoff: 24925 (valid) 0x1fe-0x202 (4)
0x200|61 5d                                          |a]              |
0x200|      00                                       |  .             |        dst: 0 (valid) 0x202-0x203 (1)
0x200|         00                                    |   .            |        idx: 0 (valid) 0x203-0x204 (1)
     |                                               |                |      [1]{}: local_time_type 0x204-0x20a (6)
0x200|            00 00 61 5d                        |    ..a]        |        utoff: 24925 (valid) 0x204-0x208 (4)
0x200|                        00                     |        .       |        dst: 0 (valid) 0x208-0x209 (1)
0x200|                           04                  |         .      |        idx: 4 (valid) 0x209-0x20a (1)
     |                                               |                |      [2]{}: local_time_type 0x20a-0x210 (6)
0x200|                              00 00 62 70      |          ..bp  |        utoff: 25200 (valid) 0x20a-0x20e (4)
0x200|                                          00   |              . |        dst: 0 (valid) 0x20e-0x20f (1)
0x200|                                             08|               .|        idx: 8 (valid) 0x20f-0x210 (1)
     |                                               |                |      [3]{}: local_time_type 0x210-0x216 (6)
0x210|00 00 67 20                                    |..g             |        utoff: 26400 (valid) 0x210-0x214 (4)
0x210|            01                                 |    .           |        dst: 1 (valid) 0x214-0x215 (1)
0x210|               0c                              |     .          |        idx: 12 (valid) 0x215-0x216 (1)
     |                                               |                |      [4]{}: local_time_type 0x216-0x21c (6)
0x210|                  00 00 67 20                  |      ..g       |        utoff: 26400 (valid) 0x216-0x21a (4)
0x210|                              00               |          .     |        dst: 0 (valid) 0x21a-0x21b (1)
0x210|                                 0c            |           .    |        idx: 12 (valid) 0x21b-0x21c (1)
     |                                               |                |      [5]{}: local_time_type 0x21c-0x222 (6)
0x210|                                    00 00 69 78|            ..ix|        utoff: 27000 (valid) 0x21c-0x220 (4)
0x220|00                                             |.               |        dst: 0 (valid) 0x220-0x221 (1)
0x220|   12                                          | .              |        idx: 18 (valid) 0x221-0x222 (1)
     |                                               |                |      [6]{}: local_time_type 0x222-0x228 (6)
0x220|      00 00 7e 90                              |  ..~.          |        utoff: 32400 (valid) 0x222-0x226 (4)
0x220|                  00                           |      .         |        dst: 0 (valid) 0x226-0x227 (1)
0x220|                     18                        |       .        |        idx: 24 (valid) 0x227-0x228 (1)
     |                                               |                |      [7]{}: local_time_type 0x228-0x22e (6)
0x220|                        00 00 70 80            |        ..p.    |        utoff: 28800 (valid) 0x228-0x22c (4)
0x220|                                    00         |            .   |        dst: 0 (valid) 0x22c-0x22d (1)
0x220|                                       1c      |             .  |        idx: 28 (valid) 0x22d-0x22e (1)
     |                                               |                |    time_zone_designations[0:7]: 0x22e-0x24e (32)
0x220|                                          4c 4d|              LM|      [0]: "LMT" time_zone_designation 0x22e-0x232 (4)
0x230|54 00                                          |T.              |
0x230|      53 4d 54 00                              |  SMT.          |      [1]: "SMT" time_zone_designation 0x232-0x236 (4)
0x230|                  2b 30 37 00                  |      +07.      |      [2]: "+07" time_zone_designation 0x236-0x23a (4)
0x230|                              2b 30 37 32 30 00|          +0720.|      [3]: "+0720" time_zone_designation 0x23a-0x240 (6)
0x240|2b 30 37 33 30 00                              |+0730.          |      [4]: "+0730" time_zone_designation 0x240-0x246 (6)
0x240|                  2b 30 39 00                  |      +09.      |      [5]: "+09" time_zone_designation 0x246-0x24a (4)
0x240|                              2b 30 38 00      |          +08.  |      [6]: "+08" time_zone_designation 0x24a-0x24e (4)
     |                                               |                |    leap_second_records[0:27]: 0x24e-0x392 (324)
     |                                               |                |      [0]{}: leap_second_record 0x24e-0x25a (12)
0x240|                                          00 00|              ..|        occur: "1972-07-01T00:00:00Z" (78796800) 0x24e-0x256 (8)
0x250|00 00 04 b2 58 00                              |....X.          |
0x250|                  00 00 00 01                  |      ....      |        corr: 1 0x256-0x25a (4)
     |                                               |                |      [1]{}: leap_second_record 0x25a-0x266 (12)
0x250|                              00 00 00 00 05 a4|          ......|        occur: "1973-01-01T00:00:01Z" (94694401) 0x25a-0x262 (8)
0x260|ec 01                                          |..              |
0x260|      00 00 00 02                              |  ....          |        corr: 2 0x262-0x266 (4)
     |                                               |                |      [2]{}: leap_second_record 0x266-0x272 (12)
0x260|                  00 00 00 00 07 86 1f 82      |      ........  |        occur: "1974-01-01T00:00:02Z" (126230402) 0x266-0x26e (8)
0x260|                                          00 00|              ..|        corr: 3 0x26e-0x272 (4)
0x270|00 03                                          |..              |
     |                                               |                |      [3]{}: leap_second_record 0x272-0x27e (12)
0x270|      00 00 00 00 09 67 53 03                  |  .....gS.      |        occur: "1975-01-01T00:00:03Z" (157766403) 0x272-0x27a (8)
0x270|                              00 00 00 04      |          ....  |        corr: 4 0x27a-0x27e (4)
     |                                               |                |      [4]{}: leap_second_record 0x27e-0x28a (12)
0x270|                                          00 00|              ..|        occur: "1976-01-01T00:00:04Z" (189302404) 0x27e-0x286 (8)
0x280|00 00 0b 48 86 84                              |...H..          |
0x280|                  00 00 00 05                  |      ....      |        corr: 5 0x286-0x28a (4)
     |                                               |                |      [5]{}: leap_second_record 0x28a-0x296 (12)
0x280|                              00 00 00 00 0d 2b|          .....+|        occur: "1977-01-01T00:00:05Z" (220924805) 0x28a-0x292 (8)
0x290|0b 85                                          |..              |
0x290|      00 00 00 06                              |  ....          |        corr: 6 0x292-0x296 (4)
     |                                               |                |      [6]{}: leap_second_record 0x296-0x2a2 (12)
0x290|                  00 00 00 00 0f 0c 3f 06      |      ......?.  |        occur: "1978-01-01T00:00:06Z" (252460806) 0x296-0x29e (8)
0x290|                                          00 00|              ..|        corr: 7 0x29e-0x2a2 (4)
0x2a0|00 07                                          |..              |
     |                                               |                |      [7]{}: leap_second_record 0x2a2-0x2ae (12)
0x2a0|      00 00 00 00 10 ed 72 87                  |  ......r.      |        occur: "1979-01-01T00:00:07Z" (283996807) 0x2a2-0x2aa (8)
0x2a0|                              00 00 00 08      |          ....  |        corr: 8 0x2aa-0x2ae (4)
     |                                               |                |      [8]{}: leap_second_record 0x2ae-0x2ba (12)
0x2a0|                                          00 00|              ..|        occur: "1980-01-01T00:00:08Z" (315532808) 0x2ae-0x2b6 (8)
0x2b0|00 00 12 ce a6 08                              |......          |
0x2b0|                  00 00 00 09                  |      ....      |        corr: 9 0x2b6-0x2ba (4)
     |                                               |                |      [9]{}: leap_second_record 0x2ba-0x2c6 (12)
0x2b0|                              00 00 00 00 15 9f|          ......|        occur: "1981-07-01T00:00:09Z" (362793609) 0x2ba-0x2c2 (8)
0x2c0|ca 89                                          |..              |
0x2c0|      00 00 00 0a                              |  ....          |        corr: 10 0x2c2-0x2c6 (4)
     |                                               |                |      [10]{}: leap_second_record 0x2c6-0x2d2 (12)
0x2c0|                  00 00 00 00 17 80 fe 0a      |      ........  |        occur: "1982-07-01T00:00:10Z" (394329610) 0x2c6-0x2ce (8)
0x2c0|                                          00 00|              ..|        corr: 11 0x2ce-0x2d2 (4)
0x2d0|00 0b                                          |..              |
     |                                               |                |      [11]{}: leap_second_record 0x2d2-0x2de (12)
0x2d0|      00 00 00 00 19 62 31 8b                  |  .....b1.      |        occur: "1983-07-01T00:00:11Z" (425865611) 0x2d2-0x2da (8)
0x2d0|                              00 00 00 0c      |          ....  |        corr: 12 0x2da-0x2de (4)
     |                                               |                |      [12]{}: leap_second_record 0x2de-0x2ea (12)
0x2d0|                                          00 00|              ..|        occur: "1985-07-01T00:00:12Z" (489024012) 0x2de-0x2e6 (8)
0x2e0|00 00 1d 25 ea 0c                              |...%..          |
0x2e0|                  00 00 00 0d                  |      ....      |        corr: 13 0x2e6-0x2ea (4)
     |                                               |                |      [13]{}: leap_second_record 0x2ea-0x2f6 (12)
0x2e0|                              00 00 00 00 21 da|          ....!.|        occur: "1988-01-01T00:00:13Z" (567993613) 0x2ea-0x2f2 (8)
0x2f0|e5 0d                                          |..              |
0x2f0|      00 00 00 0e                              |  ....          |        corr: 14 0x2f2-0x2f6 (4)
     |                                               |                |      [14]{}: leap_second_record 0x2f6-0x302 (12)
0x2f0|                  00 00 00 00 25 9e 9d 8e      |      ....%...  |        occur: "1990-01-01T00:00:14Z" (631152014) 0x2f6-0x2fe (8)
0x2f0|                                          00 00|              ..|        corr: 15 0x2fe-0x302 (4)
0x300|00 0f                                          |..              |
     |                                               |                |      [15]{}: leap_second_record 0x302-0x30e (12)
0x300|      00 00 00 00 27 7f d1 0f                  |  ....'...      |        occur: "1991-01-01T00:00:15Z" (662688015) 0x302-0x30a (8)
0x300|                              00 00 00 10      |          ....  |        corr: 16 0x30a-0x30e (4)
     |                                               |                |      [16]{}: leap_second_record 0x30e-0x31a (12)
0x300|                                          00 00|              ..|        occur: "1992-07-01T00:00:16Z" (709948816) 0x30e-0x316 (8)
0x310|00 00 2a 50 f5 90                              |..*P..          |
0x310|                  00 00 00 11                  |      ....      |        corr: 17 0x316-0x31a (4)
     |                                               |                |      [17]{}: leap_second_record 0x31a-0x326 (12)
0x310|                              00 00 00 00 2c 32|          ....,2|        occur: "1993-07-01T00:00:17Z" (741484817) 0x31a-0x322 (8)
0x320|29 11                                          |).              |
0x320|      00 00 00 12                              |  ....          |        corr: 18 0x322-0x326 (4)
     |                                               |                |      [18]{}: leap_second_record 0x326-0x332 (12)
0x320|                  00 00 00 00 2e 13 5c 92      |      ......\.  |        occur: "1994-07-01T00:00:18Z" (773020818) 0x326-0x32e (8)
0x320|                                          00 00|              ..|        corr: 19 0x32e-0x332 (4)
0x330|00 13                                          |..              |
     |                                               |                |      [19]{}: leap_second_record 0x332-0x33e (12)
0x330|      00 00 00 00 30 e7 24 13                  |  ....0.$.      |        occur: "1996-01-01T00:00:19Z" (820454419) 0x332-0x33a (8)
0x330|                              00 00 00 14      |          ....  |        corr: 20 0x33a-0x33e (4)
     |                                               |                |      [20]{}: leap_second_record 0x33e-0x34a (12)
0x330|                                          00 00|              ..|        occur: "1997-07-01T00:00:20Z" (867715220) 0x33e-0x346 (8)
0x340|00 00 33 b8 48 94                              |..3.H.          |
0x340|                  00 00 00 15                  |      ....      |        corr: 21 0x346-0x34a (4)
     |                                               |                |      [21]{}: leap_second_record 0x34a-0x356 (12)
0x340|                              00 00 00 00 36 8c|          ....6.|        occur: "1999-01-01T00:00:21Z" (915148821) 0x34a-0x352 (8)
0x350|10 15                                          |..              |
0x350|      00 00 00 16                              |  ....          |        corr: 22 0x352-0x356 (4)
     |                                               |                |      [22]{}: leap_second_record 0x356-0x362 (12)
0x350|                  00 00 00 00 43 b7 1b 96      |      ....C...  |        occur: "2006-01-01T00:00:22Z" (1136073622) 0x356-0x35e (8)
0x350|                                          00 00|              ..|        corr: 23 0x35e-0x362 (4)
0x360|00 17                                          |..              |
     |                                               |                |      [23]{}: leap_second_record 0x362-0x36e (12)
0x360|      00 00 00 00 49 5c 07 97                  |  ....I\..      |        occur: "2009-01-01T00:00:23Z" (1230768023) 0x362-0x36a (8)
0x360|                              00 00 00 18      |          ....  |        corr: 24 0x36a-0x36e (4)
     |                                               |                |      [24]{}: leap_second_record 0x36e-0x37a (12)
0x360|                                          00 00|              ..|        occur: "2012-07-01T00:00:24Z" (1341100824) 0x36e-0x376 (8)
0x370|00 00 4f ef 93 18                              |..O...          |
0x370|                  00 00 00 19                  |      ....      |        corr: 25 0x376-0x37a (4)
     |                                               |                |      [25]{}: leap_second_record 0x37a-0x386 (12)
0x370|                              00 00 00 00 55 93|          ....U.|        occur: "2015-07-01T00:00:25Z" (1435708825) 0x37a-0x382 (8)
0x380|2d 99                                          |-.              |
0x380|      00 00 00 1a                              |  ....          |        corr: 26 0x382-0x386 (4)
     |                                               |                |      [26]{}: leap_second_record 0x386-0x392 (12)
0x380|                  00 00 00 00 58 68 46 9a      |      ....XhF.  |        occur: "2017-01-01T00:00:26Z" (1483228826) 0x386-0x38e (8)
0x380|                                          00 00|              ..|        corr: 27 0x38e-0x392 (4)
0x390|00 1b                                          |..              |
     |                                               |                |    standard_wall_indicators[0:0]: 0x392-0x392 (0)
     |                                               |                |    ut_local_indicators[0:0]: 0x392-0x392 (0)
     |                                               |                |  footer{}: 0x392-0x394 (2)
0x390|      0a                                       |  .             |    nl1: 10 (valid) 0x392-0x393 (1)
     |                                               |                |    tz_string: "" 0x393-0x393 (0)
0x390|         0a|                                   |   .|           |    nl2: 10 (valid) 0x393-0x394 (1)
