$ fq -d tzif dv Sitka
     |00 01 02 03 04 05 06 07 08 09 0a 0b 0c 0d 0e 0f|0123456789abcdef|.{}: Sitka (tzif) 0x0-0x994.7 (2453)
     |                                               |                |  v1header{}: 0x0-0x2b.7 (44)
0x000|54 5a 69 66                                    |TZif            |    magic: 0x545a6966 (valid) 0x0-0x3.7 (4)
0x000|            32                                 |    2           |    ver: "2" (0x32) (valid) 0x4-0x4.7 (1)
0x000|               00 00 00 00 00 00 00 00 00 00 00|     ...........|    reserved: raw bits 0x5-0x13.7 (15)
0x010|00 00 00 00                                    |....            |
0x010|            00 00 00 08                        |    ....        |    isutcnt: 8 0x14-0x17.7 (4)
0x010|                        00 00 00 08            |        ....    |    isstdcnt: 8 0x18-0x1b.7 (4)
0x010|                                    00 00 00 1b|            ....|    leapcnt: 27 0x1c-0x1f.7 (4)
0x020|00 00 00 73                                    |...s            |    timecnt: 115 0x20-0x23.7 (4)
0x020|            00 00 00 08                        |    ....        |    typecnt: 8 0x24-0x27.7 (4)
0x020|                        00 00 00 22            |        ..."    |    charcnt: 34 0x28-0x2b.7 (4)
     |                                               |                |  v1datablock{}: 0x2c-0x3a4.7 (889)
     |                                               |                |    transition_times[0:115]: 0x2c-0x1f7.7 (460)
0x020|                                    80 00 00 00|            ....|      [0]: "1901-12-13T20:45:52Z" (-2147483648) transition_time 0x2c-0x2f.7 (4)
0x030|cb 89 1a a0                                    |....            |      [1]: "1942-02-09T10:00:00Z" (-880207200) transition_time 0x30-0x33.7 (4)
0x030|            d2 23 f4 70                        |    .#.p        |      [2]: "1945-08-14T23:00:00Z" (-769395600) transition_time 0x34-0x37.7 (4)
0x030|                        d2 61 26 10            |        .a&.    |      [3]: "1945-09-30T09:00:00Z" (-765385200) transition_time 0x38-0x3b.7 (4)
0x030|                                    fe b8 47 20|            ..G |      [4]: "1969-04-27T10:00:00Z" (-21477600) transition_time 0x3c-0x3f.7 (4)
0x040|ff a8 2a 10                                    |..*.            |      [5]: "1969-10-26T09:00:00Z" (-5756400) transition_time 0x40-0x43.7 (4)
0x040|            00 98 29 20                        |    ..)         |      [6]: "1970-04-26T10:00:00Z" (9972000) transition_time 0x44-0x47.7 (4)
0x040|                        01 88 0c 10            |        ....    |      [7]: "1970-10-25T09:00:00Z" (25693200) transition_time 0x48-0x4b.7 (4)
0x040|                                    02 78 0b 20|            .x. |      [8]: "1971-04-25T10:00:00Z" (41421600) transition_time 0x4c-0x4f.7 (4)
0x050|03 71 28 90                                    |.q(.            |      [9]: "1971-10-31T09:00:00Z" (57747600) transition_time 0x50-0x53.7 (4)
0x050|            04 61 27 a0                        |    .a'.        |      [10]: "1972-04-30T10:00:00Z" (73476000) transition_time 0x54-0x57.7 (4)
0x050|                        05 51 0a 91            |        .Q..    |      [11]: "1972-10-29T09:00:01Z" (89197201) transition_time 0x58-0x5b.7 (4)
0x050|                                    06 41 09 a2|            .A..|      [12]: "1973-04-29T10:00:02Z" (104925602) transition_time 0x5c-0x5f.7 (4)
0x060|07 30 ec 92                                    |.0..            |      [13]: "1973-10-28T09:00:02Z" (120646802) transition_time 0x60-0x63.7 (4)
0x060|            07 8d 43 a3                        |    ..C.        |      [14]: "1974-01-06T10:00:03Z" (126698403) transition_time 0x64-0x67.7 (4)
0x060|                        09 10 ce 93            |        ....    |      [15]: "1974-10-27T09:00:03Z" (152096403) transition_time 0x68-0x6b.7 (4)
0x060|                                    09 ad bf 24|            ...$|      [16]: "1975-02-23T10:00:04Z" (162381604) transition_time 0x6c-0x6f.7 (4)
0x070|0a f0 b0 94                                    |....            |      [17]: "1975-10-26T09:00:04Z" (183546004) transition_time 0x70-0x73.7 (4)
0x070|            0b e0 af a5                        |    ....        |      [18]: "1976-04-25T10:00:05Z" (199274405) transition_time 0x74-0x77.7 (4)
0x070|                        0c d9 cd 15            |        ....    |      [19]: "1976-10-31T09:00:05Z" (215600405) transition_time 0x78-0x7b.7 (4)
0x070|                                    0d c0 91 a6|            ....|      [20]: "1977-04-24T10:00:06Z" (230724006) transition_time 0x7c-0x7f.7 (4)
0x080|0e b9 af 16                                    |....            |      [21]: "1977-10-30T09:00:06Z" (247050006) transition_time 0x80-0x83.7 (4)
0x080|            0f a9 ae 27                        |    ...'        |      [22]: "1978-04-30T10:00:07Z" (262778407) transition_time 0x84-0x87.7 (4)
0x080|                        10 99 91 17            |        ....    |      [23]: "1978-10-29T09:00:07Z" (278499607) transition_time 0x88-0x8b.7 (4)
0x080|                                    11 89 90 28|            ...(|      [24]: "1979-04-29T10:00:08Z" (294228008) transition_time 0x8c-0x8f.7 (4)
0x090|12 79 73 18                                    |.ys.            |      [25]: "1979-10-28T09:00:08Z" (309949208) transition_time 0x90-0x93.7 (4)
0x090|            13 69 72 29                        |    .ir)        |      [26]: "1980-04-27T10:00:09Z" (325677609) transition_time 0x94-0x97.7 (4)
0x090|                        14 59 55 19            |        .YU.    |      [27]: "1980-10-26T09:00:09Z" (341398809) transition_time 0x98-0x9b.7 (4)
0x090|                                    15 49 54 29|            .IT)|      [28]: "1981-04-26T10:00:09Z" (357127209) transition_time 0x9c-0x9f.7 (4)
0x0a0|16 39 37 1a                                    |.97.            |      [29]: "1981-10-25T09:00:10Z" (372848410) transition_time 0xa0-0xa3.7 (4)
0x0a0|            17 29 36 2a                        |    .)6*        |      [30]: "1982-04-25T10:00:10Z" (388576810) transition_time 0xa4-0xa7.7 (4)
0x0a0|                        18 22 53 9b            |        ."S.    |      [31]: "1982-10-31T09:00:11Z" (404902811) transition_time 0xa8-0xab.7 (4)
0x0a0|                                    19 09 18 2b|            ...+|      [32]: "1983-04-24T10:00:11Z" (420026411) transition_time 0xac-0xaf.7 (4)
0x0b0|1a 02 35 9c                                    |..5.            |      [33]: "1983-10-30T09:00:12Z" (436352412) transition_time 0xb0-0xb3.7 (4)
0x0b0|            1a 2b 14 1c                        |    .+..        |      [34]: "1983-11-30T09:00:12Z" (439030812) transition_time 0xb4-0xb7.7 (4)
0x0b0|                        1a f2 42 bc            |        ..B.    |      [35]: "1984-04-29T11:00:12Z" (452084412) transition_time 0xb8-0xbb.7 (4)
0x0b0|                                    1b e2 25 ac|            ..%.|      [36]: "1984-10-28T10:00:12Z" (467805612) transition_time 0xbc-0xbf.7 (4)
0x0c0|1c d2 24 bc                                    |..$.            |      [37]: "1985-04-28T11:00:12Z" (483534012) transition_time 0xc0-0xc3.7 (4)
0x0c0|            1d c2 07 ad                        |    ....        |      [38]: "1985-10-27T10:00:13Z" (499255213) transition_time 0xc4-0xc7.7 (4)
0x0c0|                        1e b2 06 bd            |        ....    |      [39]: "1986-04-27T11:00:13Z" (514983613) transition_time 0xc8-0xcb.7 (4)
0x0c0|                                    1f a1 e9 ad|            ....|      [40]: "1986-10-26T10:00:13Z" (530704813) transition_time 0xcc-0xcf.7 (4)
0x0d0|20 76 39 3d                                    | v9=            |      [41]: "1987-04-05T11:00:13Z" (544618813) transition_time 0xd0-0xd3.7 (4)
0x0d0|            21 81 cb ad                        |    !...        |      [42]: "1987-10-25T10:00:13Z" (562154413) transition_time 0xd4-0xd7.7 (4)
0x0d0|                        22 56 1b 3e            |        "V.>    |      [43]: "1988-04-03T11:00:14Z" (576068414) transition_time 0xd8-0xdb.7 (4)
0x0d0|                                    23 6a e8 2e|            #j..|      [44]: "1988-10-30T10:00:14Z" (594208814) transition_time 0xdc-0xdf.7 (4)
0x0e0|24 35 fd 3e                                    |$5.>            |      [45]: "1989-04-02T11:00:14Z" (607518014) transition_time 0xe0-0xe3.7 (4)
0x0e0|            25 4a ca 2e                        |    %J..        |      [46]: "1989-10-29T10:00:14Z" (625658414) transition_time 0xe4-0xe7.7 (4)
0x0e0|                        26 15 df 3f            |        &..?    |      [47]: "1990-04-01T11:00:15Z" (638967615) transition_time 0xe8-0xeb.7 (4)
0x0e0|                                    27 2a ac 2f|            '*./|      [48]: "1990-10-28T10:00:15Z" (657108015) transition_time 0xec-0xef.7 (4)
0x0f0|27 fe fb c0                                    |'...            |      [49]: "1991-04-07T11:00:16Z" (671022016) transition_time 0xf0-0xf3.7 (4)
0x0f0|            29 0a 8e 30                        |    )..0        |      [50]: "1991-10-27T10:00:16Z" (688557616) transition_time 0xf4-0xf7.7 (4)
0x0f0|                        29 de dd c0            |        )...    |      [51]: "1992-04-05T11:00:16Z" (702471616) transition_time 0xf8-0xfb.7 (4)
0x0f0|                                    2a ea 70 31|            *.p1|      [52]: "1992-10-25T10:00:17Z" (720007217) transition_time 0xfc-0xff.7 (4)
0x100|2b be bf c1                                    |+...            |      [53]: "1993-04-04T11:00:17Z" (733921217) transition_time 0x100-0x103.7 (4)
0x100|            2c d3 8c b2                        |    ,...        |      [54]: "1993-10-31T10:00:18Z" (752061618) transition_time 0x104-0x107.7 (4)
0x100|                        2d 9e a1 c2            |        -...    |      [55]: "1994-04-03T11:00:18Z" (765370818) transition_time 0x108-0x10b.7 (4)
0x100|                                    2e b3 6e b3|            ..n.|      [56]: "1994-10-30T10:00:19Z" (783511219) transition_time 0x10c-0x10f.7 (4)
0x110|2f 7e 83 c3                                    |/~..            |      [57]: "1995-04-02T11:00:19Z" (796820419) transition_time 0x110-0x113.7 (4)
0x110|            30 93 50 b3                        |    0.P.        |      [58]: "1995-10-29T10:00:19Z" (814960819) transition_time 0x114-0x117.7 (4)
0x110|                        31 67 a0 44            |        1g.D    |      [59]: "1996-04-07T11:00:20Z" (828874820) transition_time 0x118-0x11b.7 (4)
0x110|                                    32 73 32 b4|            2s2.|      [60]: "1996-10-27T10:00:20Z" (846410420) transition_time 0x11c-0x11f.7 (4)
0x120|33 47 82 44                                    |3G.D            |      [61]: "1997-04-06T11:00:20Z" (860324420) transition_time 0x120-0x123.7 (4)
0x120|            34 53 14 b5                        |    4S..        |      [62]: "1997-10-26T10:00:21Z" (877860021) transition_time 0x124-0x127.7 (4)
0x120|                        35 27 64 45            |        5'dE    |      [63]: "1998-04-05T11:00:21Z" (891774021) transition_time 0x128-0x12b.7 (4)
0x120|                                    36 32 f6 b5|            62..|      [64]: "1998-10-25T10:00:21Z" (909309621) transition_time 0x12c-0x12f.7 (4)
0x130|37 07 46 46                                    |7.FF            |      [65]: "1999-04-04T11:00:22Z" (923223622) transition_time 0x130-0x133.7 (4)
0x130|            38 1c 13 36                        |    8..6        |      [66]: "1999-10-31T10:00:22Z" (941364022) transition_time 0x134-0x137.7 (4)
0x130|                        38 e7 28 46            |        8.(F    |      [67]: "2000-04-02T11:00:22Z" (954673222) transition_time 0x138-0x13b.7 (4)
0x130|                                    39 fb f5 36|            9..6|      [68]: "2000-10-29T10:00:22Z" (972813622) transition_time 0x13c-0x13f.7 (4)
0x140|3a c7 0a 46                                    |:..F            |      [69]: "2001-04-01T11:00:22Z" (986122822) transition_time 0x140-0x143.7 (4)
0x140|            3b db d7 36                        |    ;..6        |      [70]: "2001-10-28T10:00:22Z" (1004263222) transition_time 0x144-0x147.7 (4)
0x140|                        3c b0 26 c6            |        <.&.    |      [71]: "2002-04-07T11:00:22Z" (1018177222) transition_time 0x148-0x14b.7 (4)
0x140|                                    3d bb b9 36|            =..6|      [72]: "2002-10-27T10:00:22Z" (1035712822) transition_time 0x14c-0x14f.7 (4)
0x150|3e 90 08 c6                                    |>...            |      [73]: "2003-04-06T11:00:22Z" (1049626822) transition_time 0x150-0x153.7 (4)
0x150|            3f 9b 9b 36                        |    ?..6        |      [74]: "2003-10-26T10:00:22Z" (1067162422) transition_time 0x154-0x157.7 (4)
0x150|                        40 6f ea c6            |        @o..    |      [75]: "2004-04-04T11:00:22Z" (1081076422) transition_time 0x158-0x15b.7 (4)
0x150|                                    41 84 b7 b6|            A...|      [76]: "2004-10-31T10:00:22Z" (1099216822) transition_time 0x15c-0x15f.7 (4)
0x160|42 4f cc c6                                    |BO..            |      [77]: "2005-04-03T11:00:22Z" (1112526022) transition_time 0x160-0x163.7 (4)
0x160|            43 64 99 b6                        |    Cd..        |      [78]: "2005-10-30T10:00:22Z" (1130666422) transition_time 0x164-0x167.7 (4)
0x160|                        44 2f ae c7            |        D/..    |      [79]: "2006-04-02T11:00:23Z" (1143975623) transition_time 0x168-0x16b.7 (4)
0x160|                                    45 44 7b b7|            ED{.|      [80]: "2006-10-29T10:00:23Z" (1162116023) transition_time 0x16c-0x16f.7 (4)
0x170|45 f3 e1 47                                    |E..G            |      [81]: "2007-03-11T11:00:23Z" (1173610823) transition_time 0x170-0x173.7 (4)
0x170|            47 2d 98 37                        |    G-.7        |      [82]: "2007-11-04T10:00:23Z" (1194170423) transition_time 0x174-0x177.7 (4)
0x170|                        47 d3 c3 47            |        G..G    |      [83]: "2008-03-09T11:00:23Z" (1205060423) transition_time 0x178-0x17b.7 (4)
0x170|                                    49 0d 7a 37|            I.z7|      [84]: "2008-11-02T10:00:23Z" (1225620023) transition_time 0x17c-0x17f.7 (4)
0x180|49 b3 a5 48                                    |I..H            |      [85]: "2009-03-08T11:00:24Z" (1236510024) transition_time 0x180-0x183.7 (4)
0x180|            4a ed 5c 38                        |    J.\8        |      [86]: "2009-11-01T10:00:24Z" (1257069624) transition_time 0x184-0x187.7 (4)
0x180|                        4b 9c c1 c8            |        K...    |      [87]: "2010-03-14T11:00:24Z" (1268564424) transition_time 0x188-0x18b.7 (4)
0x180|                                    4c d6 78 b8|            L.x.|      [88]: "2010-11-07T10:00:24Z" (1289124024) transition_time 0x18c-0x18f.7 (4)
0x190|4d 7c a3 c8                                    |M|..            |      [89]: "2011-03-13T11:00:24Z" (1300014024) transition_time 0x190-0x193.7 (4)
0x190|            4e b6 5a b8                        |    N.Z.        |      [90]: "2011-11-06T10:00:24Z" (1320573624) transition_time 0x194-0x197.7 (4)
0x190|                        4f 5c 85 c8            |        O\..    |      [91]: "2012-03-11T11:00:24Z" (1331463624) transition_time 0x198-0x19b.7 (4)
0x190|                                    50 96 3c b9|            P.<.|      [92]: "2012-11-04T10:00:25Z" (1352023225) transition_time 0x19c-0x19f.7 (4)
0x1a0|51 3c 67 c9                                    |Q<g.            |      [93]: "2013-03-10T11:00:25Z" (1362913225) transition_time 0x1a0-0x1a3.7 (4)
0x1a0|            52 76 1e b9                        |    Rv..        |      [94]: "2013-11-03T10:00:25Z" (1383472825) transition_time 0x1a4-0x1a7.7 (4)
0x1a0|                        53 1c 49 c9            |        S.I.    |      [95]: "2014-03-09T11:00:25Z" (1394362825) transition_time 0x1a8-0x1ab.7 (4)
0x1a0|                                    54 56 00 b9|            TV..|      [96]: "2014-11-02T10:00:25Z" (1414922425) transition_time 0x1ac-0x1af.7 (4)
0x1b0|54 fc 2b c9                                    |T.+.            |      [97]: "2015-03-08T11:00:25Z" (1425812425) transition_time 0x1b0-0x1b3.7 (4)
0x1b0|            56 35 e2 ba                        |    V5..        |      [98]: "2015-11-01T10:00:26Z" (1446372026) transition_time 0x1b4-0x1b7.7 (4)
0x1b0|                        56 e5 48 4a            |        V.HJ    |      [99]: "2016-03-13T11:00:26Z" (1457866826) transition_time 0x1b8-0x1bb.7 (4)
0x1b0|                                    58 1e ff 3a|            X..:|      [100]: "2016-11-06T10:00:26Z" (1478426426) transition_time 0x1bc-0x1bf.7 (4)
0x1c0|58 c5 2a 4b                                    |X.*K            |      [101]: "2017-03-12T11:00:27Z" (1489316427) transition_time 0x1c0-0x1c3.7 (4)
0x1c0|            59 fe e1 3b                        |    Y..;        |      [102]: "2017-11-05T10:00:27Z" (1509876027) transition_time 0x1c4-0x1c7.7 (4)
0x1c0|                        5a a5 0c 4b            |        Z..K    |      [103]: "2018-03-11T11:00:27Z" (1520766027) transition_time 0x1c8-0x1cb.7 (4)
0x1c0|                                    5b de c3 3b|            [..;|      [104]: "2018-11-04T10:00:27Z" (1541325627) transition_time 0x1cc-0x1cf.7 (4)
0x1d0|5c 84 ee 4b                                    |\..K            |      [105]: "2019-03-10T11:00:27Z" (1552215627) transition_time 0x1d0-0x1d3.7 (4)
0x1d0|            5d be a5 3b                        |    ]..;        |      [106]: "2019-11-03T10:00:27Z" (1572775227) transition_time 0x1d4-0x1d7.7 (4)
0x1d0|                        5e 64 d0 4b            |        ^d.K    |      [107]: "2020-03-08T11:00:27Z" (1583665227) transition_time 0x1d8-0x1db.7 (4)
0x1d0|                                    5f 9e 87 3b|            _..;|      [108]: "2020-11-01T10:00:27Z" (1604224827) transition_time 0x1dc-0x1df.7 (4)
0x1e0|60 4d ec cb                                    |`M..            |      [109]: "2021-03-14T11:00:27Z" (1615719627) transition_time 0x1e0-0x1e3.7 (4)
0x1e0|            61 87 a3 bb                        |    a...        |      [110]: "2021-11-07T10:00:27Z" (1636279227) transition_time 0x1e4-0x1e7.7 (4)
0x1e0|                        62 2d ce cb            |        b-..    |      [111]: "2022-03-13T11:00:27Z" (1647169227) transition_time 0x1e8-0x1eb.7 (4)
0x1e0|                                    63 67 85 bb|            cg..|      [112]: "2022-11-06T10:00:27Z" (1667728827) transition_time 0x1ec-0x1ef.7 (4)
0x1f0|64 0d b0 cb                                    |d...            |      [113]: "2023-03-12T11:00:27Z" (1678618827) transition_time 0x1f0-0x1f3.7 (4)
0x1f0|            64 9b 78 1b                        |    d.x.        |      [114]: "2023-06-28T00:00:27Z" (1687910427) transition_time 0x1f4-0x1f7.7 (4)
     |                                               |                |    transition_types[0:115]: 0x1f8-0x26a.7 (115)
0x1f0|                        01                     |        .       |      [0]: 1 transition_type 0x1f8-0x1f8.7 (1)
0x1f0|                           02                  |         .      |      [1]: 2 transition_type 0x1f9-0x1f9.7 (1)
0x1f0|                              03               |          .     |      [2]: 3 transition_type 0x1fa-0x1fa.7 (1)
0x1f0|                                 01            |           .    |      [3]: 1 transition_type 0x1fb-0x1fb.7 (1)
0x1f0|                                    04         |            .   |      [4]: 4 transition_type 0x1fc-0x1fc.7 (1)
0x1f0|                                       01      |             .  |      [5]: 1 transition_type 0x1fd-0x1fd.7 (1)
0x1f0|                                          04   |              . |      [6]: 4 transition_type 0x1fe-0x1fe.7 (1)
0x1f0|                                             01|               .|      [7]: 1 transition_type 0x1ff-0x1ff.7 (1)
0x200|04                                             |.               |      [8]: 4 transition_type 0x200-0x200.7 (1)
0x200|   01                                          | .              |      [9]: 1 transition_type 0x201-0x201.7 (1)
0x200|      04                                       |  .             |      [10]: 4 transition_type 0x202-0x202.7 (1)
0x200|         01                                    |   .            |      [11]: 1 transition_type 0x203-0x203.7 (1)
0x200|            04                                 |    .           |      [12]: 4 transition_type 0x204-0x204.7 (1)
0x200|               01                              |     .          |      [13]: 1 transition_type 0x205-0x205.7 (1)
0x200|                  04                           |      .         |      [14]: 4 transition_type 0x206-0x206.7 (1)
0x200|                     01                        |       .        |      [15]: 1 transition_type 0x207-0x207.7 (1)
0x200|                        04                     |        .       |      [16]: 4 transition_type 0x208-0x208.7 (1)
0x200|                           01                  |         .      |      [17]: 1 transition_type 0x209-0x209.7 (1)
0x200|                              04               |          .     |      [18]: 4 transition_type 0x20a-0x20a.7 (1)
0x200|                                 01            |           .    |      [19]: 1 transition_type 0x20b-0x20b.7 (1)
0x200|                                    04         |            .   |      [20]: 4 transition_type 0x20c-0x20c.7 (1)
0x200|                                       01      |             .  |      [21]: 1 transition_type 0x20d-0x20d.7 (1)
0x200|                                          04   |              . |      [22]: 4 transition_type 0x20e-0x20e.7 (1)
0x200|                                             01|               .|      [23]: 1 transition_type 0x20f-0x20f.7 (1)
0x210|04                                             |.               |      [24]: 4 transition_type 0x210-0x210.7 (1)
0x210|   01                                          | .              |      [25]: 1 transition_type 0x211-0x211.7 (1)
0x210|      04                                       |  .             |      [26]: 4 transition_type 0x212-0x212.7 (1)
0x210|         01                                    |   .            |      [27]: 1 transition_type 0x213-0x213.7 (1)
0x210|            04                                 |    .           |      [28]: 4 transition_type 0x214-0x214.7 (1)
0x210|               01                              |     .          |      [29]: 1 transition_type 0x215-0x215.7 (1)
0x210|                  04                           |      .         |      [30]: 4 transition_type 0x216-0x216.7 (1)
0x210|                     01                        |       .        |      [31]: 1 transition_type 0x217-0x217.7 (1)
0x210|                        04                     |        .       |      [32]: 4 transition_type 0x218-0x218.7 (1)
0x210|                           05                  |         .      |      [33]: 5 transition_type 0x219-0x219.7 (1)
0x210|                              07               |          .     |      [34]: 7 transition_type 0x21a-0x21a.7 (1)
0x210|                                 06            |           .    |      [35]: 6 transition_type 0x21b-0x21b.7 (1)
0x210|                                    07         |            .   |      [36]: 7 transition_type 0x21c-0x21c.7 (1)
0x210|                                       06      |             .  |      [37]: 6 transition_type 0x21d-0x21d.7 (1)
0x210|                                          07   |              . |      [38]: 7 transition_type 0x21e-0x21e.7 (1)
0x210|                                             06|               .|      [39]: 6 transition_type 0x21f-0x21f.7 (1)
0x220|07                                             |.               |      [40]: 7 transition_type 0x220-0x220.7 (1)
0x220|   06                                          | .              |      [41]: 6 transition_type 0x221-0x221.7 (1)
0x220|      07                                       |  .             |      [42]: 7 transition_type 0x222-0x222.7 (1)
0x220|         06                                    |   .            |      [43]: 6 transition_type 0x223-0x223.7 (1)
0x220|            07                                 |    .           |      [44]: 7 transition_type 0x224-0x224.7 (1)
0x220|               06                              |     .          |      [45]: 6 transition_type 0x225-0x225.7 (1)
0x220|                  07                           |      .         |      [46]: 7 transition_type 0x226-0x226.7 (1)
0x220|                     06                        |       .        |      [47]: 6 transition_type 0x227-0x227.7 (1)
0x220|                        07                     |        .       |      [48]: 7 transition_type 0x228-0x228.7 (1)
0x220|                           06                  |         .      |      [49]: 6 transition_type 0x229-0x229.7 (1)
0x220|                              07               |          .     |      [50]: 7 transition_type 0x22a-0x22a.7 (1)
0x220|                                 06            |           .    |      [51]: 6 transition_type 0x22b-0x22b.7 (1)
0x220|                                    07         |            .   |      [52]: 7 transition_type 0x22c-0x22c.7 (1)
0x220|                                       06      |             .  |      [53]: 6 transition_type 0x22d-0x22d.7 (1)
0x220|                                          07   |              . |      [54]: 7 transition_type 0x22e-0x22e.7 (1)
0x220|                                             06|               .|      [55]: 6 transition_type 0x22f-0x22f.7 (1)
0x230|07                                             |.               |      [56]: 7 transition_type 0x230-0x230.7 (1)
0x230|   06                                          | .              |      [57]: 6 transition_type 0x231-0x231.7 (1)
0x230|      07                                       |  .             |      [58]: 7 transition_type 0x232-0x232.7 (1)
0x230|         06                                    |   .            |      [59]: 6 transition_type 0x233-0x233.7 (1)
0x230|            07                                 |    .           |      [60]: 7 transition_type 0x234-0x234.7 (1)
0x230|               06                              |     .          |      [61]: 6 transition_type 0x235-0x235.7 (1)
0x230|                  07                           |      .         |      [62]: 7 transition_type 0x236-0x236.7 (1)
0x230|                     06                        |       .        |      [63]: 6 transition_type 0x237-0x237.7 (1)
0x230|                        07                     |        .       |      [64]: 7 transition_type 0x238-0x238.7 (1)
0x230|                           06                  |         .      |      [65]: 6 transition_type 0x239-0x239.7 (1)
0x230|                              07               |          .     |      [66]: 7 transition_type 0x23a-0x23a.7 (1)
0x230|                                 06            |           .    |      [67]: 6 transition_type 0x23b-0x23b.7 (1)
0x230|                                    07         |            .   |      [68]: 7 transition_type 0x23c-0x23c.7 (1)
0x230|                                       06      |             .  |      [69]: 6 transition_type 0x23d-0x23d.7 (1)
0x230|                                          07   |              . |      [70]: 7 transition_type 0x23e-0x23e.7 (1)
0x230|                                             06|               .|      [71]: 6 transition_type 0x23f-0x23f.7 (1)
0x240|07                                             |.               |      [72]: 7 transition_type 0x240-0x240.7 (1)
0x240|   06                                          | .              |      [73]: 6 transition_type 0x241-0x241.7 (1)
0x240|      07                                       |  .             |      [74]: 7 transition_type 0x242-0x242.7 (1)
0x240|         06                                    |   .            |      [75]: 6 transition_type 0x243-0x243.7 (1)
0x240|            07                                 |    .           |      [76]: 7 transition_type 0x244-0x244.7 (1)
0x240|               06                              |     .          |      [77]: 6 transition_type 0x245-0x245.7 (1)
0x240|                  07                           |      .         |      [78]: 7 transition_type 0x246-0x246.7 (1)
0x240|                     06                        |       .        |      [79]: 6 transition_type 0x247-0x247.7 (1)
0x240|                        07                     |        .       |      [80]: 7 transition_type 0x248-0x248.7 (1)
0x240|                           06                  |         .      |      [81]: 6 transition_type 0x249-0x249.7 (1)
0x240|                              07               |          .     |      [82]: 7 transition_type 0x24a-0x24a.7 (1)
0x240|                                 06            |           .    |      [83]: 6 transition_type 0x24b-0x24b.7 (1)
0x240|                                    07         |            .   |      [84]: 7 transition_type 0x24c-0x24c.7 (1)
0x240|                                       06      |             .  |      [85]: 6 transition_type 0x24d-0x24d.7 (1)
0x240|                                          07   |              . |      [86]: 7 transition_type 0x24e-0x24e.7 (1)
0x240|                                             06|               .|      [87]: 6 transition_type 0x24f-0x24f.7 (1)
0x250|07                                             |.               |      [88]: 7 transition_type 0x250-0x250.7 (1)
0x250|   06                                          | .              |      [89]: 6 transition_type 0x251-0x251.7 (1)
0x250|      07                                       |  .             |      [90]: 7 transition_type 0x252-0x252.7 (1)
0x250|         06                                    |   .            |      [91]: 6 transition_type 0x253-0x253.7 (1)
0x250|            07                                 |    .           |      [92]: 7 transition_type 0x254-0x254.7 (1)
0x250|               06                              |     .          |      [93]: 6 transition_type 0x255-0x255.7 (1)
0x250|                  07                           |      .         |      [94]: 7 transition_type 0x256-0x256.7 (1)
0x250|                     06                        |       .        |      [95]: 6 transition_type 0x257-0x257.7 (1)
0x250|                        07                     |        .       |      [96]: 7 transition_type 0x258-0x258.7 (1)
0x250|                           06                  |         .      |      [97]: 6 transition_type 0x259-0x259.7 (1)
0x250|                              07               |          .     |      [98]: 7 transition_type 0x25a-0x25a.7 (1)
0x250|                                 06            |           .    |      [99]: 6 transition_type 0x25b-0x25b.7 (1)
0x250|                                    07         |            .   |      [100]: 7 transition_type 0x25c-0x25c.7 (1)
0x250|                                       06      |             .  |      [101]: 6 transition_type 0x25d-0x25d.7 (1)
0x250|                                          07   |              . |      [102]: 7 transition_type 0x25e-0x25e.7 (1)
0x250|                                             06|               .|      [103]: 6 transition_type 0x25f-0x25f.7 (1)
0x260|07                                             |.               |      [104]: 7 transition_type 0x260-0x260.7 (1)
0x260|   06                                          | .              |      [105]: 6 transition_type 0x261-0x261.7 (1)
0x260|      07                                       |  .             |      [106]: 7 transition_type 0x262-0x262.7 (1)
0x260|         06                                    |   .            |      [107]: 6 transition_type 0x263-0x263.7 (1)
0x260|            07                                 |    .           |      [108]: 7 transition_type 0x264-0x264.7 (1)
0x260|               06                              |     .          |      [109]: 6 transition_type 0x265-0x265.7 (1)
0x260|                  07                           |      .         |      [110]: 7 transition_type 0x266-0x266.7 (1)
0x260|                     06                        |       .        |      [111]: 6 transition_type 0x267-0x267.7 (1)
0x260|                        07                     |        .       |      [112]: 7 transition_type 0x268-0x268.7 (1)
0x260|                           06                  |         .      |      [113]: 6 transition_type 0x269-0x269.7 (1)
0x260|                              06               |          .     |      [114]: 6 transition_type 0x26a-0x26a.7 (1)
     |                                               |                |    local_time_type_records[0:8]: 0x26b-0x29a.7 (48)
     |                                               |                |      [0]{}: local_time_type 0x26b-0x270.7 (6)
0x260|                                 00 00 d2 a7   |           .... |        utoff: 53927 (valid) 0x26b-0x26e.7 (4)
0x260|                                             00|               .|        dst: 0 (valid) 0x26f-0x26f.7 (1)
0x270|00                                             |.               |        idx: 0 (valid) 0x270-0x270.7 (1)
     |                                               |                |      [1]{}: local_time_type 0x271-0x276.7 (6)
0x270|   ff ff 8f 80                                 | ....           |        utoff: -28800 (valid) 0x271-0x274.7 (4)
0x270|               00                              |     .          |        dst: 0 (valid) 0x275-0x275.7 (1)
0x270|                  04                           |      .         |        idx: 4 (valid) 0x276-0x276.7 (1)
     |                                               |                |      [2]{}: local_time_type 0x277-0x27c.7 (6)
0x270|                     ff ff 9d 90               |       ....     |        utoff: -25200 (valid) 0x277-0x27a.7 (4)
0x270|                                 01            |           .    |        dst: 1 (valid) 0x27b-0x27b.7 (1)
0x270|                                    08         |            .   |        idx: 8 (valid) 0x27c-0x27c.7 (1)
     |                                               |                |      [3]{}: local_time_type 0x27d-0x282.7 (6)
0x270|                                       ff ff 9d|             ...|        utoff: -25200 (valid) 0x27d-0x280.7 (4)
0x280|90                                             |.               |
0x280|   01                                          | .              |        dst: 1 (valid) 0x281-0x281.7 (1)
0x280|      0c                                       |  .             |        idx: 12 (valid) 0x282-0x282.7 (1)
     |                                               |                |      [4]{}: local_time_type 0x283-0x288.7 (6)
0x280|         ff ff 9d 90                           |   ....         |        utoff: -25200 (valid) 0x283-0x286.7 (4)
0x280|                     01                        |       .        |        dst: 1 (valid) 0x287-0x287.7 (1)
0x280|                        10                     |        .       |        idx: 16 (valid) 0x288-0x288.7 (1)
     |                                               |                |      [5]{}: local_time_type 0x289-0x28e.7 (6)
0x280|                           ff ff 81 70         |         ...p   |        utoff: -32400 (valid) 0x289-0x28c.7 (4)
0x280|                                       00      |             .  |        dst: 0 (valid) 0x28d-0x28d.7 (1)
0x280|                                          14   |              . |        idx: 20 (valid) 0x28e-0x28e.7 (1)
     |                                               |                |      [6]{}: local_time_type 0x28f-0x294.7 (6)
0x280|                                             ff|               .|        utoff: -28800 (valid) 0x28f-0x292.7 (4)
0x290|ff 8f 80                                       |...             |
0x290|         01                                    |   .            |        dst: 1 (valid) 0x293-0x293.7 (1)
0x290|            18                                 |    .           |        idx: 24 (valid) 0x294-0x294.7 (1)
     |                                               |                |      [7]{}: local_time_type 0x295-0x29a.7 (6)
0x290|               ff ff 81 70                     |     ...p       |        utoff: -32400 (valid) 0x295-0x298.7 (4)
0x290|                           00                  |         .      |        dst: 0 (valid) 0x299-0x299.7 (1)
0x290|                              1d               |          .     |        idx: 29 (valid) 0x29a-0x29a.7 (1)
     |                                               |                |    time_zone_designations[0:8]: 0x29b-0x2bc.7 (34)
0x290|                                 4c 4d 54 00   |           LMT. |      [0]: "LMT" time_zone_designation 0x29b-0x29e.7 (4)
0x290|                                             50|               P|      [1]: "PST" time_zone_designation 0x29f-0x2a2.7 (4)
0x2a0|53 54 00                                       |ST.             |
0x2a0|         50 57 54 00                           |   PWT.         |      [2]: "PWT" time_zone_designation 0x2a3-0x2a6.7 (4)
0x2a0|                     50 50 54 00               |       PPT.     |      [3]: "PPT" time_zone_designation 0x2a7-0x2aa.7 (4)
0x2a0|                                 50 44 54 00   |           PDT. |      [4]: "PDT" time_zone_designation 0x2ab-0x2ae.7 (4)
0x2a0|                                             59|               Y|      [5]: "YST" time_zone_designation 0x2af-0x2b2.7 (4)
0x2b0|53 54 00                                       |ST.             |
0x2b0|         41 4b 44 54 00                        |   AKDT.        |      [6]: "AKDT" time_zone_designation 0x2b3-0x2b7.7 (5)
0x2b0|                        41 4b 53 54 00         |        AKST.   |      [7]: "AKST" time_zone_designation 0x2b8-0x2bc.7 (5)
     |                                               |                |    leap_second_records[0:27]: 0x2bd-0x394.7 (216)
     |                                               |                |      [0]{}: leap_second_record 0x2bd-0x2c4.7 (8)
0x2b0|                                       04 b2 58|             ..X|        occur: "1972-07-01T00:00:00Z" (78796800) 0x2bd-0x2c0.7 (4)
0x2c0|00                                             |.               |
0x2c0|   00 00 00 01                                 | ....           |        corr: 1 0x2c1-0x2c4.7 (4)
     |                                               |                |      [1]{}: leap_second_record 0x2c5-0x2cc.7 (8)
0x2c0|               05 a4 ec 01                     |     ....       |        occur: "1973-01-01T00:00:01Z" (94694401) 0x2c5-0x2c8.7 (4)
0x2c0|                           00 00 00 02         |         ....   |        corr: 2 0x2c9-0x2cc.7 (4)
     |                                               |                |      [2]{}: leap_second_record 0x2cd-0x2d4.7 (8)
0x2c0|                                       07 86 1f|             ...|        occur: "1974-01-01T00:00:02Z" (126230402) 0x2cd-0x2d0.7 (4)
0x2d0|82                                             |.               |
0x2d0|   00 00 00 03                                 | ....           |        corr: 3 0x2d1-0x2d4.7 (4)
     |                                               |                |      [3]{}: leap_second_record 0x2d5-0x2dc.7 (8)
0x2d0|               09 67 53 03                     |     .gS.       |        occur: "1975-01-01T00:00:03Z" (157766403) 0x2d5-0x2d8.7 (4)
0x2d0|                           00 00 00 04         |         ....   |        corr: 4 0x2d9-0x2dc.7 (4)
     |                                               |                |      [4]{}: leap_second_record 0x2dd-0x2e4.7 (8)
0x2d0|                                       0b 48 86|             .H.|        occur: "1976-01-01T00:00:04Z" (189302404) 0x2dd-0x2e0.7 (4)
0x2e0|84                                             |.               |
0x2e0|   00 00 00 05                                 | ....           |        corr: 5 0x2e1-0x2e4.7 (4)
     |                                               |                |      [5]{}: leap_second_record 0x2e5-0x2ec.7 (8)
0x2e0|               0d 2b 0b 85                     |     .+..       |        occur: "1977-01-01T00:00:05Z" (220924805) 0x2e5-0x2e8.7 (4)
0x2e0|                           00 00 00 06         |         ....   |        corr: 6 0x2e9-0x2ec.7 (4)
     |                                               |                |      [6]{}: leap_second_record 0x2ed-0x2f4.7 (8)
0x2e0|                                       0f 0c 3f|             ..?|        occur: "1978-01-01T00:00:06Z" (252460806) 0x2ed-0x2f0.7 (4)
0x2f0|06                                             |.               |
0x2f0|   00 00 00 07                                 | ....           |        corr: 7 0x2f1-0x2f4.7 (4)
     |                                               |                |      [7]{}: leap_second_record 0x2f5-0x2fc.7 (8)
0x2f0|               10 ed 72 87                     |     ..r.       |        occur: "1979-01-01T00:00:07Z" (283996807) 0x2f5-0x2f8.7 (4)
0x2f0|                           00 00 00 08         |         ....   |        corr: 8 0x2f9-0x2fc.7 (4)
     |                                               |                |      [8]{}: leap_second_record 0x2fd-0x304.7 (8)
0x2f0|                                       12 ce a6|             ...|        occur: "1980-01-01T00:00:08Z" (315532808) 0x2fd-0x300.7 (4)
0x300|08                                             |.               |
0x300|   00 00 00 09                                 | ....           |        corr: 9 0x301-0x304.7 (4)
     |                                               |                |      [9]{}: leap_second_record 0x305-0x30c.7 (8)
0x300|               15 9f ca 89                     |     ....       |        occur: "1981-07-01T00:00:09Z" (362793609) 0x305-0x308.7 (4)
0x300|                           00 00 00 0a         |         ....   |        corr: 10 0x309-0x30c.7 (4)
     |                                               |                |      [10]{}: leap_second_record 0x30d-0x314.7 (8)
0x300|                                       17 80 fe|             ...|        occur: "1982-07-01T00:00:10Z" (394329610) 0x30d-0x310.7 (4)
0x310|0a                                             |.               |
0x310|   00 00 00 0b                                 | ....           |        corr: 11 0x311-0x314.7 (4)
     |                                               |                |      [11]{}: leap_second_record 0x315-0x31c.7 (8)
0x310|               19 62 31 8b                     |     .b1.       |        occur: "1983-07-01T00:00:11Z" (425865611) 0x315-0x318.7 (4)
0x310|                           00 00 00 0c         |         ....   |        corr: 12 0x319-0x31c.7 (4)
     |                                               |                |      [12]{}: leap_second_record 0x31d-0x324.7 (8)
0x310|                                       1d 25 ea|             .%.|        occur: "1985-07-01T00:00:12Z" (489024012) 0x31d-0x320.7 (4)
0x320|0c                                             |.               |
0x320|   00 00 00 0d                                 | ....           |        corr: 13 0x321-0x324.7 (4)
     |                                               |                |      [13]{}: leap_second_record 0x325-0x32c.7 (8)
0x320|               21 da e5 0d                     |     !...       |        occur: "1988-01-01T00:00:13Z" (567993613) 0x325-0x328.7 (4)
0x320|                           00 00 00 0e         |         ....   |        corr: 14 0x329-0x32c.7 (4)
     |                                               |                |      [14]{}: leap_second_record 0x32d-0x334.7 (8)
0x320|                                       25 9e 9d|             %..|        occur: "1990-01-01T00:00:14Z" (631152014) 0x32d-0x330.7 (4)
0x330|8e                                             |.               |
0x330|   00 00 00 0f                                 | ....           |        corr: 15 0x331-0x334.7 (4)
     |                                               |                |      [15]{}: leap_second_record 0x335-0x33c.7 (8)
0x330|               27 7f d1 0f                     |     '...       |        occur: "1991-01-01T00:00:15Z" (662688015) 0x335-0x338.7 (4)
0x330|                           00 00 00 10         |         ....   |        corr: 16 0x339-0x33c.7 (4)
     |                                               |                |      [16]{}: leap_second_record 0x33d-0x344.7 (8)
0x330|                                       2a 50 f5|             *P.|        occur: "1992-07-01T00:00:16Z" (709948816) 0x33d-0x340.7 (4)
0x340|90                                             |.               |
0x340|   00 00 00 11                                 | ....           |        corr: 17 0x341-0x344.7 (4)
     |                                               |                |      [17]{}: leap_second_record 0x345-0x34c.7 (8)
0x340|               2c 32 29 11                     |     ,2).       |        occur: "1993-07-01T00:00:17Z" (741484817) 0x345-0x348.7 (4)
0x340|                           00 00 00 12         |         ....   |        corr: 18 0x349-0x34c.7 (4)
     |                                               |                |      [18]{}: leap_second_record 0x34d-0x354.7 (8)
0x340|                                       2e 13 5c|             ..\|        occur: "1994-07-01T00:00:18Z" (773020818) 0x34d-0x350.7 (4)
0x350|92                                             |.               |
0x350|   00 00 00 13                                 | ....           |        corr: 19 0x351-0x354.7 (4)
     |                                               |                |      [19]{}: leap_second_record 0x355-0x35c.7 (8)
0x350|               30 e7 24 13                     |     0.$.       |        occur: "1996-01-01T00:00:19Z" (820454419) 0x355-0x358.7 (4)
0x350|                           00 00 00 14         |         ....   |        corr: 20 0x359-0x35c.7 (4)
     |                                               |                |      [20]{}: leap_second_record 0x35d-0x364.7 (8)
0x350|                                       33 b8 48|             3.H|        occur: "1997-07-01T00:00:20Z" (867715220) 0x35d-0x360.7 (4)
0x360|94                                             |.               |
0x360|   00 00 00 15                                 | ....           |        corr: 21 0x361-0x364.7 (4)
     |                                               |                |      [21]{}: leap_second_record 0x365-0x36c.7 (8)
0x360|               36 8c 10 15                     |     6...       |        occur: "1999-01-01T00:00:21Z" (915148821) 0x365-0x368.7 (4)
0x360|                           00 00 00 16         |         ....   |        corr: 22 0x369-0x36c.7 (4)
     |                                               |                |      [22]{}: leap_second_record 0x36d-0x374.7 (8)
0x360|                                       43 b7 1b|             C..|        occur: "2006-01-01T00:00:22Z" (1136073622) 0x36d-0x370.7 (4)
0x370|96                                             |.               |
0x370|   00 00 00 17                                 | ....           |        corr: 23 0x371-0x374.7 (4)
     |                                               |                |      [23]{}: leap_second_record 0x375-0x37c.7 (8)
0x370|               49 5c 07 97                     |     I\..       |        occur: "2009-01-01T00:00:23Z" (1230768023) 0x375-0x378.7 (4)
0x370|                           00 00 00 18         |         ....   |        corr: 24 0x379-0x37c.7 (4)
     |                                               |                |      [24]{}: leap_second_record 0x37d-0x384.7 (8)
0x370|                                       4f ef 93|             O..|        occur: "2012-07-01T00:00:24Z" (1341100824) 0x37d-0x380.7 (4)
0x380|18                                             |.               |
0x380|   00 00 00 19                                 | ....           |        corr: 25 0x381-0x384.7 (4)
     |                                               |                |      [25]{}: leap_second_record 0x385-0x38c.7 (8)
0x380|               55 93 2d 99                     |     U.-.       |        occur: "2015-07-01T00:00:25Z" (1435708825) 0x385-0x388.7 (4)
0x380|                           00 00 00 1a         |         ....   |        corr: 26 0x389-0x38c.7 (4)
     |                                               |                |      [26]{}: leap_second_record 0x38d-0x394.7 (8)
0x380|                                       58 68 46|             XhF|        occur: "2017-01-01T00:00:26Z" (1483228826) 0x38d-0x390.7 (4)
0x390|9a                                             |.               |
0x390|   00 00 00 1b                                 | ....           |        corr: 27 0x391-0x394.7 (4)
     |                                               |                |    standard_wall_indicators[0:8]: 0x395-0x39c.7 (8)
0x390|               00                              |     .          |      [0]: 0 standard_wall_indicator (valid) 0x395-0x395.7 (1)
0x390|                  00                           |      .         |      [1]: 0 standard_wall_indicator (valid) 0x396-0x396.7 (1)
0x390|                     00                        |       .        |      [2]: 0 standard_wall_indicator (valid) 0x397-0x397.7 (1)
0x390|                        01                     |        .       |      [3]: 1 standard_wall_indicator (valid) 0x398-0x398.7 (1)
0x390|                           00                  |         .      |      [4]: 0 standard_wall_indicator (valid) 0x399-0x399.7 (1)
0x390|                              00               |          .     |      [5]: 0 standard_wall_indicator (valid) 0x39a-0x39a.7 (1)
0x390|                                 00            |           .    |      [6]: 0 standard_wall_indicator (valid) 0x39b-0x39b.7 (1)
0x390|                                    00         |            .   |      [7]: 0 standard_wall_indicator (valid) 0x39c-0x39c.7 (1)
     |                                               |                |    ut_local_indicators[0:8]: 0x39d-0x3a4.7 (8)
0x390|                                       00      |             .  |      [0]: 0 ut_local_indicator (valid) 0x39d-0x39d.7 (1)
0x390|                                          00   |              . |      [1]: 0 ut_local_indicator (valid) 0x39e-0x39e.7 (1)
0x390|                                             00|               .|      [2]: 0 ut_local_indicator (valid) 0x39f-0x39f.7 (1)
0x3a0|01                                             |.               |      [3]: 1 ut_local_indicator (valid) 0x3a0-0x3a0.7 (1)
0x3a0|   00                                          | .              |      [4]: 0 ut_local_indicator (valid) 0x3a1-0x3a1.7 (1)
0x3a0|      00                                       |  .             |      [5]: 0 ut_local_indicator (valid) 0x3a2-0x3a2.7 (1)
0x3a0|         00                                    |   .            |      [6]: 0 ut_local_indicator (valid) 0x3a3-0x3a3.7 (1)
0x3a0|            00                                 |    .           |      [7]: 0 ut_local_indicator (valid) 0x3a4-0x3a4.7 (1)
     |                                               |                |  v2plusheader{}: 0x3a5-0x3d0.7 (44)
0x3a0|               54 5a 69 66                     |     TZif       |    magic: 0x545a6966 (valid) 0x3a5-0x3a8.7 (4)
0x3a0|                           32                  |         2      |    ver: "2" (0x32) (valid) 0x3a9-0x3a9.7 (1)
0x3a0|                              00 00 00 00 00 00|          ......|    reserved: raw bits 0x3aa-0x3b8.7 (15)
0x3b0|00 00 00 00 00 00 00 00 00                     |.........       |
0x3b0|                           00 00 00 09         |         ....   |    isutcnt: 9 0x3b9-0x3bc.7 (4)
0x3b0|                                       00 00 00|             ...|    isstdcnt: 9 0x3bd-0x3c0.7 (4)
0x3c0|09                                             |.               |
0x3c0|   00 00 00 1b                                 | ....           |    leapcnt: 27 0x3c1-0x3c4.7 (4)
0x3c0|               00 00 00 74                     |     ...t       |    timecnt: 116 0x3c5-0x3c8.7 (4)
0x3c0|                           00 00 00 09         |         ....   |    typecnt: 9 0x3c9-0x3cc.7 (4)
0x3c0|                                       00 00 00|             ...|    charcnt: 34 0x3cd-0x3d0.7 (4)
0x3d0|22                                             |"               |
     |                                               |                |  v2plusdatablock{}: 0x3d1-0x992.7 (1474)
     |                                               |                |    transition_times[0:116]: 0x3d1-0x770.7 (928)
0x3d0|   ff ff ff ff 3f c2 fd d1                     | ....?...       |      [0]: "1867-10-19T00:31:13Z" (-3225223727) transition_time 0x3d1-0x3d8.7 (8)
0x3d0|                           ff ff ff ff 7d 87 33|         ....}.3|      [1]: "1900-08-20T21:01:13Z" (-2188954727) transition_time 0x3d9-0x3e0.7 (8)
0x3e0|99                                             |.               |
0x3e0|   ff ff ff ff cb 89 1a a0                     | ........       |      [2]: "1942-02-09T10:00:00Z" (-880207200) transition_time 0x3e1-0x3e8.7 (8)
0x3e0|                           ff ff ff ff d2 23 f4|         .....#.|      [3]: "1945-08-14T23:00:00Z" (-769395600) transition_time 0x3e9-0x3f0.7 (8)
0x3f0|70                                             |p               |
0x3f0|   ff ff ff ff d2 61 26 10                     | .....a&.       |      [4]: "1945-09-30T09:00:00Z" (-765385200) transition_time 0x3f1-0x3f8.7 (8)
0x3f0|                           ff ff ff ff fe b8 47|         ......G|      [5]: "1969-04-27T10:00:00Z" (-21477600) transition_time 0x3f9-0x400.7 (8)
0x400|20                                             |                |
0x400|   ff ff ff ff ff a8 2a 10                     | ......*.       |      [6]: "1969-10-26T09:00:00Z" (-5756400) transition_time 0x401-0x408.7 (8)
0x400|                           00 00 00 00 00 98 29|         ......)|      [7]: "1970-04-26T10:00:00Z" (9972000) transition_time 0x409-0x410.7 (8)
0x410|20                                             |                |
0x410|   00 00 00 00 01 88 0c 10                     | ........       |      [8]: "1970-10-25T09:00:00Z" (25693200) transition_time 0x411-0x418.7 (8)
0x410|                           00 00 00 00 02 78 0b|         .....x.|      [9]: "1971-04-25T10:00:00Z" (41421600) transition_time 0x419-0x420.7 (8)
0x420|20                                             |                |
0x420|   00 00 00 00 03 71 28 90                     | .....q(.       |      [10]: "1971-10-31T09:00:00Z" (57747600) transition_time 0x421-0x428.7 (8)
0x420|                           00 00 00 00 04 61 27|         .....a'|      [11]: "1972-04-30T10:00:00Z" (73476000) transition_time 0x429-0x430.7 (8)
0x430|a0                                             |.               |
0x430|   00 00 00 00 05 51 0a 91                     | .....Q..       |      [12]: "1972-10-29T09:00:01Z" (89197201) transition_time 0x431-0x438.7 (8)
0x430|                           00 00 00 00 06 41 09|         .....A.|      [13]: "1973-04-29T10:00:02Z" (104925602) transition_time 0x439-0x440.7 (8)
0x440|a2                                             |.               |
0x440|   00 00 00 00 07 30 ec 92                     | .....0..       |      [14]: "1973-10-28T09:00:02Z" (120646802) transition_time 0x441-0x448.7 (8)
0x440|                           00 00 00 00 07 8d 43|         ......C|      [15]: "1974-01-06T10:00:03Z" (126698403) transition_time 0x449-0x450.7 (8)
0x450|a3                                             |.               |
0x450|   00 00 00 00 09 10 ce 93                     | ........       |      [16]: "1974-10-27T09:00:03Z" (152096403) transition_time 0x451-0x458.7 (8)
0x450|                           00 00 00 00 09 ad bf|         .......|      [17]: "1975-02-23T10:00:04Z" (162381604) transition_time 0x459-0x460.7 (8)
0x460|24                                             |$               |
0x460|   00 00 00 00 0a f0 b0 94                     | ........       |      [18]: "1975-10-26T09:00:04Z" (183546004) transition_time 0x461-0x468.7 (8)
0x460|                           00 00 00 00 0b e0 af|         .......|      [19]: "1976-04-25T10:00:05Z" (199274405) transition_time 0x469-0x470.7 (8)
0x470|a5                                             |.               |
0x470|   00 00 00 00 0c d9 cd 15                     | ........       |      [20]: "1976-10-31T09:00:05Z" (215600405) transition_time 0x471-0x478.7 (8)
0x470|                           00 00 00 00 0d c0 91|         .......|      [21]: "1977-04-24T10:00:06Z" (230724006) transition_time 0x479-0x480.7 (8)
0x480|a6                                             |.               |
0x480|   00 00 00 00 0e b9 af 16                     | ........       |      [22]: "1977-10-30T09:00:06Z" (247050006) transition_time 0x481-0x488.7 (8)
0x480|                           00 00 00 00 0f a9 ae|         .......|      [23]: "1978-04-30T10:00:07Z" (262778407) transition_time 0x489-0x490.7 (8)
0x490|27                                             |'               |
0x490|   00 00 00 00 10 99 91 17                     | ........       |      [24]: "1978-10-29T09:00:07Z" (278499607) transition_time 0x491-0x498.7 (8)
0x490|                           00 00 00 00 11 89 90|         .......|      [25]: "1979-04-29T10:00:08Z" (294228008) transition_time 0x499-0x4a0.7 (8)
0x4a0|28                                             |(               |
0x4a0|   00 00 00 00 12 79 73 18                     | .....ys.       |      [26]: "1979-10-28T09:00:08Z" (309949208) transition_time 0x4a1-0x4a8.7 (8)
0x4a0|                           00 00 00 00 13 69 72|         .....ir|      [27]: "1980-04-27T10:00:09Z" (325677609) transition_time 0x4a9-0x4b0.7 (8)
0x4b0|29                                             |)               |
0x4b0|   00 00 00 00 14 59 55 19                     | .....YU.       |      [28]: "1980-10-26T09:00:09Z" (341398809) transition_time 0x4b1-0x4b8.7 (8)
0x4b0|                           00 00 00 00 15 49 54|         .....IT|      [29]: "1981-04-26T10:00:09Z" (357127209) transition_time 0x4b9-0x4c0.7 (8)
0x4c0|29                                             |)               |
0x4c0|   00 00 00 00 16 39 37 1a                     | .....97.       |      [30]: "1981-10-25T09:00:10Z" (372848410) transition_time 0x4c1-0x4c8.7 (8)
0x4c0|                           00 00 00 00 17 29 36|         .....)6|      [31]: "1982-04-25T10:00:10Z" (388576810) transition_time 0x4c9-0x4d0.7 (8)
0x4d0|2a                                             |*               |
0x4d0|   00 00 00 00 18 22 53 9b                     | ....."S.       |      [32]: "1982-10-31T09:00:11Z" (404902811) transition_time 0x4d1-0x4d8.7 (8)
0x4d0|                           00 00 00 00 19 09 18|         .......|      [33]: "1983-04-24T10:00:11Z" (420026411) transition_time 0x4d9-0x4e0.7 (8)
0x4e0|2b                                             |+               |
0x4e0|   00 00 00 00 1a 02 35 9c                     | ......5.       |      [34]: "1983-10-30T09:00:12Z" (436352412) transition_time 0x4e1-0x4e8.7 (8)
0x4e0|                           00 00 00 00 1a 2b 14|         .....+.|      [35]: "1983-11-30T09:00:12Z" (439030812) transition_time 0x4e9-0x4f0.7 (8)
0x4f0|1c                                             |.               |
0x4f0|   00 00 00 00 1a f2 42 bc                     | ......B.       |      [36]: "1984-04-29T11:00:12Z" (452084412) transition_time 0x4f1-0x4f8.7 (8)
0x4f0|                           00 00 00 00 1b e2 25|         ......%|      [37]: "1984-10-28T10:00:12Z" (467805612) transition_time 0x4f9-0x500.7 (8)
0x500|ac                                             |.               |
0x500|   00 00 00 00 1c d2 24 bc                     | ......$.       |      [38]: "1985-04-28T11:00:12Z" (483534012) transition_time 0x501-0x508.7 (8)
0x500|                           00 00 00 00 1d c2 07|         .......|      [39]: "1985-10-27T10:00:13Z" (499255213) transition_time 0x509-0x510.7 (8)
0x510|ad                                             |.               |
0x510|   00 00 00 00 1e b2 06 bd                     | ........       |      [40]: "1986-04-27T11:00:13Z" (514983613) transition_time 0x511-0x518.7 (8)
0x510|                           00 00 00 00 1f a1 e9|         .......|      [41]: "1986-10-26T10:00:13Z" (530704813) transition_time 0x519-0x520.7 (8)
0x520|ad                                             |.               |
0x520|   00 00 00 00 20 76 39 3d                     | .... v9=       |      [42]: "1987-04-05T11:00:13Z" (544618813) transition_time 0x521-0x528.7 (8)
0x520|                           00 00 00 00 21 81 cb|         ....!..|      [43]: "1987-10-25T10:00:13Z" (562154413) transition_time 0x529-0x530.7 (8)
0x530|ad                                             |.               |
0x530|   00 00 00 00 22 56 1b 3e                     | ...."V.>       |      [44]: "1988-04-03T11:00:14Z" (576068414) transition_time 0x531-0x538.7 (8)
0x530|                           00 00 00 00 23 6a e8|         ....#j.|      [45]: "1988-10-30T10:00:14Z" (594208814) transition_time 0x539-0x540.7 (8)
0x540|2e                                             |.               |
0x540|   00 00 00 00 24 35 fd 3e                     | ....$5.>       |      [46]: "1989-04-02T11:00:14Z" (607518014) transition_time 0x541-0x548.7 (8)
0x540|                           00 00 00 00 25 4a ca|         ....%J.|      [47]: "1989-10-29T10:00:14Z" (625658414) transition_time 0x549-0x550.7 (8)
0x550|2e                                             |.               |
0x550|   00 00 00 00 26 15 df 3f                     | ....&..?       |      [48]: "1990-04-01T11:00:15Z" (638967615) transition_time 0x551-0x558.7 (8)
0x550|                           00 00 00 00 27 2a ac|         ....'*.|      [49]: "1990-10-28T10:00:15Z" (657108015) transition_time 0x559-0x560.7 (8)
0x560|2f                                             |/               |
0x560|   00 00 00 00 27 fe fb c0                     | ....'...       |      [50]: "1991-04-07T11:00:16Z" (671022016) transition_time 0x561-0x568.7 (8)
0x560|                           00 00 00 00 29 0a 8e|         ....)..|      [51]: "1991-10-27T10:00:16Z" (688557616) transition_time 0x569-0x570.7 (8)
0x570|30                                             |0               |
0x570|   00 00 00 00 29 de dd c0                     | ....)...       |      [52]: "1992-04-05T11:00:16Z" (702471616) transition_time 0x571-0x578.7 (8)
0x570|                           00 00 00 00 2a ea 70|         ....*.p|      [53]: "1992-10-25T10:00:17Z" (720007217) transition_time 0x579-0x580.7 (8)
0x580|31                                             |1               |
0x580|   00 00 00 00 2b be bf c1                     | ....+...       |      [54]: "1993-04-04T11:00:17Z" (733921217) transition_time 0x581-0x588.7 (8)
0x580|                           00 00 00 00 2c d3 8c|         ....,..|      [55]: "1993-10-31T10:00:18Z" (752061618) transition_time 0x589-0x590.7 (8)
0x590|b2                                             |.               |
0x590|   00 00 00 00 2d 9e a1 c2                     | ....-...       |      [56]: "1994-04-03T11:00:18Z" (765370818) transition_time 0x591-0x598.7 (8)
0x590|                           00 00 00 00 2e b3 6e|         ......n|      [57]: "1994-10-30T10:00:19Z" (783511219) transition_time 0x599-0x5a0.7 (8)
0x5a0|b3                                             |.               |
0x5a0|   00 00 00 00 2f 7e 83 c3                     | ..../~..       |      [58]: "1995-04-02T11:00:19Z" (796820419) transition_time 0x5a1-0x5a8.7 (8)
0x5a0|                           00 00 00 00 30 93 50|         ....0.P|      [59]: "1995-10-29T10:00:19Z" (814960819) transition_time 0x5a9-0x5b0.7 (8)
0x5b0|b3                                             |.               |
0x5b0|   00 00 00 00 31 67 a0 44                     | ....1g.D       |      [60]: "1996-04-07T11:00:20Z" (828874820) transition_time 0x5b1-0x5b8.7 (8)
0x5b0|                           00 00 00 00 32 73 32|         ....2s2|      [61]: "1996-10-27T10:00:20Z" (846410420) transition_time 0x5b9-0x5c0.7 (8)
0x5c0|b4                                             |.               |
0x5c0|   00 00 00 00 33 47 82 44                     | ....3G.D       |      [62]: "1997-04-06T11:00:20Z" (860324420) transition_time 0x5c1-0x5c8.7 (8)
0x5c0|                           00 00 00 00 34 53 14|         ....4S.|      [63]: "1997-10-26T10:00:21Z" (877860021) transition_time 0x5c9-0x5d0.7 (8)
0x5d0|b5                                             |.               |
0x5d0|   00 00 00 00 35 27 64 45                     | ....5'dE       |      [64]: "1998-04-05T11:00:21Z" (891774021) transition_time 0x5d1-0x5d8.7 (8)
0x5d0|                           00 00 00 00 36 32 f6|         ....62.|      [65]: "1998-10-25T10:00:21Z" (909309621) transition_time 0x5d9-0x5e0.7 (8)
0x5e0|b5                                             |.               |
0x5e0|   00 00 00 00 37 07 46 46                     | ....7.FF       |      [66]: "1999-04-04T11:00:22Z" (923223622) transition_time 0x5e1-0x5e8.7 (8)
0x5e0|                           00 00 00 00 38 1c 13|         ....8..|      [67]: "1999-10-31T10:00:22Z" (941364022) transition_time 0x5e9-0x5f0.7 (8)
0x5f0|36                                             |6               |
0x5f0|   00 00 00 00 38 e7 28 46                     | ....8.(F       |      [68]: "2000-04-02T11:00:22Z" (954673222) transition_time 0x5f1-0x5f8.7 (8)
0x5f0|                           00 00 00 00 39 fb f5|         ....9..|      [69]: "2000-10-29T10:00:22Z" (972813622) transition_time 0x5f9-0x600.7 (8)
0x600|36                                             |6               |
0x600|   00 00 00 00 3a c7 0a 46                     | ....:..F       |      [70]: "2001-04-01T11:00:22Z" (986122822) transition_time 0x601-0x608.7 (8)
0x600|                           00 00 00 00 3b db d7|         ....;..|      [71]: "2001-10-28T10:00:22Z" (1004263222) transition_time 0x609-0x610.7 (8)
0x610|36                                             |6               |
0x610|   00 00 00 00 3c b0 26 c6                     | ....<.&.       |      [72]: "2002-04-07T11:00:22Z" (1018177222) transition_time 0x611-0x618.7 (8)
0x610|                           00 00 00 00 3d bb b9|         ....=..|      [73]: "2002-10-27T10:00:22Z" (1035712822) transition_time 0x619-0x620.7 (8)
0x620|36                                             |6               |
0x620|   00 00 00 00 3e 90 08 c6                     | ....>...       |      [74]: "2003-04-06T11:00:22Z" (1049626822) transition_time 0x621-0x628.7 (8)
0x620|                           00 00 00 00 3f 9b 9b|         ....?..|      [75]: "2003-10-26T10:00:22Z" (1067162422) transition_time 0x629-0x630.7 (8)
0x630|36                                             |6               |
0x630|   00 00 00 00 40 6f ea c6                     | ....@o..       |      [76]: "2004-04-04T11:00:22Z" (1081076422) transition_time 0x631-0x638.7 (8)
0x630|                           00 00 00 00 41 84 b7|         ....A..|      [77]: "2004-10-31T10:00:22Z" (1099216822) transition_time 0x639-0x640.7 (8)
0x640|b6                                             |.               |
0x640|   00 00 00 00 42 4f cc c6                     | ....BO..       |      [78]: "2005-04-03T11:00:22Z" (1112526022) transition_time 0x641-0x648.7 (8)
0x640|                           00 00 00 00 43 64 99|         ....Cd.|      [79]: "2005-10-30T10:00:22Z" (1130666422) transition_time 0x649-0x650.7 (8)
0x650|b6                                             |.               |
0x650|   00 00 00 00 44 2f ae c7                     | ....D/..       |      [80]: "2006-04-02T11:00:23Z" (1143975623) transition_time 0x651-0x658.7 (8)
0x650|                           00 00 00 00 45 44 7b|         ....ED{|      [81]: "2006-10-29T10:00:23Z" (1162116023) transition_time 0x659-0x660.7 (8)
0x660|b7                                             |.               |
0x660|   00 00 00 00 45 f3 e1 47                     | ....E..G       |      [82]: "2007-03-11T11:00:23Z" (1173610823) transition_time 0x661-0x668.7 (8)
0x660|                           00 00 00 00 47 2d 98|         ....G-.|      [83]: "2007-11-04T10:00:23Z" (1194170423) transition_time 0x669-0x670.7 (8)
0x670|37                                             |7               |
0x670|   00 00 00 00 47 d3 c3 47                     | ....G..G       |      [84]: "2008-03-09T11:00:23Z" (1205060423) transition_time 0x671-0x678.7 (8)
0x670|                           00 00 00 00 49 0d 7a|         ....I.z|      [85]: "2008-11-02T10:00:23Z" (1225620023) transition_time 0x679-0x680.7 (8)
0x680|37                                             |7               |
0x680|   00 00 00 00 49 b3 a5 48                     | ....I..H       |      [86]: "2009-03-08T11:00:24Z" (1236510024) transition_time 0x681-0x688.7 (8)
0x680|                           00 00 00 00 4a ed 5c|         ....J.\|      [87]: "2009-11-01T10:00:24Z" (1257069624) transition_time 0x689-0x690.7 (8)
0x690|38                                             |8               |
0x690|   00 00 00 00 4b 9c c1 c8                     | ....K...       |      [88]: "2010-03-14T11:00:24Z" (1268564424) transition_time 0x691-0x698.7 (8)
0x690|                           00 00 00 00 4c d6 78|         ....L.x|      [89]: "2010-11-07T10:00:24Z" (1289124024) transition_time 0x699-0x6a0.7 (8)
0x6a0|b8                                             |.               |
0x6a0|   00 00 00 00 4d 7c a3 c8                     | ....M|..       |      [90]: "2011-03-13T11:00:24Z" (1300014024) transition_time 0x6a1-0x6a8.7 (8)
0x6a0|                           00 00 00 00 4e b6 5a|         ....N.Z|      [91]: "2011-11-06T10:00:24Z" (1320573624) transition_time 0x6a9-0x6b0.7 (8)
0x6b0|b8                                             |.               |
0x6b0|   00 00 00 00 4f 5c 85 c8                     | ....O\..       |      [92]: "2012-03-11T11:00:24Z" (1331463624) transition_time 0x6b1-0x6b8.7 (8)
0x6b0|                           00 00 00 00 50 96 3c|         ....P.<|      [93]: "2012-11-04T10:00:25Z" (1352023225) transition_time 0x6b9-0x6c0.7 (8)
0x6c0|b9                                             |.               |
0x6c0|   00 00 00 00 51 3c 67 c9                     | ....Q<g.       |      [94]: "2013-03-10T11:00:25Z" (1362913225) transition_time 0x6c1-0x6c8.7 (8)
0x6c0|                           00 00 00 00 52 76 1e|         ....Rv.|      [95]: "2013-11-03T10:00:25Z" (1383472825) transition_time 0x6c9-0x6d0.7 (8)
0x6d0|b9                                             |.               |
0x6d0|   00 00 00 00 53 1c 49 c9                     | ....S.I.       |      [96]: "2014-03-09T11:00:25Z" (1394362825) transition_time 0x6d1-0x6d8.7 (8)
0x6d0|                           00 00 00 00 54 56 00|         ....TV.|      [97]: "2014-11-02T10:00:25Z" (1414922425) transition_time 0x6d9-0x6e0.7 (8)
0x6e0|b9                                             |.               |
0x6e0|   00 00 00 00 54 fc 2b c9                     | ....T.+.       |      [98]: "2015-03-08T11:00:25Z" (1425812425) transition_time 0x6e1-0x6e8.7 (8)
0x6e0|                           00 00 00 00 56 35 e2|         ....V5.|      [99]: "2015-11-01T10:00:26Z" (1446372026) transition_time 0x6e9-0x6f0.7 (8)
0x6f0|ba                                             |.               |
0x6f0|   00 00 00 00 56 e5 48 4a                     | ....V.HJ       |      [100]: "2016-03-13T11:00:26Z" (1457866826) transition_time 0x6f1-0x6f8.7 (8)
0x6f0|                           00 00 00 00 58 1e ff|         ....X..|      [101]: "2016-11-06T10:00:26Z" (1478426426) transition_time 0x6f9-0x700.7 (8)
0x700|3a                                             |:               |
0x700|   00 00 00 00 58 c5 2a 4b                     | ....X.*K       |      [102]: "2017-03-12T11:00:27Z" (1489316427) transition_time 0x701-0x708.7 (8)
0x700|                           00 00 00 00 59 fe e1|         ....Y..|      [103]: "2017-11-05T10:00:27Z" (1509876027) transition_time 0x709-0x710.7 (8)
0x710|3b                                             |;               |
0x710|   00 00 00 00 5a a5 0c 4b                     | ....Z..K       |      [104]: "2018-03-11T11:00:27Z" (1520766027) transition_time 0x711-0x718.7 (8)
0x710|                           00 00 00 00 5b de c3|         ....[..|      [105]: "2018-11-04T10:00:27Z" (1541325627) transition_time 0x719-0x720.7 (8)
0x720|3b                                             |;               |
0x720|   00 00 00 00 5c 84 ee 4b                     | ....\..K       |      [106]: "2019-03-10T11:00:27Z" (1552215627) transition_time 0x721-0x728.7 (8)
0x720|                           00 00 00 00 5d be a5|         ....]..|      [107]: "2019-11-03T10:00:27Z" (1572775227) transition_time 0x729-0x730.7 (8)
0x730|3b                                             |;               |
0x730|   00 00 00 00 5e 64 d0 4b                     | ....^d.K       |      [108]: "2020-03-08T11:00:27Z" (1583665227) transition_time 0x731-0x738.7 (8)
0x730|                           00 00 00 00 5f 9e 87|         ...._..|      [109]: "2020-11-01T10:00:27Z" (1604224827) transition_time 0x739-0x740.7 (8)
0x740|3b                                             |;               |
0x740|   00 00 00 00 60 4d ec cb                     | ....`M..       |      [110]: "2021-03-14T11:00:27Z" (1615719627) transition_time 0x741-0x748.7 (8)
0x740|                           00 00 00 00 61 87 a3|         ....a..|      [111]: "2021-11-07T10:00:27Z" (1636279227) transition_time 0x749-0x750.7 (8)
0x750|bb                                             |.               |
0x750|   00 00 00 00 62 2d ce cb                     | ....b-..       |      [112]: "2022-03-13T11:00:27Z" (1647169227) transition_time 0x751-0x758.7 (8)
0x750|                           00 00 00 00 63 67 85|         ....cg.|      [113]: "2022-11-06T10:00:27Z" (1667728827) transition_time 0x759-0x760.7 (8)
0x760|bb                                             |.               |
0x760|   00 00 00 00 64 0d b0 cb                     | ....d...       |      [114]: "2023-03-12T11:00:27Z" (1678618827) transition_time 0x761-0x768.7 (8)
0x760|                           00 00 00 00 64 9b 78|         ....d.x|      [115]: "2023-06-28T00:00:27Z" (1687910427) transition_time 0x769-0x770.7 (8)
0x770|1b                                             |.               |
     |                                               |                |    transition_types[0:116]: 0x771-0x7e4.7 (116)
0x770|   01                                          | .              |      [0]: 1 transition_type 0x771-0x771.7 (1)
0x770|      02                                       |  .             |      [1]: 2 transition_type 0x772-0x772.7 (1)
0x770|         03                                    |   .            |      [2]: 3 transition_type 0x773-0x773.7 (1)
0x770|            04                                 |    .           |      [3]: 4 transition_type 0x774-0x774.7 (1)
0x770|               02                              |     .          |      [4]: 2 transition_type 0x775-0x775.7 (1)
0x770|                  05                           |      .         |      [5]: 5 transition_type 0x776-0x776.7 (1)
0x770|                     02                        |       .        |      [6]: 2 transition_type 0x777-0x777.7 (1)
0x770|                        05                     |        .       |      [7]: 5 transition_type 0x778-0x778.7 (1)
0x770|                           02                  |         .      |      [8]: 2 transition_type 0x779-0x779.7 (1)
0x770|                              05               |          .     |      [9]: 5 transition_type 0x77a-0x77a.7 (1)
0x770|                                 02            |           .    |      [10]: 2 transition_type 0x77b-0x77b.7 (1)
0x770|                                    05         |            .   |      [11]: 5 transition_type 0x77c-0x77c.7 (1)
0x770|                                       02      |             .  |      [12]: 2 transition_type 0x77d-0x77d.7 (1)
0x770|                                          05   |              . |      [13]: 5 transition_type 0x77e-0x77e.7 (1)
0x770|                                             02|               .|      [14]: 2 transition_type 0x77f-0x77f.7 (1)
0x780|05                                             |.               |      [15]: 5 transition_type 0x780-0x780.7 (1)
0x780|   02                                          | .              |      [16]: 2 transition_type 0x781-0x781.7 (1)
0x780|      05                                       |  .             |      [17]: 5 transition_type 0x782-0x782.7 (1)
0x780|         02                                    |   .            |      [18]: 2 transition_type 0x783-0x783.7 (1)
0x780|            05                                 |    .           |      [19]: 5 transition_type 0x784-0x784.7 (1)
0x780|               02                              |     .          |      [20]: 2 transition_type 0x785-0x785.7 (1)
0x780|                  05                           |      .         |      [21]: 5 transition_type 0x786-0x786.7 (1)
0x780|                     02                        |       .        |      [22]: 2 transition_type 0x787-0x787.7 (1)
0x780|                        05                     |        .       |      [23]: 5 transition_type 0x788-0x788.7 (1)
0x780|                           02                  |         .      |      [24]: 2 transition_type 0x789-0x789.7 (1)
0x780|                              05               |          .     |      [25]: 5 transition_type 0x78a-0x78a.7 (1)
0x780|                                 02            |           .    |      [26]: 2 transition_type 0x78b-0x78b.7 (1)
0x780|                                    05         |            .   |      [27]: 5 transition_type 0x78c-0x78c.7 (1)
0x780|                                       02      |             .  |      [28]: 2 transition_type 0x78d-0x78d.7 (1)
0x780|                                          05   |              . |      [29]: 5 transition_type 0x78e-0x78e.7 (1)
0x780|                                             02|               .|      [30]: 2 transition_type 0x78f-0x78f.7 (1)
0x790|05                                             |.               |      [31]: 5 transition_type 0x790-0x790.7 (1)
0x790|   02                                          | .              |      [32]: 2 transition_type 0x791-0x791.7 (1)
0x790|      05                                       |  .             |      [33]: 5 transition_type 0x792-0x792.7 (1)
0x790|         06                                    |   .            |      [34]: 6 transition_type 0x793-0x793.7 (1)
0x790|            08                                 |    .           |      [35]: 8 transition_type 0x794-0x794.7 (1)
0x790|               07                              |     .          |      [36]: 7 transition_type 0x795-0x795.7 (1)
0x790|                  08                           |      .         |      [37]: 8 transition_type 0x796-0x796.7 (1)
0x790|                     07                        |       .        |      [38]: 7 transition_type 0x797-0x797.7 (1)
0x790|                        08                     |        .       |      [39]: 8 transition_type 0x798-0x798.7 (1)
0x790|                           07                  |         .      |      [40]: 7 transition_type 0x799-0x799.7 (1)
0x790|                              08               |          .     |      [41]: 8 transition_type 0x79a-0x79a.7 (1)
0x790|                                 07            |           .    |      [42]: 7 transition_type 0x79b-0x79b.7 (1)
0x790|                                    08         |            .   |      [43]: 8 transition_type 0x79c-0x79c.7 (1)
0x790|                                       07      |             .  |      [44]: 7 transition_type 0x79d-0x79d.7 (1)
0x790|                                          08   |              . |      [45]: 8 transition_type 0x79e-0x79e.7 (1)
0x790|                                             07|               .|      [46]: 7 transition_type 0x79f-0x79f.7 (1)
0x7a0|08                                             |.               |      [47]: 8 transition_type 0x7a0-0x7a0.7 (1)
0x7a0|   07                                          | .              |      [48]: 7 transition_type 0x7a1-0x7a1.7 (1)
0x7a0|      08                                       |  .             |      [49]: 8 transition_type 0x7a2-0x7a2.7 (1)
0x7a0|         07                                    |   .            |      [50]: 7 transition_type 0x7a3-0x7a3.7 (1)
0x7a0|            08                                 |    .           |      [51]: 8 transition_type 0x7a4-0x7a4.7 (1)
0x7a0|               07                              |     .          |      [52]: 7 transition_type 0x7a5-0x7a5.7 (1)
0x7a0|                  08                           |      .         |      [53]: 8 transition_type 0x7a6-0x7a6.7 (1)
0x7a0|                     07                        |       .        |      [54]: 7 transition_type 0x7a7-0x7a7.7 (1)
0x7a0|                        08                     |        .       |      [55]: 8 transition_type 0x7a8-0x7a8.7 (1)
0x7a0|                           07                  |         .      |      [56]: 7 transition_type 0x7a9-0x7a9.7 (1)
0x7a0|                              08               |          .     |      [57]: 8 transition_type 0x7aa-0x7aa.7 (1)
0x7a0|                                 07            |           .    |      [58]: 7 transition_type 0x7ab-0x7ab.7 (1)
0x7a0|                                    08         |            .   |      [59]: 8 transition_type 0x7ac-0x7ac.7 (1)
0x7a0|                                       07      |             .  |      [60]: 7 transition_type 0x7ad-0x7ad.7 (1)
0x7a0|                                          08   |              . |      [61]: 8 transition_type 0x7ae-0x7ae.7 (1)
0x7a0|                                             07|               .|      [62]: 7 transition_type 0x7af-0x7af.7 (1)
0x7b0|08                                             |.               |      [63]: 8 transition_type 0x7b0-0x7b0.7 (1)
0x7b0|   07                                          | .              |      [64]: 7 transition_type 0x7b1-0x7b1.7 (1)
0x7b0|      08                                       |  .             |      [65]: 8 transition_type 0x7b2-0x7b2.7 (1)
0x7b0|         07                                    |   .            |      [66]: 7 transition_type 0x7b3-0x7b3.7 (1)
0x7b0|            08                                 |    .           |      [67]: 8 transition_type 0x7b4-0x7b4.7 (1)
0x7b0|               07                              |     .          |      [68]: 7 transition_type 0x7b5-0x7b5.7 (1)
0x7b0|                  08                           |      .         |      [69]: 8 transition_type 0x7b6-0x7b6.7 (1)
0x7b0|                     07                        |       .        |      [70]: 7 transition_type 0x7b7-0x7b7.7 (1)
0x7b0|                        08                     |        .       |      [71]: 8 transition_type 0x7b8-0x7b8.7 (1)
0x7b0|                           07                  |         .      |      [72]: 7 transition_type 0x7b9-0x7b9.7 (1)
0x7b0|                              08               |          .     |      [73]: 8 transition_type 0x7ba-0x7ba.7 (1)
0x7b0|                                 07            |           .    |      [74]: 7 transition_type 0x7bb-0x7bb.7 (1)
0x7b0|                                    08         |            .   |      [75]: 8 transition_type 0x7bc-0x7bc.7 (1)
0x7b0|                                       07      |             .  |      [76]: 7 transition_type 0x7bd-0x7bd.7 (1)
0x7b0|                                          08   |              . |      [77]: 8 transition_type 0x7be-0x7be.7 (1)
0x7b0|                                             07|               .|      [78]: 7 transition_type 0x7bf-0x7bf.7 (1)
0x7c0|08                                             |.               |      [79]: 8 transition_type 0x7c0-0x7c0.7 (1)
0x7c0|   07                                          | .              |      [80]: 7 transition_type 0x7c1-0x7c1.7 (1)
0x7c0|      08                                       |  .             |      [81]: 8 transition_type 0x7c2-0x7c2.7 (1)
0x7c0|         07                                    |   .            |      [82]: 7 transition_type 0x7c3-0x7c3.7 (1)
0x7c0|            08                                 |    .           |      [83]: 8 transition_type 0x7c4-0x7c4.7 (1)
0x7c0|               07                              |     .          |      [84]: 7 transition_type 0x7c5-0x7c5.7 (1)
0x7c0|                  08                           |      .         |      [85]: 8 transition_type 0x7c6-0x7c6.7 (1)
0x7c0|                     07                        |       .        |      [86]: 7 transition_type 0x7c7-0x7c7.7 (1)
0x7c0|                        08                     |        .       |      [87]: 8 transition_type 0x7c8-0x7c8.7 (1)
0x7c0|                           07                  |         .      |      [88]: 7 transition_type 0x7c9-0x7c9.7 (1)
0x7c0|                              08               |          .     |      [89]: 8 transition_type 0x7ca-0x7ca.7 (1)
0x7c0|                                 07            |           .    |      [90]: 7 transition_type 0x7cb-0x7cb.7 (1)
0x7c0|                                    08         |            .   |      [91]: 8 transition_type 0x7cc-0x7cc.7 (1)
0x7c0|                                       07      |             .  |      [92]: 7 transition_type 0x7cd-0x7cd.7 (1)
0x7c0|                                          08   |              . |      [93]: 8 transition_type 0x7ce-0x7ce.7 (1)
0x7c0|                                             07|               .|      [94]: 7 transition_type 0x7cf-0x7cf.7 (1)
0x7d0|08                                             |.               |      [95]: 8 transition_type 0x7d0-0x7d0.7 (1)
0x7d0|   07                                          | .              |      [96]: 7 transition_type 0x7d1-0x7d1.7 (1)
0x7d0|      08                                       |  .             |      [97]: 8 transition_type 0x7d2-0x7d2.7 (1)
0x7d0|         07                                    |   .            |      [98]: 7 transition_type 0x7d3-0x7d3.7 (1)
0x7d0|            08                                 |    .           |      [99]: 8 transition_type 0x7d4-0x7d4.7 (1)
0x7d0|               07                              |     .          |      [100]: 7 transition_type 0x7d5-0x7d5.7 (1)
0x7d0|                  08                           |      .         |      [101]: 8 transition_type 0x7d6-0x7d6.7 (1)
0x7d0|                     07                        |       .        |      [102]: 7 transition_type 0x7d7-0x7d7.7 (1)
0x7d0|                        08                     |        .       |      [103]: 8 transition_type 0x7d8-0x7d8.7 (1)
0x7d0|                           07                  |         .      |      [104]: 7 transition_type 0x7d9-0x7d9.7 (1)
0x7d0|                              08               |          .     |      [105]: 8 transition_type 0x7da-0x7da.7 (1)
0x7d0|                                 07            |           .    |      [106]: 7 transition_type 0x7db-0x7db.7 (1)
0x7d0|                                    08         |            .   |      [107]: 8 transition_type 0x7dc-0x7dc.7 (1)
0x7d0|                                       07      |             .  |      [108]: 7 transition_type 0x7dd-0x7dd.7 (1)
0x7d0|                                          08   |              . |      [109]: 8 transition_type 0x7de-0x7de.7 (1)
0x7d0|                                             07|               .|      [110]: 7 transition_type 0x7df-0x7df.7 (1)
0x7e0|08                                             |.               |      [111]: 8 transition_type 0x7e0-0x7e0.7 (1)
0x7e0|   07                                          | .              |      [112]: 7 transition_type 0x7e1-0x7e1.7 (1)
0x7e0|      08                                       |  .             |      [113]: 8 transition_type 0x7e2-0x7e2.7 (1)
0x7e0|         07                                    |   .            |      [114]: 7 transition_type 0x7e3-0x7e3.7 (1)
0x7e0|            07                                 |    .           |      [115]: 7 transition_type 0x7e4-0x7e4.7 (1)
     |                                               |                |    local_time_type_records[0:9]: 0x7e5-0x81a.7 (54)
     |                                               |                |      [0]{}: local_time_type 0x7e5-0x7ea.7 (6)
0x7e0|               00 00 d2 a7                     |     ....       |        utoff: 53927 (valid) 0x7e5-0x7e8.7 (4)
0x7e0|                           00                  |         .      |        dst: 0 (valid) 0x7e9-0x7e9.7 (1)
0x7e0|                              00               |          .     |        idx: 0 (valid) 0x7ea-0x7ea.7 (1)
     |                                               |                |      [1]{}: local_time_type 0x7eb-0x7f0.7 (6)
0x7e0|                                 ff ff 81 27   |           ...' |        utoff: -32473 (valid) 0x7eb-0x7ee.7 (4)
0x7e0|                                             00|               .|        dst: 0 (valid) 0x7ef-0x7ef.7 (1)
0x7f0|00                                             |.               |        idx: 0 (valid) 0x7f0-0x7f0.7 (1)
     |                                               |                |      [2]{}: local_time_type 0x7f1-0x7f6.7 (6)
0x7f0|   ff ff 8f 80                                 | ....           |        utoff: -28800 (valid) 0x7f1-0x7f4.7 (4)
0x7f0|               00                              |     .          |        dst: 0 (valid) 0x7f5-0x7f5.7 (1)
0x7f0|                  04                           |      .         |        idx: 4 (valid) 0x7f6-0x7f6.7 (1)
     |                                               |                |      [3]{}: local_time_type 0x7f7-0x7fc.7 (6)
0x7f0|                     ff ff 9d 90               |       ....     |        utoff: -25200 (valid) 0x7f7-0x7fa.7 (4)
0x7f0|                                 01            |           .    |        dst: 1 (valid) 0x7fb-0x7fb.7 (1)
0x7f0|                                    08         |            .   |        idx: 8 (valid) 0x7fc-0x7fc.7 (1)
     |                                               |                |      [4]{}: local_time_type 0x7fd-0x802.7 (6)
0x7f0|                                       ff ff 9d|             ...|        utoff: -25200 (valid) 0x7fd-0x800.7 (4)
0x800|90                                             |.               |
0x800|   01                                          | .              |        dst: 1 (valid) 0x801-0x801.7 (1)
0x800|      0c                                       |  .             |        idx: 12 (valid) 0x802-0x802.7 (1)
     |                                               |                |      [5]{}: local_time_type 0x803-0x808.7 (6)
0x800|         ff ff 9d 90                           |   ....         |        utoff: -25200 (valid) 0x803-0x806.7 (4)
0x800|                     01                        |       .        |        dst: 1 (valid) 0x807-0x807.7 (1)
0x800|                        10                     |        .       |        idx: 16 (valid) 0x808-0x808.7 (1)
     |                                               |                |      [6]{}: local_time_type 0x809-0x80e.7 (6)
0x800|                           ff ff 81 70         |         ...p   |        utoff: -32400 (valid) 0x809-0x80c.7 (4)
0x800|                                       00      |             .  |        dst: 0 (valid) 0x80d-0x80d.7 (1)
0x800|                                          14   |              . |        idx: 20 (valid) 0x80e-0x80e.7 (1)
     |                                               |                |      [7]{}: local_time_type 0x80f-0x814.7 (6)
0x800|                                             ff|               .|        utoff: -28800 (valid) 0x80f-0x812.7 (4)
0x810|ff 8f 80                                       |...             |
0x810|         01                                    |   .            |        dst: 1 (valid) 0x813-0x813.7 (1)
0x810|            18                                 |    .           |        idx: 24 (valid) 0x814-0x814.7 (1)
     |                                               |                |      [8]{}: local_time_type 0x815-0x81a.7 (6)
0x810|               ff ff 81 70                     |     ...p       |        utoff: -32400 (valid) 0x815-0x818.7 (4)
0x810|                           00                  |         .      |        dst: 0 (valid) 0x819-0x819.7 (1)
0x810|                              1d               |          .     |        idx: 29 (valid) 0x81a-0x81a.7 (1)
     |                                               |                |    time_zone_designations[0:8]: 0x81b-0x83c.7 (34)
0x810|                                 4c 4d 54 00   |           LMT. |      [0]: "LMT" time_zone_designation 0x81b-0x81e.7 (4)
0x810|                                             50|               P|      [1]: "PST" time_zone_designation 0x81f-0x822.7 (4)
0x820|53 54 00                                       |ST.             |
0x820|         50 57 54 00                           |   PWT.         |      [2]: "PWT" time_zone_designation 0x823-0x826.7 (4)
0x820|                     50 50 54 00               |       PPT.     |      [3]: "PPT" time_zone_designation 0x827-0x82a.7 (4)
0x820|                                 50 44 54 00   |           PDT. |      [4]: "PDT" time_zone_designation 0x82b-0x82e.7 (4)
0x820|                                             59|               Y|      [5]: "YST" time_zone_designation 0x82f-0x832.7 (4)
0x830|53 54 00                                       |ST.             |
0x830|         41 4b 44 54 00                        |   AKDT.        |      [6]: "AKDT" time_zone_designation 0x833-0x837.7 (5)
0x830|                        41 4b 53 54 00         |        AKST.   |      [7]: "AKST" time_zone_designation 0x838-0x83c.7 (5)
     |                                               |                |    leap_second_records[0:27]: 0x83d-0x980.7 (324)
     |                                               |                |      [0]{}: leap_second_record 0x83d-0x848.7 (12)
0x830|                                       00 00 00|             ...|        occur: "1972-07-01T00:00:00Z" (78796800) 0x83d-0x844.7 (8)
0x840|00 04 b2 58 00                                 |...X.           |
0x840|               00 00 00 01                     |     ....       |        corr: 1 0x845-0x848.7 (4)
     |                                               |                |      [1]{}: leap_second_record 0x849-0x854.7 (12)
0x840|                           00 00 00 00 05 a4 ec|         .......|        occur: "1973-01-01T00:00:01Z" (94694401) 0x849-0x850.7 (8)
0x850|01                                             |.               |
0x850|   00 00 00 02                                 | ....           |        corr: 2 0x851-0x854.7 (4)
     |                                               |                |      [2]{}: leap_second_record 0x855-0x860.7 (12)
0x850|               00 00 00 00 07 86 1f 82         |     ........   |        occur: "1974-01-01T00:00:02Z" (126230402) 0x855-0x85c.7 (8)
0x850|                                       00 00 00|             ...|        corr: 3 0x85d-0x860.7 (4)
0x860|03                                             |.               |
     |                                               |                |      [3]{}: leap_second_record 0x861-0x86c.7 (12)
0x860|   00 00 00 00 09 67 53 03                     | .....gS.       |        occur: "1975-01-01T00:00:03Z" (157766403) 0x861-0x868.7 (8)
0x860|                           00 00 00 04         |         ....   |        corr: 4 0x869-0x86c.7 (4)
     |                                               |                |      [4]{}: leap_second_record 0x86d-0x878.7 (12)
0x860|                                       00 00 00|             ...|        occur: "1976-01-01T00:00:04Z" (189302404) 0x86d-0x874.7 (8)
0x870|00 0b 48 86 84                                 |..H..           |
0x870|               00 00 00 05                     |     ....       |        corr: 5 0x875-0x878.7 (4)
     |                                               |                |      [5]{}: leap_second_record 0x879-0x884.7 (12)
0x870|                           00 00 00 00 0d 2b 0b|         .....+.|        occur: "1977-01-01T00:00:05Z" (220924805) 0x879-0x880.7 (8)
0x880|85                                             |.               |
0x880|   00 00 00 06                                 | ....           |        corr: 6 0x881-0x884.7 (4)
     |                                               |                |      [6]{}: leap_second_record 0x885-0x890.7 (12)
0x880|               00 00 00 00 0f 0c 3f 06         |     ......?.   |        occur: "1978-01-01T00:00:06Z" (252460806) 0x885-0x88c.7 (8)
0x880|                                       00 00 00|             ...|        corr: 7 0x88d-0x890.7 (4)
0x890|07                                             |.               |
     |                                               |                |      [7]{}: leap_second_record 0x891-0x89c.7 (12)
0x890|   00 00 00 00 10 ed 72 87                     | ......r.       |        occur: "1979-01-01T00:00:07Z" (283996807) 0x891-0x898.7 (8)
0x890|                           00 00 00 08         |         ....   |        corr: 8 0x899-0x89c.7 (4)
     |                                               |                |      [8]{}: leap_second_record 0x89d-0x8a8.7 (12)
0x890|                                       00 00 00|             ...|        occur: "1980-01-01T00:00:08Z" (315532808) 0x89d-0x8a4.7 (8)
0x8a0|00 12 ce a6 08                                 |.....           |
0x8a0|               00 00 00 09                     |     ....       |        corr: 9 0x8a5-0x8a8.7 (4)
     |                                               |                |      [9]{}: leap_second_record 0x8a9-0x8b4.7 (12)
0x8a0|                           00 00 00 00 15 9f ca|         .......|        occur: "1981-07-01T00:00:09Z" (362793609) 0x8a9-0x8b0.7 (8)
0x8b0|89                                             |.               |
0x8b0|   00 00 00 0a                                 | ....           |        corr: 10 0x8b1-0x8b4.7 (4)
     |                                               |                |      [10]{}: leap_second_record 0x8b5-0x8c0.7 (12)
0x8b0|               00 00 00 00 17 80 fe 0a         |     ........   |        occur: "1982-07-01T00:00:10Z" (394329610) 0x8b5-0x8bc.7 (8)
0x8b0|                                       00 00 00|             ...|        corr: 11 0x8bd-0x8c0.7 (4)
0x8c0|0b                                             |.               |
     |                                               |                |      [11]{}: leap_second_record 0x8c1-0x8cc.7 (12)
0x8c0|   00 00 00 00 19 62 31 8b                     | .....b1.       |        occur: "1983-07-01T00:00:11Z" (425865611) 0x8c1-0x8c8.7 (8)
0x8c0|                           00 00 00 0c         |         ....   |        corr: 12 0x8c9-0x8cc.7 (4)
     |                                               |                |      [12]{}: leap_second_record 0x8cd-0x8d8.7 (12)
0x8c0|                                       00 00 00|             ...|        occur: "1985-07-01T00:00:12Z" (489024012) 0x8cd-0x8d4.7 (8)
0x8d0|00 1d 25 ea 0c                                 |..%..           |
0x8d0|               00 00 00 0d                     |     ....       |        corr: 13 0x8d5-0x8d8.7 (4)
     |                                               |                |      [13]{}: leap_second_record 0x8d9-0x8e4.7 (12)
0x8d0|                           00 00 00 00 21 da e5|         ....!..|        occur: "1988-01-01T00:00:13Z" (567993613) 0x8d9-0x8e0.7 (8)
0x8e0|0d                                             |.               |
0x8e0|   00 00 00 0e                                 | ....           |        corr: 14 0x8e1-0x8e4.7 (4)
     |                                               |                |      [14]{}: leap_second_record 0x8e5-0x8f0.7 (12)
0x8e0|               00 00 00 00 25 9e 9d 8e         |     ....%...   |        occur: "1990-01-01T00:00:14Z" (631152014) 0x8e5-0x8ec.7 (8)
0x8e0|                                       00 00 00|             ...|        corr: 15 0x8ed-0x8f0.7 (4)
0x8f0|0f                                             |.               |
     |                                               |                |      [15]{}: leap_second_record 0x8f1-0x8fc.7 (12)
0x8f0|   00 00 00 00 27 7f d1 0f                     | ....'...       |        occur: "1991-01-01T00:00:15Z" (662688015) 0x8f1-0x8f8.7 (8)
0x8f0|                           00 00 00 10         |         ....   |        corr: 16 0x8f9-0x8fc.7 (4)
     |                                               |                |      [16]{}: leap_second_record 0x8fd-0x908.7 (12)
0x8f0|                                       00 00 00|             ...|        occur: "1992-07-01T00:00:16Z" (709948816) 0x8fd-0x904.7 (8)
0x900|00 2a 50 f5 90                                 |.*P..           |
0x900|               00 00 00 11                     |     ....       |        corr: 17 0x905-0x908.7 (4)
     |                                               |                |      [17]{}: leap_second_record 0x909-0x914.7 (12)
0x900|                           00 00 00 00 2c 32 29|         ....,2)|        occur: "1993-07-01T00:00:17Z" (741484817) 0x909-0x910.7 (8)
0x910|11                                             |.               |
0x910|   00 00 00 12                                 | ....           |        corr: 18 0x911-0x914.7 (4)
     |                                               |                |      [18]{}: leap_second_record 0x915-0x920.7 (12)
0x910|               00 00 00 00 2e 13 5c 92         |     ......\.   |        occur: "1994-07-01T00:00:18Z" (773020818) 0x915-0x91c.7 (8)
0x910|                                       00 00 00|             ...|        corr: 19 0x91d-0x920.7 (4)
0x920|13                                             |.               |
     |                                               |                |      [19]{}: leap_second_record 0x921-0x92c.7 (12)
0x920|   00 00 00 00 30 e7 24 13                     | ....0.$.       |        occur: "1996-01-01T00:00:19Z" (820454419) 0x921-0x928.7 (8)
0x920|                           00 00 00 14         |         ....   |        corr: 20 0x929-0x92c.7 (4)
     |                                               |                |      [20]{}: leap_second_record 0x92d-0x938.7 (12)
0x920|                                       00 00 00|             ...|        occur: "1997-07-01T00:00:20Z" (867715220) 0x92d-0x934.7 (8)
0x930|00 33 b8 48 94                                 |.3.H.           |
0x930|               00 00 00 15                     |     ....       |        corr: 21 0x935-0x938.7 (4)
     |                                               |                |      [21]{}: leap_second_record 0x939-0x944.7 (12)
0x930|                           00 00 00 00 36 8c 10|         ....6..|        occur: "1999-01-01T00:00:21Z" (915148821) 0x939-0x940.7 (8)
0x940|15                                             |.               |
0x940|   00 00 00 16                                 | ....           |        corr: 22 0x941-0x944.7 (4)
     |                                               |                |      [22]{}: leap_second_record 0x945-0x950.7 (12)
0x940|               00 00 00 00 43 b7 1b 96         |     ....C...   |        occur: "2006-01-01T00:00:22Z" (1136073622) 0x945-0x94c.7 (8)
0x940|                                       00 00 00|             ...|        corr: 23 0x94d-0x950.7 (4)
0x950|17                                             |.               |
     |                                               |                |      [23]{}: leap_second_record 0x951-0x95c.7 (12)
0x950|   00 00 00 00 49 5c 07 97                     | ....I\..       |        occur: "2009-01-01T00:00:23Z" (1230768023) 0x951-0x958.7 (8)
0x950|                           00 00 00 18         |         ....   |        corr: 24 0x959-0x95c.7 (4)
     |                                               |                |      [24]{}: leap_second_record 0x95d-0x968.7 (12)
0x950|                                       00 00 00|             ...|        occur: "2012-07-01T00:00:24Z" (1341100824) 0x95d-0x964.7 (8)
0x960|00 4f ef 93 18                                 |.O...           |
0x960|               00 00 00 19                     |     ....       |        corr: 25 0x965-0x968.7 (4)
     |                                               |                |      [25]{}: leap_second_record 0x969-0x974.7 (12)
0x960|                           00 00 00 00 55 93 2d|         ....U.-|        occur: "2015-07-01T00:00:25Z" (1435708825) 0x969-0x970.7 (8)
0x970|99                                             |.               |
0x970|   00 00 00 1a                                 | ....           |        corr: 26 0x971-0x974.7 (4)
     |                                               |                |      [26]{}: leap_second_record 0x975-0x980.7 (12)
0x970|               00 00 00 00 58 68 46 9a         |     ....XhF.   |        occur: "2017-01-01T00:00:26Z" (1483228826) 0x975-0x97c.7 (8)
0x970|                                       00 00 00|             ...|        corr: 27 0x97d-0x980.7 (4)
0x980|1b                                             |.               |
     |                                               |                |    standard_wall_indicators[0:9]: 0x981-0x989.7 (9)
0x980|   00                                          | .              |      [0]: 0 standard_wall_indicator (valid) 0x981-0x981.7 (1)
0x980|      00                                       |  .             |      [1]: 0 standard_wall_indicator (valid) 0x982-0x982.7 (1)
0x980|         00                                    |   .            |      [2]: 0 standard_wall_indicator (valid) 0x983-0x983.7 (1)
0x980|            00                                 |    .           |      [3]: 0 standard_wall_indicator (valid) 0x984-0x984.7 (1)
0x980|               01                              |     .          |      [4]: 1 standard_wall_indicator (valid) 0x985-0x985.7 (1)
0x980|                  00                           |      .         |      [5]: 0 standard_wall_indicator (valid) 0x986-0x986.7 (1)
0x980|                     00                        |       .        |      [6]: 0 standard_wall_indicator (valid) 0x987-0x987.7 (1)
0x980|                        00                     |        .       |      [7]: 0 standard_wall_indicator (valid) 0x988-0x988.7 (1)
0x980|                           00                  |         .      |      [8]: 0 standard_wall_indicator (valid) 0x989-0x989.7 (1)
     |                                               |                |    ut_local_indicators[0:9]: 0x98a-0x992.7 (9)
0x980|                              00               |          .     |      [0]: 0 ut_local_indicator (valid) 0x98a-0x98a.7 (1)
0x980|                                 00            |           .    |      [1]: 0 ut_local_indicator (valid) 0x98b-0x98b.7 (1)
0x980|                                    00         |            .   |      [2]: 0 ut_local_indicator (valid) 0x98c-0x98c.7 (1)
0x980|                                       00      |             .  |      [3]: 0 ut_local_indicator (valid) 0x98d-0x98d.7 (1)
0x980|                                          01   |              . |      [4]: 1 ut_local_indicator (valid) 0x98e-0x98e.7 (1)
0x980|                                             00|               .|      [5]: 0 ut_local_indicator (valid) 0x98f-0x98f.7 (1)
0x990|00                                             |.               |      [6]: 0 ut_local_indicator (valid) 0x990-0x990.7 (1)
0x990|   00                                          | .              |      [7]: 0 ut_local_indicator (valid) 0x991-0x991.7 (1)
0x990|      00                                       |  .             |      [8]: 0 ut_local_indicator (valid) 0x992-0x992.7 (1)
     |                                               |                |  footer{}: 0x993-0x994.7 (2)
0x990|         0a                                    |   .            |    nl1: 10 (valid) 0x993-0x993.7 (1)
     |                                               |                |    tz_string: "" 0x994-NA (0)
0x990|            0a|                                |    .|          |    nl2: 10 (valid) 0x994-0x994.7 (1)
