$ fq -d tzif dv Sofia
     |00 01 02 03 04 05 06 07 08 09 0a 0b 0c 0d 0e 0f|0123456789abcdef|.{}: Sofia (tzif) 0x0-0x81d (2077)
     |                                               |                |  v1header{}: 0x0-0x2c (44)
0x000|54 5a 69 66                                    |TZif            |    magic: 0x545a6966 (valid) 0x0-0x4 (4)
0x000|            32                                 |    2           |    ver: "2" (0x32) (valid) 0x4-0x5 (1)
0x000|               00 00 00 00 00 00 00 00 00 00 00|     ...........|    reserved: raw bits 0x5-0x14 (15)
0x010|00 00 00 00                                    |....            |
0x010|            00 00 00 09                        |    ....        |    isutcnt: 9 0x14-0x18 (4)
0x010|                        00 00 00 09            |        ....    |    isstdcnt: 9 0x18-0x1c (4)
0x010|                                    00 00 00 00|            ....|    leapcnt: 0 0x1c-0x20 (4)
0x020|00 00 00 7d                                    |...}            |    timecnt: 125 0x20-0x24 (4)
0x020|            00 00 00 09                        |    ....        |    typecnt: 9 0x24-0x28 (4)
0x020|                        00 00 00 16            |        ....    |    charcnt: 22 0x28-0x2c (4)
     |                                               |                |  v1datablock{}: 0x2c-0x2fb (719)
     |                                               |                |    transition_times[0:125]: 0x2c-0x220 (500)
0x020|                                    80 00 00 00|            ....|      [0]: "1901-12-13T20:45:52Z" (-2147483648) transition_time 0x2c-0x30 (4)
0x030|cc e7 4b 10                                    |..K.            |      [1]: "1942-11-02T01:00:00Z" (-857257200) transition_time 0x30-0x34 (4)
0x030|            cd a9 17 90                        |    ....        |      [2]: "1943-03-29T01:00:00Z" (-844556400) transition_time 0x34-0x38 (4)
0x030|                        ce a2 43 10            |        ..C.    |      [3]: "1943-10-04T01:00:00Z" (-828226800) transition_time 0x38-0x3c (4)
0x030|                                    cf 92 34 10|            ..4.|      [4]: "1944-04-03T01:00:00Z" (-812502000) transition_time 0x3c-0x40 (4)
0x040|d0 82 25 10                                    |..%.            |      [5]: "1944-10-02T01:00:00Z" (-796777200) transition_time 0x40-0x44 (4)
0x040|            d1 72 24 20                        |    .r$         |      [6]: "1945-04-02T02:00:00Z" (-781048800) transition_time 0x44-0x48 (4)
0x040|                        11 63 ef 50            |        .c.P    |      [7]: "1979-03-31T21:00:00Z" (291762000) transition_time 0x48-0x4c (4)
0x040|                                    12 55 3f e0|            .U?.|      [8]: "1979-09-30T22:00:00Z" (307576800) transition_time 0x4c-0x50 (4)
0x050|13 4d 0b d0                                    |.M..            |      [9]: "1980-04-05T21:00:00Z" (323816400) transition_time 0x50-0x54 (4)
0x050|            14 35 21 e0                        |    .5!.        |      [10]: "1980-09-28T22:00:00Z" (339026400) transition_time 0x54-0x58 (4)
0x050|                        15 2c ed d0            |        .,..    |      [11]: "1981-04-04T21:00:00Z" (355266000) transition_time 0x58-0x5c (4)
0x050|                                    16 13 c0 70|            ...p|      [12]: "1981-09-26T23:00:00Z" (370393200) transition_time 0x5c-0x60 (4)
0x060|17 0c cf d0                                    |....            |      [13]: "1982-04-03T21:00:00Z" (386715600) transition_time 0x60-0x64 (4)
0x060|            17 f3 b0 80                        |    ....        |      [14]: "1982-09-26T00:00:00Z" (401846400) transition_time 0x64-0x68 (4)
0x060|                        18 e3 a1 80            |        ....    |      [15]: "1983-03-27T00:00:00Z" (417571200) transition_time 0x68-0x6c (4)
0x060|                                    19 d3 92 80|            ....|      [16]: "1983-09-25T00:00:00Z" (433296000) transition_time 0x6c-0x70 (4)
0x070|1a c3 83 80                                    |....            |      [17]: "1984-03-25T00:00:00Z" (449020800) transition_time 0x70-0x74 (4)
0x070|            1b bc af 00                        |    ....        |      [18]: "1984-09-30T00:00:00Z" (465350400) transition_time 0x74-0x78 (4)
0x070|                        1c ac a0 00            |        ....    |      [19]: "1985-03-31T00:00:00Z" (481075200) transition_time 0x78-0x7c (4)
0x070|                                    1d 9c 91 00|            ....|      [20]: "1985-09-29T00:00:00Z" (496800000) transition_time 0x7c-0x80 (4)
0x080|1e 8c 82 00                                    |....            |      [21]: "1986-03-30T00:00:00Z" (512524800) transition_time 0x80-0x84 (4)
0x080|            1f 7c 73 00                        |    .|s.        |      [22]: "1986-09-28T00:00:00Z" (528249600) transition_time 0x84-0x88 (4)
0x080|                        20 6c 64 00            |         ld.    |      [23]: "1987-03-29T00:00:00Z" (543974400) transition_time 0x88-0x8c (4)
0x080|                                    21 5c 55 00|            !\U.|      [24]: "1987-09-27T00:00:00Z" (559699200) transition_time 0x8c-0x90 (4)
0x090|22 4c 46 00                                    |"LF.            |      [25]: "1988-03-27T00:00:00Z" (575424000) transition_time 0x90-0x94 (4)
0x090|            23 3c 37 00                        |    #<7.        |      [26]: "1988-09-25T00:00:00Z" (591148800) transition_time 0x94-0x98 (4)
0x090|                        24 2c 28 00            |        $,(.    |      [27]: "1989-03-26T00:00:00Z" (606873600) transition_time 0x98-0x9c (4)
0x090|                                    25 1c 19 00|            %...|      [28]: "1989-09-24T00:00:00Z" (622598400) transition_time 0x9c-0xa0 (4)
0x0a0|26 0c 0a 00                                    |&...            |      [29]: "1990-03-25T00:00:00Z" (638323200) transition_time 0xa0-0xa4 (4)
0x0a0|            27 05 35 80                        |    '.5.        |      [30]: "1990-09-30T00:00:00Z" (654652800) transition_time 0xa4-0xa8 (4)
0x0a0|                        27 f5 0a 60            |        '..`    |      [31]: "1991-03-30T22:00:00Z" (670370400) transition_time 0xa8-0xac (4)
0x0a0|                                    28 e4 ed 50|            (..P|      [32]: "1991-09-28T21:00:00Z" (686091600) transition_time 0xac-0xb0 (4)
0x0b0|29 d4 ec 60                                    |)..`            |      [33]: "1992-03-28T22:00:00Z" (701820000) transition_time 0xb0-0xb4 (4)
0x0b0|            2a c4 cf 50                        |    *..P        |      [34]: "1992-09-26T21:00:00Z" (717541200) transition_time 0xb4-0xb8 (4)
0x0b0|                        2b b4 ce 60            |        +..`    |      [35]: "1993-03-27T22:00:00Z" (733269600) transition_time 0xb8-0xbc (4)
0x0b0|                                    2c a4 b1 50|            ,..P|      [36]: "1993-09-25T21:00:00Z" (748990800) transition_time 0xbc-0xc0 (4)
0x0c0|2d 94 b0 60                                    |-..`            |      [37]: "1994-03-26T22:00:00Z" (764719200) transition_time 0xc0-0xc4 (4)
0x0c0|            2e 84 93 50                        |    ...P        |      [38]: "1994-09-24T21:00:00Z" (780440400) transition_time 0xc4-0xc8 (4)
0x0c0|                        2f 74 92 60            |        /t.`    |      [39]: "1995-03-25T22:00:00Z" (796168800) transition_time 0xc8-0xcc (4)
0x0c0|                                    30 64 75 50|            0duP|      [40]: "1995-09-23T21:00:00Z" (811890000) transition_time 0xcc-0xd0 (4)
0x0d0|31 5d ae e0                                    |1]..            |      [41]: "1996-03-30T22:00:00Z" (828223200) transition_time 0xd0-0xd4 (4)
0x0d0|            32 72 7b d0                        |    2r{.        |      [42]: "1996-10-26T21:00:00Z" (846363600) transition_time 0xd4-0xd8 (4)
0x0d0|                        33 3d bb 10            |        3=..    |      [43]: "1997-03-30T01:00:00Z" (859683600) transition_time 0xd8-0xdc (4)
0x0d0|                                    34 52 96 10|            4R..|      [44]: "1997-10-26T01:00:00Z" (877827600) transition_time 0xdc-0xe0 (4)
0x0e0|35 1d 9d 10                                    |5...            |      [45]: "1998-03-29T01:00:00Z" (891133200) transition_time 0xe0-0xe4 (4)
0x0e0|            36 32 78 10                        |    62x.        |      [46]: "1998-10-25T01:00:00Z" (909277200) transition_time 0xe4-0xe8 (4)
0x0e0|                        36 fd 7f 10            |        6...    |      [47]: "1999-03-28T01:00:00Z" (922582800) transition_time 0xe8-0xec (4)
0x0e0|                                    38 1b 94 90|            8...|      [48]: "1999-10-31T01:00:00Z" (941331600) transition_time 0xec-0xf0 (4)
0x0f0|38 dd 61 10                                    |8.a.            |      [49]: "2000-03-26T01:00:00Z" (954032400) transition_time 0xf0-0xf4 (4)
0x0f0|            39 fb 76 90                        |    9.v.        |      [50]: "2000-10-29T01:00:00Z" (972781200) transition_time 0xf4-0xf8 (4)
0x0f0|                        3a bd 43 10            |        :.C.    |      [51]: "2001-03-25T01:00:00Z" (985482000) transition_time 0xf8-0xfc (4)
0x0f0|                                    3b db 58 90|            ;.X.|      [52]: "2001-10-28T01:00:00Z" (1004230800) transition_time 0xfc-0x100 (4)
0x100|3c a6 5f 90                                    |<._.            |      [53]: "2002-03-31T01:00:00Z" (1017536400) transition_time 0x100-0x104 (4)
0x100|            3d bb 3a 90                        |    =.:.        |      [54]: "2002-10-27T01:00:00Z" (1035680400) transition_time 0x104-0x108 (4)
0x100|                        3e 86 41 90            |        >.A.    |      [55]: "2003-03-30T01:00:00Z" (1048986000) transition_time 0x108-0x10c (4)
0x100|                                    3f 9b 1c 90|            ?...|      [56]: "2003-10-26T01:00:00Z" (1067130000) transition_time 0x10c-0x110 (4)
0x110|40 66 23 90                                    |@f#.            |      [57]: "2004-03-28T01:00:00Z" (1080435600) transition_time 0x110-0x114 (4)
0x110|            41 84 39 10                        |    A.9.        |      [58]: "2004-10-31T01:00:00Z" (1099184400) transition_time 0x114-0x118 (4)
0x110|                        42 46 05 90            |        BF..    |      [59]: "2005-03-27T01:00:00Z" (1111885200) transition_time 0x118-0x11c (4)
0x110|                                    43 64 1b 10|            Cd..|      [60]: "2005-10-30T01:00:00Z" (1130634000) transition_time 0x11c-0x120 (4)
0x120|44 25 e7 90                                    |D%..            |      [61]: "2006-03-26T01:00:00Z" (1143334800) transition_time 0x120-0x124 (4)
0x120|            45 43 fd 10                        |    EC..        |      [62]: "2006-10-29T01:00:00Z" (1162083600) transition_time 0x124-0x128 (4)
0x120|                        46 05 c9 90            |        F...    |      [63]: "2007-03-25T01:00:00Z" (1174784400) transition_time 0x128-0x12c (4)
0x120|                                    47 23 df 10|            G#..|      [64]: "2007-10-28T01:00:00Z" (1193533200) transition_time 0x12c-0x130 (4)
0x130|47 ee e6 10                                    |G...            |      [65]: "2008-03-30T01:00:00Z" (1206838800) transition_time 0x130-0x134 (4)
0x130|            49 03 c1 10                        |    I...        |      [66]: "2008-10-26T01:00:00Z" (1224982800) transition_time 0x134-0x138 (4)
0x130|                        49 ce c8 10            |        I...    |      [67]: "2009-03-29T01:00:00Z" (1238288400) transition_time 0x138-0x13c (4)
0x130|                                    4a e3 a3 10|            J...|      [68]: "2009-10-25T01:00:00Z" (1256432400) transition_time 0x13c-0x140 (4)
0x140|4b ae aa 10                                    |K...            |      [69]: "2010-03-28T01:00:00Z" (1269738000) transition_time 0x140-0x144 (4)
0x140|            4c cc bf 90                        |    L...        |      [70]: "2010-10-31T01:00:00Z" (1288486800) transition_time 0x144-0x148 (4)
0x140|                        4d 8e 8c 10            |        M...    |      [71]: "2011-03-27T01:00:00Z" (1301187600) transition_time 0x148-0x14c (4)
0x140|                                    4e ac a1 90|            N...|      [72]: "2011-10-30T01:00:00Z" (1319936400) transition_time 0x14c-0x150 (4)
0x150|4f 6e 6e 10                                    |Onn.            |      [73]: "2012-03-25T01:00:00Z" (1332637200) transition_time 0x150-0x154 (4)
0x150|            50 8c 83 90                        |    P...        |      [74]: "2012-10-28T01:00:00Z" (1351386000) transition_time 0x154-0x158 (4)
0x150|                        51 57 8a 90            |        QW..    |      [75]: "2013-03-31T01:00:00Z" (1364691600) transition_time 0x158-0x15c (4)
0x150|                                    52 6c 65 90|            Rle.|      [76]: "2013-10-27T01:00:00Z" (1382835600) transition_time 0x15c-0x160 (4)
0x160|53 37 6c 90                                    |S7l.            |      [77]: "2014-03-30T01:00:00Z" (1396141200) transition_time 0x160-0x164 (4)
0x160|            54 4c 47 90                        |    TLG.        |      [78]: "2014-10-26T01:00:00Z" (1414285200) transition_time 0x164-0x168 (4)
0x160|                        55 17 4e 90            |        U.N.    |      [79]: "2015-03-29T01:00:00Z" (1427590800) transition_time 0x168-0x16c (4)
0x160|                                    56 2c 29 90|            V,).|      [80]: "2015-10-25T01:00:00Z" (1445734800) transition_time 0x16c-0x170 (4)
0x170|56 f7 30 90                                    |V.0.            |      [81]: "2016-03-27T01:00:00Z" (1459040400) transition_time 0x170-0x174 (4)
0x170|            58 15 46 10                        |    X.F.        |      [82]: "2016-10-30T01:00:00Z" (1477789200) transition_time 0x174-0x178 (4)
0x170|                        58 d7 12 90            |        X...    |      [83]: "2017-03-26T01:00:00Z" (1490490000) transition_time 0x178-0x17c (4)
0x170|                                    59 f5 28 10|            Y.(.|      [84]: "2017-10-29T01:00:00Z" (1509238800) transition_time 0x17c-0x180 (4)
0x180|5a b6 f4 90                                    |Z...            |      [85]: "2018-03-25T01:00:00Z" (1521939600) transition_time 0x180-0x184 (4)
0x180|            5b d5 0a 10                        |    [...        |      [86]: "2018-10-28T01:00:00Z" (1540688400) transition_time 0x184-0x188 (4)
0x180|                        5c a0 11 10            |        \...    |      [87]: "2019-03-31T01:00:00Z" (1553994000) transition_time 0x188-0x18c (4)
0x180|                                    5d b4 ec 10|            ]...|      [88]: "2019-10-27T01:00:00Z" (1572138000) transition_time 0x18c-0x190 (4)
0x190|5e 7f f3 10                                    |^...            |      [89]: "2020-03-29T01:00:00Z" (1585443600) transition_time 0x190-0x194 (4)
0x190|            5f 94 ce 10                        |    _...        |      [90]: "2020-10-25T01:00:00Z" (1603587600) transition_time 0x194-0x198 (4)
0x190|                        60 5f d5 10            |        `_..    |      [91]: "2021-03-28T01:00:00Z" (1616893200) transition_time 0x198-0x19c (4)
0x190|                                    61 7d ea 90|            a}..|      [92]: "2021-10-31T01:00:00Z" (1635642000) transition_time 0x19c-0x1a0 (4)
0x1a0|62 3f b7 10                                    |b?..            |      [93]: "2022-03-27T01:00:00Z" (1648342800) transition_time 0x1a0-0x1a4 (4)
0x1a0|            63 5d cc 90                        |    c]..        |      [94]: "2022-10-30T01:00:00Z" (1667091600) transition_time 0x1a4-0x1a8 (4)
0x1a0|                        64 1f 99 10            |        d...    |      [95]: "2023-03-26T01:00:00Z" (1679792400) transition_time 0x1a8-0x1ac (4)
0x1a0|                                    65 3d ae 90|            e=..|      [96]: "2023-10-29T01:00:00Z" (1698541200) transition_time 0x1ac-0x1b0 (4)
0x1b0|66 08 b5 90                                    |f...            |      [97]: "2024-03-31T01:00:00Z" (1711846800) transition_time 0x1b0-0x1b4 (4)
0x1b0|            67 1d 90 90                        |    g...        |      [98]: "2024-10-27T01:00:00Z" (1729990800) transition_time 0x1b4-0x1b8 (4)
0x1b0|                        67 e8 97 90            |        g...    |      [99]: "2025-03-30T01:00:00Z" (1743296400) transition_time 0x1b8-0x1bc (4)
0x1b0|                                    68 fd 72 90|            h.r.|      [100]: "2025-10-26T01:00:00Z" (1761440400) transition_time 0x1bc-0x1c0 (4)
0x1c0|69 c8 79 90                                    |i.y.            |      [101]: "2026-03-29T01:00:00Z" (1774746000) transition_time 0x1c0-0x1c4 (4)
0x1c0|            6a dd 54 90                        |    j.T.        |      [102]: "2026-10-25T01:00:00Z" (1792890000) transition_time 0x1c4-0x1c8 (4)
0x1c0|                        6b a8 5b 90            |        k.[.    |      [103]: "2027-03-28T01:00:00Z" (1806195600) transition_time 0x1c8-0x1cc (4)
0x1c0|                                    6c c6 71 10|            l.q.|      [104]: "2027-10-31T01:00:00Z" (1824944400) transition_time 0x1cc-0x1d0 (4)
0x1d0|6d 88 3d 90                                    |m.=.            |      [105]: "2028-03-26T01:00:00Z" (1837645200) transition_time 0x1d0-0x1d4 (4)
0x1d0|            6e a6 53 10                        |    n.S.        |      [106]: "2028-10-29T01:00:00Z" (1856394000) transition_time 0x1d4-0x1d8 (4)
0x1d0|                        6f 68 1f 90            |        oh..    |      [107]: "2029-03-25T01:00:00Z" (1869094800) transition_time 0x1d8-0x1dc (4)
0x1d0|                                    70 86 35 10|            p.5.|      [108]: "2029-10-28T01:00:00Z" (1887843600) transition_time 0x1dc-0x1e0 (4)
0x1e0|71 51 3c 10                                    |qQ<.            |      [109]: "2030-03-31T01:00:00Z" (1901149200) transition_time 0x1e0-0x1e4 (4)
0x1e0|            72 66 17 10                        |    rf..        |      [110]: "2030-10-27T01:00:00Z" (1919293200) transition_time 0x1e4-0x1e8 (4)
0x1e0|                        73 31 1e 10            |        s1..    |      [111]: "2031-03-30T01:00:00Z" (1932598800) transition_time 0x1e8-0x1ec (4)
0x1e0|                                    74 45 f9 10|            tE..|      [112]: "2031-10-26T01:00:00Z" (1950742800) transition_time 0x1ec-0x1f0 (4)
0x1f0|75 11 00 10                                    |u...            |      [113]: "2032-03-28T01:00:00Z" (1964048400) transition_time 0x1f0-0x1f4 (4)
0x1f0|            76 2f 15 90                        |    v/..        |      [114]: "2032-10-31T01:00:00Z" (1982797200) transition_time 0x1f4-0x1f8 (4)
0x1f0|                        76 f0 e2 10            |        v...    |      [115]: "2033-03-27T01:00:00Z" (1995498000) transition_time 0x1f8-0x1fc (4)
0x1f0|                                    78 0e f7 90|            x...|      [116]: "2033-10-30T01:00:00Z" (2014246800) transition_time 0x1fc-0x200 (4)
0x200|78 d0 c4 10                                    |x...            |      [117]: "2034-03-26T01:00:00Z" (2026947600) transition_time 0x200-0x204 (4)
0x200|            79 ee d9 90                        |    y...        |      [118]: "2034-10-29T01:00:00Z" (2045696400) transition_time 0x204-0x208 (4)
0x200|                        7a b0 a6 10            |        z...    |      [119]: "2035-03-25T01:00:00Z" (2058397200) transition_time 0x208-0x20c (4)
0x200|                                    7b ce bb 90|            {...|      [120]: "2035-10-28T01:00:00Z" (2077146000) transition_time 0x20c-0x210 (4)
0x210|7c 99 c2 90                                    ||...            |      [121]: "2036-03-30T01:00:00Z" (2090451600) transition_time 0x210-0x214 (4)
0x210|            7d ae 9d 90                        |    }...        |      [122]: "2036-10-26T01:00:00Z" (2108595600) transition_time 0x214-0x218 (4)
0x210|                        7e 79 a4 90            |        ~y..    |      [123]: "2037-03-29T01:00:00Z" (2121901200) transition_time 0x218-0x21c (4)
0x210|                                    7f 8e 7f 90|            ....|      [124]: "2037-10-25T01:00:00Z" (2140045200) transition_time 0x21c-0x220 (4)
     |                                               |                |    transition_types[0:125]: 0x220-0x29d (125)
0x220|01                                             |.               |      [0]: 1 transition_type 0x220-0x221 (1)
0x220|   02                                          | .              |      [1]: 2 transition_type 0x221-0x222 (1)
0x220|      03                                       |  .             |      [2]: 3 transition_type 0x222-0x223 (1)
0x220|         02                                    |   .            |      [3]: 2 transition_type 0x223-0x224 (1)
0x220|            03                                 |    .           |      [4]: 3 transition_type 0x224-0x225 (1)
0x220|               02                              |     .          |      [5]: 2 transition_type 0x225-0x226 (1)
0x220|                  01                           |      .         |      [6]: 1 transition_type 0x226-0x227 (1)
0x220|                     04                        |       .        |      [7]: 4 transition_type 0x227-0x228 (1)
0x220|                        01                     |        .       |      [8]: 1 transition_type 0x228-0x229 (1)
0x220|                           04                  |         .      |      [9]: 4 transition_type 0x229-0x22a (1)
0x220|                              01               |          .     |      [10]: 1 transition_type 0x22a-0x22b (1)
0x220|                                 04            |           .    |      [11]: 4 transition_type 0x22b-0x22c (1)
0x220|                                    01         |            .   |      [12]: 1 transition_type 0x22c-0x22d (1)
0x220|                                       04      |             .  |      [13]: 4 transition_type 0x22d-0x22e (1)
0x220|                                          05   |              . |      [14]: 5 transition_type 0x22e-0x22f (1)
0x220|                                             06|               .|      [15]: 6 transition_type 0x22f-0x230 (1)
0x230|05                                             |.               |      [16]: 5 transition_type 0x230-0x231 (1)
0x230|   06                                          | .              |      [17]: 6 transition_type 0x231-0x232 (1)
0x230|      05                                       |  .             |      [18]: 5 transition_type 0x232-0x233 (1)
0x230|         06                                    |   .            |      [19]: 6 transition_type 0x233-0x234 (1)
0x230|            05                                 |    .           |      [20]: 5 transition_type 0x234-0x235 (1)
0x230|               06                              |     .          |      [21]: 6 transition_type 0x235-0x236 (1)
0x230|                  05                           |      .         |      [22]: 5 transition_type 0x236-0x237 (1)
0x230|                     06                        |       .        |      [23]: 6 transition_type 0x237-0x238 (1)
0x230|                        05                     |        .       |      [24]: 5 transition_type 0x238-0x239 (1)
0x230|                           06                  |         .      |      [25]: 6 transition_type 0x239-0x23a (1)
0x230|                              05               |          .     |      [26]: 5 transition_type 0x23a-0x23b (1)
0x230|                                 06            |           .    |      [27]: 6 transition_type 0x23b-0x23c (1)
0x230|                                    05         |            .   |      [28]: 5 transition_type 0x23c-0x23d (1)
0x230|                                       06      |             .  |      [29]: 6 transition_type 0x23d-0x23e (1)
0x230|                                          05   |              . |      [30]: 5 transition_type 0x23e-0x23f (1)
0x230|                                             04|               .|      [31]: 4 transition_type 0x23f-0x240 (1)
0x240|01                                             |.               |      [32]: 1 transition_type 0x240-0x241 (1)
0x240|   04                                          | .              |      [33]: 4 transition_type 0x241-0x242 (1)
0x240|      01                                       |  .             |      [34]: 1 transition_type 0x242-0x243 (1)
0x240|         04                                    |   .            |      [35]: 4 transition_type 0x243-0x244 (1)
0x240|            01                                 |    .           |      [36]: 1 transition_type 0x244-0x245 (1)
0x240|               04                              |     .          |      [37]: 4 transition_type 0x245-0x246 (1)
0x240|                  01                           |      .         |      [38]: 1 transition_type 0x246-0x247 (1)
0x240|                     04                        |       .        |      [39]: 4 transition_type 0x247-0x248 (1)
0x240|                        01                     |        .       |      [40]: 1 transition_type 0x248-0x249 (1)
0x240|                           04                  |         .      |      [41]: 4 transition_type 0x249-0x24a (1)
0x240|                              01               |          .     |      [42]: 1 transition_type 0x24a-0x24b (1)
0x240|                                 07            |           .    |      [43]: 7 transition_type 0x24b-0x24c (1)
0x240|                                    08         |            .   |      [44]: 8 transition_type 0x24c-0x24d (1)
0x240|                                       07      |             .  |      [45]: 7 transition_type 0x24d-0x24e (1)
0x240|                                          08   |              . |      [46]: 8 transition_type 0x24e-0x24f (1)
0x240|                                             07|               .|      [47]: 7 transition_type 0x24f-0x250 (1)
0x250|08                                             |.               |      [48]: 8 transition_type 0x250-0x251 (1)
0x250|   07                                          | .              |      [49]: 7 transition_type 0x251-0x252 (1)
0x250|      08                                       |  .             |      [50]: 8 transition_type 0x252-0x253 (1)
0x250|         07                                    |   .            |      [51]: 7 transition_type 0x253-0x254 (1)
0x250|            08                                 |    .           |      [52]: 8 transition_type 0x254-0x255 (1)
0x250|               07                              |     .          |      [53]: 7 transition_type 0x255-0x256 (1)
0x250|                  08                           |      .         |      [54]: 8 transition_type 0x256-0x257 (1)
0x250|                     07                        |       .        |      [55]: 7 transition_type 0x257-0x258 (1)
0x250|                        08                     |        .       |      [56]: 8 transition_type 0x258-0x259 (1)
0x250|                           07                  |         .      |      [57]: 7 transition_type 0x259-0x25a (1)
0x250|                              08               |          .     |      [58]: 8 transition_type 0x25a-0x25b (1)
0x250|                                 07            |           .    |      [59]: 7 transition_type 0x25b-0x25c (1)
0x250|                                    08         |            .   |      [60]: 8 transition_type 0x25c-0x25d (1)
0x250|                                       07      |             .  |      [61]: 7 transition_type 0x25d-0x25e (1)
0x250|                                          08   |              . |      [62]: 8 transition_type 0x25e-0x25f (1)
0x250|                                             07|               .|      [63]: 7 transition_type 0x25f-0x260 (1)
0x260|08                                             |.               |      [64]: 8 transition_type 0x260-0x261 (1)
0x260|   07                                          | .              |      [65]: 7 transition_type 0x261-0x262 (1)
0x260|      08                                       |  .             |      [66]: 8 transition_type 0x262-0x263 (1)
0x260|         07                                    |   .            |      [67]: 7 transition_type 0x263-0x264 (1)
0x260|            08                                 |    .           |      [68]: 8 transition_type 0x264-0x265 (1)
0x260|               07                              |     .          |      [69]: 7 transition_type 0x265-0x266 (1)
0x260|                  08                           |      .         |      [70]: 8 transition_type 0x266-0x267 (1)
0x260|                     07                        |       .        |      [71]: 7 transition_type 0x267-0x268 (1)
0x260|                        08                     |        .       |      [72]: 8 transition_type 0x268-0x269 (1)
0x260|                           07                  |         .      |      [73]: 7 transition_type 0x269-0x26a (1)
0x260|                              08               |          .     |      [74]: 8 transition_type 0x26a-0x26b (1)
0x260|                                 07            |           .    |      [75]: 7 transition_type 0x26b-0x26c (1)
0x260|                                    08         |            .   |      [76]: 8 transition_type 0x26c-0x26d (1)
0x260|                                       07      |             .  |      [77]: 7 transition_type 0x26d-0x26e (1)
0x260|                                          08   |              . |      [78]: 8 transition_type 0x26e-0x26f (1)
0x260|                                             07|               .|      [79]: 7 transition_type 0x26f-0x270 (1)
0x270|08                                             |.               |      [80]: 8 transition_type 0x270-0x271 (1)
0x270|   07                                          | .              |      [81]: 7 transition_type 0x271-0x272 (1)
0x270|      08                                       |  .             |      [82]: 8 transition_type 0x272-0x273 (1)
0x270|         07                                    |   .            |      [83]: 7 transition_type 0x273-0x274 (1)
0x270|            08                                 |    .           |      [84]: 8 transition_type 0x274-0x275 (1)
0x270|               07                              |     .          |      [85]: 7 transition_type 0x275-0x276 (1)
0x270|                  08                           |      .         |      [86]: 8 transition_type 0x276-0x277 (1)
0x270|                     07                        |       .        |      [87]: 7 transition_type 0x277-0x278 (1)
0x270|                        08                     |        .       |      [88]: 8 transition_type 0x278-0x279 (1)
0x270|                           07                  |         .      |      [89]: 7 transition_type 0x279-0x27a (1)
0x270|                              08               |          .     |      [90]: 8 transition_type 0x27a-0x27b (1)
0x270|                                 07            |           .    |      [91]: 7 transition_type 0x27b-0x27c (1)
0x270|                                    08         |            .   |      [92]: 8 transition_type 0x27c-0x27d (1)
0x270|                                       07      |             .  |      [93]: 7 transition_type 0x27d-0x27e (1)
0x270|                                          08   |              . |      [94]: 8 transition_type 0x27e-0x27f (1)
0x270|                                             07|               .|      [95]: 7 transition_type 0x27f-0x280 (1)
0x280|08                                             |.               |      [96]: 8 transition_type 0x280-0x281 (1)
0x280|   07                                          | .              |      [97]: 7 transition_type 0x281-0x282 (1)
0x280|      08                                       |  .             |      [98]: 8 transition_type 0x282-0x283 (1)
0x280|         07                                    |   .            |      [99]: 7 transition_type 0x283-0x284 (1)
0x280|            08                                 |    .           |      [100]: 8 transition_type 0x284-0x285 (1)
0x280|               07                              |     .          |      [101]: 7 transition_type 0x285-0x286 (1)
0x280|                  08                           |      .         |      [102]: 8 transition_type 0x286-0x287 (1)
0x280|                     07                        |       .        |      [103]: 7 transition_type 0x287-0x288 (1)
0x280|                        08                     |        .       |      [104]: 8 transition_type 0x288-0x289 (1)
0x280|                           07                  |         .      |      [105]: 7 transition_type 0x289-0x28a (1)
0x280|                              08               |          .     |      [106]: 8 transition_type 0x28a-0x28b (1)
0x280|                                 07            |           .    |      [107]: 7 transition_type 0x28b-0x28c (1)
0x280|                                    08         |            .   |      [108]: 8 transition_type 0x28c-0x28d (1)
0x280|                                       07      |             .  |      [109]: 7 transition_type 0x28d-0x28e (1)
0x280|                                          08   |              . |      [110]: 8 transition_type 0x28e-0x28f (1)
0x280|                                             07|               .|      [111]: 7 transition_type 0x28f-0x290 (1)
0x290|08                                             |.               |      [112]: 8 transition_type 0x290-0x291 (1)
0x290|   07                                          | .              |      [113]: 7 transition_type 0x291-0x292 (1)
0x290|      08                                       |  .             |      [114]: 8 transition_type 0x292-0x293 (1)
0x290|         07                                    |   .            |      [115]: 7 transition_type 0x293-0x294 (1)
0x290|            08                                 |    .           |      [116]: 8 transition_type 0x294-0x295 (1)
0x290|               07                              |     .          |      [117]: 7 transition_type 0x295-0x296 (1)
0x290|                  08                           |      .         |      [118]: 8 transition_type 0x296-0x297 (1)
0x290|                     07                        |       .        |      [119]: 7 transition_type 0x297-0x298 (1)
0x290|                        08                     |        .       |      [120]: 8 transition_type 0x298-0x299 (1)
0x290|                           07                  |         .      |      [121]: 7 transition_type 0x299-0x29a (1)
0x290|                              08               |          .     |      [122]: 8 transition_type 0x29a-0x29b (1)
0x290|                                 07            |           .    |      [123]: 7 transition_type 0x29b-0x29c (1)
0x290|                                    08         |            .   |      [124]: 8 transition_type 0x29c-0x29d (1)
     |                                               |                |    local_time_type_records[0:9]: 0x29d-0x2d3 (54)
     |                                               |                |      [0]{}: local_time_type 0x29d-0x2a3 (6)
0x290|                                       00 00 15|             ...|        utoff: 5596 (valid) 0x29d-0x2a1 (4)
0x2a0|dc                                             |.               |
0x2a0|   00                                          | .              |        dst: 0 (valid) 0x2a1-0x2a2 (1)
0x2a0|      00                                       |  .             |        idx: 0 (valid) 0x2a2-0x2a3 (1)
     |                                               |                |      [1]{}: local_time_type 0x2a3-0x2a9 (6)
0x2a0|         00 00 1c 20                           |   ...          |        utoff: 7200 (valid) 0x2a3-0x2a7 (4)
0x2a0|                     00                        |       .        |        dst: 0 (valid) 0x2a7-0x2a8 (1)
0x2a0|                        04                     |        .       |        idx: 4 (valid) 0x2a8-0x2a9 (1)
     |                                               |                |      [2]{}: local_time_type 0x2a9-0x2af (6)
0x2a0|                           00 00 0e 10         |         ....   |        utoff: 3600 (valid) 0x2a9-0x2ad (4)
0x2a0|                                       00      |             .  |        dst: 0 (valid) 0x2ad-0x2ae (1)
0x2a0|                                          08   |              . |        idx: 8 (valid) 0x2ae-0x2af (1)
     |                                               |                |      [3]{}: local_time_type 0x2af-0x2b5 (6)
0x2a0|                                             00|               .|        utoff: 7200 (valid) 0x2af-0x2b3 (4)
0x2b0|00 1c 20                                       |..              |
0x2b0|         01                                    |   .            |        dst: 1 (valid) 0x2b3-0x2b4 (1)
0x2b0|            0c                                 |    .           |        idx: 12 (valid) 0x2b4-0x2b5 (1)
     |                                               |                |      [4]{}: local_time_type 0x2b5-0x2bb (6)
0x2b0|               00 00 2a 30                     |     ..*0       |        utoff: 10800 (valid) 0x2b5-0x2b9 (4)
0x2b0|                           01                  |         .      |        dst: 1 (valid) 0x2b9-0x2ba (1)
0x2b0|                              11               |          .     |        idx: 17 (valid) 0x2ba-0x2bb (1)
     |                                               |                |      [5]{}: local_time_type 0x2bb-0x2c1 (6)
0x2b0|                                 00 00 1c 20   |           ...  |        utoff: 7200 (valid) 0x2bb-0x2bf (4)
0x2b0|                                             00|               .|        dst: 0 (valid) 0x2bf-0x2c0 (1)
0x2c0|04                                             |.               |        idx: 4 (valid) 0x2c0-0x2c1 (1)
     |                                               |                |      [6]{}: local_time_type 0x2c1-0x2c7 (6)
0x2c0|   00 00 2a 30                                 | ..*0           |        utoff: 10800 (valid) 0x2c1-0x2c5 (4)
0x2c0|               01                              |     .          |        dst: 1 (valid) 0x2c5-0x2c6 (1)
0x2c0|                  11                           |      .         |        idx: 17 (valid) 0x2c6-0x2c7 (1)
     |                                               |                |      [7]{}: local_time_type 0x2c7-0x2cd (6)
0x2c0|                     00 00 2a 30               |       ..*0     |        utoff: 10800 (valid) 0x2c7-0x2cb (4)
0x2c0|                                 01            |           .    |        dst: 1 (valid) 0x2cb-0x2cc (1)
0x2c0|                                    11         |            .   |        idx: 17 (valid) 0x2cc-0x2cd (1)
     |                                               |                |      [8]{}: local_time_type 0x2cd-0x2d3 (6)
0x2c0|                                       00 00 1c|             ...|        utoff: 7200 (valid) 0x2cd-0x2d1 (4)
0x2d0|20                                             |                |
0x2d0|   00                                          | .              |        dst: 0 (valid) 0x2d1-0x2d2 (1)
0x2d0|      04                                       |  .             |        idx: 4 (valid) 0x2d2-0x2d3 (1)
     |                                               |                |    time_zone_designations[0:5]: 0x2d3-0x2e9 (22)
0x2d0|         4c 4d 54 00                           |   LMT.         |      [0]: "LMT" time_zone_designation 0x2d3-0x2d7 (4)
0x2d0|                     45 45 54 00               |       EET.     |      [1]: "EET" time_zone_designation 0x2d7-0x2db (4)
0x2d0|                                 43 45 54 00   |           CET. |      [2]: "CET" time_zone_designation 0x2db-0x2df (4)
0x2d0|                                             43|               C|      [3]: "CEST" time_zone_designation 0x2df-0x2e4 (5)
0x2e0|45 53 54 00                                    |EST.            |
0x2e0|            45 45 53 54 00                     |    EEST.       |      [4]: "EEST" time_zone_designation 0x2e4-0x2e9 (5)
     |                                               |                |    leap_second_records[0:0]: 0x2e9-0x2e9 (0)
     |                                               |                |    standard_wall_indicators[0:9]: 0x2e9-0x2f2 (9)
0x2e0|                           00                  |         .      |      [0]: 0 standard_wall_indicator (valid) 0x2e9-0x2ea (1)
0x2e0|                              00               |          .     |      [1]: 0 standard_wall_indicator (valid) 0x2ea-0x2eb (1)
0x2e0|                                 01            |           .    |      [2]: 1 standard_wall_indicator (valid) 0x2eb-0x2ec (1)
0x2e0|                                    01         |            .   |      [3]: 1 standard_wall_indicator (valid) 0x2ec-0x2ed (1)
0x2e0|                                       00      |             .  |      [4]: 0 standard_wall_indicator (valid) 0x2ed-0x2ee (1)
0x2e0|                                          01   |              . |      [5]: 1 standard_wall_indicator (valid) 0x2ee-0x2ef (1)
0x2e0|                                             01|               .|      [6]: 1 standard_wall_indicator (valid) 0x2ef-0x2f0 (1)
0x2f0|01                                             |.               |      [7]: 1 standard_wall_indicator (valid) 0x2f0-0x2f1 (1)
0x2f0|   01                                          | .              |      [8]: 1 standard_wall_indicator (valid) 0x2f1-0x2f2 (1)
     |                                               |                |    ut_local_indicators[0:9]: 0x2f2-0x2fb (9)
0x2f0|      00                                       |  .             |      [0]: 0 ut_local_indicator (valid) 0x2f2-0x2f3 (1)
0x2f0|         00                                    |   .            |      [1]: 0 ut_local_indicator (valid) 0x2f3-0x2f4 (1)
0x2f0|            00                                 |    .           |      [2]: 0 ut_local_indicator (valid) 0x2f4-0x2f5 (1)
0x2f0|               00                              |     .          |      [3]: 0 ut_local_indicator (valid) 0x2f5-0x2f6 (1)
0x2f0|                  00                           |      .         |      [4]: 0 ut_local_indicator (valid) 0x2f6-0x2f7 (1)
0x2f0|                     00                        |       .        |      [5]: 0 ut_local_indicator (valid) 0x2f7-0x2f8 (1)
0x2f0|                        00                     |        .       |      [6]: 0 ut_local_indicator (valid) 0x2f8-0x2f9 (1)
0x2f0|                           01                  |         .      |      [7]: 1 ut_local_indicator (valid) 0x2f9-0x2fa (1)
0x2f0|                              01               |          .     |      [8]: 1 ut_local_indicator (valid) 0x2fa-0x2fb (1)
     |                                               |                |  v2plusheader{}: 0x2fb-0x327 (44)
0x2f0|                                 54 5a 69 66   |           TZif |    magic: 0x545a6966 (valid) 0x2fb-0x2ff (4)
0x2f0|                                             32|               2|    ver: "2" (0x32) (valid) 0x2ff-0x300 (1)
0x300|00 00 00 00 00 00 00 00 00 00 00 00 00 00 00   |............... |    reserved: raw bits 0x300-0x30f (15)
0x300|                                             00|               .|    isutcnt: 10 0x30f-0x313 (4)
0x310|00 00 0a                                       |...             |
0x310|         00 00 00 0a                           |   ....         |    isstdcnt: 10 0x313-0x317 (4)
0x310|                     00 00 00 00               |       ....     |    leapcnt: 0 0x317-0x31b (4)
0x310|                                 00 00 00 7e   |           ...~ |    timecnt: 126 0x31b-0x31f (4)
0x310|                                             00|               .|    typecnt: 10 0x31f-0x323 (4)
0x320|00 00 0a                                       |...             |
0x320|         00 00 00 1a                           |   ....         |    charcnt: 26 0x323-0x327 (4)
     |                                               |                |  v2plusdatablock{}: 0x327-0x7ff (1240)
     |                                               |                |    transition_times[0:126]: 0x327-0x717 (1008)
0x320|                     ff ff ff ff 56 b6 ce 24   |       ....V..$ |      [0]: "1879-12-31T22:26:44Z" (-2840146396) transition_time 0x327-0x32f (8)
0x320|                                             ff|               .|      [1]: "1894-11-29T22:03:04Z" (-2369527016) transition_time 0x32f-0x337 (8)
0x330|ff ff ff 72 c3 e3 18                           |...r...         |
0x330|                     ff ff ff ff cc e7 4b 10   |       ......K. |      [2]: "1942-11-02T01:00:00Z" (-857257200) transition_time 0x337-0x33f (8)
0x330|                                             ff|               .|      [3]: "1943-03-29T01:00:00Z" (-844556400) transition_time 0x33f-0x347 (8)
0x340|ff ff ff cd a9 17 90                           |.......         |
0x340|                     ff ff ff ff ce a2 43 10   |       ......C. |      [4]: "1943-10-04T01:00:00Z" (-828226800) transition_time 0x347-0x34f (8)
0x340|                                             ff|               .|      [5]: "1944-04-03T01:00:00Z" (-812502000) transition_time 0x34f-0x357 (8)
0x350|ff ff ff cf 92 34 10                           |.....4.         |
0x350|                     ff ff ff ff d0 82 25 10   |       ......%. |      [6]: "1944-10-02T01:00:00Z" (-796777200) transition_time 0x357-0x35f (8)
0x350|                                             ff|               .|      [7]: "1945-04-02T02:00:00Z" (-781048800) transition_time 0x35f-0x367 (8)
0x360|ff ff ff d1 72 24 20                           |....r$          |
0x360|                     00 00 00 00 11 63 ef 50   |       .....c.P |      [8]: "1979-03-31T21:00:00Z" (291762000) transition_time 0x367-0x36f (8)
0x360|                                             00|               .|      [9]: "1979-09-30T22:00:00Z" (307576800) transition_time 0x36f-0x377 (8)
0x370|00 00 00 12 55 3f e0                           |....U?.         |
0x370|                     00 00 00 00 13 4d 0b d0   |       .....M.. |      [10]: "1980-04-05T21:00:00Z" (323816400) transition_time 0x377-0x37f (8)
0x370|                                             00|               .|      [11]: "1980-09-28T22:00:00Z" (339026400) transition_time 0x37f-0x387 (8)
0x380|00 00 00 14 35 21 e0                           |....5!.         |
0x380|                     00 00 00 00 15 2c ed d0   |       .....,.. |      [12]: "1981-04-04T21:00:00Z" (355266000) transition_time 0x387-0x38f (8)
0x380|                                             00|               .|      [13]: "1981-09-26T23:00:00Z" (370393200) transition_time 0x38f-0x397 (8)
0x390|00 00 00 16 13 c0 70                           |......p         |
0x390|                     00 00 00 00 17 0c cf d0   |       ........ |      [14]: "1982-04-03T21:00:00Z" (386715600) transition_time 0x397-0x39f (8)
0x390|                                             00|               .|      [15]: "1982-09-26T00:00:00Z" (401846400) transition_time 0x39f-0x3a7 (8)
0x3a0|00 00 00 17 f3 b0 80                           |.......         |
0x3a0|                     00 00 00 00 18 e3 a1 80   |       ........ |      [16]: "1983-03-27T00:00:00Z" (417571200) transition_time 0x3a7-0x3af (8)
0x3a0|                                             00|               .|      [17]: "1983-09-25T00:00:00Z" (433296000) transition_time 0x3af-0x3b7 (8)
0x3b0|00 00 00 19 d3 92 80                           |.......         |
0x3b0|                     00 00 00 00 1a c3 83 80   |       ........ |      [18]: "1984-03-25T00:00:00Z" (449020800) transition_time 0x3b7-0x3bf (8)
0x3b0|                                             00|               .|      [19]: "1984-09-30T00:00:00Z" (465350400) transition_time 0x3bf-0x3c7 (8)
0x3c0|00 00 00 1b bc af 00                           |.......         |
0x3c0|                     00 00 00 00 1c ac a0 00   |       ........ |      [20]: "1985-03-31T00:00:00Z" (481075200) transition_time 0x3c7-0x3cf (8)
0x3c0|                                             00|               .|      [21]: "1985-09-29T00:00:00Z" (496800000) transition_time 0x3cf-0x3d7 (8)
0x3d0|00 00 00 1d 9c 91 00                           |.......         |
0x3d0|                     00 00 00 00 1e 8c 82 00   |       ........ |      [22]: "1986-03-30T00:00:00Z" (512524800) transition_time 0x3d7-0x3df (8)
0x3d0|                                             00|               .|      [23]: "1986-09-28T00:00:00Z" (528249600) transition_time 0x3df-0x3e7 (8)
0x3e0|00 00 00 1f 7c 73 00                           |....|s.         |
0x3e0|                     00 00 00 00 20 6c 64 00   |       .... ld. |      [24]: "1987-03-29T00:00:00Z" (543974400) transition_time 0x3e7-0x3ef (8)
0x3e0|                                             00|               .|      [25]: "1987-09-27T00:00:00Z" (559699200) transition_time 0x3ef-0x3f7 (8)
0x3f0|00 00 00 21 5c 55 00                           |...!\U.         |
0x3f0|                     00 00 00 00 22 4c 46 00   |       ...."LF. |      [26]: "1988-03-27T00:00:00Z" (575424000) transition_time 0x3f7-0x3ff (8)
0x3f0|                                             00|               .|      [27]: "1988-09-25T00:00:00Z" (591148800) transition_time 0x3ff-0x407 (8)
0x400|00 00 00 23 3c 37 00                           |...#<7.         |
0x400|                     00 00 00 00 24 2c 28 00   |       ....$,(. |      [28]: "1989-03-26T00:00:00Z" (606873600) transition_time 0x407-0x40f (8)
0x400|                                             00|               .|      [29]: "1989-09-24T00:00:00Z" (622598400) transition_time 0x40f-0x417 (8)
0x410|00 00 00 25 1c 19 00                           |...%...         |
0x410|                     00 00 00 00 26 0c 0a 00   |       ....&... |      [30]: "1990-03-25T00:00:00Z" (638323200) transition_time 0x417-0x41f (8)
0x410|                                             00|               .|      [31]: "1990-09-30T00:00:00Z" (654652800) transition_time 0x41f-0x427 (8)
0x420|00 00 00 27 05 35 80                           |...'.5.         |
0x420|                     00 00 00 00 27 f5 0a 60   |       ....'..` |      [32]: "1991-03-30T22:00:00Z" (670370400) transition_time 0x427-0x42f (8)
0x420|                                             00|               .|      [33]: "1991-09-28T21:00:00Z" (686091600) transition_time 0x42f-0x437 (8)
0x430|00 00 00 28 e4 ed 50                           |...(..P         |
0x430|                     00 00 00 00 29 d4 ec 60   |       ....)..` |      [34]: "1992-03-28T22:00:00Z" (701820000) transition_time 0x437-0x43f (8)
0x430|                                             00|               .|      [35]: "1992-09-26T21:00:00Z" (717541200) transition_time 0x43f-0x447 (8)
0x440|00 00 00 2a c4 cf 50                           |...*..P         |
0x440|                     00 00 00 00 2b b4 ce 60   |       ....+..` |      [36]: "1993-03-27T22:00:00Z" (733269600) transition_time 0x447-0x44f (8)
0x440|                                             00|               .|      [37]: "1993-09-25T21:00:00Z" (748990800) transition_time 0x44f-0x457 (8)
0x450|00 00 00 2c a4 b1 50                           |...,..P         |
0x450|                     00 00 00 00 2d 94 b0 60   |       ....-..` |      [38]: "1994-03-26T22:00:00Z" (764719200) transition_time 0x457-0x45f (8)
0x450|                                             00|               .|      [39]: "1994-09-24T21:00:00Z" (780440400) transition_time 0x45f-0x467 (8)
0x460|00 00 00 2e 84 93 50                           |......P         |
0x460|                     00 00 00 00 2f 74 92 60   |       ..../t.` |      [40]: "1995-03-25T22:00:00Z" (796168800) transition_time 0x467-0x46f (8)
0x460|                                             00|               .|      [41]: "1995-09-23T21:00:00Z" (811890000) transition_time 0x46f-0x477 (8)
0x470|00 00 00 30 64 75 50                           |...0duP         |
0x470|                     00 00 00 00 31 5d ae e0   |       ....1].. |      [42]: "1996-03-30T22:00:00Z" (828223200) transition_time 0x477-0x47f (8)
0x470|                                             00|               .|      [43]: "1996-10-26T21:00:00Z" (846363600) transition_time 0x47f-0x487 (8)
0x480|00 00 00 32 72 7b d0                           |...2r{.         |
0x480|                     00 00 00 00 33 3d bb 10   |       ....3=.. |      [44]: "1997-03-30T01:00:00Z" (859683600) transition_time 0x487-0x48f (8)
0x480|                                             00|               .|      [45]: "1997-10-26T01:00:00Z" (877827600) transition_time 0x48f-0x497 (8)
0x490|00 00 00 34 52 96 10                           |...4R..         |
0x490|                     00 00 00 00 35 1d 9d 10   |       ....5... |      [46]: "1998-03-29T01:00:00Z" (891133200) transition_time 0x497-0x49f (8)
0x490|                                             00|               .|      [47]: "1998-10-25T01:00:00Z" (909277200) transition_time 0x49f-0x4a7 (8)
0x4a0|00 00 00 36 32 78 10                           |...62x.         |
0x4a0|                     00 00 00 00 36 fd 7f 10   |       ....6... |      [48]: "1999-03-28T01:00:00Z" (922582800) transition_time 0x4a7-0x4af (8)
0x4a0|                                             00|               .|      [49]: "1999-10-31T01:00:00Z" (941331600) transition_time 0x4af-0x4b7 (8)
0x4b0|00 00 00 38 1b 94 90                           |...8...         |
0x4b0|                     00 00 00 00 38 dd 61 10   |       ....8.a. |      [50]: "2000-03-26T01:00:00Z" (954032400) transition_time 0x4b7-0x4bf (8)
0x4b0|                                             00|               .|      [51]: "2000-10-29T01:00:00Z" (972781200) transition_time 0x4bf-0x4c7 (8)
0x4c0|00 00 00 39 fb 76 90                           |...9.v.         |
0x4c0|                     00 00 00 00 3a bd 43 10   |       ....:.C. |      [52]: "2001-03-25T01:00:00Z" (985482000) transition_time 0x4c7-0x4cf (8)
0x4c0|                                             00|               .|      [53]: "2001-10-28T01:00:00Z" (1004230800) transition_time 0x4cf-0x4d7 (8)
0x4d0|00 00 00 3b db 58 90                           |...;.X.         |
0x4d0|                     00 00 00 00 3c a6 5f 90   |       ....<._. |      [54]: "2002-03-31T01:00:00Z" (1017536400) transition_time 0x4d7-0x4df (8)
0x4d0|                                             00|               .|      [55]: "2002-10-27T01:00:00Z" (1035680400) transition_time 0x4df-0x4e7 (8)
0x4e0|00 00 00 3d bb 3a 90                           |...=.:.         |
0x4e0|                     00 00 00 00 3e 86 41 90   |       ....>.A. |      [56]: "2003-03-30T01:00:00Z" (1048986000) transition_time 0x4e7-0x4ef (8)
0x4e0|                                             00|               .|      [57]: "2003-10-26T01:00:00Z" (1067130000) transition_time 0x4ef-0x4f7 (8)
0x4f0|00 00 00 3f 9b 1c 90                           |...?...         |
0x4f0|                     00 00 00 00 40 66 23 90   |       ....@f#. |      [58]: "2004-03-28T01:00:00Z" (1080435600) transition_time 0x4f7-0x4ff (8)
0x4f0|                                             00|               .|      [59]: "2004-10-31T01:00:00Z" (1099184400) transition_time 0x4ff-0x507 (8)
0x500|00 00 00 41 84 39 10                           |...A.9.         |
0x500|                     00 00 00 00 42 46 05 90   |       ....BF.. |      [60]: "2005-03-27T01:00:00Z" (1111885200) transition_time 0x507-0x50f (8)
0x500|                                             00|               .|      [61]: "2005-10-30T01:00:00Z" (1130634000) transition_time 0x50f-0x517 (8)
0x510|00 00 00 43 64 1b 10                           |...Cd..         |
0x510|                     00 00 00 00 44 25 e7 90   |       ....D%.. |      [62]: "2006-03-26T01:00:00Z" (1143334800) transition_time 0x517-0x51f (8)
0x510|                                             00|               .|      [63]: "2006-10-29T01:00:00Z" (1162083600) transition_time 0x51f-0x527 (8)
0x520|00 00 00 45 43 fd 10                           |...EC..         |
0x520|                     00 00 00 00 46 05 c9 90   |       ....F... |      [64]: "2007-03-25T01:00:00Z" (1174784400) transition_time 0x527-0x52f (8)
0x520|                                             00|               .|      [65]: "2007-10-28T01:00:00Z" (1193533200) transition_time 0x52f-0x537 (8)
0x530|00 00 00 47 23 df 10                           |...G#..         |
0x530|                     00 00 00 00 47 ee e6 10   |       ....G... |      [66]: "2008-03-30T01:00:00Z" (1206838800) transition_time 0x537-0x53f (8)
0x530|                                             00|               .|      [67]: "2008-10-26T01:00:00Z" (1224982800) transition_time 0x53f-0x547 (8)
0x540|00 00 00 49 03 c1 10                           |...I...         |
0x540|                     00 00 00 00 49 ce c8 10   |       ....I... |      [68]: "2009-03-29T01:00:00Z" (1238288400) transition_time 0x547-0x54f (8)
0x540|                                             00|               .|      [69]: "2009-10-25T01:00:00Z" (1256432400) transition_time 0x54f-0x557 (8)
0x550|00 00 00 4a e3 a3 10                           |...J...         |
0x550|                     00 00 00 00 4b ae aa 10   |       ....K... |      [70]: "2010-03-28T01:00:00Z" (1269738000) transition_time 0x557-0x55f (8)
0x550|                                             00|               .|      [71]: "2010-10-31T01:00:00Z" (1288486800) transition_time 0x55f-0x567 (8)
0x560|00 00 00 4c cc bf 90                           |...L...         |
0x560|                     00 00 00 00 4d 8e 8c 10   |       ....M... |      [72]: "2011-03-27T01:00:00Z" (1301187600) transition_time 0x567-0x56f (8)
0x560|                                             00|               .|      [73]: "2011-10-30T01:00:00Z" (1319936400) transition_time 0x56f-0x577 (8)
0x570|00 00 00 4e ac a1 90                           |...N...         |
0x570|                     00 00 00 00 4f 6e 6e 10   |       ....Onn. |      [74]: "2012-03-25T01:00:00Z" (1332637200) transition_time 0x577-0x57f (8)
0x570|                                             00|               .|      [75]: "2012-10-28T01:00:00Z" (1351386000) transition_time 0x57f-0x587 (8)
0x580|00 00 00 50 8c 83 90                           |...P...         |
0x580|                     00 00 00 00 51 57 8a 90   |       ....QW.. |      [76]: "2013-03-31T01:00:00Z" (1364691600) transition_time 0x587-0x58f (8)
0x580|                                             00|               .|      [77]: "2013-10-27T01:00:00Z" (1382835600) transition_time 0x58f-0x597 (8)
0x590|00 00 00 52 6c 65 90                           |...Rle.         |
0x590|                     00 00 00 00 53 37 6c 90   |       ....S7l. |      [78]: "2014-03-30T01:00:00Z" (1396141200) transition_time 0x597-0x59f (8)
0x590|                                             00|               .|      [79]: "2014-10-26T01:00:00Z" (1414285200) transition_time 0x59f-0x5a7 (8)
0x5a0|00 00 00 54 4c 47 90                           |...TLG.         |
0x5a0|                     00 00 00 00 55 17 4e 90   |       ....U.N. |      [80]: "2015-03-29T01:00:00Z" (1427590800) transition_time 0x5a7-0x5af (8)
0x5a0|                                             00|               .|      [81]: "2015-10-25T01:00:00Z" (1445734800) transition_time 0x5af-0x5b7 (8)
0x5b0|00 00 00 56 2c 29 90                           |...V,).         |
0x5b0|                     00 00 00 00 56 f7 30 90   |       ....V.0. |      [82]: "2016-03-27T01:00:00Z" (1459040400) transition_time 0x5b7-0x5bf (8)
0x5b0|                                             00|               .|      [83]: "2016-10-30T01:00:00Z" (1477789200) transition_time 0x5bf-0x5c7 (8)
0x5c0|00 00 00 58 15 46 10                           |...X.F.         |
0x5c0|                     00 00 00 00 58 d7 12 90   |       ....X... |      [84]: "2017-03-26T01:00:00Z" (1490490000) transition_time 0x5c7-0x5cf (8)
0x5c0|                                             00|               .|      [85]: "2017-10-29T01:00:00Z" (1509238800) transition_time 0x5cf-0x5d7 (8)
0x5d0|00 00 00 59 f5 28 10                           |...Y.(.         |
0x5d0|                     00 00 00 00 5a b6 f4 90   |       ....Z... |      [86]: "2018-03-25T01:00:00Z" (1521939600) transition_time 0x5d7-0x5df (8)
0x5d0|                                             00|               .|      [87]: "2018-10-28T01:00:00Z" (1540688400) transition_time 0x5df-0x5e7 (8)
0x5e0|00 00 00 5b d5 0a 10                           |...[...         |
0x5e0|                     00 00 00 00 5c a0 11 10   |       ....\... |      [88]: "2019-03-31T01:00:00Z" (1553994000) transition_time 0x5e7-0x5ef (8)
0x5e0|                                             00|               .|      [89]: "2019-10-27T01:00:00Z" (1572138000) transition_time 0x5ef-0x5f7 (8)
0x5f0|00 00 00 5d b4 ec 10                           |...]...         |
0x5f0|                     00 00 00 00 5e 7f f3 10   |       ....^... |      [90]: "2020-03-29T01:00:00Z" (1585443600) transition_time 0x5f7-0x5ff (8)
0x5f0|                                             00|               .|      [91]: "2020-10-25T01:00:00Z" (1603587600) transition_time 0x5ff-0x607 (8)
0x600|00 00 00 5f 94 ce 10                           |..._...         |
0x600|                     00 00 00 00 60 5f d5 10   |       ....`_.. |      [92]: "2021-03-28T01:00:00Z" (1616893200) transition_time 0x607-0x60f (8)
0x600|                                             00|               .|      [93]: "2021-10-31T01:00:00Z" (1635642000) transition_time 0x60f-0x617 (8)
0x610|00 00 00 61 7d ea 90                           |...a}..         |
0x610|                     00 00 00 00 62 3f b7 10   |       ....b?.. |      [94]: "2022-03-27T01:00:00Z" (1648342800) transition_time 0x617-0x61f (8)
0x610|                                             00|               .|      [95]: "2022-10-30T01:00:00Z" (1667091600) transition_time 0x61f-0x627 (8)
0x620|00 00 00 63 5d cc 90                           |...c]..         |
0x620|                     00 00 00 00 64 1f 99 10   |       ....d... |      [96]: "2023-03-26T01:00:00Z" (1679792400) transition_time 0x627-0x62f (8)
0x620|                                             00|               .|      [97]: "2023-10-29T01:00:00Z" (1698541200) transition_time 0x62f-0x637 (8)
0x630|00 00 00 65 3d ae 90                           |...e=..         |
0x630|                     00 00 00 00 66 08 b5 90   |       ....f... |      [98]: "2024-03-31T01:00:00Z" (1711846800) transition_time 0x637-0x63f (8)
0x630|                                             00|               .|      [99]: "2024-10-27T01:00:00Z" (1729990800) transition_time 0x63f-0x647 (8)
0x640|00 00 00 67 1d 90 90                           |...g...         |
0x640|                     00 00 00 00 67 e8 97 90   |       ....g... |      [100]: "2025-03-30T01:00:00Z" (1743296400) transition_time 0x647-0x64f (8)
0x640|                                             00|               .|      [101]: "2025-10-26T01:00:00Z" (1761440400) transition_time 0x64f-0x657 (8)
0x650|00 00 00 68 fd 72 90                           |...h.r.         |
0x650|                     00 00 00 00 69 c8 79 90   |       ....i.y. |      [102]: "2026-03-29T01:00:00Z" (1774746000) transition_time 0x657-0x65f (8)
0x650|                                             00|               .|      [103]: "2026-10-25T01:00:00Z" (1792890000) transition_time 0x65f-0x667 (8)
0x660|00 00 00 6a dd 54 90                           |...j.T.         |
0x660|                     00 00 00 00 6b a8 5b 90   |       ....k.[. |      [104]: "2027-03-28T01:00:00Z" (1806195600) transition_time 0x667-0x66f (8)
0x660|                                             00|               .|      [105]: "2027-10-31T01:00:00Z" (1824944400) transition_time 0x66f-0x677 (8)
0x670|00 00 00 6c c6 71 10                           |...l.q.         |
0x670|                     00 00 00 00 6d 88 3d 90   |       ....m.=. |      [106]: "2028-03-26T01:00:00Z" (1837645200) transition_time 0x677-0x67f (8)
0x670|                                             00|               .|      [107]: "2028-10-29T01:00:00Z" (1856394000) transition_time 0x67f-0x687 (8)
0x680|00 00 00 6e a6 53 10                           |...n.S.         |
0x680|                     00 00 00 00 6f 68 1f 90   |       ....oh.. |      [108]: "2029-03-25T01:00:00Z" (1869094800) transition_time 0x687-0x68f (8)
0x680|                                             00|               .|      [109]: "2029-10-28T01:00:00Z" (1887843600) transition_time 0x68f-0x697 (8)
0x690|00 00 00 70 86 35 10                           |...p.5.         |
0x690|                     00 00 00 00 71 51 3c 10   |       ....qQ<. |      [110]: "2030-03-31T01:00:00Z" (1901149200) transition_time 0x697-0x69f (8)
0x690|                                             00|               .|      [111]: "2030-10-27T01:00:00Z" (1919293200) transition_time 0x69f-0x6a7 (8)
0x6a0|00 00 00 72 66 17 10                           |...rf..         |
0x6a0|                     00 00 00 00 73 31 1e 10   |       ....s1.. |      [112]: "2031-03-30T01:00:00Z" (1932598800) transition_time 0x6a7-0x6af (8)
0x6a0|                                             00|               .|      [113]: "2031-10-26T01:00:00Z" (1950742800) transition_time 0x6af-0x6b7 (8)
0x6b0|00 00 00 74 45 f9 10                           |...tE..         |
0x6b0|                     00 00 00 00 75 11 00 10   |       ....u... |      [114]: "2032-03-28T01:00:00Z" (1964048400) transition_time 0x6b7-0x6bf (8)
0x6b0|                                             00|               .|      [115]: "2032-10-31T01:00:00Z" (1982797200) transition_time 0x6bf-0x6c7 (8)
0x6c0|00 00 00 76 2f 15 90                           |...v/..         |
0x6c0|                     00 00 00 00 76 f0 e2 10   |       ....v... |      [116]: "2033-03-27T01:00:00Z" (1995498000) transition_time 0x6c7-0x6cf (8)
0x6c0|                                             00|               .|      [117]: "2033-10-30T01:00:00Z" (2014246800) transition_time 0x6cf-0x6d7 (8)
0x6d0|00 00 00 78 0e f7 90                           |...x...         |
0x6d0|                     00 00 00 00 78 d0 c4 10   |       ....x... |      [118]: "2034-03-26T01:00:00Z" (2026947600) transition_time 0x6d7-0x6df (8)
0x6d0|                                             00|               .|      [119]: "2034-10-29T01:00:00Z" (2045696400) transition_time 0x6df-0x6e7 (8)
0x6e0|00 00 00 79 ee d9 90                           |...y...         |
0x6e0|                     00 00 00 00 7a b0 a6 10   |       ....z... |      [120]: "2035-03-25T01:00:00Z" (2058397200) transition_time 0x6e7-0x6ef (8)
0x6e0|                                             00|               .|      [121]: "2035-10-28T01:00:00Z" (2077146000) transition_time 0x6ef-0x6f7 (8)
0x6f0|00 00 00 7b ce bb 90                           |...{...         |
0x6f0|                     00 00 00 00 7c 99 c2 90   |       ....|... |      [122]: "2036-03-30T01:00:00Z" (2090451600) transition_time 0x6f7-0x6ff (8)
0x6f0|                                             00|               .|      [123]: "2036-10-26T01:00:00Z" (2108595600) transition_time 0x6ff-0x707 (8)
0x700|00 00 00 7d ae 9d 90                           |...}...         |
0x700|                     00 00 00 00 7e 79 a4 90   |       ....~y.. |      [124]: "2037-03-29T01:00:00Z" (2121901200) transition_time 0x707-0x70f (8)
0x700|                                             00|               .|      [125]: "2037-10-25T01:00:00Z" (2140045200) transition_time 0x70f-0x717 (8)
0x710|00 00 00 7f 8e 7f 90                           |.......         |
     |                                               |                |    transition_types[0:126]: 0x717-0x795 (126)
0x710|                     01                        |       .        |      [0]: 1 transition_type 0x717-0x718 (1)
0x710|                        02                     |        .       |      [1]: 2 transition_type 0x718-0x719 (1)
0x710|                           03                  |         .      |      [2]: 3 transition_type 0x719-0x71a (1)
0x710|                              04               |          .     |      [3]: 4 transition_type 0x71a-0x71b (1)
0x710|                                 03            |           .    |      [4]: 3 transition_type 0x71b-0x71c (1)
0x710|                                    04         |            .   |      [5]: 4 transition_type 0x71c-0x71d (1)
0x710|                                       03      |             .  |      [6]: 3 transition_type 0x71d-0x71e (1)
0x710|                                          02   |              . |      [7]: 2 transition_type 0x71e-0x71f (1)
0x710|                                             05|               .|      [8]: 5 transition_type 0x71f-0x720 (1)
0x720|02                                             |.               |      [9]: 2 transition_type 0x720-0x721 (1)
0x720|   05                                          | .              |      [10]: 5 transition_type 0x721-0x722 (1)
0x720|      02                                       |  .             |      [11]: 2 transition_type 0x722-0x723 (1)
0x720|         05                                    |   .            |      [12]: 5 transition_type 0x723-0x724 (1)
0x720|            02                                 |    .           |      [13]: 2 transition_type 0x724-0x725 (1)
0x720|               05                              |     .          |      [14]: 5 transition_type 0x725-0x726 (1)
0x720|                  06                           |      .         |      [15]: 6 transition_type 0x726-0x727 (1)
0x720|                     07                        |       .        |      [16]: 7 transition_type 0x727-0x728 (1)
0x720|                        06                     |        .       |      [17]: 6 transition_type 0x728-0x729 (1)
0x720|                           07                  |         .      |      [18]: 7 transition_type 0x729-0x72a (1)
0x720|                              06               |          .     |      [19]: 6 transition_type 0x72a-0x72b (1)
0x720|                                 07            |           .    |      [20]: 7 transition_type 0x72b-0x72c (1)
0x720|                                    06         |            .   |      [21]: 6 transition_type 0x72c-0x72d (1)
0x720|                                       07      |             .  |      [22]: 7 transition_type 0x72d-0x72e (1)
0x720|                                          06   |              . |      [23]: 6 transition_type 0x72e-0x72f (1)
0x720|                                             07|               .|      [24]: 7 transition_type 0x72f-0x730 (1)
0x730|06                                             |.               |      [25]: 6 transition_type 0x730-0x731 (1)
0x730|   07                                          | .              |      [26]: 7 transition_type 0x731-0x732 (1)
0x730|      06                                       |  .             |      [27]: 6 transition_type 0x732-0x733 (1)
0x730|         07                                    |   .            |      [28]: 7 transition_type 0x733-0x734 (1)
0x730|            06                                 |    .           |      [29]: 6 transition_type 0x734-0x735 (1)
0x730|               07                              |     .          |      [30]: 7 transition_type 0x735-0x736 (1)
0x730|                  06                           |      .         |      [31]: 6 transition_type 0x736-0x737 (1)
0x730|                     05                        |       .        |      [32]: 5 transition_type 0x737-0x738 (1)
0x730|                        02                     |        .       |      [33]: 2 transition_type 0x738-0x739 (1)
0x730|                           05                  |         .      |      [34]: 5 transition_type 0x739-0x73a (1)
0x730|                              02               |          .     |      [35]: 2 transition_type 0x73a-0x73b (1)
0x730|                                 05            |           .    |      [36]: 5 transition_type 0x73b-0x73c (1)
0x730|                                    02         |            .   |      [37]: 2 transition_type 0x73c-0x73d (1)
0x730|                                       05      |             .  |      [38]: 5 transition_type 0x73d-0x73e (1)
0x730|                                          02   |              . |      [39]: 2 transition_type 0x73e-0x73f (1)
0x730|                                             05|               .|      [40]: 5 transition_type 0x73f-0x740 (1)
0x740|02                                             |.               |      [41]: 2 transition_type 0x740-0x741 (1)
0x740|   05                                          | .              |      [42]: 5 transition_type 0x741-0x742 (1)
0x740|      02                                       |  .             |      [43]: 2 transition_type 0x742-0x743 (1)
0x740|         08                                    |   .            |      [44]: 8 transition_type 0x743-0x744 (1)
0x740|            09                                 |    .           |      [45]: 9 transition_type 0x744-0x745 (1)
0x740|               08                              |     .          |      [46]: 8 transition_type 0x745-0x746 (1)
0x740|                  09                           |      .         |      [47]: 9 transition_type 0x746-0x747 (1)
0x740|                     08                        |       .        |      [48]: 8 transition_type 0x747-0x748 (1)
0x740|                        09                     |        .       |      [49]: 9 transition_type 0x748-0x749 (1)
0x740|                           08                  |         .      |      [50]: 8 transition_type 0x749-0x74a (1)
0x740|                              09               |          .     |      [51]: 9 transition_type 0x74a-0x74b (1)
0x740|                                 08            |           .    |      [52]: 8 transition_type 0x74b-0x74c (1)
0x740|                                    09         |            .   |      [53]: 9 transition_type 0x74c-0x74d (1)
0x740|                                       08      |             .  |      [54]: 8 transition_type 0x74d-0x74e (1)
0x740|                                          09   |              . |      [55]: 9 transition_type 0x74e-0x74f (1)
0x740|                                             08|               .|      [56]: 8 transition_type 0x74f-0x750 (1)
0x750|09                                             |.               |      [57]: 9 transition_type 0x750-0x751 (1)
0x750|   08                                          | .              |      [58]: 8 transition_type 0x751-0x752 (1)
0x750|      09                                       |  .             |      [59]: 9 transition_type 0x752-0x753 (1)
0x750|         08                                    |   .            |      [60]: 8 transition_type 0x753-0x754 (1)
0x750|            09                                 |    .           |      [61]: 9 transition_type 0x754-0x755 (1)
0x750|               08                              |     .          |      [62]: 8 transition_type 0x755-0x756 (1)
0x750|                  09                           |      .         |      [63]: 9 transition_type 0x756-0x757 (1)
0x750|                     08                        |       .        |      [64]: 8 transition_type 0x757-0x758 (1)
0x750|                        09                     |        .       |      [65]: 9 transition_type 0x758-0x759 (1)
0x750|                           08                  |         .      |      [66]: 8 transition_type 0x759-0x75a (1)
0x750|                              09               |          .     |      [67]: 9 transition_type 0x75a-0x75b (1)
0x750|                                 08            |           .    |      [68]: 8 transition_type 0x75b-0x75c (1)
0x750|                                    09         |            .   |      [69]: 9 transition_type 0x75c-0x75d (1)
0x750|                                       08      |             .  |      [70]: 8 transition_type 0x75d-0x75e (1)
0x750|                                          09   |              . |      [71]: 9 transition_type 0x75e-0x75f (1)
0x750|                                             08|               .|      [72]: 8 transition_type 0x75f-0x760 (1)
0x760|09                                             |.               |      [73]: 9 transition_type 0x760-0x761 (1)
0x760|   08                                          | .              |      [74]: 8 transition_type 0x761-0x762 (1)
0x760|      09                                       |  .             |      [75]: 9 transition_type 0x762-0x763 (1)
0x760|         08                                    |   .            |      [76]: 8 transition_type 0x763-0x764 (1)
0x760|            09                                 |    .           |      [77]: 9 transition_type 0x764-0x765 (1)
0x760|               08                              |     .          |      [78]: 8 transition_type 0x765-0x766 (1)
0x760|                  09                           |      .         |      [79]: 9 transition_type 0x766-0x767 (1)
0x760|                     08                        |       .        |      [80]: 8 transition_type 0x767-0x768 (1)
0x760|                        09                     |        .       |      [81]: 9 transition_type 0x768-0x769 (1)
0x760|                           08                  |         .      |      [82]: 8 transition_type 0x769-0x76a (1)
0x760|                              09               |          .     |      [83]: 9 transition_type 0x76a-0x76b (1)
0x760|                                 08            |           .    |      [84]: 8 transition_type 0x76b-0x76c (1)
0x760|                                    09         |            .   |      [85]: 9 transition_type 0x76c-0x76d (1)
0x760|                                       08      |             .  |      [86]: 8 transition_type 0x76d-0x76e (1)
0x760|                                          09   |              . |      [87]: 9 transition_type 0x76e-0x76f (1)
0x760|                                             08|               .|      [88]: 8 transition_type 0x76f-0x770 (1)
0x770|09                                             |.               |      [89]: 9 transition_type 0x770-0x771 (1)
0x770|   08                                          | .              |      [90]: 8 transition_type 0x771-0x772 (1)
0x770|      09                                       |  .             |      [91]: 9 transition_type 0x772-0x773 (1)
0x770|         08                                    |   .            |      [92]: 8 transition_type 0x773-0x774 (1)
0x770|            09                                 |    .           |      [93]: 9 transition_type 0x774-0x775 (1)
0x770|               08                              |     .          |      [94]: 8 transition_type 0x775-0x776 (1)
0x770|                  09                           |      .         |      [95]: 9 transition_type 0x776-0x777 (1)
0x770|                     08                        |       .        |      [96]: 8 transition_type 0x777-0x778 (1)
0x770|                        09                     |        .       |      [97]: 9 transition_type 0x778-0x779 (1)
0x770|                           08                  |         .      |      [98]: 8 transition_type 0x779-0x77a (1)
0x770|                              09               |          .     |      [99]: 9 transition_type 0x77a-0x77b (1)
0x770|                                 08            |           .    |      [100]: 8 transition_type 0x77b-0x77c (1)
0x770|                                    09         |            .   |      [101]: 9 transition_type 0x77c-0x77d (1)
0x770|                                       08      |             .  |      [102]: 8 transition_type 0x77d-0x77e (1)
0x770|                                          09   |              . |      [103]: 9 transition_type 0x77e-0x77f (1)
0x770|                                             08|               .|      [104]: 8 transition_type 0x77f-0x780 (1)
0x780|09                                             |.               |      [105]: 9 transition_type 0x780-0x781 (1)
0x780|   08                                          | .              |      [106]: 8 transition_type 0x781-0x782 (1)
0x780|      09                                       |  .             |      [107]: 9 transition_type 0x782-0x783 (1)
0x780|         08                                    |   .            |      [108]: 8 transition_type 0x783-0x784 (1)
0x780|            09                                 |    .           |      [109]: 9 transition_type 0x784-0x785 (1)
0x780|               08                              |     .          |      [110]: 8 transition_type 0x785-0x786 (1)
0x780|                  09                           |      .         |      [111]: 9 transition_type 0x786-0x787 (1)
0x780|                     08                        |       .        |      [112]: 8 transition_type 0x787-0x788 (1)
0x780|                        09                     |        .       |      [113]: 9 transition_type 0x788-0x789 (1)
0x780|                           08                  |         .      |      [114]: 8 transition_type 0x789-0x78a (1)
0x780|                              09               |          .     |      [115]: 9 transition_type 0x78a-0x78b (1)
0x780|                                 08            |           .    |      [116]: 8 transition_type 0x78b-0x78c (1)
0x780|                                    09         |            .   |      [117]: 9 transition_type 0x78c-0x78d (1)
0x780|                                       08      |             .  |      [118]: 8 transition_type 0x78d-0x78e (1)
0x780|                                          09   |              . |      [119]: 9 transition_type 0x78e-0x78f (1)
0x780|                                             08|               .|      [120]: 8 transition_type 0x78f-0x790 (1)
0x790|09                                             |.               |      [121]: 9 transition_type 0x790-0x791 (1)
0x790|   08                                          | .              |      [122]: 8 transition_type 0x791-0x792 (1)
0x790|      09                                       |  .             |      [123]: 9 transition_type 0x792-0x793 (1)
0x790|         08                                    |   .            |      [124]: 8 transition_type 0x793-0x794 (1)
0x790|            09                                 |    .           |      [125]: 9 transition_type 0x794-0x795 (1)
     |                                               |                |    local_time_type_records[0:10]: 0x795-0x7d1 (60)
     |                                               |                |      [0]{}: local_time_type 0x795-0x79b (6)
0x790|               00 00 15 dc                     |     ....       |        utoff: 5596 (valid) 0x795-0x799 (4)
0x790|                           00                  |         .      |        dst: 0 (valid) 0x799-0x79a (1)
0x790|                              00               |          .     |        idx: 0 (valid) 0x79a-0x79b (1)
     |                                               |                |      [1]{}: local_time_type 0x79b-0x7a1 (6)
0x790|                                 00 00 1b 68   |           ...h |        utoff: 7016 (valid) 0x79b-0x79f (4)
0x790|                                             00|               .|        dst: 0 (valid) 0x79f-0x7a0 (1)
0x7a0|04                                             |.               |        idx: 4 (valid) 0x7a0-0x7a1 (1)
     |                                               |                |      [2]{}: local_time_type 0x7a1-0x7a7 (6)
0x7a0|   00 00 1c 20                                 | ...            |        utoff: 7200 (valid) 0x7a1-0x7a5 (4)
0x7a0|               00                              |     .          |        dst: 0 (valid) 0x7a5-0x7a6 (1)
0x7a0|                  08                           |      .         |        idx: 8 (valid) 0x7a6-0x7a7 (1)
     |                                               |                |      [3]{}: local_time_type 0x7a7-0x7ad (6)
0x7a0|                     00 00 0e 10               |       ....     |        utoff: 3600 (valid) 0x7a7-0x7ab (4)
0x7a0|                                 00            |           .    |        dst: 0 (valid) 0x7ab-0x7ac (1)
0x7a0|                                    0c         |            .   |        idx: 12 (valid) 0x7ac-0x7ad (1)
     |                                               |                |      [4]{}: local_time_type 0x7ad-0x7b3 (6)
0x7a0|                                       00 00 1c|             ...|        utoff: 7200 (valid) 0x7ad-0x7b1 (4)
0x7b0|20                                             |                |
0x7b0|   01                                          | .              |        dst: 1 (valid) 0x7b1-0x7b2 (1)
0x7b0|      10                                       |  .             |        idx: 16 (valid) 0x7b2-0x7b3 (1)
     |                                               |                |      [5]{}: local_time_type 0x7b3-0x7b9 (6)
0x7b0|         00 00 2a 30                           |   ..*0         |        utoff: 10800 (valid) 0x7b3-0x7b7 (4)
0x7b0|                     01                        |       .        |        dst: 1 (valid) 0x7b7-0x7b8 (1)
0x7b0|                        15                     |        .       |        idx: 21 (valid) 0x7b8-0x7b9 (1)
     |                                               |                |      [6]{}: local_time_type 0x7b9-0x7bf (6)
0x7b0|                           00 00 1c 20         |         ...    |        utoff: 7200 (valid) 0x7b9-0x7bd (4)
0x7b0|                                       00      |             .  |        dst: 0 (valid) 0x7bd-0x7be (1)
0x7b0|                                          08   |              . |        idx: 8 (valid) 0x7be-0x7bf (1)
     |                                               |                |      [7]{}: local_time_type 0x7bf-0x7c5 (6)
0x7b0|                                             00|               .|        utoff: 10800 (valid) 0x7bf-0x7c3 (4)
0x7c0|00 2a 30                                       |.*0             |
0x7c0|         01                                    |   .            |        dst: 1 (valid) 0x7c3-0x7c4 (1)
0x7c0|            15                                 |    .           |        idx: 21 (valid) 0x7c4-0x7c5 (1)
     |                                               |                |      [8]{}: local_time_type 0x7c5-0x7cb (6)
0x7c0|               00 00 2a 30                     |     ..*0       |        utoff: 10800 (valid) 0x7c5-0x7c9 (4)
0x7c0|                           01                  |         .      |        dst: 1 (valid) 0x7c9-0x7ca (1)
0x7c0|                              15               |          .     |        idx: 21 (valid) 0x7ca-0x7cb (1)
     |                                               |                |      [9]{}: local_time_type 0x7cb-0x7d1 (6)
0x7c0|                                 00 00 1c 20   |           ...  |        utoff: 7200 (valid) 0x7cb-0x7cf (4)
0x7c0|                                             00|               .|        dst: 0 (valid) 0x7cf-0x7d0 (1)
0x7d0|08                                             |.               |        idx: 8 (valid) 0x7d0-0x7d1 (1)
     |                                               |                |    time_zone_designations[0:6]: 0x7d1-0x7eb (26)
0x7d0|   4c 4d 54 00                                 | LMT.           |      [0]: "LMT" time_zone_designation 0x7d1-0x7d5 (4)
0x7d0|               49 4d 54 00                     |     IMT.       |      [1]: "IMT" time_zone_designation 0x7d5-0x7d9 (4)
0x7d0|                           45 45 54 00         |         EET.   |      [2]: "EET" time_zone_designation 0x7d9-0x7dd (4)
0x7d0|                                       43 45 54|             CET|      [3]: "CET" time_zone_designation 0x7dd-0x7e1 (4)
0x7e0|00                                             |.               |
0x7e0|   43 45 53 54 00                              | CEST.          |      [4]: "CEST" time_zone_designation 0x7e1-0x7e6 (5)
0x7e0|                  45 45 53 54 00               |      EEST.     |      [5]: "EEST" time_zone_designation 0x7e6-0x7eb (5)
     |                                               |                |    leap_second_records[0:0]: 0x7eb-0x7eb (0)
     |                                               |                |    standard_wall_indicators[0:10]: 0x7eb-0x7f5 (10)
0x7e0|                                 00            |           .    |      [0]: 0 standard_wall_indicator (valid) 0x7eb-0x7ec (1)
0x7e0|                                    00         |            .   |      [1]: 0 standard_wall_indicator (valid) 0x7ec-0x7ed (1)
0x7e0|                                       00      |             .  |      [2]: 0 standard_wall_indicator (valid) 0x7ed-0x7ee (1)
0x7e0|                                          01   |              . |      [3]: 1 standard_wall_indicator (valid) 0x7ee-0x7ef (1)
0x7e0|                                             01|               .|      [4]: 1 standard_wall_indicator (valid) 0x7ef-0x7f0 (1)
0x7f0|00                                             |.               |      [5]: 0 standard_wall_indicator (valid) 0x7f0-0x7f1 (1)
0x7f0|   01                                          | .              |      [6]: 1 standard_wall_indicator (valid) 0x7f1-0x7f2 (1)
0x7f0|      01                                       |  .             |      [7]: 1 standard_wall_indicator (valid) 0x7f2-0x7f3 (1)
0x7f0|         01                                    |   .            |      [8]: 1 standard_wall_indicator (valid) 0x7f3-0x7f4 (1)
0x7f0|            01                                 |    .           |      [9]: 1 standard_wall_indicator (valid) 0x7f4-0x7f5 (1)
     |                                               |                |    ut_local_indicators[0:10]: 0x7f5-0x7ff (10)
0x7f0|               00                              |     .          |      [0]: 0 ut_local_indicator (valid) 0x7f5-0x7f6 (1)
0x7f0|                  00                           |      .         |      [1]: 0 ut_local_indicator (valid) 0x7f6-0x7f7 (1)
0x7f0|                     00                        |       .        |      [2]: 0 ut_local_indicator (valid) 0x7f7-0x7f8 (1)
0x7f0|                        00                     |        .       |      [3]: 0 ut_local_indicator (valid) 0x7f8-0x7f9 (1)
0x7f0|                           00                  |         .      |      [4]: 0 ut_local_indicator (valid) 0x7f9-0x7fa (1)
0x7f0|                              00               |          .     |      [5]: 0 ut_local_indicator (valid) 0x7fa-0x7fb (1)
0x7f0|                                 00            |           .    |      [6]: 0 ut_local_indicator (valid) 0x7fb-0x7fc (1)
0x7f0|                                    00         |            .   |      [7]: 0 ut_local_indicator (valid) 0x7fc-0x7fd (1)
0x7f0|                                       01      |             .  |      [8]: 1 ut_local_indicator (valid) 0x7fd-0x7fe (1)
0x7f0|                                          01   |              . |      [9]: 1 ut_local_indicator (valid) 0x7fe-0x7ff (1)
     |                                               |                |  footer{}: 0x7ff-0x81d (30)
0x7f0|                                             0a|               .|    nl1: 10 (valid) 0x7ff-0x800 (1)
0x800|45 45 54 2d 32 45 45 53 54 2c 4d 33 2e 35 2e 30|EET-2EEST,M3.5.0|    tz_string: "EET-2EEST,M3.5.0/3,M10.5.0/4" 0x800-0x81c (28)
0x810|2f 33 2c 4d 31 30 2e 35 2e 30 2f 34            |/3,M10.5.0/4    |
0x810|                                    0a|        |            .|  |    nl2: 10 (valid) 0x81c-0x81d (1)
