$ fq -d tzif dv St_Johns
     |00 01 02 03 04 05 06 07 08 09 0a 0b 0c 0d 0e 0f|0123456789abcdef|.{}: St_Johns (tzif) 0x0-0xec2 (3778)
     |                                               |                |  v1header{}: 0x0-0x2c (44)
0x000|54 5a 69 66                                    |TZif            |    magic: 0x545a6966 (valid) 0x0-0x4 (4)
0x000|            32                                 |    2           |    ver: "2" (0x32) (valid) 0x4-0x5 (1)
0x000|               00 00 00 00 00 00 00 00 00 00 00|     ...........|    reserved: raw bits 0x5-0x14 (15)
0x010|00 00 00 00                                    |....            |
0x010|            00 00 00 09                        |    ....        |    isutcnt: 9 0x14-0x18 (4)
0x010|                        00 00 00 09            |        ....    |    isstdcnt: 9 0x18-0x1c (4)
0x010|                                    00 00 00 1b|            ....|    leapcnt: 27 0x1c-0x20 (4)
0x020|00 00 00 d3                                    |....            |    timecnt: 211 0x20-0x24 (4)
0x020|            00 00 00 09                        |    ....        |    typecnt: 9 0x24-0x28 (4)
0x020|                        00 00 00 19            |        ....    |    charcnt: 25 0x28-0x2c (4)
     |                                               |                |  v1datablock{}: 0x2c-0x584 (1368)
     |                                               |                |    transition_times[0:211]: 0x2c-0x378 (844)
0x020|                                    80 00 00 00|            ....|      [0]: "1901-12-13T20:45:52Z" (-2147483648) transition_time 0x2c-0x30 (4)
0x030|9c cf 62 0c                                    |..b.            |      [1]: "1917-04-08T05:30:52Z" (-1664130548) transition_time 0x30-0x34 (4)
0x030|            9d a4 e6 fc                        |    ....        |      [2]: "1917-09-17T04:30:52Z" (-1650137348) transition_time 0x34-0x38 (4)
0x030|                        9e b8 7e 8c            |        ..~.    |      [3]: "1918-04-14T05:30:52Z" (-1632076148) transition_time 0x38-0x3c (4)
0x030|                                    9f ba d6 7c|            ...||      [4]: "1918-10-27T04:30:52Z" (-1615145348) transition_time 0x3c-0x40 (4)
0x040|a0 b6 88 dc                                    |....            |      [5]: "1919-05-06T02:30:52Z" (-1598650148) transition_time 0x40-0x44 (4)
0x040|            a1 38 ff 4c                        |    .8.L        |      [6]: "1919-08-13T01:30:52Z" (-1590100148) transition_time 0x44-0x48 (4)
0x040|                        a2 95 19 5c            |        ...\    |      [7]: "1920-05-03T02:30:52Z" (-1567286948) transition_time 0x48-0x4c (4)
0x040|                                    a3 84 fc 4c|            ...L|      [8]: "1920-11-01T01:30:52Z" (-1551565748) transition_time 0x4c-0x50 (4)
0x050|a4 74 fb 5c                                    |.t.\            |      [9]: "1921-05-02T02:30:52Z" (-1535837348) transition_time 0x50-0x54 (4)
0x050|            a5 64 de 4c                        |    .d.L        |      [10]: "1921-10-31T01:30:52Z" (-1520116148) transition_time 0x54-0x58 (4)
0x050|                        a6 5e 17 dc            |        .^..    |      [11]: "1922-05-08T02:30:52Z" (-1503782948) transition_time 0x58-0x5c (4)
0x050|                                    a7 44 c0 4c|            .D.L|      [12]: "1922-10-30T01:30:52Z" (-1488666548) transition_time 0x5c-0x60 (4)
0x060|a8 3d f9 dc                                    |.=..            |      [13]: "1923-05-07T02:30:52Z" (-1472333348) transition_time 0x60-0x64 (4)
0x060|            a9 24 a2 4c                        |    .$.L        |      [14]: "1923-10-29T01:30:52Z" (-1457216948) transition_time 0x64-0x68 (4)
0x060|                        aa 1d db dc            |        ....    |      [15]: "1924-05-05T02:30:52Z" (-1440883748) transition_time 0x68-0x6c (4)
0x060|                                    ab 04 84 4c|            ...L|      [16]: "1924-10-27T01:30:52Z" (-1425767348) transition_time 0x6c-0x70 (4)
0x070|ab fd bd dc                                    |....            |      [17]: "1925-05-04T02:30:52Z" (-1409434148) transition_time 0x70-0x74 (4)
0x070|            ac e4 66 4c                        |    ..fL        |      [18]: "1925-10-26T01:30:52Z" (-1394317748) transition_time 0x74-0x78 (4)
0x070|                        ad dd 9f dc            |        ....    |      [19]: "1926-05-03T02:30:52Z" (-1377984548) transition_time 0x78-0x7c (4)
0x070|                                    ae cd 82 cc|            ....|      [20]: "1926-11-01T01:30:52Z" (-1362263348) transition_time 0x7c-0x80 (4)
0x080|af bd 81 dc                                    |....            |      [21]: "1927-05-02T02:30:52Z" (-1346534948) transition_time 0x80-0x84 (4)
0x080|            b0 ad 64 cc                        |    ..d.        |      [22]: "1927-10-31T01:30:52Z" (-1330813748) transition_time 0x84-0x88 (4)
0x080|                        b1 a6 9e 5c            |        ...\    |      [23]: "1928-05-07T02:30:52Z" (-1314480548) transition_time 0x88-0x8c (4)
0x080|                                    b2 8d 46 cc|            ..F.|      [24]: "1928-10-29T01:30:52Z" (-1299364148) transition_time 0x8c-0x90 (4)
0x090|b3 86 80 5c                                    |...\            |      [25]: "1929-05-06T02:30:52Z" (-1283030948) transition_time 0x90-0x94 (4)
0x090|            b4 6d 28 cc                        |    .m(.        |      [26]: "1929-10-28T01:30:52Z" (-1267914548) transition_time 0x94-0x98 (4)
0x090|                        b5 66 62 5c            |        .fb\    |      [27]: "1930-05-05T02:30:52Z" (-1251581348) transition_time 0x98-0x9c (4)
0x090|                                    b6 4d 0a cc|            .M..|      [28]: "1930-10-27T01:30:52Z" (-1236464948) transition_time 0x9c-0xa0 (4)
0x0a0|b7 46 44 5c                                    |.FD\            |      [29]: "1931-05-04T02:30:52Z" (-1220131748) transition_time 0xa0-0xa4 (4)
0x0a0|            b8 2c ec cc                        |    .,..        |      [30]: "1931-10-26T01:30:52Z" (-1205015348) transition_time 0xa4-0xa8 (4)
0x0a0|                        b9 26 26 5c            |        .&&\    |      [31]: "1932-05-02T02:30:52Z" (-1188682148) transition_time 0xa8-0xac (4)
0x0a0|                                    ba 16 09 4c|            ...L|      [32]: "1932-10-31T01:30:52Z" (-1172960948) transition_time 0xac-0xb0 (4)
0x0b0|bb 0f 42 dc                                    |..B.            |      [33]: "1933-05-08T02:30:52Z" (-1156627748) transition_time 0xb0-0xb4 (4)
0x0b0|            bb f5 eb 4c                        |    ...L        |      [34]: "1933-10-30T01:30:52Z" (-1141511348) transition_time 0xb4-0xb8 (4)
0x0b0|                        bc ef 24 dc            |        ..$.    |      [35]: "1934-05-07T02:30:52Z" (-1125178148) transition_time 0xb8-0xbc (4)
0x0b0|                                    bd d5 cd 4c|            ...L|      [36]: "1934-10-29T01:30:52Z" (-1110061748) transition_time 0xbc-0xc0 (4)
0x0c0|be 9e 4d 6c                                    |..Ml            |      [37]: "1935-03-30T03:30:52Z" (-1096921748) transition_time 0xc0-0xc4 (4)
0x0c0|            be cf 06 a8                        |    ....        |      [38]: "1935-05-06T02:30:00Z" (-1093728600) transition_time 0xc4-0xc8 (4)
0x0c0|                        bf b5 af 18            |        ....    |      [39]: "1935-10-28T01:30:00Z" (-1078612200) transition_time 0xc8-0xcc (4)
0x0c0|                                    c0 b8 31 38|            ..18|      [40]: "1936-05-11T03:30:00Z" (-1061670600) transition_time 0xcc-0xd0 (4)
0x0d0|c1 79 ef a8                                    |.y..            |      [41]: "1936-10-05T02:30:00Z" (-1048973400) transition_time 0xd0-0xd4 (4)
0x0d0|            c2 98 13 38                        |    ...8        |      [42]: "1937-05-10T03:30:00Z" (-1030221000) transition_time 0xd4-0xd8 (4)
0x0d0|                        c3 59 d1 a8            |        .Y..    |      [43]: "1937-10-04T02:30:00Z" (-1017523800) transition_time 0xd8-0xdc (4)
0x0d0|                                    c4 77 f5 38|            .w.8|      [44]: "1938-05-09T03:30:00Z" (-998771400) transition_time 0xdc-0xe0 (4)
0x0e0|c5 39 b3 a8                                    |.9..            |      [45]: "1938-10-03T02:30:00Z" (-986074200) transition_time 0xe0-0xe4 (4)
0x0e0|            c6 61 11 b8                        |    .a..        |      [46]: "1939-05-15T03:30:00Z" (-966717000) transition_time 0xe4-0xe8 (4)
0x0e0|                        c7 19 95 a8            |        ....    |      [47]: "1939-10-02T02:30:00Z" (-954624600) transition_time 0xe8-0xec (4)
0x0e0|                                    c8 40 f3 b8|            .@..|      [48]: "1940-05-13T03:30:00Z" (-935267400) transition_time 0xec-0xf0 (4)
0x0f0|c9 02 b2 28                                    |...(            |      [49]: "1940-10-07T02:30:00Z" (-922570200) transition_time 0xf0-0xf4 (4)
0x0f0|            ca 20 d5 b8                        |    . ..        |      [50]: "1941-05-12T03:30:00Z" (-903817800) transition_time 0xf4-0xf8 (4)
0x0f0|                        ca e2 94 28            |        ...(    |      [51]: "1941-10-06T02:30:00Z" (-891120600) transition_time 0xf8-0xfc (4)
0x0f0|                                    cc 00 b7 b8|            ....|      [52]: "1942-05-11T03:30:00Z" (-872368200) transition_time 0xfc-0x100 (4)
0x100|d2 23 f4 70                                    |.#.p            |      [53]: "1945-08-14T23:00:00Z" (-769395600) transition_time 0x100-0x104 (4)
0x100|            d2 60 e6 c8                        |    .`..        |      [54]: "1945-09-30T04:30:00Z" (-765401400) transition_time 0x104-0x108 (4)
0x100|                        d3 88 44 d8            |        ..D.    |      [55]: "1946-05-12T05:30:00Z" (-746044200) transition_time 0x108-0x10c (4)
0x100|                                    d4 4a 03 48|            .J.H|      [56]: "1946-10-06T04:30:00Z" (-733347000) transition_time 0x10c-0x110 (4)
0x110|d5 68 26 d8                                    |.h&.            |      [57]: "1947-05-11T05:30:00Z" (-714594600) transition_time 0x110-0x114 (4)
0x110|            d6 29 e5 48                        |    .).H        |      [58]: "1947-10-05T04:30:00Z" (-701897400) transition_time 0x114-0x118 (4)
0x110|                        d7 48 08 d8            |        .H..    |      [59]: "1948-05-09T05:30:00Z" (-683145000) transition_time 0x118-0x11c (4)
0x110|                                    d8 09 c7 48|            ...H|      [60]: "1948-10-03T04:30:00Z" (-670447800) transition_time 0x11c-0x120 (4)
0x120|d9 27 ea d8                                    |.'..            |      [61]: "1949-05-08T05:30:00Z" (-651695400) transition_time 0x120-0x124 (4)
0x120|            d9 e9 a9 48                        |    ...H        |      [62]: "1949-10-02T04:30:00Z" (-638998200) transition_time 0x124-0x128 (4)
0x120|                        db 11 07 58            |        ...X    |      [63]: "1950-05-14T05:30:00Z" (-619641000) transition_time 0x128-0x12c (4)
0x120|                                    db d2 c5 c8|            ....|      [64]: "1950-10-08T04:30:00Z" (-606943800) transition_time 0x12c-0x130 (4)
0x130|dc de 74 58                                    |..tX            |      [65]: "1951-04-29T05:30:00Z" (-589401000) transition_time 0x130-0x134 (4)
0x130|            dd a9 6d 48                        |    ..mH        |      [66]: "1951-09-30T04:30:00Z" (-576099000) transition_time 0x134-0x138 (4)
0x130|                        de be 56 58            |        ..VX    |      [67]: "1952-04-27T05:30:00Z" (-557951400) transition_time 0x138-0x13c (4)
0x130|                                    df 89 4f 48|            ..OH|      [68]: "1952-09-28T04:30:00Z" (-544649400) transition_time 0x13c-0x140 (4)
0x140|e0 9e 38 58                                    |..8X            |      [69]: "1953-04-26T05:30:00Z" (-526501800) transition_time 0x140-0x144 (4)
0x140|            e1 69 31 48                        |    .i1H        |      [70]: "1953-09-27T04:30:00Z" (-513199800) transition_time 0x144-0x148 (4)
0x140|                        e2 7e 1a 58            |        .~.X    |      [71]: "1954-04-25T05:30:00Z" (-495052200) transition_time 0x148-0x14c (4)
0x140|                                    e3 49 13 48|            .I.H|      [72]: "1954-09-26T04:30:00Z" (-481750200) transition_time 0x14c-0x150 (4)
0x150|e4 5d fc 58                                    |.].X            |      [73]: "1955-04-24T05:30:00Z" (-463602600) transition_time 0x150-0x154 (4)
0x150|            e5 28 f5 48                        |    .(.H        |      [74]: "1955-09-25T04:30:00Z" (-450300600) transition_time 0x154-0x158 (4)
0x150|                        e6 47 18 d8            |        .G..    |      [75]: "1956-04-29T05:30:00Z" (-431548200) transition_time 0x158-0x15c (4)
0x150|                                    e7 12 11 c8|            ....|      [76]: "1956-09-30T04:30:00Z" (-418246200) transition_time 0x15c-0x160 (4)
0x160|e8 26 fa d8                                    |.&..            |      [77]: "1957-04-28T05:30:00Z" (-400098600) transition_time 0x160-0x164 (4)
0x160|            e8 f1 f3 c8                        |    ....        |      [78]: "1957-09-29T04:30:00Z" (-386796600) transition_time 0x164-0x168 (4)
0x160|                        ea 06 dc d8            |        ....    |      [79]: "1958-04-27T05:30:00Z" (-368649000) transition_time 0x168-0x16c (4)
0x160|                                    ea d1 d5 c8|            ....|      [80]: "1958-09-28T04:30:00Z" (-355347000) transition_time 0x16c-0x170 (4)
0x170|eb e6 be d8                                    |....            |      [81]: "1959-04-26T05:30:00Z" (-337199400) transition_time 0x170-0x174 (4)
0x170|            ec b1 b7 c8                        |    ....        |      [82]: "1959-09-27T04:30:00Z" (-323897400) transition_time 0x174-0x178 (4)
0x170|                        ed c6 a0 d8            |        ....    |      [83]: "1960-04-24T05:30:00Z" (-305749800) transition_time 0x178-0x17c (4)
0x170|                                    ee bf be 48|            ...H|      [84]: "1960-10-30T04:30:00Z" (-289423800) transition_time 0x17c-0x180 (4)
0x180|ef af bd 58                                    |...X            |      [85]: "1961-04-30T05:30:00Z" (-273695400) transition_time 0x180-0x184 (4)
0x180|            f0 9f a0 48                        |    ...H        |      [86]: "1961-10-29T04:30:00Z" (-257974200) transition_time 0x184-0x188 (4)
0x180|                        f1 8f 9f 58            |        ...X    |      [87]: "1962-04-29T05:30:00Z" (-242245800) transition_time 0x188-0x18c (4)
0x180|                                    f2 7f 82 48|            ...H|      [88]: "1962-10-28T04:30:00Z" (-226524600) transition_time 0x18c-0x190 (4)
0x190|f3 6f 81 58                                    |.o.X            |      [89]: "1963-04-28T05:30:00Z" (-210796200) transition_time 0x190-0x194 (4)
0x190|            f4 5f 64 48                        |    ._dH        |      [90]: "1963-10-27T04:30:00Z" (-195075000) transition_time 0x194-0x198 (4)
0x190|                        f5 4f 63 58            |        .OcX    |      [91]: "1964-04-26T05:30:00Z" (-179346600) transition_time 0x198-0x19c (4)
0x190|                                    f6 3f 46 48|            .?FH|      [92]: "1964-10-25T04:30:00Z" (-163625400) transition_time 0x19c-0x1a0 (4)
0x1a0|f7 2f 45 58                                    |./EX            |      [93]: "1965-04-25T05:30:00Z" (-147897000) transition_time 0x1a0-0x1a4 (4)
0x1a0|            f8 28 62 c8                        |    .(b.        |      [94]: "1965-10-31T04:30:00Z" (-131571000) transition_time 0x1a4-0x1a8 (4)
0x1a0|                        f9 0f 27 58            |        ..'X    |      [95]: "1966-04-24T05:30:00Z" (-116447400) transition_time 0x1a8-0x1ac (4)
0x1a0|                                    fa 08 44 c8|            ..D.|      [96]: "1966-10-30T04:30:00Z" (-100121400) transition_time 0x1ac-0x1b0 (4)
0x1b0|fa f8 43 d8                                    |..C.            |      [97]: "1967-04-30T05:30:00Z" (-84393000) transition_time 0x1b0-0x1b4 (4)
0x1b0|            fb e8 26 c8                        |    ..&.        |      [98]: "1967-10-29T04:30:00Z" (-68671800) transition_time 0x1b4-0x1b8 (4)
0x1b0|                        fc d8 25 d8            |        ..%.    |      [99]: "1968-04-28T05:30:00Z" (-52943400) transition_time 0x1b8-0x1bc (4)
0x1b0|                                    fd c8 08 c8|            ....|      [100]: "1968-10-27T04:30:00Z" (-37222200) transition_time 0x1bc-0x1c0 (4)
0x1c0|fe b8 07 d8                                    |....            |      [101]: "1969-04-27T05:30:00Z" (-21493800) transition_time 0x1c0-0x1c4 (4)
0x1c0|            ff a7 ea c8                        |    ....        |      [102]: "1969-10-26T04:30:00Z" (-5772600) transition_time 0x1c4-0x1c8 (4)
0x1c0|                        00 97 e9 d8            |        ....    |      [103]: "1970-04-26T05:30:00Z" (9955800) transition_time 0x1c8-0x1cc (4)
0x1c0|                                    01 87 cc c8|            ....|      [104]: "1970-10-25T04:30:00Z" (25677000) transition_time 0x1cc-0x1d0 (4)
0x1d0|02 77 cb d8                                    |.w..            |      [105]: "1971-04-25T05:30:00Z" (41405400) transition_time 0x1d0-0x1d4 (4)
0x1d0|            03 70 e9 48                        |    .p.H        |      [106]: "1971-10-31T04:30:00Z" (57731400) transition_time 0x1d4-0x1d8 (4)
0x1d0|                        04 60 e8 58            |        .`.X    |      [107]: "1972-04-30T05:30:00Z" (73459800) transition_time 0x1d8-0x1dc (4)
0x1d0|                                    05 50 cb 49|            .P.I|      [108]: "1972-10-29T04:30:01Z" (89181001) transition_time 0x1dc-0x1e0 (4)
0x1e0|06 40 ca 5a                                    |.@.Z            |      [109]: "1973-04-29T05:30:02Z" (104909402) transition_time 0x1e0-0x1e4 (4)
0x1e0|            07 30 ad 4a                        |    .0.J        |      [110]: "1973-10-28T04:30:02Z" (120630602) transition_time 0x1e4-0x1e8 (4)
0x1e0|                        08 20 ac 5b            |        . .[    |      [111]: "1974-04-28T05:30:03Z" (136359003) transition_time 0x1e8-0x1ec (4)
0x1e0|                                    09 10 8f 4b|            ...K|      [112]: "1974-10-27T04:30:03Z" (152080203) transition_time 0x1ec-0x1f0 (4)
0x1f0|0a 00 8e 5c                                    |...\            |      [113]: "1975-04-27T05:30:04Z" (167808604) transition_time 0x1f0-0x1f4 (4)
0x1f0|            0a f0 71 4c                        |    ..qL        |      [114]: "1975-10-26T04:30:04Z" (183529804) transition_time 0x1f4-0x1f8 (4)
0x1f0|                        0b e0 70 5d            |        ..p]    |      [115]: "1976-04-25T05:30:05Z" (199258205) transition_time 0x1f8-0x1fc (4)
0x1f0|                                    0c d9 8d cd|            ....|      [116]: "1976-10-31T04:30:05Z" (215584205) transition_time 0x1fc-0x200 (4)
0x200|0d c0 52 5e                                    |..R^            |      [117]: "1977-04-24T05:30:06Z" (230707806) transition_time 0x200-0x204 (4)
0x200|            0e b9 6f ce                        |    ..o.        |      [118]: "1977-10-30T04:30:06Z" (247033806) transition_time 0x204-0x208 (4)
0x200|                        0f a9 6e df            |        ..n.    |      [119]: "1978-04-30T05:30:07Z" (262762207) transition_time 0x208-0x20c (4)
0x200|                                    10 99 51 cf|            ..Q.|      [120]: "1978-10-29T04:30:07Z" (278483407) transition_time 0x20c-0x210 (4)
0x210|11 89 50 e0                                    |..P.            |      [121]: "1979-04-29T05:30:08Z" (294211808) transition_time 0x210-0x214 (4)
0x210|            12 79 33 d0                        |    .y3.        |      [122]: "1979-10-28T04:30:08Z" (309933008) transition_time 0x214-0x218 (4)
0x210|                        13 69 32 e1            |        .i2.    |      [123]: "1980-04-27T05:30:09Z" (325661409) transition_time 0x218-0x21c (4)
0x210|                                    14 59 15 d1|            .Y..|      [124]: "1980-10-26T04:30:09Z" (341382609) transition_time 0x21c-0x220 (4)
0x220|15 49 14 e1                                    |.I..            |      [125]: "1981-04-26T05:30:09Z" (357111009) transition_time 0x220-0x224 (4)
0x220|            16 38 f7 d2                        |    .8..        |      [126]: "1981-10-25T04:30:10Z" (372832210) transition_time 0x224-0x228 (4)
0x220|                        17 28 f6 e2            |        .(..    |      [127]: "1982-04-25T05:30:10Z" (388560610) transition_time 0x228-0x22c (4)
0x220|                                    18 22 14 53|            .".S|      [128]: "1982-10-31T04:30:11Z" (404886611) transition_time 0x22c-0x230 (4)
0x230|19 08 d8 e3                                    |....            |      [129]: "1983-04-24T05:30:11Z" (420010211) transition_time 0x230-0x234 (4)
0x230|            1a 01 f6 54                        |    ...T        |      [130]: "1983-10-30T04:30:12Z" (436336212) transition_time 0x234-0x238 (4)
0x230|                        1a f1 f5 64            |        ...d    |      [131]: "1984-04-29T05:30:12Z" (452064612) transition_time 0x238-0x23c (4)
0x230|                                    1b e1 d8 54|            ...T|      [132]: "1984-10-28T04:30:12Z" (467785812) transition_time 0x23c-0x240 (4)
0x240|1c d1 d7 64                                    |...d            |      [133]: "1985-04-28T05:30:12Z" (483514212) transition_time 0x240-0x244 (4)
0x240|            1d c1 ba 55                        |    ...U        |      [134]: "1985-10-27T04:30:13Z" (499235413) transition_time 0x244-0x248 (4)
0x240|                        1e b1 b9 65            |        ...e    |      [135]: "1986-04-27T05:30:13Z" (514963813) transition_time 0x248-0x24c (4)
0x240|                                    1f a1 9c 55|            ...U|      [136]: "1986-10-26T04:30:13Z" (530685013) transition_time 0x24c-0x250 (4)
0x250|20 75 d0 01                                    | u..            |      [137]: "1987-04-05T03:31:13Z" (544591873) transition_time 0x250-0x254 (4)
0x250|            21 81 62 71                        |    !.bq        |      [138]: "1987-10-25T02:31:13Z" (562127473) transition_time 0x254-0x258 (4)
0x250|                        22 55 b2 02            |        "U..    |      [139]: "1988-04-03T03:31:14Z" (576041474) transition_time 0x258-0x25c (4)
0x250|                                    23 6a 70 e2|            #jp.|      [140]: "1988-10-30T01:31:14Z" (594178274) transition_time 0x25c-0x260 (4)
0x260|24 35 94 02                                    |$5..            |      [141]: "1989-04-02T03:31:14Z" (607491074) transition_time 0x260-0x264 (4)
0x260|            25 4a 60 f2                        |    %J`.        |      [142]: "1989-10-29T02:31:14Z" (625631474) transition_time 0x264-0x268 (4)
0x260|                        26 15 76 03            |        &.v.    |      [143]: "1990-04-01T03:31:15Z" (638940675) transition_time 0x268-0x26c (4)
0x260|                                    27 2a 42 f3|            '*B.|      [144]: "1990-10-28T02:31:15Z" (657081075) transition_time 0x26c-0x270 (4)
0x270|27 fe 92 84                                    |'...            |      [145]: "1991-04-07T03:31:16Z" (670995076) transition_time 0x270-0x274 (4)
0x270|            29 0a 24 f4                        |    ).$.        |      [146]: "1991-10-27T02:31:16Z" (688530676) transition_time 0x274-0x278 (4)
0x270|                        29 de 74 84            |        ).t.    |      [147]: "1992-04-05T03:31:16Z" (702444676) transition_time 0x278-0x27c (4)
0x270|                                    2a ea 06 f5|            *...|      [148]: "1992-10-25T02:31:17Z" (719980277) transition_time 0x27c-0x280 (4)
0x280|2b be 56 85                                    |+.V.            |      [149]: "1993-04-04T03:31:17Z" (733894277) transition_time 0x280-0x284 (4)
0x280|            2c d3 23 76                        |    ,.#v        |      [150]: "1993-10-31T02:31:18Z" (752034678) transition_time 0x284-0x288 (4)
0x280|                        2d 9e 38 86            |        -.8.    |      [151]: "1994-04-03T03:31:18Z" (765343878) transition_time 0x288-0x28c (4)
0x280|                                    2e b3 05 77|            ...w|      [152]: "1994-10-30T02:31:19Z" (783484279) transition_time 0x28c-0x290 (4)
0x290|2f 7e 1a 87                                    |/~..            |      [153]: "1995-04-02T03:31:19Z" (796793479) transition_time 0x290-0x294 (4)
0x290|            30 92 e7 77                        |    0..w        |      [154]: "1995-10-29T02:31:19Z" (814933879) transition_time 0x294-0x298 (4)
0x290|                        31 67 37 08            |        1g7.    |      [155]: "1996-04-07T03:31:20Z" (828847880) transition_time 0x298-0x29c (4)
0x290|                                    32 72 c9 78|            2r.x|      [156]: "1996-10-27T02:31:20Z" (846383480) transition_time 0x29c-0x2a0 (4)
0x2a0|33 47 19 08                                    |3G..            |      [157]: "1997-04-06T03:31:20Z" (860297480) transition_time 0x2a0-0x2a4 (4)
0x2a0|            34 52 ab 79                        |    4R.y        |      [158]: "1997-10-26T02:31:21Z" (877833081) transition_time 0x2a4-0x2a8 (4)
0x2a0|                        35 26 fb 09            |        5&..    |      [159]: "1998-04-05T03:31:21Z" (891747081) transition_time 0x2a8-0x2ac (4)
0x2a0|                                    36 32 8d 79|            62.y|      [160]: "1998-10-25T02:31:21Z" (909282681) transition_time 0x2ac-0x2b0 (4)
0x2b0|37 06 dd 0a                                    |7...            |      [161]: "1999-04-04T03:31:22Z" (923196682) transition_time 0x2b0-0x2b4 (4)
0x2b0|            38 1b a9 fa                        |    8...        |      [162]: "1999-10-31T02:31:22Z" (941337082) transition_time 0x2b4-0x2b8 (4)
0x2b0|                        38 e6 bf 0a            |        8...    |      [163]: "2000-04-02T03:31:22Z" (954646282) transition_time 0x2b8-0x2bc (4)
0x2b0|                                    39 fb 8b fa|            9...|      [164]: "2000-10-29T02:31:22Z" (972786682) transition_time 0x2bc-0x2c0 (4)
0x2c0|3a c6 a1 0a                                    |:...            |      [165]: "2001-04-01T03:31:22Z" (986095882) transition_time 0x2c0-0x2c4 (4)
0x2c0|            3b db 6d fa                        |    ;.m.        |      [166]: "2001-10-28T02:31:22Z" (1004236282) transition_time 0x2c4-0x2c8 (4)
0x2c0|                        3c af bd 8a            |        <...    |      [167]: "2002-04-07T03:31:22Z" (1018150282) transition_time 0x2c8-0x2cc (4)
0x2c0|                                    3d bb 4f fa|            =.O.|      [168]: "2002-10-27T02:31:22Z" (1035685882) transition_time 0x2cc-0x2d0 (4)
0x2d0|3e 8f 9f 8a                                    |>...            |      [169]: "2003-04-06T03:31:22Z" (1049599882) transition_time 0x2d0-0x2d4 (4)
0x2d0|            3f 9b 31 fa                        |    ?.1.        |      [170]: "2003-10-26T02:31:22Z" (1067135482) transition_time 0x2d4-0x2d8 (4)
0x2d0|                        40 6f 81 8a            |        @o..    |      [171]: "2004-04-04T03:31:22Z" (1081049482) transition_time 0x2d8-0x2dc (4)
0x2d0|                                    41 84 4e 7a|            A.Nz|      [172]: "2004-10-31T02:31:22Z" (1099189882) transition_time 0x2dc-0x2e0 (4)
0x2e0|42 4f 63 8a                                    |BOc.            |      [173]: "2005-04-03T03:31:22Z" (1112499082) transition_time 0x2e0-0x2e4 (4)
0x2e0|            43 64 30 7a                        |    Cd0z        |      [174]: "2005-10-30T02:31:22Z" (1130639482) transition_time 0x2e4-0x2e8 (4)
0x2e0|                        44 2f 45 8b            |        D/E.    |      [175]: "2006-04-02T03:31:23Z" (1143948683) transition_time 0x2e8-0x2ec (4)
0x2e0|                                    45 44 12 7b|            ED.{|      [176]: "2006-10-29T02:31:23Z" (1162089083) transition_time 0x2ec-0x2f0 (4)
0x2f0|45 f3 78 0b                                    |E.x.            |      [177]: "2007-03-11T03:31:23Z" (1173583883) transition_time 0x2f0-0x2f4 (4)
0x2f0|            47 2d 2e fb                        |    G-..        |      [178]: "2007-11-04T02:31:23Z" (1194143483) transition_time 0x2f4-0x2f8 (4)
0x2f0|                        47 d3 5a 0b            |        G.Z.    |      [179]: "2008-03-09T03:31:23Z" (1205033483) transition_time 0x2f8-0x2fc (4)
0x2f0|                                    49 0d 10 fb|            I...|      [180]: "2008-11-02T02:31:23Z" (1225593083) transition_time 0x2fc-0x300 (4)
0x300|49 b3 3c 0c                                    |I.<.            |      [181]: "2009-03-08T03:31:24Z" (1236483084) transition_time 0x300-0x304 (4)
0x300|            4a ec f2 fc                        |    J...        |      [182]: "2009-11-01T02:31:24Z" (1257042684) transition_time 0x304-0x308 (4)
0x300|                        4b 9c 58 8c            |        K.X.    |      [183]: "2010-03-14T03:31:24Z" (1268537484) transition_time 0x308-0x30c (4)
0x300|                                    4c d6 0f 7c|            L..||      [184]: "2010-11-07T02:31:24Z" (1289097084) transition_time 0x30c-0x310 (4)
0x310|4d 7c 3a 8c                                    |M|:.            |      [185]: "2011-03-13T03:31:24Z" (1299987084) transition_time 0x310-0x314 (4)
0x310|            4e b6 0d 60                        |    N..`        |      [186]: "2011-11-06T04:30:24Z" (1320553824) transition_time 0x314-0x318 (4)
0x310|                        4f 5c 38 70            |        O\8p    |      [187]: "2012-03-11T05:30:24Z" (1331443824) transition_time 0x318-0x31c (4)
0x310|                                    50 95 ef 61|            P..a|      [188]: "2012-11-04T04:30:25Z" (1352003425) transition_time 0x31c-0x320 (4)
0x320|51 3c 1a 71                                    |Q<.q            |      [189]: "2013-03-10T05:30:25Z" (1362893425) transition_time 0x320-0x324 (4)
0x320|            52 75 d1 61                        |    Ru.a        |      [190]: "2013-11-03T04:30:25Z" (1383453025) transition_time 0x324-0x328 (4)
0x320|                        53 1b fc 71            |        S..q    |      [191]: "2014-03-09T05:30:25Z" (1394343025) transition_time 0x328-0x32c (4)
0x320|                                    54 55 b3 61|            TU.a|      [192]: "2014-11-02T04:30:25Z" (1414902625) transition_time 0x32c-0x330 (4)
0x330|54 fb de 71                                    |T..q            |      [193]: "2015-03-08T05:30:25Z" (1425792625) transition_time 0x330-0x334 (4)
0x330|            56 35 95 62                        |    V5.b        |      [194]: "2015-11-01T04:30:26Z" (1446352226) transition_time 0x334-0x338 (4)
0x330|                        56 e4 fa f2            |        V...    |      [195]: "2016-03-13T05:30:26Z" (1457847026) transition_time 0x338-0x33c (4)
0x330|                                    58 1e b1 e2|            X...|      [196]: "2016-11-06T04:30:26Z" (1478406626) transition_time 0x33c-0x340 (4)
0x340|58 c4 dc f3                                    |X...            |      [197]: "2017-03-12T05:30:27Z" (1489296627) transition_time 0x340-0x344 (4)
0x340|            59 fe 93 e3                        |    Y...        |      [198]: "2017-11-05T04:30:27Z" (1509856227) transition_time 0x344-0x348 (4)
0x340|                        5a a4 be f3            |        Z...    |      [199]: "2018-03-11T05:30:27Z" (1520746227) transition_time 0x348-0x34c (4)
0x340|                                    5b de 75 e3|            [.u.|      [200]: "2018-11-04T04:30:27Z" (1541305827) transition_time 0x34c-0x350 (4)
0x350|5c 84 a0 f3                                    |\...            |      [201]: "2019-03-10T05:30:27Z" (1552195827) transition_time 0x350-0x354 (4)
0x350|            5d be 57 e3                        |    ].W.        |      [202]: "2019-11-03T04:30:27Z" (1572755427) transition_time 0x354-0x358 (4)
0x350|                        5e 64 82 f3            |        ^d..    |      [203]: "2020-03-08T05:30:27Z" (1583645427) transition_time 0x358-0x35c (4)
0x350|                                    5f 9e 39 e3|            _.9.|      [204]: "2020-11-01T04:30:27Z" (1604205027) transition_time 0x35c-0x360 (4)
0x360|60 4d 9f 73                                    |`M.s            |      [205]: "2021-03-14T05:30:27Z" (1615699827) transition_time 0x360-0x364 (4)
0x360|            61 87 56 63                        |    a.Vc        |      [206]: "2021-11-07T04:30:27Z" (1636259427) transition_time 0x364-0x368 (4)
0x360|                        62 2d 81 73            |        b-.s    |      [207]: "2022-03-13T05:30:27Z" (1647149427) transition_time 0x368-0x36c (4)
0x360|                                    63 67 38 63|            cg8c|      [208]: "2022-11-06T04:30:27Z" (1667709027) transition_time 0x36c-0x370 (4)
0x370|64 0d 63 73                                    |d.cs            |      [209]: "2023-03-12T05:30:27Z" (1678599027) transition_time 0x370-0x374 (4)
0x370|            64 9b 78 1b                        |    d.x.        |      [210]: "2023-06-28T00:00:27Z" (1687910427) transition_time 0x374-0x378 (4)
     |                                               |                |    transition_types[0:211]: 0x378-0x44b (211)
0x370|                        02                     |        .       |      [0]: 2 transition_type 0x378-0x379 (1)
0x370|                           01                  |         .      |      [1]: 1 transition_type 0x379-0x37a (1)
0x370|                              02               |          .     |      [2]: 2 transition_type 0x37a-0x37b (1)
0x370|                                 01            |           .    |      [3]: 1 transition_type 0x37b-0x37c (1)
0x370|                                    02         |            .   |      [4]: 2 transition_type 0x37c-0x37d (1)
0x370|                                       01      |             .  |      [5]: 1 transition_type 0x37d-0x37e (1)
0x370|                                          02   |              . |      [6]: 2 transition_type 0x37e-0x37f (1)
0x370|                                             01|               .|      [7]: 1 transition_type 0x37f-0x380 (1)
0x380|02                                             |.               |      [8]: 2 transition_type 0x380-0x381 (1)
0x380|   01                                          | .              |      [9]: 1 transition_type 0x381-0x382 (1)
0x380|      02                                       |  .             |      [10]: 2 transition_type 0x382-0x383 (1)
0x380|         01                                    |   .            |      [11]: 1 transition_type 0x383-0x384 (1)
0x380|            02                                 |    .           |      [12]: 2 transition_type 0x384-0x385 (1)
0x380|               01                              |     .          |      [13]: 1 transition_type 0x385-0x386 (1)
0x380|                  02                           |      .         |      [14]: 2 transition_type 0x386-0x387 (1)
0x380|                     01                        |       .        |      [15]: 1 transition_type 0x387-0x388 (1)
0x380|                        02                     |        .       |      [16]: 2 transition_type 0x388-0x389 (1)
0x380|                           01                  |         .      |      [17]: 1 transition_type 0x389-0x38a (1)
0x380|                              02               |          .     |      [18]: 2 transition_type 0x38a-0x38b (1)
0x380|                                 01            |           .    |      [19]: 1 transition_type 0x38b-0x38c (1)
0x380|                                    02         |            .   |      [20]: 2 transition_type 0x38c-0x38d (1)
0x380|                                       01      |             .  |      [21]: 1 transition_type 0x38d-0x38e (1)
0x380|                                          02   |              . |      [22]: 2 transition_type 0x38e-0x38f (1)
0x380|                                             01|               .|      [23]: 1 transition_type 0x38f-0x390 (1)
0x390|02                                             |.               |      [24]: 2 transition_type 0x390-0x391 (1)
0x390|   01                                          | .              |      [25]: 1 transition_type 0x391-0x392 (1)
0x390|      02                                       |  .             |      [26]: 2 transition_type 0x392-0x393 (1)
0x390|         01                                    |   .            |      [27]: 1 transition_type 0x393-0x394 (1)
0x390|            02                                 |    .           |      [28]: 2 transition_type 0x394-0x395 (1)
0x390|               01                              |     .          |      [29]: 1 transition_type 0x395-0x396 (1)
0x390|                  02                           |      .         |      [30]: 2 transition_type 0x396-0x397 (1)
0x390|                     01                        |       .        |      [31]: 1 transition_type 0x397-0x398 (1)
0x390|                        02                     |        .       |      [32]: 2 transition_type 0x398-0x399 (1)
0x390|                           01                  |         .      |      [33]: 1 transition_type 0x399-0x39a (1)
0x390|                              02               |          .     |      [34]: 2 transition_type 0x39a-0x39b (1)
0x390|                                 01            |           .    |      [35]: 1 transition_type 0x39b-0x39c (1)
0x390|                                    02         |            .   |      [36]: 2 transition_type 0x39c-0x39d (1)
0x390|                                       04      |             .  |      [37]: 4 transition_type 0x39d-0x39e (1)
0x390|                                          03   |              . |      [38]: 3 transition_type 0x39e-0x39f (1)
0x390|                                             04|               .|      [39]: 4 transition_type 0x39f-0x3a0 (1)
0x3a0|03                                             |.               |      [40]: 3 transition_type 0x3a0-0x3a1 (1)
0x3a0|   04                                          | .              |      [41]: 4 transition_type 0x3a1-0x3a2 (1)
0x3a0|      03                                       |  .             |      [42]: 3 transition_type 0x3a2-0x3a3 (1)
0x3a0|         04                                    |   .            |      [43]: 4 transition_type 0x3a3-0x3a4 (1)
0x3a0|            03                                 |    .           |      [44]: 3 transition_type 0x3a4-0x3a5 (1)
0x3a0|               04                              |     .          |      [45]: 4 transition_type 0x3a5-0x3a6 (1)
0x3a0|                  03                           |      .         |      [46]: 3 transition_type 0x3a6-0x3a7 (1)
0x3a0|                     04                        |       .        |      [47]: 4 transition_type 0x3a7-0x3a8 (1)
0x3a0|                        03                     |        .       |      [48]: 3 transition_type 0x3a8-0x3a9 (1)
0x3a0|                           04                  |         .      |      [49]: 4 transition_type 0x3a9-0x3aa (1)
0x3a0|                              03               |          .     |      [50]: 3 transition_type 0x3aa-0x3ab (1)
0x3a0|                                 04            |           .    |      [51]: 4 transition_type 0x3ab-0x3ac (1)
0x3a0|                                    06         |            .   |      [52]: 6 transition_type 0x3ac-0x3ad (1)
0x3a0|                                       05      |             .  |      [53]: 5 transition_type 0x3ad-0x3ae (1)
0x3a0|                                          04   |              . |      [54]: 4 transition_type 0x3ae-0x3af (1)
0x3a0|                                             03|               .|      [55]: 3 transition_type 0x3af-0x3b0 (1)
0x3b0|04                                             |.               |      [56]: 4 transition_type 0x3b0-0x3b1 (1)
0x3b0|   03                                          | .              |      [57]: 3 transition_type 0x3b1-0x3b2 (1)
0x3b0|      04                                       |  .             |      [58]: 4 transition_type 0x3b2-0x3b3 (1)
0x3b0|         03                                    |   .            |      [59]: 3 transition_type 0x3b3-0x3b4 (1)
0x3b0|            04                                 |    .           |      [60]: 4 transition_type 0x3b4-0x3b5 (1)
0x3b0|               03                              |     .          |      [61]: 3 transition_type 0x3b5-0x3b6 (1)
0x3b0|                  04                           |      .         |      [62]: 4 transition_type 0x3b6-0x3b7 (1)
0x3b0|                     03                        |       .        |      [63]: 3 transition_type 0x3b7-0x3b8 (1)
0x3b0|                        04                     |        .       |      [64]: 4 transition_type 0x3b8-0x3b9 (1)
0x3b0|                           03                  |         .      |      [65]: 3 transition_type 0x3b9-0x3ba (1)
0x3b0|                              04               |          .     |      [66]: 4 transition_type 0x3ba-0x3bb (1)
0x3b0|                                 03            |           .    |      [67]: 3 transition_type 0x3bb-0x3bc (1)
0x3b0|                                    04         |            .   |      [68]: 4 transition_type 0x3bc-0x3bd (1)
0x3b0|                                       03      |             .  |      [69]: 3 transition_type 0x3bd-0x3be (1)
0x3b0|                                          04   |              . |      [70]: 4 transition_type 0x3be-0x3bf (1)
0x3b0|                                             03|               .|      [71]: 3 transition_type 0x3bf-0x3c0 (1)
0x3c0|04                                             |.               |      [72]: 4 transition_type 0x3c0-0x3c1 (1)
0x3c0|   03                                          | .              |      [73]: 3 transition_type 0x3c1-0x3c2 (1)
0x3c0|      04                                       |  .             |      [74]: 4 transition_type 0x3c2-0x3c3 (1)
0x3c0|         03                                    |   .            |      [75]: 3 transition_type 0x3c3-0x3c4 (1)
0x3c0|            04                                 |    .           |      [76]: 4 transition_type 0x3c4-0x3c5 (1)
0x3c0|               03                              |     .          |      [77]: 3 transition_type 0x3c5-0x3c6 (1)
0x3c0|                  04                           |      .         |      [78]: 4 transition_type 0x3c6-0x3c7 (1)
0x3c0|                     03                        |       .        |      [79]: 3 transition_type 0x3c7-0x3c8 (1)
0x3c0|                        04                     |        .       |      [80]: 4 transition_type 0x3c8-0x3c9 (1)
0x3c0|                           03                  |         .      |      [81]: 3 transition_type 0x3c9-0x3ca (1)
0x3c0|                              04               |          .     |      [82]: 4 transition_type 0x3ca-0x3cb (1)
0x3c0|                                 03            |           .    |      [83]: 3 transition_type 0x3cb-0x3cc (1)
0x3c0|                                    04         |            .   |      [84]: 4 transition_type 0x3cc-0x3cd (1)
0x3c0|                                       03      |             .  |      [85]: 3 transition_type 0x3cd-0x3ce (1)
0x3c0|                                          04   |              . |      [86]: 4 transition_type 0x3ce-0x3cf (1)
0x3c0|                                             03|               .|      [87]: 3 transition_type 0x3cf-0x3d0 (1)
0x3d0|04                                             |.               |      [88]: 4 transition_type 0x3d0-0x3d1 (1)
0x3d0|   03                                          | .              |      [89]: 3 transition_type 0x3d1-0x3d2 (1)
0x3d0|      04                                       |  .             |      [90]: 4 transition_type 0x3d2-0x3d3 (1)
0x3d0|         03                                    |   .            |      [91]: 3 transition_type 0x3d3-0x3d4 (1)
0x3d0|            04                                 |    .           |      [92]: 4 transition_type 0x3d4-0x3d5 (1)
0x3d0|               03                              |     .          |      [93]: 3 transition_type 0x3d5-0x3d6 (1)
0x3d0|                  04                           |      .         |      [94]: 4 transition_type 0x3d6-0x3d7 (1)
0x3d0|                     03                        |       .        |      [95]: 3 transition_type 0x3d7-0x3d8 (1)
0x3d0|                        04                     |        .       |      [96]: 4 transition_type 0x3d8-0x3d9 (1)
0x3d0|                           03                  |         .      |      [97]: 3 transition_type 0x3d9-0x3da (1)
0x3d0|                              04               |          .     |      [98]: 4 transition_type 0x3da-0x3db (1)
0x3d0|                                 03            |           .    |      [99]: 3 transition_type 0x3db-0x3dc (1)
0x3d0|                                    04         |            .   |      [100]: 4 transition_type 0x3dc-0x3dd (1)
0x3d0|                                       03      |             .  |      [101]: 3 transition_type 0x3dd-0x3de (1)
0x3d0|                                          04   |              . |      [102]: 4 transition_type 0x3de-0x3df (1)
0x3d0|                                             03|               .|      [103]: 3 transition_type 0x3df-0x3e0 (1)
0x3e0|04                                             |.               |      [104]: 4 transition_type 0x3e0-0x3e1 (1)
0x3e0|   03                                          | .              |      [105]: 3 transition_type 0x3e1-0x3e2 (1)
0x3e0|      04                                       |  .             |      [106]: 4 transition_type 0x3e2-0x3e3 (1)
0x3e0|         03                                    |   .            |      [107]: 3 transition_type 0x3e3-0x3e4 (1)
0x3e0|            04                                 |    .           |      [108]: 4 transition_type 0x3e4-0x3e5 (1)
0x3e0|               03                              |     .          |      [109]: 3 transition_type 0x3e5-0x3e6 (1)
0x3e0|                  04                           |      .         |      [110]: 4 transition_type 0x3e6-0x3e7 (1)
0x3e0|                     03                        |       .        |      [111]: 3 transition_type 0x3e7-0x3e8 (1)
0x3e0|                        04                     |        .       |      [112]: 4 transition_type 0x3e8-0x3e9 (1)
0x3e0|                           03                  |         .      |      [113]: 3 transition_type 0x3e9-0x3ea (1)
0x3e0|                              04               |          .     |      [114]: 4 transition_type 0x3ea-0x3eb (1)
0x3e0|                                 03            |           .    |      [115]: 3 transition_type 0x3eb-0x3ec (1)
0x3e0|                                    04         |            .   |      [116]: 4 transition_type 0x3ec-0x3ed (1)
0x3e0|                                       03      |             .  |      [117]: 3 transition_type 0x3ed-0x3ee (1)
0x3e0|                                          04   |              . |      [118]: 4 transition_type 0x3ee-0x3ef (1)
0x3e0|                                             03|               .|      [119]: 3 transition_type 0x3ef-0x3f0 (1)
0x3f0|04                                             |.               |      [120]: 4 transition_type 0x3f0-0x3f1 (1)
0x3f0|   03                                          | .              |      [121]: 3 transition_type 0x3f1-0x3f2 (1)
0x3f0|      04                                       |  .             |      [122]: 4 transition_type 0x3f2-0x3f3 (1)
0x3f0|         03                                    |   .            |      [123]: 3 transition_type 0x3f3-0x3f4 (1)
0x3f0|            04                                 |    .           |      [124]: 4 transition_type 0x3f4-0x3f5 (1)
0x3f0|               03                              |     .          |      [125]: 3 transition_type 0x3f5-0x3f6 (1)
0x3f0|                  04                           |      .         |      [126]: 4 transition_type 0x3f6-0x3f7 (1)
0x3f0|                     03                        |       .        |      [127]: 3 transition_type 0x3f7-0x3f8 (1)
0x3f0|                        04                     |        .       |      [128]: 4 transition_type 0x3f8-0x3f9 (1)
0x3f0|                           03                  |         .      |      [129]: 3 transition_type 0x3f9-0x3fa (1)
0x3f0|                              04               |          .     |      [130]: 4 transition_type 0x3fa-0x3fb (1)
0x3f0|                                 03            |           .    |      [131]: 3 transition_type 0x3fb-0x3fc (1)
0x3f0|                                    04         |            .   |      [132]: 4 transition_type 0x3fc-0x3fd (1)
0x3f0|                                       03      |             .  |      [133]: 3 transition_type 0x3fd-0x3fe (1)
0x3f0|                                          04   |              . |      [134]: 4 transition_type 0x3fe-0x3ff (1)
0x3f0|                                             03|               .|      [135]: 3 transition_type 0x3ff-0x400 (1)
0x400|04                                             |.               |      [136]: 4 transition_type 0x400-0x401 (1)
0x400|   03                                          | .              |      [137]: 3 transition_type 0x401-0x402 (1)
0x400|      04                                       |  .             |      [138]: 4 transition_type 0x402-0x403 (1)
0x400|         07                                    |   .            |      [139]: 7 transition_type 0x403-0x404 (1)
0x400|            04                                 |    .           |      [140]: 4 transition_type 0x404-0x405 (1)
0x400|               03                              |     .          |      [141]: 3 transition_type 0x405-0x406 (1)
0x400|                  04                           |      .         |      [142]: 4 transition_type 0x406-0x407 (1)
0x400|                     03                        |       .        |      [143]: 3 transition_type 0x407-0x408 (1)
0x400|                        04                     |        .       |      [144]: 4 transition_type 0x408-0x409 (1)
0x400|                           03                  |         .      |      [145]: 3 transition_type 0x409-0x40a (1)
0x400|                              04               |          .     |      [146]: 4 transition_type 0x40a-0x40b (1)
0x400|                                 03            |           .    |      [147]: 3 transition_type 0x40b-0x40c (1)
0x400|                                    04         |            .   |      [148]: 4 transition_type 0x40c-0x40d (1)
0x400|                                       03      |             .  |      [149]: 3 transition_type 0x40d-0x40e (1)
0x400|                                          04   |              . |      [150]: 4 transition_type 0x40e-0x40f (1)
0x400|                                             03|               .|      [151]: 3 transition_type 0x40f-0x410 (1)
0x410|04                                             |.               |      [152]: 4 transition_type 0x410-0x411 (1)
0x410|   03                                          | .              |      [153]: 3 transition_type 0x411-0x412 (1)
0x410|      04                                       |  .             |      [154]: 4 transition_type 0x412-0x413 (1)
0x410|         03                                    |   .            |      [155]: 3 transition_type 0x413-0x414 (1)
0x410|            04                                 |    .           |      [156]: 4 transition_type 0x414-0x415 (1)
0x410|               03                              |     .          |      [157]: 3 transition_type 0x415-0x416 (1)
0x410|                  04                           |      .         |      [158]: 4 transition_type 0x416-0x417 (1)
0x410|                     03                        |       .        |      [159]: 3 transition_type 0x417-0x418 (1)
0x410|                        04                     |        .       |      [160]: 4 transition_type 0x418-0x419 (1)
0x410|                           03                  |         .      |      [161]: 3 transition_type 0x419-0x41a (1)
0x410|                              04               |          .     |      [162]: 4 transition_type 0x41a-0x41b (1)
0x410|                                 03            |           .    |      [163]: 3 transition_type 0x41b-0x41c (1)
0x410|                                    04         |            .   |      [164]: 4 transition_type 0x41c-0x41d (1)
0x410|                                       03      |             .  |      [165]: 3 transition_type 0x41d-0x41e (1)
0x410|                                          04   |              . |      [166]: 4 transition_type 0x41e-0x41f (1)
0x410|                                             03|               .|      [167]: 3 transition_type 0x41f-0x420 (1)
0x420|04                                             |.               |      [168]: 4 transition_type 0x420-0x421 (1)
0x420|   03                                          | .              |      [169]: 3 transition_type 0x421-0x422 (1)
0x420|      04                                       |  .             |      [170]: 4 transition_type 0x422-0x423 (1)
0x420|         03                                    |   .            |      [171]: 3 transition_type 0x423-0x424 (1)
0x420|            04                                 |    .           |      [172]: 4 transition_type 0x424-0x425 (1)
0x420|               03                              |     .          |      [173]: 3 transition_type 0x425-0x426 (1)
0x420|                  04                           |      .         |      [174]: 4 transition_type 0x426-0x427 (1)
0x420|                     03                        |       .        |      [175]: 3 transition_type 0x427-0x428 (1)
0x420|                        04                     |        .       |      [176]: 4 transition_type 0x428-0x429 (1)
0x420|                           03                  |         .      |      [177]: 3 transition_type 0x429-0x42a (1)
0x420|                              04               |          .     |      [178]: 4 transition_type 0x42a-0x42b (1)
0x420|                                 03            |           .    |      [179]: 3 transition_type 0x42b-0x42c (1)
0x420|                                    04         |            .   |      [180]: 4 transition_type 0x42c-0x42d (1)
0x420|                                       03      |             .  |      [181]: 3 transition_type 0x42d-0x42e (1)
0x420|                                          04   |              . |      [182]: 4 transition_type 0x42e-0x42f (1)
0x420|                                             03|               .|      [183]: 3 transition_type 0x42f-0x430 (1)
0x430|04                                             |.               |      [184]: 4 transition_type 0x430-0x431 (1)
0x430|   03                                          | .              |      [185]: 3 transition_type 0x431-0x432 (1)
0x430|      04                                       |  .             |      [186]: 4 transition_type 0x432-0x433 (1)
0x430|         03                                    |   .            |      [187]: 3 transition_type 0x433-0x434 (1)
0x430|            04                                 |    .           |      [188]: 4 transition_type 0x434-0x435 (1)
0x430|               03                              |     .          |      [189]: 3 transition_type 0x435-0x436 (1)
0x430|                  04                           |      .         |      [190]: 4 transition_type 0x436-0x437 (1)
0x430|                     03                        |       .        |      [191]: 3 transition_type 0x437-0x438 (1)
0x430|                        04                     |        .       |      [192]: 4 transition_type 0x438-0x439 (1)
0x430|                           03                  |         .      |      [193]: 3 transition_type 0x439-0x43a (1)
0x430|                              04               |          .     |      [194]: 4 transition_type 0x43a-0x43b (1)
0x430|                                 03            |           .    |      [195]: 3 transition_type 0x43b-0x43c (1)
0x430|                                    04         |            .   |      [196]: 4 transition_type 0x43c-0x43d (1)
0x430|                                       03      |             .  |      [197]: 3 transition_type 0x43d-0x43e (1)
0x430|                                          04   |              . |      [198]: 4 transition_type 0x43e-0x43f (1)
0x430|                                             03|               .|      [199]: 3 transition_type 0x43f-0x440 (1)
0x440|04                                             |.               |      [200]: 4 transition_type 0x440-0x441 (1)
0x440|   03                                          | .              |      [201]: 3 transition_type 0x441-0x442 (1)
0x440|      04                                       |  .             |      [202]: 4 transition_type 0x442-0x443 (1)
0x440|         03                                    |   .            |      [203]: 3 transition_type 0x443-0x444 (1)
0x440|            04                                 |    .           |      [204]: 4 transition_type 0x444-0x445 (1)
0x440|               03                              |     .          |      [205]: 3 transition_type 0x445-0x446 (1)
0x440|                  04                           |      .         |      [206]: 4 transition_type 0x446-0x447 (1)
0x440|                     03                        |       .        |      [207]: 3 transition_type 0x447-0x448 (1)
0x440|                        04                     |        .       |      [208]: 4 transition_type 0x448-0x449 (1)
0x440|                           03                  |         .      |      [209]: 3 transition_type 0x449-0x44a (1)
0x440|                              03               |          .     |      [210]: 3 transition_type 0x44a-0x44b (1)
     |                                               |                |    local_time_type_records[0:9]: 0x44b-0x481 (54)
     |                                               |                |      [0]{}: local_time_type 0x44b-0x451 (6)
0x440|                                 ff ff ce 94   |           .... |        utoff: -12652 (valid) 0x44b-0x44f (4)
0x440|                                             00|               .|        dst: 0 (valid) 0x44f-0x450 (1)
0x450|00                                             |.               |        idx: 0 (valid) 0x450-0x451 (1)
     |                                               |                |      [1]{}: local_time_type 0x451-0x457 (6)
0x450|   ff ff dc a4                                 | ....           |        utoff: -9052 (valid) 0x451-0x455 (4)
0x450|               01                              |     .          |        dst: 1 (valid) 0x455-0x456 (1)
0x450|                  04                           |      .         |        idx: 4 (valid) 0x456-0x457 (1)
     |                                               |                |      [2]{}: local_time_type 0x457-0x45d (6)
0x450|                     ff ff ce 94               |       ....     |        utoff: -12652 (valid) 0x457-0x45b (4)
0x450|                                 00            |           .    |        dst: 0 (valid) 0x45b-0x45c (1)
0x450|                                    08         |            .   |        idx: 8 (valid) 0x45c-0x45d (1)
     |                                               |                |      [3]{}: local_time_type 0x45d-0x463 (6)
0x450|                                       ff ff dc|             ...|        utoff: -9000 (valid) 0x45d-0x461 (4)
0x460|d8                                             |.               |
0x460|   01                                          | .              |        dst: 1 (valid) 0x461-0x462 (1)
0x460|      04                                       |  .             |        idx: 4 (valid) 0x462-0x463 (1)
     |                                               |                |      [4]{}: local_time_type 0x463-0x469 (6)
0x460|         ff ff ce c8                           |   ....         |        utoff: -12600 (valid) 0x463-0x467 (4)
0x460|                     00                        |       .        |        dst: 0 (valid) 0x467-0x468 (1)
0x460|                        08                     |        .       |        idx: 8 (valid) 0x468-0x469 (1)
     |                                               |                |      [5]{}: local_time_type 0x469-0x46f (6)
0x460|                           ff ff dc d8         |         ....   |        utoff: -9000 (valid) 0x469-0x46d (4)
0x460|                                       01      |             .  |        dst: 1 (valid) 0x46d-0x46e (1)
0x460|                                          0c   |              . |        idx: 12 (valid) 0x46e-0x46f (1)
     |                                               |                |      [6]{}: local_time_type 0x46f-0x475 (6)
0x460|                                             ff|               .|        utoff: -9000 (valid) 0x46f-0x473 (4)
0x470|ff dc d8                                       |...             |
0x470|         01                                    |   .            |        dst: 1 (valid) 0x473-0x474 (1)
0x470|            10                                 |    .           |        idx: 16 (valid) 0x474-0x475 (1)
     |                                               |                |      [7]{}: local_time_type 0x475-0x47b (6)
0x470|               ff ff ea e8                     |     ....       |        utoff: -5400 (valid) 0x475-0x479 (4)
0x470|                           01                  |         .      |        dst: 1 (valid) 0x479-0x47a (1)
0x470|                              14               |          .     |        idx: 20 (valid) 0x47a-0x47b (1)
     |                                               |                |      [8]{}: local_time_type 0x47b-0x481 (6)
0x470|                                 ff ff dc d8   |           .... |        utoff: -9000 (valid) 0x47b-0x47f (4)
0x470|                                             01|               .|        dst: 1 (valid) 0x47f-0x480 (1)
0x480|04                                             |.               |        idx: 4 (valid) 0x480-0x481 (1)
     |                                               |                |    time_zone_designations[0:6]: 0x481-0x49a (25)
0x480|   4c 4d 54 00                                 | LMT.           |      [0]: "LMT" time_zone_designation 0x481-0x485 (4)
0x480|               4e 44 54 00                     |     NDT.       |      [1]: "NDT" time_zone_designation 0x485-0x489 (4)
0x480|                           4e 53 54 00         |         NST.   |      [2]: "NST" time_zone_designation 0x489-0x48d (4)
0x480|                                       4e 50 54|             NPT|      [3]: "NPT" time_zone_designation 0x48d-0x491 (4)
0x490|00                                             |.               |
0x490|   4e 57 54 00                                 | NWT.           |      [4]: "NWT" time_zone_designation 0x491-0x495 (4)
0x490|               4e 44 44 54 00                  |     NDDT.      |      [5]: "NDDT" time_zone_designation 0x495-0x49a (5)
     |                                               |                |    leap_second_records[0:27]: 0x49a-0x572 (216)
     |                                               |                |      [0]{}: leap_second_record 0x49a-0x4a2 (8)
0x490|                              04 b2 58 00      |          ..X.  |        occur: "1972-07-01T00:00:00Z" (78796800) 0x49a-0x49e (4)
0x490|                                          00 00|              ..|        corr: 1 0x49e-0x4a2 (4)
0x4a0|00 01                                          |..              |
     |                                               |                |      [1]{}: leap_second_record 0x4a2-0x4aa (8)
0x4a0|      05 a4 ec 01                              |  ....          |        occur: "1973-01-01T00:00:01Z" (94694401) 0x4a2-0x4a6 (4)
0x4a0|                  00 00 00 02                  |      ....      |        corr: 2 0x4a6-0x4aa (4)
     |                                               |                |      [2]{}: leap_second_record 0x4aa-0x4b2 (8)
0x4a0|                              07 86 1f 82      |          ....  |        occur: "1974-01-01T00:00:02Z" (126230402) 0x4aa-0x4ae (4)
0x4a0|                                          00 00|              ..|        corr: 3 0x4ae-0x4b2 (4)
0x4b0|00 03                                          |..              |
     |                                               |                |      [3]{}: leap_second_record 0x4b2-0x4ba (8)
0x4b0|      09 67 53 03                              |  .gS.          |        occur: "1975-01-01T00:00:03Z" (157766403) 0x4b2-0x4b6 (4)
0x4b0|                  00 00 00 04                  |      ....      |        corr: 4 0x4b6-0x4ba (4)
     |                                               |                |      [4]{}: leap_second_record 0x4ba-0x4c2 (8)
0x4b0|                              0b 48 86 84      |          .H..  |        occur: "1976-01-01T00:00:04Z" (189302404) 0x4ba-0x4be (4)
0x4b0|                                          00 00|              ..|        corr: 5 0x4be-0x4c2 (4)
0x4c0|00 05                                          |..              |
     |                                               |                |      [5]{}: leap_second_record 0x4c2-0x4ca (8)
0x4c0|      0d 2b 0b 85                              |  .+..          |        occur: "1977-01-01T00:00:05Z" (220924805) 0x4c2-0x4c6 (4)
0x4c0|                  00 00 00 06                  |      ....      |        corr: 6 0x4c6-0x4ca (4)
     |                                               |                |      [6]{}: leap_second_record 0x4ca-0x4d2 (8)
0x4c0|                              0f 0c 3f 06      |          ..?.  |        occur: "1978-01-01T00:00:06Z" (252460806) 0x4ca-0x4ce (4)
0x4c0|                                          00 00|              ..|        corr: 7 0x4ce-0x4d2 (4)
0x4d0|00 07                                          |..              |
     |                                               |                |      [7]{}: leap_second_record 0x4d2-0x4da (8)
0x4d0|      10 ed 72 87                              |  ..r.          |        occur: "1979-01-01T00:00:07Z" (283996807) 0x4d2-0x4d6 (4)
0x4d0|                  00 00 00 08                  |      ....      |        corr: 8 0x4d6-0x4da (4)
     |                                               |                |      [8]{}: leap_second_record 0x4da-0x4e2 (8)
0x4d0|                              12 ce a6 08      |          ....  |        occur: "1980-01-01T00:00:08Z" (315532808) 0x4da-0x4de (4)
0x4d0|                                          00 00|              ..|        corr: 9 0x4de-0x4e2 (4)
0x4e0|00 09                                          |..              |
     |                                               |                |      [9]{}: leap_second_record 0x4e2-0x4ea (8)
0x4e0|      15 9f ca 89                              |  ....          |        occur: "1981-07-01T00:00:09Z" (362793609) 0x4e2-0x4e6 (4)
0x4e0|                  00 00 00 0a                  |      ....      |        corr: 10 0x4e6-0x4ea (4)
     |                                               |                |      [10]{}: leap_second_record 0x4ea-0x4f2 (8)
0x4e0|                              17 80 fe 0a      |          ....  |        occur: "1982-07-01T00:00:10Z" (394329610) 0x4ea-0x4ee (4)
0x4e0|                                          00 00|              ..|        corr: 11 0x4ee-0x4f2 (4)
0x4f0|00 0b                                          |..              |
     |                                               |                |      [11]{}: leap_second_record 0x4f2-0x4fa (8)
0x4f0|      19 62 31 8b                              |  .b1.          |        occur: "1983-07-01T00:00:11Z" (425865611) 0x4f2-0x4f6 (4)
0x4f0|                  00 00 00 0c                  |      ....      |        corr: 12 0x4f6-0x4fa (4)
     |                                               |                |      [12]{}: leap_second_record 0x4fa-0x502 (8)
0x4f0|                              1d 25 ea 0c      |          .%..  |        occur: "1985-07-01T00:00:12Z" (489024012) 0x4fa-0x4fe (4)
0x4f0|                                          00 00|              ..|        corr: 13 0x4fe-0x502 (4)
0x500|00 0d                                          |..              |
     |                                               |                |      [13]{}: leap_second_record 0x502-0x50a (8)
0x500|      21 da e5 0d                              |  !...          |        occur: "1988-01-01T00:00:13Z" (567993613) 0x502-0x506 (4)
0x500|                  00 00 00 0e                  |      ....      |        corr: 14 0x506-0x50a (4)
     |                                               |                |      [14]{}: leap_second_record 0x50a-0x512 (8)
0x500|                              25 9e 9d 8e      |          %...  |        occur: "1990-01-01T00:00:14Z" (631152014) 0x50a-0x50e (4)
0x500|                                          00 00|              ..|        corr: 15 0x50e-0x512 (4)
0x510|00 0f                                          |..              |
     |                                               |                |      [15]{}: leap_second_record 0x512-0x51a (8)
0x510|      27 7f d1 0f                              |  '...          |        occur: "1991-01-01T00:00:15Z" (662688015) 0x512-0x516 (4)
0x510|                  00 00 00 10                  |      ....      |        corr: 16 0x516-0x51a (4)
     |                                               |                |      [16]{}: leap_second_record 0x51a-0x522 (8)
0x510|                              2a 50 f5 90      |          *P..  |        occur: "1992-07-01T00:00:16Z" (709948816) 0x51a-0x51e (4)
0x510|                                          00 00|              ..|        corr: 17 0x51e-0x522 (4)
0x520|00 11                                          |..              |
     |                                               |                |      [17]{}: leap_second_record 0x522-0x52a (8)
0x520|      2c 32 29 11                              |  ,2).          |        occur: "1993-07-01T00:00:17Z" (741484817) 0x522-0x526 (4)
0x520|                  00 00 00 12                  |      ....      |        corr: 18 0x526-0x52a (4)
     |                                               |                |      [18]{}: leap_second_record 0x52a-0x532 (8)
0x520|                              2e 13 5c 92      |          ..\.  |        occur: "1994-07-01T00:00:18Z" (773020818) 0x52a-0x52e (4)
0x520|                                          00 00|              ..|        corr: 19 0x52e-0x532 (4)
0x530|00 13                                          |..              |
     |                                               |                |      [19]{}: leap_second_record 0x532-0x53a (8)
0x530|      30 e7 24 13                              |  0.$.          |        occur: "1996-01-01T00:00:19Z" (820454419) 0x532-0x536 (4)
0x530|                  00 00 00 14                  |      ....      |        corr: 20 0x536-0x53a (4)
     |                                               |                |      [20]{}: leap_second_record 0x53a-0x542 (8)
0x530|                              33 b8 48 94      |          3.H.  |        occur: "1997-07-01T00:00:20Z" (867715220) 0x53a-0x53e (4)
0x530|                                          00 00|              ..|        corr: 21 0x53e-0x542 (4)
0x540|00 15                                          |..              |
     |                                               |                |      [21]{}: leap_second_record 0x542-0x54a (8)
0x540|      36 8c 10 15                              |  6...          |        occur: "1999-01-01T00:00:21Z" (915148821) 0x542-0x546 (4)
0x540|                  00 00 00 16                  |      ....      |        corr: 22 0x546-0x54a (4)
     |                                               |                |      [22]{}: leap_second_record 0x54a-0x552 (8)
0x540|                              43 b7 1b 96      |          C...  |        occur: "2006-01-01T00:00:22Z" (1136073622) 0x54a-0x54e (4)
0x540|                                          00 00|              ..|        corr: 23 0x54e-0x552 (4)
0x550|00 17                                          |..              |
     |                                               |                |      [23]{}: leap_second_record 0x552-0x55a (8)
0x550|      49 5c 07 97                              |  I\..          |        occur: "2009-01-01T00:00:23Z" (1230768023) 0x552-0x556 (4)
0x550|                  00 00 00 18                  |      ....      |        corr: 24 0x556-0x55a (4)
     |                                               |                |      [24]{}: leap_second_record 0x55a-0x562 (8)
0x550|                              4f ef 93 18      |          O...  |        occur: "2012-07-01T00:00:24Z" (1341100824) 0x55a-0x55e (4)
0x550|                                          00 00|              ..|        corr: 25 0x55e-0x562 (4)
0x560|00 19                                          |..              |
     |                                               |                |      [25]{}: leap_second_record 0x562-0x56a (8)
0x560|      55 93 2d 99                              |  U.-.          |        occur: "2015-07-01T00:00:25Z" (1435708825) 0x562-0x566 (4)
0x560|                  00 00 00 1a                  |      ....      |        corr: 26 0x566-0x56a (4)
     |                                               |                |      [26]{}: leap_second_record 0x56a-0x572 (8)
0x560|                              58 68 46 9a      |          XhF.  |        occur: "2017-01-01T00:00:26Z" (1483228826) 0x56a-0x56e (4)
0x560|                                          00 00|              ..|        corr: 27 0x56e-0x572 (4)
0x570|00 1b                                          |..              |
     |                                               |                |    standard_wall_indicators[0:9]: 0x572-0x57b (9)
0x570|      00                                       |  .             |      [0]: 0 standard_wall_indicator (valid) 0x572-0x573 (1)
0x570|         00                                    |   .            |      [1]: 0 standard_wall_indicator (valid) 0x573-0x574 (1)
0x570|            00                                 |    .           |      [2]: 0 standard_wall_indicator (valid) 0x574-0x575 (1)
0x570|               00                              |     .          |      [3]: 0 standard_wall_indicator (valid) 0x575-0x576 (1)
0x570|                  00                           |      .         |      [4]: 0 standard_wall_indicator (valid) 0x576-0x577 (1)
0x570|                     01                        |       .        |      [5]: 1 standard_wall_indicator (valid) 0x577-0x578 (1)
0x570|                        00                     |        .       |      [6]: 0 standard_wall_indicator (valid) 0x578-0x579 (1)
0x570|                           00                  |         .      |      [7]: 0 standard_wall_indicator (valid) 0x579-0x57a (1)
0x570|                              00               |          .     |      [8]: 0 standard_wall_indicator (valid) 0x57a-0x57b (1)
     |                                               |                |    ut_local_indicators[0:9]: 0x57b-0x584 (9)
0x570|                                 00            |           .    |      [0]: 0 ut_local_indicator (valid) 0x57b-0x57c (1)
0x570|                                    00         |            .   |      [1]: 0 ut_local_indicator (valid) 0x57c-0x57d (1)
0x570|                                       00      |             .  |      [2]: 0 ut_local_indicator (valid) 0x57d-0x57e (1)
0x570|                                          00   |              . |      [3]: 0 ut_local_indicator (valid) 0x57e-0x57f (1)
0x570|                                             00|               .|      [4]: 0 ut_local_indicator (valid) 0x57f-0x580 (1)
0x580|01                                             |.               |      [5]: 1 ut_local_indicator (valid) 0x580-0x581 (1)
0x580|   00                                          | .              |      [6]: 0 ut_local_indicator (valid) 0x581-0x582 (1)
0x580|      00                                       |  .             |      [7]: 0 ut_local_indicator (valid) 0x582-0x583 (1)
0x580|         00                                    |   .            |      [8]: 0 ut_local_indicator (valid) 0x583-0x584 (1)
     |                                               |                |  v2plusheader{}: 0x584-0x5b0 (44)
0x580|            54 5a 69 66                        |    TZif        |    magic: 0x545a6966 (valid) 0x584-0x588 (4)
0x580|                        32                     |        2       |    ver: "2" (0x32) (valid) 0x588-0x589 (1)
0x580|                           00 00 00 00 00 00 00|         .......|    reserved: raw bits 0x589-0x598 (15)
0x590|00 00 00 00 00 00 00 00                        |........        |
0x590|                        00 00 00 09            |        ....    |    isutcnt: 9 0x598-0x59c (4)
0x590|                                    00 00 00 09|            ....|    isstdcnt: 9 0x59c-0x5a0 (4)
0x5a0|00 00 00 1b                                    |....            |    leapcnt: 27 0x5a0-0x5a4 (4)
0x5a0|            00 00 00 d3                        |    ....        |    timecnt: 211 0x5a4-0x5a8 (4)
0x5a0|                        00 00 00 09            |        ....    |    typecnt: 9 0x5a8-0x5ac (4)
0x5a0|                                    00 00 00 19|            ....|    charcnt: 25 0x5ac-0x5b0 (4)
     |                                               |                |  v2plusdatablock{}: 0x5b0-0xec0 (2320)
     |                                               |                |    transition_times[0:211]: 0x5b0-0xc48 (1688)
0x5b0|ff ff ff ff 5e 3d 34 ec                        |....^=4.        |      [0]: "1884-01-01T03:30:52Z" (-2713897748) transition_time 0x5b0-0x5b8 (8)
0x5b0|                        ff ff ff ff 9c cf 62 0c|        ......b.|      [1]: "1917-04-08T05:30:52Z" (-1664130548) transition_time 0x5b8-0x5c0 (8)
0x5c0|ff ff ff ff 9d a4 e6 fc                        |........        |      [2]: "1917-09-17T04:30:52Z" (-1650137348) transition_time 0x5c0-0x5c8 (8)
0x5c0|                        ff ff ff ff 9e b8 7e 8c|        ......~.|      [3]: "1918-04-14T05:30:52Z" (-1632076148) transition_time 0x5c8-0x5d0 (8)
0x5d0|ff ff ff ff 9f ba d6 7c                        |.......|        |      [4]: "1918-10-27T04:30:52Z" (-1615145348) transition_time 0x5d0-0x5d8 (8)
0x5d0|                        ff ff ff ff a0 b6 88 dc|        ........|      [5]: "1919-05-06T02:30:52Z" (-1598650148) transition_time 0x5d8-0x5e0 (8)
0x5e0|ff ff ff ff a1 38 ff 4c                        |.....8.L        |      [6]: "1919-08-13T01:30:52Z" (-1590100148) transition_time 0x5e0-0x5e8 (8)
0x5e0|                        ff ff ff ff a2 95 19 5c|        .......\|      [7]: "1920-05-03T02:30:52Z" (-1567286948) transition_time 0x5e8-0x5f0 (8)
0x5f0|ff ff ff ff a3 84 fc 4c                        |.......L        |      [8]: "1920-11-01T01:30:52Z" (-1551565748) transition_time 0x5f0-0x5f8 (8)
0x5f0|                        ff ff ff ff a4 74 fb 5c|        .....t.\|      [9]: "1921-05-02T02:30:52Z" (-1535837348) transition_time 0x5f8-0x600 (8)
0x600|ff ff ff ff a5 64 de 4c                        |.....d.L        |      [10]: "1921-10-31T01:30:52Z" (-1520116148) transition_time 0x600-0x608 (8)
0x600|                        ff ff ff ff a6 5e 17 dc|        .....^..|      [11]: "1922-05-08T02:30:52Z" (-1503782948) transition_time 0x608-0x610 (8)
0x610|ff ff ff ff a7 44 c0 4c                        |.....D.L        |      [12]: "1922-10-30T01:30:52Z" (-1488666548) transition_time 0x610-0x618 (8)
0x610|                        ff ff ff ff a8 3d f9 dc|        .....=..|      [13]: "1923-05-07T02:30:52Z" (-1472333348) transition_time 0x618-0x620 (8)
0x620|ff ff ff ff a9 24 a2 4c                        |.....$.L        |      [14]: "1923-10-29T01:30:52Z" (-1457216948) transition_time 0x620-0x628 (8)
0x620|                        ff ff ff ff aa 1d db dc|        ........|      [15]: "1924-05-05T02:30:52Z" (-1440883748) transition_time 0x628-0x630 (8)
0x630|ff ff ff ff ab 04 84 4c                        |.......L        |      [16]: "1924-10-27T01:30:52Z" (-1425767348) transition_time 0x630-0x638 (8)
0x630|                        ff ff ff ff ab fd bd dc|        ........|      [17]: "1925-05-04T02:30:52Z" (-1409434148) transition_time 0x638-0x640 (8)
0x640|ff ff ff ff ac e4 66 4c                        |......fL        |      [18]: "1925-10-26T01:30:52Z" (-1394317748) transition_time 0x640-0x648 (8)
0x640|                        ff ff ff ff ad dd 9f dc|        ........|      [19]: "1926-05-03T02:30:52Z" (-1377984548) transition_time 0x648-0x650 (8)
0x650|ff ff ff ff ae cd 82 cc                        |........        |      [20]: "1926-11-01T01:30:52Z" (-1362263348) transition_time 0x650-0x658 (8)
0x650|                        ff ff ff ff af bd 81 dc|        ........|      [21]: "1927-05-02T02:30:52Z" (-1346534948) transition_time 0x658-0x660 (8)
0x660|ff ff ff ff b0 ad 64 cc                        |......d.        |      [22]: "1927-10-31T01:30:52Z" (-1330813748) transition_time 0x660-0x668 (8)
0x660|                        ff ff ff ff b1 a6 9e 5c|        .......\|      [23]: "1928-05-07T02:30:52Z" (-1314480548) transition_time 0x668-0x670 (8)
0x670|ff ff ff ff b2 8d 46 cc                        |......F.        |      [24]: "1928-10-29T01:30:52Z" (-1299364148) transition_time 0x670-0x678 (8)
0x670|                        ff ff ff ff b3 86 80 5c|        .......\|      [25]: "1929-05-06T02:30:52Z" (-1283030948) transition_time 0x678-0x680 (8)
0x680|ff ff ff ff b4 6d 28 cc                        |.....m(.        |      [26]: "1929-10-28T01:30:52Z" (-1267914548) transition_time 0x680-0x688 (8)
0x680|                        ff ff ff ff b5 66 62 5c|        .....fb\|      [27]: "1930-05-05T02:30:52Z" (-1251581348) transition_time 0x688-0x690 (8)
0x690|ff ff ff ff b6 4d 0a cc                        |.....M..        |      [28]: "1930-10-27T01:30:52Z" (-1236464948) transition_time 0x690-0x698 (8)
0x690|                        ff ff ff ff b7 46 44 5c|        .....FD\|      [29]: "1931-05-04T02:30:52Z" (-1220131748) transition_time 0x698-0x6a0 (8)
0x6a0|ff ff ff ff b8 2c ec cc                        |.....,..        |      [30]: "1931-10-26T01:30:52Z" (-1205015348) transition_time 0x6a0-0x6a8 (8)
0x6a0|                        ff ff ff ff b9 26 26 5c|        .....&&\|      [31]: "1932-05-02T02:30:52Z" (-1188682148) transition_time 0x6a8-0x6b0 (8)
0x6b0|ff ff ff ff ba 16 09 4c                        |.......L        |      [32]: "1932-10-31T01:30:52Z" (-1172960948) transition_time 0x6b0-0x6b8 (8)
0x6b0|                        ff ff ff ff bb 0f 42 dc|        ......B.|      [33]: "1933-05-08T02:30:52Z" (-1156627748) transition_time 0x6b8-0x6c0 (8)
0x6c0|ff ff ff ff bb f5 eb 4c                        |.......L        |      [34]: "1933-10-30T01:30:52Z" (-1141511348) transition_time 0x6c0-0x6c8 (8)
0x6c0|                        ff ff ff ff bc ef 24 dc|        ......$.|      [35]: "1934-05-07T02:30:52Z" (-1125178148) transition_time 0x6c8-0x6d0 (8)
0x6d0|ff ff ff ff bd d5 cd 4c                        |.......L        |      [36]: "1934-10-29T01:30:52Z" (-1110061748) transition_time 0x6d0-0x6d8 (8)
0x6d0|                        ff ff ff ff be 9e 4d 6c|        ......Ml|      [37]: "1935-03-30T03:30:52Z" (-1096921748) transition_time 0x6d8-0x6e0 (8)
0x6e0|ff ff ff ff be cf 06 a8                        |........        |      [38]: "1935-05-06T02:30:00Z" (-1093728600) transition_time 0x6e0-0x6e8 (8)
0x6e0|                        ff ff ff ff bf b5 af 18|        ........|      [39]: "1935-10-28T01:30:00Z" (-1078612200) transition_time 0x6e8-0x6f0 (8)
0x6f0|ff ff ff ff c0 b8 31 38                        |......18        |      [40]: "1936-05-11T03:30:00Z" (-1061670600) transition_time 0x6f0-0x6f8 (8)
0x6f0|                        ff ff ff ff c1 79 ef a8|        .....y..|      [41]: "1936-10-05T02:30:00Z" (-1048973400) transition_time 0x6f8-0x700 (8)
0x700|ff ff ff ff c2 98 13 38                        |.......8        |      [42]: "1937-05-10T03:30:00Z" (-1030221000) transition_time 0x700-0x708 (8)
0x700|                        ff ff ff ff c3 59 d1 a8|        .....Y..|      [43]: "1937-10-04T02:30:00Z" (-1017523800) transition_time 0x708-0x710 (8)
0x710|ff ff ff ff c4 77 f5 38                        |.....w.8        |      [44]: "1938-05-09T03:30:00Z" (-998771400) transition_time 0x710-0x718 (8)
0x710|                        ff ff ff ff c5 39 b3 a8|        .....9..|      [45]: "1938-10-03T02:30:00Z" (-986074200) transition_time 0x718-0x720 (8)
0x720|ff ff ff ff c6 61 11 b8                        |.....a..        |      [46]: "1939-05-15T03:30:00Z" (-966717000) transition_time 0x720-0x728 (8)
0x720|                        ff ff ff ff c7 19 95 a8|        ........|      [47]: "1939-10-02T02:30:00Z" (-954624600) transition_time 0x728-0x730 (8)
0x730|ff ff ff ff c8 40 f3 b8                        |.....@..        |      [48]: "1940-05-13T03:30:00Z" (-935267400) transition_time 0x730-0x738 (8)
0x730|                        ff ff ff ff c9 02 b2 28|        .......(|      [49]: "1940-10-07T02:30:00Z" (-922570200) transition_time 0x738-0x740 (8)
0x740|ff ff ff ff ca 20 d5 b8                        |..... ..        |      [50]: "1941-05-12T03:30:00Z" (-903817800) transition_time 0x740-0x748 (8)
0x740|                        ff ff ff ff ca e2 94 28|        .......(|      [51]: "1941-10-06T02:30:00Z" (-891120600) transition_time 0x748-0x750 (8)
0x750|ff ff ff ff cc 00 b7 b8                        |........        |      [52]: "1942-05-11T03:30:00Z" (-872368200) transition_time 0x750-0x758 (8)
0x750|                        ff ff ff ff d2 23 f4 70|        .....#.p|      [53]: "1945-08-14T23:00:00Z" (-769395600) transition_time 0x758-0x760 (8)
0x760|ff ff ff ff d2 60 e6 c8                        |.....`..        |      [54]: "1945-09-30T04:30:00Z" (-765401400) transition_time 0x760-0x768 (8)
0x760|                        ff ff ff ff d3 88 44 d8|        ......D.|      [55]: "1946-05-12T05:30:00Z" (-746044200) transition_time 0x768-0x770 (8)
0x770|ff ff ff ff d4 4a 03 48                        |.....J.H        |      [56]: "1946-10-06T04:30:00Z" (-733347000) transition_time 0x770-0x778 (8)
0x770|                        ff ff ff ff d5 68 26 d8|        .....h&.|      [57]: "1947-05-11T05:30:00Z" (-714594600) transition_time 0x778-0x780 (8)
0x780|ff ff ff ff d6 29 e5 48                        |.....).H        |      [58]: "1947-10-05T04:30:00Z" (-701897400) transition_time 0x780-0x788 (8)
0x780|                        ff ff ff ff d7 48 08 d8|        .....H..|      [59]: "1948-05-09T05:30:00Z" (-683145000) transition_time 0x788-0x790 (8)
0x790|ff ff ff ff d8 09 c7 48                        |.......H        |      [60]: "1948-10-03T04:30:00Z" (-670447800) transition_time 0x790-0x798 (8)
0x790|                        ff ff ff ff d9 27 ea d8|        .....'..|      [61]: "1949-05-08T05:30:00Z" (-651695400) transition_time 0x798-0x7a0 (8)
0x7a0|ff ff ff ff d9 e9 a9 48                        |.......H        |      [62]: "1949-10-02T04:30:00Z" (-638998200) transition_time 0x7a0-0x7a8 (8)
0x7a0|                        ff ff ff ff db 11 07 58|        .......X|      [63]: "1950-05-14T05:30:00Z" (-619641000) transition_time 0x7a8-0x7b0 (8)
0x7b0|ff ff ff ff db d2 c5 c8                        |........        |      [64]: "1950-10-08T04:30:00Z" (-606943800) transition_time 0x7b0-0x7b8 (8)
0x7b0|                        ff ff ff ff dc de 74 58|        ......tX|      [65]: "1951-04-29T05:30:00Z" (-589401000) transition_time 0x7b8-0x7c0 (8)
0x7c0|ff ff ff ff dd a9 6d 48                        |......mH        |      [66]: "1951-09-30T04:30:00Z" (-576099000) transition_time 0x7c0-0x7c8 (8)
0x7c0|                        ff ff ff ff de be 56 58|        ......VX|      [67]: "1952-04-27T05:30:00Z" (-557951400) transition_time 0x7c8-0x7d0 (8)
0x7d0|ff ff ff ff df 89 4f 48                        |......OH        |      [68]: "1952-09-28T04:30:00Z" (-544649400) transition_time 0x7d0-0x7d8 (8)
0x7d0|                        ff ff ff ff e0 9e 38 58|        ......8X|      [69]: "1953-04-26T05:30:00Z" (-526501800) transition_time 0x7d8-0x7e0 (8)
0x7e0|ff ff ff ff e1 69 31 48                        |.....i1H        |      [70]: "1953-09-27T04:30:00Z" (-513199800) transition_time 0x7e0-0x7e8 (8)
0x7e0|                        ff ff ff ff e2 7e 1a 58|        .....~.X|      [71]: "1954-04-25T05:30:00Z" (-495052200) transition_time 0x7e8-0x7f0 (8)
0x7f0|ff ff ff ff e3 49 13 48                        |.....I.H        |      [72]: "1954-09-26T04:30:00Z" (-481750200) transition_time 0x7f0-0x7f8 (8)
0x7f0|                        ff ff ff ff e4 5d fc 58|        .....].X|      [73]: "1955-04-24T05:30:00Z" (-463602600) transition_time 0x7f8-0x800 (8)
0x800|ff ff ff ff e5 28 f5 48                        |.....(.H        |      [74]: "1955-09-25T04:30:00Z" (-450300600) transition_time 0x800-0x808 (8)
0x800|                        ff ff ff ff e6 47 18 d8|        .....G..|      [75]: "1956-04-29T05:30:00Z" (-431548200) transition_time 0x808-0x810 (8)
0x810|ff ff ff ff e7 12 11 c8                        |........        |      [76]: "1956-09-30T04:30:00Z" (-418246200) transition_time 0x810-0x818 (8)
0x810|                        ff ff ff ff e8 26 fa d8|        .....&..|      [77]: "1957-04-28T05:30:00Z" (-400098600) transition_time 0x818-0x820 (8)
0x820|ff ff ff ff e8 f1 f3 c8                        |........        |      [78]: "1957-09-29T04:30:00Z" (-386796600) transition_time 0x820-0x828 (8)
0x820|                        ff ff ff ff ea 06 dc d8|        ........|      [79]: "1958-04-27T05:30:00Z" (-368649000) transition_time 0x828-0x830 (8)
0x830|ff ff ff ff ea d1 d5 c8                        |........        |      [80]: "1958-09-28T04:30:00Z" (-355347000) transition_time 0x830-0x838 (8)
0x830|                        ff ff ff ff eb e6 be d8|        ........|      [81]: "1959-04-26T05:30:00Z" (-337199400) transition_time 0x838-0x840 (8)
0x840|ff ff ff ff ec b1 b7 c8                        |........        |      [82]: "1959-09-27T04:30:00Z" (-323897400) transition_time 0x840-0x848 (8)
0x840|                        ff ff ff ff ed c6 a0 d8|        ........|      [83]: "1960-04-24T05:30:00Z" (-305749800) transition_time 0x848-0x850 (8)
0x850|ff ff ff ff ee bf be 48                        |.......H        |      [84]: "1960-10-30T04:30:00Z" (-289423800) transition_time 0x850-0x858 (8)
0x850|                        ff ff ff ff ef af bd 58|        .......X|      [85]: "1961-04-30T05:30:00Z" (-273695400) transition_time 0x858-0x860 (8)
0x860|ff ff ff ff f0 9f a0 48                        |.......H        |      [86]: "1961-10-29T04:30:00Z" (-257974200) transition_time 0x860-0x868 (8)
0x860|                        ff ff ff ff f1 8f 9f 58|        .......X|      [87]: "1962-04-29T05:30:00Z" (-242245800) transition_time 0x868-0x870 (8)
0x870|ff ff ff ff f2 7f 82 48                        |.......H        |      [88]: "1962-10-28T04:30:00Z" (-226524600) transition_time 0x870-0x878 (8)
0x870|                        ff ff ff ff f3 6f 81 58|        .....o.X|      [89]: "1963-04-28T05:30:00Z" (-210796200) transition_time 0x878-0x880 (8)
0x880|ff ff ff ff f4 5f 64 48                        |....._dH        |      [90]: "1963-10-27T04:30:00Z" (-195075000) transition_time 0x880-0x888 (8)
0x880|                        ff ff ff ff f5 4f 63 58|        .....OcX|      [91]: "1964-04-26T05:30:00Z" (-179346600) transition_time 0x888-0x890 (8)
0x890|ff ff ff ff f6 3f 46 48                        |.....?FH        |      [92]: "1964-10-25T04:30:00Z" (-163625400) transition_time 0x890-0x898 (8)
0x890|                        ff ff ff ff f7 2f 45 58|        ...../EX|      [93]: "1965-04-25T05:30:00Z" (-147897000) transition_time 0x898-0x8a0 (8)
0x8a0|ff ff ff ff f8 28 62 c8                        |.....(b.        |      [94]: "1965-10-31T04:30:00Z" (-131571000) transition_time 0x8a0-0x8a8 (8)
0x8a0|                        ff ff ff ff f9 0f 27 58|        ......'X|      [95]: "1966-04-24T05:30:00Z" (-116447400) transition_time 0x8a8-0x8b0 (8)
0x8b0|ff ff ff ff fa 08 44 c8                        |......D.        |      [96]: "1966-10-30T04:30:00Z" (-100121400) transition_time 0x8b0-0x8b8 (8)
0x8b0|                        ff ff ff ff fa f8 43 d8|        ......C.|      [97]: "1967-04-30T05:30:00Z" (-84393000) transition_time 0x8b8-0x8c0 (8)
0x8c0|ff ff ff ff fb e8 26 c8                        |......&.        |      [98]: "1967-10-29T04:30:00Z" (-68671800) transition_time 0x8c0-0x8c8 (8)
0x8c0|                        ff ff ff ff fc d8 25 d8|        ......%.|      [99]: "1968-04-28T05:30:00Z" (-52943400) transition_time 0x8c8-0x8d0 (8)
0x8d0|ff ff ff ff fd c8 08 c8                        |........        |      [100]: "1968-10-27T04:30:00Z" (-37222200) transition_time 0x8d0-0x8d8 (8)
0x8d0|                        ff ff ff ff fe b8 07 d8|        ........|      [101]: "1969-04-27T05:30:00Z" (-21493800) transition_time 0x8d8-0x8e0 (8)
0x8e0|ff ff ff ff ff a7 ea c8                        |........        |      [102]: "1969-10-26T04:30:00Z" (-5772600) transition_time 0x8e0-0x8e8 (8)
0x8e0|                        00 00 00 00 00 97 e9 d8|        ........|      [103]: "1970-04-26T05:30:00Z" (9955800) transition_time 0x8e8-0x8f0 (8)
0x8f0|00 00 00 00 01 87 cc c8                        |........        |      [104]: "1970-10-25T04:30:00Z" (25677000) transition_time 0x8f0-0x8f8 (8)
0x8f0|                        00 00 00 00 02 77 cb d8|        .....w..|      [105]: "1971-04-25T05:30:00Z" (41405400) transition_time 0x8f8-0x900 (8)
0x900|00 00 00 00 03 70 e9 48                        |.....p.H        |      [106]: "1971-10-31T04:30:00Z" (57731400) transition_time 0x900-0x908 (8)
0x900|                        00 00 00 00 04 60 e8 58|        .....`.X|      [107]: "1972-04-30T05:30:00Z" (73459800) transition_time 0x908-0x910 (8)
0x910|00 00 00 00 05 50 cb 49                        |.....P.I        |      [108]: "1972-10-29T04:30:01Z" (89181001) transition_time 0x910-0x918 (8)
0x910|                        00 00 00 00 06 40 ca 5a|        .....@.Z|      [109]: "1973-04-29T05:30:02Z" (104909402) transition_time 0x918-0x920 (8)
0x920|00 00 00 00 07 30 ad 4a                        |.....0.J        |      [110]: "1973-10-28T04:30:02Z" (120630602) transition_time 0x920-0x928 (8)
0x920|                        00 00 00 00 08 20 ac 5b|        ..... .[|      [111]: "1974-04-28T05:30:03Z" (136359003) transition_time 0x928-0x930 (8)
0x930|00 00 00 00 09 10 8f 4b                        |.......K        |      [112]: "1974-10-27T04:30:03Z" (152080203) transition_time 0x930-0x938 (8)
0x930|                        00 00 00 00 0a 00 8e 5c|        .......\|      [113]: "1975-04-27T05:30:04Z" (167808604) transition_time 0x938-0x940 (8)
0x940|00 00 00 00 0a f0 71 4c                        |......qL        |      [114]: "1975-10-26T04:30:04Z" (183529804) transition_time 0x940-0x948 (8)
0x940|                        00 00 00 00 0b e0 70 5d|        ......p]|      [115]: "1976-04-25T05:30:05Z" (199258205) transition_time 0x948-0x950 (8)
0x950|00 00 00 00 0c d9 8d cd                        |........        |      [116]: "1976-10-31T04:30:05Z" (215584205) transition_time 0x950-0x958 (8)
0x950|                        00 00 00 00 0d c0 52 5e|        ......R^|      [117]: "1977-04-24T05:30:06Z" (230707806) transition_time 0x958-0x960 (8)
0x960|00 00 00 00 0e b9 6f ce                        |......o.        |      [118]: "1977-10-30T04:30:06Z" (247033806) transition_time 0x960-0x968 (8)
0x960|                        00 00 00 00 0f a9 6e df|        ......n.|      [119]: "1978-04-30T05:30:07Z" (262762207) transition_time 0x968-0x970 (8)
0x970|00 00 00 00 10 99 51 cf                        |......Q.        |      [120]: "1978-10-29T04:30:07Z" (278483407) transition_time 0x970-0x978 (8)
0x970|                        00 00 00 00 11 89 50 e0|        ......P.|      [121]: "1979-04-29T05:30:08Z" (294211808) transition_time 0x978-0x980 (8)
0x980|00 00 00 00 12 79 33 d0                        |.....y3.        |      [122]: "1979-10-28T04:30:08Z" (309933008) transition_time 0x980-0x988 (8)
0x980|                        00 00 00 00 13 69 32 e1|        .....i2.|      [123]: "1980-04-27T05:30:09Z" (325661409) transition_time 0x988-0x990 (8)
0x990|00 00 00 00 14 59 15 d1                        |.....Y..        |      [124]: "1980-10-26T04:30:09Z" (341382609) transition_time 0x990-0x998 (8)
0x990|                        00 00 00 00 15 49 14 e1|        .....I..|      [125]: "1981-04-26T05:30:09Z" (357111009) transition_time 0x998-0x9a0 (8)
0x9a0|00 00 00 00 16 38 f7 d2                        |.....8..        |      [126]: "1981-10-25T04:30:10Z" (372832210) transition_time 0x9a0-0x9a8 (8)
0x9a0|                        00 00 00 00 17 28 f6 e2|        .....(..|      [127]: "1982-04-25T05:30:10Z" (388560610) transition_time 0x9a8-0x9b0 (8)
0x9b0|00 00 00 00 18 22 14 53                        |.....".S        |      [128]: "1982-10-31T04:30:11Z" (404886611) transition_time 0x9b0-0x9b8 (8)
0x9b0|                        00 00 00 00 19 08 d8 e3|        ........|      [129]: "1983-04-24T05:30:11Z" (420010211) transition_time 0x9b8-0x9c0 (8)
0x9c0|00 00 00 00 1a 01 f6 54                        |.......T        |      [130]: "1983-10-30T04:30:12Z" (436336212) transition_time 0x9c0-0x9c8 (8)
0x9c0|                        00 00 00 00 1a f1 f5 64|        .......d|      [131]: "1984-04-29T05:30:12Z" (452064612) transition_time 0x9c8-0x9d0 (8)
0x9d0|00 00 00 00 1b e1 d8 54                        |.......T        |      [132]: "1984-10-28T04:30:12Z" (467785812) transition_time 0x9d0-0x9d8 (8)
0x9d0|                        00 00 00 00 1c d1 d7 64|        .......d|      [133]: "1985-04-28T05:30:12Z" (483514212) transition_time 0x9d8-0x9e0 (8)
0x9e0|00 00 00 00 1d c1 ba 55                        |.......U        |      [134]: "1985-10-27T04:30:13Z" (499235413) transition_time 0x9e0-0x9e8 (8)
0x9e0|                        00 00 00 00 1e b1 b9 65|        .......e|      [135]: "1986-04-27T05:30:13Z" (514963813) transition_time 0x9e8-0x9f0 (8)
0x9f0|00 00 00 00 1f a1 9c 55                        |.......U        |      [136]: "1986-10-26T04:30:13Z" (530685013) transition_time 0x9f0-0x9f8 (8)
0x9f0|                        00 00 00 00 20 75 d0 01|        .... u..|      [137]: "1987-04-05T03:31:13Z" (544591873) transition_time 0x9f8-0xa00 (8)
0xa00|00 00 00 00 21 81 62 71                        |....!.bq        |      [138]: "1987-10-25T02:31:13Z" (562127473) transition_time 0xa00-0xa08 (8)
0xa00|                        00 00 00 00 22 55 b2 02|        ...."U..|      [139]: "1988-04-03T03:31:14Z" (576041474) transition_time 0xa08-0xa10 (8)
0xa10|00 00 00 00 23 6a 70 e2                        |....#jp.        |      [140]: "1988-10-30T01:31:14Z" (594178274) transition_time 0xa10-0xa18 (8)
0xa10|                        00 00 00 00 24 35 94 02|        ....$5..|      [141]: "1989-04-02T03:31:14Z" (607491074) transition_time 0xa18-0xa20 (8)
0xa20|00 00 00 00 25 4a 60 f2                        |....%J`.        |      [142]: "1989-10-29T02:31:14Z" (625631474) transition_time 0xa20-0xa28 (8)
0xa20|                        00 00 00 00 26 15 76 03|        ....&.v.|      [143]: "1990-04-01T03:31:15Z" (638940675) transition_time 0xa28-0xa30 (8)
0xa30|00 00 00 00 27 2a 42 f3                        |....'*B.        |      [144]: "1990-10-28T02:31:15Z" (657081075) transition_time 0xa30-0xa38 (8)
0xa30|                        00 00 00 00 27 fe 92 84|        ....'...|      [145]: "1991-04-07T03:31:16Z" (670995076) transition_time 0xa38-0xa40 (8)
0xa40|00 00 00 00 29 0a 24 f4                        |....).$.        |      [146]: "1991-10-27T02:31:16Z" (688530676) transition_time 0xa40-0xa48 (8)
0xa40|                        00 00 00 00 29 de 74 84|        ....).t.|      [147]: "1992-04-05T03:31:16Z" (702444676) transition_time 0xa48-0xa50 (8)
0xa50|00 00 00 00 2a ea 06 f5                        |....*...        |      [148]: "1992-10-25T02:31:17Z" (719980277) transition_time 0xa50-0xa58 (8)
0xa50|                        00 00 00 00 2b be 56 85|        ....+.V.|      [149]: "1993-04-04T03:31:17Z" (733894277) transition_time 0xa58-0xa60 (8)
0xa60|00 00 00 00 2c d3 23 76                        |....,.#v        |      [150]: "1993-10-31T02:31:18Z" (752034678) transition_time 0xa60-0xa68 (8)
0xa60|                        00 00 00 00 2d 9e 38 86|        ....-.8.|      [151]: "1994-04-03T03:31:18Z" (765343878) transition_time 0xa68-0xa70 (8)
0xa70|00 00 00 00 2e b3 05 77                        |.......w        |      [152]: "1994-10-30T02:31:19Z" (783484279) transition_time 0xa70-0xa78 (8)
0xa70|                        00 00 00 00 2f 7e 1a 87|        ..../~..|      [153]: "1995-04-02T03:31:19Z" (796793479) transition_time 0xa78-0xa80 (8)
0xa80|00 00 00 00 30 92 e7 77                        |....0..w        |      [154]: "1995-10-29T02:31:19Z" (814933879) transition_time 0xa80-0xa88 (8)
0xa80|                        00 00 00 00 31 67 37 08|        ....1g7.|      [155]: "1996-04-07T03:31:20Z" (828847880) transition_time 0xa88-0xa90 (8)
0xa90|00 00 00 00 32 72 c9 78                        |....2r.x        |      [156]: "1996-10-27T02:31:20Z" (846383480) transition_time 0xa90-0xa98 (8)
0xa90|                        00 00 00 00 33 47 19 08|        ....3G..|      [157]: "1997-04-06T03:31:20Z" (860297480) transition_time 0xa98-0xaa0 (8)
0xaa0|00 00 00 00 34 52 ab 79                        |....4R.y        |      [158]: "1997-10-26T02:31:21Z" (877833081) transition_time 0xaa0-0xaa8 (8)
0xaa0|                        00 00 00 00 35 26 fb 09|        ....5&..|      [159]: "1998-04-05T03:31:21Z" (891747081) transition_time 0xaa8-0xab0 (8)
0xab0|00 00 00 00 36 32 8d 79                        |....62.y        |      [160]: "1998-10-25T02:31:21Z" (909282681) transition_time 0xab0-0xab8 (8)
0xab0|                        00 00 00 00 37 06 dd 0a|        ....7...|      [161]: "1999-04-04T03:31:22Z" (923196682) transition_time 0xab8-0xac0 (8)
0xac0|00 00 00 00 38 1b a9 fa                        |....8...        |      [162]: "1999-10-31T02:31:22Z" (941337082) transition_time 0xac0-0xac8 (8)
0xac0|                        00 00 00 00 38 e6 bf 0a|        ....8...|      [163]: "2000-04-02T03:31:22Z" (954646282) transition_time 0xac8-0xad0 (8)
0xad0|00 00 00 00 39 fb 8b fa                        |....9...        |      [164]: "2000-10-29T02:31:22Z" (972786682) transition_time 0xad0-0xad8 (8)
0xad0|                        00 00 00 00 3a c6 a1 0a|        ....:...|      [165]: "2001-04-01T03:31:22Z" (986095882) transition_time 0xad8-0xae0 (8)
0xae0|00 00 00 00 3b db 6d fa                        |....;.m.        |      [166]: "2001-10-28T02:31:22Z" (1004236282) transition_time 0xae0-0xae8 (8)
0xae0|                        00 00 00 00 3c af bd 8a|        ....<...|      [167]: "2002-04-07T03:31:22Z" (1018150282) transition_time 0xae8-0xaf0 (8)
0xaf0|00 00 00 00 3d bb 4f fa                        |....=.O.        |      [168]: "2002-10-27T02:31:22Z" (1035685882) transition_time 0xaf0-0xaf8 (8)
0xaf0|                        00 00 00 00 3e 8f 9f 8a|        ....>...|      [169]: "2003-04-06T03:31:22Z" (1049599882) transition_time 0xaf8-0xb00 (8)
0xb00|00 00 00 00 3f 9b 31 fa                        |....?.1.        |      [170]: "2003-10-26T02:31:22Z" (1067135482) transition_time 0xb00-0xb08 (8)
0xb00|                        00 00 00 00 40 6f 81 8a|        ....@o..|      [171]: "2004-04-04T03:31:22Z" (1081049482) transition_time 0xb08-0xb10 (8)
0xb10|00 00 00 00 41 84 4e 7a                        |....A.Nz        |      [172]: "2004-10-31T02:31:22Z" (1099189882) transition_time 0xb10-0xb18 (8)
0xb10|                        00 00 00 00 42 4f 63 8a|        ....BOc.|      [173]: "2005-04-03T03:31:22Z" (1112499082) transition_time 0xb18-0xb20 (8)
0xb20|00 00 00 00 43 64 30 7a                        |....Cd0z        |      [174]: "2005-10-30T02:31:22Z" (1130639482) transition_time 0xb20-0xb28 (8)
0xb20|                        00 00 00 00 44 2f 45 8b|        ....D/E.|      [175]: "2006-04-02T03:31:23Z" (1143948683) transition_time 0xb28-0xb30 (8)
0xb30|00 00 00 00 45 44 12 7b                        |....ED.{        |      [176]: "2006-10-29T02:31:23Z" (1162089083) transition_time 0xb30-0xb38 (8)
0xb30|                        00 00 00 00 45 f3 78 0b|        ....E.x.|      [177]: "2007-03-11T03:31:23Z" (1173583883) transition_time 0xb38-0xb40 (8)
0xb40|00 00 00 00 47 2d 2e fb                        |....G-..        |      [178]: "2007-11-04T02:31:23Z" (1194143483) transition_time 0xb40-0xb48 (8)
0xb40|                        00 00 00 00 47 d3 5a 0b|        ....G.Z.|      [179]: "2008-03-09T03:31:23Z" (1205033483) transition_time 0xb48-0xb50 (8)
0xb50|00 00 00 00 49 0d 10 fb                        |....I...        |      [180]: "2008-11-02T02:31:23Z" (1225593083) transition_time 0xb50-0xb58 (8)
0xb50|                        00 00 00 00 49 b3 3c 0c|        ....I.<.|      [181]: "2009-03-08T03:31:24Z" (1236483084) transition_time 0xb58-0xb60 (8)
0xb60|00 00 00 00 4a ec f2 fc                        |....J...        |      [182]: "2009-11-01T02:31:24Z" (1257042684) transition_time 0xb60-0xb68 (8)
0xb60|                        00 00 00 00 4b 9c 58 8c|        ....K.X.|      [183]: "2010-03-14T03:31:24Z" (1268537484) transition_time 0xb68-0xb70 (8)
0xb70|00 00 00 00 4c d6 0f 7c                        |....L..|        |      [184]: "2010-11-07T02:31:24Z" (1289097084) transition_time 0xb70-0xb78 (8)
0xb70|                        00 00 00 00 4d 7c 3a 8c|        ....M|:.|      [185]: "2011-03-13T03:31:24Z" (1299987084) transition_time 0xb78-0xb80 (8)
0xb80|00 00 00 00 4e b6 0d 60                        |....N..`        |      [186]: "2011-11-06T04:30:24Z" (1320553824) transition_time 0xb80-0xb88 (8)
0xb80|                        00 00 00 00 4f 5c 38 70|        ....O\8p|      [187]: "2012-03-11T05:30:24Z" (1331443824) transition_time 0xb88-0xb90 (8)
0xb90|00 00 00 00 50 95 ef 61                        |....P..a        |      [188]: "2012-11-04T04:30:25Z" (1352003425) transition_time 0xb90-0xb98 (8)
0xb90|                        00 00 00 00 51 3c 1a 71|        ....Q<.q|      [189]: "2013-03-10T05:30:25Z" (1362893425) transition_time 0xb98-0xba0 (8)
0xba0|00 00 00 00 52 75 d1 61                        |....Ru.a        |      [190]: "2013-11-03T04:30:25Z" (1383453025) transition_time 0xba0-0xba8 (8)
0xba0|                        00 00 00 00 53 1b fc 71|        ....S..q|      [191]: "2014-03-09T05:30:25Z" (1394343025) transition_time 0xba8-0xbb0 (8)
0xbb0|00 00 00 00 54 55 b3 61                        |....TU.a        |      [192]: "2014-11-02T04:30:25Z" (1414902625) transition_time 0xbb0-0xbb8 (8)
0xbb0|                        00 00 00 00 54 fb de 71|        ....T..q|      [193]: "2015-03-08T05:30:25Z" (1425792625) transition_time 0xbb8-0xbc0 (8)
0xbc0|00 00 00 00 56 35 95 62                        |....V5.b        |      [194]: "2015-11-01T04:30:26Z" (1446352226) transition_time 0xbc0-0xbc8 (8)
0xbc0|                        00 00 00 00 56 e4 fa f2|        ....V...|      [195]: "2016-03-13T05:30:26Z" (1457847026) transition_time 0xbc8-0xbd0 (8)
0xbd0|00 00 00 00 58 1e b1 e2                        |....X...        |      [196]: "2016-11-06T04:30:26Z" (1478406626) transition_time 0xbd0-0xbd8 (8)
0xbd0|                        00 00 00 00 58 c4 dc f3|        ....X...|      [197]: "2017-03-12T05:30:27Z" (1489296627) transition_time 0xbd8-0xbe0 (8)
0xbe0|00 00 00 00 59 fe 93 e3                        |....Y...        |      [198]: "2017-11-05T04:30:27Z" (1509856227) transition_time 0xbe0-0xbe8 (8)
0xbe0|                        00 00 00 00 5a a4 be f3|        ....Z...|      [199]: "2018-03-11T05:30:27Z" (1520746227) transition_time 0xbe8-0xbf0 (8)
0xbf0|00 00 00 00 5b de 75 e3                        |....[.u.        |      [200]: "2018-11-04T04:30:27Z" (1541305827) transition_time 0xbf0-0xbf8 (8)
0xbf0|                        00 00 00 00 5c 84 a0 f3|        ....\...|      [201]: "2019-03-10T05:30:27Z" (1552195827) transition_time 0xbf8-0xc00 (8)
0xc00|00 00 00 00 5d be 57 e3                        |....].W.        |      [202]: "2019-11-03T04:30:27Z" (1572755427) transition_time 0xc00-0xc08 (8)
0xc00|                        00 00 00 00 5e 64 82 f3|        ....^d..|      [203]: "2020-03-08T05:30:27Z" (1583645427) transition_time 0xc08-0xc10 (8)
0xc10|00 00 00 00 5f 9e 39 e3                        |...._.9.        |      [204]: "2020-11-01T04:30:27Z" (1604205027) transition_time 0xc10-0xc18 (8)
0xc10|                        00 00 00 00 60 4d 9f 73|        ....`M.s|      [205]: "2021-03-14T05:30:27Z" (1615699827) transition_time 0xc18-0xc20 (8)
0xc20|00 00 00 00 61 87 56 63                        |....a.Vc        |      [206]: "2021-11-07T04:30:27Z" (1636259427) transition_time 0xc20-0xc28 (8)
0xc20|                        00 00 00 00 62 2d 81 73|        ....b-.s|      [207]: "2022-03-13T05:30:27Z" (1647149427) transition_time 0xc28-0xc30 (8)
0xc30|00 00 00 00 63 67 38 63                        |....cg8c        |      [208]: "2022-11-06T04:30:27Z" (1667709027) transition_time 0xc30-0xc38 (8)
0xc30|                        00 00 00 00 64 0d 63 73|        ....d.cs|      [209]: "2023-03-12T05:30:27Z" (1678599027) transition_time 0xc38-0xc40 (8)
0xc40|00 00 00 00 64 9b 78 1b                        |....d.x.        |      [210]: "2023-06-28T00:00:27Z" (1687910427) transition_time 0xc40-0xc48 (8)
     |                                               |                |    transition_types[0:211]: 0xc48-0xd1b (211)
0xc40|                        02                     |        .       |      [0]: 2 transition_type 0xc48-0xc49 (1)
0xc40|                           01                  |         .      |      [1]: 1 transition_type 0xc49-0xc4a (1)
0xc40|                              02               |          .     |      [2]: 2 transition_type 0xc4a-0xc4b (1)
0xc40|                                 01            |           .    |      [3]: 1 transition_type 0xc4b-0xc4c (1)
0xc40|                                    02         |            .   |      [4]: 2 transition_type 0xc4c-0xc4d (1)
0xc40|                                       01      |             .  |      [5]: 1 transition_type 0xc4d-0xc4e (1)
0xc40|                                          02   |              . |      [6]: 2 transition_type 0xc4e-0xc4f (1)
0xc40|                                             01|               .|      [7]: 1 transition_type 0xc4f-0xc50 (1)
0xc50|02                                             |.               |      [8]: 2 transition_type 0xc50-0xc51 (1)
0xc50|   01                                          | .              |      [9]: 1 transition_type 0xc51-0xc52 (1)
0xc50|      02                                       |  .             |      [10]: 2 transition_type 0xc52-0xc53 (1)
0xc50|         01                                    |   .            |      [11]: 1 transition_type 0xc53-0xc54 (1)
0xc50|            02                                 |    .           |      [12]: 2 transition_type 0xc54-0xc55 (1)
0xc50|               01                              |     .          |      [13]: 1 transition_type 0xc55-0xc56 (1)
0xc50|                  02                           |      .         |      [14]: 2 transition_type 0xc56-0xc57 (1)
0xc50|                     01                        |       .        |      [15]: 1 transition_type 0xc57-0xc58 (1)
0xc50|                        02                     |        .       |      [16]: 2 transition_type 0xc58-0xc59 (1)
0xc50|                           01                  |         .      |      [17]: 1 transition_type 0xc59-0xc5a (1)
0xc50|                              02               |          .     |      [18]: 2 transition_type 0xc5a-0xc5b (1)
0xc50|                                 01            |           .    |      [19]: 1 transition_type 0xc5b-0xc5c (1)
0xc50|                                    02         |            .   |      [20]: 2 transition_type 0xc5c-0xc5d (1)
0xc50|                                       01      |             .  |      [21]: 1 transition_type 0xc5d-0xc5e (1)
0xc50|                                          02   |              . |      [22]: 2 transition_type 0xc5e-0xc5f (1)
0xc50|                                             01|               .|      [23]: 1 transition_type 0xc5f-0xc60 (1)
0xc60|02                                             |.               |      [24]: 2 transition_type 0xc60-0xc61 (1)
0xc60|   01                                          | .              |      [25]: 1 transition_type 0xc61-0xc62 (1)
0xc60|      02                                       |  .             |      [26]: 2 transition_type 0xc62-0xc63 (1)
0xc60|         01                                    |   .            |      [27]: 1 transition_type 0xc63-0xc64 (1)
0xc60|            02                                 |    .           |      [28]: 2 transition_type 0xc64-0xc65 (1)
0xc60|               01                              |     .          |      [29]: 1 transition_type 0xc65-0xc66 (1)
0xc60|                  02                           |      .         |      [30]: 2 transition_type 0xc66-0xc67 (1)
0xc60|                     01                        |       .        |      [31]: 1 transition_type 0xc67-0xc68 (1)
0xc60|                        02                     |        .       |      [32]: 2 transition_type 0xc68-0xc69 (1)
0xc60|                           01                  |         .      |      [33]: 1 transition_type 0xc69-0xc6a (1)
0xc60|                              02               |          .     |      [34]: 2 transition_type 0xc6a-0xc6b (1)
0xc60|                                 01            |           .    |      [35]: 1 transition_type 0xc6b-0xc6c (1)
0xc60|                                    02         |            .   |      [36]: 2 transition_type 0xc6c-0xc6d (1)
0xc60|                                       04      |             .  |      [37]: 4 transition_type 0xc6d-0xc6e (1)
0xc60|                                          03   |              . |      [38]: 3 transition_type 0xc6e-0xc6f (1)
0xc60|                                             04|               .|      [39]: 4 transition_type 0xc6f-0xc70 (1)
0xc70|03                                             |.               |      [40]: 3 transition_type 0xc70-0xc71 (1)
0xc70|   04                                          | .              |      [41]: 4 transition_type 0xc71-0xc72 (1)
0xc70|      03                                       |  .             |      [42]: 3 transition_type 0xc72-0xc73 (1)
0xc70|         04                                    |   .            |      [43]: 4 transition_type 0xc73-0xc74 (1)
0xc70|            03                                 |    .           |      [44]: 3 transition_type 0xc74-0xc75 (1)
0xc70|               04                              |     .          |      [45]: 4 transition_type 0xc75-0xc76 (1)
0xc70|                  03                           |      .         |      [46]: 3 transition_type 0xc76-0xc77 (1)
0xc70|                     04                        |       .        |      [47]: 4 transition_type 0xc77-0xc78 (1)
0xc70|                        03                     |        .       |      [48]: 3 transition_type 0xc78-0xc79 (1)
0xc70|                           04                  |         .      |      [49]: 4 transition_type 0xc79-0xc7a (1)
0xc70|                              03               |          .     |      [50]: 3 transition_type 0xc7a-0xc7b (1)
0xc70|                                 04            |           .    |      [51]: 4 transition_type 0xc7b-0xc7c (1)
0xc70|                                    06         |            .   |      [52]: 6 transition_type 0xc7c-0xc7d (1)
0xc70|                                       05      |             .  |      [53]: 5 transition_type 0xc7d-0xc7e (1)
0xc70|                                          04   |              . |      [54]: 4 transition_type 0xc7e-0xc7f (1)
0xc70|                                             03|               .|      [55]: 3 transition_type 0xc7f-0xc80 (1)
0xc80|04                                             |.               |      [56]: 4 transition_type 0xc80-0xc81 (1)
0xc80|   03                                          | .              |      [57]: 3 transition_type 0xc81-0xc82 (1)
0xc80|      04                                       |  .             |      [58]: 4 transition_type 0xc82-0xc83 (1)
0xc80|         03                                    |   .            |      [59]: 3 transition_type 0xc83-0xc84 (1)
0xc80|            04                                 |    .           |      [60]: 4 transition_type 0xc84-0xc85 (1)
0xc80|               03                              |     .          |      [61]: 3 transition_type 0xc85-0xc86 (1)
0xc80|                  04                           |      .         |      [62]: 4 transition_type 0xc86-0xc87 (1)
0xc80|                     03                        |       .        |      [63]: 3 transition_type 0xc87-0xc88 (1)
0xc80|                        04                     |        .       |      [64]: 4 transition_type 0xc88-0xc89 (1)
0xc80|                           03                  |         .      |      [65]: 3 transition_type 0xc89-0xc8a (1)
0xc80|                              04               |          .     |      [66]: 4 transition_type 0xc8a-0xc8b (1)
0xc80|                                 03            |           .    |      [67]: 3 transition_type 0xc8b-0xc8c (1)
0xc80|                                    04         |            .   |      [68]: 4 transition_type 0xc8c-0xc8d (1)
0xc80|                                       03      |             .  |      [69]: 3 transition_type 0xc8d-0xc8e (1)
0xc80|                                          04   |              . |      [70]: 4 transition_type 0xc8e-0xc8f (1)
0xc80|                                             03|               .|      [71]: 3 transition_type 0xc8f-0xc90 (1)
0xc90|04                                             |.               |      [72]: 4 transition_type 0xc90-0xc91 (1)
0xc90|   03                                          | .              |      [73]: 3 transition_type 0xc91-0xc92 (1)
0xc90|      04                                       |  .             |      [74]: 4 transition_type 0xc92-0xc93 (1)
0xc90|         03                                    |   .            |      [75]: 3 transition_type 0xc93-0xc94 (1)
0xc90|            04                                 |    .           |      [76]: 4 transition_type 0xc94-0xc95 (1)
0xc90|               03                              |     .          |      [77]: 3 transition_type 0xc95-0xc96 (1)
0xc90|                  04                           |      .         |      [78]: 4 transition_type 0xc96-0xc97 (1)
0xc90|                     03                        |       .        |      [79]: 3 transition_type 0xc97-0xc98 (1)
0xc90|                        04                     |        .       |      [80]: 4 transition_type 0xc98-0xc99 (1)
0xc90|                           03                  |         .      |      [81]: 3 transition_type 0xc99-0xc9a (1)
0xc90|                              04               |          .     |      [82]: 4 transition_type 0xc9a-0xc9b (1)
0xc90|                                 03            |           .    |      [83]: 3 transition_type 0xc9b-0xc9c (1)
0xc90|                                    04         |            .   |      [84]: 4 transition_type 0xc9c-0xc9d (1)
0xc90|                                       03      |             .  |      [85]: 3 transition_type 0xc9d-0xc9e (1)
0xc90|                                          04   |              . |      [86]: 4 transition_type 0xc9e-0xc9f (1)
0xc90|                                             03|               .|      [87]: 3 transition_type 0xc9f-0xca0 (1)
0xca0|04                                             |.               |      [88]: 4 transition_type 0xca0-0xca1 (1)
0xca0|   03                                          | .              |      [89]: 3 transition_type 0xca1-0xca2 (1)
0xca0|      04                                       |  .             |      [90]: 4 transition_type 0xca2-0xca3 (1)
0xca0|         03                                    |   .            |      [91]: 3 transition_type 0xca3-0xca4 (1)
0xca0|            04                                 |    .           |      [92]: 4 transition_type 0xca4-0xca5 (1)
0xca0|               03                              |     .          |      [93]: 3 transition_type 0xca5-0xca6 (1)
0xca0|                  04                           |      .         |      [94]: 4 transition_type 0xca6-0xca7 (1)
0xca0|                     03                        |       .        |      [95]: 3 transition_type 0xca7-0xca8 (1)
0xca0|                        04                     |        .       |      [96]: 4 transition_type 0xca8-0xca9 (1)
0xca0|                           03                  |         .      |      [97]: 3 transition_type 0xca9-0xcaa (1)
0xca0|                              04               |          .     |      [98]: 4 transition_type 0xcaa-0xcab (1)
0xca0|                                 03            |           .    |      [99]: 3 transition_type 0xcab-0xcac (1)
0xca0|                                    04         |            .   |      [100]: 4 transition_type 0xcac-0xcad (1)
0xca0|                                       03      |             .  |      [101]: 3 transition_type 0xcad-0xcae (1)
0xca0|                                          04   |              . |      [102]: 4 transition_type 0xcae-0xcaf (1)
0xca0|                                             03|               .|      [103]: 3 transition_type 0xcaf-0xcb0 (1)
0xcb0|04                                             |.               |      [104]: 4 transition_type 0xcb0-0xcb1 (1)
0xcb0|   03                                          | .              |      [105]: 3 transition_type 0xcb1-0xcb2 (1)
0xcb0|      04                                       |  .             |      [106]: 4 transition_type 0xcb2-0xcb3 (1)
0xcb0|         03                                    |   .            |      [107]: 3 transition_type 0xcb3-0xcb4 (1)
0xcb0|            04                                 |    .           |      [108]: 4 transition_type 0xcb4-0xcb5 (1)
0xcb0|               03                              |     .          |      [109]: 3 transition_type 0xcb5-0xcb6 (1)
0xcb0|                  04                           |      .         |      [110]: 4 transition_type 0xcb6-0xcb7 (1)
0xcb0|                     03                        |       .        |      [111]: 3 transition_type 0xcb7-0xcb8 (1)
0xcb0|                        04                     |        .       |      [112]: 4 transition_type 0xcb8-0xcb9 (1)
0xcb0|                           03                  |         .      |      [113]: 3 transition_type 0xcb9-0xcba (1)
0xcb0|                              04               |          .     |      [114]: 4 transition_type 0xcba-0xcbb (1)
0xcb0|                                 03            |           .    |      [115]: 3 transition_type 0xcbb-0xcbc (1)
0xcb0|                                    04         |            .   |      [116]: 4 transition_type 0xcbc-0xcbd (1)
0xcb0|                                       03      |             .  |      [117]: 3 transition_type 0xcbd-0xcbe (1)
0xcb0|                                          04   |              . |      [118]: 4 transition_type 0xcbe-0xcbf (1)
0xcb0|                                             03|               .|      [119]: 3 transition_type 0xcbf-0xcc0 (1)
0xcc0|04                                             |.               |      [120]: 4 transition_type 0xcc0-0xcc1 (1)
0xcc0|   03                                          | .              |      [121]: 3 transition_type 0xcc1-0xcc2 (1)
0xcc0|      04                                       |  .             |      [122]: 4 transition_type 0xcc2-0xcc3 (1)
0xcc0|         03                                    |   .            |      [123]: 3 transition_type 0xcc3-0xcc4 (1)
0xcc0|            04                                 |    .           |      [124]: 4 transition_type 0xcc4-0xcc5 (1)
0xcc0|               03                              |     .          |      [125]: 3 transition_type 0xcc5-0xcc6 (1)
0xcc0|                  04                           |      .         |      [126]: 4 transition_type 0xcc6-0xcc7 (1)
0xcc0|                     03                        |       .        |      [127]: 3 transition_type 0xcc7-0xcc8 (1)
0xcc0|                        04                     |        .       |      [128]: 4 transition_type 0xcc8-0xcc9 (1)
0xcc0|                           03                  |         .      |      [129]: 3 transition_type 0xcc9-0xcca (1)
0xcc0|                              04               |          .     |      [130]: 4 transition_type 0xcca-0xccb (1)
0xcc0|                                 03            |           .    |      [131]: 3 transition_type 0xccb-0xccc (1)
0xcc0|                                    04         |            .   |      [132]: 4 transition_type 0xccc-0xccd (1)
0xcc0|                                       03      |             .  |      [133]: 3 transition_type 0xccd-0xcce (1)
0xcc0|                                          04   |              . |      [134]: 4 transition_type 0xcce-0xccf (1)
0xcc0|                                             03|               .|      [135]: 3 transition_type 0xccf-0xcd0 (1)
0xcd0|04                                             |.               |      [136]: 4 transition_type 0xcd0-0xcd1 (1)
0xcd0|   03                                          | .              |      [137]: 3 transition_type 0xcd1-0xcd2 (1)
0xcd0|      04                                       |  .             |      [138]: 4 transition_type 0xcd2-0xcd3 (1)
0xcd0|         07                                    |   .            |      [139]: 7 transition_type 0xcd3-0xcd4 (1)
0xcd0|            04                                 |    .           |      [140]: 4 transition_type 0xcd4-0xcd5 (1)
0xcd0|               03                              |     .          |      [141]: 3 transition_type 0xcd5-0xcd6 (1)
0xcd0|                  04                           |      .         |      [142]: 4 transition_type 0xcd6-0xcd7 (1)
0xcd0|                     03                        |       .        |      [143]: 3 transition_type 0xcd7-0xcd8 (1)
0xcd0|                        04                     |        .       |      [144]: 4 transition_type 0xcd8-0xcd9 (1)
0xcd0|                           03                  |         .      |      [145]: 3 transition_type 0xcd9-0xcda (1)
0xcd0|                              04               |          .     |      [146]: 4 transition_type 0xcda-0xcdb (1)
0xcd0|                                 03            |           .    |      [147]: 3 transition_type 0xcdb-0xcdc (1)
0xcd0|                                    04         |            .   |      [148]: 4 transition_type 0xcdc-0xcdd (1)
0xcd0|                                       03      |             .  |      [149]: 3 transition_type 0xcdd-0xcde (1)
0xcd0|                                          04   |              . |      [150]: 4 transition_type 0xcde-0xcdf (1)
0xcd0|                                             03|               .|      [151]: 3 transition_type 0xcdf-0xce0 (1)
0xce0|04                                             |.               |      [152]: 4 transition_type 0xce0-0xce1 (1)
0xce0|   03                                          | .              |      [153]: 3 transition_type 0xce1-0xce2 (1)
0xce0|      04                                       |  .             |      [154]: 4 transition_type 0xce2-0xce3 (1)
0xce0|         03                                    |   .            |      [155]: 3 transition_type 0xce3-0xce4 (1)
0xce0|            04                                 |    .           |      [156]: 4 transition_type 0xce4-0xce5 (1)
0xce0|               03                              |     .          |      [157]: 3 transition_type 0xce5-0xce6 (1)
0xce0|                  04                           |      .         |      [158]: 4 transition_type 0xce6-0xce7 (1)
0xce0|                     03                        |       .        |      [159]: 3 transition_type 0xce7-0xce8 (1)
0xce0|                        04                     |        .       |      [160]: 4 transition_type 0xce8-0xce9 (1)
0xce0|                           03                  |         .      |      [161]: 3 transition_type 0xce9-0xcea (1)
0xce0|                              04               |          .     |      [162]: 4 transition_type 0xcea-0xceb (1)
0xce0|                                 03            |           .    |      [163]: 3 transition_type 0xceb-0xcec (1)
0xce0|                                    04         |            .   |      [164]: 4 transition_type 0xcec-0xced (1)
0xce0|                                       03      |             .  |      [165]: 3 transition_type 0xced-0xcee (1)
0xce0|                                          04   |              . |      [166]: 4 transition_type 0xcee-0xcef (1)
0xce0|                                             03|               .|      [167]: 3 transition_type 0xcef-0xcf0 (1)
0xcf0|04                                             |.               |      [168]: 4 transition_type 0xcf0-0xcf1 (1)
0xcf0|   03                                          | .              |      [169]: 3 transition_type 0xcf1-0xcf2 (1)
0xcf0|      04                                       |  .             |      [170]: 4 transition_type 0xcf2-0xcf3 (1)
0xcf0|         03                                    |   .            |      [171]: 3 transition_type 0xcf3-0xcf4 (1)
0xcf0|            04                                 |    .           |      [172]: 4 transition_type 0xcf4-0xcf5 (1)
0xcf0|               03                              |     .          |      [173]: 3 transition_type 0xcf5-0xcf6 (1)
0xcf0|                  04                           |      .         |      [174]: 4 transition_type 0xcf6-0xcf7 (1)
0xcf0|                     03                        |       .        |      [175]: 3 transition_type 0xcf7-0xcf8 (1)
0xcf0|                        04                     |        .       |      [176]: 4 transition_type 0xcf8-0xcf9 (1)
0xcf0|                           03                  |         .      |      [177]: 3 transition_type 0xcf9-0xcfa (1)
0xcf0|                              04               |          .     |      [178]: 4 transition_type 0xcfa-0xcfb (1)
0xcf0|                                 03            |           .    |      [179]: 3 transition_type 0xcfb-0xcfc (1)
0xcf0|                                    04         |            .   |      [180]: 4 transition_type 0xcfc-0xcfd (1)
0xcf0|                                       03      |             .  |      [181]: 3 transition_type 0xcfd-0xcfe (1)
0xcf0|                                          04   |              . |      [182]: 4 transition_type 0xcfe-0xcff (1)
0xcf0|                                             03|               .|      [183]: 3 transition_type 0xcff-0xd00 (1)
0xd00|04                                             |.               |      [184]: 4 transition_type 0xd00-0xd01 (1)
0xd00|   03                                          | .              |      [185]: 3 transition_type 0xd01-0xd02 (1)
0xd00|      04                                       |  .             |      [186]: 4 transition_type 0xd02-0xd03 (1)
0xd00|         03                                    |   .            |      [187]: 3 transition_type 0xd03-0xd04 (1)
0xd00|            04                                 |    .           |      [188]: 4 transition_type 0xd04-0xd05 (1)
0xd00|               03                              |     .          |      [189]: 3 transition_type 0xd05-0xd06 (1)
0xd00|                  04                           |      .         |      [190]: 4 transition_type 0xd06-0xd07 (1)
0xd00|                     03                        |       .        |      [191]: 3 transition_type 0xd07-0xd08 (1)
0xd00|                        04                     |        .       |      [192]: 4 transition_type 0xd08-0xd09 (1)
0xd00|                           03                  |         .      |      [193]: 3 transition_type 0xd09-0xd0a (1)
0xd00|                              04               |          .     |      [194]: 4 transition_type 0xd0a-0xd0b (1)
0xd00|                                 03            |           .    |      [195]: 3 transition_type 0xd0b-0xd0c (1)
0xd00|                                    04         |            .   |      [196]: 4 transition_type 0xd0c-0xd0d (1)
0xd00|                                       03      |             .  |      [197]: 3 transition_type 0xd0d-0xd0e (1)
0xd00|                                          04   |              . |      [198]: 4 transition_type 0xd0e-0xd0f (1)
0xd00|                                             03|               .|      [199]: 3 transition_type 0xd0f-0xd10 (1)
0xd10|04                                             |.               |      [200]: 4 transition_type 0xd10-0xd11 (1)
0xd10|   03                                          | .              |      [201]: 3 transition_type 0xd11-0xd12 (1)
0xd10|      04                                       |  .             |      [202]: 4 transition_type 0xd12-0xd13 (1)
0xd10|         03                                    |   .            |      [203]: 3 transition_type 0xd13-0xd14 (1)
0xd10|            04                                 |    .           |      [204]: 4 transition_type 0xd14-0xd15 (1)
0xd10|               03                              |     .          |      [205]: 3 transition_type 0xd15-0xd16 (1)
0xd10|                  04                           |      .         |      [206]: 4 transition_type 0xd16-0xd17 (1)
0xd10|                     03                        |       .        |      [207]: 3 transition_type 0xd17-0xd18 (1)
0xd10|                        04                     |        .       |      [208]: 4 transition_type 0xd18-0xd19 (1)
0xd10|                           03                  |         .      |      [209]: 3 transition_type 0xd19-0xd1a (1)
0xd10|                              03               |          .     |      [210]: 3 transition_type 0xd1a-0xd1b (1)
     |                                               |                |    local_time_type_records[0:9]: 0xd1b-0xd51 (54)
     |                                               |                |      [0]{}: local_time_type 0xd1b-0xd21 (6)
0xd10|                                 ff ff ce 94   |           .... |        utoff: -12652 (valid) 0xd1b-0xd1f (4)
0xd10|                                             00|               .|        dst: 0 (valid) 0xd1f-0xd20 (1)
0xd20|00                                             |.               |        idx: 0 (valid) 0xd20-0xd21 (1)
     |                                               |                |      [1]{}: local_time_type 0xd21-0xd27 (6)
0xd20|   ff ff dc a4                                 | ....           |        utoff: -9052 (valid) 0xd21-0xd25 (4)
0xd20|               01                              |     .          |        dst: 1 (valid) 0xd25-0xd26 (1)
0xd20|                  04                           |      .         |        idx: 4 (valid) 0xd26-0xd27 (1)
     |                                               |                |      [2]{}: local_time_type 0xd27-0xd2d (6)
0xd20|                     ff ff ce 94               |       ....     |        utoff: -12652 (valid) 0xd27-0xd2b (4)
0xd20|                                 00            |           .    |        dst: 0 (valid) 0xd2b-0xd2c (1)
0xd20|                                    08         |            .   |        idx: 8 (valid) 0xd2c-0xd2d (1)
     |                                               |                |      [3]{}: local_time_type 0xd2d-0xd33 (6)
0xd20|                                       ff ff dc|             ...|        utoff: -9000 (valid) 0xd2d-0xd31 (4)
0xd30|d8                                             |.               |
0xd30|   01                                          | .              |        dst: 1 (valid) 0xd31-0xd32 (1)
0xd30|      04                                       |  .             |        idx: 4 (valid) 0xd32-0xd33 (1)
     |                                               |                |      [4]{}: local_time_type 0xd33-0xd39 (6)
0xd30|         ff ff ce c8                           |   ....         |        utoff: -12600 (valid) 0xd33-0xd37 (4)
0xd30|                     00                        |       .        |        dst: 0 (valid) 0xd37-0xd38 (1)
0xd30|                        08                     |        .       |        idx: 8 (valid) 0xd38-0xd39 (1)
     |                                               |                |      [5]{}: local_time_type 0xd39-0xd3f (6)
0xd30|                           ff ff dc d8         |         ....   |        utoff: -9000 (valid) 0xd39-0xd3d (4)
0xd30|                                       01      |             .  |        dst: 1 (valid) 0xd3d-0xd3e (1)
0xd30|                                          0c   |              . |        idx: 12 (valid) 0xd3e-0xd3f (1)
     |                                               |                |      [6]{}: local_time_type 0xd3f-0xd45 (6)
0xd30|                                             ff|               .|        utoff: -9000 (valid) 0xd3f-0xd43 (4)
0xd40|ff dc d8                                       |...             |
0xd40|         01                                    |   .            |        dst: 1 (valid) 0xd43-0xd44 (1)
0xd40|            10                                 |    .           |        idx: 16 (valid) 0xd44-0xd45 (1)
     |                                               |                |      [7]{}: local_time_type 0xd45-0xd4b (6)
0xd40|               ff ff ea e8                     |     ....       |        utoff: -5400 (valid) 0xd45-0xd49 (4)
0xd40|                           01                  |         .      |        dst: 1 (valid) 0xd49-0xd4a (1)
0xd40|                              14               |          .     |        idx: 20 (valid) 0xd4a-0xd4b (1)
     |                                               |                |      [8]{}: local_time_type 0xd4b-0xd51 (6)
0xd40|                                 ff ff dc d8   |           .... |        utoff: -9000 (valid) 0xd4b-0xd4f (4)
0xd40|                                             01|               .|        dst: 1 (valid) 0xd4f-0xd50 (1)
0xd50|04                                             |.               |        idx: 4 (valid) 0xd50-0xd51 (1)
     |                                               |                |    time_zone_designations[0:6]: 0xd51-0xd6a (25)
0xd50|   4c 4d 54 00                                 | LMT.           |      [0]: "LMT" time_zone_designation 0xd51-0xd55 (4)
0xd50|               4e 44 54 00                     |     NDT.       |      [1]: "NDT" time_zone_designation 0xd55-0xd59 (4)
0xd50|                           4e 53 54 00         |         NST.   |      [2]: "NST" time_zone_designation 0xd59-0xd5d (4)
0xd50|                                       4e 50 54|             NPT|      [3]: "NPT" time_zone_designation 0xd5d-0xd61 (4)
0xd60|00                                             |.               |
0xd60|   4e 57 54 00                                 | NWT.           |      [4]: "NWT" time_zone_designation 0xd61-0xd65 (4)
0xd60|               4e 44 44 54 00                  |     NDDT.      |      [5]: "NDDT" time_zone_designation 0xd65-0xd6a (5)
     |                                               |                |    leap_second_records[0:27]: 0xd6a-0xeae (324)
     |                                               |                |      [0]{}: leap_second_record 0xd6a-0xd76 (12)
0xd60|                              00 00 00 00 04 b2|          ......|        occur: "1972-07-01T00:00:00Z" (78796800) 0xd6a-0xd72 (8)
0xd70|58 00                                          |X.              |
0xd70|      00 00 00 01                              |  ....          |        corr: 1 0xd72-0xd76 (4)
     |                                               |                |      [1]{}: leap_second_record 0xd76-0xd82 (12)
0xd70|                  00 00 00 00 05 a4 ec 01      |      ........  |        occur: "1973-01-01T00:00:01Z" (94694401) 0xd76-0xd7e (8)
0xd70|                                          00 00|              ..|        corr: 2 0xd7e-0xd82 (4)
0xd80|00 02                                          |..              |
     |                                               |                |      [2]{}: leap_second_record 0xd82-0xd8e (12)
0xd80|      00 00 00 00 07 86 1f 82                  |  ........      |        occur: "1974-01-01T00:00:02Z" (126230402) 0xd82-0xd8a (8)
0xd80|                              00 00 00 03      |          ....  |        corr: 3 0xd8a-0xd8e (4)
     |                                               |                |      [3]{}: leap_second_record 0xd8e-0xd9a (12)
0xd80|                                          00 00|              ..|        occur: "1975-01-01T00:00:03Z" (157766403) 0xd8e-0xd96 (8)
0xd90|00 00 09 67 53 03                              |...gS.          |
0xd90|                  00 00 00 04                  |      ....      |        corr: 4 0xd96-0xd9a (4)
     |                                               |                |      [4]{}: leap_second_record 0xd9a-0xda6 (12)
0xd90|                              00 00 00 00 0b 48|          .....H|        occur: "1976-01-01T00:00:04Z" (189302404) 0xd9a-0xda2 (8)
0xda0|86 84                                          |..              |
0xda0|      00 00 00 05                              |  ....          |        corr: 5 0xda2-0xda6 (4)
     |                                               |                |      [5]{}: leap_second_record 0xda6-0xdb2 (12)
0xda0|                  00 00 00 00 0d 2b 0b 85      |      .....+..  |        occur: "1977-01-01T00:00:05Z" (220924805) 0xda6-0xdae (8)
0xda0|                                          00 00|              ..|        corr: 6 0xdae-0xdb2 (4)
0xdb0|00 06                                          |..              |
     |                                               |                |      [6]{}: leap_second_record 0xdb2-0xdbe (12)
0xdb0|      00 00 00 00 0f 0c 3f 06                  |  ......?.      |        occur: "1978-01-01T00:00:06Z" (252460806) 0xdb2-0xdba (8)
0xdb0|                              00 00 00 07      |          ....  |        corr: 7 0xdba-0xdbe (4)
     |                                               |                |      [7]{}: leap_second_record 0xdbe-0xdca (12)
0xdb0|                                          00 00|              ..|        occur: "1979-01-01T00:00:07Z" (283996807) 0xdbe-0xdc6 (8)
0xdc0|00 00 10 ed 72 87                              |....r.          |
0xdc0|                  00 00 00 08                  |      ....      |        corr: 8 0xdc6-0xdca (4)
     |                                               |                |      [8]{}: leap_second_record 0xdca-0xdd6 (12)
0xdc0|                              00 00 00 00 12 ce|          ......|        occur: "1980-01-01T00:00:08Z" (315532808) 0xdca-0xdd2 (8)
0xdd0|a6 08                                          |..              |
0xdd0|      00 00 00 09                              |  ....          |        corr: 9 0xdd2-0xdd6 (4)
     |                                               |                |      [9]{}: leap_second_record 0xdd6-0xde2 (12)
0xdd0|                  00 00 00 00 15 9f ca 89      |      ........  |        occur: "1981-07-01T00:00:09Z" (362793609) 0xdd6-0xdde (8)
0xdd0|                                          00 00|              ..|        corr: 10 0xdde-0xde2 (4)
0xde0|00 0a                                          |..              |
     |                                               |                |      [10]{}: leap_second_record 0xde2-0xdee (12)
0xde0|      00 00 00 00 17 80 fe 0a                  |  ........      |        occur: "1982-07-01T00:00:10Z" (394329610) 0xde2-0xdea (8)
0xde0|                              00 00 00 0b      |          ....  |        corr: 11 0xdea-0xdee (4)
     |                                               |                |      [11]{}: leap_second_record 0xdee-0xdfa (12)
0xde0|                                          00 00|              ..|        occur: "1983-07-01T00:00:11Z" (425865611) 0xdee-0xdf6 (8)
0xdf0|00 00 19 62 31 8b                              |...b1.          |
0xdf0|                  00 00 00 0c                  |      ....      |        corr: 12 0xdf6-0xdfa (4)
     |                                               |                |      [12]{}: leap_second_record 0xdfa-0xe06 (12)
0xdf0|                              00 00 00 00 1d 25|          .....%|        occur: "1985-07-01T00:00:12Z" (489024012) 0xdfa-0xe02 (8)
0xe00|ea 0c                                          |..              |
0xe00|      00 00 00 0d                              |  ....          |        corr: 13 0xe02-0xe06 (4)
     |                                               |                |      [13]{}: leap_second_record 0xe06-0xe12 (12)
0xe00|                  00 00 00 00 21 da e5 0d      |      ....!...  |        occur: "1988-01-01T00:00:13Z" (567993613) 0xe06-0xe0e (8)
0xe00|                                          00 00|              ..|        corr: 14 0xe0e-0xe12 (4)
0xe10|00 0e                                          |..              |
     |                                               |                |      [14]{}: leap_second_record 0xe12-0xe1e (12)
0xe10|      00 00 00 00 25 9e 9d 8e                  |  ....%...      |        occur: "1990-01-01T00:00:14Z" (631152014) 0xe12-0xe1a (8)
0xe10|                              00 00 00 0f      |          ....  |        corr: 15 0xe1a-0xe1e (4)
     |                                               |                |      [15]{}: leap_second_record 0xe1e-0xe2a (12)
0xe10|                                          00 00|              ..|        occur: "1991-01-01T00:00:15Z" (662688015) 0xe1e-0xe26 (8)
0xe20|00 00 27 7f d1 0f                              |..'...          |
0xe20|                  00 00 00 10                  |      ....      |        corr: 16 0xe26-0xe2a (4)
     |                                               |                |      [16]{}: leap_second_record 0xe2a-0xe36 (12)
0xe20|                              00 00 00 00 2a 50|          ....*P|        occur: "1992-07-01T00:00:16Z" (709948816) 0xe2a-0xe32 (8)
0xe30|f5 90                                          |..              |
0xe30|      00 00 00 11                              |  ....          |        corr: 17 0xe32-0xe36 (4)
     |                                               |                |      [17]{}: leap_second_record 0xe36-0xe42 (12)
0xe30|                  00 00 00 00 2c 32 29 11      |      ....,2).  |        occur: "1993-07-01T00:00:17Z" (741484817) 0xe36-0xe3e (8)
0xe30|                                          00 00|              ..|        corr: 18 0xe3e-0xe42 (4)
0xe40|00 12                                          |..              |
     |                                               |                |      [18]{}: leap_second_record 0xe42-0xe4e (12)
0xe40|      00 00 00 00 2e 13 5c 92                  |  ......\.      |        occur: "1994-07-01T00:00:18Z" (773020818) 0xe42-0xe4a (8)
0xe40|                              00 00 00 13      |          ....  |        corr: 19 0xe4a-0xe4e (4)
     |                                               |                |      [19]{}: leap_second_record 0xe4e-0xe5a (12)
0xe40|                                          00 00|              ..|        occur: "1996-01-01T00:00:19Z" (820454419) 0xe4e-0xe56 (8)
0xe50|00 00 30 e7 24 13                              |..0.$.          |
0xe50|                  00 00 00 14                  |      ....      |        corr: 20 0xe56-0xe5a (4)
     |                                               |                |      [20]{}: leap_second_record 0xe5a-0xe66 (12)
0xe50|                              00 00 00 00 33 b8|          ....3.|        occur: "1997-07-01T00:00:20Z" (867715220) 0xe5a-0xe62 (8)
0xe60|48 94                                          |H.              |
0xe60|      00 00 00 15                              |  ....          |        corr: 21 0xe62-0xe66 (4)
     |                                               |                |      [21]{}: leap_second_record 0xe66-0xe72 (12)
0xe60|                  00 00 00 00 36 8c 10 15      |      ....6...  |        occur: "1999-01-01T00:00:21Z" (915148821) 0xe66-0xe6e (8)
0xe60|                                          00 00|              ..|        corr: 22 0xe6e-0xe72 (4)
0xe70|00 16                                          |..              |
     |                                               |                |      [22]{}: leap_second_record 0xe72-0xe7e (12)
0xe70|      00 00 00 00 43 b7 1b 96                  |  ....C...      |        occur: "2006-01-01T00:00:22Z" (1136073622) 0xe72-0xe7a (8)
0xe70|                              00 00 00 17      |          ....  |        corr: 23 0xe7a-0xe7e (4)
     |                                               |                |      [23]{}: leap_second_record 0xe7e-0xe8a (12)
0xe70|                                          00 00|              ..|        occur: "2009-01-01T00:00:23Z" (1230768023) 0xe7e-0xe86 (8)
0xe80|00 00 49 5c 07 97                              |..I\..          |
0xe80|                  00 00 00 18                  |      ....      |        corr: 24 0xe86-0xe8a (4)
     |                                               |                |      [24]{}: leap_second_record 0xe8a-0xe96 (12)
0xe80|                              00 00 00 00 4f ef|          ....O.|        occur: "2012-07-01T00:00:24Z" (1341100824) 0xe8a-0xe92 (8)
0xe90|93 18                                          |..              |
0xe90|      00 00 00 19                              |  ....          |        corr: 25 0xe92-0xe96 (4)
     |                                               |                |      [25]{}: leap_second_record 0xe96-0xea2 (12)
0xe90|                  00 00 00 00 55 93 2d 99      |      ....U.-.  |        occur: "2015-07-01T00:00:25Z" (1435708825) 0xe96-0xe9e (8)
0xe90|                                          00 00|              ..|        corr: 26 0xe9e-0xea2 (4)
0xea0|00 1a                                          |..              |
     |                                               |                |      [26]{}: leap_second_record 0xea2-0xeae (12)
0xea0|      00 00 00 00 58 68 46 9a                  |  ....XhF.      |        occur: "2017-01-01T00:00:26Z" (1483228826) 0xea2-0xeaa (8)
0xea0|                              00 00 00 1b      |          ....  |        corr: 27 0xeaa-0xeae (4)
     |                                               |                |    standard_wall_indicators[0:9]: 0xeae-0xeb7 (9)
0xea0|                                          00   |              . |      [0]: 0 standard_wall_indicator (valid) 0xeae-0xeaf (1)
0xea0|                                             00|               .|      [1]: 0 standard_wall_indicator (valid) 0xeaf-0xeb0 (1)
0xeb0|00                                             |.               |      [2]: 0 standard_wall_indicator (valid) 0xeb0-0xeb1 (1)
0xeb0|   00                                          | .              |      [3]: 0 standard_wall_indicator (valid) 0xeb1-0xeb2 (1)
0xeb0|      00                                       |  .             |      [4]: 0 standard_wall_indicator (valid) 0xeb2-0xeb3 (1)
0xeb0|         01                                    |   .            |      [5]: 1 standard_wall_indicator (valid) 0xeb3-0xeb4 (1)
0xeb0|            00                                 |    .           |      [6]: 0 standard_wall_indicator (valid) 0xeb4-0xeb5 (1)
0xeb0|               00                              |     .          |      [7]: 0 standard_wall_indicator (valid) 0xeb5-0xeb6 (1)
0xeb0|                  00                           |      .         |      [8]: 0 standard_wall_indicator (valid) 0xeb6-0xeb7 (1)
     |                                               |                |    ut_local_indicators[0:9]: 0xeb7-0xec0 (9)
0xeb0|                     00                        |       .        |      [0]: 0 ut_local_indicator (valid) 0xeb7-0xeb8 (1)
0xeb0|                        00                     |        .       |      [1]: 0 ut_local_indicator (valid) 0xeb8-0xeb9 (1)
0xeb0|                           00                  |         .      |      [2]: 0 ut_local_indicator (valid) 0xeb9-0xeba (1)
0xeb0|                              00               |          .     |      [3]: 0 ut_local_indicator (valid) 0xeba-0xebb (1)
0xeb0|                                 00            |           .    |      [4]: 0 ut_local_indicator (valid) 0xebb-0xebc (1)
0xeb0|                                    01         |            .   |      [5]: 1 ut_local_indicator (valid) 0xebc-0xebd (1)
0xeb0|                                       00      |             .  |      [6]: 0 ut_local_indicator (valid) 0xebd-0xebe (1)
0xeb0|                                          00   |              . |      [7]: 0 ut_local_indicator (valid) 0xebe-0xebf (1)
0xeb0|                                             00|               .|      [8]: 0 ut_local_indicator (valid) 0xebf-0xec0 (1)
     |                                               |                |  footer{}: 0xec0-0xec2 (2)
0xec0|0a                                             |.               |    nl1: 10 (valid) 0xec0-0xec1 (1)
     |                                               |                |    tz_string: "" 0xec1-0xec1 (0)
0xec0|   0a|                                         | .|             |    nl2: 10 (valid) 0xec1-0xec2 (1)
