$ fq -d tzif dv St_Johns
     |00 01 02 03 04 05 06 07 08 09 0a 0b 0c 0d 0e 0f|0123456789abcdef|.{}: St_Johns (tzif) 0x0-0xec1.7 (3778)
     |                                               |                |  v1header{}: 0x0-0x2b.7 (44)
0x000|54 5a 69 66                                    |TZif            |    magic: 0x545a6966 (valid) 0x0-0x3.7 (4)
0x000|            32                                 |    2           |    ver: "2" (0x32) (valid) 0x4-0x4.7 (1)
0x000|               00 00 00 00 00 00 00 00 00 00 00|     ...........|    reserved: raw bits 0x5-0x13.7 (15)
0x010|00 00 00 00                                    |....            |
0x010|            00 00 00 09                        |    ....        |    isutcnt: 9 0x14-0x17.7 (4)
0x010|                        00 00 00 09            |        ....    |    isstdcnt: 9 0x18-0x1b.7 (4)
0x010|                                    00 00 00 1b|            ....|    leapcnt: 27 0x1c-0x1f.7 (4)
0x020|00 00 00 d3                                    |....            |    timecnt: 211 0x20-0x23.7 (4)
0x020|            00 00 00 09                        |    ....        |    typecnt: 9 0x24-0x27.7 (4)
0x020|                        00 00 00 19            |        ....    |    charcnt: 25 0x28-0x2b.7 (4)
     |                                               |                |  v1datablock{}: 0x2c-0x583.7 (1368)
     |                                               |                |    transition_times[0:211]: 0x2c-0x377.7 (844)
0x020|                                    80 00 00 00|            ....|      [0]: "1901-12-13T20:45:52Z" (-2147483648) transition_time 0x2c-0x2f.7 (4)
0x030|9c cf 62 0c                                    |..b.            |      [1]: "1917-04-08T05:30:52Z" (-1664130548) transition_time 0x30-0x33.7 (4)
0x030|            9d a4 e6 fc                        |    ....        |      [2]: "1917-09-17T04:30:52Z" (-1650137348) transition_time 0x34-0x37.7 (4)
0x030|                        9e b8 7e 8c            |        ..~.    |      [3]: "1918-04-14T05:30:52Z" (-1632076148) transition_time 0x38-0x3b.7 (4)
0x030|                                    9f ba d6 7c|            ...||      [4]: "1918-10-27T04:30:52Z" (-1615145348) transition_time 0x3c-0x3f.7 (4)
0x040|a0 b6 88 dc                                    |....            |      [5]: "1919-05-06T02:30:52Z" (-1598650148) transition_time 0x40-0x43.7 (4)
0x040|            a1 38 ff 4c                        |    .8.L        |      [6]: "1919-08-13T01:30:52Z" (-1590100148) transition_time 0x44-0x47.7 (4)
0x040|                        a2 95 19 5c            |        ...\    |      [7]: "1920-05-03T02:30:52Z" (-1567286948) transition_time 0x48-0x4b.7 (4)
0x040|                                    a3 84 fc 4c|            ...L|      [8]: "1920-11-01T01:30:52Z" (-1551565748) transition_time 0x4c-0x4f.7 (4)
0x050|a4 74 fb 5c                                    |.t.\            |      [9]: "1921-05-02T02:30:52Z" (-1535837348) transition_time 0x50-0x53.7 (4)
0x050|            a5 64 de 4c                        |    .d.L        |      [10]: "1921-10-31T01:30:52Z" (-1520116148) transition_time 0x54-0x57.7 (4)
0x050|                        a6 5e 17 dc            |        .^..    |      [11]: "1922-05-08T02:30:52Z" (-1503782948) transition_time 0x58-0x5b.7 (4)
0x050|                                    a7 44 c0 4c|            .D.L|      [12]: "1922-10-30T01:30:52Z" (-1488666548) transition_time 0x5c-0x5f.7 (4)
0x060|a8 3d f9 dc                                    |.=..            |      [13]: "1923-05-07T02:30:52Z" (-1472333348) transition_time 0x60-0x63.7 (4)
0x060|            a9 24 a2 4c                        |    .$.L        |      [14]: "1923-10-29T01:30:52Z" (-1457216948) transition_time 0x64-0x67.7 (4)
0x060|                        aa 1d db dc            |        ....    |      [15]: "1924-05-05T02:30:52Z" (-1440883748) transition_time 0x68-0x6b.7 (4)
0x060|                                    ab 04 84 4c|            ...L|      [16]: "1924-10-27T01:30:52Z" (-1425767348) transition_time 0x6c-0x6f.7 (4)
0x070|ab fd bd dc                                    |....            |      [17]: "1925-05-04T02:30:52Z" (-1409434148) transition_time 0x70-0x73.7 (4)
0x070|            ac e4 66 4c                        |    ..fL        |      [18]: "1925-10-26T01:30:52Z" (-1394317748) transition_time 0x74-0x77.7 (4)
0x070|                        ad dd 9f dc            |        ....    |      [19]: "1926-05-03T02:30:52Z" (-1377984548) transition_time 0x78-0x7b.7 (4)
0x070|                                    ae cd 82 cc|            ....|      [20]: "1926-11-01T01:30:52Z" (-1362263348) transition_time 0x7c-0x7f.7 (4)
0x080|af bd 81 dc                                    |....            |      [21]: "1927-05-02T02:30:52Z" (-1346534948) transition_time 0x80-0x83.7 (4)
0x080|            b0 ad 64 cc                        |    ..d.        |      [22]: "1927-10-31T01:30:52Z" (-1330813748) transition_time 0x84-0x87.7 (4)
0x080|                        b1 a6 9e 5c            |        ...\    |      [23]: "1928-05-07T02:30:52Z" (-1314480548) transition_time 0x88-0x8b.7 (4)
0x080|                                    b2 8d 46 cc|            ..F.|      [24]: "1928-10-29T01:30:52Z" (-1299364148) transition_time 0x8c-0x8f.7 (4)
0x090|b3 86 80 5c                                    |...\            |      [25]: "1929-05-06T02:30:52Z" (-1283030948) transition_time 0x90-0x93.7 (4)
0x090|            b4 6d 28 cc                        |    .m(.        |      [26]: "1929-10-28T01:30:52Z" (-1267914548) transition_time 0x94-0x97.7 (4)
0x090|                        b5 66 62 5c            |        .fb\    |      [27]: "1930-05-05T02:30:52Z" (-1251581348) transition_time 0x98-0x9b.7 (4)
0x090|                                    b6 4d 0a cc|            .M..|      [28]: "1930-10-27T01:30:52Z" (-1236464948) transition_time 0x9c-0x9f.7 (4)
0x0a0|b7 46 44 5c                                    |.FD\            |      [29]: "1931-05-04T02:30:52Z" (-1220131748) transition_time 0xa0-0xa3.7 (4)
0x0a0|            b8 2c ec cc                        |    .,..        |      [30]: "1931-10-26T01:30:52Z" (-1205015348) transition_time 0xa4-0xa7.7 (4)
0x0a0|                        b9 26 26 5c            |        .&&\    |      [31]: "1932-05-02T02:30:52Z" (-1188682148) transition_time 0xa8-0xab.7 (4)
0x0a0|                                    ba 16 09 4c|            ...L|      [32]: "1932-10-31T01:30:52Z" (-1172960948) transition_time 0xac-0xaf.7 (4)
0x0b0|bb 0f 42 dc                                    |..B.            |      [33]: "1933-05-08T02:30:52Z" (-1156627748) transition_time 0xb0-0xb3.7 (4)
0x0b0|            bb f5 eb 4c                        |    ...L        |      [34]: "1933-10-30T01:30:52Z" (-1141511348) transition_time 0xb4-0xb7.7 (4)
0x0b0|                        bc ef 24 dc            |        ..$.    |      [35]: "1934-05-07T02:30:52Z" (-1125178148) transition_time 0xb8-0xbb.7 (4)
0x0b0|                                    bd d5 cd 4c|            ...L|      [36]: "1934-10-29T01:30:52Z" (-1110061748) transition_time 0xbc-0xbf.7 (4)
0x0c0|be 9e 4d 6c                                    |..Ml            |      [37]: "1935-03-30T03:30:52Z" (-1096921748) transition_time 0xc0-0xc3.7 (4)
0x0c0|            be cf 06 a8                        |    ....        |      [38]: "1935-05-06T02:30:00Z" (-1093728600) transition_time 0xc4-0xc7.7 (4)
0x0c0|                        bf b5 af 18            |        ....    |      [39]: "1935-10-28T01:30:00Z" (-1078612200) transition_time 0xc8-0xcb.7 (4)
0x0c0|                                    c0 b8 31 38|            ..18|      [40]: "1936-05-11T03:30:00Z" (-1061670600) transition_time 0xcc-0xcf.7 (4)
0x0d0|c1 79 ef a8                                    |.y..            |      [41]: "1936-10-05T02:30:00Z" (-1048973400) transition_time 0xd0-0xd3.7 (4)
0x0d0|            c2 98 13 38                        |    ...8        |      [42]: "1937-05-10T03:30:00Z" (-1030221000) transition_time 0xd4-0xd7.7 (4)
0x0d0|                        c3 59 d1 a8            |        .Y..    |      [43]: "1937-10-04T02:30:00Z" (-1017523800) transition_time 0xd8-0xdb.7 (4)
0x0d0|                                    c4 77 f5 38|            .w.8|      [44]: "1938-05-09T03:30:00Z" (-998771400) transition_time 0xdc-0xdf.7 (4)
0x0e0|c5 39 b3 a8                                    |.9..            |      [45]: "1938-10-03T02:30:00Z" (-986074200) transition_time 0xe0-0xe3.7 (4)
0x0e0|            c6 61 11 b8                        |    .a..        |      [46]: "1939-05-15T03:30:00Z" (-966717000) transition_time 0xe4-0xe7.7 (4)
0x0e0|                        c7 19 95 a8            |        ....    |      [47]: "1939-10-02T02:30:00Z" (-954624600) transition_time 0xe8-0xeb.7 (4)
0x0e0|                                    c8 40 f3 b8|            .@..|      [48]: "1940-05-13T03:30:00Z" (-935267400) transition_time 0xec-0xef.7 (4)
0x0f0|c9 02 b2 28                                    |...(            |      [49]: "1940-10-07T02:30:00Z" (-922570200) transition_time 0xf0-0xf3.7 (4)
0x0f0|            ca 20 d5 b8                        |    . ..        |      [50]: "1941-05-12T03:30:00Z" (-903817800) transition_time 0xf4-0xf7.7 (4)
0x0f0|                        ca e2 94 28            |        ...(    |      [51]: "1941-10-06T02:30:00Z" (-891120600) transition_time 0xf8-0xfb.7 (4)
0x0f0|                                    cc 00 b7 b8|            ....|      [52]: "1942-05-11T03:30:00Z" (-872368200) transition_time 0xfc-0xff.7 (4)
0x100|d2 23 f4 70                                    |.#.p            |      [53]: "1945-08-14T23:00:00Z" (-769395600) transition_time 0x100-0x103.7 (4)
0x100|            d2 60 e6 c8                        |    .`..        |      [54]: "1945-09-30T04:30:00Z" (-765401400) transition_time 0x104-0x107.7 (4)
0x100|                        d3 88 44 d8            |        ..D.    |      [55]: "1946-05-12T05:30:00Z" (-746044200) transition_time 0x108-0x10b.7 (4)
0x100|                                    d4 4a 03 48|            .J.H|      [56]: "1946-10-06T04:30:00Z" (-733347000) transition_time 0x10c-0x10f.7 (4)
0x110|d5 68 26 d8                                    |.h&.            |      [57]: "1947-05-11T05:30:00Z" (-714594600) transition_time 0x110-0x113.7 (4)
0x110|            d6 29 e5 48                        |    .).H        |      [58]: "1947-10-05T04:30:00Z" (-701897400) transition_time 0x114-0x117.7 (4)
0x110|                        d7 48 08 d8            |        .H..    |      [59]: "1948-05-09T05:30:00Z" (-683145000) transition_time 0x118-0x11b.7 (4)
0x110|                                    d8 09 c7 48|            ...H|      [60]: "1948-10-03T04:30:00Z" (-670447800) transition_time 0x11c-0x11f.7 (4)
0x120|d9 27 ea d8                                    |.'..            |      [61]: "1949-05-08T05:30:00Z" (-651695400) transition_time 0x120-0x123.7 (4)
0x120|            d9 e9 a9 48                        |    ...H        |      [62]: "1949-10-02T04:30:00Z" (-638998200) transition_time 0x124-0x127.7 (4)
0x120|                        db 11 07 58            |        ...X    |      [63]: "1950-05-14T05:30:00Z" (-619641000) transition_time 0x128-0x12b.7 (4)
0x120|                                    db d2 c5 c8|            ....|      [64]: "1950-10-08T04:30:00Z" (-606943800) transition_time 0x12c-0x12f.7 (4)
0x130|dc de 74 58                                    |..tX            |      [65]: "1951-04-29T05:30:00Z" (-589401000) transition_time 0x130-0x133.7 (4)
0x130|            dd a9 6d 48                        |    ..mH        |      [66]: "1951-09-30T04:30:00Z" (-576099000) transition_time 0x134-0x137.7 (4)
0x130|                        de be 56 58            |        ..VX    |      [67]: "1952-04-27T05:30:00Z" (-557951400) transition_time 0x138-0x13b.7 (4)
0x130|                                    df 89 4f 48|            ..OH|      [68]: "1952-09-28T04:30:00Z" (-544649400) transition_time 0x13c-0x13f.7 (4)
0x140|e0 9e 38 58                                    |..8X            |      [69]: "1953-04-26T05:30:00Z" (-526501800) transition_time 0x140-0x143.7 (4)
0x140|            e1 69 31 48                        |    .i1H        |      [70]: "1953-09-27T04:30:00Z" (-513199800) transition_time 0x144-0x147.7 (4)
0x140|                        e2 7e 1a 58            |        .~.X    |      [71]: "1954-04-25T05:30:00Z" (-495052200) transition_time 0x148-0x14b.7 (4)
0x140|                                    e3 49 13 48|            .I.H|      [72]: "1954-09-26T04:30:00Z" (-481750200) transition_time 0x14c-0x14f.7 (4)
0x150|e4 5d fc 58                                    |.].X            |      [73]: "1955-04-24T05:30:00Z" (-463602600) transition_time 0x150-0x153.7 (4)
0x150|            e5 28 f5 48                        |    .(.H        |      [74]: "1955-09-25T04:30:00Z" (-450300600) transition_time 0x154-0x157.7 (4)
0x150|                        e6 47 18 d8            |        .G..    |      [75]: "1956-04-29T05:30:00Z" (-431548200) transition_time 0x158-0x15b.7 (4)
0x150|                                    e7 12 11 c8|            ....|      [76]: "1956-09-30T04:30:00Z" (-418246200) transition_time 0x15c-0x15f.7 (4)
0x160|e8 26 fa d8                                    |.&..            |      [77]: "1957-04-28T05:30:00Z" (-400098600) transition_time 0x160-0x163.7 (4)
0x160|            e8 f1 f3 c8                        |    ....        |      [78]: "1957-09-29T04:30:00Z" (-386796600) transition_time 0x164-0x167.7 (4)
0x160|                        ea 06 dc d8            |        ....    |      [79]: "1958-04-27T05:30:00Z" (-368649000) transition_time 0x168-0x16b.7 (4)
0x160|                                    ea d1 d5 c8|            ....|      [80]: "1958-09-28T04:30:00Z" (-355347000) transition_time 0x16c-0x16f.7 (4)
0x170|eb e6 be d8                                    |....            |      [81]: "1959-04-26T05:30:00Z" (-337199400) transition_time 0x170-0x173.7 (4)
0x170|            ec b1 b7 c8                        |    ....        |      [82]: "1959-09-27T04:30:00Z" (-323897400) transition_time 0x174-0x177.7 (4)
0x170|                        ed c6 a0 d8            |        ....    |      [83]: "1960-04-24T05:30:00Z" (-305749800) transition_time 0x178-0x17b.7 (4)
0x170|                                    ee bf be 48|            ...H|      [84]: "1960-10-30T04:30:00Z" (-289423800) transition_time 0x17c-0x17f.7 (4)
0x180|ef af bd 58                                    |...X            |      [85]: "1961-04-30T05:30:00Z" (-273695400) transition_time 0x180-0x183.7 (4)
0x180|            f0 9f a0 48                        |    ...H        |      [86]: "1961-10-29T04:30:00Z" (-257974200) transition_time 0x184-0x187.7 (4)
0x180|                        f1 8f 9f 58            |        ...X    |      [87]: "1962-04-29T05:30:00Z" (-242245800) transition_time 0x188-0x18b.7 (4)
0x180|                                    f2 7f 82 48|            ...H|      [88]: "1962-10-28T04:30:00Z" (-226524600) transition_time 0x18c-0x18f.7 (4)
0x190|f3 6f 81 58                                    |.o.X            |      [89]: "1963-04-28T05:30:00Z" (-210796200) transition_time 0x190-0x193.7 (4)
0x190|            f4 5f 64 48                        |    ._dH        |      [90]: "1963-10-27T04:30:00Z" (-195075000) transition_time 0x194-0x197.7 (4)
0x190|                        f5 4f 63 58            |        .OcX    |      [91]: "1964-04-26T05:30:00Z" (-179346600) transition_time 0x198-0x19b.7 (4)
0x190|                                    f6 3f 46 48|            .?FH|      [92]: "1964-10-25T04:30:00Z" (-163625400) transition_time 0x19c-0x19f.7 (4)
0x1a0|f7 2f 45 58                                    |./EX            |      [93]: "1965-04-25T05:30:00Z" (-147897000) transition_time 0x1a0-0x1a3.7 (4)
0x1a0|            f8 28 62 c8                        |    .(b.        |      [94]: "1965-10-31T04:30:00Z" (-131571000) transition_time 0x1a4-0x1a7.7 (4)
0x1a0|                        f9 0f 27 58            |        ..'X    |      [95]: "1966-04-24T05:30:00Z" (-116447400) transition_time 0x1a8-0x1ab.7 (4)
0x1a0|                                    fa 08 44 c8|            ..D.|      [96]: "1966-10-30T04:30:00Z" (-100121400) transition_time 0x1ac-0x1af.7 (4)
0x1b0|fa f8 43 d8                                    |..C.            |      [97]: "1967-04-30T05:30:00Z" (-84393000) transition_time 0x1b0-0x1b3.7 (4)
0x1b0|            fb e8 26 c8                        |    ..&.        |      [98]: "1967-10-29T04:30:00Z" (-68671800) transition_time 0x1b4-0x1b7.7 (4)
0x1b0|                        fc d8 25 d8            |        ..%.    |      [99]: "1968-04-28T05:30:00Z" (-52943400) transition_time 0x1b8-0x1bb.7 (4)
0x1b0|                                    fd c8 08 c8|            ....|      [100]: "1968-10-27T04:30:00Z" (-37222200) transition_time 0x1bc-0x1bf.7 (4)
0x1c0|fe b8 07 d8                                    |....            |      [101]: "1969-04-27T05:30:00Z" (-21493800) transition_time 0x1c0-0x1c3.7 (4)
0x1c0|            ff a7 ea c8                        |    ....        |      [102]: "1969-10-26T04:30:00Z" (-5772600) transition_time 0x1c4-0x1c7.7 (4)
0x1c0|                        00 97 e9 d8            |        ....    |      [103]: "1970-04-26T05:30:00Z" (9955800) transition_time 0x1c8-0x1cb.7 (4)
0x1c0|                                    01 87 cc c8|            ....|      [104]: "1970-10-25T04:30:00Z" (25677000) transition_time 0x1cc-0x1cf.7 (4)
0x1d0|02 77 cb d8                                    |.w..            |      [105]: "1971-04-25T05:30:00Z" (41405400) transition_time 0x1d0-0x1d3.7 (4)
0x1d0|            03 70 e9 48                        |    .p.H        |      [106]: "1971-10-31T04:30:00Z" (57731400) transition_time 0x1d4-0x1d7.7 (4)
0x1d0|                        04 60 e8 58            |        .`.X    |      [107]: "1972-04-30T05:30:00Z" (73459800) transition_time 0x1d8-0x1db.7 (4)
0x1d0|                                    05 50 cb 49|            .P.I|      [108]: "1972-10-29T04:30:01Z" (89181001) transition_time 0x1dc-0x1df.7 (4)
0x1e0|06 40 ca 5a                                    |.@.Z            |      [109]: "1973-04-29T05:30:02Z" (104909402) transition_time 0x1e0-0x1e3.7 (4)
0x1e0|            07 30 ad 4a                        |    .0.J        |      [110]: "1973-10-28T04:30:02Z" (120630602) transition_time 0x1e4-0x1e7.7 (4)
0x1e0|                        08 20 ac 5b            |        . .[    |      [111]: "1974-04-28T05:30:03Z" (136359003) transition_time 0x1e8-0x1eb.7 (4)
0x1e0|                                    09 10 8f 4b|            ...K|      [112]: "1974-10-27T04:30:03Z" (152080203) transition_time 0x1ec-0x1ef.7 (4)
0x1f0|0a 00 8e 5c                                    |...\            |      [113]: "1975-04-27T05:30:04Z" (167808604) transition_time 0x1f0-0x1f3.7 (4)
0x1f0|            0a f0 71 4c                        |    ..qL        |      [114]: "1975-10-26T04:30:04Z" (183529804) transition_time 0x1f4-0x1f7.7 (4)
0x1f0|                        0b e0 70 5d            |        ..p]    |      [115]: "1976-04-25T05:30:05Z" (199258205) transition_time 0x1f8-0x1fb.7 (4)
0x1f0|                                    0c d9 8d cd|            ....|      [116]: "1976-10-31T04:30:05Z" (215584205) transition_time 0x1fc-0x1ff.7 (4)
0x200|0d c0 52 5e                                    |..R^            |      [117]: "1977-04-24T05:30:06Z" (230707806) transition_time 0x200-0x203.7 (4)
0x200|            0e b9 6f ce                        |    ..o.        |      [118]: "1977-10-30T04:30:06Z" (247033806) transition_time 0x204-0x207.7 (4)
0x200|                        0f a9 6e df            |        ..n.    |      [119]: "1978-04-30T05:30:07Z" (262762207) transition_time 0x208-0x20b.7 (4)
0x200|                                    10 99 51 cf|            ..Q.|      [120]: "1978-10-29T04:30:07Z" (278483407) transition_time 0x20c-0x20f.7 (4)
0x210|11 89 50 e0                                    |..P.            |      [121]: "1979-04-29T05:30:08Z" (294211808) transition_time 0x210-0x213.7 (4)
0x210|            12 79 33 d0                        |    .y3.        |      [122]: "1979-10-28T04:30:08Z" (309933008) transition_time 0x214-0x217.7 (4)
0x210|                        13 69 32 e1            |        .i2.    |      [123]: "1980-04-27T05:30:09Z" (325661409) transition_time 0x218-0x21b.7 (4)
0x210|                                    14 59 15 d1|            .Y..|      [124]: "1980-10-26T04:30:09Z" (341382609) transition_time 0x21c-0x21f.7 (4)
0x220|15 49 14 e1                                    |.I..            |      [125]: "1981-04-26T05:30:09Z" (357111009) transition_time 0x220-0x223.7 (4)
0x220|            16 38 f7 d2                        |    .8..        |      [126]: "1981-10-25T04:30:10Z" (372832210) transition_time 0x224-0x227.7 (4)
0x220|                        17 28 f6 e2            |        .(..    |      [127]: "1982-04-25T05:30:10Z" (388560610) transition_time 0x228-0x22b.7 (4)
0x220|                                    18 22 14 53|            .".S|      [128]: "1982-10-31T04:30:11Z" (404886611) transition_time 0x22c-0x22f.7 (4)
0x230|19 08 d8 e3                                    |....            |      [129]: "1983-04-24T05:30:11Z" (420010211) transition_time 0x230-0x233.7 (4)
0x230|            1a 01 f6 54                        |    ...T        |      [130]: "1983-10-30T04:30:12Z" (436336212) transition_time 0x234-0x237.7 (4)
0x230|                        1a f1 f5 64            |        ...d    |      [131]: "1984-04-29T05:30:12Z" (452064612) transition_time 0x238-0x23b.7 (4)
0x230|                                    1b e1 d8 54|            ...T|      [132]: "1984-10-28T04:30:12Z" (467785812) transition_time 0x23c-0x23f.7 (4)
0x240|1c d1 d7 64                                    |...d            |      [133]: "1985-04-28T05:30:12Z" (483514212) transition_time 0x240-0x243.7 (4)
0x240|            1d c1 ba 55                        |    ...U        |      [134]: "1985-10-27T04:30:13Z" (499235413) transition_time 0x244-0x247.7 (4)
0x240|                        1e b1 b9 65            |        ...e    |      [135]: "1986-04-27T05:30:13Z" (514963813) transition_time 0x248-0x24b.7 (4)
0x240|                                    1f a1 9c 55|            ...U|      [136]: "1986-10-26T04:30:13Z" (530685013) transition_time 0x24c-0x24f.7 (4)
0x250|20 75 d0 01                                    | u..            |      [137]: "1987-04-05T03:31:13Z" (544591873) transition_time 0x250-0x253.7 (4)
0x250|            21 81 62 71                        |    !.bq        |      [138]: "1987-10-25T02:31:13Z" (562127473) transition_time 0x254-0x257.7 (4)
0x250|                        22 55 b2 02            |        "U..    |      [139]: "1988-04-03T03:31:14Z" (576041474) transition_time 0x258-0x25b.7 (4)
0x250|                                    23 6a 70 e2|            #jp.|      [140]: "1988-10-30T01:31:14Z" (594178274) transition_time 0x25c-0x25f.7 (4)
0x260|24 35 94 02                                    |$5..            |      [141]: "1989-04-02T03:31:14Z" (607491074) transition_time 0x260-0x263.7 (4)
0x260|            25 4a 60 f2                        |    %J`.        |      [142]: "1989-10-29T02:31:14Z" (625631474) transition_time 0x264-0x267.7 (4)
0x260|                        26 15 76 03            |        &.v.    |      [143]: "1990-04-01T03:31:15Z" (638940675) transition_time 0x268-0x26b.7 (4)
0x260|                                    27 2a 42 f3|            '*B.|      [144]: "1990-10-28T02:31:15Z" (657081075) transition_time 0x26c-0x26f.7 (4)
0x270|27 fe 92 84                                    |'...            |      [145]: "1991-04-07T03:31:16Z" (670995076) transition_time 0x270-0x273.7 (4)
0x270|            29 0a 24 f4                        |    ).$.        |      [146]: "1991-10-27T02:31:16Z" (688530676) transition_time 0x274-0x277.7 (4)
0x270|                        29 de 74 84            |        ).t.    |      [147]: "1992-04-05T03:31:16Z" (702444676) transition_time 0x278-0x27b.7 (4)
0x270|                                    2a ea 06 f5|            *...|      [148]: "1992-10-25T02:31:17Z" (719980277) transition_time 0x27c-0x27f.7 (4)
0x280|2b be 56 85                                    |+.V.            |      [149]: "1993-04-04T03:31:17Z" (733894277) transition_time 0x280-0x283.7 (4)
0x280|            2c d3 23 76                        |    ,.#v        |      [150]: "1993-10-31T02:31:18Z" (752034678) transition_time 0x284-0x287.7 (4)
0x280|                        2d 9e 38 86            |        -.8.    |      [151]: "1994-04-03T03:31:18Z" (765343878) transition_time 0x288-0x28b.7 (4)
0x280|                                    2e b3 05 77|            ...w|      [152]: "1994-10-30T02:31:19Z" (783484279) transition_time 0x28c-0x28f.7 (4)
0x290|2f 7e 1a 87                                    |/~..            |      [153]: "1995-04-02T03:31:19Z" (796793479) transition_time 0x290-0x293.7 (4)
0x290|            30 92 e7 77                        |    0..w        |      [154]: "1995-10-29T02:31:19Z" (814933879) transition_time 0x294-0x297.7 (4)
0x290|                        31 67 37 08            |        1g7.    |      [155]: "1996-04-07T03:31:20Z" (828847880) transition_time 0x298-0x29b.7 (4)
0x290|                                    32 72 c9 78|            2r.x|      [156]: "1996-10-27T02:31:20Z" (846383480) transition_time 0x29c-0x29f.7 (4)
0x2a0|33 47 19 08                                    |3G..            |      [157]: "1997-04-06T03:31:20Z" (860297480) transition_time 0x2a0-0x2a3.7 (4)
0x2a0|            34 52 ab 79                        |    4R.y        |      [158]: "1997-10-26T02:31:21Z" (877833081) transition_time 0x2a4-0x2a7.7 (4)
0x2a0|                        35 26 fb 09            |        5&..    |      [159]: "1998-04-05T03:31:21Z" (891747081) transition_time 0x2a8-0x2ab.7 (4)
0x2a0|                                    36 32 8d 79|            62.y|      [160]: "1998-10-25T02:31:21Z" (909282681) transition_time 0x2ac-0x2af.7 (4)
0x2b0|37 06 dd 0a                                    |7...            |      [161]: "1999-04-04T03:31:22Z" (923196682) transition_time 0x2b0-0x2b3.7 (4)
0x2b0|            38 1b a9 fa                        |    8...        |      [162]: "1999-10-31T02:31:22Z" (941337082) transition_time 0x2b4-0x2b7.7 (4)
0x2b0|                        38 e6 bf 0a            |        8...    |      [163]: "2000-04-02T03:31:22Z" (954646282) transition_time 0x2b8-0x2bb.7 (4)
0x2b0|                                    39 fb 8b fa|            9...|      [164]: "2000-10-29T02:31:22Z" (972786682) transition_time 0x2bc-0x2bf.7 (4)
0x2c0|3a c6 a1 0a                                    |:...            |      [165]: "2001-04-01T03:31:22Z" (986095882) transition_time 0x2c0-0x2c3.7 (4)
0x2c0|            3b db 6d fa                        |    ;.m.        |      [166]: "2001-10-28T02:31:22Z" (1004236282) transition_time 0x2c4-0x2c7.7 (4)
0x2c0|                        3c af bd 8a            |        <...    |      [167]: "2002-04-07T03:31:22Z" (1018150282) transition_time 0x2c8-0x2cb.7 (4)
0x2c0|                                    3d bb 4f fa|            =.O.|      [168]: "2002-10-27T02:31:22Z" (1035685882) transition_time 0x2cc-0x2cf.7 (4)
0x2d0|3e 8f 9f 8a                                    |>...            |      [169]: "2003-04-06T03:31:22Z" (1049599882) transition_time 0x2d0-0x2d3.7 (4)
0x2d0|            3f 9b 31 fa                        |    ?.1.        |      [170]: "2003-10-26T02:31:22Z" (1067135482) transition_time 0x2d4-0x2d7.7 (4)
0x2d0|                        40 6f 81 8a            |        @o..    |      [171]: "2004-04-04T03:31:22Z" (1081049482) transition_time 0x2d8-0x2db.7 (4)
0x2d0|                                    41 84 4e 7a|            A.Nz|      [172]: "2004-10-31T02:31:22Z" (1099189882) transition_time 0x2dc-0x2df.7 (4)
0x2e0|42 4f 63 8a                                    |BOc.            |      [173]: "2005-04-03T03:31:22Z" (1112499082) transition_time 0x2e0-0x2e3.7 (4)
0x2e0|            43 64 30 7a                        |    Cd0z        |      [174]: "2005-10-30T02:31:22Z" (1130639482) transition_time 0x2e4-0x2e7.7 (4)
0x2e0|                        44 2f 45 8b            |        D/E.    |      [175]: "2006-04-02T03:31:23Z" (1143948683) transition_time 0x2e8-0x2eb.7 (4)
0x2e0|                                    45 44 12 7b|            ED.{|      [176]: "2006-10-29T02:31:23Z" (1162089083) transition_time 0x2ec-0x2ef.7 (4)
0x2f0|45 f3 78 0b                                    |E.x.            |      [177]: "2007-03-11T03:31:23Z" (1173583883) transition_time 0x2f0-0x2f3.7 (4)
0x2f0|            47 2d 2e fb                        |    G-..        |      [178]: "2007-11-04T02:31:23Z" (1194143483) transition_time 0x2f4-0x2f7.7 (4)
0x2f0|                        47 d3 5a 0b            |        G.Z.    |      [179]: "2008-03-09T03:31:23Z" (1205033483) transition_time 0x2f8-0x2fb.7 (4)
0x2f0|                                    49 0d 10 fb|            I...|      [180]: "2008-11-02T02:31:23Z" (1225593083) transition_time 0x2fc-0x2ff.7 (4)
0x300|49 b3 3c 0c                                    |I.<.            |      [181]: "2009-03-08T03:31:24Z" (1236483084) transition_time 0x300-0x303.7 (4)
0x300|            4a ec f2 fc                        |    J...        |      [182]: "2009-11-01T02:31:24Z" (1257042684) transition_time 0x304-0x307.7 (4)
0x300|                        4b 9c 58 8c            |        K.X.    |      [183]: "2010-03-14T03:31:24Z" (1268537484) transition_time 0x308-0x30b.7 (4)
0x300|                                    4c d6 0f 7c|            L..||      [184]: "2010-11-07T02:31:24Z" (1289097084) transition_time 0x30c-0x30f.7 (4)
0x310|4d 7c 3a 8c                                    |M|:.            |      [185]: "2011-03-13T03:31:24Z" (1299987084) transition_time 0x310-0x313.7 (4)
0x310|            4e b6 0d 60                        |    N..`        |      [186]: "2011-11-06T04:30:24Z" (1320553824) transition_time 0x314-0x317.7 (4)
0x310|                        4f 5c 38 70            |        O\8p    |      [187]: "2012-03-11T05:30:24Z" (1331443824) transition_time 0x318-0x31b.7 (4)
0x310|                                    50 95 ef 61|            P..a|      [188]: "2012-11-04T04:30:25Z" (1352003425) transition_time 0x31c-0x31f.7 (4)
0x320|51 3c 1a 71                                    |Q<.q            |      [189]: "2013-03-10T05:30:25Z" (1362893425) transition_time 0x320-0x323.7 (4)
0x320|            52 75 d1 61                        |    Ru.a        |      [190]: "2013-11-03T04:30:25Z" (1383453025) transition_time 0x324-0x327.7 (4)
0x320|                        53 1b fc 71            |        S..q    |      [191]: "2014-03-09T05:30:25Z" (1394343025) transition_time 0x328-0x32b.7 (4)
0x320|                                    54 55 b3 61|            TU.a|      [192]: "2014-11-02T04:30:25Z" (1414902625) transition_time 0x32c-0x32f.7 (4)
0x330|54 fb de 71                                    |T..q            |      [193]: "2015-03-08T05:30:25Z" (1425792625) transition_time 0x330-0x333.7 (4)
0x330|            56 35 95 62                        |    V5.b        |      [194]: "2015-11-01T04:30:26Z" (1446352226) transition_time 0x334-0x337.7 (4)
0x330|                        56 e4 fa f2            |        V...    |      [195]: "2016-03-13T05:30:26Z" (1457847026) transition_time 0x338-0x33b.7 (4)
0x330|                                    58 1e b1 e2|            X...|      [196]: "2016-11-06T04:30:26Z" (1478406626) transition_time 0x33c-0x33f.7 (4)
0x340|58 c4 dc f3                                    |X...            |      [197]: "2017-03-12T05:30:27Z" (1489296627) transition_time 0x340-0x343.7 (4)
0x340|            59 fe 93 e3                        |    Y...        |      [198]: "2017-11-05T04:30:27Z" (1509856227) transition_time 0x344-0x347.7 (4)
0x340|                        5a a4 be f3            |        Z...    |      [199]: "2018-03-11T05:30:27Z" (1520746227) transition_time 0x348-0x34b.7 (4)
0x340|                                    5b de 75 e3|            [.u.|      [200]: "2018-11-04T04:30:27Z" (1541305827) transition_time 0x34c-0x34f.7 (4)
0x350|5c 84 a0 f3                                    |\...            |      [201]: "2019-03-10T05:30:27Z" (1552195827) transition_time 0x350-0x353.7 (4)
0x350|            5d be 57 e3                        |    ].W.        |      [202]: "2019-11-03T04:30:27Z" (1572755427) transition_time 0x354-0x357.7 (4)
0x350|                        5e 64 82 f3            |        ^d..    |      [203]: "2020-03-08T05:30:27Z" (1583645427) transition_time 0x358-0x35b.7 (4)
0x350|                                    5f 9e 39 e3|            _.9.|      [204]: "2020-11-01T04:30:27Z" (1604205027) transition_time 0x35c-0x35f.7 (4)
0x360|60 4d 9f 73                                    |`M.s            |      [205]: "2021-03-14T05:30:27Z" (1615699827) transition_time 0x360-0x363.7 (4)
0x360|            61 87 56 63                        |    a.Vc        |      [206]: "2021-11-07T04:30:27Z" (1636259427) transition_time 0x364-0x367.7 (4)
0x360|                        62 2d 81 73            |        b-.s    |      [207]: "2022-03-13T05:30:27Z" (1647149427) transition_time 0x368-0x36b.7 (4)
0x360|                                    63 67 38 63|            cg8c|      [208]: "2022-11-06T04:30:27Z" (1667709027) transition_time 0x36c-0x36f.7 (4)
0x370|64 0d 63 73                                    |d.cs            |      [209]: "2023-03-12T05:30:27Z" (1678599027) transition_time 0x370-0x373.7 (4)
0x370|            64 9b 78 1b                        |    d.x.        |      [210]: "2023-06-28T00:00:27Z" (1687910427) transition_time 0x374-0x377.7 (4)
     |                                               |                |    transition_types[0:211]: 0x378-0x44a.7 (211)
0x370|                        02                     |        .       |      [0]: 2 transition_type 0x378-0x378.7 (1)
0x370|                           01                  |         .      |      [1]: 1 transition_type 0x379-0x379.7 (1)
0x370|                              02               |          .     |      [2]: 2 transition_type 0x37a-0x37a.7 (1)
0x370|                                 01            |           .    |      [3]: 1 transition_type 0x37b-0x37b.7 (1)
0x370|                                    02         |            .   |      [4]: 2 transition_type 0x37c-0x37c.7 (1)
0x370|                                       01      |             .  |      [5]: 1 transition_type 0x37d-0x37d.7 (1)
0x370|                                          02   |              . |      [6]: 2 transition_type 0x37e-0x37e.7 (1)
0x370|                                             01|               .|      [7]: 1 transition_type 0x37f-0x37f.7 (1)
0x380|02                                             |.               |      [8]: 2 transition_type 0x380-0x380.7 (1)
0x380|   01                                          | .              |      [9]: 1 transition_type 0x381-0x381.7 (1)
0x380|      02                                       |  .             |      [10]: 2 transition_type 0x382-0x382.7 (1)
0x380|         01                                    |   .            |      [11]: 1 transition_type 0x383-0x383.7 (1)
0x380|            02                                 |    .           |      [12]: 2 transition_type 0x384-0x384.7 (1)
0x380|               01                              |     .          |      [13]: 1 transition_type 0x385-0x385.7 (1)
0x380|                  02                           |      .         |      [14]: 2 transition_type 0x386-0x386.7 (1)
0x380|                     01                        |       .        |      [15]: 1 transition_type 0x387-0x387.7 (1)
0x380|                        02                     |        .       |      [16]: 2 transition_type 0x388-0x388.7 (1)
0x380|                           01                  |         .      |      [17]: 1 transition_type 0x389-0x389.7 (1)
0x380|                              02               |          .     |      [18]: 2 transition_type 0x38a-0x38a.7 (1)
0x380|                                 01            |           .    |      [19]: 1 transition_type 0x38b-0x38b.7 (1)
0x380|                                    02         |            .   |      [20]: 2 transition_type 0x38c-0x38c.7 (1)
0x380|                                       01      |             .  |      [21]: 1 transition_type 0x38d-0x38d.7 (1)
0x380|                                          02   |              . |      [22]: 2 transition_type 0x38e-0x38e.7 (1)
0x380|                                             01|               .|      [23]: 1 transition_type 0x38f-0x38f.7 (1)
0x390|02                                             |.               |      [24]: 2 transition_type 0x390-0x390.7 (1)
0x390|   01                                          | .              |      [25]: 1 transition_type 0x391-0x391.7 (1)
0x390|      02                                       |  .             |      [26]: 2 transition_type 0x392-0x392.7 (1)
0x390|         01                                    |   .            |      [27]: 1 transition_type 0x393-0x393.7 (1)
0x390|            02                                 |    .           |      [28]: 2 transition_type 0x394-0x394.7 (1)
0x390|               01                              |     .          |      [29]: 1 transition_type 0x395-0x395.7 (1)
0x390|                  02                           |      .         |      [30]: 2 transition_type 0x396-0x396.7 (1)
0x390|                     01                        |       .        |      [31]: 1 transition_type 0x397-0x397.7 (1)
0x390|                        02                     |        .       |      [32]: 2 transition_type 0x398-0x398.7 (1)
0x390|                           01                  |         .      |      [33]: 1 transition_type 0x399-0x399.7 (1)
0x390|                              02               |          .     |      [34]: 2 transition_type 0x39a-0x39a.7 (1)
0x390|                                 01            |           .    |      [35]: 1 transition_type 0x39b-0x39b.7 (1)
0x390|                                    02         |            .   |      [36]: 2 transition_type 0x39c-0x39c.7 (1)
0x390|                                       04      |             .  |      [37]: 4 transition_type 0x39d-0x39d.7 (1)
0x390|                                          03   |              . |      [38]: 3 transition_type 0x39e-0x39e.7 (1)
0x390|                                             04|               .|      [39]: 4 transition_type 0x39f-0x39f.7 (1)
0x3a0|03                                             |.               |      [40]: 3 transition_type 0x3a0-0x3a0.7 (1)
0x3a0|   04                                          | .              |      [41]: 4 transition_type 0x3a1-0x3a1.7 (1)
0x3a0|      03                                       |  .             |      [42]: 3 transition_type 0x3a2-0x3a2.7 (1)
0x3a0|         04                                    |   .            |      [43]: 4 transition_type 0x3a3-0x3a3.7 (1)
0x3a0|            03                                 |    .           |      [44]: 3 transition_type 0x3a4-0x3a4.7 (1)
0x3a0|               04                              |     .          |      [45]: 4 transition_type 0x3a5-0x3a5.7 (1)
0x3a0|                  03                           |      .         |      [46]: 3 transition_type 0x3a6-0x3a6.7 (1)
0x3a0|                     04                        |       .        |      [47]: 4 transition_type 0x3a7-0x3a7.7 (1)
0x3a0|                        03                     |        .       |      [48]: 3 transition_type 0x3a8-0x3a8.7 (1)
0x3a0|                           04                  |         .      |      [49]: 4 transition_type 0x3a9-0x3a9.7 (1)
0x3a0|                              03               |          .     |      [50]: 3 transition_type 0x3aa-0x3aa.7 (1)
0x3a0|                                 04            |           .    |      [51]: 4 transition_type 0x3ab-0x3ab.7 (1)
0x3a0|                                    06         |            .   |      [52]: 6 transition_type 0x3ac-0x3ac.7 (1)
0x3a0|                                       05      |             .  |      [53]: 5 transition_type 0x3ad-0x3ad.7 (1)
0x3a0|                                          04   |              . |      [54]: 4 transition_type 0x3ae-0x3ae.7 (1)
0x3a0|                                             03|               .|      [55]: 3 transition_type 0x3af-0x3af.7 (1)
0x3b0|04                                             |.               |      [56]: 4 transition_type 0x3b0-0x3b0.7 (1)
0x3b0|   03                                          | .              |      [57]: 3 transition_type 0x3b1-0x3b1.7 (1)
0x3b0|      04                                       |  .             |      [58]: 4 transition_type 0x3b2-0x3b2.7 (1)
0x3b0|         03                                    |   .            |      [59]: 3 transition_type 0x3b3-0x3b3.7 (1)
0x3b0|            04                                 |    .           |      [60]: 4 transition_type 0x3b4-0x3b4.7 (1)
0x3b0|               03                              |     .          |      [61]: 3 transition_type 0x3b5-0x3b5.7 (1)
0x3b0|                  04                           |      .         |      [62]: 4 transition_type 0x3b6-0x3b6.7 (1)
0x3b0|                     03                        |       .        |      [63]: 3 transition_type 0x3b7-0x3b7.7 (1)
0x3b0|                        04                     |        .       |      [64]: 4 transition_type 0x3b8-0x3b8.7 (1)
0x3b0|                           03                  |         .      |      [65]: 3 transition_type 0x3b9-0x3b9.7 (1)
0x3b0|                              04               |          .     |      [66]: 4 transition_type 0x3ba-0x3ba.7 (1)
0x3b0|                                 03            |           .    |      [67]: 3 transition_type 0x3bb-0x3bb.7 (1)
0x3b0|                                    04         |            .   |      [68]: 4 transition_type 0x3bc-0x3bc.7 (1)
0x3b0|                                       03      |             .  |      [69]: 3 transition_type 0x3bd-0x3bd.7 (1)
0x3b0|                                          04   |              . |      [70]: 4 transition_type 0x3be-0x3be.7 (1)
0x3b0|                                             03|               .|      [71]: 3 transition_type 0x3bf-0x3bf.7 (1)
0x3c0|04                                             |.               |      [72]: 4 transition_type 0x3c0-0x3c0.7 (1)
0x3c0|   03                                          | .              |      [73]: 3 transition_type 0x3c1-0x3c1.7 (1)
0x3c0|      04                                       |  .             |      [74]: 4 transition_type 0x3c2-0x3c2.7 (1)
0x3c0|         03                                    |   .            |      [75]: 3 transition_type 0x3c3-0x3c3.7 (1)
0x3c0|            04                                 |    .           |      [76]: 4 transition_type 0x3c4-0x3c4.7 (1)
0x3c0|               03                              |     .          |      [77]: 3 transition_type 0x3c5-0x3c5.7 (1)
0x3c0|                  04                           |      .         |      [78]: 4 transition_type 0x3c6-0x3c6.7 (1)
0x3c0|                     03                        |       .        |      [79]: 3 transition_type 0x3c7-0x3c7.7 (1)
0x3c0|                        04                     |        .       |      [80]: 4 transition_type 0x3c8-0x3c8.7 (1)
0x3c0|                           03                  |         .      |      [81]: 3 transition_type 0x3c9-0x3c9.7 (1)
0x3c0|                              04               |          .     |      [82]: 4 transition_type 0x3ca-0x3ca.7 (1)
0x3c0|                                 03            |           .    |      [83]: 3 transition_type 0x3cb-0x3cb.7 (1)
0x3c0|                                    04         |            .   |      [84]: 4 transition_type 0x3cc-0x3cc.7 (1)
0x3c0|                                       03      |             .  |      [85]: 3 transition_type 0x3cd-0x3cd.7 (1)
0x3c0|                                          04   |              . |      [86]: 4 transition_type 0x3ce-0x3ce.7 (1)
0x3c0|                                             03|               .|      [87]: 3 transition_type 0x3cf-0x3cf.7 (1)
0x3d0|04                                             |.               |      [88]: 4 transition_type 0x3d0-0x3d0.7 (1)
0x3d0|   03                                          | .              |      [89]: 3 transition_type 0x3d1-0x3d1.7 (1)
0x3d0|      04                                       |  .             |      [90]: 4 transition_type 0x3d2-0x3d2.7 (1)
0x3d0|         03                                    |   .            |      [91]: 3 transition_type 0x3d3-0x3d3.7 (1)
0x3d0|            04                                 |    .           |      [92]: 4 transition_type 0x3d4-0x3d4.7 (1)
0x3d0|               03                              |     .          |      [93]: 3 transition_type 0x3d5-0x3d5.7 (1)
0x3d0|                  04                           |      .         |      [94]: 4 transition_type 0x3d6-0x3d6.7 (1)
0x3d0|                     03                        |       .        |      [95]: 3 transition_type 0x3d7-0x3d7.7 (1)
0x3d0|                        04                     |        .       |      [96]: 4 transition_type 0x3d8-0x3d8.7 (1)
0x3d0|                           03                  |         .      |      [97]: 3 transition_type 0x3d9-0x3d9.7 (1)
0x3d0|                              04               |          .     |      [98]: 4 transition_type 0x3da-0x3da.7 (1)
0x3d0|                                 03            |           .    |      [99]: 3 transition_type 0x3db-0x3db.7 (1)
0x3d0|                                    04         |            .   |      [100]: 4 transition_type 0x3dc-0x3dc.7 (1)
0x3d0|                                       03      |             .  |      [101]: 3 transition_type 0x3dd-0x3dd.7 (1)
0x3d0|                                          04   |              . |      [102]: 4 transition_type 0x3de-0x3de.7 (1)
0x3d0|                                             03|               .|      [103]: 3 transition_type 0x3df-0x3df.7 (1)
0x3e0|04                                             |.               |      [104]: 4 transition_type 0x3e0-0x3e0.7 (1)
0x3e0|   03                                          | .              |      [105]: 3 transition_type 0x3e1-0x3e1.7 (1)
0x3e0|      04                                       |  .             |      [106]: 4 transition_type 0x3e2-0x3e2.7 (1)
0x3e0|         03                                    |   .            |      [107]: 3 transition_type 0x3e3-0x3e3.7 (1)
0x3e0|            04                                 |    .           |      [108]: 4 transition_type 0x3e4-0x3e4.7 (1)
0x3e0|               03                              |     .          |      [109]: 3 transition_type 0x3e5-0x3e5.7 (1)
0x3e0|                  04                           |      .         |      [110]: 4 transition_type 0x3e6-0x3e6.7 (1)
0x3e0|                     03                        |       .        |      [111]: 3 transition_type 0x3e7-0x3e7.7 (1)
0x3e0|                        04                     |        .       |      [112]: 4 transition_type 0x3e8-0x3e8.7 (1)
0x3e0|                           03                  |         .      |      [113]: 3 transition_type 0x3e9-0x3e9.7 (1)
0x3e0|                              04               |          .     |      [114]: 4 transition_type 0x3ea-0x3ea.7 (1)
0x3e0|                                 03            |           .    |      [115]: 3 transition_type 0x3eb-0x3eb.7 (1)
0x3e0|                                    04         |            .   |      [116]: 4 transition_type 0x3ec-0x3ec.7 (1)
0x3e0|                                       03      |             .  |      [117]: 3 transition_type 0x3ed-0x3ed.7 (1)
0x3e0|                                          04   |              . |      [118]: 4 transition_type 0x3ee-0x3ee.7 (1)
0x3e0|                                             03|               .|      [119]: 3 transition_type 0x3ef-0x3ef.7 (1)
0x3f0|04                                             |.               |      [120]: 4 transition_type 0x3f0-0x3f0.7 (1)
0x3f0|   03                                          | .              |      [121]: 3 transition_type 0x3f1-0x3f1.7 (1)
0x3f0|      04                                       |  .             |      [122]: 4 transition_type 0x3f2-0x3f2.7 (1)
0x3f0|         03                                    |   .            |      [123]: 3 transition_type 0x3f3-0x3f3.7 (1)
0x3f0|            04                                 |    .           |      [124]: 4 transition_type 0x3f4-0x3f4.7 (1)
0x3f0|               03                              |     .          |      [125]: 3 transition_type 0x3f5-0x3f5.7 (1)
0x3f0|                  04                           |      .         |      [126]: 4 transition_type 0x3f6-0x3f6.7 (1)
0x3f0|                     03                        |       .        |      [127]: 3 transition_type 0x3f7-0x3f7.7 (1)
0x3f0|                        04                     |        .       |      [128]: 4 transition_type 0x3f8-0x3f8.7 (1)
0x3f0|                           03                  |         .      |      [129]: 3 transition_type 0x3f9-0x3f9.7 (1)
0x3f0|                              04               |          .     |      [130]: 4 transition_type 0x3fa-0x3fa.7 (1)
0x3f0|                                 03            |           .    |      [131]: 3 transition_type 0x3fb-0x3fb.7 (1)
0x3f0|                                    04         |            .   |      [132]: 4 transition_type 0x3fc-0x3fc.7 (1)
0x3f0|                                       03      |             .  |      [133]: 3 transition_type 0x3fd-0x3fd.7 (1)
0x3f0|                                          04   |              . |      [134]: 4 transition_type 0x3fe-0x3fe.7 (1)
0x3f0|                                             03|               .|      [135]: 3 transition_type 0x3ff-0x3ff.7 (1)
0x400|04                                             |.               |      [136]: 4 transition_type 0x400-0x400.7 (1)
0x400|   03                                          | .              |      [137]: 3 transition_type 0x401-0x401.7 (1)
0x400|      04                                       |  .             |      [138]: 4 transition_type 0x402-0x402.7 (1)
0x400|         07                                    |   .            |      [139]: 7 transition_type 0x403-0x403.7 (1)
0x400|            04                                 |    .           |      [140]: 4 transition_type 0x404-0x404.7 (1)
0x400|               03                              |     .          |      [141]: 3 transition_type 0x405-0x405.7 (1)
0x400|                  04                           |      .         |      [142]: 4 transition_type 0x406-0x406.7 (1)
0x400|                     03                        |       .        |      [143]: 3 transition_type 0x407-0x407.7 (1)
0x400|                        04                     |        .       |      [144]: 4 transition_type 0x408-0x408.7 (1)
0x400|                           03                  |         .      |      [145]: 3 transition_type 0x409-0x409.7 (1)
0x400|                              04               |          .     |      [146]: 4 transition_type 0x40a-0x40a.7 (1)
0x400|                                 03            |           .    |      [147]: 3 transition_type 0x40b-0x40b.7 (1)
0x400|                                    04         |            .   |      [148]: 4 transition_type 0x40c-0x40c.7 (1)
0x400|                                       03      |             .  |      [149]: 3 transition_type 0x40d-0x40d.7 (1)
0x400|                                          04   |              . |      [150]: 4 transition_type 0x40e-0x40e.7 (1)
0x400|                                             03|               .|      [151]: 3 transition_type 0x40f-0x40f.7 (1)
0x410|04                                             |.               |      [152]: 4 transition_type 0x410-0x410.7 (1)
0x410|   03                                          | .              |      [153]: 3 transition_type 0x411-0x411.7 (1)
0x410|      04                                       |  .             |      [154]: 4 transition_type 0x412-0x412.7 (1)
0x410|         03                                    |   .            |      [155]: 3 transition_type 0x413-0x413.7 (1)
0x410|            04                                 |    .           |      [156]: 4 transition_type 0x414-0x414.7 (1)
0x410|               03                              |     .          |      [157]: 3 transition_type 0x415-0x415.7 (1)
0x410|                  04                           |      .         |      [158]: 4 transition_type 0x416-0x416.7 (1)
0x410|                     03                        |       .        |      [159]: 3 transition_type 0x417-0x417.7 (1)
0x410|                        04                     |        .       |      [160]: 4 transition_type 0x418-0x418.7 (1)
0x410|                           03                  |         .      |      [161]: 3 transition_type 0x419-0x419.7 (1)
0x410|                              04               |          .     |      [162]: 4 transition_type 0x41a-0x41a.7 (1)
0x410|                                 03            |           .    |      [163]: 3 transition_type 0x41b-0x41b.7 (1)
0x410|                                    04         |            .   |      [164]: 4 transition_type 0x41c-0x41c.7 (1)
0x410|                                       03      |             .  |      [165]: 3 transition_type 0x41d-0x41d.7 (1)
0x410|                                          04   |              . |      [166]: 4 transition_type 0x41e-0x41e.7 (1)
0x410|                                             03|               .|      [167]: 3 transition_type 0x41f-0x41f.7 (1)
0x420|04                                             |.               |      [168]: 4 transition_type 0x420-0x420.7 (1)
0x420|   03                                          | .              |      [169]: 3 transition_type 0x421-0x421.7 (1)
0x420|      04                                       |  .             |      [170]: 4 transition_type 0x422-0x422.7 (1)
0x420|         03                                    |   .            |      [171]: 3 transition_type 0x423-0x423.7 (1)
0x420|            04                                 |    .           |      [172]: 4 transition_type 0x424-0x424.7 (1)
0x420|               03                              |     .          |      [173]: 3 transition_type 0x425-0x425.7 (1)
0x420|                  04                           |      .         |      [174]: 4 transition_type 0x426-0x426.7 (1)
0x420|                     03                        |       .        |      [175]: 3 transition_type 0x427-0x427.7 (1)
0x420|                        04                     |        .       |      [176]: 4 transition_type 0x428-0x428.7 (1)
0x420|                           03                  |         .      |      [177]: 3 transition_type 0x429-0x429.7 (1)
0x420|                              04               |          .     |      [178]: 4 transition_type 0x42a-0x42a.7 (1)
0x420|                                 03            |           .    |      [179]: 3 transition_type 0x42b-0x42b.7 (1)
0x420|                                    04         |            .   |      [180]: 4 transition_type 0x42c-0x42c.7 (1)
0x420|                                       03      |             .  |      [181]: 3 transition_type 0x42d-0x42d.7 (1)
0x420|                                          04   |              . |      [182]: 4 transition_type 0x42e-0x42e.7 (1)
0x420|                                             03|               .|      [183]: 3 transition_type 0x42f-0x42f.7 (1)
0x430|04                                             |.               |      [184]: 4 transition_type 0x430-0x430.7 (1)
0x430|   03                                          | .              |      [185]: 3 transition_type 0x431-0x431.7 (1)
0x430|      04                                       |  .             |      [186]: 4 transition_type 0x432-0x432.7 (1)
0x430|         03                                    |   .            |      [187]: 3 transition_type 0x433-0x433.7 (1)
0x430|            04                                 |    .           |      [188]: 4 transition_type 0x434-0x434.7 (1)
0x430|               03                              |     .          |      [189]: 3 transition_type 0x435-0x435.7 (1)
0x430|                  04                           |      .         |      [190]: 4 transition_type 0x436-0x436.7 (1)
0x430|                     03                        |       .        |      [191]: 3 transition_type 0x437-0x437.7 (1)
0x430|                        04                     |        .       |      [192]: 4 transition_type 0x438-0x438.7 (1)
0x430|                           03                  |         .      |      [193]: 3 transition_type 0x439-0x439.7 (1)
0x430|                              04               |          .     |      [194]: 4 transition_type 0x43a-0x43a.7 (1)
0x430|                                 03            |           .    |      [195]: 3 transition_type 0x43b-0x43b.7 (1)
0x430|                                    04         |            .   |      [196]: 4 transition_type 0x43c-0x43c.7 (1)
0x430|                                       03      |             .  |      [197]: 3 transition_type 0x43d-0x43d.7 (1)
0x430|                                          04   |              . |      [198]: 4 transition_type 0x43e-0x43e.7 (1)
0x430|                                             03|               .|      [199]: 3 transition_type 0x43f-0x43f.7 (1)
0x440|04                                             |.               |      [200]: 4 transition_type 0x440-0x440.7 (1)
0x440|   03                                          | .              |      [201]: 3 transition_type 0x441-0x441.7 (1)
0x440|      04                                       |  .             |      [202]: 4 transition_type 0x442-0x442.7 (1)
0x440|         03                                    |   .            |      [203]: 3 transition_type 0x443-0x443.7 (1)
0x440|            04                                 |    .           |      [204]: 4 transition_type 0x444-0x444.7 (1)
0x440|               03                              |     .          |      [205]: 3 transition_type 0x445-0x445.7 (1)
0x440|                  04                           |      .         |      [206]: 4 transition_type 0x446-0x446.7 (1)
0x440|                     03                        |       .        |      [207]: 3 transition_type 0x447-0x447.7 (1)
0x440|                        04                     |        .       |      [208]: 4 transition_type 0x448-0x448.7 (1)
0x440|                           03                  |         .      |      [209]: 3 transition_type 0x449-0x449.7 (1)
0x440|                              03               |          .     |      [210]: 3 transition_type 0x44a-0x44a.7 (1)
     |                                               |                |    local_time_type_records[0:9]: 0x44b-0x480.7 (54)
     |                                               |                |      [0]{}: local_time_type 0x44b-0x450.7 (6)
0x440|                                 ff ff ce 94   |           .... |        utoff: -12652 (valid) 0x44b-0x44e.7 (4)
0x440|                                             00|               .|        dst: 0 (valid) 0x44f-0x44f.7 (1)
0x450|00                                             |.               |        idx: 0 (valid) 0x450-0x450.7 (1)
     |                                               |                |      [1]{}: local_time_type 0x451-0x456.7 (6)
0x450|   ff ff dc a4                                 | ....           |        utoff: -9052 (valid) 0x451-0x454.7 (4)
0x450|               01                              |     .          |        dst: 1 (valid) 0x455-0x455.7 (1)
0x450|                  04                           |      .         |        idx: 4 (valid) 0x456-0x456.7 (1)
     |                                               |                |      [2]{}: local_time_type 0x457-0x45c.7 (6)
0x450|                     ff ff ce 94               |       ....     |        utoff: -12652 (valid) 0x457-0x45a.7 (4)
0x450|                                 00            |           .    |        dst: 0 (valid) 0x45b-0x45b.7 (1)
0x450|                                    08         |            .   |        idx: 8 (valid) 0x45c-0x45c.7 (1)
     |                                               |                |      [3]{}: local_time_type 0x45d-0x462.7 (6)
0x450|                                       ff ff dc|             ...|        utoff: -9000 (valid) 0x45d-0x460.7 (4)
0x460|d8                                             |.               |
0x460|   01                                          | .              |        dst: 1 (valid) 0x461-0x461.7 (1)
0x460|      04                                       |  .             |        idx: 4 (valid) 0x462-0x462.7 (1)
     |                                               |                |      [4]{}: local_time_type 0x463-0x468.7 (6)
0x460|         ff ff ce c8                           |   ....         |        utoff: -12600 (valid) 0x463-0x466.7 (4)
0x460|                     00                        |       .        |        dst: 0 (valid) 0x467-0x467.7 (1)
0x460|                        08                     |        .       |        idx: 8 (valid) 0x468-0x468.7 (1)
     |                                               |                |      [5]{}: local_time_type 0x469-0x46e.7 (6)
0x460|                           ff ff dc d8         |         ....   |        utoff: -9000 (valid) 0x469-0x46c.7 (4)
0x460|                                       01      |             .  |        dst: 1 (valid) 0x46d-0x46d.7 (1)
0x460|                                          0c   |              . |        idx: 12 (valid) 0x46e-0x46e.7 (1)
     |                                               |                |      [6]{}: local_time_type 0x46f-0x474.7 (6)
0x460|                                             ff|               .|        utoff: -9000 (valid) 0x46f-0x472.7 (4)
0x470|ff dc d8                                       |...             |
0x470|         01                                    |   .            |        dst: 1 (valid) 0x473-0x473.7 (1)
0x470|            10                                 |    .           |        idx: 16 (valid) 0x474-0x474.7 (1)
     |                                               |                |      [7]{}: local_time_type 0x475-0x47a.7 (6)
0x470|               ff ff ea e8                     |     ....       |        utoff: -5400 (valid) 0x475-0x478.7 (4)
0x470|                           01                  |         .      |        dst: 1 (valid) 0x479-0x479.7 (1)
0x470|                              14               |          .     |        idx: 20 (valid) 0x47a-0x47a.7 (1)
     |                                               |                |      [8]{}: local_time_type 0x47b-0x480.7 (6)
0x470|                                 ff ff dc d8   |           .... |        utoff: -9000 (valid) 0x47b-0x47e.7 (4)
0x470|                                             01|               .|        dst: 1 (valid) 0x47f-0x47f.7 (1)
0x480|04                                             |.               |        idx: 4 (valid) 0x480-0x480.7 (1)
     |                                               |                |    time_zone_designations[0:6]: 0x481-0x499.7 (25)
0x480|   4c 4d 54 00                                 | LMT.           |      [0]: "LMT" time_zone_designation 0x481-0x484.7 (4)
0x480|               4e 44 54 00                     |     NDT.       |      [1]: "NDT" time_zone_designation 0x485-0x488.7 (4)
0x480|                           4e 53 54 00         |         NST.   |      [2]: "NST" time_zone_designation 0x489-0x48c.7 (4)
0x480|                                       4e 50 54|             NPT|      [3]: "NPT" time_zone_designation 0x48d-0x490.7 (4)
0x490|00                                             |.               |
0x490|   4e 57 54 00                                 | NWT.           |      [4]: "NWT" time_zone_designation 0x491-0x494.7 (4)
0x490|               4e 44 44 54 00                  |     NDDT.      |      [5]: "NDDT" time_zone_designation 0x495-0x499.7 (5)
     |                                               |                |    leap_second_records[0:27]: 0x49a-0x571.7 (216)
     |                                               |                |      [0]{}: leap_second_record 0x49a-0x4a1.7 (8)
0x490|                              04 b2 58 00      |          ..X.  |        occur: "1972-07-01T00:00:00Z" (78796800) 0x49a-0x49d.7 (4)
0x490|                                          00 00|              ..|        corr: 1 0x49e-0x4a1.7 (4)
0x4a0|00 01                                          |..              |
     |                                               |                |      [1]{}: leap_second_record 0x4a2-0x4a9.7 (8)
0x4a0|      05 a4 ec 01                              |  ....          |        occur: "1973-01-01T00:00:01Z" (94694401) 0x4a2-0x4a5.7 (4)
0x4a0|                  00 00 00 02                  |      ....      |        corr: 2 0x4a6-0x4a9.7 (4)
     |                                               |                |      [2]{}: leap_second_record 0x4aa-0x4b1.7 (8)
0x4a0|                              07 86 1f 82      |          ....  |        occur: "1974-01-01T00:00:02Z" (126230402) 0x4aa-0x4ad.7 (4)
0x4a0|                                          00 00|              ..|        corr: 3 0x4ae-0x4b1.7 (4)
0x4b0|00 03                                          |..              |
     |                                               |                |      [3]{}: leap_second_record 0x4b2-0x4b9.7 (8)
0x4b0|      09 67 53 03                              |  .gS.          |        occur: "1975-01-01T00:00:03Z" (157766403) 0x4b2-0x4b5.7 (4)
0x4b0|                  00 00 00 04                  |      ....      |        corr: 4 0x4b6-0x4b9.7 (4)
     |                                               |                |      [4]{}: leap_second_record 0x4ba-0x4c1.7 (8)
0x4b0|                              0b 48 86 84      |          .H..  |        occur: "1976-01-01T00:00:04Z" (189302404) 0x4ba-0x4bd.7 (4)
0x4b0|                                          00 00|              ..|        corr: 5 0x4be-0x4c1.7 (4)
0x4c0|00 05                                          |..              |
     |                                               |                |      [5]{}: leap_second_record 0x4c2-0x4c9.7 (8)
0x4c0|      0d 2b 0b 85                              |  .+..          |        occur: "1977-01-01T00:00:05Z" (220924805) 0x4c2-0x4c5.7 (4)
0x4c0|                  00 00 00 06                  |      ....      |        corr: 6 0x4c6-0x4c9.7 (4)
     |                                               |                |      [6]{}: leap_second_record 0x4ca-0x4d1.7 (8)
0x4c0|                              0f 0c 3f 06      |          ..?.  |        occur: "1978-01-01T00:00:06Z" (252460806) 0x4ca-0x4cd.7 (4)
0x4c0|                                          00 00|              ..|        corr: 7 0x4ce-0x4d1.7 (4)
0x4d0|00 07                                          |..              |
     |                                               |                |      [7]{}: leap_second_record 0x4d2-0x4d9.7 (8)
0x4d0|      10 ed 72 87                              |  ..r.          |        occur: "1979-01-01T00:00:07Z" (283996807) 0x4d2-0x4d5.7 (4)
0x4d0|                  00 00 00 08                  |      ....      |        corr: 8 0x4d6-0x4d9.7 (4)
     |                                               |                |      [8]{}: leap_second_record 0x4da-0x4e1.7 (8)
0x4d0|                              12 ce a6 08      |          ....  |        occur: "1980-01-01T00:00:08Z" (315532808) 0x4da-0x4dd.7 (4)
0x4d0|                                          00 00|              ..|        corr: 9 0x4de-0x4e1.7 (4)
0x4e0|00 09                                          |..              |
     |                                               |                |      [9]{}: leap_second_record 0x4e2-0x4e9.7 (8)
0x4e0|      15 9f ca 89                              |  ....          |        occur: "1981-07-01T00:00:09Z" (362793609) 0x4e2-0x4e5.7 (4)
0x4e0|                  00 00 00 0a                  |      ....      |        corr: 10 0x4e6-0x4e9.7 (4)
     |                                               |                |      [10]{}: leap_second_record 0x4ea-0x4f1.7 (8)
0x4e0|                              17 80 fe 0a      |          ....  |        occur: "1982-07-01T00:00:10Z" (394329610) 0x4ea-0x4ed.7 (4)
0x4e0|                                          00 00|              ..|        corr: 11 0x4ee-0x4f1.7 (4)
0x4f0|00 0b                                          |..              |
     |                                               |                |      [11]{}: leap_second_record 0x4f2-0x4f9.7 (8)
0x4f0|      19 62 31 8b                              |  .b1.          |        occur: "1983-07-01T00:00:11Z" (425865611) 0x4f2-0x4f5.7 (4)
0x4f0|                  00 00 00 0c                  |      ....      |        corr: 12 0x4f6-0x4f9.7 (4)
     |                                               |                |      [12]{}: leap_second_record 0x4fa-0x501.7 (8)
0x4f0|                              1d 25 ea 0c      |          .%..  |        occur: "1985-07-01T00:00:12Z" (489024012) 0x4fa-0x4fd.7 (4)
0x4f0|                                          00 00|              ..|        corr: 13 0x4fe-0x501.7 (4)
0x500|00 0d                                          |..              |
     |                                               |                |      [13]{}: leap_second_record 0x502-0x509.7 (8)
0x500|      21 da e5 0d                              |  !...          |        occur: "1988-01-01T00:00:13Z" (567993613) 0x502-0x505.7 (4)
0x500|                  00 00 00 0e                  |      ....      |        corr: 14 0x506-0x509.7 (4)
     |                                               |                |      [14]{}: leap_second_record 0x50a-0x511.7 (8)
0x500|                              25 9e 9d 8e      |          %...  |        occur: "1990-01-01T00:00:14Z" (631152014) 0x50a-0x50d.7 (4)
0x500|                                          00 00|              ..|        corr: 15 0x50e-0x511.7 (4)
0x510|00 0f                                          |..              |
     |                                               |                |      [15]{}: leap_second_record 0x512-0x519.7 (8)
0x510|      27 7f d1 0f                              |  '...          |        occur: "1991-01-01T00:00:15Z" (662688015) 0x512-0x515.7 (4)
0x510|                  00 00 00 10                  |      ....      |        corr: 16 0x516-0x519.7 (4)
     |                                               |                |      [16]{}: leap_second_record 0x51a-0x521.7 (8)
0x510|                              2a 50 f5 90      |          *P..  |        occur: "1992-07-01T00:00:16Z" (709948816) 0x51a-0x51d.7 (4)
0x510|                                          00 00|              ..|        corr: 17 0x51e-0x521.7 (4)
0x520|00 11                                          |..              |
     |                                               |                |      [17]{}: leap_second_record 0x522-0x529.7 (8)
0x520|      2c 32 29 11                              |  ,2).          |        occur: "1993-07-01T00:00:17Z" (741484817) 0x522-0x525.7 (4)
0x520|                  00 00 00 12                  |      ....      |        corr: 18 0x526-0x529.7 (4)
     |                                               |                |      [18]{}: leap_second_record 0x52a-0x531.7 (8)
0x520|                              2e 13 5c 92      |          ..\.  |        occur: "1994-07-01T00:00:18Z" (773020818) 0x52a-0x52d.7 (4)
0x520|                                          00 00|              ..|        corr: 19 0x52e-0x531.7 (4)
0x530|00 13                                          |..              |
     |                                               |                |      [19]{}: leap_second_record 0x532-0x539.7 (8)
0x530|      30 e7 24 13                              |  0.$.          |        occur: "1996-01-01T00:00:19Z" (820454419) 0x532-0x535.7 (4)
0x530|                  00 00 00 14                  |      ....      |        corr: 20 0x536-0x539.7 (4)
     |                                               |                |      [20]{}: leap_second_record 0x53a-0x541.7 (8)
0x530|                              33 b8 48 94      |          3.H.  |        occur: "1997-07-01T00:00:20Z" (867715220) 0x53a-0x53d.7 (4)
0x530|                                          00 00|              ..|        corr: 21 0x53e-0x541.7 (4)
0x540|00 15                                          |..              |
     |                                               |                |      [21]{}: leap_second_record 0x542-0x549.7 (8)
0x540|      36 8c 10 15                              |  6...          |        occur: "1999-01-01T00:00:21Z" (915148821) 0x542-0x545.7 (4)
0x540|                  00 00 00 16                  |      ....      |        corr: 22 0x546-0x549.7 (4)
     |                                               |                |      [22]{}: leap_second_record 0x54a-0x551.7 (8)
0x540|                              43 b7 1b 96      |          C...  |        occur: "2006-01-01T00:00:22Z" (1136073622) 0x54a-0x54d.7 (4)
0x540|                                          00 00|              ..|        corr: 23 0x54e-0x551.7 (4)
0x550|00 17                                          |..              |
     |                                               |                |      [23]{}: leap_second_record 0x552-0x559.7 (8)
0x550|      49 5c 07 97                              |  I\..          |        occur: "2009-01-01T00:00:23Z" (1230768023) 0x552-0x555.7 (4)
0x550|                  00 00 00 18                  |      ....      |        corr: 24 0x556-0x559.7 (4)
     |                                               |                |      [24]{}: leap_second_record 0x55a-0x561.7 (8)
0x550|                              4f ef 93 18      |          O...  |        occur: "2012-07-01T00:00:24Z" (1341100824) 0x55a-0x55d.7 (4)
0x550|                                          00 00|              ..|        corr: 25 0x55e-0x561.7 (4)
0x560|00 19                                          |..              |
     |                                               |                |      [25]{}: leap_second_record 0x562-0x569.7 (8)
0x560|      55 93 2d 99                              |  U.-.          |        occur: "2015-07-01T00:00:25Z" (1435708825) 0x562-0x565.7 (4)
0x560|                  00 00 00 1a                  |      ....      |        corr: 26 0x566-0x569.7 (4)
     |                                               |                |      [26]{}: leap_second_record 0x56a-0x571.7 (8)
0x560|                              58 68 46 9a      |          XhF.  |        occur: "2017-01-01T00:00:26Z" (1483228826) 0x56a-0x56d.7 (4)
0x560|                                          00 00|              ..|        corr: 27 0x56e-0x571.7 (4)
0x570|00 1b                                          |..              |
     |                                               |                |    standard_wall_indicators[0:9]: 0x572-0x57a.7 (9)
0x570|      00                                       |  .             |      [0]: 0 standard_wall_indicator (valid) 0x572-0x572.7 (1)
0x570|         00                                    |   .            |      [1]: 0 standard_wall_indicator (valid) 0x573-0x573.7 (1)
0x570|            00                                 |    .           |      [2]: 0 standard_wall_indicator (valid) 0x574-0x574.7 (1)
0x570|               00                              |     .          |      [3]: 0 standard_wall_indicator (valid) 0x575-0x575.7 (1)
0x570|                  00                           |      .         |      [4]: 0 standard_wall_indicator (valid) 0x576-0x576.7 (1)
0x570|                     01                        |       .        |      [5]: 1 standard_wall_indicator (valid) 0x577-0x577.7 (1)
0x570|                        00                     |        .       |      [6]: 0 standard_wall_indicator (valid) 0x578-0x578.7 (1)
0x570|                           00                  |         .      |      [7]: 0 standard_wall_indicator (valid) 0x579-0x579.7 (1)
0x570|                              00               |          .     |      [8]: 0 standard_wall_indicator (valid) 0x57a-0x57a.7 (1)
     |                                               |                |    ut_local_indicators[0:9]: 0x57b-0x583.7 (9)
0x570|                                 00            |           .    |      [0]: 0 ut_local_indicator (valid) 0x57b-0x57b.7 (1)
0x570|                                    00         |            .   |      [1]: 0 ut_local_indicator (valid) 0x57c-0x57c.7 (1)
0x570|                                       00      |             .  |      [2]: 0 ut_local_indicator (valid) 0x57d-0x57d.7 (1)
0x570|                                          00   |              . |      [3]: 0 ut_local_indicator (valid) 0x57e-0x57e.7 (1)
0x570|                                             00|               .|      [4]: 0 ut_local_indicator (valid) 0x57f-0x57f.7 (1)
0x580|01                                             |.               |      [5]: 1 ut_local_indicator (valid) 0x580-0x580.7 (1)
0x580|   00                                          | .              |      [6]: 0 ut_local_indicator (valid) 0x581-0x581.7 (1)
0x580|      00                                       |  .             |      [7]: 0 ut_local_indicator (valid) 0x582-0x582.7 (1)
0x580|         00                                    |   .            |      [8]: 0 ut_local_indicator (valid) 0x583-0x583.7 (1)
     |                                               |                |  v2plusheader{}: 0x584-0x5af.7 (44)
0x580|            54 5a 69 66                        |    TZif        |    magic: 0x545a6966 (valid) 0x584-0x587.7 (4)
0x580|                        32                     |        2       |    ver: "2" (0x32) (valid) 0x588-0x588.7 (1)
0x580|                           00 00 00 00 00 00 00|         .......|    reserved: raw bits 0x589-0x597.7 (15)
0x590|00 00 00 00 00 00 00 00                        |........        |
0x590|                        00 00 00 09            |        ....    |    isutcnt: 9 0x598-0x59b.7 (4)
0x590|                                    00 00 00 09|            ....|    isstdcnt: 9 0x59c-0x59f.7 (4)
0x5a0|00 00 00 1b                                    |....            |    leapcnt: 27 0x5a0-0x5a3.7 (4)
0x5a0|            00 00 00 d3                        |    ....        |    timecnt: 211 0x5a4-0x5a7.7 (4)
0x5a0|                        00 00 00 09            |        ....    |    typecnt: 9 0x5a8-0x5ab.7 (4)
0x5a0|                                    00 00 00 19|            ....|    charcnt: 25 0x5ac-0x5af.7 (4)
     |                                               |                |  v2plusdatablock{}: 0x5b0-0xebf.7 (2320)
     |                                               |                |    transition_times[0:211]: 0x5b0-0xc47.7 (1688)
0x5b0|ff ff ff ff 5e 3d 34 ec                        |....^=4.        |      [0]: "1884-01-01T03:30:52Z" (-2713897748) transition_time 0x5b0-0x5b7.7 (8)
0x5b0|                        ff ff ff ff 9c cf 62 0c|        ......b.|      [1]: "1917-04-08T05:30:52Z" (-1664130548) transition_time 0x5b8-0x5bf.7 (8)
0x5c0|ff ff ff ff 9d a4 e6 fc                        |........        |      [2]: "1917-09-17T04:30:52Z" (-1650137348) transition_time 0x5c0-0x5c7.7 (8)
0x5c0|                        ff ff ff ff 9e b8 7e 8c|        ......~.|      [3]: "1918-04-14T05:30:52Z" (-1632076148) transition_time 0x5c8-0x5cf.7 (8)
0x5d0|ff ff ff ff 9f ba d6 7c                        |.......|        |      [4]: "1918-10-27T04:30:52Z" (-1615145348) transition_time 0x5d0-0x5d7.7 (8)
0x5d0|                        ff ff ff ff a0 b6 88 dc|        ........|      [5]: "1919-05-06T02:30:52Z" (-1598650148) transition_time 0x5d8-0x5df.7 (8)
0x5e0|ff ff ff ff a1 38 ff 4c                        |.....8.L        |      [6]: "1919-08-13T01:30:52Z" (-1590100148) transition_time 0x5e0-0x5e7.7 (8)
0x5e0|                        ff ff ff ff a2 95 19 5c|        .......\|      [7]: "1920-05-03T02:30:52Z" (-1567286948) transition_time 0x5e8-0x5ef.7 (8)
0x5f0|ff ff ff ff a3 84 fc 4c                        |.......L        |      [8]: "1920-11-01T01:30:52Z" (-1551565748) transition_time 0x5f0-0x5f7.7 (8)
0x5f0|                        ff ff ff ff a4 74 fb 5c|        .....t.\|      [9]: "1921-05-02T02:30:52Z" (-1535837348) transition_time 0x5f8-0x5ff.7 (8)
0x600|ff ff ff ff a5 64 de 4c                        |.....d.L        |      [10]: "1921-10-31T01:30:52Z" (-1520116148) transition_time 0x600-0x607.7 (8)
0x600|                        ff ff ff ff a6 5e 17 dc|        .....^..|      [11]: "1922-05-08T02:30:52Z" (-1503782948) transition_time 0x608-0x60f.7 (8)
0x610|ff ff ff ff a7 44 c0 4c                        |.....D.L        |      [12]: "1922-10-30T01:30:52Z" (-1488666548) transition_time 0x610-0x617.7 (8)
0x610|                        ff ff ff ff a8 3d f9 dc|        .....=..|      [13]: "1923-05-07T02:30:52Z" (-1472333348) transition_time 0x618-0x61f.7 (8)
0x620|ff ff ff ff a9 24 a2 4c                        |.....$.L        |      [14]: "1923-10-29T01:30:52Z" (-1457216948) transition_time 0x620-0x627.7 (8)
0x620|                        ff ff ff ff aa 1d db dc|        ........|      [15]: "1924-05-05T02:30:52Z" (-1440883748) transition_time 0x628-0x62f.7 (8)
0x630|ff ff ff ff ab 04 84 4c                        |.......L        |      [16]: "1924-10-27T01:30:52Z" (-1425767348) transition_time 0x630-0x637.7 (8)
0x630|                        ff ff ff ff ab fd bd dc|        ........|      [17]: "1925-05-04T02:30:52Z" (-1409434148) transition_time 0x638-0x63f.7 (8)
0x640|ff ff ff ff ac e4 66 4c                        |......fL        |      [18]: "1925-10-26T01:30:52Z" (-1394317748) transition_time 0x640-0x647.7 (8)
0x640|                        ff ff ff ff ad dd 9f dc|        ........|      [19]: "1926-05-03T02:30:52Z" (-1377984548) transition_time 0x648-0x64f.7 (8)
0x650|ff ff ff ff ae cd 82 cc                        |........        |      [20]: "1926-11-01T01:30:52Z" (-1362263348) transition_time 0x650-0x657.7 (8)
0x650|                        ff ff ff ff af bd 81 dc|        ........|      [21]: "1927-05-02T02:30:52Z" (-1346534948) transition_time 0x658-0x65f.7 (8)
0x660|ff ff ff ff b0 ad 64 cc                        |......d.        |      [22]: "1927-10-31T01:30:52Z" (-1330813748) transition_time 0x660-0x667.7 (8)
0x660|                        ff ff ff ff b1 a6 9e 5c|        .......\|      [23]: "1928-05-07T02:30:52Z" (-1314480548) transition_time 0x668-0x66f.7 (8)
0x670|ff ff ff ff b2 8d 46 cc                        |......F.        |      [24]: "1928-10-29T01:30:52Z" (-1299364148) transition_time 0x670-0x677.7 (8)
0x670|                        ff ff ff ff b3 86 80 5c|        .......\|      [25]: "1929-05-06T02:30:52Z" (-1283030948) transition_time 0x678-0x67f.7 (8)
0x680|ff ff ff ff b4 6d 28 cc                        |.....m(.        |      [26]: "1929-10-28T01:30:52Z" (-1267914548) transition_time 0x680-0x687.7 (8)
0x680|                        ff ff ff ff b5 66 62 5c|        .....fb\|      [27]: "1930-05-05T02:30:52Z" (-1251581348) transition_time 0x688-0x68f.7 (8)
0x690|ff ff ff ff b6 4d 0a cc                        |.....M..        |      [28]: "1930-10-27T01:30:52Z" (-1236464948) transition_time 0x690-0x697.7 (8)
0x690|                        ff ff ff ff b7 46 44 5c|        .....FD\|      [29]: "1931-05-04T02:30:52Z" (-1220131748) transition_time 0x698-0x69f.7 (8)
0x6a0|ff ff ff ff b8 2c ec cc                        |.....,..        |      [30]: "1931-10-26T01:30:52Z" (-1205015348) transition_time 0x6a0-0x6a7.7 (8)
0x6a0|                        ff ff ff ff b9 26 26 5c|        .....&&\|      [31]: "1932-05-02T02:30:52Z" (-1188682148) transition_time 0x6a8-0x6af.7 (8)
0x6b0|ff ff ff ff ba 16 09 4c                        |.......L        |      [32]: "1932-10-31T01:30:52Z" (-1172960948) transition_time 0x6b0-0x6b7.7 (8)
0x6b0|                        ff ff ff ff bb 0f 42 dc|        ......B.|      [33]: "1933-05-08T02:30:52Z" (-1156627748) transition_time 0x6b8-0x6bf.7 (8)
0x6c0|ff ff ff ff bb f5 eb 4c                        |.......L        |      [34]: "1933-10-30T01:30:52Z" (-1141511348) transition_time 0x6c0-0x6c7.7 (8)
0x6c0|                        ff ff ff ff bc ef 24 dc|        ......$.|      [35]: "1934-05-07T02:30:52Z" (-1125178148) transition_time 0x6c8-0x6cf.7 (8)
0x6d0|ff ff ff ff bd d5 cd 4c                        |.......L        |      [36]: "1934-10-29T01:30:52Z" (-1110061748) transition_time 0x6d0-0x6d7.7 (8)
0x6d0|                        ff ff ff ff be 9e 4d 6c|        ......Ml|      [37]: "1935-03-30T03:30:52Z" (-1096921748) transition_time 0x6d8-0x6df.7 (8)
0x6e0|ff ff ff ff be cf 06 a8                        |........        |      [38]: "1935-05-06T02:30:00Z" (-1093728600) transition_time 0x6e0-0x6e7.7 (8)
0x6e0|                        ff ff ff ff bf b5 af 18|        ........|      [39]: "1935-10-28T01:30:00Z" (-1078612200) transition_time 0x6e8-0x6ef.7 (8)
0x6f0|ff ff ff ff c0 b8 31 38                        |......18        |      [40]: "1936-05-11T03:30:00Z" (-1061670600) transition_time 0x6f0-0x6f7.7 (8)
0x6f0|                        ff ff ff ff c1 79 ef a8|        .....y..|      [41]: "1936-10-05T02:30:00Z" (-1048973400) transition_time 0x6f8-0x6ff.7 (8)
0x700|ff ff ff ff c2 98 13 38                        |.......8        |      [42]: "1937-05-10T03:30:00Z" (-1030221000) transition_time 0x700-0x707.7 (8)
0x700|                        ff ff ff ff c3 59 d1 a8|        .....Y..|      [43]: "1937-10-04T02:30:00Z" (-1017523800) transition_time 0x708-0x70f.7 (8)
0x710|ff ff ff ff c4 77 f5 38                        |.....w.8        |      [44]: "1938-05-09T03:30:00Z" (-998771400) transition_time 0x710-0x717.7 (8)
0x710|                        ff ff ff ff c5 39 b3 a8|        .....9..|      [45]: "1938-10-03T02:30:00Z" (-986074200) transition_time 0x718-0x71f.7 (8)
0x720|ff ff ff ff c6 61 11 b8                        |.....a..        |      [46]: "1939-05-15T03:30:00Z" (-966717000) transition_time 0x720-0x727.7 (8)
0x720|                        ff ff ff ff c7 19 95 a8|        ........|      [47]: "1939-10-02T02:30:00Z" (-954624600) transition_time 0x728-0x72f.7 (8)
0x730|ff ff ff ff c8 40 f3 b8                        |.....@..        |      [48]: "1940-05-13T03:30:00Z" (-935267400) transition_time 0x730-0x737.7 (8)
0x730|                        ff ff ff ff c9 02 b2 28|        .......(|      [49]: "1940-10-07T02:30:00Z" (-922570200) transition_time 0x738-0x73f.7 (8)
0x740|ff ff ff ff ca 20 d5 b8                        |..... ..        |      [50]: "1941-05-12T03:30:00Z" (-903817800) transition_time 0x740-0x747.7 (8)
0x740|                        ff ff ff ff ca e2 94 28|        .......(|      [51]: "1941-10-06T02:30:00Z" (-891120600) transition_time 0x748-0x74f.7 (8)
0x750|ff ff ff ff cc 00 b7 b8                        |........        |      [52]: "1942-05-11T03:30:00Z" (-872368200) transition_time 0x750-0x757.7 (8)
0x750|                        ff ff ff ff d2 23 f4 70|        .....#.p|      [53]: "1945-08-14T23:00:00Z" (-769395600) transition_time 0x758-0x75f.7 (8)
0x760|ff ff ff ff d2 60 e6 c8                        |.....`..        |      [54]: "1945-09-30T04:30:00Z" (-765401400) transition_time 0x760-0x767.7 (8)
0x760|                        ff ff ff ff d3 88 44 d8|        ......D.|      [55]: "1946-05-12T05:30:00Z" (-746044200) transition_time 0x768-0x76f.7 (8)
0x770|ff ff ff ff d4 4a 03 48                        |.....J.H        |      [56]: "1946-10-06T04:30:00Z" (-733347000) transition_time 0x770-0x777.7 (8)
0x770|                        ff ff ff ff d5 68 26 d8|        .....h&.|      [57]: "1947-05-11T05:30:00Z" (-714594600) transition_time 0x778-0x77f.7 (8)
0x780|ff ff ff ff d6 29 e5 48                        |.....).H        |      [58]: "1947-10-05T04:30:00Z" (-701897400) transition_time 0x780-0x787.7 (8)
0x780|                        ff ff ff ff d7 48 08 d8|        .....H..|      [59]: "1948-05-09T05:30:00Z" (-683145000) transition_time 0x788-0x78f.7 (8)
0x790|ff ff ff ff d8 09 c7 48                        |.......H        |      [60]: "1948-10-03T04:30:00Z" (-670447800) transition_time 0x790-0x797.7 (8)
0x790|                        ff ff ff ff d9 27 ea d8|        .....'..|      [61]: "1949-05-08T05:30:00Z" (-651695400) transition_time 0x798-0x79f.7 (8)
0x7a0|ff ff ff ff d9 e9 a9 48                        |.......H        |      [62]: "1949-10-02T04:30:00Z" (-638998200) transition_time 0x7a0-0x7a7.7 (8)
0x7a0|                        ff ff ff ff db 11 07 58|        .......X|      [63]: "1950-05-14T05:30:00Z" (-619641000) transition_time 0x7a8-0x7af.7 (8)
0x7b0|ff ff ff ff db d2 c5 c8                        |........        |      [64]: "1950-10-08T04:30:00Z" (-606943800) transition_time 0x7b0-0x7b7.7 (8)
0x7b0|                        ff ff ff ff dc de 74 58|        ......tX|      [65]: "1951-04-29T05:30:00Z" (-589401000) transition_time 0x7b8-0x7bf.7 (8)
0x7c0|ff ff ff ff dd a9 6d 48                        |......mH        |      [66]: "1951-09-30T04:30:00Z" (-576099000) transition_time 0x7c0-0x7c7.7 (8)
0x7c0|                        ff ff ff ff de be 56 58|        ......VX|      [67]: "1952-04-27T05:30:00Z" (-557951400) transition_time 0x7c8-0x7cf.7 (8)
0x7d0|ff ff ff ff df 89 4f 48                        |......OH        |      [68]: "1952-09-28T04:30:00Z" (-544649400) transition_time 0x7d0-0x7d7.7 (8)
0x7d0|                        ff ff ff ff e0 9e 38 58|        ......8X|      [69]: "1953-04-26T05:30:00Z" (-526501800) transition_time 0x7d8-0x7df.7 (8)
0x7e0|ff ff ff ff e1 69 31 48                        |.....i1H        |      [70]: "1953-09-27T04:30:00Z" (-513199800) transition_time 0x7e0-0x7e7.7 (8)
0x7e0|                        ff ff ff ff e2 7e 1a 58|        .....~.X|      [71]: "1954-04-25T05:30:00Z" (-495052200) transition_time 0x7e8-0x7ef.7 (8)
0x7f0|ff ff ff ff e3 49 13 48                        |.....I.H        |      [72]: "1954-09-26T04:30:00Z" (-481750200) transition_time 0x7f0-0x7f7.7 (8)
0x7f0|                        ff ff ff ff e4 5d fc 58|        .....].X|      [73]: "1955-04-24T05:30:00Z" (-463602600) transition_time 0x7f8-0x7ff.7 (8)
0x800|ff ff ff ff e5 28 f5 48                        |.....(.H        |      [74]: "1955-09-25T04:30:00Z" (-450300600) transition_time 0x800-0x807.7 (8)
0x800|                        ff ff ff ff e6 47 18 d8|        .....G..|      [75]: "1956-04-29T05:30:00Z" (-431548200) transition_time 0x808-0x80f.7 (8)
0x810|ff ff ff ff e7 12 11 c8                        |........        |      [76]: "1956-09-30T04:30:00Z" (-418246200) transition_time 0x810-0x817.7 (8)
0x810|                        ff ff ff ff e8 26 fa d8|        .....&..|      [77]: "1957-04-28T05:30:00Z" (-400098600) transition_time 0x818-0x81f.7 (8)
0x820|ff ff ff ff e8 f1 f3 c8                        |........        |      [78]: "1957-09-29T04:30:00Z" (-386796600) transition_time 0x820-0x827.7 (8)
0x820|                        ff ff ff ff ea 06 dc d8|        ........|      [79]: "1958-04-27T05:30:00Z" (-368649000) transition_time 0x828-0x82f.7 (8)
0x830|ff ff ff ff ea d1 d5 c8                        |........        |      [80]: "1958-09-28T04:30:00Z" (-355347000) transition_time 0x830-0x837.7 (8)
0x830|                        ff ff ff ff eb e6 be d8|        ........|      [81]: "1959-04-26T05:30:00Z" (-337199400) transition_time 0x838-0x83f.7 (8)
0x840|ff ff ff ff ec b1 b7 c8                        |........        |      [82]: "1959-09-27T04:30:00Z" (-323897400) transition_time 0x840-0x847.7 (8)
0x840|                        ff ff ff ff ed c6 a0 d8|        ........|      [83]: "1960-04-24T05:30:00Z" (-305749800) transition_time 0x848-0x84f.7 (8)
0x850|ff ff ff ff ee bf be 48                        |.......H        |      [84]: "1960-10-30T04:30:00Z" (-289423800) transition_time 0x850-0x857.7 (8)
0x850|                        ff ff ff ff ef af bd 58|        .......X|      [85]: "1961-04-30T05:30:00Z" (-273695400) transition_time 0x858-0x85f.7 (8)
0x860|ff ff ff ff f0 9f a0 48                        |.......H        |      [86]: "1961-10-29T04:30:00Z" (-257974200) transition_time 0x860-0x867.7 (8)
0x860|                        ff ff ff ff f1 8f 9f 58|        .......X|      [87]: "1962-04-29T05:30:00Z" (-242245800) transition_time 0x868-0x86f.7 (8)
0x870|ff ff ff ff f2 7f 82 48                        |.......H        |      [88]: "1962-10-28T04:30:00Z" (-226524600) transition_time 0x870-0x877.7 (8)
0x870|                        ff ff ff ff f3 6f 81 58|        .....o.X|      [89]: "1963-04-28T05:30:00Z" (-210796200) transition_time 0x878-0x87f.7 (8)
0x880|ff ff ff ff f4 5f 64 48                        |....._dH        |      [90]: "1963-10-27T04:30:00Z" (-195075000) transition_time 0x880-0x887.7 (8)
0x880|                        ff ff ff ff f5 4f 63 58|        .....OcX|      [91]: "1964-04-26T05:30:00Z" (-179346600) transition_time 0x888-0x88f.7 (8)
0x890|ff ff ff ff f6 3f 46 48                        |.....?FH        |      [92]: "1964-10-25T04:30:00Z" (-163625400) transition_time 0x890-0x897.7 (8)
0x890|                        ff ff ff ff f7 2f 45 58|        ...../EX|      [93]: "1965-04-25T05:30:00Z" (-147897000) transition_time 0x898-0x89f.7 (8)
0x8a0|ff ff ff ff f8 28 62 c8                        |.....(b.        |      [94]: "1965-10-31T04:30:00Z" (-131571000) transition_time 0x8a0-0x8a7.7 (8)
0x8a0|                        ff ff ff ff f9 0f 27 58|        ......'X|      [95]: "1966-04-24T05:30:00Z" (-116447400) transition_time 0x8a8-0x8af.7 (8)
0x8b0|ff ff ff ff fa 08 44 c8                        |......D.        |      [96]: "1966-10-30T04:30:00Z" (-100121400) transition_time 0x8b0-0x8b7.7 (8)
0x8b0|                        ff ff ff ff fa f8 43 d8|        ......C.|      [97]: "1967-04-30T05:30:00Z" (-84393000) transition_time 0x8b8-0x8bf.7 (8)
0x8c0|ff ff ff ff fb e8 26 c8                        |......&.        |      [98]: "1967-10-29T04:30:00Z" (-68671800) transition_time 0x8c0-0x8c7.7 (8)
0x8c0|                        ff ff ff ff fc d8 25 d8|        ......%.|      [99]: "1968-04-28T05:30:00Z" (-52943400) transition_time 0x8c8-0x8cf.7 (8)
0x8d0|ff ff ff ff fd c8 08 c8                        |........        |      [100]: "1968-10-27T04:30:00Z" (-37222200) transition_time 0x8d0-0x8d7.7 (8)
0x8d0|                        ff ff ff ff fe b8 07 d8|        ........|      [101]: "1969-04-27T05:30:00Z" (-21493800) transition_time 0x8d8-0x8df.7 (8)
0x8e0|ff ff ff ff ff a7 ea c8                        |........        |      [102]: "1969-10-26T04:30:00Z" (-5772600) transition_time 0x8e0-0x8e7.7 (8)
0x8e0|                        00 00 00 00 00 97 e9 d8|        ........|      [103]: "1970-04-26T05:30:00Z" (9955800) transition_time 0x8e8-0x8ef.7 (8)
0x8f0|00 00 00 00 01 87 cc c8                        |........        |      [104]: "1970-10-25T04:30:00Z" (25677000) transition_time 0x8f0-0x8f7.7 (8)
0x8f0|                        00 00 00 00 02 77 cb d8|        .....w..|      [105]: "1971-04-25T05:30:00Z" (41405400) transition_time 0x8f8-0x8ff.7 (8)
0x900|00 00 00 00 03 70 e9 48                        |.....p.H        |      [106]: "1971-10-31T04:30:00Z" (57731400) transition_time 0x900-0x907.7 (8)
0x900|                        00 00 00 00 04 60 e8 58|        .....`.X|      [107]: "1972-04-30T05:30:00Z" (73459800) transition_time 0x908-0x90f.7 (8)
0x910|00 00 00 00 05 50 cb 49                        |.....P.I        |      [108]: "1972-10-29T04:30:01Z" (89181001) transition_time 0x910-0x917.7 (8)
0x910|                        00 00 00 00 06 40 ca 5a|        .....@.Z|      [109]: "1973-04-29T05:30:02Z" (104909402) transition_time 0x918-0x91f.7 (8)
0x920|00 00 00 00 07 30 ad 4a                        |.....0.J        |      [110]: "1973-10-28T04:30:02Z" (120630602) transition_time 0x920-0x927.7 (8)
0x920|                        00 00 00 00 08 20 ac 5b|        ..... .[|      [111]: "1974-04-28T05:30:03Z" (136359003) transition_time 0x928-0x92f.7 (8)
0x930|00 00 00 00 09 10 8f 4b                        |.......K        |      [112]: "1974-10-27T04:30:03Z" (152080203) transition_time 0x930-0x937.7 (8)
0x930|                        00 00 00 00 0a 00 8e 5c|        .......\|      [113]: "1975-04-27T05:30:04Z" (167808604) transition_time 0x938-0x93f.7 (8)
0x940|00 00 00 00 0a f0 71 4c                        |......qL        |      [114]: "1975-10-26T04:30:04Z" (183529804) transition_time 0x940-0x947.7 (8)
0x940|                        00 00 00 00 0b e0 70 5d|        ......p]|      [115]: "1976-04-25T05:30:05Z" (199258205) transition_time 0x948-0x94f.7 (8)
0x950|00 00 00 00 0c d9 8d cd                        |........        |      [116]: "1976-10-31T04:30:05Z" (215584205) transition_time 0x950-0x957.7 (8)
0x950|                        00 00 00 00 0d c0 52 5e|        ......R^|      [117]: "1977-04-24T05:30:06Z" (230707806) transition_time 0x958-0x95f.7 (8)
0x960|00 00 00 00 0e b9 6f ce                        |......o.        |      [118]: "1977-10-30T04:30:06Z" (247033806) transition_time 0x960-0x967.7 (8)
0x960|                        00 00 00 00 0f a9 6e df|        ......n.|      [119]: "1978-04-30T05:30:07Z" (262762207) transition_time 0x968-0x96f.7 (8)
0x970|00 00 00 00 10 99 51 cf                        |......Q.        |      [120]: "1978-10-29T04:30:07Z" (278483407) transition_time 0x970-0x977.7 (8)
0x970|                        00 00 00 00 11 89 50 e0|        ......P.|      [121]: "1979-04-29T05:30:08Z" (294211808) transition_time 0x978-0x97f.7 (8)
0x980|00 00 00 00 12 79 33 d0                        |.....y3.        |      [122]: "1979-10-28T04:30:08Z" (309933008) transition_time 0x980-0x987.7 (8)
0x980|                        00 00 00 00 13 69 32 e1|        .....i2.|      [123]: "1980-04-27T05:30:09Z" (325661409) transition_time 0x988-0x98f.7 (8)
0x990|00 00 00 00 14 59 15 d1                        |.....Y..        |      [124]: "1980-10-26T04:30:09Z" (341382609) transition_time 0x990-0x997.7 (8)
0x990|                        00 00 00 00 15 49 14 e1|        .....I..|      [125]: "1981-04-26T05:30:09Z" (357111009) transition_time 0x998-0x99f.7 (8)
0x9a0|00 00 00 00 16 38 f7 d2                        |.....8..        |      [126]: "1981-10-25T04:30:10Z" (372832210) transition_time 0x9a0-0x9a7.7 (8)
0x9a0|                        00 00 00 00 17 28 f6 e2|        .....(..|      [127]: "1982-04-25T05:30:10Z" (388560610) transition_time 0x9a8-0x9af.7 (8)
0x9b0|00 00 00 00 18 22 14 53                        |.....".S        |      [128]: "1982-10-31T04:30:11Z" (404886611) transition_time 0x9b0-0x9b7.7 (8)
0x9b0|                        00 00 00 00 19 08 d8 e3|        ........|      [129]: "1983-04-24T05:30:11Z" (420010211) transition_time 0x9b8-0x9bf.7 (8)
0x9c0|00 00 00 00 1a 01 f6 54                        |.......T        |      [130]: "1983-10-30T04:30:12Z" (436336212) transition_time 0x9c0-0x9c7.7 (8)
0x9c0|                        00 00 00 00 1a f1 f5 64|        .......d|      [131]: "1984-04-29T05:30:12Z" (452064612) transition_time 0x9c8-0x9cf.7 (8)
0x9d0|00 00 00 00 1b e1 d8 54                        |.......T        |      [132]: "1984-10-28T04:30:12Z" (467785812) transition_time 0x9d0-0x9d7.7 (8)
0x9d0|                        00 00 00 00 1c d1 d7 64|        .......d|      [133]: "1985-04-28T05:30:12Z" (483514212) transition_time 0x9d8-0x9df.7 (8)
0x9e0|00 00 00 00 1d c1 ba 55                        |.......U        |      [134]: "1985-10-27T04:30:13Z" (499235413) transition_time 0x9e0-0x9e7.7 (8)
0x9e0|                        00 00 00 00 1e b1 b9 65|        .......e|      [135]: "1986-04-27T05:30:13Z" (514963813) transition_time 0x9e8-0x9ef.7 (8)
0x9f0|00 00 00 00 1f a1 9c 55                        |.......U        |      [136]: "1986-10-26T04:30:13Z" (530685013) transition_time 0x9f0-0x9f7.7 (8)
0x9f0|                        00 00 00 00 20 75 d0 01|        .... u..|      [137]: "1987-04-05T03:31:13Z" (544591873) transition_time 0x9f8-0x9ff.7 (8)
0xa00|00 00 00 00 21 81 62 71                        |....!.bq        |      [138]: "1987-10-25T02:31:13Z" (562127473) transition_time 0xa00-0xa07.7 (8)
0xa00|                        00 00 00 00 22 55 b2 02|        ...."U..|      [139]: "1988-04-03T03:31:14Z" (576041474) transition_time 0xa08-0xa0f.7 (8)
0xa10|00 00 00 00 23 6a 70 e2                        |....#jp.        |      [140]: "1988-10-30T01:31:14Z" (594178274) transition_time 0xa10-0xa17.7 (8)
0xa10|                        00 00 00 00 24 35 94 02|        ....$5..|      [141]: "1989-04-02T03:31:14Z" (607491074) transition_time 0xa18-0xa1f.7 (8)
0xa20|00 00 00 00 25 4a 60 f2                        |....%J`.        |      [142]: "1989-10-29T02:31:14Z" (625631474) transition_time 0xa20-0xa27.7 (8)
0xa20|                        00 00 00 00 26 15 76 03|        ....&.v.|      [143]: "1990-04-01T03:31:15Z" (638940675) transition_time 0xa28-0xa2f.7 (8)
0xa30|00 00 00 00 27 2a 42 f3                        |....'*B.        |      [144]: "1990-10-28T02:31:15Z" (657081075) transition_time 0xa30-0xa37.7 (8)
0xa30|                        00 00 00 00 27 fe 92 84|        ....'...|      [145]: "1991-04-07T03:31:16Z" (670995076) transition_time 0xa38-0xa3f.7 (8)
0xa40|00 00 00 00 29 0a 24 f4                        |....).$.        |      [146]: "1991-10-27T02:31:16Z" (688530676) transition_time 0xa40-0xa47.7 (8)
0xa40|                        00 00 00 00 29 de 74 84|        ....).t.|      [147]: "1992-04-05T03:31:16Z" (702444676) transition_time 0xa48-0xa4f.7 (8)
0xa50|00 00 00 00 2a ea 06 f5                        |....*...        |      [148]: "1992-10-25T02:31:17Z" (719980277) transition_time 0xa50-0xa57.7 (8)
0xa50|                        00 00 00 00 2b be 56 85|        ....+.V.|      [149]: "1993-04-04T03:31:17Z" (733894277) transition_time 0xa58-0xa5f.7 (8)
0xa60|00 00 00 00 2c d3 23 76                        |....,.#v        |      [150]: "1993-10-31T02:31:18Z" (752034678) transition_time 0xa60-0xa67.7 (8)
0xa60|                        00 00 00 00 2d 9e 38 86|        ....-.8.|      [151]: "1994-04-03T03:31:18Z" (765343878) transition_time 0xa68-0xa6f.7 (8)
0xa70|00 00 00 00 2e b3 05 77                        |.......w        |      [152]: "1994-10-30T02:31:19Z" (783484279) transition_time 0xa70-0xa77.7 (8)
0xa70|                        00 00 00 00 2f 7e 1a 87|        ..../~..|      [153]: "1995-04-02T03:31:19Z" (796793479) transition_time 0xa78-0xa7f.7 (8)
0xa80|00 00 00 00 30 92 e7 77                        |....0..w        |      [154]: "1995-10-29T02:31:19Z" (814933879) transition_time 0xa80-0xa87.7 (8)
0xa80|                        00 00 00 00 31 67 37 08|        ....1g7.|      [155]: "1996-04-07T03:31:20Z" (828847880) transition_time 0xa88-0xa8f.7 (8)
0xa90|00 00 00 00 32 72 c9 78                        |....2r.x        |      [156]: "1996-10-27T02:31:20Z" (846383480) transition_time 0xa90-0xa97.7 (8)
0xa90|                        00 00 00 00 33 47 19 08|        ....3G..|      [157]: "1997-04-06T03:31:20Z" (860297480) transition_time 0xa98-0xa9f.7 (8)
0xaa0|00 00 00 00 34 52 ab 79                        |....4R.y        |      [158]: "1997-10-26T02:31:21Z" (877833081) transition_time 0xaa0-0xaa7.7 (8)
0xaa0|                        00 00 00 00 35 26 fb 09|        ....5&..|      [159]: "1998-04-05T03:31:21Z" (891747081) transition_time 0xaa8-0xaaf.7 (8)
0xab0|00 00 00 00 36 32 8d 79                        |....62.y        |      [160]: "1998-10-25T02:31:21Z" (909282681) transition_time 0xab0-0xab7.7 (8)
0xab0|                        00 00 00 00 37 06 dd 0a|        ....7...|      [161]: "1999-04-04T03:31:22Z" (923196682) transition_time 0xab8-0xabf.7 (8)
0xac0|00 00 00 00 38 1b a9 fa                        |....8...        |      [162]: "1999-10-31T02:31:22Z" (941337082) transition_time 0xac0-0xac7.7 (8)
0xac0|                        00 00 00 00 38 e6 bf 0a|        ....8...|      [163]: "2000-04-02T03:31:22Z" (954646282) transition_time 0xac8-0xacf.7 (8)
0xad0|00 00 00 00 39 fb 8b fa                        |....9...        |      [164]: "2000-10-29T02:31:22Z" (972786682) transition_time 0xad0-0xad7.7 (8)
0xad0|                        00 00 00 00 3a c6 a1 0a|        ....:...|      [165]: "2001-04-01T03:31:22Z" (986095882) transition_time 0xad8-0xadf.7 (8)
0xae0|00 00 00 00 3b db 6d fa                        |....;.m.        |      [166]: "2001-10-28T02:31:22Z" (1004236282) transition_time 0xae0-0xae7.7 (8)
0xae0|                        00 00 00 00 3c af bd 8a|        ....<...|      [167]: "2002-04-07T03:31:22Z" (1018150282) transition_time 0xae8-0xaef.7 (8)
0xaf0|00 00 00 00 3d bb 4f fa                        |....=.O.        |      [168]: "2002-10-27T02:31:22Z" (1035685882) transition_time 0xaf0-0xaf7.7 (8)
0xaf0|                        00 00 00 00 3e 8f 9f 8a|        ....>...|      [169]: "2003-04-06T03:31:22Z" (1049599882) transition_time 0xaf8-0xaff.7 (8)
0xb00|00 00 00 00 3f 9b 31 fa                        |....?.1.        |      [170]: "2003-10-26T02:31:22Z" (1067135482) transition_time 0xb00-0xb07.7 (8)
0xb00|                        00 00 00 00 40 6f 81 8a|        ....@o..|      [171]: "2004-04-04T03:31:22Z" (1081049482) transition_time 0xb08-0xb0f.7 (8)
0xb10|00 00 00 00 41 84 4e 7a                        |....A.Nz        |      [172]: "2004-10-31T02:31:22Z" (1099189882) transition_time 0xb10-0xb17.7 (8)
0xb10|                        00 00 00 00 42 4f 63 8a|        ....BOc.|      [173]: "2005-04-03T03:31:22Z" (1112499082) transition_time 0xb18-0xb1f.7 (8)
0xb20|00 00 00 00 43 64 30 7a                        |....Cd0z        |      [174]: "2005-10-30T02:31:22Z" (1130639482) transition_time 0xb20-0xb27.7 (8)
0xb20|                        00 00 00 00 44 2f 45 8b|        ....D/E.|      [175]: "2006-04-02T03:31:23Z" (1143948683) transition_time 0xb28-0xb2f.7 (8)
0xb30|00 00 00 00 45 44 12 7b                        |....ED.{        |      [176]: "2006-10-29T02:31:23Z" (1162089083) transition_time 0xb30-0xb37.7 (8)
0xb30|                        00 00 00 00 45 f3 78 0b|        ....E.x.|      [177]: "2007-03-11T03:31:23Z" (1173583883) transition_time 0xb38-0xb3f.7 (8)
0xb40|00 00 00 00 47 2d 2e fb                        |....G-..        |      [178]: "2007-11-04T02:31:23Z" (1194143483) transition_time 0xb40-0xb47.7 (8)
0xb40|                        00 00 00 00 47 d3 5a 0b|        ....G.Z.|      [179]: "2008-03-09T03:31:23Z" (1205033483) transition_time 0xb48-0xb4f.7 (8)
0xb50|00 00 00 00 49 0d 10 fb                        |....I...        |      [180]: "2008-11-02T02:31:23Z" (1225593083) transition_time 0xb50-0xb57.7 (8)
0xb50|                        00 00 00 00 49 b3 3c 0c|        ....I.<.|      [181]: "2009-03-08T03:31:24Z" (1236483084) transition_time 0xb58-0xb5f.7 (8)
0xb60|00 00 00 00 4a ec f2 fc                        |....J...        |      [182]: "2009-11-01T02:31:24Z" (1257042684) transition_time 0xb60-0xb67.7 (8)
0xb60|                        00 00 00 00 4b 9c 58 8c|        ....K.X.|      [183]: "2010-03-14T03:31:24Z" (1268537484) transition_time 0xb68-0xb6f.7 (8)
0xb70|00 00 00 00 4c d6 0f 7c                        |....L..|        |      [184]: "2010-11-07T02:31:24Z" (1289097084) transition_time 0xb70-0xb77.7 (8)
0xb70|                        00 00 00 00 4d 7c 3a 8c|        ....M|:.|      [185]: "2011-03-13T03:31:24Z" (1299987084) transition_time 0xb78-0xb7f.7 (8)
0xb80|00 00 00 00 4e b6 0d 60                        |....N..`        |      [186]: "2011-11-06T04:30:24Z" (1320553824) transition_time 0xb80-0xb87.7 (8)
0xb80|                        00 00 00 00 4f 5c 38 70|        ....O\8p|      [187]: "2012-03-11T05:30:24Z" (1331443824) transition_time 0xb88-0xb8f.7 (8)
0xb90|00 00 00 00 50 95 ef 61                        |....P..a        |      [188]: "2012-11-04T04:30:25Z" (1352003425) transition_time 0xb90-0xb97.7 (8)
0xb90|                        00 00 00 00 51 3c 1a 71|        ....Q<.q|      [189]: "2013-03-10T05:30:25Z" (1362893425) transition_time 0xb98-0xb9f.7 (8)
0xba0|00 00 00 00 52 75 d1 61                        |....Ru.a        |      [190]: "2013-11-03T04:30:25Z" (1383453025) transition_time 0xba0-0xba7.7 (8)
0xba0|                        00 00 00 00 53 1b fc 71|        ....S..q|      [191]: "2014-03-09T05:30:25Z" (1394343025) transition_time 0xba8-0xbaf.7 (8)
0xbb0|00 00 00 00 54 55 b3 61                        |....TU.a        |      [192]: "2014-11-02T04:30:25Z" (1414902625) transition_time 0xbb0-0xbb7.7 (8)
0xbb0|                        00 00 00 00 54 fb de 71|        ....T..q|      [193]: "2015-03-08T05:30:25Z" (1425792625) transition_time 0xbb8-0xbbf.7 (8)
0xbc0|00 00 00 00 56 35 95 62                        |....V5.b        |      [194]: "2015-11-01T04:30:26Z" (1446352226) transition_time 0xbc0-0xbc7.7 (8)
0xbc0|                        00 00 00 00 56 e4 fa f2|        ....V...|      [195]: "2016-03-13T05:30:26Z" (1457847026) transition_time 0xbc8-0xbcf.7 (8)
0xbd0|00 00 00 00 58 1e b1 e2                        |....X...        |      [196]: "2016-11-06T04:30:26Z" (1478406626) transition_time 0xbd0-0xbd7.7 (8)
0xbd0|                        00 00 00 00 58 c4 dc f3|        ....X...|      [197]: "2017-03-12T05:30:27Z" (1489296627) transition_time 0xbd8-0xbdf.7 (8)
0xbe0|00 00 00 00 59 fe 93 e3                        |....Y...        |      [198]: "2017-11-05T04:30:27Z" (1509856227) transition_time 0xbe0-0xbe7.7 (8)
0xbe0|                        00 00 00 00 5a a4 be f3|        ....Z...|      [199]: "2018-03-11T05:30:27Z" (1520746227) transition_time 0xbe8-0xbef.7 (8)
0xbf0|00 00 00 00 5b de 75 e3                        |....[.u.        |      [200]: "2018-11-04T04:30:27Z" (1541305827) transition_time 0xbf0-0xbf7.7 (8)
0xbf0|                        00 00 00 00 5c 84 a0 f3|        ....\...|      [201]: "2019-03-10T05:30:27Z" (1552195827) transition_time 0xbf8-0xbff.7 (8)
0xc00|00 00 00 00 5d be 57 e3                        |....].W.        |      [202]: "2019-11-03T04:30:27Z" (1572755427) transition_time 0xc00-0xc07.7 (8)
0xc00|                        00 00 00 00 5e 64 82 f3|        ....^d..|      [203]: "2020-03-08T05:30:27Z" (1583645427) transition_time 0xc08-0xc0f.7 (8)
0xc10|00 00 00 00 5f 9e 39 e3                        |...._.9.        |      [204]: "2020-11-01T04:30:27Z" (1604205027) transition_time 0xc10-0xc17.7 (8)
0xc10|                        00 00 00 00 60 4d 9f 73|        ....`M.s|      [205]: "2021-03-14T05:30:27Z" (1615699827) transition_time 0xc18-0xc1f.7 (8)
0xc20|00 00 00 00 61 87 56 63                        |....a.Vc        |      [206]: "2021-11-07T04:30:27Z" (1636259427) transition_time 0xc20-0xc27.7 (8)
0xc20|                        00 00 00 00 62 2d 81 73|        ....b-.s|      [207]: "2022-03-13T05:30:27Z" (1647149427) transition_time 0xc28-0xc2f.7 (8)
0xc30|00 00 00 00 63 67 38 63                        |....cg8c        |      [208]: "2022-11-06T04:30:27Z" (1667709027) transition_time 0xc30-0xc37.7 (8)
0xc30|                        00 00 00 00 64 0d 63 73|        ....d.cs|      [209]: "2023-03-12T05:30:27Z" (1678599027) transition_time 0xc38-0xc3f.7 (8)
0xc40|00 00 00 00 64 9b 78 1b                        |....d.x.        |      [210]: "2023-06-28T00:00:27Z" (1687910427) transition_time 0xc40-0xc47.7 (8)
     |                                               |                |    transition_types[0:211]: 0xc48-0xd1a.7 (211)
0xc40|                        02                     |        .       |      [0]: 2 transition_type 0xc48-0xc48.7 (1)
0xc40|                           01                  |         .      |      [1]: 1 transition_type 0xc49-0xc49.7 (1)
0xc40|                              02               |          .     |      [2]: 2 transition_type 0xc4a-0xc4a.7 (1)
0xc40|                                 01            |           .    |      [3]: 1 transition_type 0xc4b-0xc4b.7 (1)
0xc40|                                    02         |            .   |      [4]: 2 transition_type 0xc4c-0xc4c.7 (1)
0xc40|                                       01      |             .  |      [5]: 1 transition_type 0xc4d-0xc4d.7 (1)
0xc40|                                          02   |              . |      [6]: 2 transition_type 0xc4e-0xc4e.7 (1)
0xc40|                                             01|               .|      [7]: 1 transition_type 0xc4f-0xc4f.7 (1)
0xc50|02                                             |.               |      [8]: 2 transition_type 0xc50-0xc50.7 (1)
0xc50|   01                                          | .              |      [9]: 1 transition_type 0xc51-0xc51.7 (1)
0xc50|      02                                       |  .             |      [10]: 2 transition_type 0xc52-0xc52.7 (1)
0xc50|         01                                    |   .            |      [11]: 1 transition_type 0xc53-0xc53.7 (1)
0xc50|            02                                 |    .           |      [12]: 2 transition_type 0xc54-0xc54.7 (1)
0xc50|               01                              |     .          |      [13]: 1 transition_type 0xc55-0xc55.7 (1)
0xc50|                  02                           |      .         |      [14]: 2 transition_type 0xc56-0xc56.7 (1)
0xc50|                     01                        |       .        |      [15]: 1 transition_type 0xc57-0xc57.7 (1)
0xc50|                        02                     |        .       |      [16]: 2 transition_type 0xc58-0xc58.7 (1)
0xc50|                           01                  |         .      |      [17]: 1 transition_type 0xc59-0xc59.7 (1)
0xc50|                              02               |          .     |      [18]: 2 transition_type 0xc5a-0xc5a.7 (1)
0xc50|                                 01            |           .    |      [19]: 1 transition_type 0xc5b-0xc5b.7 (1)
0xc50|                                    02         |            .   |      [20]: 2 transition_type 0xc5c-0xc5c.7 (1)
0xc50|                                       01      |             .  |      [21]: 1 transition_type 0xc5d-0xc5d.7 (1)
0xc50|                                          02   |              . |      [22]: 2 transition_type 0xc5e-0xc5e.7 (1)
0xc50|                                             01|               .|      [23]: 1 transition_type 0xc5f-0xc5f.7 (1)
0xc60|02                                             |.               |      [24]: 2 transition_type 0xc60-0xc60.7 (1)
0xc60|   01                                          | .              |      [25]: 1 transition_type 0xc61-0xc61.7 (1)
0xc60|      02                                       |  .             |      [26]: 2 transition_type 0xc62-0xc62.7 (1)
0xc60|         01                                    |   .            |      [27]: 1 transition_type 0xc63-0xc63.7 (1)
0xc60|            02                                 |    .           |      [28]: 2 transition_type 0xc64-0xc64.7 (1)
0xc60|               01                              |     .          |      [29]: 1 transition_type 0xc65-0xc65.7 (1)
0xc60|                  02                           |      .         |      [30]: 2 transition_type 0xc66-0xc66.7 (1)
0xc60|                     01                        |       .        |      [31]: 1 transition_type 0xc67-0xc67.7 (1)
0xc60|                        02                     |        .       |      [32]: 2 transition_type 0xc68-0xc68.7 (1)
0xc60|                           01                  |         .      |      [33]: 1 transition_type 0xc69-0xc69.7 (1)
0xc60|                              02               |          .     |      [34]: 2 transition_type 0xc6a-0xc6a.7 (1)
0xc60|                                 01            |           .    |      [35]: 1 transition_type 0xc6b-0xc6b.7 (1)
0xc60|                                    02         |            .   |      [36]: 2 transition_type 0xc6c-0xc6c.7 (1)
0xc60|                                       04      |             .  |      [37]: 4 transition_type 0xc6d-0xc6d.7 (1)
0xc60|                                          03   |              . |      [38]: 3 transition_type 0xc6e-0xc6e.7 (1)
0xc60|                                             04|               .|      [39]: 4 transition_type 0xc6f-0xc6f.7 (1)
0xc70|03                                             |.               |      [40]: 3 transition_type 0xc70-0xc70.7 (1)
0xc70|   04                                          | .              |      [41]: 4 transition_type 0xc71-0xc71.7 (1)
0xc70|      03                                       |  .             |      [42]: 3 transition_type 0xc72-0xc72.7 (1)
0xc70|         04                                    |   .            |      [43]: 4 transition_type 0xc73-0xc73.7 (1)
0xc70|            03                                 |    .           |      [44]: 3 transition_type 0xc74-0xc74.7 (1)
0xc70|               04                              |     .          |      [45]: 4 transition_type 0xc75-0xc75.7 (1)
0xc70|                  03                           |      .         |      [46]: 3 transition_type 0xc76-0xc76.7 (1)
0xc70|                     04                        |       .        |      [47]: 4 transition_type 0xc77-0xc77.7 (1)
0xc70|                        03                     |        .       |      [48]: 3 transition_type 0xc78-0xc78.7 (1)
0xc70|                           04                  |         .      |      [49]: 4 transition_type 0xc79-0xc79.7 (1)
0xc70|                              03               |          .     |      [50]: 3 transition_type 0xc7a-0xc7a.7 (1)
0xc70|                                 04            |           .    |      [51]: 4 transition_type 0xc7b-0xc7b.7 (1)
0xc70|                                    06         |            .   |      [52]: 6 transition_type 0xc7c-0xc7c.7 (1)
0xc70|                                       05      |             .  |      [53]: 5 transition_type 0xc7d-0xc7d.7 (1)
0xc70|                                          04   |              . |      [54]: 4 transition_type 0xc7e-0xc7e.7 (1)
0xc70|                                             03|               .|      [55]: 3 transition_type 0xc7f-0xc7f.7 (1)
0xc80|04                                             |.               |      [56]: 4 transition_type 0xc80-0xc80.7 (1)
0xc80|   03                                          | .              |      [57]: 3 transition_type 0xc81-0xc81.7 (1)
0xc80|      04                                       |  .             |      [58]: 4 transition_type 0xc82-0xc82.7 (1)
0xc80|         03                                    |   .            |      [59]: 3 transition_type 0xc83-0xc83.7 (1)
0xc80|            04                                 |    .           |      [60]: 4 transition_type 0xc84-0xc84.7 (1)
0xc80|               03                              |     .          |      [61]: 3 transition_type 0xc85-0xc85.7 (1)
0xc80|                  04                           |      .         |      [62]: 4 transition_type 0xc86-0xc86.7 (1)
0xc80|                     03                        |       .        |      [63]: 3 transition_type 0xc87-0xc87.7 (1)
0xc80|                        04                     |        .       |      [64]: 4 transition_type 0xc88-0xc88.7 (1)
0xc80|                           03                  |         .      |      [65]: 3 transition_type 0xc89-0xc89.7 (1)
0xc80|                              04               |          .     |      [66]: 4 transition_type 0xc8a-0xc8a.7 (1)
0xc80|                                 03            |           .    |      [67]: 3 transition_type 0xc8b-0xc8b.7 (1)
0xc80|                                    04         |            .   |      [68]: 4 transition_type 0xc8c-0xc8c.7 (1)
0xc80|                                       03      |             .  |      [69]: 3 transition_type 0xc8d-0xc8d.7 (1)
0xc80|                                          04   |              . |      [70]: 4 transition_type 0xc8e-0xc8e.7 (1)
0xc80|                                             03|               .|      [71]: 3 transition_type 0xc8f-0xc8f.7 (1)
0xc90|04                                             |.               |      [72]: 4 transition_type 0xc90-0xc90.7 (1)
0xc90|   03                                          | .              |      [73]: 3 transition_type 0xc91-0xc91.7 (1)
0xc90|      04                                       |  .             |      [74]: 4 transition_type 0xc92-0xc92.7 (1)
0xc90|         03                                    |   .            |      [75]: 3 transition_type 0xc93-0xc93.7 (1)
0xc90|            04                                 |    .           |      [76]: 4 transition_type 0xc94-0xc94.7 (1)
0xc90|               03                              |     .          |      [77]: 3 transition_type 0xc95-0xc95.7 (1)
0xc90|                  04                           |      .         |      [78]: 4 transition_type 0xc96-0xc96.7 (1)
0xc90|                     03                        |       .        |      [79]: 3 transition_type 0xc97-0xc97.7 (1)
0xc90|                        04                     |        .       |      [80]: 4 transition_type 0xc98-0xc98.7 (1)
0xc90|                           03                  |         .      |      [81]: 3 transition_type 0xc99-0xc99.7 (1)
0xc90|                              04               |          .     |      [82]: 4 transition_type 0xc9a-0xc9a.7 (1)
0xc90|                                 03            |           .    |      [83]: 3 transition_type 0xc9b-0xc9b.7 (1)
0xc90|                                    04         |            .   |      [84]: 4 transition_type 0xc9c-0xc9c.7 (1)
0xc90|                                       03      |             .  |      [85]: 3 transition_type 0xc9d-0xc9d.7 (1)
0xc90|                                          04   |              . |      [86]: 4 transition_type 0xc9e-0xc9e.7 (1)
0xc90|                                             03|               .|      [87]: 3 transition_type 0xc9f-0xc9f.7 (1)
0xca0|04                                             |.               |      [88]: 4 transition_type 0xca0-0xca0.7 (1)
0xca0|   03                                          | .              |      [89]: 3 transition_type 0xca1-0xca1.7 (1)
0xca0|      04                                       |  .             |      [90]: 4 transition_type 0xca2-0xca2.7 (1)
0xca0|         03                                    |   .            |      [91]: 3 transition_type 0xca3-0xca3.7 (1)
0xca0|            04                                 |    .           |      [92]: 4 transition_type 0xca4-0xca4.7 (1)
0xca0|               03                              |     .          |      [93]: 3 transition_type 0xca5-0xca5.7 (1)
0xca0|                  04                           |      .         |      [94]: 4 transition_type 0xca6-0xca6.7 (1)
0xca0|                     03                        |       .        |      [95]: 3 transition_type 0xca7-0xca7.7 (1)
0xca0|                        04                     |        .       |      [96]: 4 transition_type 0xca8-0xca8.7 (1)
0xca0|                           03                  |         .      |      [97]: 3 transition_type 0xca9-0xca9.7 (1)
0xca0|                              04               |          .     |      [98]: 4 transition_type 0xcaa-0xcaa.7 (1)
0xca0|                                 03            |           .    |      [99]: 3 transition_type 0xcab-0xcab.7 (1)
0xca0|                                    04         |            .   |      [100]: 4 transition_type 0xcac-0xcac.7 (1)
0xca0|                                       03      |             .  |      [101]: 3 transition_type 0xcad-0xcad.7 (1)
0xca0|                                          04   |              . |      [102]: 4 transition_type 0xcae-0xcae.7 (1)
0xca0|                                             03|               .|      [103]: 3 transition_type 0xcaf-0xcaf.7 (1)
0xcb0|04                                             |.               |      [104]: 4 transition_type 0xcb0-0xcb0.7 (1)
0xcb0|   03                                          | .              |      [105]: 3 transition_type 0xcb1-0xcb1.7 (1)
0xcb0|      04                                       |  .             |      [106]: 4 transition_type 0xcb2-0xcb2.7 (1)
0xcb0|         03                                    |   .            |      [107]: 3 transition_type 0xcb3-0xcb3.7 (1)
0xcb0|            04                                 |    .           |      [108]: 4 transition_type 0xcb4-0xcb4.7 (1)
0xcb0|               03                              |     .          |      [109]: 3 transition_type 0xcb5-0xcb5.7 (1)
0xcb0|                  04                           |      .         |      [110]: 4 transition_type 0xcb6-0xcb6.7 (1)
0xcb0|                     03                        |       .        |      [111]: 3 transition_type 0xcb7-0xcb7.7 (1)
0xcb0|                        04                     |        .       |      [112]: 4 transition_type 0xcb8-0xcb8.7 (1)
0xcb0|                           03                  |         .      |      [113]: 3 transition_type 0xcb9-0xcb9.7 (1)
0xcb0|                              04               |          .     |      [114]: 4 transition_type 0xcba-0xcba.7 (1)
0xcb0|                                 03            |           .    |      [115]: 3 transition_type 0xcbb-0xcbb.7 (1)
0xcb0|                                    04         |            .   |      [116]: 4 transition_type 0xcbc-0xcbc.7 (1)
0xcb0|                                       03      |             .  |      [117]: 3 transition_type 0xcbd-0xcbd.7 (1)
0xcb0|                                          04   |              . |      [118]: 4 transition_type 0xcbe-0xcbe.7 (1)
0xcb0|                                             03|               .|      [119]: 3 transition_type 0xcbf-0xcbf.7 (1)
0xcc0|04                                             |.               |      [120]: 4 transition_type 0xcc0-0xcc0.7 (1)
0xcc0|   03                                          | .              |      [121]: 3 transition_type 0xcc1-0xcc1.7 (1)
0xcc0|      04                                       |  .             |      [122]: 4 transition_type 0xcc2-0xcc2.7 (1)
0xcc0|         03                                    |   .            |      [123]: 3 transition_type 0xcc3-0xcc3.7 (1)
0xcc0|            04                                 |    .           |      [124]: 4 transition_type 0xcc4-0xcc4.7 (1)
0xcc0|               03                              |     .          |      [125]: 3 transition_type 0xcc5-0xcc5.7 (1)
0xcc0|                  04                           |      .         |      [126]: 4 transition_type 0xcc6-0xcc6.7 (1)
0xcc0|                     03                        |       .        |      [127]: 3 transition_type 0xcc7-0xcc7.7 (1)
0xcc0|                        04                     |        .       |      [128]: 4 transition_type 0xcc8-0xcc8.7 (1)
0xcc0|                           03                  |         .      |      [129]: 3 transition_type 0xcc9-0xcc9.7 (1)
0xcc0|                              04               |          .     |      [130]: 4 transition_type 0xcca-0xcca.7 (1)
0xcc0|                                 03            |           .    |      [131]: 3 transition_type 0xccb-0xccb.7 (1)
0xcc0|                                    04         |            .   |      [132]: 4 transition_type 0xccc-0xccc.7 (1)
0xcc0|                                       03      |             .  |      [133]: 3 transition_type 0xccd-0xccd.7 (1)
0xcc0|                                          04   |              . |      [134]: 4 transition_type 0xcce-0xcce.7 (1)
0xcc0|                                             03|               .|      [135]: 3 transition_type 0xccf-0xccf.7 (1)
0xcd0|04                                             |.               |      [136]: 4 transition_type 0xcd0-0xcd0.7 (1)
0xcd0|   03                                          | .              |      [137]: 3 transition_type 0xcd1-0xcd1.7 (1)
0xcd0|      04                                       |  .             |      [138]: 4 transition_type 0xcd2-0xcd2.7 (1)
0xcd0|         07                                    |   .            |      [139]: 7 transition_type 0xcd3-0xcd3.7 (1)
0xcd0|            04                                 |    .           |      [140]: 4 transition_type 0xcd4-0xcd4.7 (1)
0xcd0|               03                              |     .          |      [141]: 3 transition_type 0xcd5-0xcd5.7 (1)
0xcd0|                  04                           |      .         |      [142]: 4 transition_type 0xcd6-0xcd6.7 (1)
0xcd0|                     03                        |       .        |      [143]: 3 transition_type 0xcd7-0xcd7.7 (1)
0xcd0|                        04                     |        .       |      [144]: 4 transition_type 0xcd8-0xcd8.7 (1)
0xcd0|                           03                  |         .      |      [145]: 3 transition_type 0xcd9-0xcd9.7 (1)
0xcd0|                              04               |          .     |      [146]: 4 transition_type 0xcda-0xcda.7 (1)
0xcd0|                                 03            |           .    |      [147]: 3 transition_type 0xcdb-0xcdb.7 (1)
0xcd0|                                    04         |            .   |      [148]: 4 transition_type 0xcdc-0xcdc.7 (1)
0xcd0|                                       03      |             .  |      [149]: 3 transition_type 0xcdd-0xcdd.7 (1)
0xcd0|                                          04   |              . |      [150]: 4 transition_type 0xcde-0xcde.7 (1)
0xcd0|                                             03|               .|      [151]: 3 transition_type 0xcdf-0xcdf.7 (1)
0xce0|04                                             |.               |      [152]: 4 transition_type 0xce0-0xce0.7 (1)
0xce0|   03                                          | .              |      [153]: 3 transition_type 0xce1-0xce1.7 (1)
0xce0|      04                                       |  .             |      [154]: 4 transition_type 0xce2-0xce2.7 (1)
0xce0|         03                                    |   .            |      [155]: 3 transition_type 0xce3-0xce3.7 (1)
0xce0|            04                                 |    .           |      [156]: 4 transition_type 0xce4-0xce4.7 (1)
0xce0|               03                              |     .          |      [157]: 3 transition_type 0xce5-0xce5.7 (1)
0xce0|                  04                           |      .         |      [158]: 4 transition_type 0xce6-0xce6.7 (1)
0xce0|                     03                        |       .        |      [159]: 3 transition_type 0xce7-0xce7.7 (1)
0xce0|                        04                     |        .       |      [160]: 4 transition_type 0xce8-0xce8.7 (1)
0xce0|                           03                  |         .      |      [161]: 3 transition_type 0xce9-0xce9.7 (1)
0xce0|                              04               |          .     |      [162]: 4 transition_type 0xcea-0xcea.7 (1)
0xce0|                                 03            |           .    |      [163]: 3 transition_type 0xceb-0xceb.7 (1)
0xce0|                                    04         |            .   |      [164]: 4 transition_type 0xcec-0xcec.7 (1)
0xce0|                                       03      |             .  |      [165]: 3 transition_type 0xced-0xced.7 (1)
0xce0|                                          04   |              . |      [166]: 4 transition_type 0xcee-0xcee.7 (1)
0xce0|                                             03|               .|      [167]: 3 transition_type 0xcef-0xcef.7 (1)
0xcf0|04                                             |.               |      [168]: 4 transition_type 0xcf0-0xcf0.7 (1)
0xcf0|   03                                          | .              |      [169]: 3 transition_type 0xcf1-0xcf1.7 (1)
0xcf0|      04                                       |  .             |      [170]: 4 transition_type 0xcf2-0xcf2.7 (1)
0xcf0|         03                                    |   .            |      [171]: 3 transition_type 0xcf3-0xcf3.7 (1)
0xcf0|            04                                 |    .           |      [172]: 4 transition_type 0xcf4-0xcf4.7 (1)
0xcf0|               03                              |     .          |      [173]: 3 transition_type 0xcf5-0xcf5.7 (1)
0xcf0|                  04                           |      .         |      [174]: 4 transition_type 0xcf6-0xcf6.7 (1)
0xcf0|                     03                        |       .        |      [175]: 3 transition_type 0xcf7-0xcf7.7 (1)
0xcf0|                        04                     |        .       |      [176]: 4 transition_type 0xcf8-0xcf8.7 (1)
0xcf0|                           03                  |         .      |      [177]: 3 transition_type 0xcf9-0xcf9.7 (1)
0xcf0|                              04               |          .     |      [178]: 4 transition_type 0xcfa-0xcfa.7 (1)
0xcf0|                                 03            |           .    |      [179]: 3 transition_type 0xcfb-0xcfb.7 (1)
0xcf0|                                    04         |            .   |      [180]: 4 transition_type 0xcfc-0xcfc.7 (1)
0xcf0|                                       03      |             .  |      [181]: 3 transition_type 0xcfd-0xcfd.7 (1)
0xcf0|                                          04   |              . |      [182]: 4 transition_type 0xcfe-0xcfe.7 (1)
0xcf0|                                             03|               .|      [183]: 3 transition_type 0xcff-0xcff.7 (1)
0xd00|04                                             |.               |      [184]: 4 transition_type 0xd00-0xd00.7 (1)
0xd00|   03                                          | .              |      [185]: 3 transition_type 0xd01-0xd01.7 (1)
0xd00|      04                                       |  .             |      [186]: 4 transition_type 0xd02-0xd02.7 (1)
0xd00|         03                                    |   .            |      [187]: 3 transition_type 0xd03-0xd03.7 (1)
0xd00|            04                                 |    .           |      [188]: 4 transition_type 0xd04-0xd04.7 (1)
0xd00|               03                              |     .          |      [189]: 3 transition_type 0xd05-0xd05.7 (1)
0xd00|                  04                           |      .         |      [190]: 4 transition_type 0xd06-0xd06.7 (1)
0xd00|                     03                        |       .        |      [191]: 3 transition_type 0xd07-0xd07.7 (1)
0xd00|                        04                     |        .       |      [192]: 4 transition_type 0xd08-0xd08.7 (1)
0xd00|                           03                  |         .      |      [193]: 3 transition_type 0xd09-0xd09.7 (1)
0xd00|                              04               |          .     |      [194]: 4 transition_type 0xd0a-0xd0a.7 (1)
0xd00|                                 03            |           .    |      [195]: 3 transition_type 0xd0b-0xd0b.7 (1)
0xd00|                                    04         |            .   |      [196]: 4 transition_type 0xd0c-0xd0c.7 (1)
0xd00|                                       03      |             .  |      [197]: 3 transition_type 0xd0d-0xd0d.7 (1)
0xd00|                                          04   |              . |      [198]: 4 transition_type 0xd0e-0xd0e.7 (1)
0xd00|                                             03|               .|      [199]: 3 transition_type 0xd0f-0xd0f.7 (1)
0xd10|04                                             |.               |      [200]: 4 transition_type 0xd10-0xd10.7 (1)
0xd10|   03                                          | .              |      [201]: 3 transition_type 0xd11-0xd11.7 (1)
0xd10|      04                                       |  .             |      [202]: 4 transition_type 0xd12-0xd12.7 (1)
0xd10|         03                                    |   .            |      [203]: 3 transition_type 0xd13-0xd13.7 (1)
0xd10|            04                                 |    .           |      [204]: 4 transition_type 0xd14-0xd14.7 (1)
0xd10|               03                              |     .          |      [205]: 3 transition_type 0xd15-0xd15.7 (1)
0xd10|                  04                           |      .         |      [206]: 4 transition_type 0xd16-0xd16.7 (1)
0xd10|                     03                        |       .        |      [207]: 3 transition_type 0xd17-0xd17.7 (1)
0xd10|                        04                     |        .       |      [208]: 4 transition_type 0xd18-0xd18.7 (1)
0xd10|                           03                  |         .      |      [209]: 3 transition_type 0xd19-0xd19.7 (1)
0xd10|                              03               |          .     |      [210]: 3 transition_type 0xd1a-0xd1a.7 (1)
     |                                               |                |    local_time_type_records[0:9]: 0xd1b-0xd50.7 (54)
     |                                               |                |      [0]{}: local_time_type 0xd1b-0xd20.7 (6)
0xd10|                                 ff ff ce 94   |           .... |        utoff: -12652 (valid) 0xd1b-0xd1e.7 (4)
0xd10|                                             00|               .|        dst: 0 (valid) 0xd1f-0xd1f.7 (1)
0xd20|00                                             |.               |        idx: 0 (valid) 0xd20-0xd20.7 (1)
     |                                               |                |      [1]{}: local_time_type 0xd21-0xd26.7 (6)
0xd20|   ff ff dc a4                                 | ....           |        utoff: -9052 (valid) 0xd21-0xd24.7 (4)
0xd20|               01                              |     .          |        dst: 1 (valid) 0xd25-0xd25.7 (1)
0xd20|                  04                           |      .         |        idx: 4 (valid) 0xd26-0xd26.7 (1)
     |                                               |                |      [2]{}: local_time_type 0xd27-0xd2c.7 (6)
0xd20|                     ff ff ce 94               |       ....     |        utoff: -12652 (valid) 0xd27-0xd2a.7 (4)
0xd20|                                 00            |           .    |        dst: 0 (valid) 0xd2b-0xd2b.7 (1)
0xd20|                                    08         |            .   |        idx: 8 (valid) 0xd2c-0xd2c.7 (1)
     |                                               |                |      [3]{}: local_time_type 0xd2d-0xd32.7 (6)
0xd20|                                       ff ff dc|             ...|        utoff: -9000 (valid) 0xd2d-0xd30.7 (4)
0xd30|d8                                             |.               |
0xd30|   01                                          | .              |        dst: 1 (valid) 0xd31-0xd31.7 (1)
0xd30|      04                                       |  .             |        idx: 4 (valid) 0xd32-0xd32.7 (1)
     |                                               |                |      [4]{}: local_time_type 0xd33-0xd38.7 (6)
0xd30|         ff ff ce c8                           |   ....         |        utoff: -12600 (valid) 0xd33-0xd36.7 (4)
0xd30|                     00                        |       .        |        dst: 0 (valid) 0xd37-0xd37.7 (1)
0xd30|                        08                     |        .       |        idx: 8 (valid) 0xd38-0xd38.7 (1)
     |                                               |                |      [5]{}: local_time_type 0xd39-0xd3e.7 (6)
0xd30|                           ff ff dc d8         |         ....   |        utoff: -9000 (valid) 0xd39-0xd3c.7 (4)
0xd30|                                       01      |             .  |        dst: 1 (valid) 0xd3d-0xd3d.7 (1)
0xd30|                                          0c   |              . |        idx: 12 (valid) 0xd3e-0xd3e.7 (1)
     |                                               |                |      [6]{}: local_time_type 0xd3f-0xd44.7 (6)
0xd30|                                             ff|               .|        utoff: -9000 (valid) 0xd3f-0xd42.7 (4)
0xd40|ff dc d8                                       |...             |
0xd40|         01                                    |   .            |        dst: 1 (valid) 0xd43-0xd43.7 (1)
0xd40|            10                                 |    .           |        idx: 16 (valid) 0xd44-0xd44.7 (1)
     |                                               |                |      [7]{}: local_time_type 0xd45-0xd4a.7 (6)
0xd40|               ff ff ea e8                     |     ....       |        utoff: -5400 (valid) 0xd45-0xd48.7 (4)
0xd40|                           01                  |         .      |        dst: 1 (valid) 0xd49-0xd49.7 (1)
0xd40|                              14               |          .     |        idx: 20 (valid) 0xd4a-0xd4a.7 (1)
     |                                               |                |      [8]{}: local_time_type 0xd4b-0xd50.7 (6)
0xd40|                                 ff ff dc d8   |           .... |        utoff: -9000 (valid) 0xd4b-0xd4e.7 (4)
0xd40|                                             01|               .|        dst: 1 (valid) 0xd4f-0xd4f.7 (1)
0xd50|04                                             |.               |        idx: 4 (valid) 0xd50-0xd50.7 (1)
     |                                               |                |    time_zone_designations[0:6]: 0xd51-0xd69.7 (25)
0xd50|   4c 4d 54 00                                 | LMT.           |      [0]: "LMT" time_zone_designation 0xd51-0xd54.7 (4)
0xd50|               4e 44 54 00                     |     NDT.       |      [1]: "NDT" time_zone_designation 0xd55-0xd58.7 (4)
0xd50|                           4e 53 54 00         |         NST.   |      [2]: "NST" time_zone_designation 0xd59-0xd5c.7 (4)
0xd50|                                       4e 50 54|             NPT|      [3]: "NPT" time_zone_designation 0xd5d-0xd60.7 (4)
0xd60|00                                             |.               |
0xd60|   4e 57 54 00                                 | NWT.           |      [4]: "NWT" time_zone_designation 0xd61-0xd64.7 (4)
0xd60|               4e 44 44 54 00                  |     NDDT.      |      [5]: "NDDT" time_zone_designation 0xd65-0xd69.7 (5)
     |                                               |                |    leap_second_records[0:27]: 0xd6a-0xead.7 (324)
     |                                               |                |      [0]{}: leap_second_record 0xd6a-0xd75.7 (12)
0xd60|                              00 00 00 00 04 b2|          ......|        occur: "1972-07-01T00:00:00Z" (78796800) 0xd6a-0xd71.7 (8)
0xd70|58 00                                          |X.              |
0xd70|      00 00 00 01                              |  ....          |        corr: 1 0xd72-0xd75.7 (4)
     |                                               |                |      [1]{}: leap_second_record 0xd76-0xd81.7 (12)
0xd70|                  00 00 00 00 05 a4 ec 01      |      ........  |        occur: "1973-01-01T00:00:01Z" (94694401) 0xd76-0xd7d.7 (8)
0xd70|                                          00 00|              ..|        corr: 2 0xd7e-0xd81.7 (4)
0xd80|00 02                                          |..              |
     |                                               |                |      [2]{}: leap_second_record 0xd82-0xd8d.7 (12)
0xd80|      00 00 00 00 07 86 1f 82                  |  ........      |        occur: "1974-01-01T00:00:02Z" (126230402) 0xd82-0xd89.7 (8)
0xd80|                              00 00 00 03      |          ....  |        corr: 3 0xd8a-0xd8d.7 (4)
     |                                               |                |      [3]{}: leap_second_record 0xd8e-0xd99.7 (12)
0xd80|                                          00 00|              ..|        occur: "1975-01-01T00:00:03Z" (157766403) 0xd8e-0xd95.7 (8)
0xd90|00 00 09 67 53 03                              |...gS.          |
0xd90|                  00 00 00 04                  |      ....      |        corr: 4 0xd96-0xd99.7 (4)
     |                                               |                |      [4]{}: leap_second_record 0xd9a-0xda5.7 (12)
0xd90|                              00 00 00 00 0b 48|          .....H|        occur: "1976-01-01T00:00:04Z" (189302404) 0xd9a-0xda1.7 (8)
0xda0|86 84                                          |..              |
0xda0|      00 00 00 05                              |  ....          |        corr: 5 0xda2-0xda5.7 (4)
     |                                               |                |      [5]{}: leap_second_record 0xda6-0xdb1.7 (12)
0xda0|                  00 00 00 00 0d 2b 0b 85      |      .....+..  |        occur: "1977-01-01T00:00:05Z" (220924805) 0xda6-0xdad.7 (8)
0xda0|                                          00 00|              ..|        corr: 6 0xdae-0xdb1.7 (4)
0xdb0|00 06                                          |..              |
     |                                               |                |      [6]{}: leap_second_record 0xdb2-0xdbd.7 (12)
0xdb0|      00 00 00 00 0f 0c 3f 06                  |  ......?.      |        occur: "1978-01-01T00:00:06Z" (252460806) 0xdb2-0xdb9.7 (8)
0xdb0|                              00 00 00 07      |          ....  |        corr: 7 0xdba-0xdbd.7 (4)
     |                                               |                |      [7]{}: leap_second_record 0xdbe-0xdc9.7 (12)
0xdb0|                                          00 00|              ..|        occur: "1979-01-01T00:00:07Z" (283996807) 0xdbe-0xdc5.7 (8)
0xdc0|00 00 10 ed 72 87                              |....r.          |
0xdc0|                  00 00 00 08                  |      ....      |        corr: 8 0xdc6-0xdc9.7 (4)
     |                                               |                |      [8]{}: leap_second_record 0xdca-0xdd5.7 (12)
0xdc0|                              00 00 00 00 12 ce|          ......|        occur: "1980-01-01T00:00:08Z" (315532808) 0xdca-0xdd1.7 (8)
0xdd0|a6 08                                          |..              |
0xdd0|      00 00 00 09                              |  ....          |        corr: 9 0xdd2-0xdd5.7 (4)
     |                                               |                |      [9]{}: leap_second_record 0xdd6-0xde1.7 (12)
0xdd0|                  00 00 00 00 15 9f ca 89      |      ........  |        occur: "1981-07-01T00:00:09Z" (362793609) 0xdd6-0xddd.7 (8)
0xdd0|                                          00 00|              ..|        corr: 10 0xdde-0xde1.7 (4)
0xde0|00 0a                                          |..              |
     |                                               |                |      [10]{}: leap_second_record 0xde2-0xded.7 (12)
0xde0|      00 00 00 00 17 80 fe 0a                  |  ........      |        occur: "1982-07-01T00:00:10Z" (394329610) 0xde2-0xde9.7 (8)
0xde0|                              00 00 00 0b      |          ....  |        corr: 11 0xdea-0xded.7 (4)
     |                                               |                |      [11]{}: leap_second_record 0xdee-0xdf9.7 (12)
0xde0|                                          00 00|              ..|        occur: "1983-07-01T00:00:11Z" (425865611) 0xdee-0xdf5.7 (8)
0xdf0|00 00 19 62 31 8b                              |...b1.          |
0xdf0|                  00 00 00 0c                  |      ....      |        corr: 12 0xdf6-0xdf9.7 (4)
     |                                               |                |      [12]{}: leap_second_record 0xdfa-0xe05.7 (12)
0xdf0|                              00 00 00 00 1d 25|          .....%|        occur: "1985-07-01T00:00:12Z" (489024012) 0xdfa-0xe01.7 (8)
0xe00|ea 0c                                          |..              |
0xe00|      00 00 00 0d                              |  ....          |        corr: 13 0xe02-0xe05.7 (4)
     |                                               |                |      [13]{}: leap_second_record 0xe06-0xe11.7 (12)
0xe00|                  00 00 00 00 21 da e5 0d      |      ....!...  |        occur: "1988-01-01T00:00:13Z" (567993613) 0xe06-0xe0d.7 (8)
0xe00|                                          00 00|              ..|        corr: 14 0xe0e-0xe11.7 (4)
0xe10|00 0e                                          |..              |
     |                                               |                |      [14]{}: leap_second_record 0xe12-0xe1d.7 (12)
0xe10|      00 00 00 00 25 9e 9d 8e                  |  ....%...      |        occur: "1990-01-01T00:00:14Z" (631152014) 0xe12-0xe19.7 (8)
0xe10|                              00 00 00 0f      |          ....  |        corr: 15 0xe1a-0xe1d.7 (4)
     |                                               |                |      [15]{}: leap_second_record 0xe1e-0xe29.7 (12)
0xe10|                                          00 00|              ..|        occur: "1991-01-01T00:00:15Z" (662688015) 0xe1e-0xe25.7 (8)
0xe20|00 00 27 7f d1 0f                              |..'...          |
0xe20|                  00 00 00 10                  |      ....      |        corr: 16 0xe26-0xe29.7 (4)
     |                                               |                |      [16]{}: leap_second_record 0xe2a-0xe35.7 (12)
0xe20|                              00 00 00 00 2a 50|          ....*P|        occur: "1992-07-01T00:00:16Z" (709948816) 0xe2a-0xe31.7 (8)
0xe30|f5 90                                          |..              |
0xe30|      00 00 00 11                              |  ....          |        corr: 17 0xe32-0xe35.7 (4)
     |                                               |                |      [17]{}: leap_second_record 0xe36-0xe41.7 (12)
0xe30|                  00 00 00 00 2c 32 29 11      |      ....,2).  |        occur: "1993-07-01T00:00:17Z" (741484817) 0xe36-0xe3d.7 (8)
0xe30|                                          00 00|              ..|        corr: 18 0xe3e-0xe41.7 (4)
0xe40|00 12                                          |..              |
     |                                               |                |      [18]{}: leap_second_record 0xe42-0xe4d.7 (12)
0xe40|      00 00 00 00 2e 13 5c 92                  |  ......\.      |        occur: "1994-07-01T00:00:18Z" (773020818) 0xe42-0xe49.7 (8)
0xe40|                              00 00 00 13      |          ....  |        corr: 19 0xe4a-0xe4d.7 (4)
     |                                               |                |      [19]{}: leap_second_record 0xe4e-0xe59.7 (12)
0xe40|                                          00 00|              ..|        occur: "1996-01-01T00:00:19Z" (820454419) 0xe4e-0xe55.7 (8)
0xe50|00 00 30 e7 24 13                              |..0.$.          |
0xe50|                  00 00 00 14                  |      ....      |        corr: 20 0xe56-0xe59.7 (4)
     |                                               |                |      [20]{}: leap_second_record 0xe5a-0xe65.7 (12)
0xe50|                              00 00 00 00 33 b8|          ....3.|        occur: "1997-07-01T00:00:20Z" (867715220) 0xe5a-0xe61.7 (8)
0xe60|48 94                                          |H.              |
0xe60|      00 00 00 15                              |  ....          |        corr: 21 0xe62-0xe65.7 (4)
     |                                               |                |      [21]{}: leap_second_record 0xe66-0xe71.7 (12)
0xe60|                  00 00 00 00 36 8c 10 15      |      ....6...  |        occur: "1999-01-01T00:00:21Z" (915148821) 0xe66-0xe6d.7 (8)
0xe60|                                          00 00|              ..|        corr: 22 0xe6e-0xe71.7 (4)
0xe70|00 16                                          |..              |
     |                                               |                |      [22]{}: leap_second_record 0xe72-0xe7d.7 (12)
0xe70|      00 00 00 00 43 b7 1b 96                  |  ....C...      |        occur: "2006-01-01T00:00:22Z" (1136073622) 0xe72-0xe79.7 (8)
0xe70|                              00 00 00 17      |          ....  |        corr: 23 0xe7a-0xe7d.7 (4)
     |                                               |                |      [23]{}: leap_second_record 0xe7e-0xe89.7 (12)
0xe70|                                          00 00|              ..|        occur: "2009-01-01T00:00:23Z" (1230768023) 0xe7e-0xe85.7 (8)
0xe80|00 00 49 5c 07 97                              |..I\..          |
0xe80|                  00 00 00 18                  |      ....      |        corr: 24 0xe86-0xe89.7 (4)
     |                                               |                |      [24]{}: leap_second_record 0xe8a-0xe95.7 (12)
0xe80|                              00 00 00 00 4f ef|          ....O.|        occur: "2012-07-01T00:00:24Z" (1341100824) 0xe8a-0xe91.7 (8)
0xe90|93 18                                          |..              |
0xe90|      00 00 00 19                              |  ....          |        corr: 25 0xe92-0xe95.7 (4)
     |                                               |                |      [25]{}: leap_second_record 0xe96-0xea1.7 (12)
0xe90|                  00 00 00 00 55 93 2d 99      |      ....U.-.  |        occur: "2015-07-01T00:00:25Z" (1435708825) 0xe96-0xe9d.7 (8)
0xe90|                                          00 00|              ..|        corr: 26 0xe9e-0xea1.7 (4)
0xea0|00 1a                                          |..              |
     |                                               |                |      [26]{}: leap_second_record 0xea2-0xead.7 (12)
0xea0|      00 00 00 00 58 68 46 9a                  |  ....XhF.      |        occur: "2017-01-01T00:00:26Z" (1483228826) 0xea2-0xea9.7 (8)
0xea0|                              00 00 00 1b      |          ....  |        corr: 27 0xeaa-0xead.7 (4)
     |                                               |                |    standard_wall_indicators[0:9]: 0xeae-0xeb6.7 (9)
0xea0|                                          00   |              . |      [0]: 0 standard_wall_indicator (valid) 0xeae-0xeae.7 (1)
0xea0|                                             00|               .|      [1]: 0 standard_wall_indicator (valid) 0xeaf-0xeaf.7 (1)
0xeb0|00                                             |.               |      [2]: 0 standard_wall_indicator (valid) 0xeb0-0xeb0.7 (1)
0xeb0|   00                                          | .              |      [3]: 0 standard_wall_indicator (valid) 0xeb1-0xeb1.7 (1)
0xeb0|      00                                       |  .             |      [4]: 0 standard_wall_indicator (valid) 0xeb2-0xeb2.7 (1)
0xeb0|         01                                    |   .            |      [5]: 1 standard_wall_indicator (valid) 0xeb3-0xeb3.7 (1)
0xeb0|            00                                 |    .           |      [6]: 0 standard_wall_indicator (valid) 0xeb4-0xeb4.7 (1)
0xeb0|               00                              |     .          |      [7]: 0 standard_wall_indicator (valid) 0xeb5-0xeb5.7 (1)
0xeb0|                  00                           |      .         |      [8]: 0 standard_wall_indicator (valid) 0xeb6-0xeb6.7 (1)
     |                                               |                |    ut_local_indicators[0:9]: 0xeb7-0xebf.7 (9)
0xeb0|                     00                        |       .        |      [0]: 0 ut_local_indicator (valid) 0xeb7-0xeb7.7 (1)
0xeb0|                        00                     |        .       |      [1]: 0 ut_local_indicator (valid) 0xeb8-0xeb8.7 (1)
0xeb0|                           00                  |         .      |      [2]: 0 ut_local_indicator (valid) 0xeb9-0xeb9.7 (1)
0xeb0|                              00               |          .     |      [3]: 0 ut_local_indicator (valid) 0xeba-0xeba.7 (1)
0xeb0|                                 00            |           .    |      [4]: 0 ut_local_indicator (valid) 0xebb-0xebb.7 (1)
0xeb0|                                    01         |            .   |      [5]: 1 ut_local_indicator (valid) 0xebc-0xebc.7 (1)
0xeb0|                                       00      |             .  |      [6]: 0 ut_local_indicator (valid) 0xebd-0xebd.7 (1)
0xeb0|                                          00   |              . |      [7]: 0 ut_local_indicator (valid) 0xebe-0xebe.7 (1)
0xeb0|                                             00|               .|      [8]: 0 ut_local_indicator (valid) 0xebf-0xebf.7 (1)
     |                                               |                |  footer{}: 0xec0-0xec1.7 (2)
0xec0|0a                                             |.               |    nl1: 10 (valid) 0xec0-0xec0.7 (1)
     |                                               |                |    tz_string: "" 0xec1-NA (0)
0xec0|   0a|                                         | .|             |    nl2: 10 (valid) 0xec1-0xec1.7 (1)
