$ fq -d tzif dv Stanley
     |00 01 02 03 04 05 06 07 08 09 0a 0b 0c 0d 0e 0f|0123456789abcdef|.{}: Stanley (tzif) 0x0-0x6d3.7 (1748)
     |                                               |                |  v1header{}: 0x0-0x2b.7 (44)
0x000|54 5a 69 66                                    |TZif            |    magic: 0x545a6966 (valid) 0x0-0x3.7 (4)
0x000|            32                                 |    2           |    ver: "2" (0x32) (valid) 0x4-0x4.7 (1)
0x000|               00 00 00 00 00 00 00 00 00 00 00|     ...........|    reserved: raw bits 0x5-0x13.7 (15)
0x010|00 00 00 00                                    |....            |
0x010|            00 00 00 00                        |    ....        |    isutcnt: 0 0x14-0x17.7 (4)
0x010|                        00 00 00 00            |        ....    |    isstdcnt: 0 0x18-0x1b.7 (4)
0x010|                                    00 00 00 1b|            ....|    leapcnt: 27 0x1c-0x1f.7 (4)
0x020|00 00 00 47                                    |...G            |    timecnt: 71 0x20-0x23.7 (4)
0x020|            00 00 00 07                        |    ....        |    typecnt: 7 0x24-0x27.7 (4)
0x020|                        00 00 00 14            |        ....    |    charcnt: 20 0x28-0x2b.7 (4)
     |                                               |                |  v1datablock{}: 0x2c-0x2a4.7 (633)
     |                                               |                |    transition_times[0:71]: 0x2c-0x147.7 (284)
0x020|                                    80 00 00 00|            ....|      [0]: "1901-12-13T20:45:52Z" (-2147483648) transition_time 0x2c-0x2f.7 (4)
0x030|93 44 5f 3c                                    |.D_<            |      [1]: "1912-03-12T03:51:24Z" (-1824235716) transition_time 0x30-0x33.7 (4)
0x030|            c3 4f 5a c0                        |    .OZ.        |      [2]: "1937-09-26T04:00:00Z" (-1018209600) transition_time 0x34-0x37.7 (4)
0x030|                        c4 36 03 30            |        .6.0    |      [3]: "1938-03-20T03:00:00Z" (-1003093200) transition_time 0x38-0x3b.7 (4)
0x030|                                    c5 2f 3c c0|            ./<.|      [4]: "1938-09-25T04:00:00Z" (-986760000) transition_time 0x3c-0x3f.7 (4)
0x040|c6 15 e5 30                                    |...0            |      [5]: "1939-03-19T03:00:00Z" (-971643600) transition_time 0x40-0x43.7 (4)
0x040|            c7 18 59 40                        |    ..Y@        |      [6]: "1939-10-01T04:00:00Z" (-954705600) transition_time 0x44-0x47.7 (4)
0x040|                        c7 ff 01 b0            |        ....    |      [7]: "1940-03-24T03:00:00Z" (-939589200) transition_time 0x48-0x4b.7 (4)
0x040|                                    c8 f8 3b 40|            ..;@|      [8]: "1940-09-29T04:00:00Z" (-923256000) transition_time 0x4c-0x4f.7 (4)
0x050|c9 de e3 b0                                    |....            |      [9]: "1941-03-23T03:00:00Z" (-908139600) transition_time 0x50-0x53.7 (4)
0x050|            ca d8 1d 40                        |    ...@        |      [10]: "1941-09-28T04:00:00Z" (-891806400) transition_time 0x54-0x57.7 (4)
0x050|                        cb be c5 b0            |        ....    |      [11]: "1942-03-22T03:00:00Z" (-876690000) transition_time 0x58-0x5b.7 (4)
0x050|                                    cc b7 ff 40|            ...@|      [12]: "1942-09-27T04:00:00Z" (-860356800) transition_time 0x5c-0x5f.7 (4)
0x060|cd 36 81 30                                    |.6.0            |      [13]: "1943-01-01T03:00:00Z" (-852066000) transition_time 0x60-0x63.7 (4)
0x060|            19 11 fe 4b                        |    ...K        |      [14]: "1983-05-01T04:00:11Z" (420609611) transition_time 0x64-0x67.7 (4)
0x060|                        19 d3 bc bc            |        ....    |      [15]: "1983-09-25T03:00:12Z" (433306812) transition_time 0x68-0x6b.7 (4)
0x060|                                    1a f1 c4 2c|            ...,|      [16]: "1984-04-29T02:00:12Z" (452052012) transition_time 0x6c-0x6f.7 (4)
0x070|1b aa 64 3c                                    |..d<            |      [17]: "1984-09-16T03:00:12Z" (464151612) transition_time 0x70-0x73.7 (4)
0x070|            1c d1 a6 2c                        |    ...,        |      [18]: "1985-04-28T02:00:12Z" (483501612) transition_time 0x74-0x77.7 (4)
0x070|                        1d 8a 46 3d            |        ..F=    |      [19]: "1985-09-15T03:00:13Z" (495601213) transition_time 0x78-0x7b.7 (4)
0x070|                                    1e a8 5b bd|            ..[.|      [20]: "1986-04-20T03:00:13Z" (514350013) transition_time 0x7c-0x7f.7 (4)
0x080|1f 6a 36 4d                                    |.j6M            |      [21]: "1986-09-14T04:00:13Z" (527054413) transition_time 0x80-0x83.7 (4)
0x080|            20 88 3d bd                        |     .=.        |      [22]: "1987-04-19T03:00:13Z" (545799613) transition_time 0x84-0x87.7 (4)
0x080|                        21 4a 18 4d            |        !J.M    |      [23]: "1987-09-13T04:00:13Z" (558504013) transition_time 0x88-0x8b.7 (4)
0x080|                                    22 68 1f be|            "h..|      [24]: "1988-04-17T03:00:14Z" (577249214) transition_time 0x8c-0x8f.7 (4)
0x090|23 29 fa 4e                                    |#).N            |      [25]: "1988-09-11T04:00:14Z" (589953614) transition_time 0x90-0x93.7 (4)
0x090|            24 48 01 be                        |    $H..        |      [26]: "1989-04-16T03:00:14Z" (608698814) transition_time 0x94-0x97.7 (4)
0x090|                        25 09 dc 4e            |        %..N    |      [27]: "1989-09-10T04:00:14Z" (621403214) transition_time 0x98-0x9b.7 (4)
0x090|                                    26 31 1e 3f|            &1.?|      [28]: "1990-04-22T03:00:15Z" (640753215) transition_time 0x9c-0x9f.7 (4)
0x0a0|26 e9 be 4f                                    |&..O            |      [29]: "1990-09-09T04:00:15Z" (652852815) transition_time 0xa0-0xa3.7 (4)
0x0a0|            28 11 00 40                        |    (..@        |      [30]: "1991-04-21T03:00:16Z" (672202816) transition_time 0xa4-0xa7.7 (4)
0x0a0|                        28 d2 da d0            |        (...    |      [31]: "1991-09-15T04:00:16Z" (684907216) transition_time 0xa8-0xab.7 (4)
0x0a0|                                    29 f0 e2 40|            )..@|      [32]: "1992-04-19T03:00:16Z" (703652416) transition_time 0xac-0xaf.7 (4)
0x0b0|2a b2 bc d1                                    |*...            |      [33]: "1992-09-13T04:00:17Z" (716356817) transition_time 0xb0-0xb3.7 (4)
0x0b0|            2b d0 c4 41                        |    +..A        |      [34]: "1993-04-18T03:00:17Z" (735102017) transition_time 0xb4-0xb7.7 (4)
0x0b0|                        2c 92 9e d2            |        ,...    |      [35]: "1993-09-12T04:00:18Z" (747806418) transition_time 0xb8-0xbb.7 (4)
0x0b0|                                    2d b0 a6 42|            -..B|      [36]: "1994-04-17T03:00:18Z" (766551618) transition_time 0xbc-0xbf.7 (4)
0x0c0|2e 72 80 d3                                    |.r..            |      [37]: "1994-09-11T04:00:19Z" (779256019) transition_time 0xc0-0xc3.7 (4)
0x0c0|            2f 90 88 43                        |    /..C        |      [38]: "1995-04-16T03:00:19Z" (798001219) transition_time 0xc4-0xc7.7 (4)
0x0c0|                        30 52 62 d3            |        0Rb.    |      [39]: "1995-09-10T04:00:19Z" (810705619) transition_time 0xc8-0xcb.7 (4)
0x0c0|                                    31 79 a4 c4|            1y..|      [40]: "1996-04-21T03:00:20Z" (830055620) transition_time 0xcc-0xcf.7 (4)
0x0d0|32 3b 7f 54                                    |2;.T            |      [41]: "1996-09-15T04:00:20Z" (842760020) transition_time 0xd0-0xd3.7 (4)
0x0d0|            33 59 86 c4                        |    3Y..        |      [42]: "1997-04-20T03:00:20Z" (861505220) transition_time 0xd4-0xd7.7 (4)
0x0d0|                        34 1b 61 55            |        4.aU    |      [43]: "1997-09-14T04:00:21Z" (874209621) transition_time 0xd8-0xdb.7 (4)
0x0d0|                                    35 39 68 c5|            59h.|      [44]: "1998-04-19T03:00:21Z" (892954821) transition_time 0xdc-0xdf.7 (4)
0x0e0|35 fb 43 55                                    |5.CU            |      [45]: "1998-09-13T04:00:21Z" (905659221) transition_time 0xe0-0xe3.7 (4)
0x0e0|            37 19 4a c6                        |    7.J.        |      [46]: "1999-04-18T03:00:22Z" (924404422) transition_time 0xe4-0xe7.7 (4)
0x0e0|                        37 db 25 56            |        7.%V    |      [47]: "1999-09-12T04:00:22Z" (937108822) transition_time 0xe8-0xeb.7 (4)
0x0e0|                                    38 f9 2c c6|            8.,.|      [48]: "2000-04-16T03:00:22Z" (955854022) transition_time 0xec-0xef.7 (4)
0x0f0|39 bb 07 56                                    |9..V            |      [49]: "2000-09-10T04:00:22Z" (968558422) transition_time 0xf0-0xf3.7 (4)
0x0f0|            3a d9 2a e6                        |    :.*.        |      [50]: "2001-04-15T05:00:22Z" (987310822) transition_time 0xf4-0xf7.7 (4)
0x0f0|                        3b 91 ca f6            |        ;...    |      [51]: "2001-09-02T06:00:22Z" (999410422) transition_time 0xf8-0xfb.7 (4)
0x0f0|                                    3c c2 47 66|            <.Gf|      [52]: "2002-04-21T05:00:22Z" (1019365222) transition_time 0xfc-0xff.7 (4)
0x100|3d 71 ac f6                                    |=q..            |      [53]: "2002-09-01T06:00:22Z" (1030860022) transition_time 0x100-0x103.7 (4)
0x100|            3e a2 29 66                        |    >.)f        |      [54]: "2003-04-20T05:00:22Z" (1050814822) transition_time 0x104-0x107.7 (4)
0x100|                        3f 5a c9 76            |        ?Z.v    |      [55]: "2003-09-07T06:00:22Z" (1062914422) transition_time 0x108-0x10b.7 (4)
0x100|                                    40 82 0b 66|            @..f|      [56]: "2004-04-18T05:00:22Z" (1082264422) transition_time 0x10c-0x10f.7 (4)
0x110|41 3a ab 76                                    |A:.v            |      [57]: "2004-09-05T06:00:22Z" (1094364022) transition_time 0x110-0x113.7 (4)
0x110|            42 61 ed 66                        |    Ba.f        |      [58]: "2005-04-17T05:00:22Z" (1113714022) transition_time 0x114-0x117.7 (4)
0x110|                        43 1a 8d 76            |        C..v    |      [59]: "2005-09-04T06:00:22Z" (1125813622) transition_time 0x118-0x11b.7 (4)
0x110|                                    44 41 cf 67|            DA.g|      [60]: "2006-04-16T05:00:23Z" (1145163623) transition_time 0x11c-0x11f.7 (4)
0x120|44 fa 6f 77                                    |D.ow            |      [61]: "2006-09-03T06:00:23Z" (1157263223) transition_time 0x120-0x123.7 (4)
0x120|            46 21 b1 67                        |    F!.g        |      [62]: "2007-04-15T05:00:23Z" (1176613223) transition_time 0x124-0x127.7 (4)
0x120|                        46 da 51 77            |        F.Qw    |      [63]: "2007-09-02T06:00:23Z" (1188712823) transition_time 0x128-0x12b.7 (4)
0x120|                                    48 0a cd e7|            H...|      [64]: "2008-04-20T05:00:23Z" (1208667623) transition_time 0x12c-0x12f.7 (4)
0x130|48 c3 6d f7                                    |H.m.            |      [65]: "2008-09-07T06:00:23Z" (1220767223) transition_time 0x130-0x133.7 (4)
0x130|            49 ea af e8                        |    I...        |      [66]: "2009-04-19T05:00:24Z" (1240117224) transition_time 0x134-0x137.7 (4)
0x130|                        4a a3 4f f8            |        J.O.    |      [67]: "2009-09-06T06:00:24Z" (1252216824) transition_time 0x138-0x13b.7 (4)
0x130|                                    4b ca 91 e8|            K...|      [68]: "2010-04-18T05:00:24Z" (1271566824) transition_time 0x13c-0x13f.7 (4)
0x140|4c 83 31 f8                                    |L.1.            |      [69]: "2010-09-05T06:00:24Z" (1283666424) transition_time 0x140-0x143.7 (4)
0x140|            64 9b 78 1b                        |    d.x.        |      [70]: "2023-06-28T00:00:27Z" (1687910427) transition_time 0x144-0x147.7 (4)
     |                                               |                |    transition_types[0:71]: 0x148-0x18e.7 (71)
0x140|                        01                     |        .       |      [0]: 1 transition_type 0x148-0x148.7 (1)
0x140|                           03                  |         .      |      [1]: 3 transition_type 0x149-0x149.7 (1)
0x140|                              02               |          .     |      [2]: 2 transition_type 0x14a-0x14a.7 (1)
0x140|                                 03            |           .    |      [3]: 3 transition_type 0x14b-0x14b.7 (1)
0x140|                                    02         |            .   |      [4]: 2 transition_type 0x14c-0x14c.7 (1)
0x140|                                       03      |             .  |      [5]: 3 transition_type 0x14d-0x14d.7 (1)
0x140|                                          02   |              . |      [6]: 2 transition_type 0x14e-0x14e.7 (1)
0x140|                                             03|               .|      [7]: 3 transition_type 0x14f-0x14f.7 (1)
0x150|02                                             |.               |      [8]: 2 transition_type 0x150-0x150.7 (1)
0x150|   03                                          | .              |      [9]: 3 transition_type 0x151-0x151.7 (1)
0x150|      02                                       |  .             |      [10]: 2 transition_type 0x152-0x152.7 (1)
0x150|         03                                    |   .            |      [11]: 3 transition_type 0x153-0x153.7 (1)
0x150|            02                                 |    .           |      [12]: 2 transition_type 0x154-0x154.7 (1)
0x150|               03                              |     .          |      [13]: 3 transition_type 0x155-0x155.7 (1)
0x150|                  05                           |      .         |      [14]: 5 transition_type 0x156-0x156.7 (1)
0x150|                     04                        |       .        |      [15]: 4 transition_type 0x157-0x157.7 (1)
0x150|                        05                     |        .       |      [16]: 5 transition_type 0x158-0x158.7 (1)
0x150|                           04                  |         .      |      [17]: 4 transition_type 0x159-0x159.7 (1)
0x150|                              05               |          .     |      [18]: 5 transition_type 0x15a-0x15a.7 (1)
0x150|                                 02            |           .    |      [19]: 2 transition_type 0x15b-0x15b.7 (1)
0x150|                                    03         |            .   |      [20]: 3 transition_type 0x15c-0x15c.7 (1)
0x150|                                       02      |             .  |      [21]: 2 transition_type 0x15d-0x15d.7 (1)
0x150|                                          03   |              . |      [22]: 3 transition_type 0x15e-0x15e.7 (1)
0x150|                                             02|               .|      [23]: 2 transition_type 0x15f-0x15f.7 (1)
0x160|03                                             |.               |      [24]: 3 transition_type 0x160-0x160.7 (1)
0x160|   02                                          | .              |      [25]: 2 transition_type 0x161-0x161.7 (1)
0x160|      03                                       |  .             |      [26]: 3 transition_type 0x162-0x162.7 (1)
0x160|         02                                    |   .            |      [27]: 2 transition_type 0x163-0x163.7 (1)
0x160|            03                                 |    .           |      [28]: 3 transition_type 0x164-0x164.7 (1)
0x160|               02                              |     .          |      [29]: 2 transition_type 0x165-0x165.7 (1)
0x160|                  03                           |      .         |      [30]: 3 transition_type 0x166-0x166.7 (1)
0x160|                     02                        |       .        |      [31]: 2 transition_type 0x167-0x167.7 (1)
0x160|                        03                     |        .       |      [32]: 3 transition_type 0x168-0x168.7 (1)
0x160|                           02                  |         .      |      [33]: 2 transition_type 0x169-0x169.7 (1)
0x160|                              03               |          .     |      [34]: 3 transition_type 0x16a-0x16a.7 (1)
0x160|                                 02            |           .    |      [35]: 2 transition_type 0x16b-0x16b.7 (1)
0x160|                                    03         |            .   |      [36]: 3 transition_type 0x16c-0x16c.7 (1)
0x160|                                       02      |             .  |      [37]: 2 transition_type 0x16d-0x16d.7 (1)
0x160|                                          03   |              . |      [38]: 3 transition_type 0x16e-0x16e.7 (1)
0x160|                                             02|               .|      [39]: 2 transition_type 0x16f-0x16f.7 (1)
0x170|03                                             |.               |      [40]: 3 transition_type 0x170-0x170.7 (1)
0x170|   02                                          | .              |      [41]: 2 transition_type 0x171-0x171.7 (1)
0x170|      03                                       |  .             |      [42]: 3 transition_type 0x172-0x172.7 (1)
0x170|         02                                    |   .            |      [43]: 2 transition_type 0x173-0x173.7 (1)
0x170|            03                                 |    .           |      [44]: 3 transition_type 0x174-0x174.7 (1)
0x170|               02                              |     .          |      [45]: 2 transition_type 0x175-0x175.7 (1)
0x170|                  03                           |      .         |      [46]: 3 transition_type 0x176-0x176.7 (1)
0x170|                     02                        |       .        |      [47]: 2 transition_type 0x177-0x177.7 (1)
0x170|                        03                     |        .       |      [48]: 3 transition_type 0x178-0x178.7 (1)
0x170|                           02                  |         .      |      [49]: 2 transition_type 0x179-0x179.7 (1)
0x170|                              03               |          .     |      [50]: 3 transition_type 0x17a-0x17a.7 (1)
0x170|                                 02            |           .    |      [51]: 2 transition_type 0x17b-0x17b.7 (1)
0x170|                                    03         |            .   |      [52]: 3 transition_type 0x17c-0x17c.7 (1)
0x170|                                       02      |             .  |      [53]: 2 transition_type 0x17d-0x17d.7 (1)
0x170|                                          03   |              . |      [54]: 3 transition_type 0x17e-0x17e.7 (1)
0x170|                                             02|               .|      [55]: 2 transition_type 0x17f-0x17f.7 (1)
0x180|03                                             |.               |      [56]: 3 transition_type 0x180-0x180.7 (1)
0x180|   02                                          | .              |      [57]: 2 transition_type 0x181-0x181.7 (1)
0x180|      03                                       |  .             |      [58]: 3 transition_type 0x182-0x182.7 (1)
0x180|         02                                    |   .            |      [59]: 2 transition_type 0x183-0x183.7 (1)
0x180|            03                                 |    .           |      [60]: 3 transition_type 0x184-0x184.7 (1)
0x180|               02                              |     .          |      [61]: 2 transition_type 0x185-0x185.7 (1)
0x180|                  03                           |      .         |      [62]: 3 transition_type 0x186-0x186.7 (1)
0x180|                     02                        |       .        |      [63]: 2 transition_type 0x187-0x187.7 (1)
0x180|                        03                     |        .       |      [64]: 3 transition_type 0x188-0x188.7 (1)
0x180|                           02                  |         .      |      [65]: 2 transition_type 0x189-0x189.7 (1)
0x180|                              03               |          .     |      [66]: 3 transition_type 0x18a-0x18a.7 (1)
0x180|                                 02            |           .    |      [67]: 2 transition_type 0x18b-0x18b.7 (1)
0x180|                                    03         |            .   |      [68]: 3 transition_type 0x18c-0x18c.7 (1)
0x180|                                       05      |             .  |      [69]: 5 transition_type 0x18d-0x18d.7 (1)
0x180|                                          05   |              . |      [70]: 5 transition_type 0x18e-0x18e.7 (1)
     |                                               |                |    local_time_type_records[0:7]: 0x18f-0x1b8.7 (42)
     |                                               |                |      [0]{}: local_time_type 0x18f-0x194.7 (6)
0x180|                                             ff|               .|        utoff: -13884 (valid) 0x18f-0x192.7 (4)
0x190|ff c9 c4                                       |...             |
0x190|         00                                    |   .            |        dst: 0 (valid) 0x193-0x193.7 (1)
0x190|            00                                 |    .           |        idx: 0 (valid) 0x194-0x194.7 (1)
     |                                               |                |      [1]{}: local_time_type 0x195-0x19a.7 (6)
0x190|               ff ff c9 c4                     |     ....       |        utoff: -13884 (valid) 0x195-0x198.7 (4)
0x190|                           00                  |         .      |        dst: 0 (valid) 0x199-0x199.7 (1)
0x190|                              04               |          .     |        idx: 4 (valid) 0x19a-0x19a.7 (1)
     |                                               |                |      [2]{}: local_time_type 0x19b-0x1a0.7 (6)
0x190|                                 ff ff d5 d0   |           .... |        utoff: -10800 (valid) 0x19b-0x19e.7 (4)
0x190|                                             01|               .|        dst: 1 (valid) 0x19f-0x19f.7 (1)
0x1a0|08                                             |.               |        idx: 8 (valid) 0x1a0-0x1a0.7 (1)
     |                                               |                |      [3]{}: local_time_type 0x1a1-0x1a6.7 (6)
0x1a0|   ff ff c7 c0                                 | ....           |        utoff: -14400 (valid) 0x1a1-0x1a4.7 (4)
0x1a0|               00                              |     .          |        dst: 0 (valid) 0x1a5-0x1a5.7 (1)
0x1a0|                  0c                           |      .         |        idx: 12 (valid) 0x1a6-0x1a6.7 (1)
     |                                               |                |      [4]{}: local_time_type 0x1a7-0x1ac.7 (6)
0x1a0|                     ff ff e3 e0               |       ....     |        utoff: -7200 (valid) 0x1a7-0x1aa.7 (4)
0x1a0|                                 01            |           .    |        dst: 1 (valid) 0x1ab-0x1ab.7 (1)
0x1a0|                                    10         |            .   |        idx: 16 (valid) 0x1ac-0x1ac.7 (1)
     |                                               |                |      [5]{}: local_time_type 0x1ad-0x1b2.7 (6)
0x1a0|                                       ff ff d5|             ...|        utoff: -10800 (valid) 0x1ad-0x1b0.7 (4)
0x1b0|d0                                             |.               |
0x1b0|   00                                          | .              |        dst: 0 (valid) 0x1b1-0x1b1.7 (1)
0x1b0|      08                                       |  .             |        idx: 8 (valid) 0x1b2-0x1b2.7 (1)
     |                                               |                |      [6]{}: local_time_type 0x1b3-0x1b8.7 (6)
0x1b0|         ff ff d5 d0                           |   ....         |        utoff: -10800 (valid) 0x1b3-0x1b6.7 (4)
0x1b0|                     01                        |       .        |        dst: 1 (valid) 0x1b7-0x1b7.7 (1)
0x1b0|                        08                     |        .       |        idx: 8 (valid) 0x1b8-0x1b8.7 (1)
     |                                               |                |    time_zone_designations[0:5]: 0x1b9-0x1cc.7 (20)
0x1b0|                           4c 4d 54 00         |         LMT.   |      [0]: "LMT" time_zone_designation 0x1b9-0x1bc.7 (4)
0x1b0|                                       53 4d 54|             SMT|      [1]: "SMT" time_zone_designation 0x1bd-0x1c0.7 (4)
0x1c0|00                                             |.               |
0x1c0|   2d 30 33 00                                 | -03.           |      [2]: "-03" time_zone_designation 0x1c1-0x1c4.7 (4)
0x1c0|               2d 30 34 00                     |     -04.       |      [3]: "-04" time_zone_designation 0x1c5-0x1c8.7 (4)
0x1c0|                           2d 30 32 00         |         -02.   |      [4]: "-02" time_zone_designation 0x1c9-0x1cc.7 (4)
     |                                               |                |    leap_second_records[0:27]: 0x1cd-0x2a4.7 (216)
     |                                               |                |      [0]{}: leap_second_record 0x1cd-0x1d4.7 (8)
0x1c0|                                       04 b2 58|             ..X|        occur: "1972-07-01T00:00:00Z" (78796800) 0x1cd-0x1d0.7 (4)
0x1d0|00                                             |.               |
0x1d0|   00 00 00 01                                 | ....           |        corr: 1 0x1d1-0x1d4.7 (4)
     |                                               |                |      [1]{}: leap_second_record 0x1d5-0x1dc.7 (8)
0x1d0|               05 a4 ec 01                     |     ....       |        occur: "1973-01-01T00:00:01Z" (94694401) 0x1d5-0x1d8.7 (4)
0x1d0|                           00 00 00 02         |         ....   |        corr: 2 0x1d9-0x1dc.7 (4)
     |                                               |                |      [2]{}: leap_second_record 0x1dd-0x1e4.7 (8)
0x1d0|                                       07 86 1f|             ...|        occur: "1974-01-01T00:00:02Z" (126230402) 0x1dd-0x1e0.7 (4)
0x1e0|82                                             |.               |
0x1e0|   00 00 00 03                                 | ....           |        corr: 3 0x1e1-0x1e4.7 (4)
     |                                               |                |      [3]{}: leap_second_record 0x1e5-0x1ec.7 (8)
0x1e0|               09 67 53 03                     |     .gS.       |        occur: "1975-01-01T00:00:03Z" (157766403) 0x1e5-0x1e8.7 (4)
0x1e0|                           00 00 00 04         |         ....   |        corr: 4 0x1e9-0x1ec.7 (4)
     |                                               |                |      [4]{}: leap_second_record 0x1ed-0x1f4.7 (8)
0x1e0|                                       0b 48 86|             .H.|        occur: "1976-01-01T00:00:04Z" (189302404) 0x1ed-0x1f0.7 (4)
0x1f0|84                                             |.               |
0x1f0|   00 00 00 05                                 | ....           |        corr: 5 0x1f1-0x1f4.7 (4)
     |                                               |                |      [5]{}: leap_second_record 0x1f5-0x1fc.7 (8)
0x1f0|               0d 2b 0b 85                     |     .+..       |        occur: "1977-01-01T00:00:05Z" (220924805) 0x1f5-0x1f8.7 (4)
0x1f0|                           00 00 00 06         |         ....   |        corr: 6 0x1f9-0x1fc.7 (4)
     |                                               |                |      [6]{}: leap_second_record 0x1fd-0x204.7 (8)
0x1f0|                                       0f 0c 3f|             ..?|        occur: "1978-01-01T00:00:06Z" (252460806) 0x1fd-0x200.7 (4)
0x200|06                                             |.               |
0x200|   00 00 00 07                                 | ....           |        corr: 7 0x201-0x204.7 (4)
     |                                               |                |      [7]{}: leap_second_record 0x205-0x20c.7 (8)
0x200|               10 ed 72 87                     |     ..r.       |        occur: "1979-01-01T00:00:07Z" (283996807) 0x205-0x208.7 (4)
0x200|                           00 00 00 08         |         ....   |        corr: 8 0x209-0x20c.7 (4)
     |                                               |                |      [8]{}: leap_second_record 0x20d-0x214.7 (8)
0x200|                                       12 ce a6|             ...|        occur: "1980-01-01T00:00:08Z" (315532808) 0x20d-0x210.7 (4)
0x210|08                                             |.               |
0x210|   00 00 00 09                                 | ....           |        corr: 9 0x211-0x214.7 (4)
     |                                               |                |      [9]{}: leap_second_record 0x215-0x21c.7 (8)
0x210|               15 9f ca 89                     |     ....       |        occur: "1981-07-01T00:00:09Z" (362793609) 0x215-0x218.7 (4)
0x210|                           00 00 00 0a         |         ....   |        corr: 10 0x219-0x21c.7 (4)
     |                                               |                |      [10]{}: leap_second_record 0x21d-0x224.7 (8)
0x210|                                       17 80 fe|             ...|        occur: "1982-07-01T00:00:10Z" (394329610) 0x21d-0x220.7 (4)
0x220|0a                                             |.               |
0x220|   00 00 00 0b                                 | ....           |        corr: 11 0x221-0x224.7 (4)
     |                                               |                |      [11]{}: leap_second_record 0x225-0x22c.7 (8)
0x220|               19 62 31 8b                     |     .b1.       |        occur: "1983-07-01T00:00:11Z" (425865611) 0x225-0x228.7 (4)
0x220|                           00 00 00 0c         |         ....   |        corr: 12 0x229-0x22c.7 (4)
     |                                               |                |      [12]{}: leap_second_record 0x22d-0x234.7 (8)
0x220|                                       1d 25 ea|             .%.|        occur: "1985-07-01T00:00:12Z" (489024012) 0x22d-0x230.7 (4)
0x230|0c                                             |.               |
0x230|   00 00 00 0d                                 | ....           |        corr: 13 0x231-0x234.7 (4)
     |                                               |                |      [13]{}: leap_second_record 0x235-0x23c.7 (8)
0x230|               21 da e5 0d                     |     !...       |        occur: "1988-01-01T00:00:13Z" (567993613) 0x235-0x238.7 (4)
0x230|                           00 00 00 0e         |         ....   |        corr: 14 0x239-0x23c.7 (4)
     |                                               |                |      [14]{}: leap_second_record 0x23d-0x244.7 (8)
0x230|                                       25 9e 9d|             %..|        occur: "1990-01-01T00:00:14Z" (631152014) 0x23d-0x240.7 (4)
0x240|8e                                             |.               |
0x240|   00 00 00 0f                                 | ....           |        corr: 15 0x241-0x244.7 (4)
     |                                               |                |      [15]{}: leap_second_record 0x245-0x24c.7 (8)
0x240|               27 7f d1 0f                     |     '...       |        occur: "1991-01-01T00:00:15Z" (662688015) 0x245-0x248.7 (4)
0x240|                           00 00 00 10         |         ....   |        corr: 16 0x249-0x24c.7 (4)
     |                                               |                |      [16]{}: leap_second_record 0x24d-0x254.7 (8)
0x240|                                       2a 50 f5|             *P.|        occur: "1992-07-01T00:00:16Z" (709948816) 0x24d-0x250.7 (4)
0x250|90                                             |.               |
0x250|   00 00 00 11                                 | ....           |        corr: 17 0x251-0x254.7 (4)
     |                                               |                |      [17]{}: leap_second_record 0x255-0x25c.7 (8)
0x250|               2c 32 29 11                     |     ,2).       |        occur: "1993-07-01T00:00:17Z" (741484817) 0x255-0x258.7 (4)
0x250|                           00 00 00 12         |         ....   |        corr: 18 0x259-0x25c.7 (4)
     |                                               |                |      [18]{}: leap_second_record 0x25d-0x264.7 (8)
0x250|                                       2e 13 5c|             ..\|        occur: "1994-07-01T00:00:18Z" (773020818) 0x25d-0x260.7 (4)
0x260|92                                             |.               |
0x260|   00 00 00 13                                 | ....           |        corr: 19 0x261-0x264.7 (4)
     |                                               |                |      [19]{}: leap_second_record 0x265-0x26c.7 (8)
0x260|               30 e7 24 13                     |     0.$.       |        occur: "1996-01-01T00:00:19Z" (820454419) 0x265-0x268.7 (4)
0x260|                           00 00 00 14         |         ....   |        corr: 20 0x269-0x26c.7 (4)
     |                                               |                |      [20]{}: leap_second_record 0x26d-0x274.7 (8)
0x260|                                       33 b8 48|             3.H|        occur: "1997-07-01T00:00:20Z" (867715220) 0x26d-0x270.7 (4)
0x270|94                                             |.               |
0x270|   00 00 00 15                                 | ....           |        corr: 21 0x271-0x274.7 (4)
     |                                               |                |      [21]{}: leap_second_record 0x275-0x27c.7 (8)
0x270|               36 8c 10 15                     |     6...       |        occur: "1999-01-01T00:00:21Z" (915148821) 0x275-0x278.7 (4)
0x270|                           00 00 00 16         |         ....   |        corr: 22 0x279-0x27c.7 (4)
     |                                               |                |      [22]{}: leap_second_record 0x27d-0x284.7 (8)
0x270|                                       43 b7 1b|             C..|        occur: "2006-01-01T00:00:22Z" (1136073622) 0x27d-0x280.7 (4)
0x280|96                                             |.               |
0x280|   00 00 00 17                                 | ....           |        corr: 23 0x281-0x284.7 (4)
     |                                               |                |      [23]{}: leap_second_record 0x285-0x28c.7 (8)
0x280|               49 5c 07 97                     |     I\..       |        occur: "2009-01-01T00:00:23Z" (1230768023) 0x285-0x288.7 (4)
0x280|                           00 00 00 18         |         ....   |        corr: 24 0x289-0x28c.7 (4)
     |                                               |                |      [24]{}: leap_second_record 0x28d-0x294.7 (8)
0x280|                                       4f ef 93|             O..|        occur: "2012-07-01T00:00:24Z" (1341100824) 0x28d-0x290.7 (4)
0x290|18                                             |.               |
0x290|   00 00 00 19                                 | ....           |        corr: 25 0x291-0x294.7 (4)
     |                                               |                |      [25]{}: leap_second_record 0x295-0x29c.7 (8)
0x290|               55 93 2d 99                     |     U.-.       |        occur: "2015-07-01T00:00:25Z" (1435708825) 0x295-0x298.7 (4)
0x290|                           00 00 00 1a         |         ....   |        corr: 26 0x299-0x29c.7 (4)
     |                                               |                |      [26]{}: leap_second_record 0x29d-0x2a4.7 (8)
0x290|                                       58 68 46|             XhF|        occur: "2017-01-01T00:00:26Z" (1483228826) 0x29d-0x2a0.7 (4)
0x2a0|9a                                             |.               |
0x2a0|   00 00 00 1b                                 | ....           |        corr: 27 0x2a1-0x2a4.7 (4)
     |                                               |                |    standard_wall_indicators[0:0]: 0x2a5-NA (0)
     |                                               |                |    ut_local_indicators[0:0]: 0x2a5-NA (0)
     |                                               |                |  v2plusheader{}: 0x2a5-0x2d0.7 (44)
0x2a0|               54 5a 69 66                     |     TZif       |    magic: 0x545a6966 (valid) 0x2a5-0x2a8.7 (4)
0x2a0|                           32                  |         2      |    ver: "2" (0x32) (valid) 0x2a9-0x2a9.7 (1)
0x2a0|                              00 00 00 00 00 00|          ......|    reserved: raw bits 0x2aa-0x2b8.7 (15)
0x2b0|00 00 00 00 00 00 00 00 00                     |.........       |
0x2b0|                           00 00 00 00         |         ....   |    isutcnt: 0 0x2b9-0x2bc.7 (4)
0x2b0|                                       00 00 00|             ...|    isstdcnt: 0 0x2bd-0x2c0.7 (4)
0x2c0|00                                             |.               |
0x2c0|   00 00 00 1b                                 | ....           |    leapcnt: 27 0x2c1-0x2c4.7 (4)
0x2c0|               00 00 00 47                     |     ...G       |    timecnt: 71 0x2c5-0x2c8.7 (4)
0x2c0|                           00 00 00 07         |         ....   |    typecnt: 7 0x2c9-0x2cc.7 (4)
0x2c0|                                       00 00 00|             ...|    charcnt: 20 0x2cd-0x2d0.7 (4)
0x2d0|14                                             |.               |
     |                                               |                |  v2plusdatablock{}: 0x2d1-0x6d1.7 (1025)
     |                                               |                |    transition_times[0:71]: 0x2d1-0x508.7 (568)
0x2d0|   ff ff ff ff 69 87 11 bc                     | ....i...       |      [0]: "1890-01-01T03:51:24Z" (-2524507716) transition_time 0x2d1-0x2d8.7 (8)
0x2d0|                           ff ff ff ff 93 44 5f|         .....D_|      [1]: "1912-03-12T03:51:24Z" (-1824235716) transition_time 0x2d9-0x2e0.7 (8)
0x2e0|3c                                             |<               |
0x2e0|   ff ff ff ff c3 4f 5a c0                     | .....OZ.       |      [2]: "1937-09-26T04:00:00Z" (-1018209600) transition_time 0x2e1-0x2e8.7 (8)
0x2e0|                           ff ff ff ff c4 36 03|         .....6.|      [3]: "1938-03-20T03:00:00Z" (-1003093200) transition_time 0x2e9-0x2f0.7 (8)
0x2f0|30                                             |0               |
0x2f0|   ff ff ff ff c5 2f 3c c0                     | ...../<.       |      [4]: "1938-09-25T04:00:00Z" (-986760000) transition_time 0x2f1-0x2f8.7 (8)
0x2f0|                           ff ff ff ff c6 15 e5|         .......|      [5]: "1939-03-19T03:00:00Z" (-971643600) transition_time 0x2f9-0x300.7 (8)
0x300|30                                             |0               |
0x300|   ff ff ff ff c7 18 59 40                     | ......Y@       |      [6]: "1939-10-01T04:00:00Z" (-954705600) transition_time 0x301-0x308.7 (8)
0x300|                           ff ff ff ff c7 ff 01|         .......|      [7]: "1940-03-24T03:00:00Z" (-939589200) transition_time 0x309-0x310.7 (8)
0x310|b0                                             |.               |
0x310|   ff ff ff ff c8 f8 3b 40                     | ......;@       |      [8]: "1940-09-29T04:00:00Z" (-923256000) transition_time 0x311-0x318.7 (8)
0x310|                           ff ff ff ff c9 de e3|         .......|      [9]: "1941-03-23T03:00:00Z" (-908139600) transition_time 0x319-0x320.7 (8)
0x320|b0                                             |.               |
0x320|   ff ff ff ff ca d8 1d 40                     | .......@       |      [10]: "1941-09-28T04:00:00Z" (-891806400) transition_time 0x321-0x328.7 (8)
0x320|                           ff ff ff ff cb be c5|         .......|      [11]: "1942-03-22T03:00:00Z" (-876690000) transition_time 0x329-0x330.7 (8)
0x330|b0                                             |.               |
0x330|   ff ff ff ff cc b7 ff 40                     | .......@       |      [12]: "1942-09-27T04:00:00Z" (-860356800) transition_time 0x331-0x338.7 (8)
0x330|                           ff ff ff ff cd 36 81|         .....6.|      [13]: "1943-01-01T03:00:00Z" (-852066000) transition_time 0x339-0x340.7 (8)
0x340|30                                             |0               |
0x340|   00 00 00 00 19 11 fe 4b                     | .......K       |      [14]: "1983-05-01T04:00:11Z" (420609611) transition_time 0x341-0x348.7 (8)
0x340|                           00 00 00 00 19 d3 bc|         .......|      [15]: "1983-09-25T03:00:12Z" (433306812) transition_time 0x349-0x350.7 (8)
0x350|bc                                             |.               |
0x350|   00 00 00 00 1a f1 c4 2c                     | .......,       |      [16]: "1984-04-29T02:00:12Z" (452052012) transition_time 0x351-0x358.7 (8)
0x350|                           00 00 00 00 1b aa 64|         ......d|      [17]: "1984-09-16T03:00:12Z" (464151612) transition_time 0x359-0x360.7 (8)
0x360|3c                                             |<               |
0x360|   00 00 00 00 1c d1 a6 2c                     | .......,       |      [18]: "1985-04-28T02:00:12Z" (483501612) transition_time 0x361-0x368.7 (8)
0x360|                           00 00 00 00 1d 8a 46|         ......F|      [19]: "1985-09-15T03:00:13Z" (495601213) transition_time 0x369-0x370.7 (8)
0x370|3d                                             |=               |
0x370|   00 00 00 00 1e a8 5b bd                     | ......[.       |      [20]: "1986-04-20T03:00:13Z" (514350013) transition_time 0x371-0x378.7 (8)
0x370|                           00 00 00 00 1f 6a 36|         .....j6|      [21]: "1986-09-14T04:00:13Z" (527054413) transition_time 0x379-0x380.7 (8)
0x380|4d                                             |M               |
0x380|   00 00 00 00 20 88 3d bd                     | .... .=.       |      [22]: "1987-04-19T03:00:13Z" (545799613) transition_time 0x381-0x388.7 (8)
0x380|                           00 00 00 00 21 4a 18|         ....!J.|      [23]: "1987-09-13T04:00:13Z" (558504013) transition_time 0x389-0x390.7 (8)
0x390|4d                                             |M               |
0x390|   00 00 00 00 22 68 1f be                     | ...."h..       |      [24]: "1988-04-17T03:00:14Z" (577249214) transition_time 0x391-0x398.7 (8)
0x390|                           00 00 00 00 23 29 fa|         ....#).|      [25]: "1988-09-11T04:00:14Z" (589953614) transition_time 0x399-0x3a0.7 (8)
0x3a0|4e                                             |N               |
0x3a0|   00 00 00 00 24 48 01 be                     | ....$H..       |      [26]: "1989-04-16T03:00:14Z" (608698814) transition_time 0x3a1-0x3a8.7 (8)
0x3a0|                           00 00 00 00 25 09 dc|         ....%..|      [27]: "1989-09-10T04:00:14Z" (621403214) transition_time 0x3a9-0x3b0.7 (8)
0x3b0|4e                                             |N               |
0x3b0|   00 00 00 00 26 31 1e 3f                     | ....&1.?       |      [28]: "1990-04-22T03:00:15Z" (640753215) transition_time 0x3b1-0x3b8.7 (8)
0x3b0|                           00 00 00 00 26 e9 be|         ....&..|      [29]: "1990-09-09T04:00:15Z" (652852815) transition_time 0x3b9-0x3c0.7 (8)
0x3c0|4f                                             |O               |
0x3c0|   00 00 00 00 28 11 00 40                     | ....(..@       |      [30]: "1991-04-21T03:00:16Z" (672202816) transition_time 0x3c1-0x3c8.7 (8)
0x3c0|                           00 00 00 00 28 d2 da|         ....(..|      [31]: "1991-09-15T04:00:16Z" (684907216) transition_time 0x3c9-0x3d0.7 (8)
0x3d0|d0                                             |.               |
0x3d0|   00 00 00 00 29 f0 e2 40                     | ....)..@       |      [32]: "1992-04-19T03:00:16Z" (703652416) transition_time 0x3d1-0x3d8.7 (8)
0x3d0|                           00 00 00 00 2a b2 bc|         ....*..|      [33]: "1992-09-13T04:00:17Z" (716356817) transition_time 0x3d9-0x3e0.7 (8)
0x3e0|d1                                             |.               |
0x3e0|   00 00 00 00 2b d0 c4 41                     | ....+..A       |      [34]: "1993-04-18T03:00:17Z" (735102017) transition_time 0x3e1-0x3e8.7 (8)
0x3e0|                           00 00 00 00 2c 92 9e|         ....,..|      [35]: "1993-09-12T04:00:18Z" (747806418) transition_time 0x3e9-0x3f0.7 (8)
0x3f0|d2                                             |.               |
0x3f0|   00 00 00 00 2d b0 a6 42                     | ....-..B       |      [36]: "1994-04-17T03:00:18Z" (766551618) transition_time 0x3f1-0x3f8.7 (8)
0x3f0|                           00 00 00 00 2e 72 80|         .....r.|      [37]: "1994-09-11T04:00:19Z" (779256019) transition_time 0x3f9-0x400.7 (8)
0x400|d3                                             |.               |
0x400|   00 00 00 00 2f 90 88 43                     | ..../..C       |      [38]: "1995-04-16T03:00:19Z" (798001219) transition_time 0x401-0x408.7 (8)
0x400|                           00 00 00 00 30 52 62|         ....0Rb|      [39]: "1995-09-10T04:00:19Z" (810705619) transition_time 0x409-0x410.7 (8)
0x410|d3                                             |.               |
0x410|   00 00 00 00 31 79 a4 c4                     | ....1y..       |      [40]: "1996-04-21T03:00:20Z" (830055620) transition_time 0x411-0x418.7 (8)
0x410|                           00 00 00 00 32 3b 7f|         ....2;.|      [41]: "1996-09-15T04:00:20Z" (842760020) transition_time 0x419-0x420.7 (8)
0x420|54                                             |T               |
0x420|   00 00 00 00 33 59 86 c4                     | ....3Y..       |      [42]: "1997-04-20T03:00:20Z" (861505220) transition_time 0x421-0x428.7 (8)
0x420|                           00 00 00 00 34 1b 61|         ....4.a|      [43]: "1997-09-14T04:00:21Z" (874209621) transition_time 0x429-0x430.7 (8)
0x430|55                                             |U               |
0x430|   00 00 00 00 35 39 68 c5                     | ....59h.       |      [44]: "1998-04-19T03:00:21Z" (892954821) transition_time 0x431-0x438.7 (8)
0x430|                           00 00 00 00 35 fb 43|         ....5.C|      [45]: "1998-09-13T04:00:21Z" (905659221) transition_time 0x439-0x440.7 (8)
0x440|55                                             |U               |
0x440|   00 00 00 00 37 19 4a c6                     | ....7.J.       |      [46]: "1999-04-18T03:00:22Z" (924404422) transition_time 0x441-0x448.7 (8)
0x440|                           00 00 00 00 37 db 25|         ....7.%|      [47]: "1999-09-12T04:00:22Z" (937108822) transition_time 0x449-0x450.7 (8)
0x450|56                                             |V               |
0x450|   00 00 00 00 38 f9 2c c6                     | ....8.,.       |      [48]: "2000-04-16T03:00:22Z" (955854022) transition_time 0x451-0x458.7 (8)
0x450|                           00 00 00 00 39 bb 07|         ....9..|      [49]: "2000-09-10T04:00:22Z" (968558422) transition_time 0x459-0x460.7 (8)
0x460|56                                             |V               |
0x460|   00 00 00 00 3a d9 2a e6                     | ....:.*.       |      [50]: "2001-04-15T05:00:22Z" (987310822) transition_time 0x461-0x468.7 (8)
0x460|                           00 00 00 00 3b 91 ca|         ....;..|      [51]: "2001-09-02T06:00:22Z" (999410422) transition_time 0x469-0x470.7 (8)
0x470|f6                                             |.               |
0x470|   00 00 00 00 3c c2 47 66                     | ....<.Gf       |      [52]: "2002-04-21T05:00:22Z" (1019365222) transition_time 0x471-0x478.7 (8)
0x470|                           00 00 00 00 3d 71 ac|         ....=q.|      [53]: "2002-09-01T06:00:22Z" (1030860022) transition_time 0x479-0x480.7 (8)
0x480|f6                                             |.               |
0x480|   00 00 00 00 3e a2 29 66                     | ....>.)f       |      [54]: "2003-04-20T05:00:22Z" (1050814822) transition_time 0x481-0x488.7 (8)
0x480|                           00 00 00 00 3f 5a c9|         ....?Z.|      [55]: "2003-09-07T06:00:22Z" (1062914422) transition_time 0x489-0x490.7 (8)
0x490|76                                             |v               |
0x490|   00 00 00 00 40 82 0b 66                     | ....@..f       |      [56]: "2004-04-18T05:00:22Z" (1082264422) transition_time 0x491-0x498.7 (8)
0x490|                           00 00 00 00 41 3a ab|         ....A:.|      [57]: "2004-09-05T06:00:22Z" (1094364022) transition_time 0x499-0x4a0.7 (8)
0x4a0|76                                             |v               |
0x4a0|   00 00 00 00 42 61 ed 66                     | ....Ba.f       |      [58]: "2005-04-17T05:00:22Z" (1113714022) transition_time 0x4a1-0x4a8.7 (8)
0x4a0|                           00 00 00 00 43 1a 8d|         ....C..|      [59]: "2005-09-04T06:00:22Z" (1125813622) transition_time 0x4a9-0x4b0.7 (8)
0x4b0|76                                             |v               |
0x4b0|   00 00 00 00 44 41 cf 67                     | ....DA.g       |      [60]: "2006-04-16T05:00:23Z" (1145163623) transition_time 0x4b1-0x4b8.7 (8)
0x4b0|                           00 00 00 00 44 fa 6f|         ....D.o|      [61]: "2006-09-03T06:00:23Z" (1157263223) transition_time 0x4b9-0x4c0.7 (8)
0x4c0|77                                             |w               |
0x4c0|   00 00 00 00 46 21 b1 67                     | ....F!.g       |      [62]: "2007-04-15T05:00:23Z" (1176613223) transition_time 0x4c1-0x4c8.7 (8)
0x4c0|                           00 00 00 00 46 da 51|         ....F.Q|      [63]: "2007-09-02T06:00:23Z" (1188712823) transition_time 0x4c9-0x4d0.7 (8)
0x4d0|77                                             |w               |
0x4d0|   00 00 00 00 48 0a cd e7                     | ....H...       |      [64]: "2008-04-20T05:00:23Z" (1208667623) transition_time 0x4d1-0x4d8.7 (8)
0x4d0|                           00 00 00 00 48 c3 6d|         ....H.m|      [65]: "2008-09-07T06:00:23Z" (1220767223) transition_time 0x4d9-0x4e0.7 (8)
0x4e0|f7                                             |.               |
0x4e0|   00 00 00 00 49 ea af e8                     | ....I...       |      [66]: "2009-04-19T05:00:24Z" (1240117224) transition_time 0x4e1-0x4e8.7 (8)
0x4e0|                           00 00 00 00 4a a3 4f|         ....J.O|      [67]: "2009-09-06T06:00:24Z" (1252216824) transition_time 0x4e9-0x4f0.7 (8)
0x4f0|f8                                             |.               |
0x4f0|   00 00 00 00 4b ca 91 e8                     | ....K...       |      [68]: "2010-04-18T05:00:24Z" (1271566824) transition_time 0x4f1-0x4f8.7 (8)
0x4f0|                           00 00 00 00 4c 83 31|         ....L.1|      [69]: "2010-09-05T06:00:24Z" (1283666424) transition_time 0x4f9-0x500.7 (8)
0x500|f8                                             |.               |
0x500|   00 00 00 00 64 9b 78 1b                     | ....d.x.       |      [70]: "2023-06-28T00:00:27Z" (1687910427) transition_time 0x501-0x508.7 (8)
     |                                               |                |    transition_types[0:71]: 0x509-0x54f.7 (71)
0x500|                           01                  |         .      |      [0]: 1 transition_type 0x509-0x509.7 (1)
0x500|                              03               |          .     |      [1]: 3 transition_type 0x50a-0x50a.7 (1)
0x500|                                 02            |           .    |      [2]: 2 transition_type 0x50b-0x50b.7 (1)
0x500|                                    03         |            .   |      [3]: 3 transition_type 0x50c-0x50c.7 (1)
0x500|                                       02      |             .  |      [4]: 2 transition_type 0x50d-0x50d.7 (1)
0x500|                                          03   |              . |      [5]: 3 transition_type 0x50e-0x50e.7 (1)
0x500|                                             02|               .|      [6]: 2 transition_type 0x50f-0x50f.7 (1)
0x510|03                                             |.               |      [7]: 3 transition_type 0x510-0x510.7 (1)
0x510|   02                                          | .              |      [8]: 2 transition_type 0x511-0x511.7 (1)
0x510|      03                                       |  .             |      [9]: 3 transition_type 0x512-0x512.7 (1)
0x510|         02                                    |   .            |      [10]: 2 transition_type 0x513-0x513.7 (1)
0x510|            03                                 |    .           |      [11]: 3 transition_type 0x514-0x514.7 (1)
0x510|               02                              |     .          |      [12]: 2 transition_type 0x515-0x515.7 (1)
0x510|                  03                           |      .         |      [13]: 3 transition_type 0x516-0x516.7 (1)
0x510|                     05                        |       .        |      [14]: 5 transition_type 0x517-0x517.7 (1)
0x510|                        04                     |        .       |      [15]: 4 transition_type 0x518-0x518.7 (1)
0x510|                           05                  |         .      |      [16]: 5 transition_type 0x519-0x519.7 (1)
0x510|                              04               |          .     |      [17]: 4 transition_type 0x51a-0x51a.7 (1)
0x510|                                 05            |           .    |      [18]: 5 transition_type 0x51b-0x51b.7 (1)
0x510|                                    02         |            .   |      [19]: 2 transition_type 0x51c-0x51c.7 (1)
0x510|                                       03      |             .  |      [20]: 3 transition_type 0x51d-0x51d.7 (1)
0x510|                                          02   |              . |      [21]: 2 transition_type 0x51e-0x51e.7 (1)
0x510|                                             03|               .|      [22]: 3 transition_type 0x51f-0x51f.7 (1)
0x520|02                                             |.               |      [23]: 2 transition_type 0x520-0x520.7 (1)
0x520|   03                                          | .              |      [24]: 3 transition_type 0x521-0x521.7 (1)
0x520|      02                                       |  .             |      [25]: 2 transition_type 0x522-0x522.7 (1)
0x520|         03                                    |   .            |      [26]: 3 transition_type 0x523-0x523.7 (1)
0x520|            02                                 |    .           |      [27]: 2 transition_type 0x524-0x524.7 (1)
0x520|               03                              |     .          |      [28]: 3 transition_type 0x525-0x525.7 (1)
0x520|                  02                           |      .         |      [29]: 2 transition_type 0x526-0x526.7 (1)
0x520|                     03                        |       .        |      [30]: 3 transition_type 0x527-0x527.7 (1)
0x520|                        02                     |        .       |      [31]: 2 transition_type 0x528-0x528.7 (1)
0x520|                           03                  |         .      |      [32]: 3 transition_type 0x529-0x529.7 (1)
0x520|                              02               |          .     |      [33]: 2 transition_type 0x52a-0x52a.7 (1)
0x520|                                 03            |           .    |      [34]: 3 transition_type 0x52b-0x52b.7 (1)
0x520|                                    02         |            .   |      [35]: 2 transition_type 0x52c-0x52c.7 (1)
0x520|                                       03      |             .  |      [36]: 3 transition_type 0x52d-0x52d.7 (1)
0x520|                                          02   |              . |      [37]: 2 transition_type 0x52e-0x52e.7 (1)
0x520|                                             03|               .|      [38]: 3 transition_type 0x52f-0x52f.7 (1)
0x530|02                                             |.               |      [39]: 2 transition_type 0x530-0x530.7 (1)
0x530|   03                                          | .              |      [40]: 3 transition_type 0x531-0x531.7 (1)
0x530|      02                                       |  .             |      [41]: 2 transition_type 0x532-0x532.7 (1)
0x530|         03                                    |   .            |      [42]: 3 transition_type 0x533-0x533.7 (1)
0x530|            02                                 |    .           |      [43]: 2 transition_type 0x534-0x534.7 (1)
0x530|               03                              |     .          |      [44]: 3 transition_type 0x535-0x535.7 (1)
0x530|                  02                           |      .         |      [45]: 2 transition_type 0x536-0x536.7 (1)
0x530|                     03                        |       .        |      [46]: 3 transition_type 0x537-0x537.7 (1)
0x530|                        02                     |        .       |      [47]: 2 transition_type 0x538-0x538.7 (1)
0x530|                           03                  |         .      |      [48]: 3 transition_type 0x539-0x539.7 (1)
0x530|                              02               |          .     |      [49]: 2 transition_type 0x53a-0x53a.7 (1)
0x530|                                 03            |           .    |      [50]: 3 transition_type 0x53b-0x53b.7 (1)
0x530|                                    02         |            .   |      [51]: 2 transition_type 0x53c-0x53c.7 (1)
0x530|                                       03      |             .  |      [52]: 3 transition_type 0x53d-0x53d.7 (1)
0x530|                                          02   |              . |      [53]: 2 transition_type 0x53e-0x53e.7 (1)
0x530|                                             03|               .|      [54]: 3 transition_type 0x53f-0x53f.7 (1)
0x540|02                                             |.               |      [55]: 2 transition_type 0x540-0x540.7 (1)
0x540|   03                                          | .              |      [56]: 3 transition_type 0x541-0x541.7 (1)
0x540|      02                                       |  .             |      [57]: 2 transition_type 0x542-0x542.7 (1)
0x540|         03                                    |   .            |      [58]: 3 transition_type 0x543-0x543.7 (1)
0x540|            02                                 |    .           |      [59]: 2 transition_type 0x544-0x544.7 (1)
0x540|               03                              |     .          |      [60]: 3 transition_type 0x545-0x545.7 (1)
0x540|                  02                           |      .         |      [61]: 2 transition_type 0x546-0x546.7 (1)
0x540|                     03                        |       .        |      [62]: 3 transition_type 0x547-0x547.7 (1)
0x540|                        02                     |        .       |      [63]: 2 transition_type 0x548-0x548.7 (1)
0x540|                           03                  |         .      |      [64]: 3 transition_type 0x549-0x549.7 (1)
0x540|                              02               |          .     |      [65]: 2 transition_type 0x54a-0x54a.7 (1)
0x540|                                 03            |           .    |      [66]: 3 transition_type 0x54b-0x54b.7 (1)
0x540|                                    02         |            .   |      [67]: 2 transition_type 0x54c-0x54c.7 (1)
0x540|                                       03      |             .  |      [68]: 3 transition_type 0x54d-0x54d.7 (1)
0x540|                                          05   |              . |      [69]: 5 transition_type 0x54e-0x54e.7 (1)
0x540|                                             05|               .|      [70]: 5 transition_type 0x54f-0x54f.7 (1)
     |                                               |                |    local_time_type_records[0:7]: 0x550-0x579.7 (42)
     |                                               |                |      [0]{}: local_time_type 0x550-0x555.7 (6)
0x550|ff ff c9 c4                                    |....            |        utoff: -13884 (valid) 0x550-0x553.7 (4)
0x550|            00                                 |    .           |        dst: 0 (valid) 0x554-0x554.7 (1)
0x550|               00                              |     .          |        idx: 0 (valid) 0x555-0x555.7 (1)
     |                                               |                |      [1]{}: local_time_type 0x556-0x55b.7 (6)
0x550|                  ff ff c9 c4                  |      ....      |        utoff: -13884 (valid) 0x556-0x559.7 (4)
0x550|                              00               |          .     |        dst: 0 (valid) 0x55a-0x55a.7 (1)
0x550|                                 04            |           .    |        idx: 4 (valid) 0x55b-0x55b.7 (1)
     |                                               |                |      [2]{}: local_time_type 0x55c-0x561.7 (6)
0x550|                                    ff ff d5 d0|            ....|        utoff: -10800 (valid) 0x55c-0x55f.7 (4)
0x560|01                                             |.               |        dst: 1 (valid) 0x560-0x560.7 (1)
0x560|   08                                          | .              |        idx: 8 (valid) 0x561-0x561.7 (1)
     |                                               |                |      [3]{}: local_time_type 0x562-0x567.7 (6)
0x560|      ff ff c7 c0                              |  ....          |        utoff: -14400 (valid) 0x562-0x565.7 (4)
0x560|                  00                           |      .         |        dst: 0 (valid) 0x566-0x566.7 (1)
0x560|                     0c                        |       .        |        idx: 12 (valid) 0x567-0x567.7 (1)
     |                                               |                |      [4]{}: local_time_type 0x568-0x56d.7 (6)
0x560|                        ff ff e3 e0            |        ....    |        utoff: -7200 (valid) 0x568-0x56b.7 (4)
0x560|                                    01         |            .   |        dst: 1 (valid) 0x56c-0x56c.7 (1)
0x560|                                       10      |             .  |        idx: 16 (valid) 0x56d-0x56d.7 (1)
     |                                               |                |      [5]{}: local_time_type 0x56e-0x573.7 (6)
0x560|                                          ff ff|              ..|        utoff: -10800 (valid) 0x56e-0x571.7 (4)
0x570|d5 d0                                          |..              |
0x570|      00                                       |  .             |        dst: 0 (valid) 0x572-0x572.7 (1)
0x570|         08                                    |   .            |        idx: 8 (valid) 0x573-0x573.7 (1)
     |                                               |                |      [6]{}: local_time_type 0x574-0x579.7 (6)
0x570|            ff ff d5 d0                        |    ....        |        utoff: -10800 (valid) 0x574-0x577.7 (4)
0x570|                        01                     |        .       |        dst: 1 (valid) 0x578-0x578.7 (1)
0x570|                           08                  |         .      |        idx: 8 (valid) 0x579-0x579.7 (1)
     |                                               |                |    time_zone_designations[0:5]: 0x57a-0x58d.7 (20)
0x570|                              4c 4d 54 00      |          LMT.  |      [0]: "LMT" time_zone_designation 0x57a-0x57d.7 (4)
0x570|                                          53 4d|              SM|      [1]: "SMT" time_zone_designation 0x57e-0x581.7 (4)
0x580|54 00                                          |T.              |
0x580|      2d 30 33 00                              |  -03.          |      [2]: "-03" time_zone_designation 0x582-0x585.7 (4)
0x580|                  2d 30 34 00                  |      -04.      |      [3]: "-04" time_zone_designation 0x586-0x589.7 (4)
0x580|                              2d 30 32 00      |          -02.  |      [4]: "-02" time_zone_designation 0x58a-0x58d.7 (4)
     |                                               |                |    leap_second_records[0:27]: 0x58e-0x6d1.7 (324)
     |                                               |                |      [0]{}: leap_second_record 0x58e-0x599.7 (12)
0x580|                                          00 00|              ..|        occur: "1972-07-01T00:00:00Z" (78796800) 0x58e-0x595.7 (8)
0x590|00 00 04 b2 58 00                              |....X.          |
0x590|                  00 00 00 01                  |      ....      |        corr: 1 0x596-0x599.7 (4)
     |                                               |                |      [1]{}: leap_second_record 0x59a-0x5a5.7 (12)
0x590|                              00 00 00 00 05 a4|          ......|        occur: "1973-01-01T00:00:01Z" (94694401) 0x59a-0x5a1.7 (8)
0x5a0|ec 01                                          |..              |
0x5a0|      00 00 00 02                              |  ....          |        corr: 2 0x5a2-0x5a5.7 (4)
     |                                               |                |      [2]{}: leap_second_record 0x5a6-0x5b1.7 (12)
0x5a0|                  00 00 00 00 07 86 1f 82      |      ........  |        occur: "1974-01-01T00:00:02Z" (126230402) 0x5a6-0x5ad.7 (8)
0x5a0|                                          00 00|              ..|        corr: 3 0x5ae-0x5b1.7 (4)
0x5b0|00 03                                          |..              |
     |                                               |                |      [3]{}: leap_second_record 0x5b2-0x5bd.7 (12)
0x5b0|      00 00 00 00 09 67 53 03                  |  .....gS.      |        occur: "1975-01-01T00:00:03Z" (157766403) 0x5b2-0x5b9.7 (8)
0x5b0|                              00 00 00 04      |          ....  |        corr: 4 0x5ba-0x5bd.7 (4)
     |                                               |                |      [4]{}: leap_second_record 0x5be-0x5c9.7 (12)
0x5b0|                                          00 00|              ..|        occur: "1976-01-01T00:00:04Z" (189302404) 0x5be-0x5c5.7 (8)
0x5c0|00 00 0b 48 86 84                              |...H..          |
0x5c0|                  00 00 00 05                  |      ....      |        corr: 5 0x5c6-0x5c9.7 (4)
     |                                               |                |      [5]{}: leap_second_record 0x5ca-0x5d5.7 (12)
0x5c0|                              00 00 00 00 0d 2b|          .....+|        occur: "1977-01-01T00:00:05Z" (220924805) 0x5ca-0x5d1.7 (8)
0x5d0|0b 85                                          |..              |
0x5d0|      00 00 00 06                              |  ....          |        corr: 6 0x5d2-0x5d5.7 (4)
     |                                               |                |      [6]{}: leap_second_record 0x5d6-0x5e1.7 (12)
0x5d0|                  00 00 00 00 0f 0c 3f 06      |      ......?.  |        occur: "1978-01-01T00:00:06Z" (252460806) 0x5d6-0x5dd.7 (8)
0x5d0|                                          00 00|              ..|        corr: 7 0x5de-0x5e1.7 (4)
0x5e0|00 07                                          |..              |
     |                                               |                |      [7]{}: leap_second_record 0x5e2-0x5ed.7 (12)
0x5e0|      00 00 00 00 10 ed 72 87                  |  ......r.      |        occur: "1979-01-01T00:00:07Z" (283996807) 0x5e2-0x5e9.7 (8)
0x5e0|                              00 00 00 08      |          ....  |        corr: 8 0x5ea-0x5ed.7 (4)
     |                                               |                |      [8]{}: leap_second_record 0x5ee-0x5f9.7 (12)
0x5e0|                                          00 00|              ..|        occur: "1980-01-01T00:00:08Z" (315532808) 0x5ee-0x5f5.7 (8)
0x5f0|00 00 12 ce a6 08                              |......          |
0x5f0|                  00 00 00 09                  |      ....      |        corr: 9 0x5f6-0x5f9.7 (4)
     |                                               |                |      [9]{}: leap_second_record 0x5fa-0x605.7 (12)
0x5f0|                              00 00 00 00 15 9f|          ......|        occur: "1981-07-01T00:00:09Z" (362793609) 0x5fa-0x601.7 (8)
0x600|ca 89                                          |..              |
0x600|      00 00 00 0a                              |  ....          |        corr: 10 0x602-0x605.7 (4)
     |                                               |                |      [10]{}: leap_second_record 0x606-0x611.7 (12)
0x600|                  00 00 00 00 17 80 fe 0a      |      ........  |        occur: "1982-07-01T00:00:10Z" (394329610) 0x606-0x60d.7 (8)
0x600|                                          00 00|              ..|        corr: 11 0x60e-0x611.7 (4)
0x610|00 0b                                          |..              |
     |                                               |                |      [11]{}: leap_second_record 0x612-0x61d.7 (12)
0x610|      00 00 00 00 19 62 31 8b                  |  .....b1.      |        occur: "1983-07-01T00:00:11Z" (425865611) 0x612-0x619.7 (8)
0x610|                              00 00 00 0c      |          ....  |        corr: 12 0x61a-0x61d.7 (4)
     |                                               |                |      [12]{}: leap_second_record 0x61e-0x629.7 (12)
0x610|                                          00 00|              ..|        occur: "1985-07-01T00:00:12Z" (489024012) 0x61e-0x625.7 (8)
0x620|00 00 1d 25 ea 0c                              |...%..          |
0x620|                  00 00 00 0d                  |      ....      |        corr: 13 0x626-0x629.7 (4)
     |                                               |                |      [13]{}: leap_second_record 0x62a-0x635.7 (12)
0x620|                              00 00 00 00 21 da|          ....!.|        occur: "1988-01-01T00:00:13Z" (567993613) 0x62a-0x631.7 (8)
0x630|e5 0d                                          |..              |
0x630|      00 00 00 0e                              |  ....          |        corr: 14 0x632-0x635.7 (4)
     |                                               |                |      [14]{}: leap_second_record 0x636-0x641.7 (12)
0x630|                  00 00 00 00 25 9e 9d 8e      |      ....%...  |        occur: "1990-01-01T00:00:14Z" (631152014) 0x636-0x63d.7 (8)
0x630|                                          00 00|              ..|        corr: 15 0x63e-0x641.7 (4)
0x640|00 0f                                          |..              |
     |                                               |                |      [15]{}: leap_second_record 0x642-0x64d.7 (12)
0x640|      00 00 00 00 27 7f d1 0f                  |  ....'...      |        occur: "1991-01-01T00:00:15Z" (662688015) 0x642-0x649.7 (8)
0x640|                              00 00 00 10      |          ....  |        corr: 16 0x64a-0x64d.7 (4)
     |                                               |                |      [16]{}: leap_second_record 0x64e-0x659.7 (12)
0x640|                                          00 00|              ..|        occur: "1992-07-01T00:00:16Z" (709948816) 0x64e-0x655.7 (8)
0x650|00 00 2a 50 f5 90                              |..*P..          |
0x650|                  00 00 00 11                  |      ....      |        corr: 17 0x656-0x659.7 (4)
     |                                               |                |      [17]{}: leap_second_record 0x65a-0x665.7 (12)
0x650|                              00 00 00 00 2c 32|          ....,2|        occur: "1993-07-01T00:00:17Z" (741484817) 0x65a-0x661.7 (8)
0x660|29 11                                          |).              |
0x660|      00 00 00 12                              |  ....          |        corr: 18 0x662-0x665.7 (4)
     |                                               |                |      [18]{}: leap_second_record 0x666-0x671.7 (12)
0x660|                  00 00 00 00 2e 13 5c 92      |      ......\.  |        occur: "1994-07-01T00:00:18Z" (773020818) 0x666-0x66d.7 (8)
0x660|                                          00 00|              ..|        corr: 19 0x66e-0x671.7 (4)
0x670|00 13                                          |..              |
     |                                               |                |      [19]{}: leap_second_record 0x672-0x67d.7 (12)
0x670|      00 00 00 00 30 e7 24 13                  |  ....0.$.      |        occur: "1996-01-01T00:00:19Z" (820454419) 0x672-0x679.7 (8)
0x670|                              00 00 00 14      |          ....  |        corr: 20 0x67a-0x67d.7 (4)
     |                                               |                |      [20]{}: leap_second_record 0x67e-0x689.7 (12)
0x670|                                          00 00|              ..|        occur: "1997-07-01T00:00:20Z" (867715220) 0x67e-0x685.7 (8)
0x680|00 00 33 b8 48 94                              |..3.H.          |
0x680|                  00 00 00 15                  |      ....      |        corr: 21 0x686-0x689.7 (4)
     |                                               |                |      [21]{}: leap_second_record 0x68a-0x695.7 (12)
0x680|                              00 00 00 00 36 8c|          ....6.|        occur: "1999-01-01T00:00:21Z" (915148821) 0x68a-0x691.7 (8)
0x690|10 15                                          |..              |
0x690|      00 00 00 16                              |  ....          |        corr: 22 0x692-0x695.7 (4)
     |                                               |                |      [22]{}: leap_second_record 0x696-0x6a1.7 (12)
0x690|                  00 00 00 00 43 b7 1b 96      |      ....C...  |        occur: "2006-01-01T00:00:22Z" (1136073622) 0x696-0x69d.7 (8)
0x690|                                          00 00|              ..|        corr: 23 0x69e-0x6a1.7 (4)
0x6a0|00 17                                          |..              |
     |                                               |                |      [23]{}: leap_second_record 0x6a2-0x6ad.7 (12)
0x6a0|      00 00 00 00 49 5c 07 97                  |  ....I\..      |        occur: "2009-01-01T00:00:23Z" (1230768023) 0x6a2-0x6a9.7 (8)
0x6a0|                              00 00 00 18      |          ....  |        corr: 24 0x6aa-0x6ad.7 (4)
     |                                               |                |      [24]{}: leap_second_record 0x6ae-0x6b9.7 (12)
0x6a0|                                          00 00|              ..|        occur: "2012-07-01T00:00:24Z" (1341100824) 0x6ae-0x6b5.7 (8)
0x6b0|00 00 4f ef 93 18                              |..O...          |
0x6b0|                  00 00 00 19                  |      ....      |        corr: 25 0x6b6-0x6b9.7 (4)
     |                                               |                |      [25]{}: leap_second_record 0x6ba-0x6c5.7 (12)
0x6b0|                              00 00 00 00 55 93|          ....U.|        occur: "2015-07-01T00:00:25Z" (1435708825) 0x6ba-0x6c1.7 (8)
0x6c0|2d 99                                          |-.              |
0x6c0|      00 00 00 1a                              |  ....          |        corr: 26 0x6c2-0x6c5.7 (4)
     |                                               |                |      [26]{}: leap_second_record 0x6c6-0x6d1.7 (12)
0x6c0|                  00 00 00 00 58 68 46 9a      |      ....XhF.  |        occur: "2017-01-01T00:00:26Z" (1483228826) 0x6c6-0x6cd.7 (8)
0x6c0|                                          00 00|              ..|        corr: 27 0x6ce-0x6d1.7 (4)
0x6d0|00 1b                                          |..              |
     |                                               |                |    standard_wall_indicators[0:0]: 0x6d2-NA (0)
     |                                               |                |    ut_local_indicators[0:0]: 0x6d2-NA (0)
     |                                               |                |  footer{}: 0x6d2-0x6d3.7 (2)
0x6d0|      0a                                       |  .             |    nl1: 10 (valid) 0x6d2-0x6d2.7 (1)
     |                                               |                |    tz_string: "" 0x6d3-NA (0)
0x6d0|         0a|                                   |   .|           |    nl2: 10 (valid) 0x6d3-0x6d3.7 (1)
