$ fq -d tzif dv Taipei
     |00 01 02 03 04 05 06 07 08 09 0a 0b 0c 0d 0e 0f|0123456789abcdef|.{}: Taipei (tzif) 0x0-0x51d.7 (1310)
     |                                               |                |  v1header{}: 0x0-0x2b.7 (44)
0x000|54 5a 69 66                                    |TZif            |    magic: 0x545a6966 (valid) 0x0-0x3.7 (4)
0x000|            32                                 |    2           |    ver: "2" (0x32) (valid) 0x4-0x4.7 (1)
0x000|               00 00 00 00 00 00 00 00 00 00 00|     ...........|    reserved: raw bits 0x5-0x13.7 (15)
0x010|00 00 00 00                                    |....            |
0x010|            00 00 00 00                        |    ....        |    isutcnt: 0 0x14-0x17.7 (4)
0x010|                        00 00 00 00            |        ....    |    isstdcnt: 0 0x18-0x1b.7 (4)
0x010|                                    00 00 00 1b|            ....|    leapcnt: 27 0x1c-0x1f.7 (4)
0x020|00 00 00 2a                                    |...*            |    timecnt: 42 0x20-0x23.7 (4)
0x020|            00 00 00 05                        |    ....        |    typecnt: 5 0x24-0x27.7 (4)
0x020|                        00 00 00 10            |        ....    |    charcnt: 16 0x28-0x2b.7 (4)
     |                                               |                |  v1datablock{}: 0x2c-0x203.7 (472)
     |                                               |                |    transition_times[0:42]: 0x2c-0xd3.7 (168)
0x020|                                    80 00 00 00|            ....|      [0]: "1901-12-13T20:45:52Z" (-2147483648) transition_time 0x2c-0x2f.7 (4)
0x030|c3 55 49 80                                    |.UI.            |      [1]: "1937-09-30T16:00:00Z" (-1017820800) transition_time 0x30-0x33.7 (4)
0x030|            d2 54 59 80                        |    .TY.        |      [2]: "1945-09-20T16:00:00Z" (-766224000) transition_time 0x34-0x37.7 (4)
0x030|                        d3 8b 7b 80            |        ..{.    |      [3]: "1946-05-14T16:00:00Z" (-745833600) transition_time 0x38-0x3b.7 (4)
0x030|                                    d4 42 ad f0|            .B..|      [4]: "1946-09-30T15:00:00Z" (-733827600) transition_time 0x3c-0x3f.7 (4)
0x040|d5 45 22 00                                    |.E".            |      [5]: "1947-04-14T16:00:00Z" (-716889600) transition_time 0x40-0x43.7 (4)
0x040|            d6 4c bf f0                        |    .L..        |      [6]: "1947-10-31T15:00:00Z" (-699613200) transition_time 0x44-0x47.7 (4)
0x040|                        d7 3c bf 00            |        .<..    |      [7]: "1948-04-30T16:00:00Z" (-683884800) transition_time 0x48-0x4b.7 (4)
0x040|                                    d8 06 66 70|            ..fp|      [8]: "1948-09-30T15:00:00Z" (-670669200) transition_time 0x4c-0x4f.7 (4)
0x050|d9 1d f2 80                                    |....            |      [9]: "1949-04-30T16:00:00Z" (-652348800) transition_time 0x50-0x53.7 (4)
0x050|            d9 e7 99 f0                        |    ....        |      [10]: "1949-09-30T15:00:00Z" (-639133200) transition_time 0x54-0x57.7 (4)
0x050|                        da ff 26 00            |        ..&.    |      [11]: "1950-04-30T16:00:00Z" (-620812800) transition_time 0x58-0x5b.7 (4)
0x050|                                    db c8 cd 70|            ...p|      [12]: "1950-09-30T15:00:00Z" (-607597200) transition_time 0x5c-0x5f.7 (4)
0x060|dc e0 59 80                                    |..Y.            |      [13]: "1951-04-30T16:00:00Z" (-589276800) transition_time 0x60-0x63.7 (4)
0x060|            dd aa 00 f0                        |    ....        |      [14]: "1951-09-30T15:00:00Z" (-576061200) transition_time 0x64-0x67.7 (4)
0x060|                        de 72 73 00            |        .rs.    |      [15]: "1952-02-29T16:00:00Z" (-562924800) transition_time 0x68-0x6b.7 (4)
0x060|                                    df b5 64 70|            ..dp|      [16]: "1952-10-31T15:00:00Z" (-541760400) transition_time 0x6c-0x6f.7 (4)
0x070|e0 7c 85 00                                    |.|..            |      [17]: "1953-03-31T16:00:00Z" (-528710400) transition_time 0x70-0x73.7 (4)
0x070|            e1 96 97 f0                        |    ....        |      [18]: "1953-10-31T15:00:00Z" (-510224400) transition_time 0x74-0x77.7 (4)
0x070|                        e2 5d b8 80            |        .]..    |      [19]: "1954-03-31T16:00:00Z" (-497174400) transition_time 0x78-0x7b.7 (4)
0x070|                                    e3 77 cb 70|            .w.p|      [20]: "1954-10-31T15:00:00Z" (-478688400) transition_time 0x7c-0x7f.7 (4)
0x080|e4 3e ec 00                                    |.>..            |      [21]: "1955-03-31T16:00:00Z" (-465638400) transition_time 0x80-0x83.7 (4)
0x080|            e5 30 20 70                        |    .0 p        |      [22]: "1955-09-30T15:00:00Z" (-449830800) transition_time 0x84-0x87.7 (4)
0x080|                        e6 21 71 00            |        .!q.    |      [23]: "1956-03-31T16:00:00Z" (-434016000) transition_time 0x88-0x8b.7 (4)
0x080|                                    e7 12 a5 70|            ...p|      [24]: "1956-09-30T15:00:00Z" (-418208400) transition_time 0x8c-0x8f.7 (4)
0x090|e8 02 a4 80                                    |....            |      [25]: "1957-03-31T16:00:00Z" (-402480000) transition_time 0x90-0x93.7 (4)
0x090|            e8 f3 d8 f0                        |    ....        |      [26]: "1957-09-30T15:00:00Z" (-386672400) transition_time 0x94-0x97.7 (4)
0x090|                        e9 e3 d8 00            |        ....    |      [27]: "1958-03-31T16:00:00Z" (-370944000) transition_time 0x98-0x9b.7 (4)
0x090|                                    ea d5 0c 70|            ...p|      [28]: "1958-09-30T15:00:00Z" (-355136400) transition_time 0x9c-0x9f.7 (4)
0x0a0|eb c5 0b 80                                    |....            |      [29]: "1959-03-31T16:00:00Z" (-339408000) transition_time 0xa0-0xa3.7 (4)
0x0a0|            ec b6 3f f0                        |    ..?.        |      [30]: "1959-09-30T15:00:00Z" (-323600400) transition_time 0xa4-0xa7.7 (4)
0x0a0|                        ed f7 fc 00            |        ....    |      [31]: "1960-05-31T16:00:00Z" (-302515200) transition_time 0xa8-0xab.7 (4)
0x0a0|                                    ee 98 c4 f0|            ....|      [32]: "1960-09-30T15:00:00Z" (-291978000) transition_time 0xac-0xaf.7 (4)
0x0b0|ef d9 2f 80                                    |../.            |      [33]: "1961-05-31T16:00:00Z" (-270979200) transition_time 0xb0-0xb3.7 (4)
0x0b0|            f0 79 f8 70                        |    .y.p        |      [34]: "1961-09-30T15:00:00Z" (-260442000) transition_time 0xb4-0xb7.7 (4)
0x0b0|                        07 fc 56 03            |        ..V.    |      [35]: "1974-03-31T16:00:03Z" (133977603) transition_time 0xb8-0xbb.7 (4)
0x0b0|                                    08 ed 8a 73|            ...s|      [36]: "1974-09-30T15:00:03Z" (149785203) transition_time 0xbc-0xbf.7 (4)
0x0c0|09 dd 89 84                                    |....            |      [37]: "1975-03-31T16:00:04Z" (165513604) transition_time 0xc0-0xc3.7 (4)
0x0c0|            0a ce bd f4                        |    ....        |      [38]: "1975-09-30T15:00:04Z" (181321204) transition_time 0xc4-0xc7.7 (4)
0x0c0|                        11 db a1 88            |        ....    |      [39]: "1979-06-30T16:00:08Z" (299606408) transition_time 0xc8-0xcb.7 (4)
0x0c0|                                    12 54 dd 78|            .T.x|      [40]: "1979-09-30T15:00:08Z" (307551608) transition_time 0xcc-0xcf.7 (4)
0x0d0|64 9b 78 1b                                    |d.x.            |      [41]: "2023-06-28T00:00:27Z" (1687910427) transition_time 0xd0-0xd3.7 (4)
     |                                               |                |    transition_types[0:42]: 0xd4-0xfd.7 (42)
0x0d0|            01                                 |    .           |      [0]: 1 transition_type 0xd4-0xd4.7 (1)
0x0d0|               02                              |     .          |      [1]: 2 transition_type 0xd5-0xd5.7 (1)
0x0d0|                  01                           |      .         |      [2]: 1 transition_type 0xd6-0xd6.7 (1)
0x0d0|                     03                        |       .        |      [3]: 3 transition_type 0xd7-0xd7.7 (1)
0x0d0|                        01                     |        .       |      [4]: 1 transition_type 0xd8-0xd8.7 (1)
0x0d0|                           03                  |         .      |      [5]: 3 transition_type 0xd9-0xd9.7 (1)
0x0d0|                              01               |          .     |      [6]: 1 transition_type 0xda-0xda.7 (1)
0x0d0|                                 03            |           .    |      [7]: 3 transition_type 0xdb-0xdb.7 (1)
0x0d0|                                    01         |            .   |      [8]: 1 transition_type 0xdc-0xdc.7 (1)
0x0d0|                                       03      |             .  |      [9]: 3 transition_type 0xdd-0xdd.7 (1)
0x0d0|                                          01   |              . |      [10]: 1 transition_type 0xde-0xde.7 (1)
0x0d0|                                             03|               .|      [11]: 3 transition_type 0xdf-0xdf.7 (1)
0x0e0|01                                             |.               |      [12]: 1 transition_type 0xe0-0xe0.7 (1)
0x0e0|   03                                          | .              |      [13]: 3 transition_type 0xe1-0xe1.7 (1)
0x0e0|      01                                       |  .             |      [14]: 1 transition_type 0xe2-0xe2.7 (1)
0x0e0|         03                                    |   .            |      [15]: 3 transition_type 0xe3-0xe3.7 (1)
0x0e0|            01                                 |    .           |      [16]: 1 transition_type 0xe4-0xe4.7 (1)
0x0e0|               03                              |     .          |      [17]: 3 transition_type 0xe5-0xe5.7 (1)
0x0e0|                  01                           |      .         |      [18]: 1 transition_type 0xe6-0xe6.7 (1)
0x0e0|                     03                        |       .        |      [19]: 3 transition_type 0xe7-0xe7.7 (1)
0x0e0|                        01                     |        .       |      [20]: 1 transition_type 0xe8-0xe8.7 (1)
0x0e0|                           03                  |         .      |      [21]: 3 transition_type 0xe9-0xe9.7 (1)
0x0e0|                              01               |          .     |      [22]: 1 transition_type 0xea-0xea.7 (1)
0x0e0|                                 03            |           .    |      [23]: 3 transition_type 0xeb-0xeb.7 (1)
0x0e0|                                    01         |            .   |      [24]: 1 transition_type 0xec-0xec.7 (1)
0x0e0|                                       03      |             .  |      [25]: 3 transition_type 0xed-0xed.7 (1)
0x0e0|                                          01   |              . |      [26]: 1 transition_type 0xee-0xee.7 (1)
0x0e0|                                             03|               .|      [27]: 3 transition_type 0xef-0xef.7 (1)
0x0f0|01                                             |.               |      [28]: 1 transition_type 0xf0-0xf0.7 (1)
0x0f0|   03                                          | .              |      [29]: 3 transition_type 0xf1-0xf1.7 (1)
0x0f0|      01                                       |  .             |      [30]: 1 transition_type 0xf2-0xf2.7 (1)
0x0f0|         03                                    |   .            |      [31]: 3 transition_type 0xf3-0xf3.7 (1)
0x0f0|            01                                 |    .           |      [32]: 1 transition_type 0xf4-0xf4.7 (1)
0x0f0|               03                              |     .          |      [33]: 3 transition_type 0xf5-0xf5.7 (1)
0x0f0|                  01                           |      .         |      [34]: 1 transition_type 0xf6-0xf6.7 (1)
0x0f0|                     03                        |       .        |      [35]: 3 transition_type 0xf7-0xf7.7 (1)
0x0f0|                        01                     |        .       |      [36]: 1 transition_type 0xf8-0xf8.7 (1)
0x0f0|                           03                  |         .      |      [37]: 3 transition_type 0xf9-0xf9.7 (1)
0x0f0|                              01               |          .     |      [38]: 1 transition_type 0xfa-0xfa.7 (1)
0x0f0|                                 03            |           .    |      [39]: 3 transition_type 0xfb-0xfb.7 (1)
0x0f0|                                    01         |            .   |      [40]: 1 transition_type 0xfc-0xfc.7 (1)
0x0f0|                                       01      |             .  |      [41]: 1 transition_type 0xfd-0xfd.7 (1)
     |                                               |                |    local_time_type_records[0:5]: 0xfe-0x11b.7 (30)
     |                                               |                |      [0]{}: local_time_type 0xfe-0x103.7 (6)
0x0f0|                                          00 00|              ..|        utoff: 29160 (valid) 0xfe-0x101.7 (4)
0x100|71 e8                                          |q.              |
0x100|      00                                       |  .             |        dst: 0 (valid) 0x102-0x102.7 (1)
0x100|         00                                    |   .            |        idx: 0 (valid) 0x103-0x103.7 (1)
     |                                               |                |      [1]{}: local_time_type 0x104-0x109.7 (6)
0x100|            00 00 70 80                        |    ..p.        |        utoff: 28800 (valid) 0x104-0x107.7 (4)
0x100|                        00                     |        .       |        dst: 0 (valid) 0x108-0x108.7 (1)
0x100|                           04                  |         .      |        idx: 4 (valid) 0x109-0x109.7 (1)
     |                                               |                |      [2]{}: local_time_type 0x10a-0x10f.7 (6)
0x100|                              00 00 7e 90      |          ..~.  |        utoff: 32400 (valid) 0x10a-0x10d.7 (4)
0x100|                                          00   |              . |        dst: 0 (valid) 0x10e-0x10e.7 (1)
0x100|                                             08|               .|        idx: 8 (valid) 0x10f-0x10f.7 (1)
     |                                               |                |      [3]{}: local_time_type 0x110-0x115.7 (6)
0x110|00 00 7e 90                                    |..~.            |        utoff: 32400 (valid) 0x110-0x113.7 (4)
0x110|            01                                 |    .           |        dst: 1 (valid) 0x114-0x114.7 (1)
0x110|               0c                              |     .          |        idx: 12 (valid) 0x115-0x115.7 (1)
     |                                               |                |      [4]{}: local_time_type 0x116-0x11b.7 (6)
0x110|                  00 00 70 80                  |      ..p.      |        utoff: 28800 (valid) 0x116-0x119.7 (4)
0x110|                              00               |          .     |        dst: 0 (valid) 0x11a-0x11a.7 (1)
0x110|                                 04            |           .    |        idx: 4 (valid) 0x11b-0x11b.7 (1)
     |                                               |                |    time_zone_designations[0:4]: 0x11c-0x12b.7 (16)
0x110|                                    4c 4d 54 00|            LMT.|      [0]: "LMT" time_zone_designation 0x11c-0x11f.7 (4)
0x120|43 53 54 00                                    |CST.            |      [1]: "CST" time_zone_designation 0x120-0x123.7 (4)
0x120|            4a 53 54 00                        |    JST.        |      [2]: "JST" time_zone_designation 0x124-0x127.7 (4)
0x120|                        43 44 54 00            |        CDT.    |      [3]: "CDT" time_zone_designation 0x128-0x12b.7 (4)
     |                                               |                |    leap_second_records[0:27]: 0x12c-0x203.7 (216)
     |                                               |                |      [0]{}: leap_second_record 0x12c-0x133.7 (8)
0x120|                                    04 b2 58 00|            ..X.|        occur: "1972-07-01T00:00:00Z" (78796800) 0x12c-0x12f.7 (4)
0x130|00 00 00 01                                    |....            |        corr: 1 0x130-0x133.7 (4)
     |                                               |                |      [1]{}: leap_second_record 0x134-0x13b.7 (8)
0x130|            05 a4 ec 01                        |    ....        |        occur: "1973-01-01T00:00:01Z" (94694401) 0x134-0x137.7 (4)
0x130|                        00 00 00 02            |        ....    |        corr: 2 0x138-0x13b.7 (4)
     |                                               |                |      [2]{}: leap_second_record 0x13c-0x143.7 (8)
0x130|                                    07 86 1f 82|            ....|        occur: "1974-01-01T00:00:02Z" (126230402) 0x13c-0x13f.7 (4)
0x140|00 00 00 03                                    |....            |        corr: 3 0x140-0x143.7 (4)
     |                                               |                |      [3]{}: leap_second_record 0x144-0x14b.7 (8)
0x140|            09 67 53 03                        |    .gS.        |        occur: "1975-01-01T00:00:03Z" (157766403) 0x144-0x147.7 (4)
0x140|                        00 00 00 04            |        ....    |        corr: 4 0x148-0x14b.7 (4)
     |                                               |                |      [4]{}: leap_second_record 0x14c-0x153.7 (8)
0x140|                                    0b 48 86 84|            .H..|        occur: "1976-01-01T00:00:04Z" (189302404) 0x14c-0x14f.7 (4)
0x150|00 00 00 05                                    |....            |        corr: 5 0x150-0x153.7 (4)
     |                                               |                |      [5]{}: leap_second_record 0x154-0x15b.7 (8)
0x150|            0d 2b 0b 85                        |    .+..        |        occur: "1977-01-01T00:00:05Z" (220924805) 0x154-0x157.7 (4)
0x150|                        00 00 00 06            |        ....    |        corr: 6 0x158-0x15b.7 (4)
     |                                               |                |      [6]{}: leap_second_record 0x15c-0x163.7 (8)
0x150|                                    0f 0c 3f 06|            ..?.|        occur: "1978-01-01T00:00:06Z" (252460806) 0x15c-0x15f.7 (4)
0x160|00 00 00 07                                    |....            |        corr: 7 0x160-0x163.7 (4)
     |                                               |                |      [7]{}: leap_second_record 0x164-0x16b.7 (8)
0x160|            10 ed 72 87                        |    ..r.        |        occur: "1979-01-01T00:00:07Z" (283996807) 0x164-0x167.7 (4)
0x160|                        00 00 00 08            |        ....    |        corr: 8 0x168-0x16b.7 (4)
     |                                               |                |      [8]{}: leap_second_record 0x16c-0x173.7 (8)
0x160|                                    12 ce a6 08|            ....|        occur: "1980-01-01T00:00:08Z" (315532808) 0x16c-0x16f.7 (4)
0x170|00 00 00 09                                    |....            |        corr: 9 0x170-0x173.7 (4)
     |                                               |                |      [9]{}: leap_second_record 0x174-0x17b.7 (8)
0x170|            15 9f ca 89                        |    ....        |        occur: "1981-07-01T00:00:09Z" (362793609) 0x174-0x177.7 (4)
0x170|                        00 00 00 0a            |        ....    |        corr: 10 0x178-0x17b.7 (4)
     |                                               |                |      [10]{}: leap_second_record 0x17c-0x183.7 (8)
0x170|                                    17 80 fe 0a|            ....|        occur: "1982-07-01T00:00:10Z" (394329610) 0x17c-0x17f.7 (4)
0x180|00 00 00 0b                                    |....            |        corr: 11 0x180-0x183.7 (4)
     |                                               |                |      [11]{}: leap_second_record 0x184-0x18b.7 (8)
0x180|            19 62 31 8b                        |    .b1.        |        occur: "1983-07-01T00:00:11Z" (425865611) 0x184-0x187.7 (4)
0x180|                        00 00 00 0c            |        ....    |        corr: 12 0x188-0x18b.7 (4)
     |                                               |                |      [12]{}: leap_second_record 0x18c-0x193.7 (8)
0x180|                                    1d 25 ea 0c|            .%..|        occur: "1985-07-01T00:00:12Z" (489024012) 0x18c-0x18f.7 (4)
0x190|00 00 00 0d                                    |....            |        corr: 13 0x190-0x193.7 (4)
     |                                               |                |      [13]{}: leap_second_record 0x194-0x19b.7 (8)
0x190|            21 da e5 0d                        |    !...        |        occur: "1988-01-01T00:00:13Z" (567993613) 0x194-0x197.7 (4)
0x190|                        00 00 00 0e            |        ....    |        corr: 14 0x198-0x19b.7 (4)
     |                                               |                |      [14]{}: leap_second_record 0x19c-0x1a3.7 (8)
0x190|                                    25 9e 9d 8e|            %...|        occur: "1990-01-01T00:00:14Z" (631152014) 0x19c-0x19f.7 (4)
0x1a0|00 00 00 0f                                    |....            |        corr: 15 0x1a0-0x1a3.7 (4)
     |                                               |                |      [15]{}: leap_second_record 0x1a4-0x1ab.7 (8)
0x1a0|            27 7f d1 0f                        |    '...        |        occur: "1991-01-01T00:00:15Z" (662688015) 0x1a4-0x1a7.7 (4)
0x1a0|                        00 00 00 10            |        ....    |        corr: 16 0x1a8-0x1ab.7 (4)
     |                                               |                |      [16]{}: leap_second_record 0x1ac-0x1b3.7 (8)
0x1a0|                                    2a 50 f5 90|            *P..|        occur: "1992-07-01T00:00:16Z" (709948816) 0x1ac-0x1af.7 (4)
0x1b0|00 00 00 11                                    |....            |        corr: 17 0x1b0-0x1b3.7 (4)
     |                                               |                |      [17]{}: leap_second_record 0x1b4-0x1bb.7 (8)
0x1b0|            2c 32 29 11                        |    ,2).        |        occur: "1993-07-01T00:00:17Z" (741484817) 0x1b4-0x1b7.7 (4)
0x1b0|                        00 00 00 12            |        ....    |        corr: 18 0x1b8-0x1bb.7 (4)
     |                                               |                |      [18]{}: leap_second_record 0x1bc-0x1c3.7 (8)
0x1b0|                                    2e 13 5c 92|            ..\.|        occur: "1994-07-01T00:00:18Z" (773020818) 0x1bc-0x1bf.7 (4)
0x1c0|00 00 00 13                                    |....            |        corr: 19 0x1c0-0x1c3.7 (4)
     |                                               |                |      [19]{}: leap_second_record 0x1c4-0x1cb.7 (8)
0x1c0|            30 e7 24 13                        |    0.$.        |        occur: "1996-01-01T00:00:19Z" (820454419) 0x1c4-0x1c7.7 (4)
0x1c0|                        00 00 00 14            |        ....    |        corr: 20 0x1c8-0x1cb.7 (4)
     |                                               |                |      [20]{}: leap_second_record 0x1cc-0x1d3.7 (8)
0x1c0|                                    33 b8 48 94|            3.H.|        occur: "1997-07-01T00:00:20Z" (867715220) 0x1cc-0x1cf.7 (4)
0x1d0|00 00 00 15                                    |....            |        corr: 21 0x1d0-0x1d3.7 (4)
     |                                               |                |      [21]{}: leap_second_record 0x1d4-0x1db.7 (8)
0x1d0|            36 8c 10 15                        |    6...        |        occur: "1999-01-01T00:00:21Z" (915148821) 0x1d4-0x1d7.7 (4)
0x1d0|                        00 00 00 16            |        ....    |        corr: 22 0x1d8-0x1db.7 (4)
     |                                               |                |      [22]{}: leap_second_record 0x1dc-0x1e3.7 (8)
0x1d0|                                    43 b7 1b 96|            C...|        occur: "2006-01-01T00:00:22Z" (1136073622) 0x1dc-0x1df.7 (4)
0x1e0|00 00 00 17                                    |....            |        corr: 23 0x1e0-0x1e3.7 (4)
     |                                               |                |      [23]{}: leap_second_record 0x1e4-0x1eb.7 (8)
0x1e0|            49 5c 07 97                        |    I\..        |        occur: "2009-01-01T00:00:23Z" (1230768023) 0x1e4-0x1e7.7 (4)
0x1e0|                        00 00 00 18            |        ....    |        corr: 24 0x1e8-0x1eb.7 (4)
     |                                               |                |      [24]{}: leap_second_record 0x1ec-0x1f3.7 (8)
0x1e0|                                    4f ef 93 18|            O...|        occur: "2012-07-01T00:00:24Z" (1341100824) 0x1ec-0x1ef.7 (4)
0x1f0|00 00 00 19                                    |....            |        corr: 25 0x1f0-0x1f3.7 (4)
     |                                               |                |      [25]{}: leap_second_record 0x1f4-0x1fb.7 (8)
0x1f0|            55 93 2d 99                        |    U.-.        |        occur: "2015-07-01T00:00:25Z" (1435708825) 0x1f4-0x1f7.7 (4)
0x1f0|                        00 00 00 1a            |        ....    |        corr: 26 0x1f8-0x1fb.7 (4)
     |                                               |                |      [26]{}: leap_second_record 0x1fc-0x203.7 (8)
0x1f0|                                    58 68 46 9a|            XhF.|        occur: "2017-01-01T00:00:26Z" (1483228826) 0x1fc-0x1ff.7 (4)
0x200|00 00 00 1b                                    |....            |        corr: 27 0x200-0x203.7 (4)
     |                                               |                |    standard_wall_indicators[0:0]: 0x204-NA (0)
     |                                               |                |    ut_local_indicators[0:0]: 0x204-NA (0)
     |                                               |                |  v2plusheader{}: 0x204-0x22f.7 (44)
0x200|            54 5a 69 66                        |    TZif        |    magic: 0x545a6966 (valid) 0x204-0x207.7 (4)
0x200|                        32                     |        2       |    ver: "2" (0x32) (valid) 0x208-0x208.7 (1)
0x200|                           00 00 00 00 00 00 00|         .......|    reserved: raw bits 0x209-0x217.7 (15)
0x210|00 00 00 00 00 00 00 00                        |........        |
0x210|                        00 00 00 00            |        ....    |    isutcnt: 0 0x218-0x21b.7 (4)
0x210|                                    00 00 00 00|            ....|    isstdcnt: 0 0x21c-0x21f.7 (4)
0x220|00 00 00 1b                                    |....            |    leapcnt: 27 0x220-0x223.7 (4)
0x220|            00 00 00 2a                        |    ...*        |    timecnt: 42 0x224-0x227.7 (4)
0x220|                        00 00 00 05            |        ....    |    typecnt: 5 0x228-0x22b.7 (4)
0x220|                                    00 00 00 10|            ....|    charcnt: 16 0x22c-0x22f.7 (4)
     |                                               |                |  v2plusdatablock{}: 0x230-0x51b.7 (748)
     |                                               |                |    transition_times[0:42]: 0x230-0x37f.7 (336)
0x230|ff ff ff ff 74 ce f0 18                        |....t...        |      [0]: "1895-12-31T15:54:00Z" (-2335248360) transition_time 0x230-0x237.7 (8)
0x230|                        ff ff ff ff c3 55 49 80|        .....UI.|      [1]: "1937-09-30T16:00:00Z" (-1017820800) transition_time 0x238-0x23f.7 (8)
0x240|ff ff ff ff d2 54 59 80                        |.....TY.        |      [2]: "1945-09-20T16:00:00Z" (-766224000) transition_time 0x240-0x247.7 (8)
0x240|                        ff ff ff ff d3 8b 7b 80|        ......{.|      [3]: "1946-05-14T16:00:00Z" (-745833600) transition_time 0x248-0x24f.7 (8)
0x250|ff ff ff ff d4 42 ad f0                        |.....B..        |      [4]: "1946-09-30T15:00:00Z" (-733827600) transition_time 0x250-0x257.7 (8)
0x250|                        ff ff ff ff d5 45 22 00|        .....E".|      [5]: "1947-04-14T16:00:00Z" (-716889600) transition_time 0x258-0x25f.7 (8)
0x260|ff ff ff ff d6 4c bf f0                        |.....L..        |      [6]: "1947-10-31T15:00:00Z" (-699613200) transition_time 0x260-0x267.7 (8)
0x260|                        ff ff ff ff d7 3c bf 00|        .....<..|      [7]: "1948-04-30T16:00:00Z" (-683884800) transition_time 0x268-0x26f.7 (8)
0x270|ff ff ff ff d8 06 66 70                        |......fp        |      [8]: "1948-09-30T15:00:00Z" (-670669200) transition_time 0x270-0x277.7 (8)
0x270|                        ff ff ff ff d9 1d f2 80|        ........|      [9]: "1949-04-30T16:00:00Z" (-652348800) transition_time 0x278-0x27f.7 (8)
0x280|ff ff ff ff d9 e7 99 f0                        |........        |      [10]: "1949-09-30T15:00:00Z" (-639133200) transition_time 0x280-0x287.7 (8)
0x280|                        ff ff ff ff da ff 26 00|        ......&.|      [11]: "1950-04-30T16:00:00Z" (-620812800) transition_time 0x288-0x28f.7 (8)
0x290|ff ff ff ff db c8 cd 70                        |.......p        |      [12]: "1950-09-30T15:00:00Z" (-607597200) transition_time 0x290-0x297.7 (8)
0x290|                        ff ff ff ff dc e0 59 80|        ......Y.|      [13]: "1951-04-30T16:00:00Z" (-589276800) transition_time 0x298-0x29f.7 (8)
0x2a0|ff ff ff ff dd aa 00 f0                        |........        |      [14]: "1951-09-30T15:00:00Z" (-576061200) transition_time 0x2a0-0x2a7.7 (8)
0x2a0|                        ff ff ff ff de 72 73 00|        .....rs.|      [15]: "1952-02-29T16:00:00Z" (-562924800) transition_time 0x2a8-0x2af.7 (8)
0x2b0|ff ff ff ff df b5 64 70                        |......dp        |      [16]: "1952-10-31T15:00:00Z" (-541760400) transition_time 0x2b0-0x2b7.7 (8)
0x2b0|                        ff ff ff ff e0 7c 85 00|        .....|..|      [17]: "1953-03-31T16:00:00Z" (-528710400) transition_time 0x2b8-0x2bf.7 (8)
0x2c0|ff ff ff ff e1 96 97 f0                        |........        |      [18]: "1953-10-31T15:00:00Z" (-510224400) transition_time 0x2c0-0x2c7.7 (8)
0x2c0|                        ff ff ff ff e2 5d b8 80|        .....]..|      [19]: "1954-03-31T16:00:00Z" (-497174400) transition_time 0x2c8-0x2cf.7 (8)
0x2d0|ff ff ff ff e3 77 cb 70                        |.....w.p        |      [20]: "1954-10-31T15:00:00Z" (-478688400) transition_time 0x2d0-0x2d7.7 (8)
0x2d0|                        ff ff ff ff e4 3e ec 00|        .....>..|      [21]: "1955-03-31T16:00:00Z" (-465638400) transition_time 0x2d8-0x2df.7 (8)
0x2e0|ff ff ff ff e5 30 20 70                        |.....0 p        |      [22]: "1955-09-30T15:00:00Z" (-449830800) transition_time 0x2e0-0x2e7.7 (8)
0x2e0|                        ff ff ff ff e6 21 71 00|        .....!q.|      [23]: "1956-03-31T16:00:00Z" (-434016000) transition_time 0x2e8-0x2ef.7 (8)
0x2f0|ff ff ff ff e7 12 a5 70                        |.......p        |      [24]: "1956-09-30T15:00:00Z" (-418208400) transition_time 0x2f0-0x2f7.7 (8)
0x2f0|                        ff ff ff ff e8 02 a4 80|        ........|      [25]: "1957-03-31T16:00:00Z" (-402480000) transition_time 0x2f8-0x2ff.7 (8)
0x300|ff ff ff ff e8 f3 d8 f0                        |........        |      [26]: "1957-09-30T15:00:00Z" (-386672400) transition_time 0x300-0x307.7 (8)
0x300|                        ff ff ff ff e9 e3 d8 00|        ........|      [27]: "1958-03-31T16:00:00Z" (-370944000) transition_time 0x308-0x30f.7 (8)
0x310|ff ff ff ff ea d5 0c 70                        |.......p        |      [28]: "1958-09-30T15:00:00Z" (-355136400) transition_time 0x310-0x317.7 (8)
0x310|                        ff ff ff ff eb c5 0b 80|        ........|      [29]: "1959-03-31T16:00:00Z" (-339408000) transition_time 0x318-0x31f.7 (8)
0x320|ff ff ff ff ec b6 3f f0                        |......?.        |      [30]: "1959-09-30T15:00:00Z" (-323600400) transition_time 0x320-0x327.7 (8)
0x320|                        ff ff ff ff ed f7 fc 00|        ........|      [31]: "1960-05-31T16:00:00Z" (-302515200) transition_time 0x328-0x32f.7 (8)
0x330|ff ff ff ff ee 98 c4 f0                        |........        |      [32]: "1960-09-30T15:00:00Z" (-291978000) transition_time 0x330-0x337.7 (8)
0x330|                        ff ff ff ff ef d9 2f 80|        ....../.|      [33]: "1961-05-31T16:00:00Z" (-270979200) transition_time 0x338-0x33f.7 (8)
0x340|ff ff ff ff f0 79 f8 70                        |.....y.p        |      [34]: "1961-09-30T15:00:00Z" (-260442000) transition_time 0x340-0x347.7 (8)
0x340|                        00 00 00 00 07 fc 56 03|        ......V.|      [35]: "1974-03-31T16:00:03Z" (133977603) transition_time 0x348-0x34f.7 (8)
0x350|00 00 00 00 08 ed 8a 73                        |.......s        |      [36]: "1974-09-30T15:00:03Z" (149785203) transition_time 0x350-0x357.7 (8)
0x350|                        00 00 00 00 09 dd 89 84|        ........|      [37]: "1975-03-31T16:00:04Z" (165513604) transition_time 0x358-0x35f.7 (8)
0x360|00 00 00 00 0a ce bd f4                        |........        |      [38]: "1975-09-30T15:00:04Z" (181321204) transition_time 0x360-0x367.7 (8)
0x360|                        00 00 00 00 11 db a1 88|        ........|      [39]: "1979-06-30T16:00:08Z" (299606408) transition_time 0x368-0x36f.7 (8)
0x370|00 00 00 00 12 54 dd 78                        |.....T.x        |      [40]: "1979-09-30T15:00:08Z" (307551608) transition_time 0x370-0x377.7 (8)
0x370|                        00 00 00 00 64 9b 78 1b|        ....d.x.|      [41]: "2023-06-28T00:00:27Z" (1687910427) transition_time 0x378-0x37f.7 (8)
     |                                               |                |    transition_types[0:42]: 0x380-0x3a9.7 (42)
0x380|01                                             |.               |      [0]: 1 transition_type 0x380-0x380.7 (1)
0x380|   02                                          | .              |      [1]: 2 transition_type 0x381-0x381.7 (1)
0x380|      01                                       |  .             |      [2]: 1 transition_type 0x382-0x382.7 (1)
0x380|         03                                    |   .            |      [3]: 3 transition_type 0x383-0x383.7 (1)
0x380|            01                                 |    .           |      [4]: 1 transition_type 0x384-0x384.7 (1)
0x380|               03                              |     .          |      [5]: 3 transition_type 0x385-0x385.7 (1)
0x380|                  01                           |      .         |      [6]: 1 transition_type 0x386-0x386.7 (1)
0x380|                     03                        |       .        |      [7]: 3 transition_type 0x387-0x387.7 (1)
0x380|                        01                     |        .       |      [8]: 1 transition_type 0x388-0x388.7 (1)
0x380|                           03                  |         .      |      [9]: 3 transition_type 0x389-0x389.7 (1)
0x380|                              01               |          .     |      [10]: 1 transition_type 0x38a-0x38a.7 (1)
0x380|                                 03            |           .    |      [11]: 3 transition_type 0x38b-0x38b.7 (1)
0x380|                                    01         |            .   |      [12]: 1 transition_type 0x38c-0x38c.7 (1)
0x380|                                       03      |             .  |      [13]: 3 transition_type 0x38d-0x38d.7 (1)
0x380|                                          01   |              . |      [14]: 1 transition_type 0x38e-0x38e.7 (1)
0x380|                                             03|               .|      [15]: 3 transition_type 0x38f-0x38f.7 (1)
0x390|01                                             |.               |      [16]: 1 transition_type 0x390-0x390.7 (1)
0x390|   03                                          | .              |      [17]: 3 transition_type 0x391-0x391.7 (1)
0x390|      01                                       |  .             |      [18]: 1 transition_type 0x392-0x392.7 (1)
0x390|         03                                    |   .            |      [19]: 3 transition_type 0x393-0x393.7 (1)
0x390|            01                                 |    .           |      [20]: 1 transition_type 0x394-0x394.7 (1)
0x390|               03                              |     .          |      [21]: 3 transition_type 0x395-0x395.7 (1)
0x390|                  01                           |      .         |      [22]: 1 transition_type 0x396-0x396.7 (1)
0x390|                     03                        |       .        |      [23]: 3 transition_type 0x397-0x397.7 (1)
0x390|                        01                     |        .       |      [24]: 1 transition_type 0x398-0x398.7 (1)
0x390|                           03                  |         .      |      [25]: 3 transition_type 0x399-0x399.7 (1)
0x390|                              01               |          .     |      [26]: 1 transition_type 0x39a-0x39a.7 (1)
0x390|                                 03            |           .    |      [27]: 3 transition_type 0x39b-0x39b.7 (1)
0x390|                                    01         |            .   |      [28]: 1 transition_type 0x39c-0x39c.7 (1)
0x390|                                       03      |             .  |      [29]: 3 transition_type 0x39d-0x39d.7 (1)
0x390|                                          01   |              . |      [30]: 1 transition_type 0x39e-0x39e.7 (1)
0x390|                                             03|               .|      [31]: 3 transition_type 0x39f-0x39f.7 (1)
0x3a0|01                                             |.               |      [32]: 1 transition_type 0x3a0-0x3a0.7 (1)
0x3a0|   03                                          | .              |      [33]: 3 transition_type 0x3a1-0x3a1.7 (1)
0x3a0|      01                                       |  .             |      [34]: 1 transition_type 0x3a2-0x3a2.7 (1)
0x3a0|         03                                    |   .            |      [35]: 3 transition_type 0x3a3-0x3a3.7 (1)
0x3a0|            01                                 |    .           |      [36]: 1 transition_type 0x3a4-0x3a4.7 (1)
0x3a0|               03                              |     .          |      [37]: 3 transition_type 0x3a5-0x3a5.7 (1)
0x3a0|                  01                           |      .         |      [38]: 1 transition_type 0x3a6-0x3a6.7 (1)
0x3a0|                     03                        |       .        |      [39]: 3 transition_type 0x3a7-0x3a7.7 (1)
0x3a0|                        01                     |        .       |      [40]: 1 transition_type 0x3a8-0x3a8.7 (1)
0x3a0|                           01                  |         .      |      [41]: 1 transition_type 0x3a9-0x3a9.7 (1)
     |                                               |                |    local_time_type_records[0:5]: 0x3aa-0x3c7.7 (30)
     |                                               |                |      [0]{}: local_time_type 0x3aa-0x3af.7 (6)
0x3a0|                              00 00 71 e8      |          ..q.  |        utoff: 29160 (valid) 0x3aa-0x3ad.7 (4)
0x3a0|                                          00   |              . |        dst: 0 (valid) 0x3ae-0x3ae.7 (1)
0x3a0|                                             00|               .|        idx: 0 (valid) 0x3af-0x3af.7 (1)
     |                                               |                |      [1]{}: local_time_type 0x3b0-0x3b5.7 (6)
0x3b0|00 00 70 80                                    |..p.            |        utoff: 28800 (valid) 0x3b0-0x3b3.7 (4)
0x3b0|            00                                 |    .           |        dst: 0 (valid) 0x3b4-0x3b4.7 (1)
0x3b0|               04                              |     .          |        idx: 4 (valid) 0x3b5-0x3b5.7 (1)
     |                                               |                |      [2]{}: local_time_type 0x3b6-0x3bb.7 (6)
0x3b0|                  00 00 7e 90                  |      ..~.      |        utoff: 32400 (valid) 0x3b6-0x3b9.7 (4)
0x3b0|                              00               |          .     |        dst: 0 (valid) 0x3ba-0x3ba.7 (1)
0x3b0|                                 08            |           .    |        idx: 8 (valid) 0x3bb-0x3bb.7 (1)
     |                                               |                |      [3]{}: local_time_type 0x3bc-0x3c1.7 (6)
0x3b0|                                    00 00 7e 90|            ..~.|        utoff: 32400 (valid) 0x3bc-0x3bf.7 (4)
0x3c0|01                                             |.               |        dst: 1 (valid) 0x3c0-0x3c0.7 (1)
0x3c0|   0c                                          | .              |        idx: 12 (valid) 0x3c1-0x3c1.7 (1)
     |                                               |                |      [4]{}: local_time_type 0x3c2-0x3c7.7 (6)
0x3c0|      00 00 70 80                              |  ..p.          |        utoff: 28800 (valid) 0x3c2-0x3c5.7 (4)
0x3c0|                  00                           |      .         |        dst: 0 (valid) 0x3c6-0x3c6.7 (1)
0x3c0|                     04                        |       .        |        idx: 4 (valid) 0x3c7-0x3c7.7 (1)
     |                                               |                |    time_zone_designations[0:4]: 0x3c8-0x3d7.7 (16)
0x3c0|                        4c 4d 54 00            |        LMT.    |      [0]: "LMT" time_zone_designation 0x3c8-0x3cb.7 (4)
0x3c0|                                    43 53 54 00|            CST.|      [1]: "CST" time_zone_designation 0x3cc-0x3cf.7 (4)
0x3d0|4a 53 54 00                                    |JST.            |      [2]: "JST" time_zone_designation 0x3d0-0x3d3.7 (4)
0x3d0|            43 44 54 00                        |    CDT.        |      [3]: "CDT" time_zone_designation 0x3d4-0x3d7.7 (4)
     |                                               |                |    leap_second_records[0:27]: 0x3d8-0x51b.7 (324)
     |                                               |                |      [0]{}: leap_second_record 0x3d8-0x3e3.7 (12)
0x3d0|                        00 00 00 00 04 b2 58 00|        ......X.|        occur: "1972-07-01T00:00:00Z" (78796800) 0x3d8-0x3df.7 (8)
0x3e0|00 00 00 01                                    |....            |        corr: 1 0x3e0-0x3e3.7 (4)
     |                                               |                |      [1]{}: leap_second_record 0x3e4-0x3ef.7 (12)
0x3e0|            00 00 00 00 05 a4 ec 01            |    ........    |        occur: "1973-01-01T00:00:01Z" (94694401) 0x3e4-0x3eb.7 (8)
0x3e0|                                    00 00 00 02|            ....|        corr: 2 0x3ec-0x3ef.7 (4)
     |                                               |                |      [2]{}: leap_second_record 0x3f0-0x3fb.7 (12)
0x3f0|00 00 00 00 07 86 1f 82                        |........        |        occur: "1974-01-01T00:00:02Z" (126230402) 0x3f0-0x3f7.7 (8)
0x3f0|                        00 00 00 03            |        ....    |        corr: 3 0x3f8-0x3fb.7 (4)
     |                                               |                |      [3]{}: leap_second_record 0x3fc-0x407.7 (12)
0x3f0|                                    00 00 00 00|            ....|        occur: "1975-01-01T00:00:03Z" (157766403) 0x3fc-0x403.7 (8)
0x400|09 67 53 03                                    |.gS.            |
0x400|            00 00 00 04                        |    ....        |        corr: 4 0x404-0x407.7 (4)
     |                                               |                |      [4]{}: leap_second_record 0x408-0x413.7 (12)
0x400|                        00 00 00 00 0b 48 86 84|        .....H..|        occur: "1976-01-01T00:00:04Z" (189302404) 0x408-0x40f.7 (8)
0x410|00 00 00 05                                    |....            |        corr: 5 0x410-0x413.7 (4)
     |                                               |                |      [5]{}: leap_second_record 0x414-0x41f.7 (12)
0x410|            00 00 00 00 0d 2b 0b 85            |    .....+..    |        occur: "1977-01-01T00:00:05Z" (220924805) 0x414-0x41b.7 (8)
0x410|                                    00 00 00 06|            ....|        corr: 6 0x41c-0x41f.7 (4)
     |                                               |                |      [6]{}: leap_second_record 0x420-0x42b.7 (12)
0x420|00 00 00 00 0f 0c 3f 06                        |......?.        |        occur: "1978-01-01T00:00:06Z" (252460806) 0x420-0x427.7 (8)
0x420|                        00 00 00 07            |        ....    |        corr: 7 0x428-0x42b.7 (4)
     |                                               |                |      [7]{}: leap_second_record 0x42c-0x437.7 (12)
0x420|                                    00 00 00 00|            ....|        occur: "1979-01-01T00:00:07Z" (283996807) 0x42c-0x433.7 (8)
0x430|10 ed 72 87                                    |..r.            |
0x430|            00 00 00 08                        |    ....        |        corr: 8 0x434-0x437.7 (4)
     |                                               |                |      [8]{}: leap_second_record 0x438-0x443.7 (12)
0x430|                        00 00 00 00 12 ce a6 08|        ........|        occur: "1980-01-01T00:00:08Z" (315532808) 0x438-0x43f.7 (8)
0x440|00 00 00 09                                    |....            |        corr: 9 0x440-0x443.7 (4)
     |                                               |                |      [9]{}: leap_second_record 0x444-0x44f.7 (12)
0x440|            00 00 00 00 15 9f ca 89            |    ........    |        occur: "1981-07-01T00:00:09Z" (362793609) 0x444-0x44b.7 (8)
0x440|                                    00 00 00 0a|            ....|        corr: 10 0x44c-0x44f.7 (4)
     |                                               |                |      [10]{}: leap_second_record 0x450-0x45b.7 (12)
0x450|00 00 00 00 17 80 fe 0a                        |........        |        occur: "1982-07-01T00:00:10Z" (394329610) 0x450-0x457.7 (8)
0x450|                        00 00 00 0b            |        ....    |        corr: 11 0x458-0x45b.7 (4)
     |                                               |                |      [11]{}: leap_second_record 0x45c-0x467.7 (12)
0x450|                                    00 00 00 00|            ....|        occur: "1983-07-01T00:00:11Z" (425865611) 0x45c-0x463.7 (8)
0x460|19 62 31 8b                                    |.b1.            |
0x460|            00 00 00 0c                        |    ....        |        corr: 12 0x464-0x467.7 (4)
     |                                               |                |      [12]{}: leap_second_record 0x468-0x473.7 (12)
0x460|                        00 00 00 00 1d 25 ea 0c|        .....%..|        occur: "1985-07-01T00:00:12Z" (489024012) 0x468-0x46f.7 (8)
0x470|00 00 00 0d                                    |....            |        corr: 13 0x470-0x473.7 (4)
     |                                               |                |      [13]{}: leap_second_record 0x474-0x47f.7 (12)
0x470|            00 00 00 00 21 da e5 0d            |    ....!...    |        occur: "1988-01-01T00:00:13Z" (567993613) 0x474-0x47b.7 (8)
0x470|                                    00 00 00 0e|            ....|        corr: 14 0x47c-0x47f.7 (4)
     |                                               |                |      [14]{}: leap_second_record 0x480-0x48b.7 (12)
0x480|00 00 00 00 25 9e 9d 8e                        |....%...        |        occur: "1990-01-01T00:00:14Z" (631152014) 0x480-0x487.7 (8)
0x480|                        00 00 00 0f            |        ....    |        corr: 15 0x488-0x48b.7 (4)
     |                                               |                |      [15]{}: leap_second_record 0x48c-0x497.7 (12)
0x480|                                    00 00 00 00|            ....|        occur: "1991-01-01T00:00:15Z" (662688015) 0x48c-0x493.7 (8)
0x490|27 7f d1 0f                                    |'...            |
0x490|            00 00 00 10                        |    ....        |        corr: 16 0x494-0x497.7 (4)
     |                                               |                |      [16]{}: leap_second_record 0x498-0x4a3.7 (12)
0x490|                        00 00 00 00 2a 50 f5 90|        ....*P..|        occur: "1992-07-01T00:00:16Z" (709948816) 0x498-0x49f.7 (8)
0x4a0|00 00 00 11                                    |....            |        corr: 17 0x4a0-0x4a3.7 (4)
     |                                               |                |      [17]{}: leap_second_record 0x4a4-0x4af.7 (12)
0x4a0|            00 00 00 00 2c 32 29 11            |    ....,2).    |        occur: "1993-07-01T00:00:17Z" (741484817) 0x4a4-0x4ab.7 (8)
0x4a0|                                    00 00 00 12|            ....|        corr: 18 0x4ac-0x4af.7 (4)
     |                                               |                |      [18]{}: leap_second_record 0x4b0-0x4bb.7 (12)
0x4b0|00 00 00 00 2e 13 5c 92                        |......\.        |        occur: "1994-07-01T00:00:18Z" (773020818) 0x4b0-0x4b7.7 (8)
0x4b0|                        00 00 00 13            |        ....    |        corr: 19 0x4b8-0x4bb.7 (4)
     |                                               |                |      [19]{}: leap_second_record 0x4bc-0x4c7.7 (12)
0x4b0|                                    00 00 00 00|            ....|        occur: "1996-01-01T00:00:19Z" (820454419) 0x4bc-0x4c3.7 (8)
0x4c0|30 e7 24 13                                    |0.$.            |
0x4c0|            00 00 00 14                        |    ....        |        corr: 20 0x4c4-0x4c7.7 (4)
     |                                               |                |      [20]{}: leap_second_record 0x4c8-0x4d3.7 (12)
0x4c0|                        00 00 00 00 33 b8 48 94|        ....3.H.|        occur: "1997-07-01T00:00:20Z" (867715220) 0x4c8-0x4cf.7 (8)
0x4d0|00 00 00 15                                    |....            |        corr: 21 0x4d0-0x4d3.7 (4)
     |                                               |                |      [21]{}: leap_second_record 0x4d4-0x4df.7 (12)
0x4d0|            00 00 00 00 36 8c 10 15            |    ....6...    |        occur: "1999-01-01T00:00:21Z" (915148821) 0x4d4-0x4db.7 (8)
0x4d0|                                    00 00 00 16|            ....|        corr: 22 0x4dc-0x4df.7 (4)
     |                                               |                |      [22]{}: leap_second_record 0x4e0-0x4eb.7 (12)
0x4e0|00 00 00 00 43 b7 1b 96                        |....C...        |        occur: "2006-01-01T00:00:22Z" (1136073622) 0x4e0-0x4e7.7 (8)
0x4e0|                        00 00 00 17            |        ....    |        corr: 23 0x4e8-0x4eb.7 (4)
     |                                               |                |      [23]{}: leap_second_record 0x4ec-0x4f7.7 (12)
0x4e0|                                    00 00 00 00|            ....|        occur: "2009-01-01T00:00:23Z" (1230768023) 0x4ec-0x4f3.7 (8)
0x4f0|49 5c 07 97                                    |I\..            |
0x4f0|            00 00 00 18                        |    ....        |        corr: 24 0x4f4-0x4f7.7 (4)
     |                                               |                |      [24]{}: leap_second_record 0x4f8-0x503.7 (12)
0x4f0|                        00 00 00 00 4f ef 93 18|        ....O...|        occur: "2012-07-01T00:00:24Z" (1341100824) 0x4f8-0x4ff.7 (8)
0x500|00 00 00 19                                    |....            |        corr: 25 0x500-0x503.7 (4)
     |                                               |                |      [25]{}: leap_second_record 0x504-0x50f.7 (12)
0x500|            00 00 00 00 55 93 2d 99            |    ....U.-.    |        occur: "2015-07-01T00:00:25Z" (1435708825) 0x504-0x50b.7 (8)
0x500|                                    00 00 00 1a|            ....|        corr: 26 0x50c-0x50f.7 (4)
     |                                               |                |      [26]{}: leap_second_record 0x510-0x51b.7 (12)
0x510|00 00 00 00 58 68 46 9a                        |....XhF.        |        occur: "2017-01-01T00:00:26Z" (1483228826) 0x510-0x517.7 (8)
0x510|                        00 00 00 1b            |        ....    |        corr: 27 0x518-0x51b.7 (4)
     |                                               |                |    standard_wall_indicators[0:0]: 0x51c-NA (0)
     |                                               |                |    ut_local_indicators[0:0]: 0x51c-NA (0)
     |                                               |                |  footer{}: 0x51c-0x51d.7 (2)
0x510|                                    0a         |            .   |    nl1: 10 (valid) 0x51c-0x51c.7 (1)
     |                                               |                |    tz_string: "" 0x51d-NA (0)
0x510|                                       0a|     |             .| |    nl2: 10 (valid) 0x51d-0x51d.7 (1)
