$ fq -d tzif dv Tallinn
     |00 01 02 03 04 05 06 07 08 09 0a 0b 0c 0d 0e 0f|0123456789abcdef|.{}: Tallinn (tzif) 0x0-0x863.7 (2148)
     |                                               |                |  v1header{}: 0x0-0x2b.7 (44)
0x000|54 5a 69 66                                    |TZif            |    magic: 0x545a6966 (valid) 0x0-0x3.7 (4)
0x000|            32                                 |    2           |    ver: "2" (0x32) (valid) 0x4-0x4.7 (1)
0x000|               00 00 00 00 00 00 00 00 00 00 00|     ...........|    reserved: raw bits 0x5-0x13.7 (15)
0x010|00 00 00 00                                    |....            |
0x010|            00 00 00 0f                        |    ....        |    isutcnt: 15 0x14-0x17.7 (4)
0x010|                        00 00 00 0f            |        ....    |    isstdcnt: 15 0x18-0x1b.7 (4)
0x010|                                    00 00 00 00|            ....|    leapcnt: 0 0x1c-0x1f.7 (4)
0x020|00 00 00 7b                                    |...{            |    timecnt: 123 0x20-0x23.7 (4)
0x020|            00 00 00 0f                        |    ....        |    typecnt: 15 0x24-0x27.7 (4)
0x020|                        00 00 00 22            |        ..."    |    charcnt: 34 0x28-0x2b.7 (4)
     |                                               |                |  v1datablock{}: 0x2c-0x32c.7 (769)
     |                                               |                |    transition_times[0:123]: 0x2c-0x217.7 (492)
0x020|                                    80 00 00 00|            ....|      [0]: "1901-12-13T20:45:52Z" (-2147483648) transition_time 0x2c-0x2f.7 (4)
0x030|9e 59 2d cc                                    |.Y-.            |      [1]: "1918-01-31T22:21:00Z" (-1638322740) transition_time 0x30-0x33.7 (4)
0x030|            9e b9 90 90                        |    ....        |      [2]: "1918-04-15T01:00:00Z" (-1632006000) transition_time 0x34-0x37.7 (4)
0x030|                        9f 84 97 90            |        ....    |      [3]: "1918-09-16T01:00:00Z" (-1618700400) transition_time 0x38-0x3b.7 (4)
0x030|                                    a1 00 2b 70|            ..+p|      [4]: "1919-06-30T23:00:00Z" (-1593824400) transition_time 0x3c-0x3f.7 (4)
0x040|a4 73 6f 4c                                    |.soL            |      [5]: "1921-04-30T22:21:00Z" (-1535938740) transition_time 0x40-0x43.7 (4)
0x040|            c8 b0 b5 e0                        |    ....        |      [6]: "1940-08-05T22:00:00Z" (-927943200) transition_time 0x44-0x47.7 (4)
0x040|                        ca c6 97 50            |        ...P    |      [7]: "1941-09-14T21:00:00Z" (-892954800) transition_time 0x48-0x4b.7 (4)
0x040|                                    cc e7 4b 10|            ..K.|      [8]: "1942-11-02T01:00:00Z" (-857257200) transition_time 0x4c-0x4f.7 (4)
0x050|cd a9 17 90                                    |....            |      [9]: "1943-03-29T01:00:00Z" (-844556400) transition_time 0x50-0x53.7 (4)
0x050|            ce a2 43 10                        |    ..C.        |      [10]: "1943-10-04T01:00:00Z" (-828226800) transition_time 0x54-0x57.7 (4)
0x050|                        cf 92 34 10            |        ..4.    |      [11]: "1944-04-03T01:00:00Z" (-812502000) transition_time 0x58-0x5b.7 (4)
0x050|                                    d0 74 cb e0|            .t..|      [12]: "1944-09-21T22:00:00Z" (-797652000) transition_time 0x5c-0x5f.7 (4)
0x060|15 27 a7 d0                                    |.'..            |      [13]: "1981-03-31T21:00:00Z" (354920400) transition_time 0x60-0x63.7 (4)
0x060|            16 18 dc 40                        |    ...@        |      [14]: "1981-09-30T20:00:00Z" (370728000) transition_time 0x64-0x67.7 (4)
0x060|                        17 08 db 50            |        ...P    |      [15]: "1982-03-31T21:00:00Z" (386456400) transition_time 0x68-0x6b.7 (4)
0x060|                                    17 fa 0f c0|            ....|      [16]: "1982-09-30T20:00:00Z" (402264000) transition_time 0x6c-0x6f.7 (4)
0x070|18 ea 0e d0                                    |....            |      [17]: "1983-03-31T21:00:00Z" (417992400) transition_time 0x70-0x73.7 (4)
0x070|            19 db 43 40                        |    ..C@        |      [18]: "1983-09-30T20:00:00Z" (433800000) transition_time 0x74-0x77.7 (4)
0x070|                        1a cc 93 d0            |        ....    |      [19]: "1984-03-31T21:00:00Z" (449614800) transition_time 0x78-0x7b.7 (4)
0x070|                                    1b bc a0 f0|            ....|      [20]: "1984-09-29T23:00:00Z" (465346800) transition_time 0x7c-0x7f.7 (4)
0x080|1c ac 91 f0                                    |....            |      [21]: "1985-03-30T23:00:00Z" (481071600) transition_time 0x80-0x83.7 (4)
0x080|            1d 9c 82 f0                        |    ....        |      [22]: "1985-09-28T23:00:00Z" (496796400) transition_time 0x84-0x87.7 (4)
0x080|                        1e 8c 73 f0            |        ..s.    |      [23]: "1986-03-29T23:00:00Z" (512521200) transition_time 0x88-0x8b.7 (4)
0x080|                                    1f 7c 64 f0|            .|d.|      [24]: "1986-09-27T23:00:00Z" (528246000) transition_time 0x8c-0x8f.7 (4)
0x090|20 6c 55 f0                                    | lU.            |      [25]: "1987-03-28T23:00:00Z" (543970800) transition_time 0x90-0x93.7 (4)
0x090|            21 5c 46 f0                        |    !\F.        |      [26]: "1987-09-26T23:00:00Z" (559695600) transition_time 0x94-0x97.7 (4)
0x090|                        22 4c 37 f0            |        "L7.    |      [27]: "1988-03-26T23:00:00Z" (575420400) transition_time 0x98-0x9b.7 (4)
0x090|                                    23 3c 28 f0|            #<(.|      [28]: "1988-09-24T23:00:00Z" (591145200) transition_time 0x9c-0x9f.7 (4)
0x0a0|24 2c 19 f0                                    |$,..            |      [29]: "1989-03-25T23:00:00Z" (606870000) transition_time 0xa0-0xa3.7 (4)
0x0a0|            25 1c 19 00                        |    %...        |      [30]: "1989-09-24T00:00:00Z" (622598400) transition_time 0xa4-0xa7.7 (4)
0x0a0|                        26 0c 0a 00            |        &...    |      [31]: "1990-03-25T00:00:00Z" (638323200) transition_time 0xa8-0xab.7 (4)
0x0a0|                                    27 05 35 80|            '.5.|      [32]: "1990-09-30T00:00:00Z" (654652800) transition_time 0xac-0xaf.7 (4)
0x0b0|27 f5 26 80                                    |'.&.            |      [33]: "1991-03-31T00:00:00Z" (670377600) transition_time 0xb0-0xb3.7 (4)
0x0b0|            28 e5 17 80                        |    (...        |      [34]: "1991-09-29T00:00:00Z" (686102400) transition_time 0xb4-0xb7.7 (4)
0x0b0|                        29 d5 08 80            |        )...    |      [35]: "1992-03-29T00:00:00Z" (701827200) transition_time 0xb8-0xbb.7 (4)
0x0b0|                                    2a c4 f9 80|            *...|      [36]: "1992-09-27T00:00:00Z" (717552000) transition_time 0xbc-0xbf.7 (4)
0x0c0|2b b4 ea 80                                    |+...            |      [37]: "1993-03-28T00:00:00Z" (733276800) transition_time 0xc0-0xc3.7 (4)
0x0c0|            2c a4 db 80                        |    ,...        |      [38]: "1993-09-26T00:00:00Z" (749001600) transition_time 0xc4-0xc7.7 (4)
0x0c0|                        2d 94 cc 80            |        -...    |      [39]: "1994-03-27T00:00:00Z" (764726400) transition_time 0xc8-0xcb.7 (4)
0x0c0|                                    2e 84 bd 80|            ....|      [40]: "1994-09-25T00:00:00Z" (780451200) transition_time 0xcc-0xcf.7 (4)
0x0d0|2f 74 ae 80                                    |/t..            |      [41]: "1995-03-26T00:00:00Z" (796176000) transition_time 0xd0-0xd3.7 (4)
0x0d0|            30 64 9f 80                        |    0d..        |      [42]: "1995-09-24T00:00:00Z" (811900800) transition_time 0xd4-0xd7.7 (4)
0x0d0|                        31 5d cb 00            |        1]..    |      [43]: "1996-03-31T00:00:00Z" (828230400) transition_time 0xd8-0xdb.7 (4)
0x0d0|                                    32 72 a6 00|            2r..|      [44]: "1996-10-27T00:00:00Z" (846374400) transition_time 0xdc-0xdf.7 (4)
0x0e0|33 3d ad 00                                    |3=..            |      [45]: "1997-03-30T00:00:00Z" (859680000) transition_time 0xe0-0xe3.7 (4)
0x0e0|            34 52 88 00                        |    4R..        |      [46]: "1997-10-26T00:00:00Z" (877824000) transition_time 0xe4-0xe7.7 (4)
0x0e0|                        35 1d 8f 00            |        5...    |      [47]: "1998-03-29T00:00:00Z" (891129600) transition_time 0xe8-0xeb.7 (4)
0x0e0|                                    36 32 78 10|            62x.|      [48]: "1998-10-25T01:00:00Z" (909277200) transition_time 0xec-0xef.7 (4)
0x0f0|36 fd 7f 10                                    |6...            |      [49]: "1999-03-28T01:00:00Z" (922582800) transition_time 0xf0-0xf3.7 (4)
0x0f0|            38 1b 94 90                        |    8...        |      [50]: "1999-10-31T01:00:00Z" (941331600) transition_time 0xf4-0xf7.7 (4)
0x0f0|                        3c a6 5f 90            |        <._.    |      [51]: "2002-03-31T01:00:00Z" (1017536400) transition_time 0xf8-0xfb.7 (4)
0x0f0|                                    3d bb 3a 90|            =.:.|      [52]: "2002-10-27T01:00:00Z" (1035680400) transition_time 0xfc-0xff.7 (4)
0x100|3e 86 41 90                                    |>.A.            |      [53]: "2003-03-30T01:00:00Z" (1048986000) transition_time 0x100-0x103.7 (4)
0x100|            3f 9b 1c 90                        |    ?...        |      [54]: "2003-10-26T01:00:00Z" (1067130000) transition_time 0x104-0x107.7 (4)
0x100|                        40 66 23 90            |        @f#.    |      [55]: "2004-03-28T01:00:00Z" (1080435600) transition_time 0x108-0x10b.7 (4)
0x100|                                    41 84 39 10|            A.9.|      [56]: "2004-10-31T01:00:00Z" (1099184400) transition_time 0x10c-0x10f.7 (4)
0x110|42 46 05 90                                    |BF..            |      [57]: "2005-03-27T01:00:00Z" (1111885200) transition_time 0x110-0x113.7 (4)
0x110|            43 64 1b 10                        |    Cd..        |      [58]: "2005-10-30T01:00:00Z" (1130634000) transition_time 0x114-0x117.7 (4)
0x110|                        44 25 e7 90            |        D%..    |      [59]: "2006-03-26T01:00:00Z" (1143334800) transition_time 0x118-0x11b.7 (4)
0x110|                                    45 43 fd 10|            EC..|      [60]: "2006-10-29T01:00:00Z" (1162083600) transition_time 0x11c-0x11f.7 (4)
0x120|46 05 c9 90                                    |F...            |      [61]: "2007-03-25T01:00:00Z" (1174784400) transition_time 0x120-0x123.7 (4)
0x120|            47 23 df 10                        |    G#..        |      [62]: "2007-10-28T01:00:00Z" (1193533200) transition_time 0x124-0x127.7 (4)
0x120|                        47 ee e6 10            |        G...    |      [63]: "2008-03-30T01:00:00Z" (1206838800) transition_time 0x128-0x12b.7 (4)
0x120|                                    49 03 c1 10|            I...|      [64]: "2008-10-26T01:00:00Z" (1224982800) transition_time 0x12c-0x12f.7 (4)
0x130|49 ce c8 10                                    |I...            |      [65]: "2009-03-29T01:00:00Z" (1238288400) transition_time 0x130-0x133.7 (4)
0x130|            4a e3 a3 10                        |    J...        |      [66]: "2009-10-25T01:00:00Z" (1256432400) transition_time 0x134-0x137.7 (4)
0x130|                        4b ae aa 10            |        K...    |      [67]: "2010-03-28T01:00:00Z" (1269738000) transition_time 0x138-0x13b.7 (4)
0x130|                                    4c cc bf 90|            L...|      [68]: "2010-10-31T01:00:00Z" (1288486800) transition_time 0x13c-0x13f.7 (4)
0x140|4d 8e 8c 10                                    |M...            |      [69]: "2011-03-27T01:00:00Z" (1301187600) transition_time 0x140-0x143.7 (4)
0x140|            4e ac a1 90                        |    N...        |      [70]: "2011-10-30T01:00:00Z" (1319936400) transition_time 0x144-0x147.7 (4)
0x140|                        4f 6e 6e 10            |        Onn.    |      [71]: "2012-03-25T01:00:00Z" (1332637200) transition_time 0x148-0x14b.7 (4)
0x140|                                    50 8c 83 90|            P...|      [72]: "2012-10-28T01:00:00Z" (1351386000) transition_time 0x14c-0x14f.7 (4)
0x150|51 57 8a 90                                    |QW..            |      [73]: "2013-03-31T01:00:00Z" (1364691600) transition_time 0x150-0x153.7 (4)
0x150|            52 6c 65 90                        |    Rle.        |      [74]: "2013-10-27T01:00:00Z" (1382835600) transition_time 0x154-0x157.7 (4)
0x150|                        53 37 6c 90            |        S7l.    |      [75]: "2014-03-30T01:00:00Z" (1396141200) transition_time 0x158-0x15b.7 (4)
0x150|                                    54 4c 47 90|            TLG.|      [76]: "2014-10-26T01:00:00Z" (1414285200) transition_time 0x15c-0x15f.7 (4)
0x160|55 17 4e 90                                    |U.N.            |      [77]: "2015-03-29T01:00:00Z" (1427590800) transition_time 0x160-0x163.7 (4)
0x160|            56 2c 29 90                        |    V,).        |      [78]: "2015-10-25T01:00:00Z" (1445734800) transition_time 0x164-0x167.7 (4)
0x160|                        56 f7 30 90            |        V.0.    |      [79]: "2016-03-27T01:00:00Z" (1459040400) transition_time 0x168-0x16b.7 (4)
0x160|                                    58 15 46 10|            X.F.|      [80]: "2016-10-30T01:00:00Z" (1477789200) transition_time 0x16c-0x16f.7 (4)
0x170|58 d7 12 90                                    |X...            |      [81]: "2017-03-26T01:00:00Z" (1490490000) transition_time 0x170-0x173.7 (4)
0x170|            59 f5 28 10                        |    Y.(.        |      [82]: "2017-10-29T01:00:00Z" (1509238800) transition_time 0x174-0x177.7 (4)
0x170|                        5a b6 f4 90            |        Z...    |      [83]: "2018-03-25T01:00:00Z" (1521939600) transition_time 0x178-0x17b.7 (4)
0x170|                                    5b d5 0a 10|            [...|      [84]: "2018-10-28T01:00:00Z" (1540688400) transition_time 0x17c-0x17f.7 (4)
0x180|5c a0 11 10                                    |\...            |      [85]: "2019-03-31T01:00:00Z" (1553994000) transition_time 0x180-0x183.7 (4)
0x180|            5d b4 ec 10                        |    ]...        |      [86]: "2019-10-27T01:00:00Z" (1572138000) transition_time 0x184-0x187.7 (4)
0x180|                        5e 7f f3 10            |        ^...    |      [87]: "2020-03-29T01:00:00Z" (1585443600) transition_time 0x188-0x18b.7 (4)
0x180|                                    5f 94 ce 10|            _...|      [88]: "2020-10-25T01:00:00Z" (1603587600) transition_time 0x18c-0x18f.7 (4)
0x190|60 5f d5 10                                    |`_..            |      [89]: "2021-03-28T01:00:00Z" (1616893200) transition_time 0x190-0x193.7 (4)
0x190|            61 7d ea 90                        |    a}..        |      [90]: "2021-10-31T01:00:00Z" (1635642000) transition_time 0x194-0x197.7 (4)
0x190|                        62 3f b7 10            |        b?..    |      [91]: "2022-03-27T01:00:00Z" (1648342800) transition_time 0x198-0x19b.7 (4)
0x190|                                    63 5d cc 90|            c]..|      [92]: "2022-10-30T01:00:00Z" (1667091600) transition_time 0x19c-0x19f.7 (4)
0x1a0|64 1f 99 10                                    |d...            |      [93]: "2023-03-26T01:00:00Z" (1679792400) transition_time 0x1a0-0x1a3.7 (4)
0x1a0|            65 3d ae 90                        |    e=..        |      [94]: "2023-10-29T01:00:00Z" (1698541200) transition_time 0x1a4-0x1a7.7 (4)
0x1a0|                        66 08 b5 90            |        f...    |      [95]: "2024-03-31T01:00:00Z" (1711846800) transition_time 0x1a8-0x1ab.7 (4)
0x1a0|                                    67 1d 90 90|            g...|      [96]: "2024-10-27T01:00:00Z" (1729990800) transition_time 0x1ac-0x1af.7 (4)
0x1b0|67 e8 97 90                                    |g...            |      [97]: "2025-03-30T01:00:00Z" (1743296400) transition_time 0x1b0-0x1b3.7 (4)
0x1b0|            68 fd 72 90                        |    h.r.        |      [98]: "2025-10-26T01:00:00Z" (1761440400) transition_time 0x1b4-0x1b7.7 (4)
0x1b0|                        69 c8 79 90            |        i.y.    |      [99]: "2026-03-29T01:00:00Z" (1774746000) transition_time 0x1b8-0x1bb.7 (4)
0x1b0|                                    6a dd 54 90|            j.T.|      [100]: "2026-10-25T01:00:00Z" (1792890000) transition_time 0x1bc-0x1bf.7 (4)
0x1c0|6b a8 5b 90                                    |k.[.            |      [101]: "2027-03-28T01:00:00Z" (1806195600) transition_time 0x1c0-0x1c3.7 (4)
0x1c0|            6c c6 71 10                        |    l.q.        |      [102]: "2027-10-31T01:00:00Z" (1824944400) transition_time 0x1c4-0x1c7.7 (4)
0x1c0|                        6d 88 3d 90            |        m.=.    |      [103]: "2028-03-26T01:00:00Z" (1837645200) transition_time 0x1c8-0x1cb.7 (4)
0x1c0|                                    6e a6 53 10|            n.S.|      [104]: "2028-10-29T01:00:00Z" (1856394000) transition_time 0x1cc-0x1cf.7 (4)
0x1d0|6f 68 1f 90                                    |oh..            |      [105]: "2029-03-25T01:00:00Z" (1869094800) transition_time 0x1d0-0x1d3.7 (4)
0x1d0|            70 86 35 10                        |    p.5.        |      [106]: "2029-10-28T01:00:00Z" (1887843600) transition_time 0x1d4-0x1d7.7 (4)
0x1d0|                        71 51 3c 10            |        qQ<.    |      [107]: "2030-03-31T01:00:00Z" (1901149200) transition_time 0x1d8-0x1db.7 (4)
0x1d0|                                    72 66 17 10|            rf..|      [108]: "2030-10-27T01:00:00Z" (1919293200) transition_time 0x1dc-0x1df.7 (4)
0x1e0|73 31 1e 10                                    |s1..            |      [109]: "2031-03-30T01:00:00Z" (1932598800) transition_time 0x1e0-0x1e3.7 (4)
0x1e0|            74 45 f9 10                        |    tE..        |      [110]: "2031-10-26T01:00:00Z" (1950742800) transition_time 0x1e4-0x1e7.7 (4)
0x1e0|                        75 11 00 10            |        u...    |      [111]: "2032-03-28T01:00:00Z" (1964048400) transition_time 0x1e8-0x1eb.7 (4)
0x1e0|                                    76 2f 15 90|            v/..|      [112]: "2032-10-31T01:00:00Z" (1982797200) transition_time 0x1ec-0x1ef.7 (4)
0x1f0|76 f0 e2 10                                    |v...            |      [113]: "2033-03-27T01:00:00Z" (1995498000) transition_time 0x1f0-0x1f3.7 (4)
0x1f0|            78 0e f7 90                        |    x...        |      [114]: "2033-10-30T01:00:00Z" (2014246800) transition_time 0x1f4-0x1f7.7 (4)
0x1f0|                        78 d0 c4 10            |        x...    |      [115]: "2034-03-26T01:00:00Z" (2026947600) transition_time 0x1f8-0x1fb.7 (4)
0x1f0|                                    79 ee d9 90|            y...|      [116]: "2034-10-29T01:00:00Z" (2045696400) transition_time 0x1fc-0x1ff.7 (4)
0x200|7a b0 a6 10                                    |z...            |      [117]: "2035-03-25T01:00:00Z" (2058397200) transition_time 0x200-0x203.7 (4)
0x200|            7b ce bb 90                        |    {...        |      [118]: "2035-10-28T01:00:00Z" (2077146000) transition_time 0x204-0x207.7 (4)
0x200|                        7c 99 c2 90            |        |...    |      [119]: "2036-03-30T01:00:00Z" (2090451600) transition_time 0x208-0x20b.7 (4)
0x200|                                    7d ae 9d 90|            }...|      [120]: "2036-10-26T01:00:00Z" (2108595600) transition_time 0x20c-0x20f.7 (4)
0x210|7e 79 a4 90                                    |~y..            |      [121]: "2037-03-29T01:00:00Z" (2121901200) transition_time 0x210-0x213.7 (4)
0x210|            7f 8e 7f 90                        |    ....        |      [122]: "2037-10-25T01:00:00Z" (2140045200) transition_time 0x214-0x217.7 (4)
     |                                               |                |    transition_types[0:123]: 0x218-0x292.7 (123)
0x210|                        01                     |        .       |      [0]: 1 transition_type 0x218-0x218.7 (1)
0x210|                           04                  |         .      |      [1]: 4 transition_type 0x219-0x219.7 (1)
0x210|                              02               |          .     |      [2]: 2 transition_type 0x21a-0x21a.7 (1)
0x210|                                 03            |           .    |      [3]: 3 transition_type 0x21b-0x21b.7 (1)
0x210|                                    01         |            .   |      [4]: 1 transition_type 0x21c-0x21c.7 (1)
0x210|                                       05      |             .  |      [5]: 5 transition_type 0x21d-0x21d.7 (1)
0x210|                                          06   |              . |      [6]: 6 transition_type 0x21e-0x21e.7 (1)
0x210|                                             07|               .|      [7]: 7 transition_type 0x21f-0x21f.7 (1)
0x220|03                                             |.               |      [8]: 3 transition_type 0x220-0x220.7 (1)
0x220|   02                                          | .              |      [9]: 2 transition_type 0x221-0x221.7 (1)
0x220|      03                                       |  .             |      [10]: 3 transition_type 0x222-0x222.7 (1)
0x220|         02                                    |   .            |      [11]: 2 transition_type 0x223-0x223.7 (1)
0x220|            06                                 |    .           |      [12]: 6 transition_type 0x224-0x224.7 (1)
0x220|               08                              |     .          |      [13]: 8 transition_type 0x225-0x225.7 (1)
0x220|                  06                           |      .         |      [14]: 6 transition_type 0x226-0x226.7 (1)
0x220|                     08                        |       .        |      [15]: 8 transition_type 0x227-0x227.7 (1)
0x220|                        06                     |        .       |      [16]: 6 transition_type 0x228-0x228.7 (1)
0x220|                           08                  |         .      |      [17]: 8 transition_type 0x229-0x229.7 (1)
0x220|                              06               |          .     |      [18]: 6 transition_type 0x22a-0x22a.7 (1)
0x220|                                 08            |           .    |      [19]: 8 transition_type 0x22b-0x22b.7 (1)
0x220|                                    09         |            .   |      [20]: 9 transition_type 0x22c-0x22c.7 (1)
0x220|                                       0a      |             .  |      [21]: 10 transition_type 0x22d-0x22d.7 (1)
0x220|                                          09   |              . |      [22]: 9 transition_type 0x22e-0x22e.7 (1)
0x220|                                             0a|               .|      [23]: 10 transition_type 0x22f-0x22f.7 (1)
0x230|09                                             |.               |      [24]: 9 transition_type 0x230-0x230.7 (1)
0x230|   0a                                          | .              |      [25]: 10 transition_type 0x231-0x231.7 (1)
0x230|      09                                       |  .             |      [26]: 9 transition_type 0x232-0x232.7 (1)
0x230|         0a                                    |   .            |      [27]: 10 transition_type 0x233-0x233.7 (1)
0x230|            09                                 |    .           |      [28]: 9 transition_type 0x234-0x234.7 (1)
0x230|               0b                              |     .          |      [29]: 11 transition_type 0x235-0x235.7 (1)
0x230|                  0c                           |      .         |      [30]: 12 transition_type 0x236-0x236.7 (1)
0x230|                     0b                        |       .        |      [31]: 11 transition_type 0x237-0x237.7 (1)
0x230|                        0c                     |        .       |      [32]: 12 transition_type 0x238-0x238.7 (1)
0x230|                           0b                  |         .      |      [33]: 11 transition_type 0x239-0x239.7 (1)
0x230|                              0c               |          .     |      [34]: 12 transition_type 0x23a-0x23a.7 (1)
0x230|                                 0b            |           .    |      [35]: 11 transition_type 0x23b-0x23b.7 (1)
0x230|                                    0c         |            .   |      [36]: 12 transition_type 0x23c-0x23c.7 (1)
0x230|                                       0b      |             .  |      [37]: 11 transition_type 0x23d-0x23d.7 (1)
0x230|                                          0c   |              . |      [38]: 12 transition_type 0x23e-0x23e.7 (1)
0x230|                                             0b|               .|      [39]: 11 transition_type 0x23f-0x23f.7 (1)
0x240|0c                                             |.               |      [40]: 12 transition_type 0x240-0x240.7 (1)
0x240|   0b                                          | .              |      [41]: 11 transition_type 0x241-0x241.7 (1)
0x240|      0c                                       |  .             |      [42]: 12 transition_type 0x242-0x242.7 (1)
0x240|         0b                                    |   .            |      [43]: 11 transition_type 0x243-0x243.7 (1)
0x240|            0c                                 |    .           |      [44]: 12 transition_type 0x244-0x244.7 (1)
0x240|               0b                              |     .          |      [45]: 11 transition_type 0x245-0x245.7 (1)
0x240|                  0c                           |      .         |      [46]: 12 transition_type 0x246-0x246.7 (1)
0x240|                     0b                        |       .        |      [47]: 11 transition_type 0x247-0x247.7 (1)
0x240|                        0d                     |        .       |      [48]: 13 transition_type 0x248-0x248.7 (1)
0x240|                           0e                  |         .      |      [49]: 14 transition_type 0x249-0x249.7 (1)
0x240|                              05               |          .     |      [50]: 5 transition_type 0x24a-0x24a.7 (1)
0x240|                                 0e            |           .    |      [51]: 14 transition_type 0x24b-0x24b.7 (1)
0x240|                                    0d         |            .   |      [52]: 13 transition_type 0x24c-0x24c.7 (1)
0x240|                                       0e      |             .  |      [53]: 14 transition_type 0x24d-0x24d.7 (1)
0x240|                                          0d   |              . |      [54]: 13 transition_type 0x24e-0x24e.7 (1)
0x240|                                             0e|               .|      [55]: 14 transition_type 0x24f-0x24f.7 (1)
0x250|0d                                             |.               |      [56]: 13 transition_type 0x250-0x250.7 (1)
0x250|   0e                                          | .              |      [57]: 14 transition_type 0x251-0x251.7 (1)
0x250|      0d                                       |  .             |      [58]: 13 transition_type 0x252-0x252.7 (1)
0x250|         0e                                    |   .            |      [59]: 14 transition_type 0x253-0x253.7 (1)
0x250|            0d                                 |    .           |      [60]: 13 transition_type 0x254-0x254.7 (1)
0x250|               0e                              |     .          |      [61]: 14 transition_type 0x255-0x255.7 (1)
0x250|                  0d                           |      .         |      [62]: 13 transition_type 0x256-0x256.7 (1)
0x250|                     0e                        |       .        |      [63]: 14 transition_type 0x257-0x257.7 (1)
0x250|                        0d                     |        .       |      [64]: 13 transition_type 0x258-0x258.7 (1)
0x250|                           0e                  |         .      |      [65]: 14 transition_type 0x259-0x259.7 (1)
0x250|                              0d               |          .     |      [66]: 13 transition_type 0x25a-0x25a.7 (1)
0x250|                                 0e            |           .    |      [67]: 14 transition_type 0x25b-0x25b.7 (1)
0x250|                                    0d         |            .   |      [68]: 13 transition_type 0x25c-0x25c.7 (1)
0x250|                                       0e      |             .  |      [69]: 14 transition_type 0x25d-0x25d.7 (1)
0x250|                                          0d   |              . |      [70]: 13 transition_type 0x25e-0x25e.7 (1)
0x250|                                             0e|               .|      [71]: 14 transition_type 0x25f-0x25f.7 (1)
0x260|0d                                             |.               |      [72]: 13 transition_type 0x260-0x260.7 (1)
0x260|   0e                                          | .              |      [73]: 14 transition_type 0x261-0x261.7 (1)
0x260|      0d                                       |  .             |      [74]: 13 transition_type 0x262-0x262.7 (1)
0x260|         0e                                    |   .            |      [75]: 14 transition_type 0x263-0x263.7 (1)
0x260|            0d                                 |    .           |      [76]: 13 transition_type 0x264-0x264.7 (1)
0x260|               0e                              |     .          |      [77]: 14 transition_type 0x265-0x265.7 (1)
0x260|                  0d                           |      .         |      [78]: 13 transition_type 0x266-0x266.7 (1)
0x260|                     0e                        |       .        |      [79]: 14 transition_type 0x267-0x267.7 (1)
0x260|                        0d                     |        .       |      [80]: 13 transition_type 0x268-0x268.7 (1)
0x260|                           0e                  |         .      |      [81]: 14 transition_type 0x269-0x269.7 (1)
0x260|                              0d               |          .     |      [82]: 13 transition_type 0x26a-0x26a.7 (1)
0x260|                                 0e            |           .    |      [83]: 14 transition_type 0x26b-0x26b.7 (1)
0x260|                                    0d         |            .   |      [84]: 13 transition_type 0x26c-0x26c.7 (1)
0x260|                                       0e      |             .  |      [85]: 14 transition_type 0x26d-0x26d.7 (1)
0x260|                                          0d   |              . |      [86]: 13 transition_type 0x26e-0x26e.7 (1)
0x260|                                             0e|               .|      [87]: 14 transition_type 0x26f-0x26f.7 (1)
0x270|0d                                             |.               |      [88]: 13 transition_type 0x270-0x270.7 (1)
0x270|   0e                                          | .              |      [89]: 14 transition_type 0x271-0x271.7 (1)
0x270|      0d                                       |  .             |      [90]: 13 transition_type 0x272-0x272.7 (1)
0x270|         0e                                    |   .            |      [91]: 14 transition_type 0x273-0x273.7 (1)
0x270|            0d                                 |    .           |      [92]: 13 transition_type 0x274-0x274.7 (1)
0x270|               0e                              |     .          |      [93]: 14 transition_type 0x275-0x275.7 (1)
0x270|                  0d                           |      .         |      [94]: 13 transition_type 0x276-0x276.7 (1)
0x270|                     0e                        |       .        |      [95]: 14 transition_type 0x277-0x277.7 (1)
0x270|                        0d                     |        .       |      [96]: 13 transition_type 0x278-0x278.7 (1)
0x270|                           0e                  |         .      |      [97]: 14 transition_type 0x279-0x279.7 (1)
0x270|                              0d               |          .     |      [98]: 13 transition_type 0x27a-0x27a.7 (1)
0x270|                                 0e            |           .    |      [99]: 14 transition_type 0x27b-0x27b.7 (1)
0x270|                                    0d         |            .   |      [100]: 13 transition_type 0x27c-0x27c.7 (1)
0x270|                                       0e      |             .  |      [101]: 14 transition_type 0x27d-0x27d.7 (1)
0x270|                                          0d   |              . |      [102]: 13 transition_type 0x27e-0x27e.7 (1)
0x270|                                             0e|               .|      [103]: 14 transition_type 0x27f-0x27f.7 (1)
0x280|0d                                             |.               |      [104]: 13 transition_type 0x280-0x280.7 (1)
0x280|   0e                                          | .              |      [105]: 14 transition_type 0x281-0x281.7 (1)
0x280|      0d                                       |  .             |      [106]: 13 transition_type 0x282-0x282.7 (1)
0x280|         0e                                    |   .            |      [107]: 14 transition_type 0x283-0x283.7 (1)
0x280|            0d                                 |    .           |      [108]: 13 transition_type 0x284-0x284.7 (1)
0x280|               0e                              |     .          |      [109]: 14 transition_type 0x285-0x285.7 (1)
0x280|                  0d                           |      .         |      [110]: 13 transition_type 0x286-0x286.7 (1)
0x280|                     0e                        |       .        |      [111]: 14 transition_type 0x287-0x287.7 (1)
0x280|                        0d                     |        .       |      [112]: 13 transition_type 0x288-0x288.7 (1)
0x280|                           0e                  |         .      |      [113]: 14 transition_type 0x289-0x289.7 (1)
0x280|                              0d               |          .     |      [114]: 13 transition_type 0x28a-0x28a.7 (1)
0x280|                                 0e            |           .    |      [115]: 14 transition_type 0x28b-0x28b.7 (1)
0x280|                                    0d         |            .   |      [116]: 13 transition_type 0x28c-0x28c.7 (1)
0x280|                                       0e      |             .  |      [117]: 14 transition_type 0x28d-0x28d.7 (1)
0x280|                                          0d   |              . |      [118]: 13 transition_type 0x28e-0x28e.7 (1)
0x280|                                             0e|               .|      [119]: 14 transition_type 0x28f-0x28f.7 (1)
0x290|0d                                             |.               |      [120]: 13 transition_type 0x290-0x290.7 (1)
0x290|   0e                                          | .              |      [121]: 14 transition_type 0x291-0x291.7 (1)
0x290|      0d                                       |  .             |      [122]: 13 transition_type 0x292-0x292.7 (1)
     |                                               |                |    local_time_type_records[0:15]: 0x293-0x2ec.7 (90)
     |                                               |                |      [0]{}: local_time_type 0x293-0x298.7 (6)
0x290|         00 00 17 34                           |   ...4         |        utoff: 5940 (valid) 0x293-0x296.7 (4)
0x290|                     00                        |       .        |        dst: 0 (valid) 0x297-0x297.7 (1)
0x290|                        00                     |        .       |        idx: 0 (valid) 0x298-0x298.7 (1)
     |                                               |                |      [1]{}: local_time_type 0x299-0x29e.7 (6)
0x290|                           00 00 17 34         |         ...4   |        utoff: 5940 (valid) 0x299-0x29c.7 (4)
0x290|                                       00      |             .  |        dst: 0 (valid) 0x29d-0x29d.7 (1)
0x290|                                          04   |              . |        idx: 4 (valid) 0x29e-0x29e.7 (1)
     |                                               |                |      [2]{}: local_time_type 0x29f-0x2a4.7 (6)
0x290|                                             00|               .|        utoff: 7200 (valid) 0x29f-0x2a2.7 (4)
0x2a0|00 1c 20                                       |..              |
0x2a0|         01                                    |   .            |        dst: 1 (valid) 0x2a3-0x2a3.7 (1)
0x2a0|            08                                 |    .           |        idx: 8 (valid) 0x2a4-0x2a4.7 (1)
     |                                               |                |      [3]{}: local_time_type 0x2a5-0x2aa.7 (6)
0x2a0|               00 00 0e 10                     |     ....       |        utoff: 3600 (valid) 0x2a5-0x2a8.7 (4)
0x2a0|                           00                  |         .      |        dst: 0 (valid) 0x2a9-0x2a9.7 (1)
0x2a0|                              0d               |          .     |        idx: 13 (valid) 0x2aa-0x2aa.7 (1)
     |                                               |                |      [4]{}: local_time_type 0x2ab-0x2b0.7 (6)
0x2a0|                                 00 00 0e 10   |           .... |        utoff: 3600 (valid) 0x2ab-0x2ae.7 (4)
0x2a0|                                             00|               .|        dst: 0 (valid) 0x2af-0x2af.7 (1)
0x2b0|0d                                             |.               |        idx: 13 (valid) 0x2b0-0x2b0.7 (1)
     |                                               |                |      [5]{}: local_time_type 0x2b1-0x2b6.7 (6)
0x2b0|   00 00 1c 20                                 | ...            |        utoff: 7200 (valid) 0x2b1-0x2b4.7 (4)
0x2b0|               00                              |     .          |        dst: 0 (valid) 0x2b5-0x2b5.7 (1)
0x2b0|                  11                           |      .         |        idx: 17 (valid) 0x2b6-0x2b6.7 (1)
     |                                               |                |      [6]{}: local_time_type 0x2b7-0x2bc.7 (6)
0x2b0|                     00 00 2a 30               |       ..*0     |        utoff: 10800 (valid) 0x2b7-0x2ba.7 (4)
0x2b0|                                 00            |           .    |        dst: 0 (valid) 0x2bb-0x2bb.7 (1)
0x2b0|                                    15         |            .   |        idx: 21 (valid) 0x2bc-0x2bc.7 (1)
     |                                               |                |      [7]{}: local_time_type 0x2bd-0x2c2.7 (6)
0x2b0|                                       00 00 1c|             ...|        utoff: 7200 (valid) 0x2bd-0x2c0.7 (4)
0x2c0|20                                             |                |
0x2c0|   01                                          | .              |        dst: 1 (valid) 0x2c1-0x2c1.7 (1)
0x2c0|      08                                       |  .             |        idx: 8 (valid) 0x2c2-0x2c2.7 (1)
     |                                               |                |      [8]{}: local_time_type 0x2c3-0x2c8.7 (6)
0x2c0|         00 00 38 40                           |   ..8@         |        utoff: 14400 (valid) 0x2c3-0x2c6.7 (4)
0x2c0|                     01                        |       .        |        dst: 1 (valid) 0x2c7-0x2c7.7 (1)
0x2c0|                        19                     |        .       |        idx: 25 (valid) 0x2c8-0x2c8.7 (1)
     |                                               |                |      [9]{}: local_time_type 0x2c9-0x2ce.7 (6)
0x2c0|                           00 00 2a 30         |         ..*0   |        utoff: 10800 (valid) 0x2c9-0x2cc.7 (4)
0x2c0|                                       00      |             .  |        dst: 0 (valid) 0x2cd-0x2cd.7 (1)
0x2c0|                                          15   |              . |        idx: 21 (valid) 0x2ce-0x2ce.7 (1)
     |                                               |                |      [10]{}: local_time_type 0x2cf-0x2d4.7 (6)
0x2c0|                                             00|               .|        utoff: 14400 (valid) 0x2cf-0x2d2.7 (4)
0x2d0|00 38 40                                       |.8@             |
0x2d0|         01                                    |   .            |        dst: 1 (valid) 0x2d3-0x2d3.7 (1)
0x2d0|            19                                 |    .           |        idx: 25 (valid) 0x2d4-0x2d4.7 (1)
     |                                               |                |      [11]{}: local_time_type 0x2d5-0x2da.7 (6)
0x2d0|               00 00 2a 30                     |     ..*0       |        utoff: 10800 (valid) 0x2d5-0x2d8.7 (4)
0x2d0|                           01                  |         .      |        dst: 1 (valid) 0x2d9-0x2d9.7 (1)
0x2d0|                              1d               |          .     |        idx: 29 (valid) 0x2da-0x2da.7 (1)
     |                                               |                |      [12]{}: local_time_type 0x2db-0x2e0.7 (6)
0x2d0|                                 00 00 1c 20   |           ...  |        utoff: 7200 (valid) 0x2db-0x2de.7 (4)
0x2d0|                                             00|               .|        dst: 0 (valid) 0x2df-0x2df.7 (1)
0x2e0|11                                             |.               |        idx: 17 (valid) 0x2e0-0x2e0.7 (1)
     |                                               |                |      [13]{}: local_time_type 0x2e1-0x2e6.7 (6)
0x2e0|   00 00 1c 20                                 | ...            |        utoff: 7200 (valid) 0x2e1-0x2e4.7 (4)
0x2e0|               00                              |     .          |        dst: 0 (valid) 0x2e5-0x2e5.7 (1)
0x2e0|                  11                           |      .         |        idx: 17 (valid) 0x2e6-0x2e6.7 (1)
     |                                               |                |      [14]{}: local_time_type 0x2e7-0x2ec.7 (6)
0x2e0|                     00 00 2a 30               |       ..*0     |        utoff: 10800 (valid) 0x2e7-0x2ea.7 (4)
0x2e0|                                 01            |           .    |        dst: 1 (valid) 0x2eb-0x2eb.7 (1)
0x2e0|                                    1d         |            .   |        idx: 29 (valid) 0x2ec-0x2ec.7 (1)
     |                                               |                |    time_zone_designations[0:8]: 0x2ed-0x30e.7 (34)
0x2e0|                                       4c 4d 54|             LMT|      [0]: "LMT" time_zone_designation 0x2ed-0x2f0.7 (4)
0x2f0|00                                             |.               |
0x2f0|   54 4d 54 00                                 | TMT.           |      [1]: "TMT" time_zone_designation 0x2f1-0x2f4.7 (4)
0x2f0|               43 45 53 54 00                  |     CEST.      |      [2]: "CEST" time_zone_designation 0x2f5-0x2f9.7 (5)
0x2f0|                              43 45 54 00      |          CET.  |      [3]: "CET" time_zone_designation 0x2fa-0x2fd.7 (4)
0x2f0|                                          45 45|              EE|      [4]: "EET" time_zone_designation 0x2fe-0x301.7 (4)
0x300|54 00                                          |T.              |
0x300|      4d 53 4b 00                              |  MSK.          |      [5]: "MSK" time_zone_designation 0x302-0x305.7 (4)
0x300|                  4d 53 44 00                  |      MSD.      |      [6]: "MSD" time_zone_designation 0x306-0x309.7 (4)
0x300|                              45 45 53 54 00   |          EEST. |      [7]: "EEST" time_zone_designation 0x30a-0x30e.7 (5)
     |                                               |                |    leap_second_records[0:0]: 0x30f-NA (0)
     |                                               |                |    standard_wall_indicators[0:15]: 0x30f-0x31d.7 (15)
0x300|                                             00|               .|      [0]: 0 standard_wall_indicator (valid) 0x30f-0x30f.7 (1)
0x310|00                                             |.               |      [1]: 0 standard_wall_indicator (valid) 0x310-0x310.7 (1)
0x310|   01                                          | .              |      [2]: 1 standard_wall_indicator (valid) 0x311-0x311.7 (1)
0x310|      01                                       |  .             |      [3]: 1 standard_wall_indicator (valid) 0x312-0x312.7 (1)
0x310|         00                                    |   .            |      [4]: 0 standard_wall_indicator (valid) 0x313-0x313.7 (1)
0x310|            00                                 |    .           |      [5]: 0 standard_wall_indicator (valid) 0x314-0x314.7 (1)
0x310|               00                              |     .          |      [6]: 0 standard_wall_indicator (valid) 0x315-0x315.7 (1)
0x310|                  00                           |      .         |      [7]: 0 standard_wall_indicator (valid) 0x316-0x316.7 (1)
0x310|                     00                        |       .        |      [8]: 0 standard_wall_indicator (valid) 0x317-0x317.7 (1)
0x310|                        01                     |        .       |      [9]: 1 standard_wall_indicator (valid) 0x318-0x318.7 (1)
0x310|                           01                  |         .      |      [10]: 1 standard_wall_indicator (valid) 0x319-0x319.7 (1)
0x310|                              01               |          .     |      [11]: 1 standard_wall_indicator (valid) 0x31a-0x31a.7 (1)
0x310|                                 01            |           .    |      [12]: 1 standard_wall_indicator (valid) 0x31b-0x31b.7 (1)
0x310|                                    01         |            .   |      [13]: 1 standard_wall_indicator (valid) 0x31c-0x31c.7 (1)
0x310|                                       01      |             .  |      [14]: 1 standard_wall_indicator (valid) 0x31d-0x31d.7 (1)
     |                                               |                |    ut_local_indicators[0:15]: 0x31e-0x32c.7 (15)
0x310|                                          00   |              . |      [0]: 0 ut_local_indicator (valid) 0x31e-0x31e.7 (1)
0x310|                                             00|               .|      [1]: 0 ut_local_indicator (valid) 0x31f-0x31f.7 (1)
0x320|00                                             |.               |      [2]: 0 ut_local_indicator (valid) 0x320-0x320.7 (1)
0x320|   00                                          | .              |      [3]: 0 ut_local_indicator (valid) 0x321-0x321.7 (1)
0x320|      00                                       |  .             |      [4]: 0 ut_local_indicator (valid) 0x322-0x322.7 (1)
0x320|         00                                    |   .            |      [5]: 0 ut_local_indicator (valid) 0x323-0x323.7 (1)
0x320|            00                                 |    .           |      [6]: 0 ut_local_indicator (valid) 0x324-0x324.7 (1)
0x320|               00                              |     .          |      [7]: 0 ut_local_indicator (valid) 0x325-0x325.7 (1)
0x320|                  00                           |      .         |      [8]: 0 ut_local_indicator (valid) 0x326-0x326.7 (1)
0x320|                     00                        |       .        |      [9]: 0 ut_local_indicator (valid) 0x327-0x327.7 (1)
0x320|                        00                     |        .       |      [10]: 0 ut_local_indicator (valid) 0x328-0x328.7 (1)
0x320|                           00                  |         .      |      [11]: 0 ut_local_indicator (valid) 0x329-0x329.7 (1)
0x320|                              00               |          .     |      [12]: 0 ut_local_indicator (valid) 0x32a-0x32a.7 (1)
0x320|                                 01            |           .    |      [13]: 1 ut_local_indicator (valid) 0x32b-0x32b.7 (1)
0x320|                                    01         |            .   |      [14]: 1 ut_local_indicator (valid) 0x32c-0x32c.7 (1)
     |                                               |                |  v2plusheader{}: 0x32d-0x358.7 (44)
0x320|                                       54 5a 69|             TZi|    magic: 0x545a6966 (valid) 0x32d-0x330.7 (4)
0x330|66                                             |f               |
0x330|   32                                          | 2              |    ver: "2" (0x32) (valid) 0x331-0x331.7 (1)
0x330|      00 00 00 00 00 00 00 00 00 00 00 00 00 00|  ..............|    reserved: raw bits 0x332-0x340.7 (15)
0x340|00                                             |.               |
0x340|   00 00 00 0f                                 | ....           |    isutcnt: 15 0x341-0x344.7 (4)
0x340|               00 00 00 0f                     |     ....       |    isstdcnt: 15 0x345-0x348.7 (4)
0x340|                           00 00 00 00         |         ....   |    leapcnt: 0 0x349-0x34c.7 (4)
0x340|                                       00 00 00|             ...|    timecnt: 123 0x34d-0x350.7 (4)
0x350|7b                                             |{               |
0x350|   00 00 00 0f                                 | ....           |    typecnt: 15 0x351-0x354.7 (4)
0x350|               00 00 00 22                     |     ..."       |    charcnt: 34 0x355-0x358.7 (4)
     |                                               |                |  v2plusdatablock{}: 0x359-0x845.7 (1261)
     |                                               |                |    transition_times[0:123]: 0x359-0x730.7 (984)
0x350|                           ff ff ff ff 56 b6 cc|         ....V..|      [0]: "1879-12-31T22:21:00Z" (-2840146740) transition_time 0x359-0x360.7 (8)
0x360|cc                                             |.               |
0x360|   ff ff ff ff 9e 59 2d cc                     | .....Y-.       |      [1]: "1918-01-31T22:21:00Z" (-1638322740) transition_time 0x361-0x368.7 (8)
0x360|                           ff ff ff ff 9e b9 90|         .......|      [2]: "1918-04-15T01:00:00Z" (-1632006000) transition_time 0x369-0x370.7 (8)
0x370|90                                             |.               |
0x370|   ff ff ff ff 9f 84 97 90                     | ........       |      [3]: "1918-09-16T01:00:00Z" (-1618700400) transition_time 0x371-0x378.7 (8)
0x370|                           ff ff ff ff a1 00 2b|         ......+|      [4]: "1919-06-30T23:00:00Z" (-1593824400) transition_time 0x379-0x380.7 (8)
0x380|70                                             |p               |
0x380|   ff ff ff ff a4 73 6f 4c                     | .....soL       |      [5]: "1921-04-30T22:21:00Z" (-1535938740) transition_time 0x381-0x388.7 (8)
0x380|                           ff ff ff ff c8 b0 b5|         .......|      [6]: "1940-08-05T22:00:00Z" (-927943200) transition_time 0x389-0x390.7 (8)
0x390|e0                                             |.               |
0x390|   ff ff ff ff ca c6 97 50                     | .......P       |      [7]: "1941-09-14T21:00:00Z" (-892954800) transition_time 0x391-0x398.7 (8)
0x390|                           ff ff ff ff cc e7 4b|         ......K|      [8]: "1942-11-02T01:00:00Z" (-857257200) transition_time 0x399-0x3a0.7 (8)
0x3a0|10                                             |.               |
0x3a0|   ff ff ff ff cd a9 17 90                     | ........       |      [9]: "1943-03-29T01:00:00Z" (-844556400) transition_time 0x3a1-0x3a8.7 (8)
0x3a0|                           ff ff ff ff ce a2 43|         ......C|      [10]: "1943-10-04T01:00:00Z" (-828226800) transition_time 0x3a9-0x3b0.7 (8)
0x3b0|10                                             |.               |
0x3b0|   ff ff ff ff cf 92 34 10                     | ......4.       |      [11]: "1944-04-03T01:00:00Z" (-812502000) transition_time 0x3b1-0x3b8.7 (8)
0x3b0|                           ff ff ff ff d0 74 cb|         .....t.|      [12]: "1944-09-21T22:00:00Z" (-797652000) transition_time 0x3b9-0x3c0.7 (8)
0x3c0|e0                                             |.               |
0x3c0|   00 00 00 00 15 27 a7 d0                     | .....'..       |      [13]: "1981-03-31T21:00:00Z" (354920400) transition_time 0x3c1-0x3c8.7 (8)
0x3c0|                           00 00 00 00 16 18 dc|         .......|      [14]: "1981-09-30T20:00:00Z" (370728000) transition_time 0x3c9-0x3d0.7 (8)
0x3d0|40                                             |@               |
0x3d0|   00 00 00 00 17 08 db 50                     | .......P       |      [15]: "1982-03-31T21:00:00Z" (386456400) transition_time 0x3d1-0x3d8.7 (8)
0x3d0|                           00 00 00 00 17 fa 0f|         .......|      [16]: "1982-09-30T20:00:00Z" (402264000) transition_time 0x3d9-0x3e0.7 (8)
0x3e0|c0                                             |.               |
0x3e0|   00 00 00 00 18 ea 0e d0                     | ........       |      [17]: "1983-03-31T21:00:00Z" (417992400) transition_time 0x3e1-0x3e8.7 (8)
0x3e0|                           00 00 00 00 19 db 43|         ......C|      [18]: "1983-09-30T20:00:00Z" (433800000) transition_time 0x3e9-0x3f0.7 (8)
0x3f0|40                                             |@               |
0x3f0|   00 00 00 00 1a cc 93 d0                     | ........       |      [19]: "1984-03-31T21:00:00Z" (449614800) transition_time 0x3f1-0x3f8.7 (8)
0x3f0|                           00 00 00 00 1b bc a0|         .......|      [20]: "1984-09-29T23:00:00Z" (465346800) transition_time 0x3f9-0x400.7 (8)
0x400|f0                                             |.               |
0x400|   00 00 00 00 1c ac 91 f0                     | ........       |      [21]: "1985-03-30T23:00:00Z" (481071600) transition_time 0x401-0x408.7 (8)
0x400|                           00 00 00 00 1d 9c 82|         .......|      [22]: "1985-09-28T23:00:00Z" (496796400) transition_time 0x409-0x410.7 (8)
0x410|f0                                             |.               |
0x410|   00 00 00 00 1e 8c 73 f0                     | ......s.       |      [23]: "1986-03-29T23:00:00Z" (512521200) transition_time 0x411-0x418.7 (8)
0x410|                           00 00 00 00 1f 7c 64|         .....|d|      [24]: "1986-09-27T23:00:00Z" (528246000) transition_time 0x419-0x420.7 (8)
0x420|f0                                             |.               |
0x420|   00 00 00 00 20 6c 55 f0                     | .... lU.       |      [25]: "1987-03-28T23:00:00Z" (543970800) transition_time 0x421-0x428.7 (8)
0x420|                           00 00 00 00 21 5c 46|         ....!\F|      [26]: "1987-09-26T23:00:00Z" (559695600) transition_time 0x429-0x430.7 (8)
0x430|f0                                             |.               |
0x430|   00 00 00 00 22 4c 37 f0                     | ...."L7.       |      [27]: "1988-03-26T23:00:00Z" (575420400) transition_time 0x431-0x438.7 (8)
0x430|                           00 00 00 00 23 3c 28|         ....#<(|      [28]: "1988-09-24T23:00:00Z" (591145200) transition_time 0x439-0x440.7 (8)
0x440|f0                                             |.               |
0x440|   00 00 00 00 24 2c 19 f0                     | ....$,..       |      [29]: "1989-03-25T23:00:00Z" (606870000) transition_time 0x441-0x448.7 (8)
0x440|                           00 00 00 00 25 1c 19|         ....%..|      [30]: "1989-09-24T00:00:00Z" (622598400) transition_time 0x449-0x450.7 (8)
0x450|00                                             |.               |
0x450|   00 00 00 00 26 0c 0a 00                     | ....&...       |      [31]: "1990-03-25T00:00:00Z" (638323200) transition_time 0x451-0x458.7 (8)
0x450|                           00 00 00 00 27 05 35|         ....'.5|      [32]: "1990-09-30T00:00:00Z" (654652800) transition_time 0x459-0x460.7 (8)
0x460|80                                             |.               |
0x460|   00 00 00 00 27 f5 26 80                     | ....'.&.       |      [33]: "1991-03-31T00:00:00Z" (670377600) transition_time 0x461-0x468.7 (8)
0x460|                           00 00 00 00 28 e5 17|         ....(..|      [34]: "1991-09-29T00:00:00Z" (686102400) transition_time 0x469-0x470.7 (8)
0x470|80                                             |.               |
0x470|   00 00 00 00 29 d5 08 80                     | ....)...       |      [35]: "1992-03-29T00:00:00Z" (701827200) transition_time 0x471-0x478.7 (8)
0x470|                           00 00 00 00 2a c4 f9|         ....*..|      [36]: "1992-09-27T00:00:00Z" (717552000) transition_time 0x479-0x480.7 (8)
0x480|80                                             |.               |
0x480|   00 00 00 00 2b b4 ea 80                     | ....+...       |      [37]: "1993-03-28T00:00:00Z" (733276800) transition_time 0x481-0x488.7 (8)
0x480|                           00 00 00 00 2c a4 db|         ....,..|      [38]: "1993-09-26T00:00:00Z" (749001600) transition_time 0x489-0x490.7 (8)
0x490|80                                             |.               |
0x490|   00 00 00 00 2d 94 cc 80                     | ....-...       |      [39]: "1994-03-27T00:00:00Z" (764726400) transition_time 0x491-0x498.7 (8)
0x490|                           00 00 00 00 2e 84 bd|         .......|      [40]: "1994-09-25T00:00:00Z" (780451200) transition_time 0x499-0x4a0.7 (8)
0x4a0|80                                             |.               |
0x4a0|   00 00 00 00 2f 74 ae 80                     | ..../t..       |      [41]: "1995-03-26T00:00:00Z" (796176000) transition_time 0x4a1-0x4a8.7 (8)
0x4a0|                           00 00 00 00 30 64 9f|         ....0d.|      [42]: "1995-09-24T00:00:00Z" (811900800) transition_time 0x4a9-0x4b0.7 (8)
0x4b0|80                                             |.               |
0x4b0|   00 00 00 00 31 5d cb 00                     | ....1]..       |      [43]: "1996-03-31T00:00:00Z" (828230400) transition_time 0x4b1-0x4b8.7 (8)
0x4b0|                           00 00 00 00 32 72 a6|         ....2r.|      [44]: "1996-10-27T00:00:00Z" (846374400) transition_time 0x4b9-0x4c0.7 (8)
0x4c0|00                                             |.               |
0x4c0|   00 00 00 00 33 3d ad 00                     | ....3=..       |      [45]: "1997-03-30T00:00:00Z" (859680000) transition_time 0x4c1-0x4c8.7 (8)
0x4c0|                           00 00 00 00 34 52 88|         ....4R.|      [46]: "1997-10-26T00:00:00Z" (877824000) transition_time 0x4c9-0x4d0.7 (8)
0x4d0|00                                             |.               |
0x4d0|   00 00 00 00 35 1d 8f 00                     | ....5...       |      [47]: "1998-03-29T00:00:00Z" (891129600) transition_time 0x4d1-0x4d8.7 (8)
0x4d0|                           00 00 00 00 36 32 78|         ....62x|      [48]: "1998-10-25T01:00:00Z" (909277200) transition_time 0x4d9-0x4e0.7 (8)
0x4e0|10                                             |.               |
0x4e0|   00 00 00 00 36 fd 7f 10                     | ....6...       |      [49]: "1999-03-28T01:00:00Z" (922582800) transition_time 0x4e1-0x4e8.7 (8)
0x4e0|                           00 00 00 00 38 1b 94|         ....8..|      [50]: "1999-10-31T01:00:00Z" (941331600) transition_time 0x4e9-0x4f0.7 (8)
0x4f0|90                                             |.               |
0x4f0|   00 00 00 00 3c a6 5f 90                     | ....<._.       |      [51]: "2002-03-31T01:00:00Z" (1017536400) transition_time 0x4f1-0x4f8.7 (8)
0x4f0|                           00 00 00 00 3d bb 3a|         ....=.:|      [52]: "2002-10-27T01:00:00Z" (1035680400) transition_time 0x4f9-0x500.7 (8)
0x500|90                                             |.               |
0x500|   00 00 00 00 3e 86 41 90                     | ....>.A.       |      [53]: "2003-03-30T01:00:00Z" (1048986000) transition_time 0x501-0x508.7 (8)
0x500|                           00 00 00 00 3f 9b 1c|         ....?..|      [54]: "2003-10-26T01:00:00Z" (1067130000) transition_time 0x509-0x510.7 (8)
0x510|90                                             |.               |
0x510|   00 00 00 00 40 66 23 90                     | ....@f#.       |      [55]: "2004-03-28T01:00:00Z" (1080435600) transition_time 0x511-0x518.7 (8)
0x510|                           00 00 00 00 41 84 39|         ....A.9|      [56]: "2004-10-31T01:00:00Z" (1099184400) transition_time 0x519-0x520.7 (8)
0x520|10                                             |.               |
0x520|   00 00 00 00 42 46 05 90                     | ....BF..       |      [57]: "2005-03-27T01:00:00Z" (1111885200) transition_time 0x521-0x528.7 (8)
0x520|                           00 00 00 00 43 64 1b|         ....Cd.|      [58]: "2005-10-30T01:00:00Z" (1130634000) transition_time 0x529-0x530.7 (8)
0x530|10                                             |.               |
0x530|   00 00 00 00 44 25 e7 90                     | ....D%..       |      [59]: "2006-03-26T01:00:00Z" (1143334800) transition_time 0x531-0x538.7 (8)
0x530|                           00 00 00 00 45 43 fd|         ....EC.|      [60]: "2006-10-29T01:00:00Z" (1162083600) transition_time 0x539-0x540.7 (8)
0x540|10                                             |.               |
0x540|   00 00 00 00 46 05 c9 90                     | ....F...       |      [61]: "2007-03-25T01:00:00Z" (1174784400) transition_time 0x541-0x548.7 (8)
0x540|                           00 00 00 00 47 23 df|         ....G#.|      [62]: "2007-10-28T01:00:00Z" (1193533200) transition_time 0x549-0x550.7 (8)
0x550|10                                             |.               |
0x550|   00 00 00 00 47 ee e6 10                     | ....G...       |      [63]: "2008-03-30T01:00:00Z" (1206838800) transition_time 0x551-0x558.7 (8)
0x550|                           00 00 00 00 49 03 c1|         ....I..|      [64]: "2008-10-26T01:00:00Z" (1224982800) transition_time 0x559-0x560.7 (8)
0x560|10                                             |.               |
0x560|   00 00 00 00 49 ce c8 10                     | ....I...       |      [65]: "2009-03-29T01:00:00Z" (1238288400) transition_time 0x561-0x568.7 (8)
0x560|                           00 00 00 00 4a e3 a3|         ....J..|      [66]: "2009-10-25T01:00:00Z" (1256432400) transition_time 0x569-0x570.7 (8)
0x570|10                                             |.               |
0x570|   00 00 00 00 4b ae aa 10                     | ....K...       |      [67]: "2010-03-28T01:00:00Z" (1269738000) transition_time 0x571-0x578.7 (8)
0x570|                           00 00 00 00 4c cc bf|         ....L..|      [68]: "2010-10-31T01:00:00Z" (1288486800) transition_time 0x579-0x580.7 (8)
0x580|90                                             |.               |
0x580|   00 00 00 00 4d 8e 8c 10                     | ....M...       |      [69]: "2011-03-27T01:00:00Z" (1301187600) transition_time 0x581-0x588.7 (8)
0x580|                           00 00 00 00 4e ac a1|         ....N..|      [70]: "2011-10-30T01:00:00Z" (1319936400) transition_time 0x589-0x590.7 (8)
0x590|90                                             |.               |
0x590|   00 00 00 00 4f 6e 6e 10                     | ....Onn.       |      [71]: "2012-03-25T01:00:00Z" (1332637200) transition_time 0x591-0x598.7 (8)
0x590|                           00 00 00 00 50 8c 83|         ....P..|      [72]: "2012-10-28T01:00:00Z" (1351386000) transition_time 0x599-0x5a0.7 (8)
0x5a0|90                                             |.               |
0x5a0|   00 00 00 00 51 57 8a 90                     | ....QW..       |      [73]: "2013-03-31T01:00:00Z" (1364691600) transition_time 0x5a1-0x5a8.7 (8)
0x5a0|                           00 00 00 00 52 6c 65|         ....Rle|      [74]: "2013-10-27T01:00:00Z" (1382835600) transition_time 0x5a9-0x5b0.7 (8)
0x5b0|90                                             |.               |
0x5b0|   00 00 00 00 53 37 6c 90                     | ....S7l.       |      [75]: "2014-03-30T01:00:00Z" (1396141200) transition_time 0x5b1-0x5b8.7 (8)
0x5b0|                           00 00 00 00 54 4c 47|         ....TLG|      [76]: "2014-10-26T01:00:00Z" (1414285200) transition_time 0x5b9-0x5c0.7 (8)
0x5c0|90                                             |.               |
0x5c0|   00 00 00 00 55 17 4e 90                     | ....U.N.       |      [77]: "2015-03-29T01:00:00Z" (1427590800) transition_time 0x5c1-0x5c8.7 (8)
0x5c0|                           00 00 00 00 56 2c 29|         ....V,)|      [78]: "2015-10-25T01:00:00Z" (1445734800) transition_time 0x5c9-0x5d0.7 (8)
0x5d0|90                                             |.               |
0x5d0|   00 00 00 00 56 f7 30 90                     | ....V.0.       |      [79]: "2016-03-27T01:00:00Z" (1459040400) transition_time 0x5d1-0x5d8.7 (8)
0x5d0|                           00 00 00 00 58 15 46|         ....X.F|      [80]: "2016-10-30T01:00:00Z" (1477789200) transition_time 0x5d9-0x5e0.7 (8)
0x5e0|10                                             |.               |
0x5e0|   00 00 00 00 58 d7 12 90                     | ....X...       |      [81]: "2017-03-26T01:00:00Z" (1490490000) transition_time 0x5e1-0x5e8.7 (8)
0x5e0|                           00 00 00 00 59 f5 28|         ....Y.(|      [82]: "2017-10-29T01:00:00Z" (1509238800) transition_time 0x5e9-0x5f0.7 (8)
0x5f0|10                                             |.               |
0x5f0|   00 00 00 00 5a b6 f4 90                     | ....Z...       |      [83]: "2018-03-25T01:00:00Z" (1521939600) transition_time 0x5f1-0x5f8.7 (8)
0x5f0|                           00 00 00 00 5b d5 0a|         ....[..|      [84]: "2018-10-28T01:00:00Z" (1540688400) transition_time 0x5f9-0x600.7 (8)
0x600|10                                             |.               |
0x600|   00 00 00 00 5c a0 11 10                     | ....\...       |      [85]: "2019-03-31T01:00:00Z" (1553994000) transition_time 0x601-0x608.7 (8)
0x600|                           00 00 00 00 5d b4 ec|         ....]..|      [86]: "2019-10-27T01:00:00Z" (1572138000) transition_time 0x609-0x610.7 (8)
0x610|10                                             |.               |
0x610|   00 00 00 00 5e 7f f3 10                     | ....^...       |      [87]: "2020-03-29T01:00:00Z" (1585443600) transition_time 0x611-0x618.7 (8)
0x610|                           00 00 00 00 5f 94 ce|         ...._..|      [88]: "2020-10-25T01:00:00Z" (1603587600) transition_time 0x619-0x620.7 (8)
0x620|10                                             |.               |
0x620|   00 00 00 00 60 5f d5 10                     | ....`_..       |      [89]: "2021-03-28T01:00:00Z" (1616893200) transition_time 0x621-0x628.7 (8)
0x620|                           00 00 00 00 61 7d ea|         ....a}.|      [90]: "2021-10-31T01:00:00Z" (1635642000) transition_time 0x629-0x630.7 (8)
0x630|90                                             |.               |
0x630|   00 00 00 00 62 3f b7 10                     | ....b?..       |      [91]: "2022-03-27T01:00:00Z" (1648342800) transition_time 0x631-0x638.7 (8)
0x630|                           00 00 00 00 63 5d cc|         ....c].|      [92]: "2022-10-30T01:00:00Z" (1667091600) transition_time 0x639-0x640.7 (8)
0x640|90                                             |.               |
0x640|   00 00 00 00 64 1f 99 10                     | ....d...       |      [93]: "2023-03-26T01:00:00Z" (1679792400) transition_time 0x641-0x648.7 (8)
0x640|                           00 00 00 00 65 3d ae|         ....e=.|      [94]: "2023-10-29T01:00:00Z" (1698541200) transition_time 0x649-0x650.7 (8)
0x650|90                                             |.               |
0x650|   00 00 00 00 66 08 b5 90                     | ....f...       |      [95]: "2024-03-31T01:00:00Z" (1711846800) transition_time 0x651-0x658.7 (8)
0x650|                           00 00 00 00 67 1d 90|         ....g..|      [96]: "2024-10-27T01:00:00Z" (1729990800) transition_time 0x659-0x660.7 (8)
0x660|90                                             |.               |
0x660|   00 00 00 00 67 e8 97 90                     | ....g...       |      [97]: "2025-03-30T01:00:00Z" (1743296400) transition_time 0x661-0x668.7 (8)
0x660|                           00 00 00 00 68 fd 72|         ....h.r|      [98]: "2025-10-26T01:00:00Z" (1761440400) transition_time 0x669-0x670.7 (8)
0x670|90                                             |.               |
0x670|   00 00 00 00 69 c8 79 90                     | ....i.y.       |      [99]: "2026-03-29T01:00:00Z" (1774746000) transition_time 0x671-0x678.7 (8)
0x670|                           00 00 00 00 6a dd 54|         ....j.T|      [100]: "2026-10-25T01:00:00Z" (1792890000) transition_time 0x679-0x680.7 (8)
0x680|90                                             |.               |
0x680|   00 00 00 00 6b a8 5b 90                     | ....k.[.       |      [101]: "2027-03-28T01:00:00Z" (1806195600) transition_time 0x681-0x688.7 (8)
0x680|                           00 00 00 00 6c c6 71|         ....l.q|      [102]: "2027-10-31T01:00:00Z" (1824944400) transition_time 0x689-0x690.7 (8)
0x690|10                                             |.               |
0x690|   00 00 00 00 6d 88 3d 90                     | ....m.=.       |      [103]: "2028-03-26T01:00:00Z" (1837645200) transition_time 0x691-0x698.7 (8)
0x690|                           00 00 00 00 6e a6 53|         ....n.S|      [104]: "2028-10-29T01:00:00Z" (1856394000) transition_time 0x699-0x6a0.7 (8)
0x6a0|10                                             |.               |
0x6a0|   00 00 00 00 6f 68 1f 90                     | ....oh..       |      [105]: "2029-03-25T01:00:00Z" (1869094800) transition_time 0x6a1-0x6a8.7 (8)
0x6a0|                           00 00 00 00 70 86 35|         ....p.5|      [106]: "2029-10-28T01:00:00Z" (1887843600) transition_time 0x6a9-0x6b0.7 (8)
0x6b0|10                                             |.               |
0x6b0|   00 00 00 00 71 51 3c 10                     | ....qQ<.       |      [107]: "2030-03-31T01:00:00Z" (1901149200) transition_time 0x6b1-0x6b8.7 (8)
0x6b0|                           00 00 00 00 72 66 17|         ....rf.|      [108]: "2030-10-27T01:00:00Z" (1919293200) transition_time 0x6b9-0x6c0.7 (8)
0x6c0|10                                             |.               |
0x6c0|   00 00 00 00 73 31 1e 10                     | ....s1..       |      [109]: "2031-03-30T01:00:00Z" (1932598800) transition_time 0x6c1-0x6c8.7 (8)
0x6c0|                           00 00 00 00 74 45 f9|         ....tE.|      [110]: "2031-10-26T01:00:00Z" (1950742800) transition_time 0x6c9-0x6d0.7 (8)
0x6d0|10                                             |.               |
0x6d0|   00 00 00 00 75 11 00 10                     | ....u...       |      [111]: "2032-03-28T01:00:00Z" (1964048400) transition_time 0x6d1-0x6d8.7 (8)
0x6d0|                           00 00 00 00 76 2f 15|         ....v/.|      [112]: "2032-10-31T01:00:00Z" (1982797200) transition_time 0x6d9-0x6e0.7 (8)
0x6e0|90                                             |.               |
0x6e0|   00 00 00 00 76 f0 e2 10                     | ....v...       |      [113]: "2033-03-27T01:00:00Z" (1995498000) transition_time 0x6e1-0x6e8.7 (8)
0x6e0|                           00 00 00 00 78 0e f7|         ....x..|      [114]: "2033-10-30T01:00:00Z" (2014246800) transition_time 0x6e9-0x6f0.7 (8)
0x6f0|90                                             |.               |
0x6f0|   00 00 00 00 78 d0 c4 10                     | ....x...       |      [115]: "2034-03-26T01:00:00Z" (2026947600) transition_time 0x6f1-0x6f8.7 (8)
0x6f0|                           00 00 00 00 79 ee d9|         ....y..|      [116]: "2034-10-29T01:00:00Z" (2045696400) transition_time 0x6f9-0x700.7 (8)
0x700|90                                             |.               |
0x700|   00 00 00 00 7a b0 a6 10                     | ....z...       |      [117]: "2035-03-25T01:00:00Z" (2058397200) transition_time 0x701-0x708.7 (8)
0x700|                           00 00 00 00 7b ce bb|         ....{..|      [118]: "2035-10-28T01:00:00Z" (2077146000) transition_time 0x709-0x710.7 (8)
0x710|90                                             |.               |
0x710|   00 00 00 00 7c 99 c2 90                     | ....|...       |      [119]: "2036-03-30T01:00:00Z" (2090451600) transition_time 0x711-0x718.7 (8)
0x710|                           00 00 00 00 7d ae 9d|         ....}..|      [120]: "2036-10-26T01:00:00Z" (2108595600) transition_time 0x719-0x720.7 (8)
0x720|90                                             |.               |
0x720|   00 00 00 00 7e 79 a4 90                     | ....~y..       |      [121]: "2037-03-29T01:00:00Z" (2121901200) transition_time 0x721-0x728.7 (8)
0x720|                           00 00 00 00 7f 8e 7f|         .......|      [122]: "2037-10-25T01:00:00Z" (2140045200) transition_time 0x729-0x730.7 (8)
0x730|90                                             |.               |
     |                                               |                |    transition_types[0:123]: 0x731-0x7ab.7 (123)
0x730|   01                                          | .              |      [0]: 1 transition_type 0x731-0x731.7 (1)
0x730|      04                                       |  .             |      [1]: 4 transition_type 0x732-0x732.7 (1)
0x730|         02                                    |   .            |      [2]: 2 transition_type 0x733-0x733.7 (1)
0x730|            03                                 |    .           |      [3]: 3 transition_type 0x734-0x734.7 (1)
0x730|               01                              |     .          |      [4]: 1 transition_type 0x735-0x735.7 (1)
0x730|                  05                           |      .         |      [5]: 5 transition_type 0x736-0x736.7 (1)
0x730|                     06                        |       .        |      [6]: 6 transition_type 0x737-0x737.7 (1)
0x730|                        07                     |        .       |      [7]: 7 transition_type 0x738-0x738.7 (1)
0x730|                           03                  |         .      |      [8]: 3 transition_type 0x739-0x739.7 (1)
0x730|                              02               |          .     |      [9]: 2 transition_type 0x73a-0x73a.7 (1)
0x730|                                 03            |           .    |      [10]: 3 transition_type 0x73b-0x73b.7 (1)
0x730|                                    02         |            .   |      [11]: 2 transition_type 0x73c-0x73c.7 (1)
0x730|                                       06      |             .  |      [12]: 6 transition_type 0x73d-0x73d.7 (1)
0x730|                                          08   |              . |      [13]: 8 transition_type 0x73e-0x73e.7 (1)
0x730|                                             06|               .|      [14]: 6 transition_type 0x73f-0x73f.7 (1)
0x740|08                                             |.               |      [15]: 8 transition_type 0x740-0x740.7 (1)
0x740|   06                                          | .              |      [16]: 6 transition_type 0x741-0x741.7 (1)
0x740|      08                                       |  .             |      [17]: 8 transition_type 0x742-0x742.7 (1)
0x740|         06                                    |   .            |      [18]: 6 transition_type 0x743-0x743.7 (1)
0x740|            08                                 |    .           |      [19]: 8 transition_type 0x744-0x744.7 (1)
0x740|               09                              |     .          |      [20]: 9 transition_type 0x745-0x745.7 (1)
0x740|                  0a                           |      .         |      [21]: 10 transition_type 0x746-0x746.7 (1)
0x740|                     09                        |       .        |      [22]: 9 transition_type 0x747-0x747.7 (1)
0x740|                        0a                     |        .       |      [23]: 10 transition_type 0x748-0x748.7 (1)
0x740|                           09                  |         .      |      [24]: 9 transition_type 0x749-0x749.7 (1)
0x740|                              0a               |          .     |      [25]: 10 transition_type 0x74a-0x74a.7 (1)
0x740|                                 09            |           .    |      [26]: 9 transition_type 0x74b-0x74b.7 (1)
0x740|                                    0a         |            .   |      [27]: 10 transition_type 0x74c-0x74c.7 (1)
0x740|                                       09      |             .  |      [28]: 9 transition_type 0x74d-0x74d.7 (1)
0x740|                                          0b   |              . |      [29]: 11 transition_type 0x74e-0x74e.7 (1)
0x740|                                             0c|               .|      [30]: 12 transition_type 0x74f-0x74f.7 (1)
0x750|0b                                             |.               |      [31]: 11 transition_type 0x750-0x750.7 (1)
0x750|   0c                                          | .              |      [32]: 12 transition_type 0x751-0x751.7 (1)
0x750|      0b                                       |  .             |      [33]: 11 transition_type 0x752-0x752.7 (1)
0x750|         0c                                    |   .            |      [34]: 12 transition_type 0x753-0x753.7 (1)
0x750|            0b                                 |    .           |      [35]: 11 transition_type 0x754-0x754.7 (1)
0x750|               0c                              |     .          |      [36]: 12 transition_type 0x755-0x755.7 (1)
0x750|                  0b                           |      .         |      [37]: 11 transition_type 0x756-0x756.7 (1)
0x750|                     0c                        |       .        |      [38]: 12 transition_type 0x757-0x757.7 (1)
0x750|                        0b                     |        .       |      [39]: 11 transition_type 0x758-0x758.7 (1)
0x750|                           0c                  |         .      |      [40]: 12 transition_type 0x759-0x759.7 (1)
0x750|                              0b               |          .     |      [41]: 11 transition_type 0x75a-0x75a.7 (1)
0x750|                                 0c            |           .    |      [42]: 12 transition_type 0x75b-0x75b.7 (1)
0x750|                                    0b         |            .   |      [43]: 11 transition_type 0x75c-0x75c.7 (1)
0x750|                                       0c      |             .  |      [44]: 12 transition_type 0x75d-0x75d.7 (1)
0x750|                                          0b   |              . |      [45]: 11 transition_type 0x75e-0x75e.7 (1)
0x750|                                             0c|               .|      [46]: 12 transition_type 0x75f-0x75f.7 (1)
0x760|0b                                             |.               |      [47]: 11 transition_type 0x760-0x760.7 (1)
0x760|   0d                                          | .              |      [48]: 13 transition_type 0x761-0x761.7 (1)
0x760|      0e                                       |  .             |      [49]: 14 transition_type 0x762-0x762.7 (1)
0x760|         05                                    |   .            |      [50]: 5 transition_type 0x763-0x763.7 (1)
0x760|            0e                                 |    .           |      [51]: 14 transition_type 0x764-0x764.7 (1)
0x760|               0d                              |     .          |      [52]: 13 transition_type 0x765-0x765.7 (1)
0x760|                  0e                           |      .         |      [53]: 14 transition_type 0x766-0x766.7 (1)
0x760|                     0d                        |       .        |      [54]: 13 transition_type 0x767-0x767.7 (1)
0x760|                        0e                     |        .       |      [55]: 14 transition_type 0x768-0x768.7 (1)
0x760|                           0d                  |         .      |      [56]: 13 transition_type 0x769-0x769.7 (1)
0x760|                              0e               |          .     |      [57]: 14 transition_type 0x76a-0x76a.7 (1)
0x760|                                 0d            |           .    |      [58]: 13 transition_type 0x76b-0x76b.7 (1)
0x760|                                    0e         |            .   |      [59]: 14 transition_type 0x76c-0x76c.7 (1)
0x760|                                       0d      |             .  |      [60]: 13 transition_type 0x76d-0x76d.7 (1)
0x760|                                          0e   |              . |      [61]: 14 transition_type 0x76e-0x76e.7 (1)
0x760|                                             0d|               .|      [62]: 13 transition_type 0x76f-0x76f.7 (1)
0x770|0e                                             |.               |      [63]: 14 transition_type 0x770-0x770.7 (1)
0x770|   0d                                          | .              |      [64]: 13 transition_type 0x771-0x771.7 (1)
0x770|      0e                                       |  .             |      [65]: 14 transition_type 0x772-0x772.7 (1)
0x770|         0d                                    |   .            |      [66]: 13 transition_type 0x773-0x773.7 (1)
0x770|            0e                                 |    .           |      [67]: 14 transition_type 0x774-0x774.7 (1)
0x770|               0d                              |     .          |      [68]: 13 transition_type 0x775-0x775.7 (1)
0x770|                  0e                           |      .         |      [69]: 14 transition_type 0x776-0x776.7 (1)
0x770|                     0d                        |       .        |      [70]: 13 transition_type 0x777-0x777.7 (1)
0x770|                        0e                     |        .       |      [71]: 14 transition_type 0x778-0x778.7 (1)
0x770|                           0d                  |         .      |      [72]: 13 transition_type 0x779-0x779.7 (1)
0x770|                              0e               |          .     |      [73]: 14 transition_type 0x77a-0x77a.7 (1)
0x770|                                 0d            |           .    |      [74]: 13 transition_type 0x77b-0x77b.7 (1)
0x770|                                    0e         |            .   |      [75]: 14 transition_type 0x77c-0x77c.7 (1)
0x770|                                       0d      |             .  |      [76]: 13 transition_type 0x77d-0x77d.7 (1)
0x770|                                          0e   |              . |      [77]: 14 transition_type 0x77e-0x77e.7 (1)
0x770|                                             0d|               .|      [78]: 13 transition_type 0x77f-0x77f.7 (1)
0x780|0e                                             |.               |      [79]: 14 transition_type 0x780-0x780.7 (1)
0x780|   0d                                          | .              |      [80]: 13 transition_type 0x781-0x781.7 (1)
0x780|      0e                                       |  .             |      [81]: 14 transition_type 0x782-0x782.7 (1)
0x780|         0d                                    |   .            |      [82]: 13 transition_type 0x783-0x783.7 (1)
0x780|            0e                                 |    .           |      [83]: 14 transition_type 0x784-0x784.7 (1)
0x780|               0d                              |     .          |      [84]: 13 transition_type 0x785-0x785.7 (1)
0x780|                  0e                           |      .         |      [85]: 14 transition_type 0x786-0x786.7 (1)
0x780|                     0d                        |       .        |      [86]: 13 transition_type 0x787-0x787.7 (1)
0x780|                        0e                     |        .       |      [87]: 14 transition_type 0x788-0x788.7 (1)
0x780|                           0d                  |         .      |      [88]: 13 transition_type 0x789-0x789.7 (1)
0x780|                              0e               |          .     |      [89]: 14 transition_type 0x78a-0x78a.7 (1)
0x780|                                 0d            |           .    |      [90]: 13 transition_type 0x78b-0x78b.7 (1)
0x780|                                    0e         |            .   |      [91]: 14 transition_type 0x78c-0x78c.7 (1)
0x780|                                       0d      |             .  |      [92]: 13 transition_type 0x78d-0x78d.7 (1)
0x780|                                          0e   |              . |      [93]: 14 transition_type 0x78e-0x78e.7 (1)
0x780|                                             0d|               .|      [94]: 13 transition_type 0x78f-0x78f.7 (1)
0x790|0e                                             |.               |      [95]: 14 transition_type 0x790-0x790.7 (1)
0x790|   0d                                          | .              |      [96]: 13 transition_type 0x791-0x791.7 (1)
0x790|      0e                                       |  .             |      [97]: 14 transition_type 0x792-0x792.7 (1)
0x790|         0d                                    |   .            |      [98]: 13 transition_type 0x793-0x793.7 (1)
0x790|            0e                                 |    .           |      [99]: 14 transition_type 0x794-0x794.7 (1)
0x790|               0d                              |     .          |      [100]: 13 transition_type 0x795-0x795.7 (1)
0x790|                  0e                           |      .         |      [101]: 14 transition_type 0x796-0x796.7 (1)
0x790|                     0d                        |       .        |      [102]: 13 transition_type 0x797-0x797.7 (1)
0x790|                        0e                     |        .       |      [103]: 14 transition_type 0x798-0x798.7 (1)
0x790|                           0d                  |         .      |      [104]: 13 transition_type 0x799-0x799.7 (1)
0x790|                              0e               |          .     |      [105]: 14 transition_type 0x79a-0x79a.7 (1)
0x790|                                 0d            |           .    |      [106]: 13 transition_type 0x79b-0x79b.7 (1)
0x790|                                    0e         |            .   |      [107]: 14 transition_type 0x79c-0x79c.7 (1)
0x790|                                       0d      |             .  |      [108]: 13 transition_type 0x79d-0x79d.7 (1)
0x790|                                          0e   |              . |      [109]: 14 transition_type 0x79e-0x79e.7 (1)
0x790|                                             0d|               .|      [110]: 13 transition_type 0x79f-0x79f.7 (1)
0x7a0|0e                                             |.               |      [111]: 14 transition_type 0x7a0-0x7a0.7 (1)
0x7a0|   0d                                          | .              |      [112]: 13 transition_type 0x7a1-0x7a1.7 (1)
0x7a0|      0e                                       |  .             |      [113]: 14 transition_type 0x7a2-0x7a2.7 (1)
0x7a0|         0d                                    |   .            |      [114]: 13 transition_type 0x7a3-0x7a3.7 (1)
0x7a0|            0e                                 |    .           |      [115]: 14 transition_type 0x7a4-0x7a4.7 (1)
0x7a0|               0d                              |     .          |      [116]: 13 transition_type 0x7a5-0x7a5.7 (1)
0x7a0|                  0e                           |      .         |      [117]: 14 transition_type 0x7a6-0x7a6.7 (1)
0x7a0|                     0d                        |       .        |      [118]: 13 transition_type 0x7a7-0x7a7.7 (1)
0x7a0|                        0e                     |        .       |      [119]: 14 transition_type 0x7a8-0x7a8.7 (1)
0x7a0|                           0d                  |         .      |      [120]: 13 transition_type 0x7a9-0x7a9.7 (1)
0x7a0|                              0e               |          .     |      [121]: 14 transition_type 0x7aa-0x7aa.7 (1)
0x7a0|                                 0d            |           .    |      [122]: 13 transition_type 0x7ab-0x7ab.7 (1)
     |                                               |                |    local_time_type_records[0:15]: 0x7ac-0x805.7 (90)
     |                                               |                |      [0]{}: local_time_type 0x7ac-0x7b1.7 (6)
0x7a0|                                    00 00 17 34|            ...4|        utoff: 5940 (valid) 0x7ac-0x7af.7 (4)
0x7b0|00                                             |.               |        dst: 0 (valid) 0x7b0-0x7b0.7 (1)
0x7b0|   00                                          | .              |        idx: 0 (valid) 0x7b1-0x7b1.7 (1)
     |                                               |                |      [1]{}: local_time_type 0x7b2-0x7b7.7 (6)
0x7b0|      00 00 17 34                              |  ...4          |        utoff: 5940 (valid) 0x7b2-0x7b5.7 (4)
0x7b0|                  00                           |      .         |        dst: 0 (valid) 0x7b6-0x7b6.7 (1)
0x7b0|                     04                        |       .        |        idx: 4 (valid) 0x7b7-0x7b7.7 (1)
     |                                               |                |      [2]{}: local_time_type 0x7b8-0x7bd.7 (6)
0x7b0|                        00 00 1c 20            |        ...     |        utoff: 7200 (valid) 0x7b8-0x7bb.7 (4)
0x7b0|                                    01         |            .   |        dst: 1 (valid) 0x7bc-0x7bc.7 (1)
0x7b0|                                       08      |             .  |        idx: 8 (valid) 0x7bd-0x7bd.7 (1)
     |                                               |                |      [3]{}: local_time_type 0x7be-0x7c3.7 (6)
0x7b0|                                          00 00|              ..|        utoff: 3600 (valid) 0x7be-0x7c1.7 (4)
0x7c0|0e 10                                          |..              |
0x7c0|      00                                       |  .             |        dst: 0 (valid) 0x7c2-0x7c2.7 (1)
0x7c0|         0d                                    |   .            |        idx: 13 (valid) 0x7c3-0x7c3.7 (1)
     |                                               |                |      [4]{}: local_time_type 0x7c4-0x7c9.7 (6)
0x7c0|            00 00 0e 10                        |    ....        |        utoff: 3600 (valid) 0x7c4-0x7c7.7 (4)
0x7c0|                        00                     |        .       |        dst: 0 (valid) 0x7c8-0x7c8.7 (1)
0x7c0|                           0d                  |         .      |        idx: 13 (valid) 0x7c9-0x7c9.7 (1)
     |                                               |                |      [5]{}: local_time_type 0x7ca-0x7cf.7 (6)
0x7c0|                              00 00 1c 20      |          ...   |        utoff: 7200 (valid) 0x7ca-0x7cd.7 (4)
0x7c0|                                          00   |              . |        dst: 0 (valid) 0x7ce-0x7ce.7 (1)
0x7c0|                                             11|               .|        idx: 17 (valid) 0x7cf-0x7cf.7 (1)
     |                                               |                |      [6]{}: local_time_type 0x7d0-0x7d5.7 (6)
0x7d0|00 00 2a 30                                    |..*0            |        utoff: 10800 (valid) 0x7d0-0x7d3.7 (4)
0x7d0|            00                                 |    .           |        dst: 0 (valid) 0x7d4-0x7d4.7 (1)
0x7d0|               15                              |     .          |        idx: 21 (valid) 0x7d5-0x7d5.7 (1)
     |                                               |                |      [7]{}: local_time_type 0x7d6-0x7db.7 (6)
0x7d0|                  00 00 1c 20                  |      ...       |        utoff: 7200 (valid) 0x7d6-0x7d9.7 (4)
0x7d0|                              01               |          .     |        dst: 1 (valid) 0x7da-0x7da.7 (1)
0x7d0|                                 08            |           .    |        idx: 8 (valid) 0x7db-0x7db.7 (1)
     |                                               |                |      [8]{}: local_time_type 0x7dc-0x7e1.7 (6)
0x7d0|                                    00 00 38 40|            ..8@|        utoff: 14400 (valid) 0x7dc-0x7df.7 (4)
0x7e0|01                                             |.               |        dst: 1 (valid) 0x7e0-0x7e0.7 (1)
0x7e0|   19                                          | .              |        idx: 25 (valid) 0x7e1-0x7e1.7 (1)
     |                                               |                |      [9]{}: local_time_type 0x7e2-0x7e7.7 (6)
0x7e0|      00 00 2a 30                              |  ..*0          |        utoff: 10800 (valid) 0x7e2-0x7e5.7 (4)
0x7e0|                  00                           |      .         |        dst: 0 (valid) 0x7e6-0x7e6.7 (1)
0x7e0|                     15                        |       .        |        idx: 21 (valid) 0x7e7-0x7e7.7 (1)
     |                                               |                |      [10]{}: local_time_type 0x7e8-0x7ed.7 (6)
0x7e0|                        00 00 38 40            |        ..8@    |        utoff: 14400 (valid) 0x7e8-0x7eb.7 (4)
0x7e0|                                    01         |            .   |        dst: 1 (valid) 0x7ec-0x7ec.7 (1)
0x7e0|                                       19      |             .  |        idx: 25 (valid) 0x7ed-0x7ed.7 (1)
     |                                               |                |      [11]{}: local_time_type 0x7ee-0x7f3.7 (6)
0x7e0|                                          00 00|              ..|        utoff: 10800 (valid) 0x7ee-0x7f1.7 (4)
0x7f0|2a 30                                          |*0              |
0x7f0|      01                                       |  .             |        dst: 1 (valid) 0x7f2-0x7f2.7 (1)
0x7f0|         1d                                    |   .            |        idx: 29 (valid) 0x7f3-0x7f3.7 (1)
     |                                               |                |      [12]{}: local_time_type 0x7f4-0x7f9.7 (6)
0x7f0|            00 00 1c 20                        |    ...         |        utoff: 7200 (valid) 0x7f4-0x7f7.7 (4)
0x7f0|                        00                     |        .       |        dst: 0 (valid) 0x7f8-0x7f8.7 (1)
0x7f0|                           11                  |         .      |        idx: 17 (valid) 0x7f9-0x7f9.7 (1)
     |                                               |                |      [13]{}: local_time_type 0x7fa-0x7ff.7 (6)
0x7f0|                              00 00 1c 20      |          ...   |        utoff: 7200 (valid) 0x7fa-0x7fd.7 (4)
0x7f0|                                          00   |              . |        dst: 0 (valid) 0x7fe-0x7fe.7 (1)
0x7f0|                                             11|               .|        idx: 17 (valid) 0x7ff-0x7ff.7 (1)
     |                                               |                |      [14]{}: local_time_type 0x800-0x805.7 (6)
0x800|00 00 2a 30                                    |..*0            |        utoff: 10800 (valid) 0x800-0x803.7 (4)
0x800|            01                                 |    .           |        dst: 1 (valid) 0x804-0x804.7 (1)
0x800|               1d                              |     .          |        idx: 29 (valid) 0x805-0x805.7 (1)
     |                                               |                |    time_zone_designations[0:8]: 0x806-0x827.7 (34)
0x800|                  4c 4d 54 00                  |      LMT.      |      [0]: "LMT" time_zone_designation 0x806-0x809.7 (4)
0x800|                              54 4d 54 00      |          TMT.  |      [1]: "TMT" time_zone_designation 0x80a-0x80d.7 (4)
0x800|                                          43 45|              CE|      [2]: "CEST" time_zone_designation 0x80e-0x812.7 (5)
0x810|53 54 00                                       |ST.             |
0x810|         43 45 54 00                           |   CET.         |      [3]: "CET" time_zone_designation 0x813-0x816.7 (4)
0x810|                     45 45 54 00               |       EET.     |      [4]: "EET" time_zone_designation 0x817-0x81a.7 (4)
0x810|                                 4d 53 4b 00   |           MSK. |      [5]: "MSK" time_zone_designation 0x81b-0x81e.7 (4)
0x810|                                             4d|               M|      [6]: "MSD" time_zone_designation 0x81f-0x822.7 (4)
0x820|53 44 00                                       |SD.             |
0x820|         45 45 53 54 00                        |   EEST.        |      [7]: "EEST" time_zone_designation 0x823-0x827.7 (5)
     |                                               |                |    leap_second_records[0:0]: 0x828-NA (0)
     |                                               |                |    standard_wall_indicators[0:15]: 0x828-0x836.7 (15)
0x820|                        00                     |        .       |      [0]: 0 standard_wall_indicator (valid) 0x828-0x828.7 (1)
0x820|                           00                  |         .      |      [1]: 0 standard_wall_indicator (valid) 0x829-0x829.7 (1)
0x820|                              01               |          .     |      [2]: 1 standard_wall_indicator (valid) 0x82a-0x82a.7 (1)
0x820|                                 01            |           .    |      [3]: 1 standard_wall_indicator (valid) 0x82b-0x82b.7 (1)
0x820|                                    00         |            .   |      [4]: 0 standard_wall_indicator (valid) 0x82c-0x82c.7 (1)
0x820|                                       00      |             .  |      [5]: 0 standard_wall_indicator (valid) 0x82d-0x82d.7 (1)
0x820|                                          00   |              . |      [6]: 0 standard_wall_indicator (valid) 0x82e-0x82e.7 (1)
0x820|                                             00|               .|      [7]: 0 standard_wall_indicator (valid) 0x82f-0x82f.7 (1)
0x830|00                                             |.               |      [8]: 0 standard_wall_indicator (valid) 0x830-0x830.7 (1)
0x830|   01                                          | .              |      [9]: 1 standard_wall_indicator (valid) 0x831-0x831.7 (1)
0x830|      01                                       |  .             |      [10]: 1 standard_wall_indicator (valid) 0x832-0x832.7 (1)
0x830|         01                                    |   .            |      [11]: 1 standard_wall_indicator (valid) 0x833-0x833.7 (1)
0x830|            01                                 |    .           |      [12]: 1 standard_wall_indicator (valid) 0x834-0x834.7 (1)
0x830|               01                              |     .          |      [13]: 1 standard_wall_indicator (valid) 0x835-0x835.7 (1)
0x830|                  01                           |      .         |      [14]: 1 standard_wall_indicator (valid) 0x836-0x836.7 (1)
     |                                               |                |    ut_local_indicators[0:15]: 0x837-0x845.7 (15)
0x830|                     00                        |       .        |      [0]: 0 ut_local_indicator (valid) 0x837-0x837.7 (1)
0x830|                        00                     |        .       |      [1]: 0 ut_local_indicator (valid) 0x838-0x838.7 (1)
0x830|                           00                  |         .      |      [2]: 0 ut_local_indicator (valid) 0x839-0x839.7 (1)
0x830|                              00               |          .     |      [3]: 0 ut_local_indicator (valid) 0x83a-0x83a.7 (1)
0x830|                                 00            |           .    |      [4]: 0 ut_local_indicator (valid) 0x83b-0x83b.7 (1)
0x830|                                    00         |            .   |      [5]: 0 ut_local_indicator (valid) 0x83c-0x83c.7 (1)
0x830|                                       00      |             .  |      [6]: 0 ut_local_indicator (valid) 0x83d-0x83d.7 (1)
0x830|                                          00   |              . |      [7]: 0 ut_local_indicator (valid) 0x83e-0x83e.7 (1)
0x830|                                             00|               .|      [8]: 0 ut_local_indicator (valid) 0x83f-0x83f.7 (1)
0x840|00                                             |.               |      [9]: 0 ut_local_indicator (valid) 0x840-0x840.7 (1)
0x840|   00                                          | .              |      [10]: 0 ut_local_indicator (valid) 0x841-0x841.7 (1)
0x840|      00                                       |  .             |      [11]: 0 ut_local_indicator (valid) 0x842-0x842.7 (1)
0x840|         00                                    |   .            |      [12]: 0 ut_local_indicator (valid) 0x843-0x843.7 (1)
0x840|            01                                 |    .           |      [13]: 1 ut_local_indicator (valid) 0x844-0x844.7 (1)
0x840|               01                              |     .          |      [14]: 1 ut_local_indicator (valid) 0x845-0x845.7 (1)
     |                                               |                |  footer{}: 0x846-0x863.7 (30)
0x840|                  0a                           |      .         |    nl1: 10 (valid) 0x846-0x846.7 (1)
0x840|                     45 45 54 2d 32 45 45 53 54|       EET-2EEST|    tz_string: "EET-2EEST,M3.5.0/3,M10.5.0/4" 0x847-0x862.7 (28)
0x850|2c 4d 33 2e 35 2e 30 2f 33 2c 4d 31 30 2e 35 2e|,M3.5.0/3,M10.5.|
0x860|30 2f 34                                       |0/4             |
0x860|         0a|                                   |   .|           |    nl2: 10 (valid) 0x863-0x863.7 (1)
