$ fq -d tzif dv Tallinn
     |00 01 02 03 04 05 06 07 08 09 0a 0b 0c 0d 0e 0f|0123456789abcdef|.{}: Tallinn (tzif) 0x0-0x864 (2148)
     |                                               |                |  v1header{}: 0x0-0x2c (44)
0x000|54 5a 69 66                                    |TZif            |    magic: 0x545a6966 (valid) 0x0-0x4 (4)
0x000|            32                                 |    2           |    ver: "2" (0x32) (valid) 0x4-0x5 (1)
0x000|               00 00 00 00 00 00 00 00 00 00 00|     ...........|    reserved: raw bits 0x5-0x14 (15)
0x010|00 00 00 00                                    |....            |
0x010|            00 00 00 0f                        |    ....        |    isutcnt: 15 0x14-0x18 (4)
0x010|                        00 00 00 0f            |        ....    |    isstdcnt: 15 0x18-0x1c (4)
0x010|                                    00 00 00 00|            ....|    leapcnt: 0 0x1c-0x20 (4)
0x020|00 00 00 7b                                    |...{            |    timecnt: 123 0x20-0x24 (4)
0x020|            00 00 00 0f                        |    ....        |    typecnt: 15 0x24-0x28 (4)
0x020|                        00 00 00 22            |        ..."    |    charcnt: 34 0x28-0x2c (4)
     |                                               |                |  v1datablock{}: 0x2c-0x32d (769)
     |                                               |                |    transition_times[0:123]: 0x2c-0x218 (492)
0x020|                                    80 00 00 00|            ....|      [0]: "1901-12-13T20:45:52Z" (-2147483648) transition_time 0x2c-0x30 (4)
0x030|9e 59 2d cc                                    |.Y-.            |      [1]: "1918-01-31T22:21:00Z" (-1638322740) transition_time 0x30-0x34 (4)
0x030|            9e b9 90 90                        |    ....        |      [2]: "1918-04-15T01:00:00Z" (-1632006000) transition_time 0x34-0x38 (4)
0x030|                        9f 84 97 90            |        ....    |      [3]: "1918-09-16T01:00:00Z" (-1618700400) transition_time 0x38-0x3c (4)
0x030|                                    a1 00 2b 70|            ..+p|      [4]: "1919-06-30T23:00:00Z" (-1593824400) transition_time 0x3c-0x40 (4)
0x040|a4 73 6f 4c                                    |.soL            |      [5]: "1921-04-30T22:21:00Z" (-1535938740) transition_time 0x40-0x44 (4)
0x040|            c8 b0 b5 e0                        |    ....        |      [6]: "1940-08-05T22:00:00Z" (-927943200) transition_time 0x44-0x48 (4)
0x040|                        ca c6 97 50            |        ...P    |      [7]: "1941-09-14T21:00:00Z" (-892954800) transition_time 0x48-0x4c (4)
0x040|                                    cc e7 4b 10|            ..K.|      [8]: "1942-11-02T01:00:00Z" (-857257200) transition_time 0x4c-0x50 (4)
0x050|cd a9 17 90                                    |....            |      [9]: "1943-03-29T01:00:00Z" (-844556400) transition_time 0x50-0x54 (4)
0x050|            ce a2 43 10                        |    ..C.        |      [10]: "1943-10-04T01:00:00Z" (-828226800) transition_time 0x54-0x58 (4)
0x050|                        cf 92 34 10            |        ..4.    |      [11]: "1944-04-03T01:00:00Z" (-812502000) transition_time 0x58-0x5c (4)
0x050|                                    d0 74 cb e0|            .t..|      [12]: "1944-09-21T22:00:00Z" (-797652000) transition_time 0x5c-0x60 (4)
0x060|15 27 a7 d0                                    |.'..            |      [13]: "1981-03-31T21:00:00Z" (354920400) transition_time 0x60-0x64 (4)
0x060|            16 18 dc 40                        |    ...@        |      [14]: "1981-09-30T20:00:00Z" (370728000) transition_time 0x64-0x68 (4)
0x060|                        17 08 db 50            |        ...P    |      [15]: "1982-03-31T21:00:00Z" (386456400) transition_time 0x68-0x6c (4)
0x060|                                    17 fa 0f c0|            ....|      [16]: "1982-09-30T20:00:00Z" (402264000) transition_time 0x6c-0x70 (4)
0x070|18 ea 0e d0                                    |....            |      [17]: "1983-03-31T21:00:00Z" (417992400) transition_time 0x70-0x74 (4)
0x070|            19 db 43 40                        |    ..C@        |      [18]: "1983-09-30T20:00:00Z" (433800000) transition_time 0x74-0x78 (4)
0x070|                        1a cc 93 d0            |        ....    |      [19]: "1984-03-31T21:00:00Z" (449614800) transition_time 0x78-0x7c (4)
0x070|                                    1b bc a0 f0|            ....|      [20]: "1984-09-29T23:00:00Z" (465346800) transition_time 0x7c-0x80 (4)
0x080|1c ac 91 f0                                    |....            |      [21]: "1985-03-30T23:00:00Z" (481071600) transition_time 0x80-0x84 (4)
0x080|            1d 9c 82 f0                        |    ....        |      [22]: "1985-09-28T23:00:00Z" (496796400) transition_time 0x84-0x88 (4)
0x080|                        1e 8c 73 f0            |        ..s.    |      [23]: "1986-03-29T23:00:00Z" (512521200) transition_time 0x88-0x8c (4)
0x080|                                    1f 7c 64 f0|            .|d.|      [24]: "1986-09-27T23:00:00Z" (528246000) transition_time 0x8c-0x90 (4)
0x090|20 6c 55 f0                                    | lU.            |      [25]: "1987-03-28T23:00:00Z" (543970800) transition_time 0x90-0x94 (4)
0x090|            21 5c 46 f0                        |    !\F.        |      [26]: "1987-09-26T23:00:00Z" (559695600) transition_time 0x94-0x98 (4)
0x090|                        22 4c 37 f0            |        "L7.    |      [27]: "1988-03-26T23:00:00Z" (575420400) transition_time 0x98-0x9c (4)
0x090|                                    23 3c 28 f0|            #<(.|      [28]: "1988-09-24T23:00:00Z" (591145200) transition_time 0x9c-0xa0 (4)
0x0a0|24 2c 19 f0                                    |$,..            |      [29]: "1989-03-25T23:00:00Z" (606870000) transition_time 0xa0-0xa4 (4)
0x0a0|            25 1c 19 00                        |    %...        |      [30]: "1989-09-24T00:00:00Z" (622598400) transition_time 0xa4-0xa8 (4)
0x0a0|                        26 0c 0a 00            |        &...    |      [31]: "1990-03-25T00:00:00Z" (638323200) transition_time 0xa8-0xac (4)
0x0a0|                                    27 05 35 80|            '.5.|      [32]: "1990-09-30T00:00:00Z" (654652800) transition_time 0xac-0xb0 (4)
0x0b0|27 f5 26 80                                    |'.&.            |      [33]: "1991-03-31T00:00:00Z" (670377600) transition_time 0xb0-0xb4 (4)
0x0b0|            28 e5 17 80                        |    (...        |      [34]: "1991-09-29T00:00:00Z" (686102400) transition_time 0xb4-0xb8 (4)
0x0b0|                        29 d5 08 80            |        )...    |      [35]: "1992-03-29T00:00:00Z" (701827200) transition_time 0xb8-0xbc (4)
0x0b0|                                    2a c4 f9 80|            *...|      [36]: "1992-09-27T00:00:00Z" (717552000) transition_time 0xbc-0xc0 (4)
0x0c0|2b b4 ea 80                                    |+...            |      [37]: "1993-03-28T00:00:00Z" (733276800) transition_time 0xc0-0xc4 (4)
0x0c0|            2c a4 db 80                        |    ,...        |      [38]: "1993-09-26T00:00:00Z" (749001600) transition_time 0xc4-0xc8 (4)
0x0c0|                        2d 94 cc 80            |        -...    |      [39]: "1994-03-27T00:00:00Z" (764726400) transition_time 0xc8-0xcc (4)
0x0c0|                                    2e 84 bd 80|            ....|      [40]: "1994-09-25T00:00:00Z" (780451200) transition_time 0xcc-0xd0 (4)
0x0d0|2f 74 ae 80                                    |/t..            |      [41]: "1995-03-26T00:00:00Z" (796176000) transition_time 0xd0-0xd4 (4)
0x0d0|            30 64 9f 80                        |    0d..        |      [42]: "1995-09-24T00:00:00Z" (811900800) transition_time 0xd4-0xd8 (4)
0x0d0|                        31 5d cb 00            |        1]..    |      [43]: "1996-03-31T00:00:00Z" (828230400) transition_time 0xd8-0xdc (4)
0x0d0|                                    32 72 a6 00|            2r..|      [44]: "1996-10-27T00:00:00Z" (846374400) transition_time 0xdc-0xe0 (4)
0x0e0|33 3d ad 00                                    |3=..            |      [45]: "1997-03-30T00:00:00Z" (859680000) transition_time 0xe0-0xe4 (4)
0x0e0|            34 52 88 00                        |    4R..        |      [46]: "1997-10-26T00:00:00Z" (877824000) transition_time 0xe4-0xe8 (4)
0x0e0|                        35 1d 8f 00            |        5...    |      [47]: "1998-03-29T00:00:00Z" (891129600) transition_time 0xe8-0xec (4)
0x0e0|                                    36 32 78 10|            62x.|      [48]: "1998-10-25T01:00:00Z" (909277200) transition_time 0xec-0xf0 (4)
0x0f0|36 fd 7f 10                                    |6...            |      [49]: "1999-03-28T01:00:00Z" (922582800) transition_time 0xf0-0xf4 (4)
0x0f0|            38 1b 94 90                        |    8...        |      [50]: "1999-10-31T01:00:00Z" (941331600) transition_time 0xf4-0xf8 (4)
0x0f0|                        3c a6 5f 90            |        <._.    |      [51]: "2002-03-31T01:00:00Z" (1017536400) transition_time 0xf8-0xfc (4)
0x0f0|                                    3d bb 3a 90|            =.:.|      [52]: "2002-10-27T01:00:00Z" (1035680400) transition_time 0xfc-0x100 (4)
0x100|3e 86 41 90                                    |>.A.            |      [53]: "2003-03-30T01:00:00Z" (1048986000) transition_time 0x100-0x104 (4)
0x100|            3f 9b 1c 90                        |    ?...        |      [54]: "2003-10-26T01:00:00Z" (1067130000) transition_time 0x104-0x108 (4)
0x100|                        40 66 23 90            |        @f#.    |      [55]: "2004-03-28T01:00:00Z" (1080435600) transition_time 0x108-0x10c (4)
0x100|                                    41 84 39 10|            A.9.|      [56]: "2004-10-31T01:00:00Z" (1099184400) transition_time 0x10c-0x110 (4)
0x110|42 46 05 90                                    |BF..            |      [57]: "2005-03-27T01:00:00Z" (1111885200) transition_time 0x110-0x114 (4)
0x110|            43 64 1b 10                        |    Cd..        |      [58]: "2005-10-30T01:00:00Z" (1130634000) transition_time 0x114-0x118 (4)
0x110|                        44 25 e7 90            |        D%..    |      [59]: "2006-03-26T01:00:00Z" (1143334800) transition_time 0x118-0x11c (4)
0x110|                                    45 43 fd 10|            EC..|      [60]: "2006-10-29T01:00:00Z" (1162083600) transition_time 0x11c-0x120 (4)
0x120|46 05 c9 90                                    |F...            |      [61]: "2007-03-25T01:00:00Z" (1174784400) transition_time 0x120-0x124 (4)
0x120|            47 23 df 10                        |    G#..        |      [62]: "2007-10-28T01:00:00Z" (1193533200) transition_time 0x124-0x128 (4)
0x120|                        47 ee e6 10            |        G...    |      [63]: "2008-03-30T01:00:00Z" (1206838800) transition_time 0x128-0x12c (4)
0x120|                                    49 03 c1 10|            I...|      [64]: "2008-10-26T01:00:00Z" (1224982800) transition_time 0x12c-0x130 (4)
0x130|49 ce c8 10                                    |I...            |      [65]: "2009-03-29T01:00:00Z" (1238288400) transition_time 0x130-0x134 (4)
0x130|            4a e3 a3 10                        |    J...        |      [66]: "2009-10-25T01:00:00Z" (1256432400) transition_time 0x134-0x138 (4)
0x130|                        4b ae aa 10            |        K...    |      [67]: "2010-03-28T01:00:00Z" (1269738000) transition_time 0x138-0x13c (4)
0x130|                                    4c cc bf 90|            L...|      [68]: "2010-10-31T01:00:00Z" (1288486800) transition_time 0x13c-0x140 (4)
0x140|4d 8e 8c 10                                    |M...            |      [69]: "2011-03-27T01:00:00Z" (1301187600) transition_time 0x140-0x144 (4)
0x140|            4e ac a1 90                        |    N...        |      [70]: "2011-10-30T01:00:00Z" (1319936400) transition_time 0x144-0x148 (4)
0x140|                        4f 6e 6e 10            |        Onn.    |      [71]: "2012-03-25T01:00:00Z" (1332637200) transition_time 0x148-0x14c (4)
0x140|                                    50 8c 83 90|            P...|      [72]: "2012-10-28T01:00:00Z" (1351386000) transition_time 0x14c-0x150 (4)
0x150|51 57 8a 90                                    |QW..            |      [73]: "2013-03-31T01:00:00Z" (1364691600) transition_time 0x150-0x154 (4)
0x150|            52 6c 65 90                        |    Rle.        |      [74]: "2013-10-27T01:00:00Z" (1382835600) transition_time 0x154-0x158 (4)
0x150|                        53 37 6c 90            |        S7l.    |      [75]: "2014-03-30T01:00:00Z" (1396141200) transition_time 0x158-0x15c (4)
0x150|                                    54 4c 47 90|            TLG.|      [76]: "2014-10-26T01:00:00Z" (1414285200) transition_time 0x15c-0x160 (4)
0x160|55 17 4e 90                                    |U.N.            |      [77]: "2015-03-29T01:00:00Z" (1427590800) transition_time 0x160-0x164 (4)
0x160|            56 2c 29 90                        |    V,).        |      [78]: "2015-10-25T01:00:00Z" (1445734800) transition_time 0x164-0x168 (4)
0x160|                        56 f7 30 90            |        V.0.    |      [79]: "2016-03-27T01:00:00Z" (1459040400) transition_time 0x168-0x16c (4)
0x160|                                    58 15 46 10|            X.F.|      [80]: "2016-10-30T01:00:00Z" (1477789200) transition_time 0x16c-0x170 (4)
0x170|58 d7 12 90                                    |X...            |      [81]: "2017-03-26T01:00:00Z" (1490490000) transition_time 0x170-0x174 (4)
0x170|            59 f5 28 10                        |    Y.(.        |      [82]: "2017-10-29T01:00:00Z" (1509238800) transition_time 0x174-0x178 (4)
0x170|                        5a b6 f4 90            |        Z...    |      [83]: "2018-03-25T01:00:00Z" (1521939600) transition_time 0x178-0x17c (4)
0x170|                                    5b d5 0a 10|            [...|      [84]: "2018-10-28T01:00:00Z" (1540688400) transition_time 0x17c-0x180 (4)
0x180|5c a0 11 10                                    |\...            |      [85]: "2019-03-31T01:00:00Z" (1553994000) transition_time 0x180-0x184 (4)
0x180|            5d b4 ec 10                        |    ]...        |      [86]: "2019-10-27T01:00:00Z" (1572138000) transition_time 0x184-0x188 (4)
0x180|                        5e 7f f3 10            |        ^...    |      [87]: "2020-03-29T01:00:00Z" (1585443600) transition_time 0x188-0x18c (4)
0x180|                                    5f 94 ce 10|            _...|      [88]: "2020-10-25T01:00:00Z" (1603587600) transition_time 0x18c-0x190 (4)
0x190|60 5f d5 10                                    |`_..            |      [89]: "2021-03-28T01:00:00Z" (1616893200) transition_time 0x190-0x194 (4)
0x190|            61 7d ea 90                        |    a}..        |      [90]: "2021-10-31T01:00:00Z" (1635642000) transition_time 0x194-0x198 (4)
0x190|                        62 3f b7 10            |        b?..    |      [91]: "2022-03-27T01:00:00Z" (1648342800) transition_time 0x198-0x19c (4)
0x190|                                    63 5d cc 90|            c]..|      [92]: "2022-10-30T01:00:00Z" (1667091600) transition_time 0x19c-0x1a0 (4)
0x1a0|64 1f 99 10                                    |d...            |      [93]: "2023-03-26T01:00:00Z" (1679792400) transition_time 0x1a0-0x1a4 (4)
0x1a0|            65 3d ae 90                        |    e=..        |      [94]: "2023-10-29T01:00:00Z" (1698541200) transition_time 0x1a4-0x1a8 (4)
0x1a0|                        66 08 b5 90            |        f...    |      [95]: "2024-03-31T01:00:00Z" (1711846800) transition_time 0x1a8-0x1ac (4)
0x1a0|                                    67 1d 90 90|            g...|      [96]: "2024-10-27T01:00:00Z" (1729990800) transition_time 0x1ac-0x1b0 (4)
0x1b0|67 e8 97 90                                    |g...            |      [97]: "2025-03-30T01:00:00Z" (1743296400) transition_time 0x1b0-0x1b4 (4)
0x1b0|            68 fd 72 90                        |    h.r.        |      [98]: "2025-10-26T01:00:00Z" (1761440400) transition_time 0x1b4-0x1b8 (4)
0x1b0|                        69 c8 79 90            |        i.y.    |      [99]: "2026-03-29T01:00:00Z" (1774746000) transition_time 0x1b8-0x1bc (4)
0x1b0|                                    6a dd 54 90|            j.T.|      [100]: "2026-10-25T01:00:00Z" (1792890000) transition_time 0x1bc-0x1c0 (4)
0x1c0|6b a8 5b 90                                    |k.[.            |      [101]: "2027-03-28T01:00:00Z" (1806195600) transition_time 0x1c0-0x1c4 (4)
0x1c0|            6c c6 71 10                        |    l.q.        |      [102]: "2027-10-31T01:00:00Z" (1824944400) transition_time 0x1c4-0x1c8 (4)
0x1c0|                        6d 88 3d 90            |        m.=.    |      [103]: "2028-03-26T01:00:00Z" (1837645200) transition_time 0x1c8-0x1cc (4)
0x1c0|                                    6e a6 53 10|            n.S.|      [104]: "2028-10-29T01:00:00Z" (1856394000) transition_time 0x1cc-0x1d0 (4)
0x1d0|6f 68 1f 90                                    |oh..            |      [105]: "2029-03-25T01:00:00Z" (1869094800) transition_time 0x1d0-0x1d4 (4)
0x1d0|            70 86 35 10                        |    p.5.        |      [106]: "2029-10-28T01:00:00Z" (1887843600) transition_time 0x1d4-0x1d8 (4)
0x1d0|                        71 51 3c 10            |        qQ<.    |      [107]: "2030-03-31T01:00:00Z" (1901149200) transition_time 0x1d8-0x1dc (4)
0x1d0|                                    72 66 17 10|            rf..|      [108]: "2030-10-27T01:00:00Z" (1919293200) transition_time 0x1dc-0x1e0 (4)
0x1e0|73 31 1e 10                                    |s1..            |      [109]: "2031-03-30T01:00:00Z" (1932598800) transition_time 0x1e0-0x1e4 (4)
0x1e0|            74 45 f9 10                        |    tE..        |      [110]: "2031-10-26T01:00:00Z" (1950742800) transition_time 0x1e4-0x1e8 (4)
0x1e0|                        75 11 00 10            |        u...    |      [111]: "2032-03-28T01:00:00Z" (1964048400) transition_time 0x1e8-0x1ec (4)
0x1e0|                                    76 2f 15 90|            v/..|      [112]: "2032-10-31T01:00:00Z" (1982797200) transition_time 0x1ec-0x1f0 (4)
0x1f0|76 f0 e2 10                                    |v...            |      [113]: "2033-03-27T01:00:00Z" (1995498000) transition_time 0x1f0-0x1f4 (4)
0x1f0|            78 0e f7 90                        |    x...        |      [114]: "2033-10-30T01:00:00Z" (2014246800) transition_time 0x1f4-0x1f8 (4)
0x1f0|                        78 d0 c4 10            |        x...    |      [115]: "2034-03-26T01:00:00Z" (2026947600) transition_time 0x1f8-0x1fc (4)
0x1f0|                                    79 ee d9 90|            y...|      [116]: "2034-10-29T01:00:00Z" (2045696400) transition_time 0x1fc-0x200 (4)
0x200|7a b0 a6 10                                    |z...            |      [117]: "2035-03-25T01:00:00Z" (2058397200) transition_time 0x200-0x204 (4)
0x200|            7b ce bb 90                        |    {...        |      [118]: "2035-10-28T01:00:00Z" (2077146000) transition_time 0x204-0x208 (4)
0x200|                        7c 99 c2 90            |        |...    |      [119]: "2036-03-30T01:00:00Z" (2090451600) transition_time 0x208-0x20c (4)
0x200|                                    7d ae 9d 90|            }...|      [120]: "2036-10-26T01:00:00Z" (2108595600) transition_time 0x20c-0x210 (4)
0x210|7e 79 a4 90                                    |~y..            |      [121]: "2037-03-29T01:00:00Z" (2121901200) transition_time 0x210-0x214 (4)
0x210|            7f 8e 7f 90                        |    ....        |      [122]: "2037-10-25T01:00:00Z" (2140045200) transition_time 0x214-0x218 (4)
     |                                               |                |    transition_types[0:123]: 0x218-0x293 (123)
0x210|                        01                     |        .       |      [0]: 1 transition_type 0x218-0x219 (1)
0x210|                           04                  |         .      |      [1]: 4 transition_type 0x219-0x21a (1)
0x210|                              02               |          .     |      [2]: 2 transition_type 0x21a-0x21b (1)
0x210|                                 03            |           .    |      [3]: 3 transition_type 0x21b-0x21c (1)
0x210|                                    01         |            .   |      [4]: 1 transition_type 0x21c-0x21d (1)
0x210|                                       05      |             .  |      [5]: 5 transition_type 0x21d-0x21e (1)
0x210|                                          06   |              . |      [6]: 6 transition_type 0x21e-0x21f (1)
0x210|                                             07|               .|      [7]: 7 transition_type 0x21f-0x220 (1)
0x220|03                                             |.               |      [8]: 3 transition_type 0x220-0x221 (1)
0x220|   02                                          | .              |      [9]: 2 transition_type 0x221-0x222 (1)
0x220|      03                                       |  .             |      [10]: 3 transition_type 0x222-0x223 (1)
0x220|         02                                    |   .            |      [11]: 2 transition_type 0x223-0x224 (1)
0x220|            06                                 |    .           |      [12]: 6 transition_type 0x224-0x225 (1)
0x220|               08                              |     .          |      [13]: 8 transition_type 0x225-0x226 (1)
0x220|                  06                           |      .         |      [14]: 6 transition_type 0x226-0x227 (1)
0x220|                     08                        |       .        |      [15]: 8 transition_type 0x227-0x228 (1)
0x220|                        06                     |        .       |      [16]: 6 transition_type 0x228-0x229 (1)
0x220|                           08                  |         .      |      [17]: 8 transition_type 0x229-0x22a (1)
0x220|                              06               |          .     |      [18]: 6 transition_type 0x22a-0x22b (1)
0x220|                                 08            |           .    |      [19]: 8 transition_type 0x22b-0x22c (1)
0x220|                                    09         |            .   |      [20]: 9 transition_type 0x22c-0x22d (1)
0x220|                                       0a      |             .  |      [21]: 10 transition_type 0x22d-0x22e (1)
0x220|                                          09   |              . |      [22]: 9 transition_type 0x22e-0x22f (1)
0x220|                                             0a|               .|      [23]: 10 transition_type 0x22f-0x230 (1)
0x230|09                                             |.               |      [24]: 9 transition_type 0x230-0x231 (1)
0x230|   0a                                          | .              |      [25]: 10 transition_type 0x231-0x232 (1)
0x230|      09                                       |  .             |      [26]: 9 transition_type 0x232-0x233 (1)
0x230|         0a                                    |   .            |      [27]: 10 transition_type 0x233-0x234 (1)
0x230|            09                                 |    .           |      [28]: 9 transition_type 0x234-0x235 (1)
0x230|               0b                              |     .          |      [29]: 11 transition_type 0x235-0x236 (1)
0x230|                  0c                           |      .         |      [30]: 12 transition_type 0x236-0x237 (1)
0x230|                     0b                        |       .        |      [31]: 11 transition_type 0x237-0x238 (1)
0x230|                        0c                     |        .       |      [32]: 12 transition_type 0x238-0x239 (1)
0x230|                           0b                  |         .      |      [33]: 11 transition_type 0x239-0x23a (1)
0x230|                              0c               |          .     |      [34]: 12 transition_type 0x23a-0x23b (1)
0x230|                                 0b            |           .    |      [35]: 11 transition_type 0x23b-0x23c (1)
0x230|                                    0c         |            .   |      [36]: 12 transition_type 0x23c-0x23d (1)
0x230|                                       0b      |             .  |      [37]: 11 transition_type 0x23d-0x23e (1)
0x230|                                          0c   |              . |      [38]: 12 transition_type 0x23e-0x23f (1)
0x230|                                             0b|               .|      [39]: 11 transition_type 0x23f-0x240 (1)
0x240|0c                                             |.               |      [40]: 12 transition_type 0x240-0x241 (1)
0x240|   0b                                          | .              |      [41]: 11 transition_type 0x241-0x242 (1)
0x240|      0c                                       |  .             |      [42]: 12 transition_type 0x242-0x243 (1)
0x240|         0b                                    |   .            |      [43]: 11 transition_type 0x243-0x244 (1)
0x240|            0c                                 |    .           |      [44]: 12 transition_type 0x244-0x245 (1)
0x240|               0b                              |     .          |      [45]: 11 transition_type 0x245-0x246 (1)
0x240|                  0c                           |      .         |      [46]: 12 transition_type 0x246-0x247 (1)
0x240|                     0b                        |       .        |      [47]: 11 transition_type 0x247-0x248 (1)
0x240|                        0d                     |        .       |      [48]: 13 transition_type 0x248-0x249 (1)
0x240|                           0e                  |         .      |      [49]: 14 transition_type 0x249-0x24a (1)
0x240|                              05               |          .     |      [50]: 5 transition_type 0x24a-0x24b (1)
0x240|                                 0e            |           .    |      [51]: 14 transition_type 0x24b-0x24c (1)
0x240|                                    0d         |            .   |      [52]: 13 transition_type 0x24c-0x24d (1)
0x240|                                       0e      |             .  |      [53]: 14 transition_type 0x24d-0x24e (1)
0x240|                                          0d   |              . |      [54]: 13 transition_type 0x24e-0x24f (1)
0x240|                                             0e|               .|      [55]: 14 transition_type 0x24f-0x250 (1)
0x250|0d                                             |.               |      [56]: 13 transition_type 0x250-0x251 (1)
0x250|   0e                                          | .              |      [57]: 14 transition_type 0x251-0x252 (1)
0x250|      0d                                       |  .             |      [58]: 13 transition_type 0x252-0x253 (1)
0x250|         0e                                    |   .            |      [59]: 14 transition_type 0x253-0x254 (1)
0x250|            0d                                 |    .           |      [60]: 13 transition_type 0x254-0x255 (1)
0x250|               0e                              |     .          |      [61]: 14 transition_type 0x255-0x256 (1)
0x250|                  0d                           |      .         |      [62]: 13 transition_type 0x256-0x257 (1)
0x250|                     0e                        |       .        |      [63]: 14 transition_type 0x257-0x258 (1)
0x250|                        0d                     |        .       |      [64]: 13 transition_type 0x258-0x259 (1)
0x250|                           0e                  |         .      |      [65]: 14 transition_type 0x259-0x25a (1)
0x250|                              0d               |          .     |      [66]: 13 transition_type 0x25a-0x25b (1)
0x250|                                 0e            |           .    |      [67]: 14 transition_type 0x25b-0x25c (1)
0x250|                                    0d         |            .   |      [68]: 13 transition_type 0x25c-0x25d (1)
0x250|                                       0e      |             .  |      [69]: 14 transition_type 0x25d-0x25e (1)
0x250|                                          0d   |              . |      [70]: 13 transition_type 0x25e-0x25f (1)
0x250|                                             0e|               .|      [71]: 14 transition_type 0x25f-0x260 (1)
0x260|0d                                             |.               |      [72]: 13 transition_type 0x260-0x261 (1)
0x260|   0e                                          | .              |      [73]: 14 transition_type 0x261-0x262 (1)
0x260|      0d                                       |  .             |      [74]: 13 transition_type 0x262-0x263 (1)
0x260|         0e                                    |   .            |      [75]: 14 transition_type 0x263-0x264 (1)
0x260|            0d                                 |    .           |      [76]: 13 transition_type 0x264-0x265 (1)
0x260|               0e                              |     .          |      [77]: 14 transition_type 0x265-0x266 (1)
0x260|                  0d                           |      .         |      [78]: 13 transition_type 0x266-0x267 (1)
0x260|                     0e                        |       .        |      [79]: 14 transition_type 0x267-0x268 (1)
0x260|                        0d                     |        .       |      [80]: 13 transition_type 0x268-0x269 (1)
0x260|                           0e                  |         .      |      [81]: 14 transition_type 0x269-0x26a (1)
0x260|                              0d               |          .     |      [82]: 13 transition_type 0x26a-0x26b (1)
0x260|                                 0e            |           .    |      [83]: 14 transition_type 0x26b-0x26c (1)
0x260|                                    0d         |            .   |      [84]: 13 transition_type 0x26c-0x26d (1)
0x260|                                       0e      |             .  |      [85]: 14 transition_type 0x26d-0x26e (1)
0x260|                                          0d   |              . |      [86]: 13 transition_type 0x26e-0x26f (1)
0x260|                                             0e|               .|      [87]: 14 transition_type 0x26f-0x270 (1)
0x270|0d                                             |.               |      [88]: 13 transition_type 0x270-0x271 (1)
0x270|   0e                                          | .              |      [89]: 14 transition_type 0x271-0x272 (1)
0x270|      0d                                       |  .             |      [90]: 13 transition_type 0x272-0x273 (1)
0x270|         0e                                    |   .            |      [91]: 14 transition_type 0x273-0x274 (1)
0x270|            0d                                 |    .           |      [92]: 13 transition_type 0x274-0x275 (1)
0x270|               0e                              |     .          |      [93]: 14 transition_type 0x275-0x276 (1)
0x270|                  0d                           |      .         |      [94]: 13 transition_type 0x276-0x277 (1)
0x270|                     0e                        |       .        |      [95]: 14 transition_type 0x277-0x278 (1)
0x270|                        0d                     |        .       |      [96]: 13 transition_type 0x278-0x279 (1)
0x270|                           0e                  |         .      |      [97]: 14 transition_type 0x279-0x27a (1)
0x270|                              0d               |          .     |      [98]: 13 transition_type 0x27a-0x27b (1)
0x270|                                 0e            |           .    |      [99]: 14 transition_type 0x27b-0x27c (1)
0x270|                                    0d         |            .   |      [100]: 13 transition_type 0x27c-0x27d (1)
0x270|                                       0e      |             .  |      [101]: 14 transition_type 0x27d-0x27e (1)
0x270|                                          0d   |              . |      [102]: 13 transition_type 0x27e-0x27f (1)
0x270|                                             0e|               .|      [103]: 14 transition_type 0x27f-0x280 (1)
0x280|0d                                             |.               |      [104]: 13 transition_type 0x280-0x281 (1)
0x280|   0e                                          | .              |      [105]: 14 transition_type 0x281-0x282 (1)
0x280|      0d                                       |  .             |      [106]: 13 transition_type 0x282-0x283 (1)
0x280|         0e                                    |   .            |      [107]: 14 transition_type 0x283-0x284 (1)
0x280|            0d                                 |    .           |      [108]: 13 transition_type 0x284-0x285 (1)
0x280|               0e                              |     .          |      [109]: 14 transition_type 0x285-0x286 (1)
0x280|                  0d                           |      .         |      [110]: 13 transition_type 0x286-0x287 (1)
0x280|                     0e                        |       .        |      [111]: 14 transition_type 0x287-0x288 (1)
0x280|                        0d                     |        .       |      [112]: 13 transition_type 0x288-0x289 (1)
0x280|                           0e                  |         .      |      [113]: 14 transition_type 0x289-0x28a (1)
0x280|                              0d               |          .     |      [114]: 13 transition_type 0x28a-0x28b (1)
0x280|                                 0e            |           .    |      [115]: 14 transition_type 0x28b-0x28c (1)
0x280|                                    0d         |            .   |      [116]: 13 transition_type 0x28c-0x28d (1)
0x280|                                       0e      |             .  |      [117]: 14 transition_type 0x28d-0x28e (1)
0x280|                                          0d   |              . |      [118]: 13 transition_type 0x28e-0x28f (1)
0x280|                                             0e|               .|      [119]: 14 transition_type 0x28f-0x290 (1)
0x290|0d                                             |.               |      [120]: 13 transition_type 0x290-0x291 (1)
0x290|   0e                                          | .              |      [121]: 14 transition_type 0x291-0x292 (1)
0x290|      0d                                       |  .             |      [122]: 13 transition_type 0x292-0x293 (1)
     |                                               |                |    local_time_type_records[0:15]: 0x293-0x2ed (90)
     |                                               |                |      [0]{}: local_time_type 0x293-0x299 (6)
0x290|         00 00 17 34                           |   ...4         |        utoff: 5940 (valid) 0x293-0x297 (4)
0x290|                     00                        |       .        |        dst: 0 (valid) 0x297-0x298 (1)
0x290|                        00                     |        .       |        idx: 0 (valid) 0x298-0x299 (1)
     |                                               |                |      [1]{}: local_time_type 0x299-0x29f (6)
0x290|                           00 00 17 34         |         ...4   |        utoff: 5940 (valid) 0x299-0x29d (4)
0x290|                                       00      |             .  |        dst: 0 (valid) 0x29d-0x29e (1)
0x290|                                          04   |              . |        idx: 4 (valid) 0x29e-0x29f (1)
     |                                               |                |      [2]{}: local_time_type 0x29f-0x2a5 (6)
0x290|                                             00|               .|        utoff: 7200 (valid) 0x29f-0x2a3 (4)
0x2a0|00 1c 20                                       |..              |
0x2a0|         01                                    |   .            |        dst: 1 (valid) 0x2a3-0x2a4 (1)
0x2a0|            08                                 |    .           |        idx: 8 (valid) 0x2a4-0x2a5 (1)
     |                                               |                |      [3]{}: local_time_type 0x2a5-0x2ab (6)
0x2a0|               00 00 0e 10                     |     ....       |        utoff: 3600 (valid) 0x2a5-0x2a9 (4)
0x2a0|                           00                  |         .      |        dst: 0 (valid) 0x2a9-0x2aa (1)
0x2a0|                              0d               |          .     |        idx: 13 (valid) 0x2aa-0x2ab (1)
     |                                               |                |      [4]{}: local_time_type 0x2ab-0x2b1 (6)
0x2a0|                                 00 00 0e 10   |           .... |        utoff: 3600 (valid) 0x2ab-0x2af (4)
0x2a0|                                             00|               .|        dst: 0 (valid) 0x2af-0x2b0 (1)
0x2b0|0d                                             |.               |        idx: 13 (valid) 0x2b0-0x2b1 (1)
     |                                               |                |      [5]{}: local_time_type 0x2b1-0x2b7 (6)
0x2b0|   00 00 1c 20                                 | ...            |        utoff: 7200 (valid) 0x2b1-0x2b5 (4)
0x2b0|               00                              |     .          |        dst: 0 (valid) 0x2b5-0x2b6 (1)
0x2b0|                  11                           |      .         |        idx: 17 (valid) 0x2b6-0x2b7 (1)
     |                                               |                |      [6]{}: local_time_type 0x2b7-0x2bd (6)
0x2b0|                     00 00 2a 30               |       ..*0     |        utoff: 10800 (valid) 0x2b7-0x2bb (4)
0x2b0|                                 00            |           .    |        dst: 0 (valid) 0x2bb-0x2bc (1)
0x2b0|                                    15         |            .   |        idx: 21 (valid) 0x2bc-0x2bd (1)
     |                                               |                |      [7]{}: local_time_type 0x2bd-0x2c3 (6)
0x2b0|                                       00 00 1c|             ...|        utoff: 7200 (valid) 0x2bd-0x2c1 (4)
0x2c0|20                                             |                |
0x2c0|   01                                          | .              |        dst: 1 (valid) 0x2c1-0x2c2 (1)
0x2c0|      08                                       |  .             |        idx: 8 (valid) 0x2c2-0x2c3 (1)
     |                                               |                |      [8]{}: local_time_type 0x2c3-0x2c9 (6)
0x2c0|         00 00 38 40                           |   ..8@         |        utoff: 14400 (valid) 0x2c3-0x2c7 (4)
0x2c0|                     01                        |       .        |        dst: 1 (valid) 0x2c7-0x2c8 (1)
0x2c0|                        19                     |        .       |        idx: 25 (valid) 0x2c8-0x2c9 (1)
     |                                               |                |      [9]{}: local_time_type 0x2c9-0x2cf (6)
0x2c0|                           00 00 2a 30         |         ..*0   |        utoff: 10800 (valid) 0x2c9-0x2cd (4)
0x2c0|                                       00      |             .  |        dst: 0 (valid) 0x2cd-0x2ce (1)
0x2c0|                                          15   |              . |        idx: 21 (valid) 0x2ce-0x2cf (1)
     |                                               |                |      [10]{}: local_time_type 0x2cf-0x2d5 (6)
0x2c0|                                             00|               .|        utoff: 14400 (valid) 0x2cf-0x2d3 (4)
0x2d0|00 38 40                                       |.8@             |
0x2d0|         01                                    |   .            |        dst: 1 (valid) 0x2d3-0x2d4 (1)
0x2d0|            19                                 |    .           |        idx: 25 (valid) 0x2d4-0x2d5 (1)
     |                                               |                |      [11]{}: local_time_type 0x2d5-0x2db (6)
0x2d0|               00 00 2a 30                     |     ..*0       |        utoff: 10800 (valid) 0x2d5-0x2d9 (4)
0x2d0|                           01                  |         .      |        dst: 1 (valid) 0x2d9-0x2da (1)
0x2d0|                              1d               |          .     |        idx: 29 (valid) 0x2da-0x2db (1)
     |                                               |                |      [12]{}: local_time_type 0x2db-0x2e1 (6)
0x2d0|                                 00 00 1c 20   |           ...  |        utoff: 7200 (valid) 0x2db-0x2df (4)
0x2d0|                                             00|               .|        dst: 0 (valid) 0x2df-0x2e0 (1)
0x2e0|11                                             |.               |        idx: 17 (valid) 0x2e0-0x2e1 (1)
     |                                               |                |      [13]{}: local_time_type 0x2e1-0x2e7 (6)
0x2e0|   00 00 1c 20                                 | ...            |        utoff: 7200 (valid) 0x2e1-0x2e5 (4)
0x2e0|               00                              |     .          |        dst: 0 (valid) 0x2e5-0x2e6 (1)
0x2e0|                  11                           |      .         |        idx: 17 (valid) 0x2e6-0x2e7 (1)
     |                                               |                |      [14]{}: local_time_type 0x2e7-0x2ed (6)
0x2e0|                     00 00 2a 30               |       ..*0     |        utoff: 10800 (valid) 0x2e7-0x2eb (4)
0x2e0|                                 01            |           .    |        dst: 1 (valid) 0x2eb-0x2ec (1)
0x2e0|                                    1d         |            .   |        idx: 29 (valid) 0x2ec-0x2ed (1)
     |                                               |                |    time_zone_designations[0:8]: 0x2ed-0x30f (34)
0x2e0|                                       4c 4d 54|             LMT|      [0]: "LMT" time_zone_designation 0x2ed-0x2f1 (4)
0x2f0|00                                             |.               |
0x2f0|   54 4d 54 00                                 | TMT.           |      [1]: "TMT" time_zone_designation 0x2f1-0x2f5 (4)
0x2f0|               43 45 53 54 00                  |     CEST.      |      [2]: "CEST" time_zone_designation 0x2f5-0x2fa (5)
0x2f0|                              43 45 54 00      |          CET.  |      [3]: "CET" time_zone_designation 0x2fa-0x2fe (4)
0x2f0|                                          45 45|              EE|      [4]: "EET" time_zone_designation 0x2fe-0x302 (4)
0x300|54 00                                          |T.              |
0x300|      4d 53 4b 00                              |  MSK.          |      [5]: "MSK" time_zone_designation 0x302-0x306 (4)
0x300|                  4d 53 44 00                  |      MSD.      |      [6]: "MSD" time_zone_designation 0x306-0x30a (4)
0x300|                              45 45 53 54 00   |          EEST. |      [7]: "EEST" time_zone_designation 0x30a-0x30f (5)
     |                                               |                |    leap_second_records[0:0]: 0x30f-0x30f (0)
     |                                               |                |    standard_wall_indicators[0:15]: 0x30f-0x31e (15)
0x300|                                             00|               .|      [0]: 0 standard_wall_indicator (valid) 0x30f-0x310 (1)
0x310|00                                             |.               |      [1]: 0 standard_wall_indicator (valid) 0x310-0x311 (1)
0x310|   01                                          | .              |      [2]: 1 standard_wall_indicator (valid) 0x311-0x312 (1)
0x310|      01                                       |  .             |      [3]: 1 standard_wall_indicator (valid) 0x312-0x313 (1)
0x310|         00                                    |   .            |      [4]: 0 standard_wall_indicator (valid) 0x313-0x314 (1)
0x310|            00                                 |    .           |      [5]: 0 standard_wall_indicator (valid) 0x314-0x315 (1)
0x310|               00                              |     .          |      [6]: 0 standard_wall_indicator (valid) 0x315-0x316 (1)
0x310|                  00                           |      .         |      [7]: 0 standard_wall_indicator (valid) 0x316-0x317 (1)
0x310|                     00                        |       .        |      [8]: 0 standard_wall_indicator (valid) 0x317-0x318 (1)
0x310|                        01                     |        .       |      [9]: 1 standard_wall_indicator (valid) 0x318-0x319 (1)
0x310|                           01                  |         .      |      [10]: 1 standard_wall_indicator (valid) 0x319-0x31a (1)
0x310|                              01               |          .     |      [11]: 1 standard_wall_indicator (valid) 0x31a-0x31b (1)
0x310|                                 01            |           .    |      [12]: 1 standard_wall_indicator (valid) 0x31b-0x31c (1)
0x310|                                    01         |            .   |      [13]: 1 standard_wall_indicator (valid) 0x31c-0x31d (1)
0x310|                                       01      |             .  |      [14]: 1 standard_wall_indicator (valid) 0x31d-0x31e (1)
     |                                               |                |    ut_local_indicators[0:15]: 0x31e-0x32d (15)
0x310|                                          00   |              . |      [0]: 0 ut_local_indicator (valid) 0x31e-0x31f (1)
0x310|                                             00|               .|      [1]: 0 ut_local_indicator (valid) 0x31f-0x320 (1)
0x320|00                                             |.               |      [2]: 0 ut_local_indicator (valid) 0x320-0x321 (1)
0x320|   00                                          | .              |      [3]: 0 ut_local_indicator (valid) 0x321-0x322 (1)
0x320|      00                                       |  .             |      [4]: 0 ut_local_indicator (valid) 0x322-0x323 (1)
0x320|         00                                    |   .            |      [5]: 0 ut_local_indicator (valid) 0x323-0x324 (1)
0x320|            00                                 |    .           |      [6]: 0 ut_local_indicator (valid) 0x324-0x325 (1)
0x320|               00                              |     .          |      [7]: 0 ut_local_indicator (valid) 0x325-0x326 (1)
0x320|                  00                           |      .         |      [8]: 0 ut_local_indicator (valid) 0x326-0x327 (1)
0x320|                     00                        |       .        |      [9]: 0 ut_local_indicator (valid) 0x327-0x328 (1)
0x320|                        00                     |        .       |      [10]: 0 ut_local_indicator (valid) 0x328-0x329 (1)
0x320|                           00                  |         .      |      [11]: 0 ut_local_indicator (valid) 0x329-0x32a (1)
0x320|                              00               |          .     |      [12]: 0 ut_local_indicator (valid) 0x32a-0x32b (1)
0x320|                                 01            |           .    |      [13]: 1 ut_local_indicator (valid) 0x32b-0x32c (1)
0x320|                                    01         |            .   |      [14]: 1 ut_local_indicator (valid) 0x32c-0x32d (1)
     |                                               |                |  v2plusheader{}: 0x32d-0x359 (44)
0x320|                                       54 5a 69|             TZi|    magic: 0x545a6966 (valid) 0x32d-0x331 (4)
0x330|66                                             |f               |
0x330|   32                                          | 2              |    ver: "2" (0x32) (valid) 0x331-0x332 (1)
0x330|      00 00 00 00 00 00 00 00 00 00 00 00 00 00|  ..............|    reserved: raw bits 0x332-0x341 (15)
0x340|00                                             |.               |
0x340|   00 00 00 0f                                 | ....           |    isutcnt: 15 0x341-0x345 (4)
0x340|               00 00 00 0f                     |     ....       |    isstdcnt: 15 0x345-0x349 (4)
0x340|                           00 00 00 00         |         ....   |    leapcnt: 0 0x349-0x34d (4)
0x340|                                       00 00 00|             ...|    timecnt: 123 0x34d-0x351 (4)
0x350|7b                                             |{               |
0x350|   00 00 00 0f                                 | ....           |    typecnt: 15 0x351-0x355 (4)
0x350|               00 00 00 22                     |     ..."       |    charcnt: 34 0x355-0x359 (4)
     |                                               |                |  v2plusdatablock{}: 0x359-0x846 (1261)
     |                                               |                |    transition_times[0:123]: 0x359-0x731 (984)
0x350|                           ff ff ff ff 56 b6 cc|         ....V..|      [0]: "1879-12-31T22:21:00Z" (-2840146740) transition_time 0x359-0x361 (8)
0x360|cc                                             |.               |
0x360|   ff ff ff ff 9e 59 2d cc                     | .....Y-.       |      [1]: "1918-01-31T22:21:00Z" (-1638322740) transition_time 0x361-0x369 (8)
0x360|                           ff ff ff ff 9e b9 90|         .......|      [2]: "1918-04-15T01:00:00Z" (-1632006000) transition_time 0x369-0x371 (8)
0x370|90                                             |.               |
0x370|   ff ff ff ff 9f 84 97 90                     | ........       |      [3]: "1918-09-16T01:00:00Z" (-1618700400) transition_time 0x371-0x379 (8)
0x370|                           ff ff ff ff a1 00 2b|         ......+|      [4]: "1919-06-30T23:00:00Z" (-1593824400) transition_time 0x379-0x381 (8)
0x380|70                                             |p               |
0x380|   ff ff ff ff a4 73 6f 4c                     | .....soL       |      [5]: "1921-04-30T22:21:00Z" (-1535938740) transition_time 0x381-0x389 (8)
0x380|                           ff ff ff ff c8 b0 b5|         .......|      [6]: "1940-08-05T22:00:00Z" (-927943200) transition_time 0x389-0x391 (8)
0x390|e0                                             |.               |
0x390|   ff ff ff ff ca c6 97 50                     | .......P       |      [7]: "1941-09-14T21:00:00Z" (-892954800) transition_time 0x391-0x399 (8)
0x390|                           ff ff ff ff cc e7 4b|         ......K|      [8]: "1942-11-02T01:00:00Z" (-857257200) transition_time 0x399-0x3a1 (8)
0x3a0|10                                             |.               |
0x3a0|   ff ff ff ff cd a9 17 90                     | ........       |      [9]: "1943-03-29T01:00:00Z" (-844556400) transition_time 0x3a1-0x3a9 (8)
0x3a0|                           ff ff ff ff ce a2 43|         ......C|      [10]: "1943-10-04T01:00:00Z" (-828226800) transition_time 0x3a9-0x3b1 (8)
0x3b0|10                                             |.               |
0x3b0|   ff ff ff ff cf 92 34 10                     | ......4.       |      [11]: "1944-04-03T01:00:00Z" (-812502000) transition_time 0x3b1-0x3b9 (8)
0x3b0|                           ff ff ff ff d0 74 cb|         .....t.|      [12]: "1944-09-21T22:00:00Z" (-797652000) transition_time 0x3b9-0x3c1 (8)
0x3c0|e0                                             |.               |
0x3c0|   00 00 00 00 15 27 a7 d0                     | .....'..       |      [13]: "1981-03-31T21:00:00Z" (354920400) transition_time 0x3c1-0x3c9 (8)
0x3c0|                           00 00 00 00 16 18 dc|         .......|      [14]: "1981-09-30T20:00:00Z" (370728000) transition_time 0x3c9-0x3d1 (8)
0x3d0|40                                             |@               |
0x3d0|   00 00 00 00 17 08 db 50                     | .......P       |      [15]: "1982-03-31T21:00:00Z" (386456400) transition_time 0x3d1-0x3d9 (8)
0x3d0|                           00 00 00 00 17 fa 0f|         .......|      [16]: "1982-09-30T20:00:00Z" (402264000) transition_time 0x3d9-0x3e1 (8)
0x3e0|c0                                             |.               |
0x3e0|   00 00 00 00 18 ea 0e d0                     | ........       |      [17]: "1983-03-31T21:00:00Z" (417992400) transition_time 0x3e1-0x3e9 (8)
0x3e0|                           00 00 00 00 19 db 43|         ......C|      [18]: "1983-09-30T20:00:00Z" (433800000) transition_time 0x3e9-0x3f1 (8)
0x3f0|40                                             |@               |
0x3f0|   00 00 00 00 1a cc 93 d0                     | ........       |      [19]: "1984-03-31T21:00:00Z" (449614800) transition_time 0x3f1-0x3f9 (8)
0x3f0|                           00 00 00 00 1b bc a0|         .......|      [20]: "1984-09-29T23:00:00Z" (465346800) transition_time 0x3f9-0x401 (8)
0x400|f0                                             |.               |
0x400|   00 00 00 00 1c ac 91 f0                     | ........       |      [21]: "1985-03-30T23:00:00Z" (481071600) transition_time 0x401-0x409 (8)
0x400|                           00 00 00 00 1d 9c 82|         .......|      [22]: "1985-09-28T23:00:00Z" (496796400) transition_time 0x409-0x411 (8)
0x410|f0                                             |.               |
0x410|   00 00 00 00 1e 8c 73 f0                     | ......s.       |      [23]: "1986-03-29T23:00:00Z" (512521200) transition_time 0x411-0x419 (8)
0x410|                           00 00 00 00 1f 7c 64|         .....|d|      [24]: "1986-09-27T23:00:00Z" (528246000) transition_time 0x419-0x421 (8)
0x420|f0                                             |.               |
0x420|   00 00 00 00 20 6c 55 f0                     | .... lU.       |      [25]: "1987-03-28T23:00:00Z" (543970800) transition_time 0x421-0x429 (8)
0x420|                           00 00 00 00 21 5c 46|         ....!\F|      [26]: "1987-09-26T23:00:00Z" (559695600) transition_time 0x429-0x431 (8)
0x430|f0                                             |.               |
0x430|   00 00 00 00 22 4c 37 f0                     | ...."L7.       |      [27]: "1988-03-26T23:00:00Z" (575420400) transition_time 0x431-0x439 (8)
0x430|                           00 00 00 00 23 3c 28|         ....#<(|      [28]: "1988-09-24T23:00:00Z" (591145200) transition_time 0x439-0x441 (8)
0x440|f0                                             |.               |
0x440|   00 00 00 00 24 2c 19 f0                     | ....$,..       |      [29]: "1989-03-25T23:00:00Z" (606870000) transition_time 0x441-0x449 (8)
0x440|                           00 00 00 00 25 1c 19|         ....%..|      [30]: "1989-09-24T00:00:00Z" (622598400) transition_time 0x449-0x451 (8)
0x450|00                                             |.               |
0x450|   00 00 00 00 26 0c 0a 00                     | ....&...       |      [31]: "1990-03-25T00:00:00Z" (638323200) transition_time 0x451-0x459 (8)
0x450|                           00 00 00 00 27 05 35|         ....'.5|      [32]: "1990-09-30T00:00:00Z" (654652800) transition_time 0x459-0x461 (8)
0x460|80                                             |.               |
0x460|   00 00 00 00 27 f5 26 80                     | ....'.&.       |      [33]: "1991-03-31T00:00:00Z" (670377600) transition_time 0x461-0x469 (8)
0x460|                           00 00 00 00 28 e5 17|         ....(..|      [34]: "1991-09-29T00:00:00Z" (686102400) transition_time 0x469-0x471 (8)
0x470|80                                             |.               |
0x470|   00 00 00 00 29 d5 08 80                     | ....)...       |      [35]: "1992-03-29T00:00:00Z" (701827200) transition_time 0x471-0x479 (8)
0x470|                           00 00 00 00 2a c4 f9|         ....*..|      [36]: "1992-09-27T00:00:00Z" (717552000) transition_time 0x479-0x481 (8)
0x480|80                                             |.               |
0x480|   00 00 00 00 2b b4 ea 80                     | ....+...       |      [37]: "1993-03-28T00:00:00Z" (733276800) transition_time 0x481-0x489 (8)
0x480|                           00 00 00 00 2c a4 db|         ....,..|      [38]: "1993-09-26T00:00:00Z" (749001600) transition_time 0x489-0x491 (8)
0x490|80                                             |.               |
0x490|   00 00 00 00 2d 94 cc 80                     | ....-...       |      [39]: "1994-03-27T00:00:00Z" (764726400) transition_time 0x491-0x499 (8)
0x490|                           00 00 00 00 2e 84 bd|         .......|      [40]: "1994-09-25T00:00:00Z" (780451200) transition_time 0x499-0x4a1 (8)
0x4a0|80                                             |.               |
0x4a0|   00 00 00 00 2f 74 ae 80                     | ..../t..       |      [41]: "1995-03-26T00:00:00Z" (796176000) transition_time 0x4a1-0x4a9 (8)
0x4a0|                           00 00 00 00 30 64 9f|         ....0d.|      [42]: "1995-09-24T00:00:00Z" (811900800) transition_time 0x4a9-0x4b1 (8)
0x4b0|80                                             |.               |
0x4b0|   00 00 00 00 31 5d cb 00                     | ....1]..       |      [43]: "1996-03-31T00:00:00Z" (828230400) transition_time 0x4b1-0x4b9 (8)
0x4b0|                           00 00 00 00 32 72 a6|         ....2r.|      [44]: "1996-10-27T00:00:00Z" (846374400) transition_time 0x4b9-0x4c1 (8)
0x4c0|00                                             |.               |
0x4c0|   00 00 00 00 33 3d ad 00                     | ....3=..       |      [45]: "1997-03-30T00:00:00Z" (859680000) transition_time 0x4c1-0x4c9 (8)
0x4c0|                           00 00 00 00 34 52 88|         ....4R.|      [46]: "1997-10-26T00:00:00Z" (877824000) transition_time 0x4c9-0x4d1 (8)
0x4d0|00                                             |.               |
0x4d0|   00 00 00 00 35 1d 8f 00                     | ....5...       |      [47]: "1998-03-29T00:00:00Z" (891129600) transition_time 0x4d1-0x4d9 (8)
0x4d0|                           00 00 00 00 36 32 78|         ....62x|      [48]: "1998-10-25T01:00:00Z" (909277200) transition_time 0x4d9-0x4e1 (8)
0x4e0|10                                             |.               |
0x4e0|   00 00 00 00 36 fd 7f 10                     | ....6...       |      [49]: "1999-03-28T01:00:00Z" (922582800) transition_time 0x4e1-0x4e9 (8)
0x4e0|                           00 00 00 00 38 1b 94|         ....8..|      [50]: "1999-10-31T01:00:00Z" (941331600) transition_time 0x4e9-0x4f1 (8)
0x4f0|90                                             |.               |
0x4f0|   00 00 00 00 3c a6 5f 90                     | ....<._.       |      [51]: "2002-03-31T01:00:00Z" (1017536400) transition_time 0x4f1-0x4f9 (8)
0x4f0|                           00 00 00 00 3d bb 3a|         ....=.:|      [52]: "2002-10-27T01:00:00Z" (1035680400) transition_time 0x4f9-0x501 (8)
0x500|90                                             |.               |
0x500|   00 00 00 00 3e 86 41 90                     | ....>.A.       |      [53]: "2003-03-30T01:00:00Z" (1048986000) transition_time 0x501-0x509 (8)
0x500|                           00 00 00 00 3f 9b 1c|         ....?..|      [54]: "2003-10-26T01:00:00Z" (1067130000) transition_time 0x509-0x511 (8)
0x510|90                                             |.               |
0x510|   00 00 00 00 40 66 23 90                     | ....@f#.       |      [55]: "2004-03-28T01:00:00Z" (1080435600) transition_time 0x511-0x519 (8)
0x510|                           00 00 00 00 41 84 39|         ....A.9|      [56]: "2004-10-31T01:00:00Z" (1099184400) transition_time 0x519-0x521 (8)
0x520|10                                             |.               |
0x520|   00 00 00 00 42 46 05 90                     | ....BF..       |      [57]: "2005-03-27T01:00:00Z" (1111885200) transition_time 0x521-0x529 (8)
0x520|                           00 00 00 00 43 64 1b|         ....Cd.|      [58]: "2005-10-30T01:00:00Z" (1130634000) transition_time 0x529-0x531 (8)
0x530|10                                             |.               |
0x530|   00 00 00 00 44 25 e7 90                     | ....D%..       |      [59]: "2006-03-26T01:00:00Z" (1143334800) transition_time 0x531-0x539 (8)
0x530|                           00 00 00 00 45 43 fd|         ....EC.|      [60]: "2006-10-29T01:00:00Z" (1162083600) transition_time 0x539-0x541 (8)
0x540|10                                             |.               |
0x540|   00 00 00 00 46 05 c9 90                     | ....F...       |      [61]: "2007-03-25T01:00:00Z" (1174784400) transition_time 0x541-0x549 (8)
0x540|                           00 00 00 00 47 23 df|         ....G#.|      [62]: "2007-10-28T01:00:00Z" (1193533200) transition_time 0x549-0x551 (8)
0x550|10                                             |.               |
0x550|   00 00 00 00 47 ee e6 10                     | ....G...       |      [63]: "2008-03-30T01:00:00Z" (1206838800) transition_time 0x551-0x559 (8)
0x550|                           00 00 00 00 49 03 c1|         ....I..|      [64]: "2008-10-26T01:00:00Z" (1224982800) transition_time 0x559-0x561 (8)
0x560|10                                             |.               |
0x560|   00 00 00 00 49 ce c8 10                     | ....I...       |      [65]: "2009-03-29T01:00:00Z" (1238288400) transition_time 0x561-0x569 (8)
0x560|                           00 00 00 00 4a e3 a3|         ....J..|      [66]: "2009-10-25T01:00:00Z" (1256432400) transition_time 0x569-0x571 (8)
0x570|10                                             |.               |
0x570|   00 00 00 00 4b ae aa 10                     | ....K...       |      [67]: "2010-03-28T01:00:00Z" (1269738000) transition_time 0x571-0x579 (8)
0x570|                           00 00 00 00 4c cc bf|         ....L..|      [68]: "2010-10-31T01:00:00Z" (1288486800) transition_time 0x579-0x581 (8)
0x580|90                                             |.               |
0x580|   00 00 00 00 4d 8e 8c 10                     | ....M...       |      [69]: "2011-03-27T01:00:00Z" (1301187600) transition_time 0x581-0x589 (8)
0x580|                           00 00 00 00 4e ac a1|         ....N..|      [70]: "2011-10-30T01:00:00Z" (1319936400) transition_time 0x589-0x591 (8)
0x590|90                                             |.               |
0x590|   00 00 00 00 4f 6e 6e 10                     | ....Onn.       |      [71]: "2012-03-25T01:00:00Z" (1332637200) transition_time 0x591-0x599 (8)
0x590|                           00 00 00 00 50 8c 83|         ....P..|      [72]: "2012-10-28T01:00:00Z" (1351386000) transition_time 0x599-0x5a1 (8)
0x5a0|90                                             |.               |
0x5a0|   00 00 00 00 51 57 8a 90                     | ....QW..       |      [73]: "2013-03-31T01:00:00Z" (1364691600) transition_time 0x5a1-0x5a9 (8)
0x5a0|                           00 00 00 00 52 6c 65|         ....Rle|      [74]: "2013-10-27T01:00:00Z" (1382835600) transition_time 0x5a9-0x5b1 (8)
0x5b0|90                                             |.               |
0x5b0|   00 00 00 00 53 37 6c 90                     | ....S7l.       |      [75]: "2014-03-30T01:00:00Z" (1396141200) transition_time 0x5b1-0x5b9 (8)
0x5b0|                           00 00 00 00 54 4c 47|         ....TLG|      [76]: "2014-10-26T01:00:00Z" (1414285200) transition_time 0x5b9-0x5c1 (8)
0x5c0|90                                             |.               |
0x5c0|   00 00 00 00 55 17 4e 90                     | ....U.N.       |      [77]: "2015-03-29T01:00:00Z" (1427590800) transition_time 0x5c1-0x5c9 (8)
0x5c0|                           00 00 00 00 56 2c 29|         ....V,)|      [78]: "2015-10-25T01:00:00Z" (1445734800) transition_time 0x5c9-0x5d1 (8)
0x5d0|90                                             |.               |
0x5d0|   00 00 00 00 56 f7 30 90                     | ....V.0.       |      [79]: "2016-03-27T01:00:00Z" (1459040400) transition_time 0x5d1-0x5d9 (8)
0x5d0|                           00 00 00 00 58 15 46|         ....X.F|      [80]: "2016-10-30T01:00:00Z" (1477789200) transition_time 0x5d9-0x5e1 (8)
0x5e0|10                                             |.               |
0x5e0|   00 00 00 00 58 d7 12 90                     | ....X...       |      [81]: "2017-03-26T01:00:00Z" (1490490000) transition_time 0x5e1-0x5e9 (8)
0x5e0|                           00 00 00 00 59 f5 28|         ....Y.(|      [82]: "2017-10-29T01:00:00Z" (1509238800) transition_time 0x5e9-0x5f1 (8)
0x5f0|10                                             |.               |
0x5f0|   00 00 00 00 5a b6 f4 90                     | ....Z...       |      [83]: "2018-03-25T01:00:00Z" (1521939600) transition_time 0x5f1-0x5f9 (8)
0x5f0|                           00 00 00 00 5b d5 0a|         ....[..|      [84]: "2018-10-28T01:00:00Z" (1540688400) transition_time 0x5f9-0x601 (8)
0x600|10                                             |.               |
0x600|   00 00 00 00 5c a0 11 10                     | ....\...       |      [85]: "2019-03-31T01:00:00Z" (1553994000) transition_time 0x601-0x609 (8)
0x600|                           00 00 00 00 5d b4 ec|         ....]..|      [86]: "2019-10-27T01:00:00Z" (1572138000) transition_time 0x609-0x611 (8)
0x610|10                                             |.               |
0x610|   00 00 00 00 5e 7f f3 10                     | ....^...       |      [87]: "2020-03-29T01:00:00Z" (1585443600) transition_time 0x611-0x619 (8)
0x610|                           00 00 00 00 5f 94 ce|         ...._..|      [88]: "2020-10-25T01:00:00Z" (1603587600) transition_time 0x619-0x621 (8)
0x620|10                                             |.               |
0x620|   00 00 00 00 60 5f d5 10                     | ....`_..       |      [89]: "2021-03-28T01:00:00Z" (1616893200) transition_time 0x621-0x629 (8)
0x620|                           00 00 00 00 61 7d ea|         ....a}.|      [90]: "2021-10-31T01:00:00Z" (1635642000) transition_time 0x629-0x631 (8)
0x630|90                                             |.               |
0x630|   00 00 00 00 62 3f b7 10                     | ....b?..       |      [91]: "2022-03-27T01:00:00Z" (1648342800) transition_time 0x631-0x639 (8)
0x630|                           00 00 00 00 63 5d cc|         ....c].|      [92]: "2022-10-30T01:00:00Z" (1667091600) transition_time 0x639-0x641 (8)
0x640|90                                             |.               |
0x640|   00 00 00 00 64 1f 99 10                     | ....d...       |      [93]: "2023-03-26T01:00:00Z" (1679792400) transition_time 0x641-0x649 (8)
0x640|                           00 00 00 00 65 3d ae|         ....e=.|      [94]: "2023-10-29T01:00:00Z" (1698541200) transition_time 0x649-0x651 (8)
0x650|90                                             |.               |
0x650|   00 00 00 00 66 08 b5 90                     | ....f...       |      [95]: "2024-03-31T01:00:00Z" (1711846800) transition_time 0x651-0x659 (8)
0x650|                           00 00 00 00 67 1d 90|         ....g..|      [96]: "2024-10-27T01:00:00Z" (1729990800) transition_time 0x659-0x661 (8)
0x660|90                                             |.               |
0x660|   00 00 00 00 67 e8 97 90                     | ....g...       |      [97]: "2025-03-30T01:00:00Z" (1743296400) transition_time 0x661-0x669 (8)
0x660|                           00 00 00 00 68 fd 72|         ....h.r|      [98]: "2025-10-26T01:00:00Z" (1761440400) transition_time 0x669-0x671 (8)
0x670|90                                             |.               |
0x670|   00 00 00 00 69 c8 79 90                     | ....i.y.       |      [99]: "2026-03-29T01:00:00Z" (1774746000) transition_time 0x671-0x679 (8)
0x670|                           00 00 00 00 6a dd 54|         ....j.T|      [100]: "2026-10-25T01:00:00Z" (1792890000) transition_time 0x679-0x681 (8)
0x680|90                                             |.               |
0x680|   00 00 00 00 6b a8 5b 90                     | ....k.[.       |      [101]: "2027-03-28T01:00:00Z" (1806195600) transition_time 0x681-0x689 (8)
0x680|                           00 00 00 00 6c c6 71|         ....l.q|      [102]: "2027-10-31T01:00:00Z" (1824944400) transition_time 0x689-0x691 (8)
0x690|10                                             |.               |
0x690|   00 00 00 00 6d 88 3d 90                     | ....m.=.       |      [103]: "2028-03-26T01:00:00Z" (1837645200) transition_time 0x691-0x699 (8)
0x690|                           00 00 00 00 6e a6 53|         ....n.S|      [104]: "2028-10-29T01:00:00Z" (1856394000) transition_time 0x699-0x6a1 (8)
0x6a0|10                                             |.               |
0x6a0|   00 00 00 00 6f 68 1f 90                     | ....oh..       |      [105]: "2029-03-25T01:00:00Z" (1869094800) transition_time 0x6a1-0x6a9 (8)
0x6a0|                           00 00 00 00 70 86 35|         ....p.5|      [106]: "2029-10-28T01:00:00Z" (1887843600) transition_time 0x6a9-0x6b1 (8)
0x6b0|10                                             |.               |
0x6b0|   00 00 00 00 71 51 3c 10                     | ....qQ<.       |      [107]: "2030-03-31T01:00:00Z" (1901149200) transition_time 0x6b1-0x6b9 (8)
0x6b0|                           00 00 00 00 72 66 17|         ....rf.|      [108]: "2030-10-27T01:00:00Z" (1919293200) transition_time 0x6b9-0x6c1 (8)
0x6c0|10                                             |.               |
0x6c0|   00 00 00 00 73 31 1e 10                     | ....s1..       |      [109]: "2031-03-30T01:00:00Z" (1932598800) transition_time 0x6c1-0x6c9 (8)
0x6c0|                           00 00 00 00 74 45 f9|         ....tE.|      [110]: "2031-10-26T01:00:00Z" (1950742800) transition_time 0x6c9-0x6d1 (8)
0x6d0|10                                             |.               |
0x6d0|   00 00 00 00 75 11 00 10                     | ....u...       |      [111]: "2032-03-28T01:00:00Z" (1964048400) transition_time 0x6d1-0x6d9 (8)
0x6d0|                           00 00 00 00 76 2f 15|         ....v/.|      [112]: "2032-10-31T01:00:00Z" (1982797200) transition_time 0x6d9-0x6e1 (8)
0x6e0|90                                             |.               |
0x6e0|   00 00 00 00 76 f0 e2 10                     | ....v...       |      [113]: "2033-03-27T01:00:00Z" (1995498000) transition_time 0x6e1-0x6e9 (8)
0x6e0|                           00 00 00 00 78 0e f7|         ....x..|      [114]: "2033-10-30T01:00:00Z" (2014246800) transition_time 0x6e9-0x6f1 (8)
0x6f0|90                                             |.               |
0x6f0|   00 00 00 00 78 d0 c4 10                     | ....x...       |      [115]: "2034-03-26T01:00:00Z" (2026947600) transition_time 0x6f1-0x6f9 (8)
0x6f0|                           00 00 00 00 79 ee d9|         ....y..|      [116]: "2034-10-29T01:00:00Z" (2045696400) transition_time 0x6f9-0x701 (8)
0x700|90                                             |.               |
0x700|   00 00 00 00 7a b0 a6 10                     | ....z...       |      [117]: "2035-03-25T01:00:00Z" (2058397200) transition_time 0x701-0x709 (8)
0x700|                           00 00 00 00 7b ce bb|         ....{..|      [118]: "2035-10-28T01:00:00Z" (2077146000) transition_time 0x709-0x711 (8)
0x710|90                                             |.               |
0x710|   00 00 00 00 7c 99 c2 90                     | ....|...       |      [119]: "2036-03-30T01:00:00Z" (2090451600) transition_time 0x711-0x719 (8)
0x710|                           00 00 00 00 7d ae 9d|         ....}..|      [120]: "2036-10-26T01:00:00Z" (2108595600) transition_time 0x719-0x721 (8)
0x720|90                                             |.               |
0x720|   00 00 00 00 7e 79 a4 90                     | ....~y..       |      [121]: "2037-03-29T01:00:00Z" (2121901200) transition_time 0x721-0x729 (8)
0x720|                           00 00 00 00 7f 8e 7f|         .......|      [122]: "2037-10-25T01:00:00Z" (2140045200) transition_time 0x729-0x731 (8)
0x730|90                                             |.               |
     |                                               |                |    transition_types[0:123]: 0x731-0x7ac (123)
0x730|   01                                          | .              |      [0]: 1 transition_type 0x731-0x732 (1)
0x730|      04                                       |  .             |      [1]: 4 transition_type 0x732-0x733 (1)
0x730|         02                                    |   .            |      [2]: 2 transition_type 0x733-0x734 (1)
0x730|            03                                 |    .           |      [3]: 3 transition_type 0x734-0x735 (1)
0x730|               01                              |     .          |      [4]: 1 transition_type 0x735-0x736 (1)
0x730|                  05                           |      .         |      [5]: 5 transition_type 0x736-0x737 (1)
0x730|                     06                        |       .        |      [6]: 6 transition_type 0x737-0x738 (1)
0x730|                        07                     |        .       |      [7]: 7 transition_type 0x738-0x739 (1)
0x730|                           03                  |         .      |      [8]: 3 transition_type 0x739-0x73a (1)
0x730|                              02               |          .     |      [9]: 2 transition_type 0x73a-0x73b (1)
0x730|                                 03            |           .    |      [10]: 3 transition_type 0x73b-0x73c (1)
0x730|                                    02         |            .   |      [11]: 2 transition_type 0x73c-0x73d (1)
0x730|                                       06      |             .  |      [12]: 6 transition_type 0x73d-0x73e (1)
0x730|                                          08   |              . |      [13]: 8 transition_type 0x73e-0x73f (1)
0x730|                                             06|               .|      [14]: 6 transition_type 0x73f-0x740 (1)
0x740|08                                             |.               |      [15]: 8 transition_type 0x740-0x741 (1)
0x740|   06                                          | .              |      [16]: 6 transition_type 0x741-0x742 (1)
0x740|      08                                       |  .             |      [17]: 8 transition_type 0x742-0x743 (1)
0x740|         06                                    |   .            |      [18]: 6 transition_type 0x743-0x744 (1)
0x740|            08                                 |    .           |      [19]: 8 transition_type 0x744-0x745 (1)
0x740|               09                              |     .          |      [20]: 9 transition_type 0x745-0x746 (1)
0x740|                  0a                           |      .         |      [21]: 10 transition_type 0x746-0x747 (1)
0x740|                     09                        |       .        |      [22]: 9 transition_type 0x747-0x748 (1)
0x740|                        0a                     |        .       |      [23]: 10 transition_type 0x748-0x749 (1)
0x740|                           09                  |         .      |      [24]: 9 transition_type 0x749-0x74a (1)
0x740|                              0a               |          .     |      [25]: 10 transition_type 0x74a-0x74b (1)
0x740|                                 09            |           .    |      [26]: 9 transition_type 0x74b-0x74c (1)
0x740|                                    0a         |            .   |      [27]: 10 transition_type 0x74c-0x74d (1)
0x740|                                       09      |             .  |      [28]: 9 transition_type 0x74d-0x74e (1)
0x740|                                          0b   |              . |      [29]: 11 transition_type 0x74e-0x74f (1)
0x740|                                             0c|               .|      [30]: 12 transition_type 0x74f-0x750 (1)
0x750|0b                                             |.               |      [31]: 11 transition_type 0x750-0x751 (1)
0x750|   0c                                          | .              |      [32]: 12 transition_type 0x751-0x752 (1)
0x750|      0b                                       |  .             |      [33]: 11 transition_type 0x752-0x753 (1)
0x750|         0c                                    |   .            |      [34]: 12 transition_type 0x753-0x754 (1)
0x750|            0b                                 |    .           |      [35]: 11 transition_type 0x754-0x755 (1)
0x750|               0c                              |     .          |      [36]: 12 transition_type 0x755-0x756 (1)
0x750|                  0b                           |      .         |      [37]: 11 transition_type 0x756-0x757 (1)
0x750|                     0c                        |       .        |      [38]: 12 transition_type 0x757-0x758 (1)
0x750|                        0b                     |        .       |      [39]: 11 transition_type 0x758-0x759 (1)
0x750|                           0c                  |         .      |      [40]: 12 transition_type 0x759-0x75a (1)
0x750|                              0b               |          .     |      [41]: 11 transition_type 0x75a-0x75b (1)
0x750|                                 0c            |           .    |      [42]: 12 transition_type 0x75b-0x75c (1)
0x750|                                    0b         |            .   |      [43]: 11 transition_type 0x75c-0x75d (1)
0x750|                                       0c      |             .  |      [44]: 12 transition_type 0x75d-0x75e (1)
0x750|                                          0b   |              . |      [45]: 11 transition_type 0x75e-0x75f (1)
0x750|                                             0c|               .|      [46]: 12 transition_type 0x75f-0x760 (1)
0x760|0b                                             |.               |      [47]: 11 transition_type 0x760-0x761 (1)
0x760|   0d                                          | .              |      [48]: 13 transition_type 0x761-0x762 (1)
0x760|      0e                                       |  .             |      [49]: 14 transition_type 0x762-0x763 (1)
0x760|         05                                    |   .            |      [50]: 5 transition_type 0x763-0x764 (1)
0x760|            0e                                 |    .           |      [51]: 14 transition_type 0x764-0x765 (1)
0x760|               0d                              |     .          |      [52]: 13 transition_type 0x765-0x766 (1)
0x760|                  0e                           |      .         |      [53]: 14 transition_type 0x766-0x767 (1)
0x760|                     0d                        |       .        |      [54]: 13 transition_type 0x767-0x768 (1)
0x760|                        0e                     |        .       |      [55]: 14 transition_type 0x768-0x769 (1)
0x760|                           0d                  |         .      |      [56]: 13 transition_type 0x769-0x76a (1)
0x760|                              0e               |          .     |      [57]: 14 transition_type 0x76a-0x76b (1)
0x760|                                 0d            |           .    |      [58]: 13 transition_type 0x76b-0x76c (1)
0x760|                                    0e         |            .   |      [59]: 14 transition_type 0x76c-0x76d (1)
0x760|                                       0d      |             .  |      [60]: 13 transition_type 0x76d-0x76e (1)
0x760|                                          0e   |              . |      [61]: 14 transition_type 0x76e-0x76f (1)
0x760|                                             0d|               .|      [62]: 13 transition_type 0x76f-0x770 (1)
0x770|0e                                             |.               |      [63]: 14 transition_type 0x770-0x771 (1)
0x770|   0d                                          | .              |      [64]: 13 transition_type 0x771-0x772 (1)
0x770|      0e                                       |  .             |      [65]: 14 transition_type 0x772-0x773 (1)
0x770|         0d                                    |   .            |      [66]: 13 transition_type 0x773-0x774 (1)
0x770|            0e                                 |    .           |      [67]: 14 transition_type 0x774-0x775 (1)
0x770|               0d                              |     .          |      [68]: 13 transition_type 0x775-0x776 (1)
0x770|                  0e                           |      .         |      [69]: 14 transition_type 0x776-0x777 (1)
0x770|                     0d                        |       .        |      [70]: 13 transition_type 0x777-0x778 (1)
0x770|                        0e                     |        .       |      [71]: 14 transition_type 0x778-0x779 (1)
0x770|                           0d                  |         .      |      [72]: 13 transition_type 0x779-0x77a (1)
0x770|                              0e               |          .     |      [73]: 14 transition_type 0x77a-0x77b (1)
0x770|                                 0d            |           .    |      [74]: 13 transition_type 0x77b-0x77c (1)
0x770|                                    0e         |            .   |      [75]: 14 transition_type 0x77c-0x77d (1)
0x770|                                       0d      |             .  |      [76]: 13 transition_type 0x77d-0x77e (1)
0x770|                                          0e   |              . |      [77]: 14 transition_type 0x77e-0x77f (1)
0x770|                                             0d|               .|      [78]: 13 transition_type 0x77f-0x780 (1)
0x780|0e                                             |.               |      [79]: 14 transition_type 0x780-0x781 (1)
0x780|   0d                                          | .              |      [80]: 13 transition_type 0x781-0x782 (1)
0x780|      0e                                       |  .             |      [81]: 14 transition_type 0x782-0x783 (1)
0x780|         0d                                    |   .            |      [82]: 13 transition_type 0x783-0x784 (1)
0x780|            0e                                 |    .           |      [83]: 14 transition_type 0x784-0x785 (1)
0x780|               0d                              |     .          |      [84]: 13 transition_type 0x785-0x786 (1)
0x780|                  0e                           |      .         |      [85]: 14 transition_type 0x786-0x787 (1)
0x780|                     0d                        |       .        |      [86]: 13 transition_type 0x787-0x788 (1)
0x780|                        0e                     |        .       |      [87]: 14 transition_type 0x788-0x789 (1)
0x780|                           0d                  |         .      |      [88]: 13 transition_type 0x789-0x78a (1)
0x780|                              0e               |          .     |      [89]: 14 transition_type 0x78a-0x78b (1)
0x780|                                 0d            |           .    |      [90]: 13 transition_type 0x78b-0x78c (1)
0x780|                                    0e         |            .   |      [91]: 14 transition_type 0x78c-0x78d (1)
0x780|                                       0d      |             .  |      [92]: 13 transition_type 0x78d-0x78e (1)
0x780|                                          0e   |              . |      [93]: 14 transition_type 0x78e-0x78f (1)
0x780|                                             0d|               .|      [94]: 13 transition_type 0x78f-0x790 (1)
0x790|0e                                             |.               |      [95]: 14 transition_type 0x790-0x791 (1)
0x790|   0d                                          | .              |      [96]: 13 transition_type 0x791-0x792 (1)
0x790|      0e                                       |  .             |      [97]: 14 transition_type 0x792-0x793 (1)
0x790|         0d                                    |   .            |      [98]: 13 transition_type 0x793-0x794 (1)
0x790|            0e                                 |    .           |      [99]: 14 transition_type 0x794-0x795 (1)
0x790|               0d                              |     .          |      [100]: 13 transition_type 0x795-0x796 (1)
0x790|                  0e                           |      .         |      [101]: 14 transition_type 0x796-0x797 (1)
0x790|                     0d                        |       .        |      [102]: 13 transition_type 0x797-0x798 (1)
0x790|                        0e                     |        .       |      [103]: 14 transition_type 0x798-0x799 (1)
0x790|                           0d                  |         .      |      [104]: 13 transition_type 0x799-0x79a (1)
0x790|                              0e               |          .     |      [105]: 14 transition_type 0x79a-0x79b (1)
0x790|                                 0d            |           .    |      [106]: 13 transition_type 0x79b-0x79c (1)
0x790|                                    0e         |            .   |      [107]: 14 transition_type 0x79c-0x79d (1)
0x790|                                       0d      |             .  |      [108]: 13 transition_type 0x79d-0x79e (1)
0x790|                                          0e   |              . |      [109]: 14 transition_type 0x79e-0x79f (1)
0x790|                                             0d|               .|      [110]: 13 transition_type 0x79f-0x7a0 (1)
0x7a0|0e                                             |.               |      [111]: 14 transition_type 0x7a0-0x7a1 (1)
0x7a0|   0d                                          | .              |      [112]: 13 transition_type 0x7a1-0x7a2 (1)
0x7a0|      0e                                       |  .             |      [113]: 14 transition_type 0x7a2-0x7a3 (1)
0x7a0|         0d                                    |   .            |      [114]: 13 transition_type 0x7a3-0x7a4 (1)
0x7a0|            0e                                 |    .           |      [115]: 14 transition_type 0x7a4-0x7a5 (1)
0x7a0|               0d                              |     .          |      [116]: 13 transition_type 0x7a5-0x7a6 (1)
0x7a0|                  0e                           |      .         |      [117]: 14 transition_type 0x7a6-0x7a7 (1)
0x7a0|                     0d                        |       .        |      [118]: 13 transition_type 0x7a7-0x7a8 (1)
0x7a0|                        0e                     |        .       |      [119]: 14 transition_type 0x7a8-0x7a9 (1)
0x7a0|                           0d                  |         .      |      [120]: 13 transition_type 0x7a9-0x7aa (1)
0x7a0|                              0e               |          .     |      [121]: 14 transition_type 0x7aa-0x7ab (1)
0x7a0|                                 0d            |           .    |      [122]: 13 transition_type 0x7ab-0x7ac (1)
     |                                               |                |    local_time_type_records[0:15]: 0x7ac-0x806 (90)
     |                                               |                |      [0]{}: local_time_type 0x7ac-0x7b2 (6)
0x7a0|                                    00 00 17 34|            ...4|        utoff: 5940 (valid) 0x7ac-0x7b0 (4)
0x7b0|00                                             |.               |        dst: 0 (valid) 0x7b0-0x7b1 (1)
0x7b0|   00                                          | .              |        idx: 0 (valid) 0x7b1-0x7b2 (1)
     |                                               |                |      [1]{}: local_time_type 0x7b2-0x7b8 (6)
0x7b0|      00 00 17 34                              |  ...4          |        utoff: 5940 (valid) 0x7b2-0x7b6 (4)
0x7b0|                  00                           |      .         |        dst: 0 (valid) 0x7b6-0x7b7 (1)
0x7b0|                     04                        |       .        |        idx: 4 (valid) 0x7b7-0x7b8 (1)
     |                                               |                |      [2]{}: local_time_type 0x7b8-0x7be (6)
0x7b0|                        00 00 1c 20            |        ...     |        utoff: 7200 (valid) 0x7b8-0x7bc (4)
0x7b0|                                    01         |            .   |        dst: 1 (valid) 0x7bc-0x7bd (1)
0x7b0|                                       08      |             .  |        idx: 8 (valid) 0x7bd-0x7be (1)
     |                                               |                |      [3]{}: local_time_type 0x7be-0x7c4 (6)
0x7b0|                                          00 00|              ..|        utoff: 3600 (valid) 0x7be-0x7c2 (4)
0x7c0|0e 10                                          |..              |
0x7c0|      00                                       |  .             |        dst: 0 (valid) 0x7c2-0x7c3 (1)
0x7c0|         0d                                    |   .            |        idx: 13 (valid) 0x7c3-0x7c4 (1)
     |                                               |                |      [4]{}: local_time_type 0x7c4-0x7ca (6)
0x7c0|            00 00 0e 10                        |    ....        |        utoff: 3600 (valid) 0x7c4-0x7c8 (4)
0x7c0|                        00                     |        .       |        dst: 0 (valid) 0x7c8-0x7c9 (1)
0x7c0|                           0d                  |         .      |        idx: 13 (valid) 0x7c9-0x7ca (1)
     |                                               |                |      [5]{}: local_time_type 0x7ca-0x7d0 (6)
0x7c0|                              00 00 1c 20      |          ...   |        utoff: 7200 (valid) 0x7ca-0x7ce (4)
0x7c0|                                          00   |              . |        dst: 0 (valid) 0x7ce-0x7cf (1)
0x7c0|                                             11|               .|        idx: 17 (valid) 0x7cf-0x7d0 (1)
     |                                               |                |      [6]{}: local_time_type 0x7d0-0x7d6 (6)
0x7d0|00 00 2a 30                                    |..*0            |        utoff: 10800 (valid) 0x7d0-0x7d4 (4)
0x7d0|            00                                 |    .           |        dst: 0 (valid) 0x7d4-0x7d5 (1)
0x7d0|               15                              |     .          |        idx: 21 (valid) 0x7d5-0x7d6 (1)
     |                                               |                |      [7]{}: local_time_type 0x7d6-0x7dc (6)
0x7d0|                  00 00 1c 20                  |      ...       |        utoff: 7200 (valid) 0x7d6-0x7da (4)
0x7d0|                              01               |          .     |        dst: 1 (valid) 0x7da-0x7db (1)
0x7d0|                                 08            |           .    |        idx: 8 (valid) 0x7db-0x7dc (1)
     |                                               |                |      [8]{}: local_time_type 0x7dc-0x7e2 (6)
0x7d0|                                    00 00 38 40|            ..8@|        utoff: 14400 (valid) 0x7dc-0x7e0 (4)
0x7e0|01                                             |.               |        dst: 1 (valid) 0x7e0-0x7e1 (1)
0x7e0|   19                                          | .              |        idx: 25 (valid) 0x7e1-0x7e2 (1)
     |                                               |                |      [9]{}: local_time_type 0x7e2-0x7e8 (6)
0x7e0|      00 00 2a 30                              |  ..*0          |        utoff: 10800 (valid) 0x7e2-0x7e6 (4)
0x7e0|                  00                           |      .         |        dst: 0 (valid) 0x7e6-0x7e7 (1)
0x7e0|                     15                        |       .        |        idx: 21 (valid) 0x7e7-0x7e8 (1)
     |                                               |                |      [10]{}: local_time_type 0x7e8-0x7ee (6)
0x7e0|                        00 00 38 40            |        ..8@    |        utoff: 14400 (valid) 0x7e8-0x7ec (4)
0x7e0|                                    01         |            .   |        dst: 1 (valid) 0x7ec-0x7ed (1)
0x7e0|                                       19      |             .  |        idx: 25 (valid) 0x7ed-0x7ee (1)
     |                                               |                |      [11]{}: local_time_type 0x7ee-0x7f4 (6)
0x7e0|                                          00 00|              ..|        utoff: 10800 (valid) 0x7ee-0x7f2 (4)
0x7f0|2a 30                                          |*0              |
0x7f0|      01                                       |  .             |        dst: 1 (valid) 0x7f2-0x7f3 (1)
0x7f0|         1d                                    |   .            |        idx: 29 (valid) 0x7f3-0x7f4 (1)
     |                                               |                |      [12]{}: local_time_type 0x7f4-0x7fa (6)
0x7f0|            00 00 1c 20                        |    ...         |        utoff: 7200 (valid) 0x7f4-0x7f8 (4)
0x7f0|                        00                     |        .       |        dst: 0 (valid) 0x7f8-0x7f9 (1)
0x7f0|                           11                  |         .      |        idx: 17 (valid) 0x7f9-0x7fa (1)
     |                                               |                |      [13]{}: local_time_type 0x7fa-0x800 (6)
0x7f0|                              00 00 1c 20      |          ...   |        utoff: 7200 (valid) 0x7fa-0x7fe (4)
0x7f0|                                          00   |              . |        dst: 0 (valid) 0x7fe-0x7ff (1)
0x7f0|                                             11|               .|        idx: 17 (valid) 0x7ff-0x800 (1)
     |                                               |                |      [14]{}: local_time_type 0x800-0x806 (6)
0x800|00 00 2a 30                                    |..*0            |        utoff: 10800 (valid) 0x800-0x804 (4)
0x800|            01                                 |    .           |        dst: 1 (valid) 0x804-0x805 (1)
0x800|               1d                              |     .          |        idx: 29 (valid) 0x805-0x806 (1)
     |                                               |                |    time_zone_designations[0:8]: 0x806-0x828 (34)
0x800|                  4c 4d 54 00                  |      LMT.      |      [0]: "LMT" time_zone_designation 0x806-0x80a (4)
0x800|                              54 4d 54 00      |          TMT.  |      [1]: "TMT" time_zone_designation 0x80a-0x80e (4)
0x800|                                          43 45|              CE|      [2]: "CEST" time_zone_designation 0x80e-0x813 (5)
0x810|53 54 00                                       |ST.             |
0x810|         43 45 54 00                           |   CET.         |      [3]: "CET" time_zone_designation 0x813-0x817 (4)
0x810|                     45 45 54 00               |       EET.     |      [4]: "EET" time_zone_designation 0x817-0x81b (4)
0x810|                                 4d 53 4b 00   |           MSK. |      [5]: "MSK" time_zone_designation 0x81b-0x81f (4)
0x810|                                             4d|               M|      [6]: "MSD" time_zone_designation 0x81f-0x823 (4)
0x820|53 44 00                                       |SD.             |
0x820|         45 45 53 54 00                        |   EEST.        |      [7]: "EEST" time_zone_designation 0x823-0x828 (5)
     |                                               |                |    leap_second_records[0:0]: 0x828-0x828 (0)
     |                                               |                |    standard_wall_indicators[0:15]: 0x828-0x837 (15)
0x820|                        00                     |        .       |      [0]: 0 standard_wall_indicator (valid) 0x828-0x829 (1)
0x820|                           00                  |         .      |      [1]: 0 standard_wall_indicator (valid) 0x829-0x82a (1)
0x820|                              01               |          .     |      [2]: 1 standard_wall_indicator (valid) 0x82a-0x82b (1)
0x820|                                 01            |           .    |      [3]: 1 standard_wall_indicator (valid) 0x82b-0x82c (1)
0x820|                                    00         |            .   |      [4]: 0 standard_wall_indicator (valid) 0x82c-0x82d (1)
0x820|                                       00      |             .  |      [5]: 0 standard_wall_indicator (valid) 0x82d-0x82e (1)
0x820|                                          00   |              . |      [6]: 0 standard_wall_indicator (valid) 0x82e-0x82f (1)
0x820|                                             00|               .|      [7]: 0 standard_wall_indicator (valid) 0x82f-0x830 (1)
0x830|00                                             |.               |      [8]: 0 standard_wall_indicator (valid) 0x830-0x831 (1)
0x830|   01                                          | .              |      [9]: 1 standard_wall_indicator (valid) 0x831-0x832 (1)
0x830|      01                                       |  .             |      [10]: 1 standard_wall_indicator (valid) 0x832-0x833 (1)
0x830|         01                                    |   .            |      [11]: 1 standard_wall_indicator (valid) 0x833-0x834 (1)
0x830|            01                                 |    .           |      [12]: 1 standard_wall_indicator (valid) 0x834-0x835 (1)
0x830|               01                              |     .          |      [13]: 1 standard_wall_indicator (valid) 0x835-0x836 (1)
0x830|                  01                           |      .         |      [14]: 1 standard_wall_indicator (valid) 0x836-0x837 (1)
     |                                               |                |    ut_local_indicators[0:15]: 0x837-0x846 (15)
0x830|                     00                        |       .        |      [0]: 0 ut_local_indicator (valid) 0x837-0x838 (1)
0x830|                        00                     |        .       |      [1]: 0 ut_local_indicator (valid) 0x838-0x839 (1)
0x830|                           00                  |         .      |      [2]: 0 ut_local_indicator (valid) 0x839-0x83a (1)
0x830|                              00               |          .     |      [3]: 0 ut_local_indicator (valid) 0x83a-0x83b (1)
0x830|                                 00            |           .    |      [4]: 0 ut_local_indicator (valid) 0x83b-0x83c (1)
0x830|                                    00         |            .   |      [5]: 0 ut_local_indicator (valid) 0x83c-0x83d (1)
0x830|                                       00      |             .  |      [6]: 0 ut_local_indicator (valid) 0x83d-0x83e (1)
0x830|                                          00   |              . |      [7]: 0 ut_local_indicator (valid) 0x83e-0x83f (1)
0x830|                                             00|               .|      [8]: 0 ut_local_indicator (valid) 0x83f-0x840 (1)
0x840|00                                             |.               |      [9]: 0 ut_local_indicator (valid) 0x840-0x841 (1)
0x840|   00                                          | .              |      [10]: 0 ut_local_indicator (valid) 0x841-0x842 (1)
0x840|      00                                       |  .             |      [11]: 0 ut_local_indicator (valid) 0x842-0x843 (1)
0x840|         00                                    |   .            |      [12]: 0 ut_local_indicator (valid) 0x843-0x844 (1)
0x840|            01                                 |    .           |      [13]: 1 ut_local_indicator (valid) 0x844-0x845 (1)
0x840|               01                              |     .          |      [14]: 1 ut_local_indicator (valid) 0x845-0x846 (1)
     |                                               |                |  footer{}: 0x846-0x864 (30)
0x840|                  0a                           |      .         |    nl1: 10 (valid) 0x846-0x847 (1)
0x840|                     45 45 54 2d 32 45 45 53 54|       EET-2EEST|    tz_string: "EET-2EEST,M3.5.0/3,M10.5.0/4" 0x847-0x863 (28)
0x850|2c 4d 33 2e 35 2e 30 2f 33 2c 4d 31 30 2e 35 2e|,M3.5.0/3,M10.5.|
0x860|30 2f 34                                       |0/4             |
0x860|         0a|                                   |   .|           |    nl2: 10 (valid) 0x863-0x864 (1)
