$ fq -d tzif dv Tbilisi
     |00 01 02 03 04 05 06 07 08 09 0a 0b 0c 0d 0e 0f|0123456789abcdef|.{}: Tbilisi (tzif) 0x0-0x61f.7 (1568)
     |                                               |                |  v1header{}: 0x0-0x2b.7 (44)
0x000|54 5a 69 66                                    |TZif            |    magic: 0x545a6966 (valid) 0x0-0x3.7 (4)
0x000|            32                                 |    2           |    ver: "2" (0x32) (valid) 0x4-0x4.7 (1)
0x000|               00 00 00 00 00 00 00 00 00 00 00|     ...........|    reserved: raw bits 0x5-0x13.7 (15)
0x010|00 00 00 00                                    |....            |
0x010|            00 00 00 00                        |    ....        |    isutcnt: 0 0x14-0x17.7 (4)
0x010|                        00 00 00 0b            |        ....    |    isstdcnt: 11 0x18-0x1b.7 (4)
0x010|                                    00 00 00 1b|            ....|    leapcnt: 27 0x1c-0x1f.7 (4)
0x020|00 00 00 35                                    |...5            |    timecnt: 53 0x20-0x23.7 (4)
0x020|            00 00 00 0b                        |    ....        |    typecnt: 11 0x24-0x27.7 (4)
0x020|                        00 00 00 15            |        ....    |    charcnt: 21 0x28-0x2b.7 (4)
     |                                               |                |  v1datablock{}: 0x2c-0x26e.7 (579)
     |                                               |                |    transition_times[0:53]: 0x2c-0xff.7 (212)
0x020|                                    80 00 00 00|            ....|      [0]: "1901-12-13T20:45:52Z" (-2147483648) transition_time 0x2c-0x2f.7 (4)
0x030|aa 19 9a 01                                    |....            |      [1]: "1924-05-01T21:00:49Z" (-1441162751) transition_time 0x30-0x33.7 (4)
0x030|            e7 da 0c 50                        |    ...P        |      [2]: "1957-02-28T21:00:00Z" (-405140400) transition_time 0x34-0x37.7 (4)
0x030|                        15 27 99 c9            |        .'..    |      [3]: "1981-03-31T20:00:09Z" (354916809) transition_time 0x38-0x3b.7 (4)
0x030|                                    16 18 ce 3a|            ...:|      [4]: "1981-09-30T19:00:10Z" (370724410) transition_time 0x3c-0x3f.7 (4)
0x040|17 08 cd 4a                                    |...J            |      [5]: "1982-03-31T20:00:10Z" (386452810) transition_time 0x40-0x43.7 (4)
0x040|            17 fa 01 bb                        |    ....        |      [6]: "1982-09-30T19:00:11Z" (402260411) transition_time 0x44-0x47.7 (4)
0x040|                        18 ea 00 cb            |        ....    |      [7]: "1983-03-31T20:00:11Z" (417988811) transition_time 0x48-0x4b.7 (4)
0x040|                                    19 db 35 3c|            ..5<|      [8]: "1983-09-30T19:00:12Z" (433796412) transition_time 0x4c-0x4f.7 (4)
0x050|1a cc 85 cc                                    |....            |      [9]: "1984-03-31T20:00:12Z" (449611212) transition_time 0x50-0x53.7 (4)
0x050|            1b bc 92 ec                        |    ....        |      [10]: "1984-09-29T22:00:12Z" (465343212) transition_time 0x54-0x57.7 (4)
0x050|                        1c ac 83 ec            |        ....    |      [11]: "1985-03-30T22:00:12Z" (481068012) transition_time 0x58-0x5b.7 (4)
0x050|                                    1d 9c 74 ed|            ..t.|      [12]: "1985-09-28T22:00:13Z" (496792813) transition_time 0x5c-0x5f.7 (4)
0x060|1e 8c 65 ed                                    |..e.            |      [13]: "1986-03-29T22:00:13Z" (512517613) transition_time 0x60-0x63.7 (4)
0x060|            1f 7c 56 ed                        |    .|V.        |      [14]: "1986-09-27T22:00:13Z" (528242413) transition_time 0x64-0x67.7 (4)
0x060|                        20 6c 47 ed            |         lG.    |      [15]: "1987-03-28T22:00:13Z" (543967213) transition_time 0x68-0x6b.7 (4)
0x060|                                    21 5c 38 ed|            !\8.|      [16]: "1987-09-26T22:00:13Z" (559692013) transition_time 0x6c-0x6f.7 (4)
0x070|22 4c 29 ee                                    |"L).            |      [17]: "1988-03-26T22:00:14Z" (575416814) transition_time 0x70-0x73.7 (4)
0x070|            23 3c 1a ee                        |    #<..        |      [18]: "1988-09-24T22:00:14Z" (591141614) transition_time 0x74-0x77.7 (4)
0x070|                        24 2c 0b ee            |        $,..    |      [19]: "1989-03-25T22:00:14Z" (606866414) transition_time 0x78-0x7b.7 (4)
0x070|                                    25 1b fc ee|            %...|      [20]: "1989-09-23T22:00:14Z" (622591214) transition_time 0x7c-0x7f.7 (4)
0x080|26 0b ed ef                                    |&...            |      [21]: "1990-03-24T22:00:15Z" (638316015) transition_time 0x80-0x83.7 (4)
0x080|            27 05 19 6f                        |    '..o        |      [22]: "1990-09-29T22:00:15Z" (654645615) transition_time 0x84-0x87.7 (4)
0x080|                        27 f5 0a 70            |        '..p    |      [23]: "1991-03-30T22:00:16Z" (670370416) transition_time 0x88-0x8b.7 (4)
0x080|                                    28 e5 09 80|            (...|      [24]: "1991-09-28T23:00:16Z" (686098816) transition_time 0x8c-0x8f.7 (4)
0x090|29 d4 de 60                                    |)..`            |      [25]: "1992-03-28T21:00:16Z" (701816416) transition_time 0x90-0x93.7 (4)
0x090|            2a c4 c1 51                        |    *..Q        |      [26]: "1992-09-26T20:00:17Z" (717537617) transition_time 0x94-0x97.7 (4)
0x090|                        2b b4 c0 61            |        +..a    |      [27]: "1993-03-27T21:00:17Z" (733266017) transition_time 0x98-0x9b.7 (4)
0x090|                                    2c a4 a3 52|            ,..R|      [28]: "1993-09-25T20:00:18Z" (748987218) transition_time 0x9c-0x9f.7 (4)
0x0a0|2d 94 a2 62                                    |-..b            |      [29]: "1994-03-26T21:00:18Z" (764715618) transition_time 0xa0-0xa3.7 (4)
0x0a0|            2e 84 85 53                        |    ...S        |      [30]: "1994-09-24T20:00:19Z" (780436819) transition_time 0xa4-0xa7.7 (4)
0x0a0|                        2f 74 76 53            |        /tvS    |      [31]: "1995-03-25T20:00:19Z" (796161619) transition_time 0xa8-0xab.7 (4)
0x0a0|                                    30 64 59 43|            0dYC|      [32]: "1995-09-23T19:00:19Z" (811882819) transition_time 0xac-0xaf.7 (4)
0x0b0|31 5d 92 d4                                    |1]..            |      [33]: "1996-03-30T20:00:20Z" (828216020) transition_time 0xb0-0xb3.7 (4)
0x0b0|            33 3d 66 c4                        |    3=f.        |      [34]: "1997-03-29T19:00:20Z" (859662020) transition_time 0xb4-0xb7.7 (4)
0x0b0|                        34 52 41 c5            |        4RA.    |      [35]: "1997-10-25T19:00:21Z" (877806021) transition_time 0xb8-0xbb.7 (4)
0x0b0|                                    35 1d 56 d5|            5.V.|      [36]: "1998-03-28T20:00:21Z" (891115221) transition_time 0xbc-0xbf.7 (4)
0x0c0|36 32 23 c5                                    |62#.            |      [37]: "1998-10-24T19:00:21Z" (909255621) transition_time 0xc0-0xc3.7 (4)
0x0c0|            36 fd 38 d6                        |    6.8.        |      [38]: "1999-03-27T20:00:22Z" (922564822) transition_time 0xc4-0xc7.7 (4)
0x0c0|                        38 1b 40 46            |        8.@F    |      [39]: "1999-10-30T19:00:22Z" (941310022) transition_time 0xc8-0xcb.7 (4)
0x0c0|                                    38 dd 1a d6|            8...|      [40]: "2000-03-25T20:00:22Z" (954014422) transition_time 0xcc-0xcf.7 (4)
0x0d0|39 fb 22 46                                    |9."F            |      [41]: "2000-10-28T19:00:22Z" (972759622) transition_time 0xd0-0xd3.7 (4)
0x0d0|            3a bc fc d6                        |    :...        |      [42]: "2001-03-24T20:00:22Z" (985464022) transition_time 0xd4-0xd7.7 (4)
0x0d0|                        3b db 04 46            |        ;..F    |      [43]: "2001-10-27T19:00:22Z" (1004209222) transition_time 0xd8-0xdb.7 (4)
0x0d0|                                    3c a6 19 56|            <..V|      [44]: "2002-03-30T20:00:22Z" (1017518422) transition_time 0xdc-0xdf.7 (4)
0x0e0|3d ba e6 46                                    |=..F            |      [45]: "2002-10-26T19:00:22Z" (1035658822) transition_time 0xe0-0xe3.7 (4)
0x0e0|            3e 85 fb 56                        |    >..V        |      [46]: "2003-03-29T20:00:22Z" (1048968022) transition_time 0xe4-0xe7.7 (4)
0x0e0|                        3f 9a c8 46            |        ?..F    |      [47]: "2003-10-25T19:00:22Z" (1067108422) transition_time 0xe8-0xeb.7 (4)
0x0e0|                                    40 65 dd 56|            @e.V|      [48]: "2004-03-27T20:00:22Z" (1080417622) transition_time 0xec-0xef.7 (4)
0x0f0|40 dd c7 c6                                    |@...            |      [49]: "2004-06-26T19:00:22Z" (1088276422) transition_time 0xf0-0xf3.7 (4)
0x0f0|            41 84 1d 06                        |    A...        |      [50]: "2004-10-30T23:00:22Z" (1099177222) transition_time 0xf4-0xf7.7 (4)
0x0f0|                        42 45 e9 86            |        BE..    |      [51]: "2005-03-26T23:00:22Z" (1111878022) transition_time 0xf8-0xfb.7 (4)
0x0f0|                                    64 9b 78 1b|            d.x.|      [52]: "2023-06-28T00:00:27Z" (1687910427) transition_time 0xfc-0xff.7 (4)
     |                                               |                |    transition_types[0:53]: 0x100-0x134.7 (53)
0x100|01                                             |.               |      [0]: 1 transition_type 0x100-0x100.7 (1)
0x100|   02                                          | .              |      [1]: 2 transition_type 0x101-0x101.7 (1)
0x100|      04                                       |  .             |      [2]: 4 transition_type 0x102-0x102.7 (1)
0x100|         03                                    |   .            |      [3]: 3 transition_type 0x103-0x103.7 (1)
0x100|            04                                 |    .           |      [4]: 4 transition_type 0x104-0x104.7 (1)
0x100|               03                              |     .          |      [5]: 3 transition_type 0x105-0x105.7 (1)
0x100|                  04                           |      .         |      [6]: 4 transition_type 0x106-0x106.7 (1)
0x100|                     03                        |       .        |      [7]: 3 transition_type 0x107-0x107.7 (1)
0x100|                        04                     |        .       |      [8]: 4 transition_type 0x108-0x108.7 (1)
0x100|                           03                  |         .      |      [9]: 3 transition_type 0x109-0x109.7 (1)
0x100|                              05               |          .     |      [10]: 5 transition_type 0x10a-0x10a.7 (1)
0x100|                                 06            |           .    |      [11]: 6 transition_type 0x10b-0x10b.7 (1)
0x100|                                    05         |            .   |      [12]: 5 transition_type 0x10c-0x10c.7 (1)
0x100|                                       06      |             .  |      [13]: 6 transition_type 0x10d-0x10d.7 (1)
0x100|                                          05   |              . |      [14]: 5 transition_type 0x10e-0x10e.7 (1)
0x100|                                             06|               .|      [15]: 6 transition_type 0x10f-0x10f.7 (1)
0x110|05                                             |.               |      [16]: 5 transition_type 0x110-0x110.7 (1)
0x110|   06                                          | .              |      [17]: 6 transition_type 0x111-0x111.7 (1)
0x110|      05                                       |  .             |      [18]: 5 transition_type 0x112-0x112.7 (1)
0x110|         06                                    |   .            |      [19]: 6 transition_type 0x113-0x113.7 (1)
0x110|            05                                 |    .           |      [20]: 5 transition_type 0x114-0x114.7 (1)
0x110|               06                              |     .          |      [21]: 6 transition_type 0x115-0x115.7 (1)
0x110|                  05                           |      .         |      [22]: 5 transition_type 0x116-0x116.7 (1)
0x110|                     07                        |       .        |      [23]: 7 transition_type 0x117-0x117.7 (1)
0x110|                        08                     |        .       |      [24]: 8 transition_type 0x118-0x118.7 (1)
0x110|                           09                  |         .      |      [25]: 9 transition_type 0x119-0x119.7 (1)
0x110|                              02               |          .     |      [26]: 2 transition_type 0x11a-0x11a.7 (1)
0x110|                                 09            |           .    |      [27]: 9 transition_type 0x11b-0x11b.7 (1)
0x110|                                    02         |            .   |      [28]: 2 transition_type 0x11c-0x11c.7 (1)
0x110|                                       09      |             .  |      [29]: 9 transition_type 0x11d-0x11d.7 (1)
0x110|                                          04   |              . |      [30]: 4 transition_type 0x11e-0x11e.7 (1)
0x110|                                             03|               .|      [31]: 3 transition_type 0x11f-0x11f.7 (1)
0x120|04                                             |.               |      [32]: 4 transition_type 0x120-0x120.7 (1)
0x120|   03                                          | .              |      [33]: 3 transition_type 0x121-0x121.7 (1)
0x120|      03                                       |  .             |      [34]: 3 transition_type 0x122-0x122.7 (1)
0x120|         04                                    |   .            |      [35]: 4 transition_type 0x123-0x123.7 (1)
0x120|            03                                 |    .           |      [36]: 3 transition_type 0x124-0x124.7 (1)
0x120|               04                              |     .          |      [37]: 4 transition_type 0x125-0x125.7 (1)
0x120|                  03                           |      .         |      [38]: 3 transition_type 0x126-0x126.7 (1)
0x120|                     04                        |       .        |      [39]: 4 transition_type 0x127-0x127.7 (1)
0x120|                        03                     |        .       |      [40]: 3 transition_type 0x128-0x128.7 (1)
0x120|                           04                  |         .      |      [41]: 4 transition_type 0x129-0x129.7 (1)
0x120|                              03               |          .     |      [42]: 3 transition_type 0x12a-0x12a.7 (1)
0x120|                                 04            |           .    |      [43]: 4 transition_type 0x12b-0x12b.7 (1)
0x120|                                    03         |            .   |      [44]: 3 transition_type 0x12c-0x12c.7 (1)
0x120|                                       04      |             .  |      [45]: 4 transition_type 0x12d-0x12d.7 (1)
0x120|                                          03   |              . |      [46]: 3 transition_type 0x12e-0x12e.7 (1)
0x120|                                             04|               .|      [47]: 4 transition_type 0x12f-0x12f.7 (1)
0x130|03                                             |.               |      [48]: 3 transition_type 0x130-0x130.7 (1)
0x130|   09                                          | .              |      [49]: 9 transition_type 0x131-0x131.7 (1)
0x130|      08                                       |  .             |      [50]: 8 transition_type 0x132-0x132.7 (1)
0x130|         04                                    |   .            |      [51]: 4 transition_type 0x133-0x133.7 (1)
0x130|            04                                 |    .           |      [52]: 4 transition_type 0x134-0x134.7 (1)
     |                                               |                |    local_time_type_records[0:11]: 0x135-0x176.7 (66)
     |                                               |                |      [0]{}: local_time_type 0x135-0x13a.7 (6)
0x130|               00 00 29 ff                     |     ..).       |        utoff: 10751 (valid) 0x135-0x138.7 (4)
0x130|                           00                  |         .      |        dst: 0 (valid) 0x139-0x139.7 (1)
0x130|                              00               |          .     |        idx: 0 (valid) 0x13a-0x13a.7 (1)
     |                                               |                |      [1]{}: local_time_type 0x13b-0x140.7 (6)
0x130|                                 00 00 29 ff   |           ..). |        utoff: 10751 (valid) 0x13b-0x13e.7 (4)
0x130|                                             00|               .|        dst: 0 (valid) 0x13f-0x13f.7 (1)
0x140|04                                             |.               |        idx: 4 (valid) 0x140-0x140.7 (1)
     |                                               |                |      [2]{}: local_time_type 0x141-0x146.7 (6)
0x140|   00 00 2a 30                                 | ..*0           |        utoff: 10800 (valid) 0x141-0x144.7 (4)
0x140|               00                              |     .          |        dst: 0 (valid) 0x145-0x145.7 (1)
0x140|                  09                           |      .         |        idx: 9 (valid) 0x146-0x146.7 (1)
     |                                               |                |      [3]{}: local_time_type 0x147-0x14c.7 (6)
0x140|                     00 00 46 50               |       ..FP     |        utoff: 18000 (valid) 0x147-0x14a.7 (4)
0x140|                                 01            |           .    |        dst: 1 (valid) 0x14b-0x14b.7 (1)
0x140|                                    0d         |            .   |        idx: 13 (valid) 0x14c-0x14c.7 (1)
     |                                               |                |      [4]{}: local_time_type 0x14d-0x152.7 (6)
0x140|                                       00 00 38|             ..8|        utoff: 14400 (valid) 0x14d-0x150.7 (4)
0x150|40                                             |@               |
0x150|   00                                          | .              |        dst: 0 (valid) 0x151-0x151.7 (1)
0x150|      11                                       |  .             |        idx: 17 (valid) 0x152-0x152.7 (1)
     |                                               |                |      [5]{}: local_time_type 0x153-0x158.7 (6)
0x150|         00 00 38 40                           |   ..8@         |        utoff: 14400 (valid) 0x153-0x156.7 (4)
0x150|                     00                        |       .        |        dst: 0 (valid) 0x157-0x157.7 (1)
0x150|                        11                     |        .       |        idx: 17 (valid) 0x158-0x158.7 (1)
     |                                               |                |      [6]{}: local_time_type 0x159-0x15e.7 (6)
0x150|                           00 00 46 50         |         ..FP   |        utoff: 18000 (valid) 0x159-0x15c.7 (4)
0x150|                                       01      |             .  |        dst: 1 (valid) 0x15d-0x15d.7 (1)
0x150|                                          0d   |              . |        idx: 13 (valid) 0x15e-0x15e.7 (1)
     |                                               |                |      [7]{}: local_time_type 0x15f-0x164.7 (6)
0x150|                                             00|               .|        utoff: 14400 (valid) 0x15f-0x162.7 (4)
0x160|00 38 40                                       |.8@             |
0x160|         01                                    |   .            |        dst: 1 (valid) 0x163-0x163.7 (1)
0x160|            11                                 |    .           |        idx: 17 (valid) 0x164-0x164.7 (1)
     |                                               |                |      [8]{}: local_time_type 0x165-0x16a.7 (6)
0x160|               00 00 2a 30                     |     ..*0       |        utoff: 10800 (valid) 0x165-0x168.7 (4)
0x160|                           00                  |         .      |        dst: 0 (valid) 0x169-0x169.7 (1)
0x160|                              09               |          .     |        idx: 9 (valid) 0x16a-0x16a.7 (1)
     |                                               |                |      [9]{}: local_time_type 0x16b-0x170.7 (6)
0x160|                                 00 00 38 40   |           ..8@ |        utoff: 14400 (valid) 0x16b-0x16e.7 (4)
0x160|                                             01|               .|        dst: 1 (valid) 0x16f-0x16f.7 (1)
0x170|11                                             |.               |        idx: 17 (valid) 0x170-0x170.7 (1)
     |                                               |                |      [10]{}: local_time_type 0x171-0x176.7 (6)
0x170|   00 00 38 40                                 | ..8@           |        utoff: 14400 (valid) 0x171-0x174.7 (4)
0x170|               00                              |     .          |        dst: 0 (valid) 0x175-0x175.7 (1)
0x170|                  11                           |      .         |        idx: 17 (valid) 0x176-0x176.7 (1)
     |                                               |                |    time_zone_designations[0:5]: 0x177-0x18b.7 (21)
0x170|                     4c 4d 54 00               |       LMT.     |      [0]: "LMT" time_zone_designation 0x177-0x17a.7 (4)
0x170|                                 54 42 4d 54 00|           TBMT.|      [1]: "TBMT" time_zone_designation 0x17b-0x17f.7 (5)
0x180|2b 30 33 00                                    |+03.            |      [2]: "+03" time_zone_designation 0x180-0x183.7 (4)
0x180|            2b 30 35 00                        |    +05.        |      [3]: "+05" time_zone_designation 0x184-0x187.7 (4)
0x180|                        2b 30 34 00            |        +04.    |      [4]: "+04" time_zone_designation 0x188-0x18b.7 (4)
     |                                               |                |    leap_second_records[0:27]: 0x18c-0x263.7 (216)
     |                                               |                |      [0]{}: leap_second_record 0x18c-0x193.7 (8)
0x180|                                    04 b2 58 00|            ..X.|        occur: "1972-07-01T00:00:00Z" (78796800) 0x18c-0x18f.7 (4)
0x190|00 00 00 01                                    |....            |        corr: 1 0x190-0x193.7 (4)
     |                                               |                |      [1]{}: leap_second_record 0x194-0x19b.7 (8)
0x190|            05 a4 ec 01                        |    ....        |        occur: "1973-01-01T00:00:01Z" (94694401) 0x194-0x197.7 (4)
0x190|                        00 00 00 02            |        ....    |        corr: 2 0x198-0x19b.7 (4)
     |                                               |                |      [2]{}: leap_second_record 0x19c-0x1a3.7 (8)
0x190|                                    07 86 1f 82|            ....|        occur: "1974-01-01T00:00:02Z" (126230402) 0x19c-0x19f.7 (4)
0x1a0|00 00 00 03                                    |....            |        corr: 3 0x1a0-0x1a3.7 (4)
     |                                               |                |      [3]{}: leap_second_record 0x1a4-0x1ab.7 (8)
0x1a0|            09 67 53 03                        |    .gS.        |        occur: "1975-01-01T00:00:03Z" (157766403) 0x1a4-0x1a7.7 (4)
0x1a0|                        00 00 00 04            |        ....    |        corr: 4 0x1a8-0x1ab.7 (4)
     |                                               |                |      [4]{}: leap_second_record 0x1ac-0x1b3.7 (8)
0x1a0|                                    0b 48 86 84|            .H..|        occur: "1976-01-01T00:00:04Z" (189302404) 0x1ac-0x1af.7 (4)
0x1b0|00 00 00 05                                    |....            |        corr: 5 0x1b0-0x1b3.7 (4)
     |                                               |                |      [5]{}: leap_second_record 0x1b4-0x1bb.7 (8)
0x1b0|            0d 2b 0b 85                        |    .+..        |        occur: "1977-01-01T00:00:05Z" (220924805) 0x1b4-0x1b7.7 (4)
0x1b0|                        00 00 00 06            |        ....    |        corr: 6 0x1b8-0x1bb.7 (4)
     |                                               |                |      [6]{}: leap_second_record 0x1bc-0x1c3.7 (8)
0x1b0|                                    0f 0c 3f 06|            ..?.|        occur: "1978-01-01T00:00:06Z" (252460806) 0x1bc-0x1bf.7 (4)
0x1c0|00 00 00 07                                    |....            |        corr: 7 0x1c0-0x1c3.7 (4)
     |                                               |                |      [7]{}: leap_second_record 0x1c4-0x1cb.7 (8)
0x1c0|            10 ed 72 87                        |    ..r.        |        occur: "1979-01-01T00:00:07Z" (283996807) 0x1c4-0x1c7.7 (4)
0x1c0|                        00 00 00 08            |        ....    |        corr: 8 0x1c8-0x1cb.7 (4)
     |                                               |                |      [8]{}: leap_second_record 0x1cc-0x1d3.7 (8)
0x1c0|                                    12 ce a6 08|            ....|        occur: "1980-01-01T00:00:08Z" (315532808) 0x1cc-0x1cf.7 (4)
0x1d0|00 00 00 09                                    |....            |        corr: 9 0x1d0-0x1d3.7 (4)
     |                                               |                |      [9]{}: leap_second_record 0x1d4-0x1db.7 (8)
0x1d0|            15 9f ca 89                        |    ....        |        occur: "1981-07-01T00:00:09Z" (362793609) 0x1d4-0x1d7.7 (4)
0x1d0|                        00 00 00 0a            |        ....    |        corr: 10 0x1d8-0x1db.7 (4)
     |                                               |                |      [10]{}: leap_second_record 0x1dc-0x1e3.7 (8)
0x1d0|                                    17 80 fe 0a|            ....|        occur: "1982-07-01T00:00:10Z" (394329610) 0x1dc-0x1df.7 (4)
0x1e0|00 00 00 0b                                    |....            |        corr: 11 0x1e0-0x1e3.7 (4)
     |                                               |                |      [11]{}: leap_second_record 0x1e4-0x1eb.7 (8)
0x1e0|            19 62 31 8b                        |    .b1.        |        occur: "1983-07-01T00:00:11Z" (425865611) 0x1e4-0x1e7.7 (4)
0x1e0|                        00 00 00 0c            |        ....    |        corr: 12 0x1e8-0x1eb.7 (4)
     |                                               |                |      [12]{}: leap_second_record 0x1ec-0x1f3.7 (8)
0x1e0|                                    1d 25 ea 0c|            .%..|        occur: "1985-07-01T00:00:12Z" (489024012) 0x1ec-0x1ef.7 (4)
0x1f0|00 00 00 0d                                    |....            |        corr: 13 0x1f0-0x1f3.7 (4)
     |                                               |                |      [13]{}: leap_second_record 0x1f4-0x1fb.7 (8)
0x1f0|            21 da e5 0d                        |    !...        |        occur: "1988-01-01T00:00:13Z" (567993613) 0x1f4-0x1f7.7 (4)
0x1f0|                        00 00 00 0e            |        ....    |        corr: 14 0x1f8-0x1fb.7 (4)
     |                                               |                |      [14]{}: leap_second_record 0x1fc-0x203.7 (8)
0x1f0|                                    25 9e 9d 8e|            %...|        occur: "1990-01-01T00:00:14Z" (631152014) 0x1fc-0x1ff.7 (4)
0x200|00 00 00 0f                                    |....            |        corr: 15 0x200-0x203.7 (4)
     |                                               |                |      [15]{}: leap_second_record 0x204-0x20b.7 (8)
0x200|            27 7f d1 0f                        |    '...        |        occur: "1991-01-01T00:00:15Z" (662688015) 0x204-0x207.7 (4)
0x200|                        00 00 00 10            |        ....    |        corr: 16 0x208-0x20b.7 (4)
     |                                               |                |      [16]{}: leap_second_record 0x20c-0x213.7 (8)
0x200|                                    2a 50 f5 90|            *P..|        occur: "1992-07-01T00:00:16Z" (709948816) 0x20c-0x20f.7 (4)
0x210|00 00 00 11                                    |....            |        corr: 17 0x210-0x213.7 (4)
     |                                               |                |      [17]{}: leap_second_record 0x214-0x21b.7 (8)
0x210|            2c 32 29 11                        |    ,2).        |        occur: "1993-07-01T00:00:17Z" (741484817) 0x214-0x217.7 (4)
0x210|                        00 00 00 12            |        ....    |        corr: 18 0x218-0x21b.7 (4)
     |                                               |                |      [18]{}: leap_second_record 0x21c-0x223.7 (8)
0x210|                                    2e 13 5c 92|            ..\.|        occur: "1994-07-01T00:00:18Z" (773020818) 0x21c-0x21f.7 (4)
0x220|00 00 00 13                                    |....            |        corr: 19 0x220-0x223.7 (4)
     |                                               |                |      [19]{}: leap_second_record 0x224-0x22b.7 (8)
0x220|            30 e7 24 13                        |    0.$.        |        occur: "1996-01-01T00:00:19Z" (820454419) 0x224-0x227.7 (4)
0x220|                        00 00 00 14            |        ....    |        corr: 20 0x228-0x22b.7 (4)
     |                                               |                |      [20]{}: leap_second_record 0x22c-0x233.7 (8)
0x220|                                    33 b8 48 94|            3.H.|        occur: "1997-07-01T00:00:20Z" (867715220) 0x22c-0x22f.7 (4)
0x230|00 00 00 15                                    |....            |        corr: 21 0x230-0x233.7 (4)
     |                                               |                |      [21]{}: leap_second_record 0x234-0x23b.7 (8)
0x230|            36 8c 10 15                        |    6...        |        occur: "1999-01-01T00:00:21Z" (915148821) 0x234-0x237.7 (4)
0x230|                        00 00 00 16            |        ....    |        corr: 22 0x238-0x23b.7 (4)
     |                                               |                |      [22]{}: leap_second_record 0x23c-0x243.7 (8)
0x230|                                    43 b7 1b 96|            C...|        occur: "2006-01-01T00:00:22Z" (1136073622) 0x23c-0x23f.7 (4)
0x240|00 00 00 17                                    |....            |        corr: 23 0x240-0x243.7 (4)
     |                                               |                |      [23]{}: leap_second_record 0x244-0x24b.7 (8)
0x240|            49 5c 07 97                        |    I\..        |        occur: "2009-01-01T00:00:23Z" (1230768023) 0x244-0x247.7 (4)
0x240|                        00 00 00 18            |        ....    |        corr: 24 0x248-0x24b.7 (4)
     |                                               |                |      [24]{}: leap_second_record 0x24c-0x253.7 (8)
0x240|                                    4f ef 93 18|            O...|        occur: "2012-07-01T00:00:24Z" (1341100824) 0x24c-0x24f.7 (4)
0x250|00 00 00 19                                    |....            |        corr: 25 0x250-0x253.7 (4)
     |                                               |                |      [25]{}: leap_second_record 0x254-0x25b.7 (8)
0x250|            55 93 2d 99                        |    U.-.        |        occur: "2015-07-01T00:00:25Z" (1435708825) 0x254-0x257.7 (4)
0x250|                        00 00 00 1a            |        ....    |        corr: 26 0x258-0x25b.7 (4)
     |                                               |                |      [26]{}: leap_second_record 0x25c-0x263.7 (8)
0x250|                                    58 68 46 9a|            XhF.|        occur: "2017-01-01T00:00:26Z" (1483228826) 0x25c-0x25f.7 (4)
0x260|00 00 00 1b                                    |....            |        corr: 27 0x260-0x263.7 (4)
     |                                               |                |    standard_wall_indicators[0:11]: 0x264-0x26e.7 (11)
0x260|            00                                 |    .           |      [0]: 0 standard_wall_indicator (valid) 0x264-0x264.7 (1)
0x260|               00                              |     .          |      [1]: 0 standard_wall_indicator (valid) 0x265-0x265.7 (1)
0x260|                  00                           |      .         |      [2]: 0 standard_wall_indicator (valid) 0x266-0x266.7 (1)
0x260|                     00                        |       .        |      [3]: 0 standard_wall_indicator (valid) 0x267-0x267.7 (1)
0x260|                        00                     |        .       |      [4]: 0 standard_wall_indicator (valid) 0x268-0x268.7 (1)
0x260|                           01                  |         .      |      [5]: 1 standard_wall_indicator (valid) 0x269-0x269.7 (1)
0x260|                              01               |          .     |      [6]: 1 standard_wall_indicator (valid) 0x26a-0x26a.7 (1)
0x260|                                 01            |           .    |      [7]: 1 standard_wall_indicator (valid) 0x26b-0x26b.7 (1)
0x260|                                    01         |            .   |      [8]: 1 standard_wall_indicator (valid) 0x26c-0x26c.7 (1)
0x260|                                       00      |             .  |      [9]: 0 standard_wall_indicator (valid) 0x26d-0x26d.7 (1)
0x260|                                          00   |              . |      [10]: 0 standard_wall_indicator (valid) 0x26e-0x26e.7 (1)
     |                                               |                |    ut_local_indicators[0:0]: 0x26f-NA (0)
     |                                               |                |  v2plusheader{}: 0x26f-0x29a.7 (44)
0x260|                                             54|               T|    magic: 0x545a6966 (valid) 0x26f-0x272.7 (4)
0x270|5a 69 66                                       |Zif             |
0x270|         32                                    |   2            |    ver: "2" (0x32) (valid) 0x273-0x273.7 (1)
0x270|            00 00 00 00 00 00 00 00 00 00 00 00|    ............|    reserved: raw bits 0x274-0x282.7 (15)
0x280|00 00 00                                       |...             |
0x280|         00 00 00 00                           |   ....         |    isutcnt: 0 0x283-0x286.7 (4)
0x280|                     00 00 00 0b               |       ....     |    isstdcnt: 11 0x287-0x28a.7 (4)
0x280|                                 00 00 00 1b   |           .... |    leapcnt: 27 0x28b-0x28e.7 (4)
0x280|                                             00|               .|    timecnt: 53 0x28f-0x292.7 (4)
0x290|00 00 35                                       |..5             |
0x290|         00 00 00 0b                           |   ....         |    typecnt: 11 0x293-0x296.7 (4)
0x290|                     00 00 00 15               |       ....     |    charcnt: 21 0x297-0x29a.7 (4)
     |                                               |                |  v2plusdatablock{}: 0x29b-0x61d.7 (899)
     |                                               |                |    transition_times[0:53]: 0x29b-0x442.7 (424)
0x290|                                 ff ff ff ff 56|           ....V|      [0]: "1879-12-31T21:00:49Z" (-2840151551) transition_time 0x29b-0x2a2.7 (8)
0x2a0|b6 ba 01                                       |...             |
0x2a0|         ff ff ff ff aa 19 9a 01               |   ........     |      [1]: "1924-05-01T21:00:49Z" (-1441162751) transition_time 0x2a3-0x2aa.7 (8)
0x2a0|                                 ff ff ff ff e7|           .....|      [2]: "1957-02-28T21:00:00Z" (-405140400) transition_time 0x2ab-0x2b2.7 (8)
0x2b0|da 0c 50                                       |..P             |
0x2b0|         00 00 00 00 15 27 99 c9               |   .....'..     |      [3]: "1981-03-31T20:00:09Z" (354916809) transition_time 0x2b3-0x2ba.7 (8)
0x2b0|                                 00 00 00 00 16|           .....|      [4]: "1981-09-30T19:00:10Z" (370724410) transition_time 0x2bb-0x2c2.7 (8)
0x2c0|18 ce 3a                                       |..:             |
0x2c0|         00 00 00 00 17 08 cd 4a               |   .......J     |      [5]: "1982-03-31T20:00:10Z" (386452810) transition_time 0x2c3-0x2ca.7 (8)
0x2c0|                                 00 00 00 00 17|           .....|      [6]: "1982-09-30T19:00:11Z" (402260411) transition_time 0x2cb-0x2d2.7 (8)
0x2d0|fa 01 bb                                       |...             |
0x2d0|         00 00 00 00 18 ea 00 cb               |   ........     |      [7]: "1983-03-31T20:00:11Z" (417988811) transition_time 0x2d3-0x2da.7 (8)
0x2d0|                                 00 00 00 00 19|           .....|      [8]: "1983-09-30T19:00:12Z" (433796412) transition_time 0x2db-0x2e2.7 (8)
0x2e0|db 35 3c                                       |.5<             |
0x2e0|         00 00 00 00 1a cc 85 cc               |   ........     |      [9]: "1984-03-31T20:00:12Z" (449611212) transition_time 0x2e3-0x2ea.7 (8)
0x2e0|                                 00 00 00 00 1b|           .....|      [10]: "1984-09-29T22:00:12Z" (465343212) transition_time 0x2eb-0x2f2.7 (8)
0x2f0|bc 92 ec                                       |...             |
0x2f0|         00 00 00 00 1c ac 83 ec               |   ........     |      [11]: "1985-03-30T22:00:12Z" (481068012) transition_time 0x2f3-0x2fa.7 (8)
0x2f0|                                 00 00 00 00 1d|           .....|      [12]: "1985-09-28T22:00:13Z" (496792813) transition_time 0x2fb-0x302.7 (8)
0x300|9c 74 ed                                       |.t.             |
0x300|         00 00 00 00 1e 8c 65 ed               |   ......e.     |      [13]: "1986-03-29T22:00:13Z" (512517613) transition_time 0x303-0x30a.7 (8)
0x300|                                 00 00 00 00 1f|           .....|      [14]: "1986-09-27T22:00:13Z" (528242413) transition_time 0x30b-0x312.7 (8)
0x310|7c 56 ed                                       ||V.             |
0x310|         00 00 00 00 20 6c 47 ed               |   .... lG.     |      [15]: "1987-03-28T22:00:13Z" (543967213) transition_time 0x313-0x31a.7 (8)
0x310|                                 00 00 00 00 21|           ....!|      [16]: "1987-09-26T22:00:13Z" (559692013) transition_time 0x31b-0x322.7 (8)
0x320|5c 38 ed                                       |\8.             |
0x320|         00 00 00 00 22 4c 29 ee               |   ...."L).     |      [17]: "1988-03-26T22:00:14Z" (575416814) transition_time 0x323-0x32a.7 (8)
0x320|                                 00 00 00 00 23|           ....#|      [18]: "1988-09-24T22:00:14Z" (591141614) transition_time 0x32b-0x332.7 (8)
0x330|3c 1a ee                                       |<..             |
0x330|         00 00 00 00 24 2c 0b ee               |   ....$,..     |      [19]: "1989-03-25T22:00:14Z" (606866414) transition_time 0x333-0x33a.7 (8)
0x330|                                 00 00 00 00 25|           ....%|      [20]: "1989-09-23T22:00:14Z" (622591214) transition_time 0x33b-0x342.7 (8)
0x340|1b fc ee                                       |...             |
0x340|         00 00 00 00 26 0b ed ef               |   ....&...     |      [21]: "1990-03-24T22:00:15Z" (638316015) transition_time 0x343-0x34a.7 (8)
0x340|                                 00 00 00 00 27|           ....'|      [22]: "1990-09-29T22:00:15Z" (654645615) transition_time 0x34b-0x352.7 (8)
0x350|05 19 6f                                       |..o             |
0x350|         00 00 00 00 27 f5 0a 70               |   ....'..p     |      [23]: "1991-03-30T22:00:16Z" (670370416) transition_time 0x353-0x35a.7 (8)
0x350|                                 00 00 00 00 28|           ....(|      [24]: "1991-09-28T23:00:16Z" (686098816) transition_time 0x35b-0x362.7 (8)
0x360|e5 09 80                                       |...             |
0x360|         00 00 00 00 29 d4 de 60               |   ....)..`     |      [25]: "1992-03-28T21:00:16Z" (701816416) transition_time 0x363-0x36a.7 (8)
0x360|                                 00 00 00 00 2a|           ....*|      [26]: "1992-09-26T20:00:17Z" (717537617) transition_time 0x36b-0x372.7 (8)
0x370|c4 c1 51                                       |..Q             |
0x370|         00 00 00 00 2b b4 c0 61               |   ....+..a     |      [27]: "1993-03-27T21:00:17Z" (733266017) transition_time 0x373-0x37a.7 (8)
0x370|                                 00 00 00 00 2c|           ....,|      [28]: "1993-09-25T20:00:18Z" (748987218) transition_time 0x37b-0x382.7 (8)
0x380|a4 a3 52                                       |..R             |
0x380|         00 00 00 00 2d 94 a2 62               |   ....-..b     |      [29]: "1994-03-26T21:00:18Z" (764715618) transition_time 0x383-0x38a.7 (8)
0x380|                                 00 00 00 00 2e|           .....|      [30]: "1994-09-24T20:00:19Z" (780436819) transition_time 0x38b-0x392.7 (8)
0x390|84 85 53                                       |..S             |
0x390|         00 00 00 00 2f 74 76 53               |   ..../tvS     |      [31]: "1995-03-25T20:00:19Z" (796161619) transition_time 0x393-0x39a.7 (8)
0x390|                                 00 00 00 00 30|           ....0|      [32]: "1995-09-23T19:00:19Z" (811882819) transition_time 0x39b-0x3a2.7 (8)
0x3a0|64 59 43                                       |dYC             |
0x3a0|         00 00 00 00 31 5d 92 d4               |   ....1]..     |      [33]: "1996-03-30T20:00:20Z" (828216020) transition_time 0x3a3-0x3aa.7 (8)
0x3a0|                                 00 00 00 00 33|           ....3|      [34]: "1997-03-29T19:00:20Z" (859662020) transition_time 0x3ab-0x3b2.7 (8)
0x3b0|3d 66 c4                                       |=f.             |
0x3b0|         00 00 00 00 34 52 41 c5               |   ....4RA.     |      [35]: "1997-10-25T19:00:21Z" (877806021) transition_time 0x3b3-0x3ba.7 (8)
0x3b0|                                 00 00 00 00 35|           ....5|      [36]: "1998-03-28T20:00:21Z" (891115221) transition_time 0x3bb-0x3c2.7 (8)
0x3c0|1d 56 d5                                       |.V.             |
0x3c0|         00 00 00 00 36 32 23 c5               |   ....62#.     |      [37]: "1998-10-24T19:00:21Z" (909255621) transition_time 0x3c3-0x3ca.7 (8)
0x3c0|                                 00 00 00 00 36|           ....6|      [38]: "1999-03-27T20:00:22Z" (922564822) transition_time 0x3cb-0x3d2.7 (8)
0x3d0|fd 38 d6                                       |.8.             |
0x3d0|         00 00 00 00 38 1b 40 46               |   ....8.@F     |      [39]: "1999-10-30T19:00:22Z" (941310022) transition_time 0x3d3-0x3da.7 (8)
0x3d0|                                 00 00 00 00 38|           ....8|      [40]: "2000-03-25T20:00:22Z" (954014422) transition_time 0x3db-0x3e2.7 (8)
0x3e0|dd 1a d6                                       |...             |
0x3e0|         00 00 00 00 39 fb 22 46               |   ....9."F     |      [41]: "2000-10-28T19:00:22Z" (972759622) transition_time 0x3e3-0x3ea.7 (8)
0x3e0|                                 00 00 00 00 3a|           ....:|      [42]: "2001-03-24T20:00:22Z" (985464022) transition_time 0x3eb-0x3f2.7 (8)
0x3f0|bc fc d6                                       |...             |
0x3f0|         00 00 00 00 3b db 04 46               |   ....;..F     |      [43]: "2001-10-27T19:00:22Z" (1004209222) transition_time 0x3f3-0x3fa.7 (8)
0x3f0|                                 00 00 00 00 3c|           ....<|      [44]: "2002-03-30T20:00:22Z" (1017518422) transition_time 0x3fb-0x402.7 (8)
0x400|a6 19 56                                       |..V             |
0x400|         00 00 00 00 3d ba e6 46               |   ....=..F     |      [45]: "2002-10-26T19:00:22Z" (1035658822) transition_time 0x403-0x40a.7 (8)
0x400|                                 00 00 00 00 3e|           ....>|      [46]: "2003-03-29T20:00:22Z" (1048968022) transition_time 0x40b-0x412.7 (8)
0x410|85 fb 56                                       |..V             |
0x410|         00 00 00 00 3f 9a c8 46               |   ....?..F     |      [47]: "2003-10-25T19:00:22Z" (1067108422) transition_time 0x413-0x41a.7 (8)
0x410|                                 00 00 00 00 40|           ....@|      [48]: "2004-03-27T20:00:22Z" (1080417622) transition_time 0x41b-0x422.7 (8)
0x420|65 dd 56                                       |e.V             |
0x420|         00 00 00 00 40 dd c7 c6               |   ....@...     |      [49]: "2004-06-26T19:00:22Z" (1088276422) transition_time 0x423-0x42a.7 (8)
0x420|                                 00 00 00 00 41|           ....A|      [50]: "2004-10-30T23:00:22Z" (1099177222) transition_time 0x42b-0x432.7 (8)
0x430|84 1d 06                                       |...             |
0x430|         00 00 00 00 42 45 e9 86               |   ....BE..     |      [51]: "2005-03-26T23:00:22Z" (1111878022) transition_time 0x433-0x43a.7 (8)
0x430|                                 00 00 00 00 64|           ....d|      [52]: "2023-06-28T00:00:27Z" (1687910427) transition_time 0x43b-0x442.7 (8)
0x440|9b 78 1b                                       |.x.             |
     |                                               |                |    transition_types[0:53]: 0x443-0x477.7 (53)
0x440|         01                                    |   .            |      [0]: 1 transition_type 0x443-0x443.7 (1)
0x440|            02                                 |    .           |      [1]: 2 transition_type 0x444-0x444.7 (1)
0x440|               04                              |     .          |      [2]: 4 transition_type 0x445-0x445.7 (1)
0x440|                  03                           |      .         |      [3]: 3 transition_type 0x446-0x446.7 (1)
0x440|                     04                        |       .        |      [4]: 4 transition_type 0x447-0x447.7 (1)
0x440|                        03                     |        .       |      [5]: 3 transition_type 0x448-0x448.7 (1)
0x440|                           04                  |         .      |      [6]: 4 transition_type 0x449-0x449.7 (1)
0x440|                              03               |          .     |      [7]: 3 transition_type 0x44a-0x44a.7 (1)
0x440|                                 04            |           .    |      [8]: 4 transition_type 0x44b-0x44b.7 (1)
0x440|                                    03         |            .   |      [9]: 3 transition_type 0x44c-0x44c.7 (1)
0x440|                                       05      |             .  |      [10]: 5 transition_type 0x44d-0x44d.7 (1)
0x440|                                          06   |              . |      [11]: 6 transition_type 0x44e-0x44e.7 (1)
0x440|                                             05|               .|      [12]: 5 transition_type 0x44f-0x44f.7 (1)
0x450|06                                             |.               |      [13]: 6 transition_type 0x450-0x450.7 (1)
0x450|   05                                          | .              |      [14]: 5 transition_type 0x451-0x451.7 (1)
0x450|      06                                       |  .             |      [15]: 6 transition_type 0x452-0x452.7 (1)
0x450|         05                                    |   .            |      [16]: 5 transition_type 0x453-0x453.7 (1)
0x450|            06                                 |    .           |      [17]: 6 transition_type 0x454-0x454.7 (1)
0x450|               05                              |     .          |      [18]: 5 transition_type 0x455-0x455.7 (1)
0x450|                  06                           |      .         |      [19]: 6 transition_type 0x456-0x456.7 (1)
0x450|                     05                        |       .        |      [20]: 5 transition_type 0x457-0x457.7 (1)
0x450|                        06                     |        .       |      [21]: 6 transition_type 0x458-0x458.7 (1)
0x450|                           05                  |         .      |      [22]: 5 transition_type 0x459-0x459.7 (1)
0x450|                              07               |          .     |      [23]: 7 transition_type 0x45a-0x45a.7 (1)
0x450|                                 08            |           .    |      [24]: 8 transition_type 0x45b-0x45b.7 (1)
0x450|                                    09         |            .   |      [25]: 9 transition_type 0x45c-0x45c.7 (1)
0x450|                                       02      |             .  |      [26]: 2 transition_type 0x45d-0x45d.7 (1)
0x450|                                          09   |              . |      [27]: 9 transition_type 0x45e-0x45e.7 (1)
0x450|                                             02|               .|      [28]: 2 transition_type 0x45f-0x45f.7 (1)
0x460|09                                             |.               |      [29]: 9 transition_type 0x460-0x460.7 (1)
0x460|   04                                          | .              |      [30]: 4 transition_type 0x461-0x461.7 (1)
0x460|      03                                       |  .             |      [31]: 3 transition_type 0x462-0x462.7 (1)
0x460|         04                                    |   .            |      [32]: 4 transition_type 0x463-0x463.7 (1)
0x460|            03                                 |    .           |      [33]: 3 transition_type 0x464-0x464.7 (1)
0x460|               03                              |     .          |      [34]: 3 transition_type 0x465-0x465.7 (1)
0x460|                  04                           |      .         |      [35]: 4 transition_type 0x466-0x466.7 (1)
0x460|                     03                        |       .        |      [36]: 3 transition_type 0x467-0x467.7 (1)
0x460|                        04                     |        .       |      [37]: 4 transition_type 0x468-0x468.7 (1)
0x460|                           03                  |         .      |      [38]: 3 transition_type 0x469-0x469.7 (1)
0x460|                              04               |          .     |      [39]: 4 transition_type 0x46a-0x46a.7 (1)
0x460|                                 03            |           .    |      [40]: 3 transition_type 0x46b-0x46b.7 (1)
0x460|                                    04         |            .   |      [41]: 4 transition_type 0x46c-0x46c.7 (1)
0x460|                                       03      |             .  |      [42]: 3 transition_type 0x46d-0x46d.7 (1)
0x460|                                          04   |              . |      [43]: 4 transition_type 0x46e-0x46e.7 (1)
0x460|                                             03|               .|      [44]: 3 transition_type 0x46f-0x46f.7 (1)
0x470|04                                             |.               |      [45]: 4 transition_type 0x470-0x470.7 (1)
0x470|   03                                          | .              |      [46]: 3 transition_type 0x471-0x471.7 (1)
0x470|      04                                       |  .             |      [47]: 4 transition_type 0x472-0x472.7 (1)
0x470|         03                                    |   .            |      [48]: 3 transition_type 0x473-0x473.7 (1)
0x470|            09                                 |    .           |      [49]: 9 transition_type 0x474-0x474.7 (1)
0x470|               08                              |     .          |      [50]: 8 transition_type 0x475-0x475.7 (1)
0x470|                  04                           |      .         |      [51]: 4 transition_type 0x476-0x476.7 (1)
0x470|                     04                        |       .        |      [52]: 4 transition_type 0x477-0x477.7 (1)
     |                                               |                |    local_time_type_records[0:11]: 0x478-0x4b9.7 (66)
     |                                               |                |      [0]{}: local_time_type 0x478-0x47d.7 (6)
0x470|                        00 00 29 ff            |        ..).    |        utoff: 10751 (valid) 0x478-0x47b.7 (4)
0x470|                                    00         |            .   |        dst: 0 (valid) 0x47c-0x47c.7 (1)
0x470|                                       00      |             .  |        idx: 0 (valid) 0x47d-0x47d.7 (1)
     |                                               |                |      [1]{}: local_time_type 0x47e-0x483.7 (6)
0x470|                                          00 00|              ..|        utoff: 10751 (valid) 0x47e-0x481.7 (4)
0x480|29 ff                                          |).              |
0x480|      00                                       |  .             |        dst: 0 (valid) 0x482-0x482.7 (1)
0x480|         04                                    |   .            |        idx: 4 (valid) 0x483-0x483.7 (1)
     |                                               |                |      [2]{}: local_time_type 0x484-0x489.7 (6)
0x480|            00 00 2a 30                        |    ..*0        |        utoff: 10800 (valid) 0x484-0x487.7 (4)
0x480|                        00                     |        .       |        dst: 0 (valid) 0x488-0x488.7 (1)
0x480|                           09                  |         .      |        idx: 9 (valid) 0x489-0x489.7 (1)
     |                                               |                |      [3]{}: local_time_type 0x48a-0x48f.7 (6)
0x480|                              00 00 46 50      |          ..FP  |        utoff: 18000 (valid) 0x48a-0x48d.7 (4)
0x480|                                          01   |              . |        dst: 1 (valid) 0x48e-0x48e.7 (1)
0x480|                                             0d|               .|        idx: 13 (valid) 0x48f-0x48f.7 (1)
     |                                               |                |      [4]{}: local_time_type 0x490-0x495.7 (6)
0x490|00 00 38 40                                    |..8@            |        utoff: 14400 (valid) 0x490-0x493.7 (4)
0x490|            00                                 |    .           |        dst: 0 (valid) 0x494-0x494.7 (1)
0x490|               11                              |     .          |        idx: 17 (valid) 0x495-0x495.7 (1)
     |                                               |                |      [5]{}: local_time_type 0x496-0x49b.7 (6)
0x490|                  00 00 38 40                  |      ..8@      |        utoff: 14400 (valid) 0x496-0x499.7 (4)
0x490|                              00               |          .     |        dst: 0 (valid) 0x49a-0x49a.7 (1)
0x490|                                 11            |           .    |        idx: 17 (valid) 0x49b-0x49b.7 (1)
     |                                               |                |      [6]{}: local_time_type 0x49c-0x4a1.7 (6)
0x490|                                    00 00 46 50|            ..FP|        utoff: 18000 (valid) 0x49c-0x49f.7 (4)
0x4a0|01                                             |.               |        dst: 1 (valid) 0x4a0-0x4a0.7 (1)
0x4a0|   0d                                          | .              |        idx: 13 (valid) 0x4a1-0x4a1.7 (1)
     |                                               |                |      [7]{}: local_time_type 0x4a2-0x4a7.7 (6)
0x4a0|      00 00 38 40                              |  ..8@          |        utoff: 14400 (valid) 0x4a2-0x4a5.7 (4)
0x4a0|                  01                           |      .         |        dst: 1 (valid) 0x4a6-0x4a6.7 (1)
0x4a0|                     11                        |       .        |        idx: 17 (valid) 0x4a7-0x4a7.7 (1)
     |                                               |                |      [8]{}: local_time_type 0x4a8-0x4ad.7 (6)
0x4a0|                        00 00 2a 30            |        ..*0    |        utoff: 10800 (valid) 0x4a8-0x4ab.7 (4)
0x4a0|                                    00         |            .   |        dst: 0 (valid) 0x4ac-0x4ac.7 (1)
0x4a0|                                       09      |             .  |        idx: 9 (valid) 0x4ad-0x4ad.7 (1)
     |                                               |                |      [9]{}: local_time_type 0x4ae-0x4b3.7 (6)
0x4a0|                                          00 00|              ..|        utoff: 14400 (valid) 0x4ae-0x4b1.7 (4)
0x4b0|38 40                                          |8@              |
0x4b0|      01                                       |  .             |        dst: 1 (valid) 0x4b2-0x4b2.7 (1)
0x4b0|         11                                    |   .            |        idx: 17 (valid) 0x4b3-0x4b3.7 (1)
     |                                               |                |      [10]{}: local_time_type 0x4b4-0x4b9.7 (6)
0x4b0|            00 00 38 40                        |    ..8@        |        utoff: 14400 (valid) 0x4b4-0x4b7.7 (4)
0x4b0|                        00                     |        .       |        dst: 0 (valid) 0x4b8-0x4b8.7 (1)
0x4b0|                           11                  |         .      |        idx: 17 (valid) 0x4b9-0x4b9.7 (1)
     |                                               |                |    time_zone_designations[0:5]: 0x4ba-0x4ce.7 (21)
0x4b0|                              4c 4d 54 00      |          LMT.  |      [0]: "LMT" time_zone_designation 0x4ba-0x4bd.7 (4)
0x4b0|                                          54 42|              TB|      [1]: "TBMT" time_zone_designation 0x4be-0x4c2.7 (5)
0x4c0|4d 54 00                                       |MT.             |
0x4c0|         2b 30 33 00                           |   +03.         |      [2]: "+03" time_zone_designation 0x4c3-0x4c6.7 (4)
0x4c0|                     2b 30 35 00               |       +05.     |      [3]: "+05" time_zone_designation 0x4c7-0x4ca.7 (4)
0x4c0|                                 2b 30 34 00   |           +04. |      [4]: "+04" time_zone_designation 0x4cb-0x4ce.7 (4)
     |                                               |                |    leap_second_records[0:27]: 0x4cf-0x612.7 (324)
     |                                               |                |      [0]{}: leap_second_record 0x4cf-0x4da.7 (12)
0x4c0|                                             00|               .|        occur: "1972-07-01T00:00:00Z" (78796800) 0x4cf-0x4d6.7 (8)
0x4d0|00 00 00 04 b2 58 00                           |.....X.         |
0x4d0|                     00 00 00 01               |       ....     |        corr: 1 0x4d7-0x4da.7 (4)
     |                                               |                |      [1]{}: leap_second_record 0x4db-0x4e6.7 (12)
0x4d0|                                 00 00 00 00 05|           .....|        occur: "1973-01-01T00:00:01Z" (94694401) 0x4db-0x4e2.7 (8)
0x4e0|a4 ec 01                                       |...             |
0x4e0|         00 00 00 02                           |   ....         |        corr: 2 0x4e3-0x4e6.7 (4)
     |                                               |                |      [2]{}: leap_second_record 0x4e7-0x4f2.7 (12)
0x4e0|                     00 00 00 00 07 86 1f 82   |       ........ |        occur: "1974-01-01T00:00:02Z" (126230402) 0x4e7-0x4ee.7 (8)
0x4e0|                                             00|               .|        corr: 3 0x4ef-0x4f2.7 (4)
0x4f0|00 00 03                                       |...             |
     |                                               |                |      [3]{}: leap_second_record 0x4f3-0x4fe.7 (12)
0x4f0|         00 00 00 00 09 67 53 03               |   .....gS.     |        occur: "1975-01-01T00:00:03Z" (157766403) 0x4f3-0x4fa.7 (8)
0x4f0|                                 00 00 00 04   |           .... |        corr: 4 0x4fb-0x4fe.7 (4)
     |                                               |                |      [4]{}: leap_second_record 0x4ff-0x50a.7 (12)
0x4f0|                                             00|               .|        occur: "1976-01-01T00:00:04Z" (189302404) 0x4ff-0x506.7 (8)
0x500|00 00 00 0b 48 86 84                           |....H..         |
0x500|                     00 00 00 05               |       ....     |        corr: 5 0x507-0x50a.7 (4)
     |                                               |                |      [5]{}: leap_second_record 0x50b-0x516.7 (12)
0x500|                                 00 00 00 00 0d|           .....|        occur: "1977-01-01T00:00:05Z" (220924805) 0x50b-0x512.7 (8)
0x510|2b 0b 85                                       |+..             |
0x510|         00 00 00 06                           |   ....         |        corr: 6 0x513-0x516.7 (4)
     |                                               |                |      [6]{}: leap_second_record 0x517-0x522.7 (12)
0x510|                     00 00 00 00 0f 0c 3f 06   |       ......?. |        occur: "1978-01-01T00:00:06Z" (252460806) 0x517-0x51e.7 (8)
0x510|                                             00|               .|        corr: 7 0x51f-0x522.7 (4)
0x520|00 00 07                                       |...             |
     |                                               |                |      [7]{}: leap_second_record 0x523-0x52e.7 (12)
0x520|         00 00 00 00 10 ed 72 87               |   ......r.     |        occur: "1979-01-01T00:00:07Z" (283996807) 0x523-0x52a.7 (8)
0x520|                                 00 00 00 08   |           .... |        corr: 8 0x52b-0x52e.7 (4)
     |                                               |                |      [8]{}: leap_second_record 0x52f-0x53a.7 (12)
0x520|                                             00|               .|        occur: "1980-01-01T00:00:08Z" (315532808) 0x52f-0x536.7 (8)
0x530|00 00 00 12 ce a6 08                           |.......         |
0x530|                     00 00 00 09               |       ....     |        corr: 9 0x537-0x53a.7 (4)
     |                                               |                |      [9]{}: leap_second_record 0x53b-0x546.7 (12)
0x530|                                 00 00 00 00 15|           .....|        occur: "1981-07-01T00:00:09Z" (362793609) 0x53b-0x542.7 (8)
0x540|9f ca 89                                       |...             |
0x540|         00 00 00 0a                           |   ....         |        corr: 10 0x543-0x546.7 (4)
     |                                               |                |      [10]{}: leap_second_record 0x547-0x552.7 (12)
0x540|                     00 00 00 00 17 80 fe 0a   |       ........ |        occur: "1982-07-01T00:00:10Z" (394329610) 0x547-0x54e.7 (8)
0x540|                                             00|               .|        corr: 11 0x54f-0x552.7 (4)
0x550|00 00 0b                                       |...             |
     |                                               |                |      [11]{}: leap_second_record 0x553-0x55e.7 (12)
0x550|         00 00 00 00 19 62 31 8b               |   .....b1.     |        occur: "1983-07-01T00:00:11Z" (425865611) 0x553-0x55a.7 (8)
0x550|                                 00 00 00 0c   |           .... |        corr: 12 0x55b-0x55e.7 (4)
     |                                               |                |      [12]{}: leap_second_record 0x55f-0x56a.7 (12)
0x550|                                             00|               .|        occur: "1985-07-01T00:00:12Z" (489024012) 0x55f-0x566.7 (8)
0x560|00 00 00 1d 25 ea 0c                           |....%..         |
0x560|                     00 00 00 0d               |       ....     |        corr: 13 0x567-0x56a.7 (4)
     |                                               |                |      [13]{}: leap_second_record 0x56b-0x576.7 (12)
0x560|                                 00 00 00 00 21|           ....!|        occur: "1988-01-01T00:00:13Z" (567993613) 0x56b-0x572.7 (8)
0x570|da e5 0d                                       |...             |
0x570|         00 00 00 0e                           |   ....         |        corr: 14 0x573-0x576.7 (4)
     |                                               |                |      [14]{}: leap_second_record 0x577-0x582.7 (12)
0x570|                     00 00 00 00 25 9e 9d 8e   |       ....%... |        occur: "1990-01-01T00:00:14Z" (631152014) 0x577-0x57e.7 (8)
0x570|                                             00|               .|        corr: 15 0x57f-0x582.7 (4)
0x580|00 00 0f                                       |...             |
     |                                               |                |      [15]{}: leap_second_record 0x583-0x58e.7 (12)
0x580|         00 00 00 00 27 7f d1 0f               |   ....'...     |        occur: "1991-01-01T00:00:15Z" (662688015) 0x583-0x58a.7 (8)
0x580|                                 00 00 00 10   |           .... |        corr: 16 0x58b-0x58e.7 (4)
     |                                               |                |      [16]{}: leap_second_record 0x58f-0x59a.7 (12)
0x580|                                             00|               .|        occur: "1992-07-01T00:00:16Z" (709948816) 0x58f-0x596.7 (8)
0x590|00 00 00 2a 50 f5 90                           |...*P..         |
0x590|                     00 00 00 11               |       ....     |        corr: 17 0x597-0x59a.7 (4)
     |                                               |                |      [17]{}: leap_second_record 0x59b-0x5a6.7 (12)
0x590|                                 00 00 00 00 2c|           ....,|        occur: "1993-07-01T00:00:17Z" (741484817) 0x59b-0x5a2.7 (8)
0x5a0|32 29 11                                       |2).             |
0x5a0|         00 00 00 12                           |   ....         |        corr: 18 0x5a3-0x5a6.7 (4)
     |                                               |                |      [18]{}: leap_second_record 0x5a7-0x5b2.7 (12)
0x5a0|                     00 00 00 00 2e 13 5c 92   |       ......\. |        occur: "1994-07-01T00:00:18Z" (773020818) 0x5a7-0x5ae.7 (8)
0x5a0|                                             00|               .|        corr: 19 0x5af-0x5b2.7 (4)
0x5b0|00 00 13                                       |...             |
     |                                               |                |      [19]{}: leap_second_record 0x5b3-0x5be.7 (12)
0x5b0|         00 00 00 00 30 e7 24 13               |   ....0.$.     |        occur: "1996-01-01T00:00:19Z" (820454419) 0x5b3-0x5ba.7 (8)
0x5b0|                                 00 00 00 14   |           .... |        corr: 20 0x5bb-0x5be.7 (4)
     |                                               |                |      [20]{}: leap_second_record 0x5bf-0x5ca.7 (12)
0x5b0|                                             00|               .|        occur: "1997-07-01T00:00:20Z" (867715220) 0x5bf-0x5c6.7 (8)
0x5c0|00 00 00 33 b8 48 94                           |...3.H.         |
0x5c0|                     00 00 00 15               |       ....     |        corr: 21 0x5c7-0x5ca.7 (4)
     |                                               |                |      [21]{}: leap_second_record 0x5cb-0x5d6.7 (12)
0x5c0|                                 00 00 00 00 36|           ....6|        occur: "1999-01-01T00:00:21Z" (915148821) 0x5cb-0x5d2.7 (8)
0x5d0|8c 10 15                                       |...             |
0x5d0|         00 00 00 16                           |   ....         |        corr: 22 0x5d3-0x5d6.7 (4)
     |                                               |                |      [22]{}: leap_second_record 0x5d7-0x5e2.7 (12)
0x5d0|                     00 00 00 00 43 b7 1b 96   |       ....C... |        occur: "2006-01-01T00:00:22Z" (1136073622) 0x5d7-0x5de.7 (8)
0x5d0|                                             00|               .|        corr: 23 0x5df-0x5e2.7 (4)
0x5e0|00 00 17                                       |...             |
     |                                               |                |      [23]{}: leap_second_record 0x5e3-0x5ee.7 (12)
0x5e0|         00 00 00 00 49 5c 07 97               |   ....I\..     |        occur: "2009-01-01T00:00:23Z" (1230768023) 0x5e3-0x5ea.7 (8)
0x5e0|                                 00 00 00 18   |           .... |        corr: 24 0x5eb-0x5ee.7 (4)
     |                                               |                |      [24]{}: leap_second_record 0x5ef-0x5fa.7 (12)
0x5e0|                                             00|               .|        occur: "2012-07-01T00:00:24Z" (1341100824) 0x5ef-0x5f6.7 (8)
0x5f0|00 00 00 4f ef 93 18                           |...O...         |
0x5f0|                     00 00 00 19               |       ....     |        corr: 25 0x5f7-0x5fa.7 (4)
     |                                               |                |      [25]{}: leap_second_record 0x5fb-0x606.7 (12)
0x5f0|                                 00 00 00 00 55|           ....U|        occur: "2015-07-01T00:00:25Z" (1435708825) 0x5fb-0x602.7 (8)
0x600|93 2d 99                                       |.-.             |
0x600|         00 00 00 1a                           |   ....         |        corr: 26 0x603-0x606.7 (4)
     |                                               |                |      [26]{}: leap_second_record 0x607-0x612.7 (12)
0x600|                     00 00 00 00 58 68 46 9a   |       ....XhF. |        occur: "2017-01-01T00:00:26Z" (1483228826) 0x607-0x60e.7 (8)
0x600|                                             00|               .|        corr: 27 0x60f-0x612.7 (4)
0x610|00 00 1b                                       |...             |
     |                                               |                |    standard_wall_indicators[0:11]: 0x613-0x61d.7 (11)
0x610|         00                                    |   .            |      [0]: 0 standard_wall_indicator (valid) 0x613-0x613.7 (1)
0x610|            00                                 |    .           |      [1]: 0 standard_wall_indicator (valid) 0x614-0x614.7 (1)
0x610|               00                              |     .          |      [2]: 0 standard_wall_indicator (valid) 0x615-0x615.7 (1)
0x610|                  00                           |      .         |      [3]: 0 standard_wall_indicator (valid) 0x616-0x616.7 (1)
0x610|                     00                        |       .        |      [4]: 0 standard_wall_indicator (valid) 0x617-0x617.7 (1)
0x610|                        01                     |        .       |      [5]: 1 standard_wall_indicator (valid) 0x618-0x618.7 (1)
0x610|                           01                  |         .      |      [6]: 1 standard_wall_indicator (valid) 0x619-0x619.7 (1)
0x610|                              01               |          .     |      [7]: 1 standard_wall_indicator (valid) 0x61a-0x61a.7 (1)
0x610|                                 01            |           .    |      [8]: 1 standard_wall_indicator (valid) 0x61b-0x61b.7 (1)
0x610|                                    00         |            .   |      [9]: 0 standard_wall_indicator (valid) 0x61c-0x61c.7 (1)
0x610|                                       00      |             .  |      [10]: 0 standard_wall_indicator (valid) 0x61d-0x61d.7 (1)
     |                                               |                |    ut_local_indicators[0:0]: 0x61e-NA (0)
     |                                               |                |  footer{}: 0x61e-0x61f.7 (2)
0x610|                                          0a   |              . |    nl1: 10 (valid) 0x61e-0x61e.7 (1)
     |                                               |                |    tz_string: "" 0x61f-NA (0)
0x610|                                             0a|               .|    nl2: 10 (valid) 0x61f-0x61f.7 (1)
