$ fq -d tzif dv Tegucigalpa
     |00 01 02 03 04 05 06 07 08 09 0a 0b 0c 0d 0e 0f|0123456789abcdef|.{}: Tegucigalpa (tzif) 0x0-0x322 (802)
     |                                               |                |  v1header{}: 0x0-0x2c (44)
0x000|54 5a 69 66                                    |TZif            |    magic: 0x545a6966 (valid) 0x0-0x4 (4)
0x000|            32                                 |    2           |    ver: "2" (0x32) (valid) 0x4-0x5 (1)
0x000|               00 00 00 00 00 00 00 00 00 00 00|     ...........|    reserved: raw bits 0x5-0x14 (15)
0x010|00 00 00 00                                    |....            |
0x010|            00 00 00 00                        |    ....        |    isutcnt: 0 0x14-0x18 (4)
0x010|                        00 00 00 00            |        ....    |    isstdcnt: 0 0x18-0x1c (4)
0x010|                                    00 00 00 1b|            ....|    leapcnt: 27 0x1c-0x20 (4)
0x020|00 00 00 08                                    |....            |    timecnt: 8 0x20-0x24 (4)
0x020|            00 00 00 03                        |    ....        |    typecnt: 3 0x24-0x28 (4)
0x020|                        00 00 00 0c            |        ....    |    charcnt: 12 0x28-0x2c (4)
     |                                               |                |  v1datablock{}: 0x2c-0x14a (286)
     |                                               |                |    transition_times[0:8]: 0x2c-0x4c (32)
0x020|                                    a4 4c 4b 44|            .LKD|      [0]: "1921-04-01T05:48:52Z" (-1538503868) transition_time 0x2c-0x30 (4)
0x030|20 9a dc ed                                    | ...            |      [1]: "1987-05-03T06:00:13Z" (547020013) transition_time 0x30-0x34 (4)
0x030|            21 5c 9b 5d                        |    !\.]        |      [2]: "1987-09-27T05:00:13Z" (559717213) transition_time 0x34-0x38 (4)
0x030|                        22 7a be ee            |        "z..    |      [3]: "1988-05-01T06:00:14Z" (578469614) transition_time 0x38-0x3c (4)
0x030|                                    23 3c 7d 5e|            #<}^|      [4]: "1988-09-25T05:00:14Z" (591166814) transition_time 0x3c-0x40 (4)
0x040|44 5d 8c f7                                    |D]..            |      [5]: "2006-05-07T06:00:23Z" (1146981623) transition_time 0x40-0x44 (4)
0x040|            44 d6 c8 e7                        |    D...        |      [6]: "2006-08-07T05:00:23Z" (1154926823) transition_time 0x44-0x48 (4)
0x040|                        64 9b 78 1b            |        d.x.    |      [7]: "2023-06-28T00:00:27Z" (1687910427) transition_time 0x48-0x4c (4)
     |                                               |                |    transition_types[0:8]: 0x4c-0x54 (8)
0x040|                                    02         |            .   |      [0]: 2 transition_type 0x4c-0x4d (1)
0x040|                                       01      |             .  |      [1]: 1 transition_type 0x4d-0x4e (1)
0x040|                                          02   |              . |      [2]: 2 transition_type 0x4e-0x4f (1)
0x040|                                             01|               .|      [3]: 1 transition_type 0x4f-0x50 (1)
0x050|02                                             |.               |      [4]: 2 transition_type 0x50-0x51 (1)
0x050|   01                                          | .              |      [5]: 1 transition_type 0x51-0x52 (1)
0x050|      02                                       |  .             |      [6]: 2 transition_type 0x52-0x53 (1)
0x050|         02                                    |   .            |      [7]: 2 transition_type 0x53-0x54 (1)
     |                                               |                |    local_time_type_records[0:3]: 0x54-0x66 (18)
     |                                               |                |      [0]{}: local_time_type 0x54-0x5a (6)
0x050|            ff ff ae 3c                        |    ...<        |        utoff: -20932 (valid) 0x54-0x58 (4)
0x050|                        00                     |        .       |        dst: 0 (valid) 0x58-0x59 (1)
0x050|                           00                  |         .      |        idx: 0 (valid) 0x59-0x5a (1)
     |                                               |                |      [1]{}: local_time_type 0x5a-0x60 (6)
0x050|                              ff ff b9 b0      |          ....  |        utoff: -18000 (valid) 0x5a-0x5e (4)
0x050|                                          01   |              . |        dst: 1 (valid) 0x5e-0x5f (1)
0x050|                                             04|               .|        idx: 4 (valid) 0x5f-0x60 (1)
     |                                               |                |      [2]{}: local_time_type 0x60-0x66 (6)
0x060|ff ff ab a0                                    |....            |        utoff: -21600 (valid) 0x60-0x64 (4)
0x060|            00                                 |    .           |        dst: 0 (valid) 0x64-0x65 (1)
0x060|               08                              |     .          |        idx: 8 (valid) 0x65-0x66 (1)
     |                                               |                |    time_zone_designations[0:3]: 0x66-0x72 (12)
0x060|                  4c 4d 54 00                  |      LMT.      |      [0]: "LMT" time_zone_designation 0x66-0x6a (4)
0x060|                              43 44 54 00      |          CDT.  |      [1]: "CDT" time_zone_designation 0x6a-0x6e (4)
0x060|                                          43 53|              CS|      [2]: "CST" time_zone_designation 0x6e-0x72 (4)
0x070|54 00                                          |T.              |
     |                                               |                |    leap_second_records[0:27]: 0x72-0x14a (216)
     |                                               |                |      [0]{}: leap_second_record 0x72-0x7a (8)
0x070|      04 b2 58 00                              |  ..X.          |        occur: "1972-07-01T00:00:00Z" (78796800) 0x72-0x76 (4)
0x070|                  00 00 00 01                  |      ....      |        corr: 1 0x76-0x7a (4)
     |                                               |                |      [1]{}: leap_second_record 0x7a-0x82 (8)
0x070|                              05 a4 ec 01      |          ....  |        occur: "1973-01-01T00:00:01Z" (94694401) 0x7a-0x7e (4)
0x070|                                          00 00|              ..|        corr: 2 0x7e-0x82 (4)
0x080|00 02                                          |..              |
     |                                               |                |      [2]{}: leap_second_record 0x82-0x8a (8)
0x080|      07 86 1f 82                              |  ....          |        occur: "1974-01-01T00:00:02Z" (126230402) 0x82-0x86 (4)
0x080|                  00 00 00 03                  |      ....      |        corr: 3 0x86-0x8a (4)
     |                                               |                |      [3]{}: leap_second_record 0x8a-0x92 (8)
0x080|                              09 67 53 03      |          .gS.  |        occur: "1975-01-01T00:00:03Z" (157766403) 0x8a-0x8e (4)
0x080|                                          00 00|              ..|        corr: 4 0x8e-0x92 (4)
0x090|00 04                                          |..              |
     |                                               |                |      [4]{}: leap_second_record 0x92-0x9a (8)
0x090|      0b 48 86 84                              |  .H..          |        occur: "1976-01-01T00:00:04Z" (189302404) 0x92-0x96 (4)
0x090|                  00 00 00 05                  |      ....      |        corr: 5 0x96-0x9a (4)
     |                                               |                |      [5]{}: leap_second_record 0x9a-0xa2 (8)
0x090|                              0d 2b 0b 85      |          .+..  |        occur: "1977-01-01T00:00:05Z" (220924805) 0x9a-0x9e (4)
0x090|                                          00 00|              ..|        corr: 6 0x9e-0xa2 (4)
0x0a0|00 06                                          |..              |
     |                                               |                |      [6]{}: leap_second_record 0xa2-0xaa (8)
0x0a0|      0f 0c 3f 06                              |  ..?.          |        occur: "1978-01-01T00:00:06Z" (252460806) 0xa2-0xa6 (4)
0x0a0|                  00 00 00 07                  |      ....      |        corr: 7 0xa6-0xaa (4)
     |                                               |                |      [7]{}: leap_second_record 0xaa-0xb2 (8)
0x0a0|                              10 ed 72 87      |          ..r.  |        occur: "1979-01-01T00:00:07Z" (283996807) 0xaa-0xae (4)
0x0a0|                                          00 00|              ..|        corr: 8 0xae-0xb2 (4)
0x0b0|00 08                                          |..              |
     |                                               |                |      [8]{}: leap_second_record 0xb2-0xba (8)
0x0b0|      12 ce a6 08                              |  ....          |        occur: "1980-01-01T00:00:08Z" (315532808) 0xb2-0xb6 (4)
0x0b0|                  00 00 00 09                  |      ....      |        corr: 9 0xb6-0xba (4)
     |                                               |                |      [9]{}: leap_second_record 0xba-0xc2 (8)
0x0b0|                              15 9f ca 89      |          ....  |        occur: "1981-07-01T00:00:09Z" (362793609) 0xba-0xbe (4)
0x0b0|                                          00 00|              ..|        corr: 10 0xbe-0xc2 (4)
0x0c0|00 0a                                          |..              |
     |                                               |                |      [10]{}: leap_second_record 0xc2-0xca (8)
0x0c0|      17 80 fe 0a                              |  ....          |        occur: "1982-07-01T00:00:10Z" (394329610) 0xc2-0xc6 (4)
0x0c0|                  00 00 00 0b                  |      ....      |        corr: 11 0xc6-0xca (4)
     |                                               |                |      [11]{}: leap_second_record 0xca-0xd2 (8)
0x0c0|                              19 62 31 8b      |          .b1.  |        occur: "1983-07-01T00:00:11Z" (425865611) 0xca-0xce (4)
0x0c0|                                          00 00|              ..|        corr: 12 0xce-0xd2 (4)
0x0d0|00 0c                                          |..              |
     |                                               |                |      [12]{}: leap_second_record 0xd2-0xda (8)
0x0d0|      1d 25 ea 0c                              |  .%..          |        occur: "1985-07-01T00:00:12Z" (489024012) 0xd2-0xd6 (4)
0x0d0|                  00 00 00 0d                  |      ....      |        corr: 13 0xd6-0xda (4)
     |                                               |                |      [13]{}: leap_second_record 0xda-0xe2 (8)
0x0d0|                              21 da e5 0d      |          !...  |        occur: "1988-01-01T00:00:13Z" (567993613) 0xda-0xde (4)
0x0d0|                                          00 00|              ..|        corr: 14 0xde-0xe2 (4)
0x0e0|00 0e                                          |..              |
     |                                               |                |      [14]{}: leap_second_record 0xe2-0xea (8)
0x0e0|      25 9e 9d 8e                              |  %...          |        occur: "1990-01-01T00:00:14Z" (631152014) 0xe2-0xe6 (4)
0x0e0|                  00 00 00 0f                  |      ....      |        corr: 15 0xe6-0xea (4)
     |                                               |                |      [15]{}: leap_second_record 0xea-0xf2 (8)
0x0e0|                              27 7f d1 0f      |          '...  |        occur: "1991-01-01T00:00:15Z" (662688015) 0xea-0xee (4)
0x0e0|                                          00 00|              ..|        corr: 16 0xee-0xf2 (4)
0x0f0|00 10                                          |..              |
     |                                               |                |      [16]{}: leap_second_record 0xf2-0xfa (8)
0x0f0|      2a 50 f5 90                              |  *P..          |        occur: "1992-07-01T00:00:16Z" (709948816) 0xf2-0xf6 (4)
0x0f0|                  00 00 00 11                  |      ....      |        corr: 17 0xf6-0xfa (4)
     |                                               |                |      [17]{}: leap_second_record 0xfa-0x102 (8)
0x0f0|                              2c 32 29 11      |          ,2).  |        occur: "1993-07-01T00:00:17Z" (741484817) 0xfa-0xfe (4)
0x0f0|                                          00 00|              ..|        corr: 18 0xfe-0x102 (4)
0x100|00 12                                          |..              |
     |                                               |                |      [18]{}: leap_second_record 0x102-0x10a (8)
0x100|      2e 13 5c 92                              |  ..\.          |        occur: "1994-07-01T00:00:18Z" (773020818) 0x102-0x106 (4)
0x100|                  00 00 00 13                  |      ....      |        corr: 19 0x106-0x10a (4)
     |                                               |                |      [19]{}: leap_second_record 0x10a-0x112 (8)
0x100|                              30 e7 24 13      |          0.$.  |        occur: "1996-01-01T00:00:19Z" (820454419) 0x10a-0x10e (4)
0x100|                                          00 00|              ..|        corr: 20 0x10e-0x112 (4)
0x110|00 14                                          |..              |
     |                                               |                |      [20]{}: leap_second_record 0x112-0x11a (8)
0x110|      33 b8 48 94                              |  3.H.          |        occur: "1997-07-01T00:00:20Z" (867715220) 0x112-0x116 (4)
0x110|                  00 00 00 15                  |      ....      |        corr: 21 0x116-0x11a (4)
     |                                               |                |      [21]{}: leap_second_record 0x11a-0x122 (8)
0x110|                              36 8c 10 15      |          6...  |        occur: "1999-01-01T00:00:21Z" (915148821) 0x11a-0x11e (4)
0x110|                                          00 00|              ..|        corr: 22 0x11e-0x122 (4)
0x120|00 16                                          |..              |
     |                                               |                |      [22]{}: leap_second_record 0x122-0x12a (8)
0x120|      43 b7 1b 96                              |  C...          |        occur: "2006-01-01T00:00:22Z" (1136073622) 0x122-0x126 (4)
0x120|                  00 00 00 17                  |      ....      |        corr: 23 0x126-0x12a (4)
     |                                               |                |      [23]{}: leap_second_record 0x12a-0x132 (8)
0x120|                              49 5c 07 97      |          I\..  |        occur: "2009-01-01T00:00:23Z" (1230768023) 0x12a-0x12e (4)
0x120|                                          00 00|              ..|        corr: 24 0x12e-0x132 (4)
0x130|00 18                                          |..              |
     |                                               |                |      [24]{}: leap_second_record 0x132-0x13a (8)
0x130|      4f ef 93 18                              |  O...          |        occur: "2012-07-01T00:00:24Z" (1341100824) 0x132-0x136 (4)
0x130|                  00 00 00 19                  |      ....      |        corr: 25 0x136-0x13a (4)
     |                                               |                |      [25]{}: leap_second_record 0x13a-0x142 (8)
0x130|                              55 93 2d 99      |          U.-.  |        occur: "2015-07-01T00:00:25Z" (1435708825) 0x13a-0x13e (4)
0x130|                                          00 00|              ..|        corr: 26 0x13e-0x142 (4)
0x140|00 1a                                          |..              |
     |                                               |                |      [26]{}: leap_second_record 0x142-0x14a (8)
0x140|      58 68 46 9a                              |  XhF.          |        occur: "2017-01-01T00:00:26Z" (1483228826) 0x142-0x146 (4)
0x140|                  00 00 00 1b                  |      ....      |        corr: 27 0x146-0x14a (4)
     |                                               |                |    standard_wall_indicators[0:0]: 0x14a-0x14a (0)
     |                                               |                |    ut_local_indicators[0:0]: 0x14a-0x14a (0)
     |                                               |                |  v2plusheader{}: 0x14a-0x176 (44)
0x140|                              54 5a 69 66      |          TZif  |    magic: 0x545a6966 (valid) 0x14a-0x14e (4)
0x140|                                          32   |              2 |    ver: "2" (0x32) (valid) 0x14e-0x14f (1)
0x140|                                             00|               .|    reserved: raw bits 0x14f-0x15e (15)
0x150|00 00 00 00 00 00 00 00 00 00 00 00 00 00      |..............  |
0x150|                                          00 00|              ..|    isutcnt: 0 0x15e-0x162 (4)
0x160|00 00                                          |..              |
0x160|      00 00 00 00                              |  ....          |    isstdcnt: 0 0x162-0x166 (4)
0x160|                  00 00 00 1b                  |      ....      |    leapcnt: 27 0x166-0x16a (4)
0x160|                              00 00 00 08      |          ....  |    timecnt: 8 0x16a-0x16e (4)
0x160|                                          00 00|              ..|    typecnt: 3 0x16e-0x172 (4)
0x170|00 03                                          |..              |
0x170|      00 00 00 0c                              |  ....          |    charcnt: 12 0x172-0x176 (4)
     |                                               |                |  v2plusdatablock{}: 0x176-0x320 (426)
     |                                               |                |    transition_times[0:8]: 0x176-0x1b6 (64)
0x170|                  ff ff ff ff a4 4c 4b 44      |      .....LKD  |      [0]: "1921-04-01T05:48:52Z" (-1538503868) transition_time 0x176-0x17e (8)
0x170|                                          00 00|              ..|      [1]: "1987-05-03T06:00:13Z" (547020013) transition_time 0x17e-0x186 (8)
0x180|00 00 20 9a dc ed                              |.. ...          |
0x180|                  00 00 00 00 21 5c 9b 5d      |      ....!\.]  |      [2]: "1987-09-27T05:00:13Z" (559717213) transition_time 0x186-0x18e (8)
0x180|                                          00 00|              ..|      [3]: "1988-05-01T06:00:14Z" (578469614) transition_time 0x18e-0x196 (8)
0x190|00 00 22 7a be ee                              |.."z..          |
0x190|                  00 00 00 00 23 3c 7d 5e      |      ....#<}^  |      [4]: "1988-09-25T05:00:14Z" (591166814) transition_time 0x196-0x19e (8)
0x190|                                          00 00|              ..|      [5]: "2006-05-07T06:00:23Z" (1146981623) transition_time 0x19e-0x1a6 (8)
0x1a0|00 00 44 5d 8c f7                              |..D]..          |
0x1a0|                  00 00 00 00 44 d6 c8 e7      |      ....D...  |      [6]: "2006-08-07T05:00:23Z" (1154926823) transition_time 0x1a6-0x1ae (8)
0x1a0|                                          00 00|              ..|      [7]: "2023-06-28T00:00:27Z" (1687910427) transition_time 0x1ae-0x1b6 (8)
0x1b0|00 00 64 9b 78 1b                              |..d.x.          |
     |                                               |                |    transition_types[0:8]: 0x1b6-0x1be (8)
0x1b0|                  02                           |      .         |      [0]: 2 transition_type 0x1b6-0x1b7 (1)
0x1b0|                     01                        |       .        |      [1]: 1 transition_type 0x1b7-0x1b8 (1)
0x1b0|                        02                     |        .       |      [2]: 2 transition_type 0x1b8-0x1b9 (1)
0x1b0|                           01                  |         .      |      [3]: 1 transition_type 0x1b9-0x1ba (1)
0x1b0|                              02               |          .     |      [4]: 2 transition_type 0x1ba-0x1bb (1)
0x1b0|                                 01            |           .    |      [5]: 1 transition_type 0x1bb-0x1bc (1)
0x1b0|                                    02         |            .   |      [6]: 2 transition_type 0x1bc-0x1bd (1)
0x1b0|                                       02      |             .  |      [7]: 2 transition_type 0x1bd-0x1be (1)
     |                                               |                |    local_time_type_records[0:3]: 0x1be-0x1d0 (18)
     |                                               |                |      [0]{}: local_time_type 0x1be-0x1c4 (6)
0x1b0|                                          ff ff|              ..|        utoff: -20932 (valid) 0x1be-0x1c2 (4)
0x1c0|ae 3c                                          |.<              |
0x1c0|      00                                       |  .             |        dst: 0 (valid) 0x1c2-0x1c3 (1)
0x1c0|         00                                    |   .            |        idx: 0 (valid) 0x1c3-0x1c4 (1)
     |                                               |                |      [1]{}: local_time_type 0x1c4-0x1ca (6)
0x1c0|            ff ff b9 b0                        |    ....        |        utoff: -18000 (valid) 0x1c4-0x1c8 (4)
0x1c0|                        01                     |        .       |        dst: 1 (valid) 0x1c8-0x1c9 (1)
0x1c0|                           04                  |         .      |        idx: 4 (valid) 0x1c9-0x1ca (1)
     |                                               |                |      [2]{}: local_time_type 0x1ca-0x1d0 (6)
0x1c0|                              ff ff ab a0      |          ....  |        utoff: -21600 (valid) 0x1ca-0x1ce (4)
0x1c0|                                          00   |              . |        dst: 0 (valid) 0x1ce-0x1cf (1)
0x1c0|                                             08|               .|        idx: 8 (valid) 0x1cf-0x1d0 (1)
     |                                               |                |    time_zone_designations[0:3]: 0x1d0-0x1dc (12)
0x1d0|4c 4d 54 00                                    |LMT.            |      [0]: "LMT" time_zone_designation 0x1d0-0x1d4 (4)
0x1d0|            43 44 54 00                        |    CDT.        |      [1]: "CDT" time_zone_designation 0x1d4-0x1d8 (4)
0x1d0|                        43 53 54 00            |        CST.    |      [2]: "CST" time_zone_designation 0x1d8-0x1dc (4)
     |                                               |                |    leap_second_records[0:27]: 0x1dc-0x320 (324)
     |                                               |                |      [0]{}: leap_second_record 0x1dc-0x1e8 (12)
0x1d0|                                    00 00 00 00|            ....|        occur: "1972-07-01T00:00:00Z" (78796800) 0x1dc-0x1e4 (8)
0x1e0|04 b2 58 00                                    |..X.            |
0x1e0|            00 00 00 01                        |    ....        |        corr: 1 0x1e4-0x1e8 (4)
     |                                               |                |      [1]{}: leap_second_record 0x1e8-0x1f4 (12)
0x1e0|                        00 00 00 00 05 a4 ec 01|        ........|        occur: "1973-01-01T00:00:01Z" (94694401) 0x1e8-0x1f0 (8)
0x1f0|00 00 00 02                                    |....            |        corr: 2 0x1f0-0x1f4 (4)
     |                                               |                |      [2]{}: leap_second_record 0x1f4-0x200 (12)
0x1f0|            00 00 00 00 07 86 1f 82            |    ........    |        occur: "1974-01-01T00:00:02Z" (126230402) 0x1f4-0x1fc (8)
0x1f0|                                    00 00 00 03|            ....|        corr: 3 0x1fc-0x200 (4)
     |                                               |                |      [3]{}: leap_second_record 0x200-0x20c (12)
0x200|00 00 00 00 09 67 53 03                        |.....gS.        |        occur: "1975-01-01T00:00:03Z" (157766403) 0x200-0x208 (8)
0x200|                        00 00 00 04            |        ....    |        corr: 4 0x208-0x20c (4)
     |                                               |                |      [4]{}: leap_second_record 0x20c-0x218 (12)
0x200|                                    00 00 00 00|            ....|        occur: "1976-01-01T00:00:04Z" (189302404) 0x20c-0x214 (8)
0x210|0b 48 86 84                                    |.H..            |
0x210|            00 00 00 05                        |    ....        |        corr: 5 0x214-0x218 (4)
     |                                               |                |      [5]{}: leap_second_record 0x218-0x224 (12)
0x210|                        00 00 00 00 0d 2b 0b 85|        .....+..|        occur: "1977-01-01T00:00:05Z" (220924805) 0x218-0x220 (8)
0x220|00 00 00 06                                    |....            |        corr: 6 0x220-0x224 (4)
     |                                               |                |      [6]{}: leap_second_record 0x224-0x230 (12)
0x220|            00 00 00 00 0f 0c 3f 06            |    ......?.    |        occur: "1978-01-01T00:00:06Z" (252460806) 0x224-0x22c (8)
0x220|                                    00 00 00 07|            ....|        corr: 7 0x22c-0x230 (4)
     |                                               |                |      [7]{}: leap_second_record 0x230-0x23c (12)
0x230|00 00 00 00 10 ed 72 87                        |......r.        |        occur: "1979-01-01T00:00:07Z" (283996807) 0x230-0x238 (8)
0x230|                        00 00 00 08            |        ....    |        corr: 8 0x238-0x23c (4)
     |                                               |                |      [8]{}: leap_second_record 0x23c-0x248 (12)
0x230|                                    00 00 00 00|            ....|        occur: "1980-01-01T00:00:08Z" (315532808) 0x23c-0x244 (8)
0x240|12 ce a6 08                                    |....            |
0x240|            00 00 00 09                        |    ....        |        corr: 9 0x244-0x248 (4)
     |                                               |                |      [9]{}: leap_second_record 0x248-0x254 (12)
0x240|                        00 00 00 00 15 9f ca 89|        ........|        occur: "1981-07-01T00:00:09Z" (362793609) 0x248-0x250 (8)
0x250|00 00 00 0a                                    |....            |        corr: 10 0x250-0x254 (4)
     |                                               |                |      [10]{}: leap_second_record 0x254-0x260 (12)
0x250|            00 00 00 00 17 80 fe 0a            |    ........    |        occur: "1982-07-01T00:00:10Z" (394329610) 0x254-0x25c (8)
0x250|                                    00 00 00 0b|            ....|        corr: 11 0x25c-0x260 (4)
     |                                               |                |      [11]{}: leap_second_record 0x260-0x26c (12)
0x260|00 00 00 00 19 62 31 8b                        |.....b1.        |        occur: "1983-07-01T00:00:11Z" (425865611) 0x260-0x268 (8)
0x260|                        00 00 00 0c            |        ....    |        corr: 12 0x268-0x26c (4)
     |                                               |                |      [12]{}: leap_second_record 0x26c-0x278 (12)
0x260|                                    00 00 00 00|            ....|        occur: "1985-07-01T00:00:12Z" (489024012) 0x26c-0x274 (8)
0x270|1d 25 ea 0c                                    |.%..            |
0x270|            00 00 00 0d                        |    ....        |        corr: 13 0x274-0x278 (4)
     |                                               |                |      [13]{}: leap_second_record 0x278-0x284 (12)
0x270|                        00 00 00 00 21 da e5 0d|        ....!...|        occur: "1988-01-01T00:00:13Z" (567993613) 0x278-0x280 (8)
0x280|00 00 00 0e                                    |....            |        corr: 14 0x280-0x284 (4)
     |                                               |                |      [14]{}: leap_second_record 0x284-0x290 (12)
0x280|            00 00 00 00 25 9e 9d 8e            |    ....%...    |        occur: "1990-01-01T00:00:14Z" (631152014) 0x284-0x28c (8)
0x280|                                    00 00 00 0f|            ....|        corr: 15 0x28c-0x290 (4)
     |                                               |                |      [15]{}: leap_second_record 0x290-0x29c (12)
0x290|00 00 00 00 27 7f d1 0f                        |....'...        |        occur: "1991-01-01T00:00:15Z" (662688015) 0x290-0x298 (8)
0x290|                        00 00 00 10            |        ....    |        corr: 16 0x298-0x29c (4)
     |                                               |                |      [16]{}: leap_second_record 0x29c-0x2a8 (12)
0x290|                                    00 00 00 00|            ....|        occur: "1992-07-01T00:00:16Z" (709948816) 0x29c-0x2a4 (8)
0x2a0|2a 50 f5 90                                    |*P..            |
0x2a0|            00 00 00 11                        |    ....        |        corr: 17 0x2a4-0x2a8 (4)
     |                                               |                |      [17]{}: leap_second_record 0x2a8-0x2b4 (12)
0x2a0|                        00 00 00 00 2c 32 29 11|        ....,2).|        occur: "1993-07-01T00:00:17Z" (741484817) 0x2a8-0x2b0 (8)
0x2b0|00 00 00 12                                    |....            |        corr: 18 0x2b0-0x2b4 (4)
     |                                               |                |      [18]{}: leap_second_record 0x2b4-0x2c0 (12)
0x2b0|            00 00 00 00 2e 13 5c 92            |    ......\.    |        occur: "1994-07-01T00:00:18Z" (773020818) 0x2b4-0x2bc (8)
0x2b0|                                    00 00 00 13|            ....|        corr: 19 0x2bc-0x2c0 (4)
     |                                               |                |      [19]{}: leap_second_record 0x2c0-0x2cc (12)
0x2c0|00 00 00 00 30 e7 24 13                        |....0.$.        |        occur: "1996-01-01T00:00:19Z" (820454419) 0x2c0-0x2c8 (8)
0x2c0|                        00 00 00 14            |        ....    |        corr: 20 0x2c8-0x2cc (4)
     |                                               |                |      [20]{}: leap_second_record 0x2cc-0x2d8 (12)
0x2c0|                                    00 00 00 00|            ....|        occur: "1997-07-01T00:00:20Z" (867715220) 0x2cc-0x2d4 (8)
0x2d0|33 b8 48 94                                    |3.H.            |
0x2d0|            00 00 00 15                        |    ....        |        corr: 21 0x2d4-0x2d8 (4)
     |                                               |                |      [21]{}: leap_second_record 0x2d8-0x2e4 (12)
0x2d0|                        00 00 00 00 36 8c 10 15|        ....6...|        occur: "1999-01-01T00:00:21Z" (915148821) 0x2d8-0x2e0 (8)
0x2e0|00 00 00 16                                    |....            |        corr: 22 0x2e0-0x2e4 (4)
     |                                               |                |      [22]{}: leap_second_record 0x2e4-0x2f0 (12)
0x2e0|            00 00 00 00 43 b7 1b 96            |    ....C...    |        occur: "2006-01-01T00:00:22Z" (1136073622) 0x2e4-0x2ec (8)
0x2e0|                                    00 00 00 17|            ....|        corr: 23 0x2ec-0x2f0 (4)
     |                                               |                |      [23]{}: leap_second_record 0x2f0-0x2fc (12)
0x2f0|00 00 00 00 49 5c 07 97                        |....I\..        |        occur: "2009-01-01T00:00:23Z" (1230768023) 0x2f0-0x2f8 (8)
0x2f0|                        00 00 00 18            |        ....    |        corr: 24 0x2f8-0x2fc (4)
     |                                               |                |      [24]{}: leap_second_record 0x2fc-0x308 (12)
0x2f0|                                    00 00 00 00|            ....|        occur: "2012-07-01T00:00:24Z" (1341100824) 0x2fc-0x304 (8)
0x300|4f ef 93 18                                    |O...            |
0x300|            00 00 00 19                        |    ....        |        corr: 25 0x304-0x308 (4)
     |                                               |                |      [25]{}: leap_second_record 0x308-0x314 (12)
0x300|                        00 00 00 00 55 93 2d 99|        ....U.-.|        occur: "2015-07-01T00:00:25Z" (1435708825) 0x308-0x310 (8)
0x310|00 00 00 1a                                    |....            |        corr: 26 0x310-0x314 (4)
     |                                               |                |      [26]{}: leap_second_record 0x314-0x320 (12)
0x310|            00 00 00 00 58 68 46 9a            |    ....XhF.    |        occur: "2017-01-01T00:00:26Z" (1483228826) 0x314-0x31c (8)
0x310|                                    00 00 00 1b|            ....|        corr: 27 0x31c-0x320 (4)
     |                                               |                |    standard_wall_indicators[0:0]: 0x320-0x320 (0)
     |                                               |                |    ut_local_indicators[0:0]: 0x320-0x320 (0)
     |                                               |                |  footer{}: 0x320-0x322 (2)
0x320|0a                                             |.               |    nl1: 10 (valid) 0x320-0x321 (1)
     |                                               |                |    tz_string: "" 0x321-0x321 (0)
0x320|   0a|                                         | .|             |    nl2: 10 (valid) 0x321-0x322 (1)
