$ fq -d tzif dv Tehran
     |00 01 02 03 04 05 06 07 08 09 0a 0b 0c 0d 0e 0f|0123456789abcdef|.{}: Tehran (tzif) 0x0-0x6fd.7 (1790)
     |                                               |                |  v1header{}: 0x0-0x2b.7 (44)
0x000|54 5a 69 66                                    |TZif            |    magic: 0x545a6966 (valid) 0x0-0x3.7 (4)
0x000|            32                                 |    2           |    ver: "2" (0x32) (valid) 0x4-0x4.7 (1)
0x000|               00 00 00 00 00 00 00 00 00 00 00|     ...........|    reserved: raw bits 0x5-0x13.7 (15)
0x010|00 00 00 00                                    |....            |
0x010|            00 00 00 00                        |    ....        |    isutcnt: 0 0x14-0x17.7 (4)
0x010|                        00 00 00 00            |        ....    |    isstdcnt: 0 0x18-0x1b.7 (4)
0x010|                                    00 00 00 1b|            ....|    leapcnt: 27 0x1c-0x1f.7 (4)
0x020|00 00 00 48                                    |...H            |    timecnt: 72 0x20-0x23.7 (4)
0x020|            00 00 00 08                        |    ....        |    typecnt: 8 0x24-0x27.7 (4)
0x020|                        00 00 00 1c            |        ....    |    charcnt: 28 0x28-0x2b.7 (4)
     |                                               |                |  v1datablock{}: 0x2c-0x2b7.7 (652)
     |                                               |                |    transition_times[0:72]: 0x2c-0x14b.7 (288)
0x020|                                    9a 6c 7d c8|            .l}.|      [0]: "1915-12-31T20:34:16Z" (-1704165944) transition_time 0x2c-0x2f.7 (4)
0x030|bf 00 cc 48                                    |...H            |      [1]: "1935-06-12T20:34:16Z" (-1090466744) transition_time 0x30-0x33.7 (4)
0x030|            0d 94 44 3e                        |    ..D>        |      [2]: "1977-03-21T19:30:06Z" (227820606) transition_time 0x34-0x37.7 (4)
0x030|                        0e ad 13 be            |        ....    |      [3]: "1977-10-20T19:30:06Z" (246223806) transition_time 0x38-0x3b.7 (4)
0x030|                                    0f 79 73 47|            .ysG|      [4]: "1978-03-24T20:00:07Z" (259617607) transition_time 0x3c-0x3f.7 (4)
0x040|10 28 ca c7                                    |.(..            |      [5]: "1978-08-04T20:00:07Z" (271108807) transition_time 0x40-0x43.7 (4)
0x040|            10 ed 3a 47                        |    ..:G        |      [6]: "1978-12-31T20:00:07Z" (283982407) transition_time 0x44-0x47.7 (4)
0x040|                        11 ad bc 50            |        ...P    |      [7]: "1979-05-26T20:30:08Z" (296598608) transition_time 0x48-0x4b.7 (4)
0x040|                                    12 45 4a c0|            .EJ.|      [8]: "1979-09-18T19:30:08Z" (306531008) transition_time 0x4c-0x4f.7 (4)
0x050|13 37 ec d1                                    |.7..            |      [9]: "1980-03-20T20:30:09Z" (322432209) transition_time 0x50-0x53.7 (4)
0x050|            14 2d 15 c1                        |    .-..        |      [10]: "1980-09-22T19:30:09Z" (338499009) transition_time 0x54-0x57.7 (4)
0x050|                        28 20 76 d8            |        ( v.    |      [11]: "1991-05-02T20:30:16Z" (673216216) transition_time 0x58-0x5b.7 (4)
0x050|                                    28 db 9d c8|            (...|      [12]: "1991-09-21T19:30:16Z" (685481416) transition_time 0x5c-0x5f.7 (4)
0x060|29 cb 9c d8                                    |)...            |      [13]: "1992-03-21T20:30:16Z" (701209816) transition_time 0x60-0x63.7 (4)
0x060|            2a be 22 c9                        |    *.".        |      [14]: "1992-09-21T19:30:17Z" (717103817) transition_time 0x64-0x67.7 (4)
0x060|                        2b ac d0 59            |        +..Y    |      [15]: "1993-03-21T20:30:17Z" (732745817) transition_time 0x68-0x6b.7 (4)
0x060|                                    2c 9f 56 4a|            ,.VJ|      [16]: "1993-09-21T19:30:18Z" (748639818) transition_time 0x6c-0x6f.7 (4)
0x070|2d 8e 03 da                                    |-...            |      [17]: "1994-03-21T20:30:18Z" (764281818) transition_time 0x70-0x73.7 (4)
0x070|            2e 80 89 cb                        |    ....        |      [18]: "1994-09-21T19:30:19Z" (780175819) transition_time 0x74-0x77.7 (4)
0x070|                        2f 6f 37 5b            |        /o7[    |      [19]: "1995-03-21T20:30:19Z" (795817819) transition_time 0x78-0x7b.7 (4)
0x070|                                    30 61 bd 4b|            0a.K|      [20]: "1995-09-21T19:30:19Z" (811711819) transition_time 0x7c-0x7f.7 (4)
0x080|31 50 6a dc                                    |1Pj.            |      [21]: "1996-03-20T20:30:20Z" (827353820) transition_time 0x80-0x83.7 (4)
0x080|            32 42 f0 cc                        |    2B..        |      [22]: "1996-09-20T19:30:20Z" (843247820) transition_time 0x84-0x87.7 (4)
0x080|                        33 32 ef dc            |        32..    |      [23]: "1997-03-21T20:30:20Z" (858976220) transition_time 0x88-0x8b.7 (4)
0x080|                                    34 25 75 cd|            4%u.|      [24]: "1997-09-21T19:30:21Z" (874870221) transition_time 0x8c-0x8f.7 (4)
0x090|35 14 23 5d                                    |5.#]            |      [25]: "1998-03-21T20:30:21Z" (890512221) transition_time 0x90-0x93.7 (4)
0x090|            36 06 a9 4d                        |    6..M        |      [26]: "1998-09-21T19:30:21Z" (906406221) transition_time 0x94-0x97.7 (4)
0x090|                        36 f5 56 de            |        6.V.    |      [27]: "1999-03-21T20:30:22Z" (922048222) transition_time 0x98-0x9b.7 (4)
0x090|                                    37 e7 dc ce|            7...|      [28]: "1999-09-21T19:30:22Z" (937942222) transition_time 0x9c-0x9f.7 (4)
0x0a0|38 d6 8a 5e                                    |8..^            |      [29]: "2000-03-20T20:30:22Z" (953584222) transition_time 0xa0-0xa3.7 (4)
0x0a0|            39 c9 10 4e                        |    9..N        |      [30]: "2000-09-20T19:30:22Z" (969478222) transition_time 0xa4-0xa7.7 (4)
0x0a0|                        3a b9 0f 5e            |        :..^    |      [31]: "2001-03-21T20:30:22Z" (985206622) transition_time 0xa8-0xab.7 (4)
0x0a0|                                    3b ab 95 4e|            ;..N|      [32]: "2001-09-21T19:30:22Z" (1001100622) transition_time 0xac-0xaf.7 (4)
0x0b0|3c 9a 42 de                                    |<.B.            |      [33]: "2002-03-21T20:30:22Z" (1016742622) transition_time 0xb0-0xb3.7 (4)
0x0b0|            3d 8c c8 ce                        |    =...        |      [34]: "2002-09-21T19:30:22Z" (1032636622) transition_time 0xb4-0xb7.7 (4)
0x0b0|                        3e 7b 76 5e            |        >{v^    |      [35]: "2003-03-21T20:30:22Z" (1048278622) transition_time 0xb8-0xbb.7 (4)
0x0b0|                                    3f 6d fc 4e|            ?m.N|      [36]: "2003-09-21T19:30:22Z" (1064172622) transition_time 0xbc-0xbf.7 (4)
0x0c0|40 5c a9 de                                    |@\..            |      [37]: "2004-03-20T20:30:22Z" (1079814622) transition_time 0xc0-0xc3.7 (4)
0x0c0|            41 4f 2f ce                        |    AO/.        |      [38]: "2004-09-20T19:30:22Z" (1095708622) transition_time 0xc4-0xc7.7 (4)
0x0c0|                        42 3f 2e de            |        B?..    |      [39]: "2005-03-21T20:30:22Z" (1111437022) transition_time 0xc8-0xcb.7 (4)
0x0c0|                                    43 31 b4 ce|            C1..|      [40]: "2005-09-21T19:30:22Z" (1127331022) transition_time 0xcc-0xcf.7 (4)
0x0d0|47 e2 c9 5f                                    |G.._            |      [41]: "2008-03-20T20:30:23Z" (1206045023) transition_time 0xd0-0xd3.7 (4)
0x0d0|            48 d5 4f 4f                        |    H.OO        |      [42]: "2008-09-20T19:30:23Z" (1221939023) transition_time 0xd4-0xd7.7 (4)
0x0d0|                        49 c5 4e 60            |        I.N`    |      [43]: "2009-03-21T20:30:24Z" (1237667424) transition_time 0xd8-0xdb.7 (4)
0x0d0|                                    4a b7 d4 50|            J..P|      [44]: "2009-09-21T19:30:24Z" (1253561424) transition_time 0xdc-0xdf.7 (4)
0x0e0|4b a6 81 e0                                    |K...            |      [45]: "2010-03-21T20:30:24Z" (1269203424) transition_time 0xe0-0xe3.7 (4)
0x0e0|            4c 99 07 d0                        |    L...        |      [46]: "2010-09-21T19:30:24Z" (1285097424) transition_time 0xe4-0xe7.7 (4)
0x0e0|                        4d 87 b5 60            |        M..`    |      [47]: "2011-03-21T20:30:24Z" (1300739424) transition_time 0xe8-0xeb.7 (4)
0x0e0|                                    4e 7a 3b 50|            Nz;P|      [48]: "2011-09-21T19:30:24Z" (1316633424) transition_time 0xec-0xef.7 (4)
0x0f0|4f 68 e8 e0                                    |Oh..            |      [49]: "2012-03-20T20:30:24Z" (1332275424) transition_time 0xf0-0xf3.7 (4)
0x0f0|            50 5b 6e d1                        |    P[n.        |      [50]: "2012-09-20T19:30:25Z" (1348169425) transition_time 0xf4-0xf7.7 (4)
0x0f0|                        51 4b 6d e1            |        QKm.    |      [51]: "2013-03-21T20:30:25Z" (1363897825) transition_time 0xf8-0xfb.7 (4)
0x0f0|                                    52 3d f3 d1|            R=..|      [52]: "2013-09-21T19:30:25Z" (1379791825) transition_time 0xfc-0xff.7 (4)
0x100|53 2c a1 61                                    |S,.a            |      [53]: "2014-03-21T20:30:25Z" (1395433825) transition_time 0x100-0x103.7 (4)
0x100|            54 1f 27 51                        |    T.'Q        |      [54]: "2014-09-21T19:30:25Z" (1411327825) transition_time 0x104-0x107.7 (4)
0x100|                        55 0d d4 e1            |        U...    |      [55]: "2015-03-21T20:30:25Z" (1426969825) transition_time 0x108-0x10b.7 (4)
0x100|                                    56 00 5a d2|            V.Z.|      [56]: "2015-09-21T19:30:26Z" (1442863826) transition_time 0x10c-0x10f.7 (4)
0x110|56 ef 08 62                                    |V..b            |      [57]: "2016-03-20T20:30:26Z" (1458505826) transition_time 0x110-0x113.7 (4)
0x110|            57 e1 8e 52                        |    W..R        |      [58]: "2016-09-20T19:30:26Z" (1474399826) transition_time 0x114-0x117.7 (4)
0x110|                        58 d1 8d 63            |        X..c    |      [59]: "2017-03-21T20:30:27Z" (1490128227) transition_time 0x118-0x11b.7 (4)
0x110|                                    59 c4 13 53|            Y..S|      [60]: "2017-09-21T19:30:27Z" (1506022227) transition_time 0x11c-0x11f.7 (4)
0x120|5a b2 c0 e3                                    |Z...            |      [61]: "2018-03-21T20:30:27Z" (1521664227) transition_time 0x120-0x123.7 (4)
0x120|            5b a5 46 d3                        |    [.F.        |      [62]: "2018-09-21T19:30:27Z" (1537558227) transition_time 0x124-0x127.7 (4)
0x120|                        5c 93 f4 63            |        \..c    |      [63]: "2019-03-21T20:30:27Z" (1553200227) transition_time 0x128-0x12b.7 (4)
0x120|                                    5d 86 7a 53|            ].zS|      [64]: "2019-09-21T19:30:27Z" (1569094227) transition_time 0x12c-0x12f.7 (4)
0x130|5e 75 27 e3                                    |^u'.            |      [65]: "2020-03-20T20:30:27Z" (1584736227) transition_time 0x130-0x133.7 (4)
0x130|            5f 67 ad d3                        |    _g..        |      [66]: "2020-09-20T19:30:27Z" (1600630227) transition_time 0x134-0x137.7 (4)
0x130|                        60 57 ac e3            |        `W..    |      [67]: "2021-03-21T20:30:27Z" (1616358627) transition_time 0x138-0x13b.7 (4)
0x130|                                    61 4a 32 d3|            aJ2.|      [68]: "2021-09-21T19:30:27Z" (1632252627) transition_time 0x13c-0x13f.7 (4)
0x140|62 38 e0 63                                    |b8.c            |      [69]: "2022-03-21T20:30:27Z" (1647894627) transition_time 0x140-0x143.7 (4)
0x140|            63 2b 66 53                        |    c+fS        |      [70]: "2022-09-21T19:30:27Z" (1663788627) transition_time 0x144-0x147.7 (4)
0x140|                        64 9b 78 1b            |        d.x.    |      [71]: "2023-06-28T00:00:27Z" (1687910427) transition_time 0x148-0x14b.7 (4)
     |                                               |                |    transition_types[0:72]: 0x14c-0x193.7 (72)
0x140|                                    01         |            .   |      [0]: 1 transition_type 0x14c-0x14c.7 (1)
0x140|                                       03      |             .  |      [1]: 3 transition_type 0x14d-0x14d.7 (1)
0x140|                                          02   |              . |      [2]: 2 transition_type 0x14e-0x14e.7 (1)
0x140|                                             05|               .|      [3]: 5 transition_type 0x14f-0x14f.7 (1)
0x150|04                                             |.               |      [4]: 4 transition_type 0x150-0x150.7 (1)
0x150|   05                                          | .              |      [5]: 5 transition_type 0x151-0x151.7 (1)
0x150|      03                                       |  .             |      [6]: 3 transition_type 0x152-0x152.7 (1)
0x150|         02                                    |   .            |      [7]: 2 transition_type 0x153-0x153.7 (1)
0x150|            03                                 |    .           |      [8]: 3 transition_type 0x154-0x154.7 (1)
0x150|               02                              |     .          |      [9]: 2 transition_type 0x155-0x155.7 (1)
0x150|                  03                           |      .         |      [10]: 3 transition_type 0x156-0x156.7 (1)
0x150|                     02                        |       .        |      [11]: 2 transition_type 0x157-0x157.7 (1)
0x150|                        03                     |        .       |      [12]: 3 transition_type 0x158-0x158.7 (1)
0x150|                           02                  |         .      |      [13]: 2 transition_type 0x159-0x159.7 (1)
0x150|                              03               |          .     |      [14]: 3 transition_type 0x15a-0x15a.7 (1)
0x150|                                 02            |           .    |      [15]: 2 transition_type 0x15b-0x15b.7 (1)
0x150|                                    03         |            .   |      [16]: 3 transition_type 0x15c-0x15c.7 (1)
0x150|                                       02      |             .  |      [17]: 2 transition_type 0x15d-0x15d.7 (1)
0x150|                                          03   |              . |      [18]: 3 transition_type 0x15e-0x15e.7 (1)
0x150|                                             02|               .|      [19]: 2 transition_type 0x15f-0x15f.7 (1)
0x160|03                                             |.               |      [20]: 3 transition_type 0x160-0x160.7 (1)
0x160|   02                                          | .              |      [21]: 2 transition_type 0x161-0x161.7 (1)
0x160|      03                                       |  .             |      [22]: 3 transition_type 0x162-0x162.7 (1)
0x160|         02                                    |   .            |      [23]: 2 transition_type 0x163-0x163.7 (1)
0x160|            03                                 |    .           |      [24]: 3 transition_type 0x164-0x164.7 (1)
0x160|               02                              |     .          |      [25]: 2 transition_type 0x165-0x165.7 (1)
0x160|                  03                           |      .         |      [26]: 3 transition_type 0x166-0x166.7 (1)
0x160|                     02                        |       .        |      [27]: 2 transition_type 0x167-0x167.7 (1)
0x160|                        03                     |        .       |      [28]: 3 transition_type 0x168-0x168.7 (1)
0x160|                           02                  |         .      |      [29]: 2 transition_type 0x169-0x169.7 (1)
0x160|                              03               |          .     |      [30]: 3 transition_type 0x16a-0x16a.7 (1)
0x160|                                 02            |           .    |      [31]: 2 transition_type 0x16b-0x16b.7 (1)
0x160|                                    03         |            .   |      [32]: 3 transition_type 0x16c-0x16c.7 (1)
0x160|                                       02      |             .  |      [33]: 2 transition_type 0x16d-0x16d.7 (1)
0x160|                                          03   |              . |      [34]: 3 transition_type 0x16e-0x16e.7 (1)
0x160|                                             02|               .|      [35]: 2 transition_type 0x16f-0x16f.7 (1)
0x170|03                                             |.               |      [36]: 3 transition_type 0x170-0x170.7 (1)
0x170|   02                                          | .              |      [37]: 2 transition_type 0x171-0x171.7 (1)
0x170|      03                                       |  .             |      [38]: 3 transition_type 0x172-0x172.7 (1)
0x170|         02                                    |   .            |      [39]: 2 transition_type 0x173-0x173.7 (1)
0x170|            03                                 |    .           |      [40]: 3 transition_type 0x174-0x174.7 (1)
0x170|               02                              |     .          |      [41]: 2 transition_type 0x175-0x175.7 (1)
0x170|                  03                           |      .         |      [42]: 3 transition_type 0x176-0x176.7 (1)
0x170|                     02                        |       .        |      [43]: 2 transition_type 0x177-0x177.7 (1)
0x170|                        03                     |        .       |      [44]: 3 transition_type 0x178-0x178.7 (1)
0x170|                           02                  |         .      |      [45]: 2 transition_type 0x179-0x179.7 (1)
0x170|                              03               |          .     |      [46]: 3 transition_type 0x17a-0x17a.7 (1)
0x170|                                 02            |           .    |      [47]: 2 transition_type 0x17b-0x17b.7 (1)
0x170|                                    03         |            .   |      [48]: 3 transition_type 0x17c-0x17c.7 (1)
0x170|                                       02      |             .  |      [49]: 2 transition_type 0x17d-0x17d.7 (1)
0x170|                                          03   |              . |      [50]: 3 transition_type 0x17e-0x17e.7 (1)
0x170|                                             02|               .|      [51]: 2 transition_type 0x17f-0x17f.7 (1)
0x180|03                                             |.               |      [52]: 3 transition_type 0x180-0x180.7 (1)
0x180|   02                                          | .              |      [53]: 2 transition_type 0x181-0x181.7 (1)
0x180|      03                                       |  .             |      [54]: 3 transition_type 0x182-0x182.7 (1)
0x180|         02                                    |   .            |      [55]: 2 transition_type 0x183-0x183.7 (1)
0x180|            03                                 |    .           |      [56]: 3 transition_type 0x184-0x184.7 (1)
0x180|               02                              |     .          |      [57]: 2 transition_type 0x185-0x185.7 (1)
0x180|                  03                           |      .         |      [58]: 3 transition_type 0x186-0x186.7 (1)
0x180|                     02                        |       .        |      [59]: 2 transition_type 0x187-0x187.7 (1)
0x180|                        03                     |        .       |      [60]: 3 transition_type 0x188-0x188.7 (1)
0x180|                           02                  |         .      |      [61]: 2 transition_type 0x189-0x189.7 (1)
0x180|                              03               |          .     |      [62]: 3 transition_type 0x18a-0x18a.7 (1)
0x180|                                 02            |           .    |      [63]: 2 transition_type 0x18b-0x18b.7 (1)
0x180|                                    03         |            .   |      [64]: 3 transition_type 0x18c-0x18c.7 (1)
0x180|                                       02      |             .  |      [65]: 2 transition_type 0x18d-0x18d.7 (1)
0x180|                                          03   |              . |      [66]: 3 transition_type 0x18e-0x18e.7 (1)
0x180|                                             02|               .|      [67]: 2 transition_type 0x18f-0x18f.7 (1)
0x190|03                                             |.               |      [68]: 3 transition_type 0x190-0x190.7 (1)
0x190|   02                                          | .              |      [69]: 2 transition_type 0x191-0x191.7 (1)
0x190|      03                                       |  .             |      [70]: 3 transition_type 0x192-0x192.7 (1)
0x190|         03                                    |   .            |      [71]: 3 transition_type 0x193-0x193.7 (1)
     |                                               |                |    local_time_type_records[0:8]: 0x194-0x1c3.7 (48)
     |                                               |                |      [0]{}: local_time_type 0x194-0x199.7 (6)
0x190|            00 00 30 38                        |    ..08        |        utoff: 12344 (valid) 0x194-0x197.7 (4)
0x190|                        00                     |        .       |        dst: 0 (valid) 0x198-0x198.7 (1)
0x190|                           00                  |         .      |        idx: 0 (valid) 0x199-0x199.7 (1)
     |                                               |                |      [1]{}: local_time_type 0x19a-0x19f.7 (6)
0x190|                              00 00 30 38      |          ..08  |        utoff: 12344 (valid) 0x19a-0x19d.7 (4)
0x190|                                          00   |              . |        dst: 0 (valid) 0x19e-0x19e.7 (1)
0x190|                                             04|               .|        idx: 4 (valid) 0x19f-0x19f.7 (1)
     |                                               |                |      [2]{}: local_time_type 0x1a0-0x1a5.7 (6)
0x1a0|00 00 3f 48                                    |..?H            |        utoff: 16200 (valid) 0x1a0-0x1a3.7 (4)
0x1a0|            01                                 |    .           |        dst: 1 (valid) 0x1a4-0x1a4.7 (1)
0x1a0|               08                              |     .          |        idx: 8 (valid) 0x1a5-0x1a5.7 (1)
     |                                               |                |      [3]{}: local_time_type 0x1a6-0x1ab.7 (6)
0x1a0|                  00 00 31 38                  |      ..18      |        utoff: 12600 (valid) 0x1a6-0x1a9.7 (4)
0x1a0|                              00               |          .     |        dst: 0 (valid) 0x1aa-0x1aa.7 (1)
0x1a0|                                 0e            |           .    |        idx: 14 (valid) 0x1ab-0x1ab.7 (1)
     |                                               |                |      [4]{}: local_time_type 0x1ac-0x1b1.7 (6)
0x1a0|                                    00 00 46 50|            ..FP|        utoff: 18000 (valid) 0x1ac-0x1af.7 (4)
0x1b0|01                                             |.               |        dst: 1 (valid) 0x1b0-0x1b0.7 (1)
0x1b0|   14                                          | .              |        idx: 20 (valid) 0x1b1-0x1b1.7 (1)
     |                                               |                |      [5]{}: local_time_type 0x1b2-0x1b7.7 (6)
0x1b0|      00 00 38 40                              |  ..8@          |        utoff: 14400 (valid) 0x1b2-0x1b5.7 (4)
0x1b0|                  00                           |      .         |        dst: 0 (valid) 0x1b6-0x1b6.7 (1)
0x1b0|                     18                        |       .        |        idx: 24 (valid) 0x1b7-0x1b7.7 (1)
     |                                               |                |      [6]{}: local_time_type 0x1b8-0x1bd.7 (6)
0x1b0|                        00 00 3f 48            |        ..?H    |        utoff: 16200 (valid) 0x1b8-0x1bb.7 (4)
0x1b0|                                    01         |            .   |        dst: 1 (valid) 0x1bc-0x1bc.7 (1)
0x1b0|                                       08      |             .  |        idx: 8 (valid) 0x1bd-0x1bd.7 (1)
     |                                               |                |      [7]{}: local_time_type 0x1be-0x1c3.7 (6)
0x1b0|                                          00 00|              ..|        utoff: 12600 (valid) 0x1be-0x1c1.7 (4)
0x1c0|31 38                                          |18              |
0x1c0|      00                                       |  .             |        dst: 0 (valid) 0x1c2-0x1c2.7 (1)
0x1c0|         0e                                    |   .            |        idx: 14 (valid) 0x1c3-0x1c3.7 (1)
     |                                               |                |    time_zone_designations[0:6]: 0x1c4-0x1df.7 (28)
0x1c0|            4c 4d 54 00                        |    LMT.        |      [0]: "LMT" time_zone_designation 0x1c4-0x1c7.7 (4)
0x1c0|                        54 4d 54 00            |        TMT.    |      [1]: "TMT" time_zone_designation 0x1c8-0x1cb.7 (4)
0x1c0|                                    2b 30 34 33|            +043|      [2]: "+0430" time_zone_designation 0x1cc-0x1d1.7 (6)
0x1d0|30 00                                          |0.              |
0x1d0|      2b 30 33 33 30 00                        |  +0330.        |      [3]: "+0330" time_zone_designation 0x1d2-0x1d7.7 (6)
0x1d0|                        2b 30 35 00            |        +05.    |      [4]: "+05" time_zone_designation 0x1d8-0x1db.7 (4)
0x1d0|                                    2b 30 34 00|            +04.|      [5]: "+04" time_zone_designation 0x1dc-0x1df.7 (4)
     |                                               |                |    leap_second_records[0:27]: 0x1e0-0x2b7.7 (216)
     |                                               |                |      [0]{}: leap_second_record 0x1e0-0x1e7.7 (8)
0x1e0|04 b2 58 00                                    |..X.            |        occur: "1972-07-01T00:00:00Z" (78796800) 0x1e0-0x1e3.7 (4)
0x1e0|            00 00 00 01                        |    ....        |        corr: 1 0x1e4-0x1e7.7 (4)
     |                                               |                |      [1]{}: leap_second_record 0x1e8-0x1ef.7 (8)
0x1e0|                        05 a4 ec 01            |        ....    |        occur: "1973-01-01T00:00:01Z" (94694401) 0x1e8-0x1eb.7 (4)
0x1e0|                                    00 00 00 02|            ....|        corr: 2 0x1ec-0x1ef.7 (4)
     |                                               |                |      [2]{}: leap_second_record 0x1f0-0x1f7.7 (8)
0x1f0|07 86 1f 82                                    |....            |        occur: "1974-01-01T00:00:02Z" (126230402) 0x1f0-0x1f3.7 (4)
0x1f0|            00 00 00 03                        |    ....        |        corr: 3 0x1f4-0x1f7.7 (4)
     |                                               |                |      [3]{}: leap_second_record 0x1f8-0x1ff.7 (8)
0x1f0|                        09 67 53 03            |        .gS.    |        occur: "1975-01-01T00:00:03Z" (157766403) 0x1f8-0x1fb.7 (4)
0x1f0|                                    00 00 00 04|            ....|        corr: 4 0x1fc-0x1ff.7 (4)
     |                                               |                |      [4]{}: leap_second_record 0x200-0x207.7 (8)
0x200|0b 48 86 84                                    |.H..            |        occur: "1976-01-01T00:00:04Z" (189302404) 0x200-0x203.7 (4)
0x200|            00 00 00 05                        |    ....        |        corr: 5 0x204-0x207.7 (4)
     |                                               |                |      [5]{}: leap_second_record 0x208-0x20f.7 (8)
0x200|                        0d 2b 0b 85            |        .+..    |        occur: "1977-01-01T00:00:05Z" (220924805) 0x208-0x20b.7 (4)
0x200|                                    00 00 00 06|            ....|        corr: 6 0x20c-0x20f.7 (4)
     |                                               |                |      [6]{}: leap_second_record 0x210-0x217.7 (8)
0x210|0f 0c 3f 06                                    |..?.            |        occur: "1978-01-01T00:00:06Z" (252460806) 0x210-0x213.7 (4)
0x210|            00 00 00 07                        |    ....        |        corr: 7 0x214-0x217.7 (4)
     |                                               |                |      [7]{}: leap_second_record 0x218-0x21f.7 (8)
0x210|                        10 ed 72 87            |        ..r.    |        occur: "1979-01-01T00:00:07Z" (283996807) 0x218-0x21b.7 (4)
0x210|                                    00 00 00 08|            ....|        corr: 8 0x21c-0x21f.7 (4)
     |                                               |                |      [8]{}: leap_second_record 0x220-0x227.7 (8)
0x220|12 ce a6 08                                    |....            |        occur: "1980-01-01T00:00:08Z" (315532808) 0x220-0x223.7 (4)
0x220|            00 00 00 09                        |    ....        |        corr: 9 0x224-0x227.7 (4)
     |                                               |                |      [9]{}: leap_second_record 0x228-0x22f.7 (8)
0x220|                        15 9f ca 89            |        ....    |        occur: "1981-07-01T00:00:09Z" (362793609) 0x228-0x22b.7 (4)
0x220|                                    00 00 00 0a|            ....|        corr: 10 0x22c-0x22f.7 (4)
     |                                               |                |      [10]{}: leap_second_record 0x230-0x237.7 (8)
0x230|17 80 fe 0a                                    |....            |        occur: "1982-07-01T00:00:10Z" (394329610) 0x230-0x233.7 (4)
0x230|            00 00 00 0b                        |    ....        |        corr: 11 0x234-0x237.7 (4)
     |                                               |                |      [11]{}: leap_second_record 0x238-0x23f.7 (8)
0x230|                        19 62 31 8b            |        .b1.    |        occur: "1983-07-01T00:00:11Z" (425865611) 0x238-0x23b.7 (4)
0x230|                                    00 00 00 0c|            ....|        corr: 12 0x23c-0x23f.7 (4)
     |                                               |                |      [12]{}: leap_second_record 0x240-0x247.7 (8)
0x240|1d 25 ea 0c                                    |.%..            |        occur: "1985-07-01T00:00:12Z" (489024012) 0x240-0x243.7 (4)
0x240|            00 00 00 0d                        |    ....        |        corr: 13 0x244-0x247.7 (4)
     |                                               |                |      [13]{}: leap_second_record 0x248-0x24f.7 (8)
0x240|                        21 da e5 0d            |        !...    |        occur: "1988-01-01T00:00:13Z" (567993613) 0x248-0x24b.7 (4)
0x240|                                    00 00 00 0e|            ....|        corr: 14 0x24c-0x24f.7 (4)
     |                                               |                |      [14]{}: leap_second_record 0x250-0x257.7 (8)
0x250|25 9e 9d 8e                                    |%...            |        occur: "1990-01-01T00:00:14Z" (631152014) 0x250-0x253.7 (4)
0x250|            00 00 00 0f                        |    ....        |        corr: 15 0x254-0x257.7 (4)
     |                                               |                |      [15]{}: leap_second_record 0x258-0x25f.7 (8)
0x250|                        27 7f d1 0f            |        '...    |        occur: "1991-01-01T00:00:15Z" (662688015) 0x258-0x25b.7 (4)
0x250|                                    00 00 00 10|            ....|        corr: 16 0x25c-0x25f.7 (4)
     |                                               |                |      [16]{}: leap_second_record 0x260-0x267.7 (8)
0x260|2a 50 f5 90                                    |*P..            |        occur: "1992-07-01T00:00:16Z" (709948816) 0x260-0x263.7 (4)
0x260|            00 00 00 11                        |    ....        |        corr: 17 0x264-0x267.7 (4)
     |                                               |                |      [17]{}: leap_second_record 0x268-0x26f.7 (8)
0x260|                        2c 32 29 11            |        ,2).    |        occur: "1993-07-01T00:00:17Z" (741484817) 0x268-0x26b.7 (4)
0x260|                                    00 00 00 12|            ....|        corr: 18 0x26c-0x26f.7 (4)
     |                                               |                |      [18]{}: leap_second_record 0x270-0x277.7 (8)
0x270|2e 13 5c 92                                    |..\.            |        occur: "1994-07-01T00:00:18Z" (773020818) 0x270-0x273.7 (4)
0x270|            00 00 00 13                        |    ....        |        corr: 19 0x274-0x277.7 (4)
     |                                               |                |      [19]{}: leap_second_record 0x278-0x27f.7 (8)
0x270|                        30 e7 24 13            |        0.$.    |        occur: "1996-01-01T00:00:19Z" (820454419) 0x278-0x27b.7 (4)
0x270|                                    00 00 00 14|            ....|        corr: 20 0x27c-0x27f.7 (4)
     |                                               |                |      [20]{}: leap_second_record 0x280-0x287.7 (8)
0x280|33 b8 48 94                                    |3.H.            |        occur: "1997-07-01T00:00:20Z" (867715220) 0x280-0x283.7 (4)
0x280|            00 00 00 15                        |    ....        |        corr: 21 0x284-0x287.7 (4)
     |                                               |                |      [21]{}: leap_second_record 0x288-0x28f.7 (8)
0x280|                        36 8c 10 15            |        6...    |        occur: "1999-01-01T00:00:21Z" (915148821) 0x288-0x28b.7 (4)
0x280|                                    00 00 00 16|            ....|        corr: 22 0x28c-0x28f.7 (4)
     |                                               |                |      [22]{}: leap_second_record 0x290-0x297.7 (8)
0x290|43 b7 1b 96                                    |C...            |        occur: "2006-01-01T00:00:22Z" (1136073622) 0x290-0x293.7 (4)
0x290|            00 00 00 17                        |    ....        |        corr: 23 0x294-0x297.7 (4)
     |                                               |                |      [23]{}: leap_second_record 0x298-0x29f.7 (8)
0x290|                        49 5c 07 97            |        I\..    |        occur: "2009-01-01T00:00:23Z" (1230768023) 0x298-0x29b.7 (4)
0x290|                                    00 00 00 18|            ....|        corr: 24 0x29c-0x29f.7 (4)
     |                                               |                |      [24]{}: leap_second_record 0x2a0-0x2a7.7 (8)
0x2a0|4f ef 93 18                                    |O...            |        occur: "2012-07-01T00:00:24Z" (1341100824) 0x2a0-0x2a3.7 (4)
0x2a0|            00 00 00 19                        |    ....        |        corr: 25 0x2a4-0x2a7.7 (4)
     |                                               |                |      [25]{}: leap_second_record 0x2a8-0x2af.7 (8)
0x2a0|                        55 93 2d 99            |        U.-.    |        occur: "2015-07-01T00:00:25Z" (1435708825) 0x2a8-0x2ab.7 (4)
0x2a0|                                    00 00 00 1a|            ....|        corr: 26 0x2ac-0x2af.7 (4)
     |                                               |                |      [26]{}: leap_second_record 0x2b0-0x2b7.7 (8)
0x2b0|58 68 46 9a                                    |XhF.            |        occur: "2017-01-01T00:00:26Z" (1483228826) 0x2b0-0x2b3.7 (4)
0x2b0|            00 00 00 1b                        |    ....        |        corr: 27 0x2b4-0x2b7.7 (4)
     |                                               |                |    standard_wall_indicators[0:0]: 0x2b8-NA (0)
     |                                               |                |    ut_local_indicators[0:0]: 0x2b8-NA (0)
     |                                               |                |  v2plusheader{}: 0x2b8-0x2e3.7 (44)
0x2b0|                        54 5a 69 66            |        TZif    |    magic: 0x545a6966 (valid) 0x2b8-0x2bb.7 (4)
0x2b0|                                    32         |            2   |    ver: "2" (0x32) (valid) 0x2bc-0x2bc.7 (1)
0x2b0|                                       00 00 00|             ...|    reserved: raw bits 0x2bd-0x2cb.7 (15)
0x2c0|00 00 00 00 00 00 00 00 00 00 00 00            |............    |
0x2c0|                                    00 00 00 00|            ....|    isutcnt: 0 0x2cc-0x2cf.7 (4)
0x2d0|00 00 00 00                                    |....            |    isstdcnt: 0 0x2d0-0x2d3.7 (4)
0x2d0|            00 00 00 1b                        |    ....        |    leapcnt: 27 0x2d4-0x2d7.7 (4)
0x2d0|                        00 00 00 48            |        ...H    |    timecnt: 72 0x2d8-0x2db.7 (4)
0x2d0|                                    00 00 00 08|            ....|    typecnt: 8 0x2dc-0x2df.7 (4)
0x2e0|00 00 00 1c                                    |....            |    charcnt: 28 0x2e0-0x2e3.7 (4)
     |                                               |                |  v2plusdatablock{}: 0x2e4-0x6fb.7 (1048)
     |                                               |                |    transition_times[0:72]: 0x2e4-0x523.7 (576)
0x2e0|            ff ff ff ff 9a 6c 7d c8            |    .....l}.    |      [0]: "1915-12-31T20:34:16Z" (-1704165944) transition_time 0x2e4-0x2eb.7 (8)
0x2e0|                                    ff ff ff ff|            ....|      [1]: "1935-06-12T20:34:16Z" (-1090466744) transition_time 0x2ec-0x2f3.7 (8)
0x2f0|bf 00 cc 48                                    |...H            |
0x2f0|            00 00 00 00 0d 94 44 3e            |    ......D>    |      [2]: "1977-03-21T19:30:06Z" (227820606) transition_time 0x2f4-0x2fb.7 (8)
0x2f0|                                    00 00 00 00|            ....|      [3]: "1977-10-20T19:30:06Z" (246223806) transition_time 0x2fc-0x303.7 (8)
0x300|0e ad 13 be                                    |....            |
0x300|            00 00 00 00 0f 79 73 47            |    .....ysG    |      [4]: "1978-03-24T20:00:07Z" (259617607) transition_time 0x304-0x30b.7 (8)
0x300|                                    00 00 00 00|            ....|      [5]: "1978-08-04T20:00:07Z" (271108807) transition_time 0x30c-0x313.7 (8)
0x310|10 28 ca c7                                    |.(..            |
0x310|            00 00 00 00 10 ed 3a 47            |    ......:G    |      [6]: "1978-12-31T20:00:07Z" (283982407) transition_time 0x314-0x31b.7 (8)
0x310|                                    00 00 00 00|            ....|      [7]: "1979-05-26T20:30:08Z" (296598608) transition_time 0x31c-0x323.7 (8)
0x320|11 ad bc 50                                    |...P            |
0x320|            00 00 00 00 12 45 4a c0            |    .....EJ.    |      [8]: "1979-09-18T19:30:08Z" (306531008) transition_time 0x324-0x32b.7 (8)
0x320|                                    00 00 00 00|            ....|      [9]: "1980-03-20T20:30:09Z" (322432209) transition_time 0x32c-0x333.7 (8)
0x330|13 37 ec d1                                    |.7..            |
0x330|            00 00 00 00 14 2d 15 c1            |    .....-..    |      [10]: "1980-09-22T19:30:09Z" (338499009) transition_time 0x334-0x33b.7 (8)
0x330|                                    00 00 00 00|            ....|      [11]: "1991-05-02T20:30:16Z" (673216216) transition_time 0x33c-0x343.7 (8)
0x340|28 20 76 d8                                    |( v.            |
0x340|            00 00 00 00 28 db 9d c8            |    ....(...    |      [12]: "1991-09-21T19:30:16Z" (685481416) transition_time 0x344-0x34b.7 (8)
0x340|                                    00 00 00 00|            ....|      [13]: "1992-03-21T20:30:16Z" (701209816) transition_time 0x34c-0x353.7 (8)
0x350|29 cb 9c d8                                    |)...            |
0x350|            00 00 00 00 2a be 22 c9            |    ....*.".    |      [14]: "1992-09-21T19:30:17Z" (717103817) transition_time 0x354-0x35b.7 (8)
0x350|                                    00 00 00 00|            ....|      [15]: "1993-03-21T20:30:17Z" (732745817) transition_time 0x35c-0x363.7 (8)
0x360|2b ac d0 59                                    |+..Y            |
0x360|            00 00 00 00 2c 9f 56 4a            |    ....,.VJ    |      [16]: "1993-09-21T19:30:18Z" (748639818) transition_time 0x364-0x36b.7 (8)
0x360|                                    00 00 00 00|            ....|      [17]: "1994-03-21T20:30:18Z" (764281818) transition_time 0x36c-0x373.7 (8)
0x370|2d 8e 03 da                                    |-...            |
0x370|            00 00 00 00 2e 80 89 cb            |    ........    |      [18]: "1994-09-21T19:30:19Z" (780175819) transition_time 0x374-0x37b.7 (8)
0x370|                                    00 00 00 00|            ....|      [19]: "1995-03-21T20:30:19Z" (795817819) transition_time 0x37c-0x383.7 (8)
0x380|2f 6f 37 5b                                    |/o7[            |
0x380|            00 00 00 00 30 61 bd 4b            |    ....0a.K    |      [20]: "1995-09-21T19:30:19Z" (811711819) transition_time 0x384-0x38b.7 (8)
0x380|                                    00 00 00 00|            ....|      [21]: "1996-03-20T20:30:20Z" (827353820) transition_time 0x38c-0x393.7 (8)
0x390|31 50 6a dc                                    |1Pj.            |
0x390|            00 00 00 00 32 42 f0 cc            |    ....2B..    |      [22]: "1996-09-20T19:30:20Z" (843247820) transition_time 0x394-0x39b.7 (8)
0x390|                                    00 00 00 00|            ....|      [23]: "1997-03-21T20:30:20Z" (858976220) transition_time 0x39c-0x3a3.7 (8)
0x3a0|33 32 ef dc                                    |32..            |
0x3a0|            00 00 00 00 34 25 75 cd            |    ....4%u.    |      [24]: "1997-09-21T19:30:21Z" (874870221) transition_time 0x3a4-0x3ab.7 (8)
0x3a0|                                    00 00 00 00|            ....|      [25]: "1998-03-21T20:30:21Z" (890512221) transition_time 0x3ac-0x3b3.7 (8)
0x3b0|35 14 23 5d                                    |5.#]            |
0x3b0|            00 00 00 00 36 06 a9 4d            |    ....6..M    |      [26]: "1998-09-21T19:30:21Z" (906406221) transition_time 0x3b4-0x3bb.7 (8)
0x3b0|                                    00 00 00 00|            ....|      [27]: "1999-03-21T20:30:22Z" (922048222) transition_time 0x3bc-0x3c3.7 (8)
0x3c0|36 f5 56 de                                    |6.V.            |
0x3c0|            00 00 00 00 37 e7 dc ce            |    ....7...    |      [28]: "1999-09-21T19:30:22Z" (937942222) transition_time 0x3c4-0x3cb.7 (8)
0x3c0|                                    00 00 00 00|            ....|      [29]: "2000-03-20T20:30:22Z" (953584222) transition_time 0x3cc-0x3d3.7 (8)
0x3d0|38 d6 8a 5e                                    |8..^            |
0x3d0|            00 00 00 00 39 c9 10 4e            |    ....9..N    |      [30]: "2000-09-20T19:30:22Z" (969478222) transition_time 0x3d4-0x3db.7 (8)
0x3d0|                                    00 00 00 00|            ....|      [31]: "2001-03-21T20:30:22Z" (985206622) transition_time 0x3dc-0x3e3.7 (8)
0x3e0|3a b9 0f 5e                                    |:..^            |
0x3e0|            00 00 00 00 3b ab 95 4e            |    ....;..N    |      [32]: "2001-09-21T19:30:22Z" (1001100622) transition_time 0x3e4-0x3eb.7 (8)
0x3e0|                                    00 00 00 00|            ....|      [33]: "2002-03-21T20:30:22Z" (1016742622) transition_time 0x3ec-0x3f3.7 (8)
0x3f0|3c 9a 42 de                                    |<.B.            |
0x3f0|            00 00 00 00 3d 8c c8 ce            |    ....=...    |      [34]: "2002-09-21T19:30:22Z" (1032636622) transition_time 0x3f4-0x3fb.7 (8)
0x3f0|                                    00 00 00 00|            ....|      [35]: "2003-03-21T20:30:22Z" (1048278622) transition_time 0x3fc-0x403.7 (8)
0x400|3e 7b 76 5e                                    |>{v^            |
0x400|            00 00 00 00 3f 6d fc 4e            |    ....?m.N    |      [36]: "2003-09-21T19:30:22Z" (1064172622) transition_time 0x404-0x40b.7 (8)
0x400|                                    00 00 00 00|            ....|      [37]: "2004-03-20T20:30:22Z" (1079814622) transition_time 0x40c-0x413.7 (8)
0x410|40 5c a9 de                                    |@\..            |
0x410|            00 00 00 00 41 4f 2f ce            |    ....AO/.    |      [38]: "2004-09-20T19:30:22Z" (1095708622) transition_time 0x414-0x41b.7 (8)
0x410|                                    00 00 00 00|            ....|      [39]: "2005-03-21T20:30:22Z" (1111437022) transition_time 0x41c-0x423.7 (8)
0x420|42 3f 2e de                                    |B?..            |
0x420|            00 00 00 00 43 31 b4 ce            |    ....C1..    |      [40]: "2005-09-21T19:30:22Z" (1127331022) transition_time 0x424-0x42b.7 (8)
0x420|                                    00 00 00 00|            ....|      [41]: "2008-03-20T20:30:23Z" (1206045023) transition_time 0x42c-0x433.7 (8)
0x430|47 e2 c9 5f                                    |G.._            |
0x430|            00 00 00 00 48 d5 4f 4f            |    ....H.OO    |      [42]: "2008-09-20T19:30:23Z" (1221939023) transition_time 0x434-0x43b.7 (8)
0x430|                                    00 00 00 00|            ....|      [43]: "2009-03-21T20:30:24Z" (1237667424) transition_time 0x43c-0x443.7 (8)
0x440|49 c5 4e 60                                    |I.N`            |
0x440|            00 00 00 00 4a b7 d4 50            |    ....J..P    |      [44]: "2009-09-21T19:30:24Z" (1253561424) transition_time 0x444-0x44b.7 (8)
0x440|                                    00 00 00 00|            ....|      [45]: "2010-03-21T20:30:24Z" (1269203424) transition_time 0x44c-0x453.7 (8)
0x450|4b a6 81 e0                                    |K...            |
0x450|            00 00 00 00 4c 99 07 d0            |    ....L...    |      [46]: "2010-09-21T19:30:24Z" (1285097424) transition_time 0x454-0x45b.7 (8)
0x450|                                    00 00 00 00|            ....|      [47]: "2011-03-21T20:30:24Z" (1300739424) transition_time 0x45c-0x463.7 (8)
0x460|4d 87 b5 60                                    |M..`            |
0x460|            00 00 00 00 4e 7a 3b 50            |    ....Nz;P    |      [48]: "2011-09-21T19:30:24Z" (1316633424) transition_time 0x464-0x46b.7 (8)
0x460|                                    00 00 00 00|            ....|      [49]: "2012-03-20T20:30:24Z" (1332275424) transition_time 0x46c-0x473.7 (8)
0x470|4f 68 e8 e0                                    |Oh..            |
0x470|            00 00 00 00 50 5b 6e d1            |    ....P[n.    |      [50]: "2012-09-20T19:30:25Z" (1348169425) transition_time 0x474-0x47b.7 (8)
0x470|                                    00 00 00 00|            ....|      [51]: "2013-03-21T20:30:25Z" (1363897825) transition_time 0x47c-0x483.7 (8)
0x480|51 4b 6d e1                                    |QKm.            |
0x480|            00 00 00 00 52 3d f3 d1            |    ....R=..    |      [52]: "2013-09-21T19:30:25Z" (1379791825) transition_time 0x484-0x48b.7 (8)
0x480|                                    00 00 00 00|            ....|      [53]: "2014-03-21T20:30:25Z" (1395433825) transition_time 0x48c-0x493.7 (8)
0x490|53 2c a1 61                                    |S,.a            |
0x490|            00 00 00 00 54 1f 27 51            |    ....T.'Q    |      [54]: "2014-09-21T19:30:25Z" (1411327825) transition_time 0x494-0x49b.7 (8)
0x490|                                    00 00 00 00|            ....|      [55]: "2015-03-21T20:30:25Z" (1426969825) transition_time 0x49c-0x4a3.7 (8)
0x4a0|55 0d d4 e1                                    |U...            |
0x4a0|            00 00 00 00 56 00 5a d2            |    ....V.Z.    |      [56]: "2015-09-21T19:30:26Z" (1442863826) transition_time 0x4a4-0x4ab.7 (8)
0x4a0|                                    00 00 00 00|            ....|      [57]: "2016-03-20T20:30:26Z" (1458505826) transition_time 0x4ac-0x4b3.7 (8)
0x4b0|56 ef 08 62                                    |V..b            |
0x4b0|            00 00 00 00 57 e1 8e 52            |    ....W..R    |      [58]: "2016-09-20T19:30:26Z" (1474399826) transition_time 0x4b4-0x4bb.7 (8)
0x4b0|                                    00 00 00 00|            ....|      [59]: "2017-03-21T20:30:27Z" (1490128227) transition_time 0x4bc-0x4c3.7 (8)
0x4c0|58 d1 8d 63                                    |X..c            |
0x4c0|            00 00 00 00 59 c4 13 53            |    ....Y..S    |      [60]: "2017-09-21T19:30:27Z" (1506022227) transition_time 0x4c4-0x4cb.7 (8)
0x4c0|                                    00 00 00 00|            ....|      [61]: "2018-03-21T20:30:27Z" (1521664227) transition_time 0x4cc-0x4d3.7 (8)
0x4d0|5a b2 c0 e3                                    |Z...            |
0x4d0|            00 00 00 00 5b a5 46 d3            |    ....[.F.    |      [62]: "2018-09-21T19:30:27Z" (1537558227) transition_time 0x4d4-0x4db.7 (8)
0x4d0|                                    00 00 00 00|            ....|      [63]: "2019-03-21T20:30:27Z" (1553200227) transition_time 0x4dc-0x4e3.7 (8)
0x4e0|5c 93 f4 63                                    |\..c            |
0x4e0|            00 00 00 00 5d 86 7a 53            |    ....].zS    |      [64]: "2019-09-21T19:30:27Z" (1569094227) transition_time 0x4e4-0x4eb.7 (8)
0x4e0|                                    00 00 00 00|            ....|      [65]: "2020-03-20T20:30:27Z" (1584736227) transition_time 0x4ec-0x4f3.7 (8)
0x4f0|5e 75 27 e3                                    |^u'.            |
0x4f0|            00 00 00 00 5f 67 ad d3            |    ...._g..    |      [66]: "2020-09-20T19:30:27Z" (1600630227) transition_time 0x4f4-0x4fb.7 (8)
0x4f0|                                    00 00 00 00|            ....|      [67]: "2021-03-21T20:30:27Z" (1616358627) transition_time 0x4fc-0x503.7 (8)
0x500|60 57 ac e3                                    |`W..            |
0x500|            00 00 00 00 61 4a 32 d3            |    ....aJ2.    |      [68]: "2021-09-21T19:30:27Z" (1632252627) transition_time 0x504-0x50b.7 (8)
0x500|                                    00 00 00 00|            ....|      [69]: "2022-03-21T20:30:27Z" (1647894627) transition_time 0x50c-0x513.7 (8)
0x510|62 38 e0 63                                    |b8.c            |
0x510|            00 00 00 00 63 2b 66 53            |    ....c+fS    |      [70]: "2022-09-21T19:30:27Z" (1663788627) transition_time 0x514-0x51b.7 (8)
0x510|                                    00 00 00 00|            ....|      [71]: "2023-06-28T00:00:27Z" (1687910427) transition_time 0x51c-0x523.7 (8)
0x520|64 9b 78 1b                                    |d.x.            |
     |                                               |                |    transition_types[0:72]: 0x524-0x56b.7 (72)
0x520|            01                                 |    .           |      [0]: 1 transition_type 0x524-0x524.7 (1)
0x520|               03                              |     .          |      [1]: 3 transition_type 0x525-0x525.7 (1)
0x520|                  02                           |      .         |      [2]: 2 transition_type 0x526-0x526.7 (1)
0x520|                     05                        |       .        |      [3]: 5 transition_type 0x527-0x527.7 (1)
0x520|                        04                     |        .       |      [4]: 4 transition_type 0x528-0x528.7 (1)
0x520|                           05                  |         .      |      [5]: 5 transition_type 0x529-0x529.7 (1)
0x520|                              03               |          .     |      [6]: 3 transition_type 0x52a-0x52a.7 (1)
0x520|                                 02            |           .    |      [7]: 2 transition_type 0x52b-0x52b.7 (1)
0x520|                                    03         |            .   |      [8]: 3 transition_type 0x52c-0x52c.7 (1)
0x520|                                       02      |             .  |      [9]: 2 transition_type 0x52d-0x52d.7 (1)
0x520|                                          03   |              . |      [10]: 3 transition_type 0x52e-0x52e.7 (1)
0x520|                                             02|               .|      [11]: 2 transition_type 0x52f-0x52f.7 (1)
0x530|03                                             |.               |      [12]: 3 transition_type 0x530-0x530.7 (1)
0x530|   02                                          | .              |      [13]: 2 transition_type 0x531-0x531.7 (1)
0x530|      03                                       |  .             |      [14]: 3 transition_type 0x532-0x532.7 (1)
0x530|         02                                    |   .            |      [15]: 2 transition_type 0x533-0x533.7 (1)
0x530|            03                                 |    .           |      [16]: 3 transition_type 0x534-0x534.7 (1)
0x530|               02                              |     .          |      [17]: 2 transition_type 0x535-0x535.7 (1)
0x530|                  03                           |      .         |      [18]: 3 transition_type 0x536-0x536.7 (1)
0x530|                     02                        |       .        |      [19]: 2 transition_type 0x537-0x537.7 (1)
0x530|                        03                     |        .       |      [20]: 3 transition_type 0x538-0x538.7 (1)
0x530|                           02                  |         .      |      [21]: 2 transition_type 0x539-0x539.7 (1)
0x530|                              03               |          .     |      [22]: 3 transition_type 0x53a-0x53a.7 (1)
0x530|                                 02            |           .    |      [23]: 2 transition_type 0x53b-0x53b.7 (1)
0x530|                                    03         |            .   |      [24]: 3 transition_type 0x53c-0x53c.7 (1)
0x530|                                       02      |             .  |      [25]: 2 transition_type 0x53d-0x53d.7 (1)
0x530|                                          03   |              . |      [26]: 3 transition_type 0x53e-0x53e.7 (1)
0x530|                                             02|               .|      [27]: 2 transition_type 0x53f-0x53f.7 (1)
0x540|03                                             |.               |      [28]: 3 transition_type 0x540-0x540.7 (1)
0x540|   02                                          | .              |      [29]: 2 transition_type 0x541-0x541.7 (1)
0x540|      03                                       |  .             |      [30]: 3 transition_type 0x542-0x542.7 (1)
0x540|         02                                    |   .            |      [31]: 2 transition_type 0x543-0x543.7 (1)
0x540|            03                                 |    .           |      [32]: 3 transition_type 0x544-0x544.7 (1)
0x540|               02                              |     .          |      [33]: 2 transition_type 0x545-0x545.7 (1)
0x540|                  03                           |      .         |      [34]: 3 transition_type 0x546-0x546.7 (1)
0x540|                     02                        |       .        |      [35]: 2 transition_type 0x547-0x547.7 (1)
0x540|                        03                     |        .       |      [36]: 3 transition_type 0x548-0x548.7 (1)
0x540|                           02                  |         .      |      [37]: 2 transition_type 0x549-0x549.7 (1)
0x540|                              03               |          .     |      [38]: 3 transition_type 0x54a-0x54a.7 (1)
0x540|                                 02            |           .    |      [39]: 2 transition_type 0x54b-0x54b.7 (1)
0x540|                                    03         |            .   |      [40]: 3 transition_type 0x54c-0x54c.7 (1)
0x540|                                       02      |             .  |      [41]: 2 transition_type 0x54d-0x54d.7 (1)
0x540|                                          03   |              . |      [42]: 3 transition_type 0x54e-0x54e.7 (1)
0x540|                                             02|               .|      [43]: 2 transition_type 0x54f-0x54f.7 (1)
0x550|03                                             |.               |      [44]: 3 transition_type 0x550-0x550.7 (1)
0x550|   02                                          | .              |      [45]: 2 transition_type 0x551-0x551.7 (1)
0x550|      03                                       |  .             |      [46]: 3 transition_type 0x552-0x552.7 (1)
0x550|         02                                    |   .            |      [47]: 2 transition_type 0x553-0x553.7 (1)
0x550|            03                                 |    .           |      [48]: 3 transition_type 0x554-0x554.7 (1)
0x550|               02                              |     .          |      [49]: 2 transition_type 0x555-0x555.7 (1)
0x550|                  03                           |      .         |      [50]: 3 transition_type 0x556-0x556.7 (1)
0x550|                     02                        |       .        |      [51]: 2 transition_type 0x557-0x557.7 (1)
0x550|                        03                     |        .       |      [52]: 3 transition_type 0x558-0x558.7 (1)
0x550|                           02                  |         .      |      [53]: 2 transition_type 0x559-0x559.7 (1)
0x550|                              03               |          .     |      [54]: 3 transition_type 0x55a-0x55a.7 (1)
0x550|                                 02            |           .    |      [55]: 2 transition_type 0x55b-0x55b.7 (1)
0x550|                                    03         |            .   |      [56]: 3 transition_type 0x55c-0x55c.7 (1)
0x550|                                       02      |             .  |      [57]: 2 transition_type 0x55d-0x55d.7 (1)
0x550|                                          03   |              . |      [58]: 3 transition_type 0x55e-0x55e.7 (1)
0x550|                                             02|               .|      [59]: 2 transition_type 0x55f-0x55f.7 (1)
0x560|03                                             |.               |      [60]: 3 transition_type 0x560-0x560.7 (1)
0x560|   02                                          | .              |      [61]: 2 transition_type 0x561-0x561.7 (1)
0x560|      03                                       |  .             |      [62]: 3 transition_type 0x562-0x562.7 (1)
0x560|         02                                    |   .            |      [63]: 2 transition_type 0x563-0x563.7 (1)
0x560|            03                                 |    .           |      [64]: 3 transition_type 0x564-0x564.7 (1)
0x560|               02                              |     .          |      [65]: 2 transition_type 0x565-0x565.7 (1)
0x560|                  03                           |      .         |      [66]: 3 transition_type 0x566-0x566.7 (1)
0x560|                     02                        |       .        |      [67]: 2 transition_type 0x567-0x567.7 (1)
0x560|                        03                     |        .       |      [68]: 3 transition_type 0x568-0x568.7 (1)
0x560|                           02                  |         .      |      [69]: 2 transition_type 0x569-0x569.7 (1)
0x560|                              03               |          .     |      [70]: 3 transition_type 0x56a-0x56a.7 (1)
0x560|                                 03            |           .    |      [71]: 3 transition_type 0x56b-0x56b.7 (1)
     |                                               |                |    local_time_type_records[0:8]: 0x56c-0x59b.7 (48)
     |                                               |                |      [0]{}: local_time_type 0x56c-0x571.7 (6)
0x560|                                    00 00 30 38|            ..08|        utoff: 12344 (valid) 0x56c-0x56f.7 (4)
0x570|00                                             |.               |        dst: 0 (valid) 0x570-0x570.7 (1)
0x570|   00                                          | .              |        idx: 0 (valid) 0x571-0x571.7 (1)
     |                                               |                |      [1]{}: local_time_type 0x572-0x577.7 (6)
0x570|      00 00 30 38                              |  ..08          |        utoff: 12344 (valid) 0x572-0x575.7 (4)
0x570|                  00                           |      .         |        dst: 0 (valid) 0x576-0x576.7 (1)
0x570|                     04                        |       .        |        idx: 4 (valid) 0x577-0x577.7 (1)
     |                                               |                |      [2]{}: local_time_type 0x578-0x57d.7 (6)
0x570|                        00 00 3f 48            |        ..?H    |        utoff: 16200 (valid) 0x578-0x57b.7 (4)
0x570|                                    01         |            .   |        dst: 1 (valid) 0x57c-0x57c.7 (1)
0x570|                                       08      |             .  |        idx: 8 (valid) 0x57d-0x57d.7 (1)
     |                                               |                |      [3]{}: local_time_type 0x57e-0x583.7 (6)
0x570|                                          00 00|              ..|        utoff: 12600 (valid) 0x57e-0x581.7 (4)
0x580|31 38                                          |18              |
0x580|      00                                       |  .             |        dst: 0 (valid) 0x582-0x582.7 (1)
0x580|         0e                                    |   .            |        idx: 14 (valid) 0x583-0x583.7 (1)
     |                                               |                |      [4]{}: local_time_type 0x584-0x589.7 (6)
0x580|            00 00 46 50                        |    ..FP        |        utoff: 18000 (valid) 0x584-0x587.7 (4)
0x580|                        01                     |        .       |        dst: 1 (valid) 0x588-0x588.7 (1)
0x580|                           14                  |         .      |        idx: 20 (valid) 0x589-0x589.7 (1)
     |                                               |                |      [5]{}: local_time_type 0x58a-0x58f.7 (6)
0x580|                              00 00 38 40      |          ..8@  |        utoff: 14400 (valid) 0x58a-0x58d.7 (4)
0x580|                                          00   |              . |        dst: 0 (valid) 0x58e-0x58e.7 (1)
0x580|                                             18|               .|        idx: 24 (valid) 0x58f-0x58f.7 (1)
     |                                               |                |      [6]{}: local_time_type 0x590-0x595.7 (6)
0x590|00 00 3f 48                                    |..?H            |        utoff: 16200 (valid) 0x590-0x593.7 (4)
0x590|            01                                 |    .           |        dst: 1 (valid) 0x594-0x594.7 (1)
0x590|               08                              |     .          |        idx: 8 (valid) 0x595-0x595.7 (1)
     |                                               |                |      [7]{}: local_time_type 0x596-0x59b.7 (6)
0x590|                  00 00 31 38                  |      ..18      |        utoff: 12600 (valid) 0x596-0x599.7 (4)
0x590|                              00               |          .     |        dst: 0 (valid) 0x59a-0x59a.7 (1)
0x590|                                 0e            |           .    |        idx: 14 (valid) 0x59b-0x59b.7 (1)
     |                                               |                |    time_zone_designations[0:6]: 0x59c-0x5b7.7 (28)
0x590|                                    4c 4d 54 00|            LMT.|      [0]: "LMT" time_zone_designation 0x59c-0x59f.7 (4)
0x5a0|54 4d 54 00                                    |TMT.            |      [1]: "TMT" time_zone_designation 0x5a0-0x5a3.7 (4)
0x5a0|            2b 30 34 33 30 00                  |    +0430.      |      [2]: "+0430" time_zone_designation 0x5a4-0x5a9.7 (6)
0x5a0|                              2b 30 33 33 30 00|          +0330.|      [3]: "+0330" time_zone_designation 0x5aa-0x5af.7 (6)
0x5b0|2b 30 35 00                                    |+05.            |      [4]: "+05" time_zone_designation 0x5b0-0x5b3.7 (4)
0x5b0|            2b 30 34 00                        |    +04.        |      [5]: "+04" time_zone_designation 0x5b4-0x5b7.7 (4)
     |                                               |                |    leap_second_records[0:27]: 0x5b8-0x6fb.7 (324)
     |                                               |                |      [0]{}: leap_second_record 0x5b8-0x5c3.7 (12)
0x5b0|                        00 00 00 00 04 b2 58 00|        ......X.|        occur: "1972-07-01T00:00:00Z" (78796800) 0x5b8-0x5bf.7 (8)
0x5c0|00 00 00 01                                    |....            |        corr: 1 0x5c0-0x5c3.7 (4)
     |                                               |                |      [1]{}: leap_second_record 0x5c4-0x5cf.7 (12)
0x5c0|            00 00 00 00 05 a4 ec 01            |    ........    |        occur: "1973-01-01T00:00:01Z" (94694401) 0x5c4-0x5cb.7 (8)
0x5c0|                                    00 00 00 02|            ....|        corr: 2 0x5cc-0x5cf.7 (4)
     |                                               |                |      [2]{}: leap_second_record 0x5d0-0x5db.7 (12)
0x5d0|00 00 00 00 07 86 1f 82                        |........        |        occur: "1974-01-01T00:00:02Z" (126230402) 0x5d0-0x5d7.7 (8)
0x5d0|                        00 00 00 03            |        ....    |        corr: 3 0x5d8-0x5db.7 (4)
     |                                               |                |      [3]{}: leap_second_record 0x5dc-0x5e7.7 (12)
0x5d0|                                    00 00 00 00|            ....|        occur: "1975-01-01T00:00:03Z" (157766403) 0x5dc-0x5e3.7 (8)
0x5e0|09 67 53 03                                    |.gS.            |
0x5e0|            00 00 00 04                        |    ....        |        corr: 4 0x5e4-0x5e7.7 (4)
     |                                               |                |      [4]{}: leap_second_record 0x5e8-0x5f3.7 (12)
0x5e0|                        00 00 00 00 0b 48 86 84|        .....H..|        occur: "1976-01-01T00:00:04Z" (189302404) 0x5e8-0x5ef.7 (8)
0x5f0|00 00 00 05                                    |....            |        corr: 5 0x5f0-0x5f3.7 (4)
     |                                               |                |      [5]{}: leap_second_record 0x5f4-0x5ff.7 (12)
0x5f0|            00 00 00 00 0d 2b 0b 85            |    .....+..    |        occur: "1977-01-01T00:00:05Z" (220924805) 0x5f4-0x5fb.7 (8)
0x5f0|                                    00 00 00 06|            ....|        corr: 6 0x5fc-0x5ff.7 (4)
     |                                               |                |      [6]{}: leap_second_record 0x600-0x60b.7 (12)
0x600|00 00 00 00 0f 0c 3f 06                        |......?.        |        occur: "1978-01-01T00:00:06Z" (252460806) 0x600-0x607.7 (8)
0x600|                        00 00 00 07            |        ....    |        corr: 7 0x608-0x60b.7 (4)
     |                                               |                |      [7]{}: leap_second_record 0x60c-0x617.7 (12)
0x600|                                    00 00 00 00|            ....|        occur: "1979-01-01T00:00:07Z" (283996807) 0x60c-0x613.7 (8)
0x610|10 ed 72 87                                    |..r.            |
0x610|            00 00 00 08                        |    ....        |        corr: 8 0x614-0x617.7 (4)
     |                                               |                |      [8]{}: leap_second_record 0x618-0x623.7 (12)
0x610|                        00 00 00 00 12 ce a6 08|        ........|        occur: "1980-01-01T00:00:08Z" (315532808) 0x618-0x61f.7 (8)
0x620|00 00 00 09                                    |....            |        corr: 9 0x620-0x623.7 (4)
     |                                               |                |      [9]{}: leap_second_record 0x624-0x62f.7 (12)
0x620|            00 00 00 00 15 9f ca 89            |    ........    |        occur: "1981-07-01T00:00:09Z" (362793609) 0x624-0x62b.7 (8)
0x620|                                    00 00 00 0a|            ....|        corr: 10 0x62c-0x62f.7 (4)
     |                                               |                |      [10]{}: leap_second_record 0x630-0x63b.7 (12)
0x630|00 00 00 00 17 80 fe 0a                        |........        |        occur: "1982-07-01T00:00:10Z" (394329610) 0x630-0x637.7 (8)
0x630|                        00 00 00 0b            |        ....    |        corr: 11 0x638-0x63b.7 (4)
     |                                               |                |      [11]{}: leap_second_record 0x63c-0x647.7 (12)
0x630|                                    00 00 00 00|            ....|        occur: "1983-07-01T00:00:11Z" (425865611) 0x63c-0x643.7 (8)
0x640|19 62 31 8b                                    |.b1.            |
0x640|            00 00 00 0c                        |    ....        |        corr: 12 0x644-0x647.7 (4)
     |                                               |                |      [12]{}: leap_second_record 0x648-0x653.7 (12)
0x640|                        00 00 00 00 1d 25 ea 0c|        .....%..|        occur: "1985-07-01T00:00:12Z" (489024012) 0x648-0x64f.7 (8)
0x650|00 00 00 0d                                    |....            |        corr: 13 0x650-0x653.7 (4)
     |                                               |                |      [13]{}: leap_second_record 0x654-0x65f.7 (12)
0x650|            00 00 00 00 21 da e5 0d            |    ....!...    |        occur: "1988-01-01T00:00:13Z" (567993613) 0x654-0x65b.7 (8)
0x650|                                    00 00 00 0e|            ....|        corr: 14 0x65c-0x65f.7 (4)
     |                                               |                |      [14]{}: leap_second_record 0x660-0x66b.7 (12)
0x660|00 00 00 00 25 9e 9d 8e                        |....%...        |        occur: "1990-01-01T00:00:14Z" (631152014) 0x660-0x667.7 (8)
0x660|                        00 00 00 0f            |        ....    |        corr: 15 0x668-0x66b.7 (4)
     |                                               |                |      [15]{}: leap_second_record 0x66c-0x677.7 (12)
0x660|                                    00 00 00 00|            ....|        occur: "1991-01-01T00:00:15Z" (662688015) 0x66c-0x673.7 (8)
0x670|27 7f d1 0f                                    |'...            |
0x670|            00 00 00 10                        |    ....        |        corr: 16 0x674-0x677.7 (4)
     |                                               |                |      [16]{}: leap_second_record 0x678-0x683.7 (12)
0x670|                        00 00 00 00 2a 50 f5 90|        ....*P..|        occur: "1992-07-01T00:00:16Z" (709948816) 0x678-0x67f.7 (8)
0x680|00 00 00 11                                    |....            |        corr: 17 0x680-0x683.7 (4)
     |                                               |                |      [17]{}: leap_second_record 0x684-0x68f.7 (12)
0x680|            00 00 00 00 2c 32 29 11            |    ....,2).    |        occur: "1993-07-01T00:00:17Z" (741484817) 0x684-0x68b.7 (8)
0x680|                                    00 00 00 12|            ....|        corr: 18 0x68c-0x68f.7 (4)
     |                                               |                |      [18]{}: leap_second_record 0x690-0x69b.7 (12)
0x690|00 00 00 00 2e 13 5c 92                        |......\.        |        occur: "1994-07-01T00:00:18Z" (773020818) 0x690-0x697.7 (8)
0x690|                        00 00 00 13            |        ....    |        corr: 19 0x698-0x69b.7 (4)
     |                                               |                |      [19]{}: leap_second_record 0x69c-0x6a7.7 (12)
0x690|                                    00 00 00 00|            ....|        occur: "1996-01-01T00:00:19Z" (820454419) 0x69c-0x6a3.7 (8)
0x6a0|30 e7 24 13                                    |0.$.            |
0x6a0|            00 00 00 14                        |    ....        |        corr: 20 0x6a4-0x6a7.7 (4)
     |                                               |                |      [20]{}: leap_second_record 0x6a8-0x6b3.7 (12)
0x6a0|                        00 00 00 00 33 b8 48 94|        ....3.H.|        occur: "1997-07-01T00:00:20Z" (867715220) 0x6a8-0x6af.7 (8)
0x6b0|00 00 00 15                                    |....            |        corr: 21 0x6b0-0x6b3.7 (4)
     |                                               |                |      [21]{}: leap_second_record 0x6b4-0x6bf.7 (12)
0x6b0|            00 00 00 00 36 8c 10 15            |    ....6...    |        occur: "1999-01-01T00:00:21Z" (915148821) 0x6b4-0x6bb.7 (8)
0x6b0|                                    00 00 00 16|            ....|        corr: 22 0x6bc-0x6bf.7 (4)
     |                                               |                |      [22]{}: leap_second_record 0x6c0-0x6cb.7 (12)
0x6c0|00 00 00 00 43 b7 1b 96                        |....C...        |        occur: "2006-01-01T00:00:22Z" (1136073622) 0x6c0-0x6c7.7 (8)
0x6c0|                        00 00 00 17            |        ....    |        corr: 23 0x6c8-0x6cb.7 (4)
     |                                               |                |      [23]{}: leap_second_record 0x6cc-0x6d7.7 (12)
0x6c0|                                    00 00 00 00|            ....|        occur: "2009-01-01T00:00:23Z" (1230768023) 0x6cc-0x6d3.7 (8)
0x6d0|49 5c 07 97                                    |I\..            |
0x6d0|            00 00 00 18                        |    ....        |        corr: 24 0x6d4-0x6d7.7 (4)
     |                                               |                |      [24]{}: leap_second_record 0x6d8-0x6e3.7 (12)
0x6d0|                        00 00 00 00 4f ef 93 18|        ....O...|        occur: "2012-07-01T00:00:24Z" (1341100824) 0x6d8-0x6df.7 (8)
0x6e0|00 00 00 19                                    |....            |        corr: 25 0x6e0-0x6e3.7 (4)
     |                                               |                |      [25]{}: leap_second_record 0x6e4-0x6ef.7 (12)
0x6e0|            00 00 00 00 55 93 2d 99            |    ....U.-.    |        occur: "2015-07-01T00:00:25Z" (1435708825) 0x6e4-0x6eb.7 (8)
0x6e0|                                    00 00 00 1a|            ....|        corr: 26 0x6ec-0x6ef.7 (4)
     |                                               |                |      [26]{}: leap_second_record 0x6f0-0x6fb.7 (12)
0x6f0|00 00 00 00 58 68 46 9a                        |....XhF.        |        occur: "2017-01-01T00:00:26Z" (1483228826) 0x6f0-0x6f7.7 (8)
0x6f0|                        00 00 00 1b            |        ....    |        corr: 27 0x6f8-0x6fb.7 (4)
     |                                               |                |    standard_wall_indicators[0:0]: 0x6fc-NA (0)
     |                                               |                |    ut_local_indicators[0:0]: 0x6fc-NA (0)
     |                                               |                |  footer{}: 0x6fc-0x6fd.7 (2)
0x6f0|                                    0a         |            .   |    nl1: 10 (valid) 0x6fc-0x6fc.7 (1)
     |                                               |                |    tz_string: "" 0x6fd-NA (0)
0x6f0|                                       0a|     |             .| |    nl2: 10 (valid) 0x6fd-0x6fd.7 (1)
