$ fq -d tzif dv Tell_City
     |00 01 02 03 04 05 06 07 08 09 0a 0b 0c 0d 0e 0f|0123456789abcdef|.{}: Tell_City (tzif) 0x0-0x722 (1826)
     |                                               |                |  v1header{}: 0x0-0x2c (44)
0x000|54 5a 69 66                                    |TZif            |    magic: 0x545a6966 (valid) 0x0-0x4 (4)
0x000|            32                                 |    2           |    ver: "2" (0x32) (valid) 0x4-0x5 (1)
0x000|               00 00 00 00 00 00 00 00 00 00 00|     ...........|    reserved: raw bits 0x5-0x14 (15)
0x010|00 00 00 00                                    |....            |
0x010|            00 00 00 0a                        |    ....        |    isutcnt: 10 0x14-0x18 (4)
0x010|                        00 00 00 0a            |        ....    |    isstdcnt: 10 0x18-0x1c (4)
0x010|                                    00 00 00 1b|            ....|    leapcnt: 27 0x1c-0x20 (4)
0x020|00 00 00 46                                    |...F            |    timecnt: 70 0x20-0x24 (4)
0x020|            00 00 00 0a                        |    ....        |    typecnt: 10 0x24-0x28 (4)
0x020|                        00 00 00 1c            |        ....    |    charcnt: 28 0x28-0x2c (4)
     |                                               |                |  v1datablock{}: 0x2c-0x2ce (674)
     |                                               |                |    transition_times[0:70]: 0x2c-0x144 (280)
0x020|                                    80 00 00 00|            ....|      [0]: "1901-12-13T20:45:52Z" (-2147483648) transition_time 0x2c-0x30 (4)
0x030|9e a6 2c 80                                    |..,.            |      [1]: "1918-03-31T08:00:00Z" (-1633276800) transition_time 0x30-0x34 (4)
0x030|            9f ba f9 70                        |    ...p        |      [2]: "1918-10-27T07:00:00Z" (-1615136400) transition_time 0x34-0x38 (4)
0x030|                        a0 86 0e 80            |        ....    |      [3]: "1919-03-30T08:00:00Z" (-1601827200) transition_time 0x38-0x3c (4)
0x030|                                    a1 9a db 70|            ...p|      [4]: "1919-10-26T07:00:00Z" (-1583686800) transition_time 0x3c-0x40 (4)
0x040|cb 88 fe 80                                    |....            |      [5]: "1942-02-09T08:00:00Z" (-880214400) transition_time 0x40-0x44 (4)
0x040|            d2 23 f4 70                        |    .#.p        |      [6]: "1945-08-14T23:00:00Z" (-769395600) transition_time 0x44-0x48 (4)
0x040|                        d2 61 09 f0            |        .a..    |      [7]: "1945-09-30T07:00:00Z" (-765392400) transition_time 0x48-0x4c (4)
0x040|                                    e4 67 3d e0|            .g=.|      [8]: "1955-05-01T06:00:00Z" (-462996000) transition_time 0x4c-0x50 (4)
0x050|e5 29 18 70                                    |.).p            |      [9]: "1955-09-25T07:00:00Z" (-450291600) transition_time 0x50-0x54 (4)
0x050|            e6 47 3c 00                        |    .G<.        |      [10]: "1956-04-29T08:00:00Z" (-431539200) transition_time 0x54-0x58 (4)
0x050|                        e7 12 34 f0            |        ..4.    |      [11]: "1956-09-30T07:00:00Z" (-418237200) transition_time 0x58-0x5c (4)
0x050|                                    e8 27 1e 00|            .'..|      [12]: "1957-04-28T08:00:00Z" (-400089600) transition_time 0x5c-0x60 (4)
0x060|e8 f2 16 f0                                    |....            |      [13]: "1957-09-29T07:00:00Z" (-386787600) transition_time 0x60-0x64 (4)
0x060|            ea 07 00 00                        |    ....        |      [14]: "1958-04-27T08:00:00Z" (-368640000) transition_time 0x64-0x68 (4)
0x060|                        ea d1 f8 f0            |        ....    |      [15]: "1958-09-28T07:00:00Z" (-355338000) transition_time 0x68-0x6c (4)
0x060|                                    eb e6 e2 00|            ....|      [16]: "1959-04-26T08:00:00Z" (-337190400) transition_time 0x6c-0x70 (4)
0x070|ec b1 da f0                                    |....            |      [17]: "1959-09-27T07:00:00Z" (-323888400) transition_time 0x70-0x74 (4)
0x070|            ed c6 c4 00                        |    ....        |      [18]: "1960-04-24T08:00:00Z" (-305740800) transition_time 0x74-0x78 (4)
0x070|                        ee 91 bc f0            |        ....    |      [19]: "1960-09-25T07:00:00Z" (-292438800) transition_time 0x78-0x7c (4)
0x070|                                    ef af e0 80|            ....|      [20]: "1961-04-30T08:00:00Z" (-273686400) transition_time 0x7c-0x80 (4)
0x080|f0 9f c3 70                                    |...p            |      [21]: "1961-10-29T07:00:00Z" (-257965200) transition_time 0x80-0x84 (4)
0x080|            f1 8f c2 80                        |    ....        |      [22]: "1962-04-29T08:00:00Z" (-242236800) transition_time 0x84-0x88 (4)
0x080|                        f2 7f a5 70            |        ...p    |      [23]: "1962-10-28T07:00:00Z" (-226515600) transition_time 0x88-0x8c (4)
0x080|                                    f3 6f a4 80|            .o..|      [24]: "1963-04-28T08:00:00Z" (-210787200) transition_time 0x8c-0x90 (4)
0x090|f4 5f 87 70                                    |._.p            |      [25]: "1963-10-27T07:00:00Z" (-195066000) transition_time 0x90-0x94 (4)
0x090|            f5 4f 86 80                        |    .O..        |      [26]: "1964-04-26T08:00:00Z" (-179337600) transition_time 0x94-0x98 (4)
0x090|                        fb e8 49 f0            |        ..I.    |      [27]: "1967-10-29T07:00:00Z" (-68662800) transition_time 0x98-0x9c (4)
0x090|                                    fc d8 49 00|            ..I.|      [28]: "1968-04-28T08:00:00Z" (-52934400) transition_time 0x9c-0xa0 (4)
0x0a0|fd c8 2b f0                                    |..+.            |      [29]: "1968-10-27T07:00:00Z" (-37213200) transition_time 0xa0-0xa4 (4)
0x0a0|            fe b8 2b 00                        |    ..+.        |      [30]: "1969-04-27T08:00:00Z" (-21484800) transition_time 0xa4-0xa8 (4)
0x0a0|                        ff a7 ff e0            |        ....    |      [31]: "1969-10-26T06:00:00Z" (-5767200) transition_time 0xa8-0xac (4)
0x0a0|                                    00 97 fe f0|            ....|      [32]: "1970-04-26T07:00:00Z" (9961200) transition_time 0xac-0xb0 (4)
0x0b0|01 87 e1 e0                                    |....            |      [33]: "1970-10-25T06:00:00Z" (25682400) transition_time 0xb0-0xb4 (4)
0x0b0|            44 2f 76 87                        |    D/v.        |      [34]: "2006-04-02T07:00:23Z" (1143961223) transition_time 0xb4-0xb8 (4)
0x0b0|                        45 44 51 87            |        EDQ.    |      [35]: "2006-10-29T07:00:23Z" (1162105223) transition_time 0xb8-0xbc (4)
0x0b0|                                    45 f3 b7 17|            E...|      [36]: "2007-03-11T08:00:23Z" (1173600023) transition_time 0xbc-0xc0 (4)
0x0c0|47 2d 6e 07                                    |G-n.            |      [37]: "2007-11-04T07:00:23Z" (1194159623) transition_time 0xc0-0xc4 (4)
0x0c0|            47 d3 99 17                        |    G...        |      [38]: "2008-03-09T08:00:23Z" (1205049623) transition_time 0xc4-0xc8 (4)
0x0c0|                        49 0d 50 07            |        I.P.    |      [39]: "2008-11-02T07:00:23Z" (1225609223) transition_time 0xc8-0xcc (4)
0x0c0|                                    49 b3 7b 18|            I.{.|      [40]: "2009-03-08T08:00:24Z" (1236499224) transition_time 0xcc-0xd0 (4)
0x0d0|4a ed 32 08                                    |J.2.            |      [41]: "2009-11-01T07:00:24Z" (1257058824) transition_time 0xd0-0xd4 (4)
0x0d0|            4b 9c 97 98                        |    K...        |      [42]: "2010-03-14T08:00:24Z" (1268553624) transition_time 0xd4-0xd8 (4)
0x0d0|                        4c d6 4e 88            |        L.N.    |      [43]: "2010-11-07T07:00:24Z" (1289113224) transition_time 0xd8-0xdc (4)
0x0d0|                                    4d 7c 79 98|            M|y.|      [44]: "2011-03-13T08:00:24Z" (1300003224) transition_time 0xdc-0xe0 (4)
0x0e0|4e b6 30 88                                    |N.0.            |      [45]: "2011-11-06T07:00:24Z" (1320562824) transition_time 0xe0-0xe4 (4)
0x0e0|            4f 5c 5b 98                        |    O\[.        |      [46]: "2012-03-11T08:00:24Z" (1331452824) transition_time 0xe4-0xe8 (4)
0x0e0|                        50 96 12 89            |        P...    |      [47]: "2012-11-04T07:00:25Z" (1352012425) transition_time 0xe8-0xec (4)
0x0e0|                                    51 3c 3d 99|            Q<=.|      [48]: "2013-03-10T08:00:25Z" (1362902425) transition_time 0xec-0xf0 (4)
0x0f0|52 75 f4 89                                    |Ru..            |      [49]: "2013-11-03T07:00:25Z" (1383462025) transition_time 0xf0-0xf4 (4)
0x0f0|            53 1c 1f 99                        |    S...        |      [50]: "2014-03-09T08:00:25Z" (1394352025) transition_time 0xf4-0xf8 (4)
0x0f0|                        54 55 d6 89            |        TU..    |      [51]: "2014-11-02T07:00:25Z" (1414911625) transition_time 0xf8-0xfc (4)
0x0f0|                                    54 fc 01 99|            T...|      [52]: "2015-03-08T08:00:25Z" (1425801625) transition_time 0xfc-0x100 (4)
0x100|56 35 b8 8a                                    |V5..            |      [53]: "2015-11-01T07:00:26Z" (1446361226) transition_time 0x100-0x104 (4)
0x100|            56 e5 1e 1a                        |    V...        |      [54]: "2016-03-13T08:00:26Z" (1457856026) transition_time 0x104-0x108 (4)
0x100|                        58 1e d5 0a            |        X...    |      [55]: "2016-11-06T07:00:26Z" (1478415626) transition_time 0x108-0x10c (4)
0x100|                                    58 c5 00 1b|            X...|      [56]: "2017-03-12T08:00:27Z" (1489305627) transition_time 0x10c-0x110 (4)
0x110|59 fe b7 0b                                    |Y...            |      [57]: "2017-11-05T07:00:27Z" (1509865227) transition_time 0x110-0x114 (4)
0x110|            5a a4 e2 1b                        |    Z...        |      [58]: "2018-03-11T08:00:27Z" (1520755227) transition_time 0x114-0x118 (4)
0x110|                        5b de 99 0b            |        [...    |      [59]: "2018-11-04T07:00:27Z" (1541314827) transition_time 0x118-0x11c (4)
0x110|                                    5c 84 c4 1b|            \...|      [60]: "2019-03-10T08:00:27Z" (1552204827) transition_time 0x11c-0x120 (4)
0x120|5d be 7b 0b                                    |].{.            |      [61]: "2019-11-03T07:00:27Z" (1572764427) transition_time 0x120-0x124 (4)
0x120|            5e 64 a6 1b                        |    ^d..        |      [62]: "2020-03-08T08:00:27Z" (1583654427) transition_time 0x124-0x128 (4)
0x120|                        5f 9e 5d 0b            |        _.].    |      [63]: "2020-11-01T07:00:27Z" (1604214027) transition_time 0x128-0x12c (4)
0x120|                                    60 4d c2 9b|            `M..|      [64]: "2021-03-14T08:00:27Z" (1615708827) transition_time 0x12c-0x130 (4)
0x130|61 87 79 8b                                    |a.y.            |      [65]: "2021-11-07T07:00:27Z" (1636268427) transition_time 0x130-0x134 (4)
0x130|            62 2d a4 9b                        |    b-..        |      [66]: "2022-03-13T08:00:27Z" (1647158427) transition_time 0x134-0x138 (4)
0x130|                        63 67 5b 8b            |        cg[.    |      [67]: "2022-11-06T07:00:27Z" (1667718027) transition_time 0x138-0x13c (4)
0x130|                                    64 0d 86 9b|            d...|      [68]: "2023-03-12T08:00:27Z" (1678608027) transition_time 0x13c-0x140 (4)
0x140|64 9b 78 1b                                    |d.x.            |      [69]: "2023-06-28T00:00:27Z" (1687910427) transition_time 0x140-0x144 (4)
     |                                               |                |    transition_types[0:70]: 0x144-0x18a (70)
0x140|            05                                 |    .           |      [0]: 5 transition_type 0x144-0x145 (1)
0x140|               01                              |     .          |      [1]: 1 transition_type 0x145-0x146 (1)
0x140|                  02                           |      .         |      [2]: 2 transition_type 0x146-0x147 (1)
0x140|                     01                        |       .        |      [3]: 1 transition_type 0x147-0x148 (1)
0x140|                        02                     |        .       |      [4]: 2 transition_type 0x148-0x149 (1)
0x140|                           03                  |         .      |      [5]: 3 transition_type 0x149-0x14a (1)
0x140|                              04               |          .     |      [6]: 4 transition_type 0x14a-0x14b (1)
0x140|                                 02            |           .    |      [7]: 2 transition_type 0x14b-0x14c (1)
0x140|                                    01         |            .   |      [8]: 1 transition_type 0x14c-0x14d (1)
0x140|                                       02      |             .  |      [9]: 2 transition_type 0x14d-0x14e (1)
0x140|                                          01   |              . |      [10]: 1 transition_type 0x14e-0x14f (1)
0x140|                                             02|               .|      [11]: 2 transition_type 0x14f-0x150 (1)
0x150|01                                             |.               |      [12]: 1 transition_type 0x150-0x151 (1)
0x150|   02                                          | .              |      [13]: 2 transition_type 0x151-0x152 (1)
0x150|      01                                       |  .             |      [14]: 1 transition_type 0x152-0x153 (1)
0x150|         02                                    |   .            |      [15]: 2 transition_type 0x153-0x154 (1)
0x150|            01                                 |    .           |      [16]: 1 transition_type 0x154-0x155 (1)
0x150|               02                              |     .          |      [17]: 2 transition_type 0x155-0x156 (1)
0x150|                  01                           |      .         |      [18]: 1 transition_type 0x156-0x157 (1)
0x150|                     02                        |       .        |      [19]: 2 transition_type 0x157-0x158 (1)
0x150|                        01                     |        .       |      [20]: 1 transition_type 0x158-0x159 (1)
0x150|                           02                  |         .      |      [21]: 2 transition_type 0x159-0x15a (1)
0x150|                              01               |          .     |      [22]: 1 transition_type 0x15a-0x15b (1)
0x150|                                 02            |           .    |      [23]: 2 transition_type 0x15b-0x15c (1)
0x150|                                    01         |            .   |      [24]: 1 transition_type 0x15c-0x15d (1)
0x150|                                       02      |             .  |      [25]: 2 transition_type 0x15d-0x15e (1)
0x150|                                          06   |              . |      [26]: 6 transition_type 0x15e-0x15f (1)
0x150|                                             02|               .|      [27]: 2 transition_type 0x15f-0x160 (1)
0x160|01                                             |.               |      [28]: 1 transition_type 0x160-0x161 (1)
0x160|   02                                          | .              |      [29]: 2 transition_type 0x161-0x162 (1)
0x160|      07                                       |  .             |      [30]: 7 transition_type 0x162-0x163 (1)
0x160|         06                                    |   .            |      [31]: 6 transition_type 0x163-0x164 (1)
0x160|            07                                 |    .           |      [32]: 7 transition_type 0x164-0x165 (1)
0x160|               06                              |     .          |      [33]: 6 transition_type 0x165-0x166 (1)
0x160|                  01                           |      .         |      [34]: 1 transition_type 0x166-0x167 (1)
0x160|                     02                        |       .        |      [35]: 2 transition_type 0x167-0x168 (1)
0x160|                        01                     |        .       |      [36]: 1 transition_type 0x168-0x169 (1)
0x160|                           02                  |         .      |      [37]: 2 transition_type 0x169-0x16a (1)
0x160|                              01               |          .     |      [38]: 1 transition_type 0x16a-0x16b (1)
0x160|                                 02            |           .    |      [39]: 2 transition_type 0x16b-0x16c (1)
0x160|                                    01         |            .   |      [40]: 1 transition_type 0x16c-0x16d (1)
0x160|                                       02      |             .  |      [41]: 2 transition_type 0x16d-0x16e (1)
0x160|                                          01   |              . |      [42]: 1 transition_type 0x16e-0x16f (1)
0x160|                                             02|               .|      [43]: 2 transition_type 0x16f-0x170 (1)
0x170|01                                             |.               |      [44]: 1 transition_type 0x170-0x171 (1)
0x170|   02                                          | .              |      [45]: 2 transition_type 0x171-0x172 (1)
0x170|      01                                       |  .             |      [46]: 1 transition_type 0x172-0x173 (1)
0x170|         02                                    |   .            |      [47]: 2 transition_type 0x173-0x174 (1)
0x170|            01                                 |    .           |      [48]: 1 transition_type 0x174-0x175 (1)
0x170|               02                              |     .          |      [49]: 2 transition_type 0x175-0x176 (1)
0x170|                  01                           |      .         |      [50]: 1 transition_type 0x176-0x177 (1)
0x170|                     02                        |       .        |      [51]: 2 transition_type 0x177-0x178 (1)
0x170|                        01                     |        .       |      [52]: 1 transition_type 0x178-0x179 (1)
0x170|                           02                  |         .      |      [53]: 2 transition_type 0x179-0x17a (1)
0x170|                              01               |          .     |      [54]: 1 transition_type 0x17a-0x17b (1)
0x170|                                 02            |           .    |      [55]: 2 transition_type 0x17b-0x17c (1)
0x170|                                    01         |            .   |      [56]: 1 transition_type 0x17c-0x17d (1)
0x170|                                       02      |             .  |      [57]: 2 transition_type 0x17d-0x17e (1)
0x170|                                          01   |              . |      [58]: 1 transition_type 0x17e-0x17f (1)
0x170|                                             02|               .|      [59]: 2 transition_type 0x17f-0x180 (1)
0x180|01                                             |.               |      [60]: 1 transition_type 0x180-0x181 (1)
0x180|   02                                          | .              |      [61]: 2 transition_type 0x181-0x182 (1)
0x180|      01                                       |  .             |      [62]: 1 transition_type 0x182-0x183 (1)
0x180|         02                                    |   .            |      [63]: 2 transition_type 0x183-0x184 (1)
0x180|            01                                 |    .           |      [64]: 1 transition_type 0x184-0x185 (1)
0x180|               02                              |     .          |      [65]: 2 transition_type 0x185-0x186 (1)
0x180|                  01                           |      .         |      [66]: 1 transition_type 0x186-0x187 (1)
0x180|                     02                        |       .        |      [67]: 2 transition_type 0x187-0x188 (1)
0x180|                        01                     |        .       |      [68]: 1 transition_type 0x188-0x189 (1)
0x180|                           01                  |         .      |      [69]: 1 transition_type 0x189-0x18a (1)
     |                                               |                |    local_time_type_records[0:10]: 0x18a-0x1c6 (60)
     |                                               |                |      [0]{}: local_time_type 0x18a-0x190 (6)
0x180|                              ff ff ae a9      |          ....  |        utoff: -20823 (valid) 0x18a-0x18e (4)
0x180|                                          00   |              . |        dst: 0 (valid) 0x18e-0x18f (1)
0x180|                                             00|               .|        idx: 0 (valid) 0x18f-0x190 (1)
     |                                               |                |      [1]{}: local_time_type 0x190-0x196 (6)
0x190|ff ff b9 b0                                    |....            |        utoff: -18000 (valid) 0x190-0x194 (4)
0x190|            01                                 |    .           |        dst: 1 (valid) 0x194-0x195 (1)
0x190|               04                              |     .          |        idx: 4 (valid) 0x195-0x196 (1)
     |                                               |                |      [2]{}: local_time_type 0x196-0x19c (6)
0x190|                  ff ff ab a0                  |      ....      |        utoff: -21600 (valid) 0x196-0x19a (4)
0x190|                              00               |          .     |        dst: 0 (valid) 0x19a-0x19b (1)
0x190|                                 08            |           .    |        idx: 8 (valid) 0x19b-0x19c (1)
     |                                               |                |      [3]{}: local_time_type 0x19c-0x1a2 (6)
0x190|                                    ff ff b9 b0|            ....|        utoff: -18000 (valid) 0x19c-0x1a0 (4)
0x1a0|01                                             |.               |        dst: 1 (valid) 0x1a0-0x1a1 (1)
0x1a0|   0c                                          | .              |        idx: 12 (valid) 0x1a1-0x1a2 (1)
     |                                               |                |      [4]{}: local_time_type 0x1a2-0x1a8 (6)
0x1a0|      ff ff b9 b0                              |  ....          |        utoff: -18000 (valid) 0x1a2-0x1a6 (4)
0x1a0|                  01                           |      .         |        dst: 1 (valid) 0x1a6-0x1a7 (1)
0x1a0|                     10                        |       .        |        idx: 16 (valid) 0x1a7-0x1a8 (1)
     |                                               |                |      [5]{}: local_time_type 0x1a8-0x1ae (6)
0x1a0|                        ff ff ab a0            |        ....    |        utoff: -21600 (valid) 0x1a8-0x1ac (4)
0x1a0|                                    00         |            .   |        dst: 0 (valid) 0x1ac-0x1ad (1)
0x1a0|                                       08      |             .  |        idx: 8 (valid) 0x1ad-0x1ae (1)
     |                                               |                |      [6]{}: local_time_type 0x1ae-0x1b4 (6)
0x1a0|                                          ff ff|              ..|        utoff: -18000 (valid) 0x1ae-0x1b2 (4)
0x1b0|b9 b0                                          |..              |
0x1b0|      00                                       |  .             |        dst: 0 (valid) 0x1b2-0x1b3 (1)
0x1b0|         14                                    |   .            |        idx: 20 (valid) 0x1b3-0x1b4 (1)
     |                                               |                |      [7]{}: local_time_type 0x1b4-0x1ba (6)
0x1b0|            ff ff c7 c0                        |    ....        |        utoff: -14400 (valid) 0x1b4-0x1b8 (4)
0x1b0|                        01                     |        .       |        dst: 1 (valid) 0x1b8-0x1b9 (1)
0x1b0|                           18                  |         .      |        idx: 24 (valid) 0x1b9-0x1ba (1)
     |                                               |                |      [8]{}: local_time_type 0x1ba-0x1c0 (6)
0x1b0|                              ff ff b9 b0      |          ....  |        utoff: -18000 (valid) 0x1ba-0x1be (4)
0x1b0|                                          01   |              . |        dst: 1 (valid) 0x1be-0x1bf (1)
0x1b0|                                             04|               .|        idx: 4 (valid) 0x1bf-0x1c0 (1)
     |                                               |                |      [9]{}: local_time_type 0x1c0-0x1c6 (6)
0x1c0|ff ff ab a0                                    |....            |        utoff: -21600 (valid) 0x1c0-0x1c4 (4)
0x1c0|            00                                 |    .           |        dst: 0 (valid) 0x1c4-0x1c5 (1)
0x1c0|               08                              |     .          |        idx: 8 (valid) 0x1c5-0x1c6 (1)
     |                                               |                |    time_zone_designations[0:7]: 0x1c6-0x1e2 (28)
0x1c0|                  4c 4d 54 00                  |      LMT.      |      [0]: "LMT" time_zone_designation 0x1c6-0x1ca (4)
0x1c0|                              43 44 54 00      |          CDT.  |      [1]: "CDT" time_zone_designation 0x1ca-0x1ce (4)
0x1c0|                                          43 53|              CS|      [2]: "CST" time_zone_designation 0x1ce-0x1d2 (4)
0x1d0|54 00                                          |T.              |
0x1d0|      43 57 54 00                              |  CWT.          |      [3]: "CWT" time_zone_designation 0x1d2-0x1d6 (4)
0x1d0|                  43 50 54 00                  |      CPT.      |      [4]: "CPT" time_zone_designation 0x1d6-0x1da (4)
0x1d0|                              45 53 54 00      |          EST.  |      [5]: "EST" time_zone_designation 0x1da-0x1de (4)
0x1d0|                                          45 44|              ED|      [6]: "EDT" time_zone_designation 0x1de-0x1e2 (4)
0x1e0|54 00                                          |T.              |
     |                                               |                |    leap_second_records[0:27]: 0x1e2-0x2ba (216)
     |                                               |                |      [0]{}: leap_second_record 0x1e2-0x1ea (8)
0x1e0|      04 b2 58 00                              |  ..X.          |        occur: "1972-07-01T00:00:00Z" (78796800) 0x1e2-0x1e6 (4)
0x1e0|                  00 00 00 01                  |      ....      |        corr: 1 0x1e6-0x1ea (4)
     |                                               |                |      [1]{}: leap_second_record 0x1ea-0x1f2 (8)
0x1e0|                              05 a4 ec 01      |          ....  |        occur: "1973-01-01T00:00:01Z" (94694401) 0x1ea-0x1ee (4)
0x1e0|                                          00 00|              ..|        corr: 2 0x1ee-0x1f2 (4)
0x1f0|00 02                                          |..              |
     |                                               |                |      [2]{}: leap_second_record 0x1f2-0x1fa (8)
0x1f0|      07 86 1f 82                              |  ....          |        occur: "1974-01-01T00:00:02Z" (126230402) 0x1f2-0x1f6 (4)
0x1f0|                  00 00 00 03                  |      ....      |        corr: 3 0x1f6-0x1fa (4)
     |                                               |                |      [3]{}: leap_second_record 0x1fa-0x202 (8)
0x1f0|                              09 67 53 03      |          .gS.  |        occur: "1975-01-01T00:00:03Z" (157766403) 0x1fa-0x1fe (4)
0x1f0|                                          00 00|              ..|        corr: 4 0x1fe-0x202 (4)
0x200|00 04                                          |..              |
     |                                               |                |      [4]{}: leap_second_record 0x202-0x20a (8)
0x200|      0b 48 86 84                              |  .H..          |        occur: "1976-01-01T00:00:04Z" (189302404) 0x202-0x206 (4)
0x200|                  00 00 00 05                  |      ....      |        corr: 5 0x206-0x20a (4)
     |                                               |                |      [5]{}: leap_second_record 0x20a-0x212 (8)
0x200|                              0d 2b 0b 85      |          .+..  |        occur: "1977-01-01T00:00:05Z" (220924805) 0x20a-0x20e (4)
0x200|                                          00 00|              ..|        corr: 6 0x20e-0x212 (4)
0x210|00 06                                          |..              |
     |                                               |                |      [6]{}: leap_second_record 0x212-0x21a (8)
0x210|      0f 0c 3f 06                              |  ..?.          |        occur: "1978-01-01T00:00:06Z" (252460806) 0x212-0x216 (4)
0x210|                  00 00 00 07                  |      ....      |        corr: 7 0x216-0x21a (4)
     |                                               |                |      [7]{}: leap_second_record 0x21a-0x222 (8)
0x210|                              10 ed 72 87      |          ..r.  |        occur: "1979-01-01T00:00:07Z" (283996807) 0x21a-0x21e (4)
0x210|                                          00 00|              ..|        corr: 8 0x21e-0x222 (4)
0x220|00 08                                          |..              |
     |                                               |                |      [8]{}: leap_second_record 0x222-0x22a (8)
0x220|      12 ce a6 08                              |  ....          |        occur: "1980-01-01T00:00:08Z" (315532808) 0x222-0x226 (4)
0x220|                  00 00 00 09                  |      ....      |        corr: 9 0x226-0x22a (4)
     |                                               |                |      [9]{}: leap_second_record 0x22a-0x232 (8)
0x220|                              15 9f ca 89      |          ....  |        occur: "1981-07-01T00:00:09Z" (362793609) 0x22a-0x22e (4)
0x220|                                          00 00|              ..|        corr: 10 0x22e-0x232 (4)
0x230|00 0a                                          |..              |
     |                                               |                |      [10]{}: leap_second_record 0x232-0x23a (8)
0x230|      17 80 fe 0a                              |  ....          |        occur: "1982-07-01T00:00:10Z" (394329610) 0x232-0x236 (4)
0x230|                  00 00 00 0b                  |      ....      |        corr: 11 0x236-0x23a (4)
     |                                               |                |      [11]{}: leap_second_record 0x23a-0x242 (8)
0x230|                              19 62 31 8b      |          .b1.  |        occur: "1983-07-01T00:00:11Z" (425865611) 0x23a-0x23e (4)
0x230|                                          00 00|              ..|        corr: 12 0x23e-0x242 (4)
0x240|00 0c                                          |..              |
     |                                               |                |      [12]{}: leap_second_record 0x242-0x24a (8)
0x240|      1d 25 ea 0c                              |  .%..          |        occur: "1985-07-01T00:00:12Z" (489024012) 0x242-0x246 (4)
0x240|                  00 00 00 0d                  |      ....      |        corr: 13 0x246-0x24a (4)
     |                                               |                |      [13]{}: leap_second_record 0x24a-0x252 (8)
0x240|                              21 da e5 0d      |          !...  |        occur: "1988-01-01T00:00:13Z" (567993613) 0x24a-0x24e (4)
0x240|                                          00 00|              ..|        corr: 14 0x24e-0x252 (4)
0x250|00 0e                                          |..              |
     |                                               |                |      [14]{}: leap_second_record 0x252-0x25a (8)
0x250|      25 9e 9d 8e                              |  %...          |        occur: "1990-01-01T00:00:14Z" (631152014) 0x252-0x256 (4)
0x250|                  00 00 00 0f                  |      ....      |        corr: 15 0x256-0x25a (4)
     |                                               |                |      [15]{}: leap_second_record 0x25a-0x262 (8)
0x250|                              27 7f d1 0f      |          '...  |        occur: "1991-01-01T00:00:15Z" (662688015) 0x25a-0x25e (4)
0x250|                                          00 00|              ..|        corr: 16 0x25e-0x262 (4)
0x260|00 10                                          |..              |
     |                                               |                |      [16]{}: leap_second_record 0x262-0x26a (8)
0x260|      2a 50 f5 90                              |  *P..          |        occur: "1992-07-01T00:00:16Z" (709948816) 0x262-0x266 (4)
0x260|                  00 00 00 11                  |      ....      |        corr: 17 0x266-0x26a (4)
     |                                               |                |      [17]{}: leap_second_record 0x26a-0x272 (8)
0x260|                              2c 32 29 11      |          ,2).  |        occur: "1993-07-01T00:00:17Z" (741484817) 0x26a-0x26e (4)
0x260|                                          00 00|              ..|        corr: 18 0x26e-0x272 (4)
0x270|00 12                                          |..              |
     |                                               |                |      [18]{}: leap_second_record 0x272-0x27a (8)
0x270|      2e 13 5c 92                              |  ..\.          |        occur: "1994-07-01T00:00:18Z" (773020818) 0x272-0x276 (4)
0x270|                  00 00 00 13                  |      ....      |        corr: 19 0x276-0x27a (4)
     |                                               |                |      [19]{}: leap_second_record 0x27a-0x282 (8)
0x270|                              30 e7 24 13      |          0.$.  |        occur: "1996-01-01T00:00:19Z" (820454419) 0x27a-0x27e (4)
0x270|                                          00 00|              ..|        corr: 20 0x27e-0x282 (4)
0x280|00 14                                          |..              |
     |                                               |                |      [20]{}: leap_second_record 0x282-0x28a (8)
0x280|      33 b8 48 94                              |  3.H.          |        occur: "1997-07-01T00:00:20Z" (867715220) 0x282-0x286 (4)
0x280|                  00 00 00 15                  |      ....      |        corr: 21 0x286-0x28a (4)
     |                                               |                |      [21]{}: leap_second_record 0x28a-0x292 (8)
0x280|                              36 8c 10 15      |          6...  |        occur: "1999-01-01T00:00:21Z" (915148821) 0x28a-0x28e (4)
0x280|                                          00 00|              ..|        corr: 22 0x28e-0x292 (4)
0x290|00 16                                          |..              |
     |                                               |                |      [22]{}: leap_second_record 0x292-0x29a (8)
0x290|      43 b7 1b 96                              |  C...          |        occur: "2006-01-01T00:00:22Z" (1136073622) 0x292-0x296 (4)
0x290|                  00 00 00 17                  |      ....      |        corr: 23 0x296-0x29a (4)
     |                                               |                |      [23]{}: leap_second_record 0x29a-0x2a2 (8)
0x290|                              49 5c 07 97      |          I\..  |        occur: "2009-01-01T00:00:23Z" (1230768023) 0x29a-0x29e (4)
0x290|                                          00 00|              ..|        corr: 24 0x29e-0x2a2 (4)
0x2a0|00 18                                          |..              |
     |                                               |                |      [24]{}: leap_second_record 0x2a2-0x2aa (8)
0x2a0|      4f ef 93 18                              |  O...          |        occur: "2012-07-01T00:00:24Z" (1341100824) 0x2a2-0x2a6 (4)
0x2a0|                  00 00 00 19                  |      ....      |        corr: 25 0x2a6-0x2aa (4)
     |                                               |                |      [25]{}: leap_second_record 0x2aa-0x2b2 (8)
0x2a0|                              55 93 2d 99      |          U.-.  |        occur: "2015-07-01T00:00:25Z" (1435708825) 0x2aa-0x2ae (4)
0x2a0|                                          00 00|              ..|        corr: 26 0x2ae-0x2b2 (4)
0x2b0|00 1a                                          |..              |
     |                                               |                |      [26]{}: leap_second_record 0x2b2-0x2ba (8)
0x2b0|      58 68 46 9a                              |  XhF.          |        occur: "2017-01-01T00:00:26Z" (1483228826) 0x2b2-0x2b6 (4)
0x2b0|                  00 00 00 1b                  |      ....      |        corr: 27 0x2b6-0x2ba (4)
     |                                               |                |    standard_wall_indicators[0:10]: 0x2ba-0x2c4 (10)
0x2b0|                              00               |          .     |      [0]: 0 standard_wall_indicator (valid) 0x2ba-0x2bb (1)
0x2b0|                                 00            |           .    |      [1]: 0 standard_wall_indicator (valid) 0x2bb-0x2bc (1)
0x2b0|                                    00         |            .   |      [2]: 0 standard_wall_indicator (valid) 0x2bc-0x2bd (1)
0x2b0|                                       00      |             .  |      [3]: 0 standard_wall_indicator (valid) 0x2bd-0x2be (1)
0x2b0|                                          01   |              . |      [4]: 1 standard_wall_indicator (valid) 0x2be-0x2bf (1)
0x2b0|                                             01|               .|      [5]: 1 standard_wall_indicator (valid) 0x2bf-0x2c0 (1)
0x2c0|00                                             |.               |      [6]: 0 standard_wall_indicator (valid) 0x2c0-0x2c1 (1)
0x2c0|   00                                          | .              |      [7]: 0 standard_wall_indicator (valid) 0x2c1-0x2c2 (1)
0x2c0|      00                                       |  .             |      [8]: 0 standard_wall_indicator (valid) 0x2c2-0x2c3 (1)
0x2c0|         00                                    |   .            |      [9]: 0 standard_wall_indicator (valid) 0x2c3-0x2c4 (1)
     |                                               |                |    ut_local_indicators[0:10]: 0x2c4-0x2ce (10)
0x2c0|            00                                 |    .           |      [0]: 0 ut_local_indicator (valid) 0x2c4-0x2c5 (1)
0x2c0|               00                              |     .          |      [1]: 0 ut_local_indicator (valid) 0x2c5-0x2c6 (1)
0x2c0|                  00                           |      .         |      [2]: 0 ut_local_indicator (valid) 0x2c6-0x2c7 (1)
0x2c0|                     00                        |       .        |      [3]: 0 ut_local_indicator (valid) 0x2c7-0x2c8 (1)
0x2c0|                        01                     |        .       |      [4]: 1 ut_local_indicator (valid) 0x2c8-0x2c9 (1)
0x2c0|                           01                  |         .      |      [5]: 1 ut_local_indicator (valid) 0x2c9-0x2ca (1)
0x2c0|                              00               |          .     |      [6]: 0 ut_local_indicator (valid) 0x2ca-0x2cb (1)
0x2c0|                                 00            |           .    |      [7]: 0 ut_local_indicator (valid) 0x2cb-0x2cc (1)
0x2c0|                                    00         |            .   |      [8]: 0 ut_local_indicator (valid) 0x2cc-0x2cd (1)
0x2c0|                                       00      |             .  |      [9]: 0 ut_local_indicator (valid) 0x2cd-0x2ce (1)
     |                                               |                |  v2plusheader{}: 0x2ce-0x2fa (44)
0x2c0|                                          54 5a|              TZ|    magic: 0x545a6966 (valid) 0x2ce-0x2d2 (4)
0x2d0|69 66                                          |if              |
0x2d0|      32                                       |  2             |    ver: "2" (0x32) (valid) 0x2d2-0x2d3 (1)
0x2d0|         00 00 00 00 00 00 00 00 00 00 00 00 00|   .............|    reserved: raw bits 0x2d3-0x2e2 (15)
0x2e0|00 00                                          |..              |
0x2e0|      00 00 00 0a                              |  ....          |    isutcnt: 10 0x2e2-0x2e6 (4)
0x2e0|                  00 00 00 0a                  |      ....      |    isstdcnt: 10 0x2e6-0x2ea (4)
0x2e0|                              00 00 00 1b      |          ....  |    leapcnt: 27 0x2ea-0x2ee (4)
0x2e0|                                          00 00|              ..|    timecnt: 70 0x2ee-0x2f2 (4)
0x2f0|00 46                                          |.F              |
0x2f0|      00 00 00 0a                              |  ....          |    typecnt: 10 0x2f2-0x2f6 (4)
0x2f0|                  00 00 00 1c                  |      ....      |    charcnt: 28 0x2f6-0x2fa (4)
     |                                               |                |  v2plusdatablock{}: 0x2fa-0x720 (1062)
     |                                               |                |    transition_times[0:70]: 0x2fa-0x52a (560)
0x2f0|                              ff ff ff ff 5e 03|          ....^.|      [0]: "1883-11-18T18:00:00Z" (-2717647200) transition_time 0x2fa-0x302 (8)
0x300|fe a0                                          |..              |
0x300|      ff ff ff ff 9e a6 2c 80                  |  ......,.      |      [1]: "1918-03-31T08:00:00Z" (-1633276800) transition_time 0x302-0x30a (8)
0x300|                              ff ff ff ff 9f ba|          ......|      [2]: "1918-10-27T07:00:00Z" (-1615136400) transition_time 0x30a-0x312 (8)
0x310|f9 70                                          |.p              |
0x310|      ff ff ff ff a0 86 0e 80                  |  ........      |      [3]: "1919-03-30T08:00:00Z" (-1601827200) transition_time 0x312-0x31a (8)
0x310|                              ff ff ff ff a1 9a|          ......|      [4]: "1919-10-26T07:00:00Z" (-1583686800) transition_time 0x31a-0x322 (8)
0x320|db 70                                          |.p              |
0x320|      ff ff ff ff cb 88 fe 80                  |  ........      |      [5]: "1942-02-09T08:00:00Z" (-880214400) transition_time 0x322-0x32a (8)
0x320|                              ff ff ff ff d2 23|          .....#|      [6]: "1945-08-14T23:00:00Z" (-769395600) transition_time 0x32a-0x332 (8)
0x330|f4 70                                          |.p              |
0x330|      ff ff ff ff d2 61 09 f0                  |  .....a..      |      [7]: "1945-09-30T07:00:00Z" (-765392400) transition_time 0x332-0x33a (8)
0x330|                              ff ff ff ff e4 67|          .....g|      [8]: "1955-05-01T06:00:00Z" (-462996000) transition_time 0x33a-0x342 (8)
0x340|3d e0                                          |=.              |
0x340|      ff ff ff ff e5 29 18 70                  |  .....).p      |      [9]: "1955-09-25T07:00:00Z" (-450291600) transition_time 0x342-0x34a (8)
0x340|                              ff ff ff ff e6 47|          .....G|      [10]: "1956-04-29T08:00:00Z" (-431539200) transition_time 0x34a-0x352 (8)
0x350|3c 00                                          |<.              |
0x350|      ff ff ff ff e7 12 34 f0                  |  ......4.      |      [11]: "1956-09-30T07:00:00Z" (-418237200) transition_time 0x352-0x35a (8)
0x350|                              ff ff ff ff e8 27|          .....'|      [12]: "1957-04-28T08:00:00Z" (-400089600) transition_time 0x35a-0x362 (8)
0x360|1e 00                                          |..              |
0x360|      ff ff ff ff e8 f2 16 f0                  |  ........      |      [13]: "1957-09-29T07:00:00Z" (-386787600) transition_time 0x362-0x36a (8)
0x360|                              ff ff ff ff ea 07|          ......|      [14]: "1958-04-27T08:00:00Z" (-368640000) transition_time 0x36a-0x372 (8)
0x370|00 00                                          |..              |
0x370|      ff ff ff ff ea d1 f8 f0                  |  ........      |      [15]: "1958-09-28T07:00:00Z" (-355338000) transition_time 0x372-0x37a (8)
0x370|                              ff ff ff ff eb e6|          ......|      [16]: "1959-04-26T08:00:00Z" (-337190400) transition_time 0x37a-0x382 (8)
0x380|e2 00                                          |..              |
0x380|      ff ff ff ff ec b1 da f0                  |  ........      |      [17]: "1959-09-27T07:00:00Z" (-323888400) transition_time 0x382-0x38a (8)
0x380|                              ff ff ff ff ed c6|          ......|      [18]: "1960-04-24T08:00:00Z" (-305740800) transition_time 0x38a-0x392 (8)
0x390|c4 00                                          |..              |
0x390|      ff ff ff ff ee 91 bc f0                  |  ........      |      [19]: "1960-09-25T07:00:00Z" (-292438800) transition_time 0x392-0x39a (8)
0x390|                              ff ff ff ff ef af|          ......|      [20]: "1961-04-30T08:00:00Z" (-273686400) transition_time 0x39a-0x3a2 (8)
0x3a0|e0 80                                          |..              |
0x3a0|      ff ff ff ff f0 9f c3 70                  |  .......p      |      [21]: "1961-10-29T07:00:00Z" (-257965200) transition_time 0x3a2-0x3aa (8)
0x3a0|                              ff ff ff ff f1 8f|          ......|      [22]: "1962-04-29T08:00:00Z" (-242236800) transition_time 0x3aa-0x3b2 (8)
0x3b0|c2 80                                          |..              |
0x3b0|      ff ff ff ff f2 7f a5 70                  |  .......p      |      [23]: "1962-10-28T07:00:00Z" (-226515600) transition_time 0x3b2-0x3ba (8)
0x3b0|                              ff ff ff ff f3 6f|          .....o|      [24]: "1963-04-28T08:00:00Z" (-210787200) transition_time 0x3ba-0x3c2 (8)
0x3c0|a4 80                                          |..              |
0x3c0|      ff ff ff ff f4 5f 87 70                  |  ....._.p      |      [25]: "1963-10-27T07:00:00Z" (-195066000) transition_time 0x3c2-0x3ca (8)
0x3c0|                              ff ff ff ff f5 4f|          .....O|      [26]: "1964-04-26T08:00:00Z" (-179337600) transition_time 0x3ca-0x3d2 (8)
0x3d0|86 80                                          |..              |
0x3d0|      ff ff ff ff fb e8 49 f0                  |  ......I.      |      [27]: "1967-10-29T07:00:00Z" (-68662800) transition_time 0x3d2-0x3da (8)
0x3d0|                              ff ff ff ff fc d8|          ......|      [28]: "1968-04-28T08:00:00Z" (-52934400) transition_time 0x3da-0x3e2 (8)
0x3e0|49 00                                          |I.              |
0x3e0|      ff ff ff ff fd c8 2b f0                  |  ......+.      |      [29]: "1968-10-27T07:00:00Z" (-37213200) transition_time 0x3e2-0x3ea (8)
0x3e0|                              ff ff ff ff fe b8|          ......|      [30]: "1969-04-27T08:00:00Z" (-21484800) transition_time 0x3ea-0x3f2 (8)
0x3f0|2b 00                                          |+.              |
0x3f0|      ff ff ff ff ff a7 ff e0                  |  ........      |      [31]: "1969-10-26T06:00:00Z" (-5767200) transition_time 0x3f2-0x3fa (8)
0x3f0|                              00 00 00 00 00 97|          ......|      [32]: "1970-04-26T07:00:00Z" (9961200) transition_time 0x3fa-0x402 (8)
0x400|fe f0                                          |..              |
0x400|      00 00 00 00 01 87 e1 e0                  |  ........      |      [33]: "1970-10-25T06:00:00Z" (25682400) transition_time 0x402-0x40a (8)
0x400|                              00 00 00 00 44 2f|          ....D/|      [34]: "2006-04-02T07:00:23Z" (1143961223) transition_time 0x40a-0x412 (8)
0x410|76 87                                          |v.              |
0x410|      00 00 00 00 45 44 51 87                  |  ....EDQ.      |      [35]: "2006-10-29T07:00:23Z" (1162105223) transition_time 0x412-0x41a (8)
0x410|                              00 00 00 00 45 f3|          ....E.|      [36]: "2007-03-11T08:00:23Z" (1173600023) transition_time 0x41a-0x422 (8)
0x420|b7 17                                          |..              |
0x420|      00 00 00 00 47 2d 6e 07                  |  ....G-n.      |      [37]: "2007-11-04T07:00:23Z" (1194159623) transition_time 0x422-0x42a (8)
0x420|                              00 00 00 00 47 d3|          ....G.|      [38]: "2008-03-09T08:00:23Z" (1205049623) transition_time 0x42a-0x432 (8)
0x430|99 17                                          |..              |
0x430|      00 00 00 00 49 0d 50 07                  |  ....I.P.      |      [39]: "2008-11-02T07:00:23Z" (1225609223) transition_time 0x432-0x43a (8)
0x430|                              00 00 00 00 49 b3|          ....I.|      [40]: "2009-03-08T08:00:24Z" (1236499224) transition_time 0x43a-0x442 (8)
0x440|7b 18                                          |{.              |
0x440|      00 00 00 00 4a ed 32 08                  |  ....J.2.      |      [41]: "2009-11-01T07:00:24Z" (1257058824) transition_time 0x442-0x44a (8)
0x440|                              00 00 00 00 4b 9c|          ....K.|      [42]: "2010-03-14T08:00:24Z" (1268553624) transition_time 0x44a-0x452 (8)
0x450|97 98                                          |..              |
0x450|      00 00 00 00 4c d6 4e 88                  |  ....L.N.      |      [43]: "2010-11-07T07:00:24Z" (1289113224) transition_time 0x452-0x45a (8)
0x450|                              00 00 00 00 4d 7c|          ....M||      [44]: "2011-03-13T08:00:24Z" (1300003224) transition_time 0x45a-0x462 (8)
0x460|79 98                                          |y.              |
0x460|      00 00 00 00 4e b6 30 88                  |  ....N.0.      |      [45]: "2011-11-06T07:00:24Z" (1320562824) transition_time 0x462-0x46a (8)
0x460|                              00 00 00 00 4f 5c|          ....O\|      [46]: "2012-03-11T08:00:24Z" (1331452824) transition_time 0x46a-0x472 (8)
0x470|5b 98                                          |[.              |
0x470|      00 00 00 00 50 96 12 89                  |  ....P...      |      [47]: "2012-11-04T07:00:25Z" (1352012425) transition_time 0x472-0x47a (8)
0x470|                              00 00 00 00 51 3c|          ....Q<|      [48]: "2013-03-10T08:00:25Z" (1362902425) transition_time 0x47a-0x482 (8)
0x480|3d 99                                          |=.              |
0x480|      00 00 00 00 52 75 f4 89                  |  ....Ru..      |      [49]: "2013-11-03T07:00:25Z" (1383462025) transition_time 0x482-0x48a (8)
0x480|                              00 00 00 00 53 1c|          ....S.|      [50]: "2014-03-09T08:00:25Z" (1394352025) transition_time 0x48a-0x492 (8)
0x490|1f 99                                          |..              |
0x490|      00 00 00 00 54 55 d6 89                  |  ....TU..      |      [51]: "2014-11-02T07:00:25Z" (1414911625) transition_time 0x492-0x49a (8)
0x490|                              00 00 00 00 54 fc|          ....T.|      [52]: "2015-03-08T08:00:25Z" (1425801625) transition_time 0x49a-0x4a2 (8)
0x4a0|01 99                                          |..              |
0x4a0|      00 00 00 00 56 35 b8 8a                  |  ....V5..      |      [53]: "2015-11-01T07:00:26Z" (1446361226) transition_time 0x4a2-0x4aa (8)
0x4a0|                              00 00 00 00 56 e5|          ....V.|      [54]: "2016-03-13T08:00:26Z" (1457856026) transition_time 0x4aa-0x4b2 (8)
0x4b0|1e 1a                                          |..              |
0x4b0|      00 00 00 00 58 1e d5 0a                  |  ....X...      |      [55]: "2016-11-06T07:00:26Z" (1478415626) transition_time 0x4b2-0x4ba (8)
0x4b0|                              00 00 00 00 58 c5|          ....X.|      [56]: "2017-03-12T08:00:27Z" (1489305627) transition_time 0x4ba-0x4c2 (8)
0x4c0|00 1b                                          |..              |
0x4c0|      00 00 00 00 59 fe b7 0b                  |  ....Y...      |      [57]: "2017-11-05T07:00:27Z" (1509865227) transition_time 0x4c2-0x4ca (8)
0x4c0|                              00 00 00 00 5a a4|          ....Z.|      [58]: "2018-03-11T08:00:27Z" (1520755227) transition_time 0x4ca-0x4d2 (8)
0x4d0|e2 1b                                          |..              |
0x4d0|      00 00 00 00 5b de 99 0b                  |  ....[...      |      [59]: "2018-11-04T07:00:27Z" (1541314827) transition_time 0x4d2-0x4da (8)
0x4d0|                              00 00 00 00 5c 84|          ....\.|      [60]: "2019-03-10T08:00:27Z" (1552204827) transition_time 0x4da-0x4e2 (8)
0x4e0|c4 1b                                          |..              |
0x4e0|      00 00 00 00 5d be 7b 0b                  |  ....].{.      |      [61]: "2019-11-03T07:00:27Z" (1572764427) transition_time 0x4e2-0x4ea (8)
0x4e0|                              00 00 00 00 5e 64|          ....^d|      [62]: "2020-03-08T08:00:27Z" (1583654427) transition_time 0x4ea-0x4f2 (8)
0x4f0|a6 1b                                          |..              |
0x4f0|      00 00 00 00 5f 9e 5d 0b                  |  ...._.].      |      [63]: "2020-11-01T07:00:27Z" (1604214027) transition_time 0x4f2-0x4fa (8)
0x4f0|                              00 00 00 00 60 4d|          ....`M|      [64]: "2021-03-14T08:00:27Z" (1615708827) transition_time 0x4fa-0x502 (8)
0x500|c2 9b                                          |..              |
0x500|      00 00 00 00 61 87 79 8b                  |  ....a.y.      |      [65]: "2021-11-07T07:00:27Z" (1636268427) transition_time 0x502-0x50a (8)
0x500|                              00 00 00 00 62 2d|          ....b-|      [66]: "2022-03-13T08:00:27Z" (1647158427) transition_time 0x50a-0x512 (8)
0x510|a4 9b                                          |..              |
0x510|      00 00 00 00 63 67 5b 8b                  |  ....cg[.      |      [67]: "2022-11-06T07:00:27Z" (1667718027) transition_time 0x512-0x51a (8)
0x510|                              00 00 00 00 64 0d|          ....d.|      [68]: "2023-03-12T08:00:27Z" (1678608027) transition_time 0x51a-0x522 (8)
0x520|86 9b                                          |..              |
0x520|      00 00 00 00 64 9b 78 1b                  |  ....d.x.      |      [69]: "2023-06-28T00:00:27Z" (1687910427) transition_time 0x522-0x52a (8)
     |                                               |                |    transition_types[0:70]: 0x52a-0x570 (70)
0x520|                              05               |          .     |      [0]: 5 transition_type 0x52a-0x52b (1)
0x520|                                 01            |           .    |      [1]: 1 transition_type 0x52b-0x52c (1)
0x520|                                    02         |            .   |      [2]: 2 transition_type 0x52c-0x52d (1)
0x520|                                       01      |             .  |      [3]: 1 transition_type 0x52d-0x52e (1)
0x520|                                          02   |              . |      [4]: 2 transition_type 0x52e-0x52f (1)
0x520|                                             03|               .|      [5]: 3 transition_type 0x52f-0x530 (1)
0x530|04                                             |.               |      [6]: 4 transition_type 0x530-0x531 (1)
0x530|   02                                          | .              |      [7]: 2 transition_type 0x531-0x532 (1)
0x530|      01                                       |  .             |      [8]: 1 transition_type 0x532-0x533 (1)
0x530|         02                                    |   .            |      [9]: 2 transition_type 0x533-0x534 (1)
0x530|            01                                 |    .           |      [10]: 1 transition_type 0x534-0x535 (1)
0x530|               02                              |     .          |      [11]: 2 transition_type 0x535-0x536 (1)
0x530|                  01                           |      .         |      [12]: 1 transition_type 0x536-0x537 (1)
0x530|                     02                        |       .        |      [13]: 2 transition_type 0x537-0x538 (1)
0x530|                        01                     |        .       |      [14]: 1 transition_type 0x538-0x539 (1)
0x530|                           02                  |         .      |      [15]: 2 transition_type 0x539-0x53a (1)
0x530|                              01               |          .     |      [16]: 1 transition_type 0x53a-0x53b (1)
0x530|                                 02            |           .    |      [17]: 2 transition_type 0x53b-0x53c (1)
0x530|                                    01         |            .   |      [18]: 1 transition_type 0x53c-0x53d (1)
0x530|                                       02      |             .  |      [19]: 2 transition_type 0x53d-0x53e (1)
0x530|                                          01   |              . |      [20]: 1 transition_type 0x53e-0x53f (1)
0x530|                                             02|               .|      [21]: 2 transition_type 0x53f-0x540 (1)
0x540|01                                             |.               |      [22]: 1 transition_type 0x540-0x541 (1)
0x540|   02                                          | .              |      [23]: 2 transition_type 0x541-0x542 (1)
0x540|      01                                       |  .             |      [24]: 1 transition_type 0x542-0x543 (1)
0x540|         02                                    |   .            |      [25]: 2 transition_type 0x543-0x544 (1)
0x540|            06                                 |    .           |      [26]: 6 transition_type 0x544-0x545 (1)
0x540|               02                              |     .          |      [27]: 2 transition_type 0x545-0x546 (1)
0x540|                  01                           |      .         |      [28]: 1 transition_type 0x546-0x547 (1)
0x540|                     02                        |       .        |      [29]: 2 transition_type 0x547-0x548 (1)
0x540|                        07                     |        .       |      [30]: 7 transition_type 0x548-0x549 (1)
0x540|                           06                  |         .      |      [31]: 6 transition_type 0x549-0x54a (1)
0x540|                              07               |          .     |      [32]: 7 transition_type 0x54a-0x54b (1)
0x540|                                 06            |           .    |      [33]: 6 transition_type 0x54b-0x54c (1)
0x540|                                    01         |            .   |      [34]: 1 transition_type 0x54c-0x54d (1)
0x540|                                       02      |             .  |      [35]: 2 transition_type 0x54d-0x54e (1)
0x540|                                          01   |              . |      [36]: 1 transition_type 0x54e-0x54f (1)
0x540|                                             02|               .|      [37]: 2 transition_type 0x54f-0x550 (1)
0x550|01                                             |.               |      [38]: 1 transition_type 0x550-0x551 (1)
0x550|   02                                          | .              |      [39]: 2 transition_type 0x551-0x552 (1)
0x550|      01                                       |  .             |      [40]: 1 transition_type 0x552-0x553 (1)
0x550|         02                                    |   .            |      [41]: 2 transition_type 0x553-0x554 (1)
0x550|            01                                 |    .           |      [42]: 1 transition_type 0x554-0x555 (1)
0x550|               02                              |     .          |      [43]: 2 transition_type 0x555-0x556 (1)
0x550|                  01                           |      .         |      [44]: 1 transition_type 0x556-0x557 (1)
0x550|                     02                        |       .        |      [45]: 2 transition_type 0x557-0x558 (1)
0x550|                        01                     |        .       |      [46]: 1 transition_type 0x558-0x559 (1)
0x550|                           02                  |         .      |      [47]: 2 transition_type 0x559-0x55a (1)
0x550|                              01               |          .     |      [48]: 1 transition_type 0x55a-0x55b (1)
0x550|                                 02            |           .    |      [49]: 2 transition_type 0x55b-0x55c (1)
0x550|                                    01         |            .   |      [50]: 1 transition_type 0x55c-0x55d (1)
0x550|                                       02      |             .  |      [51]: 2 transition_type 0x55d-0x55e (1)
0x550|                                          01   |              . |      [52]: 1 transition_type 0x55e-0x55f (1)
0x550|                                             02|               .|      [53]: 2 transition_type 0x55f-0x560 (1)
0x560|01                                             |.               |      [54]: 1 transition_type 0x560-0x561 (1)
0x560|   02                                          | .              |      [55]: 2 transition_type 0x561-0x562 (1)
0x560|      01                                       |  .             |      [56]: 1 transition_type 0x562-0x563 (1)
0x560|         02                                    |   .            |      [57]: 2 transition_type 0x563-0x564 (1)
0x560|            01                                 |    .           |      [58]: 1 transition_type 0x564-0x565 (1)
0x560|               02                              |     .          |      [59]: 2 transition_type 0x565-0x566 (1)
0x560|                  01                           |      .         |      [60]: 1 transition_type 0x566-0x567 (1)
0x560|                     02                        |       .        |      [61]: 2 transition_type 0x567-0x568 (1)
0x560|                        01                     |        .       |      [62]: 1 transition_type 0x568-0x569 (1)
0x560|                           02                  |         .      |      [63]: 2 transition_type 0x569-0x56a (1)
0x560|                              01               |          .     |      [64]: 1 transition_type 0x56a-0x56b (1)
0x560|                                 02            |           .    |      [65]: 2 transition_type 0x56b-0x56c (1)
0x560|                                    01         |            .   |      [66]: 1 transition_type 0x56c-0x56d (1)
0x560|                                       02      |             .  |      [67]: 2 transition_type 0x56d-0x56e (1)
0x560|                                          01   |              . |      [68]: 1 transition_type 0x56e-0x56f (1)
0x560|                                             01|               .|      [69]: 1 transition_type 0x56f-0x570 (1)
     |                                               |                |    local_time_type_records[0:10]: 0x570-0x5ac (60)
     |                                               |                |      [0]{}: local_time_type 0x570-0x576 (6)
0x570|ff ff ae a9                                    |....            |        utoff: -20823 (valid) 0x570-0x574 (4)
0x570|            00                                 |    .           |        dst: 0 (valid) 0x574-0x575 (1)
0x570|               00                              |     .          |        idx: 0 (valid) 0x575-0x576 (1)
     |                                               |                |      [1]{}: local_time_type 0x576-0x57c (6)
0x570|                  ff ff b9 b0                  |      ....      |        utoff: -18000 (valid) 0x576-0x57a (4)
0x570|                              01               |          .     |        dst: 1 (valid) 0x57a-0x57b (1)
0x570|                                 04            |           .    |        idx: 4 (valid) 0x57b-0x57c (1)
     |                                               |                |      [2]{}: local_time_type 0x57c-0x582 (6)
0x570|                                    ff ff ab a0|            ....|        utoff: -21600 (valid) 0x57c-0x580 (4)
0x580|00                                             |.               |        dst: 0 (valid) 0x580-0x581 (1)
0x580|   08                                          | .              |        idx: 8 (valid) 0x581-0x582 (1)
     |                                               |                |      [3]{}: local_time_type 0x582-0x588 (6)
0x580|      ff ff b9 b0                              |  ....          |        utoff: -18000 (valid) 0x582-0x586 (4)
0x580|                  01                           |      .         |        dst: 1 (valid) 0x586-0x587 (1)
0x580|                     0c                        |       .        |        idx: 12 (valid) 0x587-0x588 (1)
     |                                               |                |      [4]{}: local_time_type 0x588-0x58e (6)
0x580|                        ff ff b9 b0            |        ....    |        utoff: -18000 (valid) 0x588-0x58c (4)
0x580|                                    01         |            .   |        dst: 1 (valid) 0x58c-0x58d (1)
0x580|                                       10      |             .  |        idx: 16 (valid) 0x58d-0x58e (1)
     |                                               |                |      [5]{}: local_time_type 0x58e-0x594 (6)
0x580|                                          ff ff|              ..|        utoff: -21600 (valid) 0x58e-0x592 (4)
0x590|ab a0                                          |..              |
0x590|      00                                       |  .             |        dst: 0 (valid) 0x592-0x593 (1)
0x590|         08                                    |   .            |        idx: 8 (valid) 0x593-0x594 (1)
     |                                               |                |      [6]{}: local_time_type 0x594-0x59a (6)
0x590|            ff ff b9 b0                        |    ....        |        utoff: -18000 (valid) 0x594-0x598 (4)
0x590|                        00                     |        .       |        dst: 0 (valid) 0x598-0x599 (1)
0x590|                           14                  |         .      |        idx: 20 (valid) 0x599-0x59a (1)
     |                                               |                |      [7]{}: local_time_type 0x59a-0x5a0 (6)
0x590|                              ff ff c7 c0      |          ....  |        utoff: -14400 (valid) 0x59a-0x59e (4)
0x590|                                          01   |              . |        dst: 1 (valid) 0x59e-0x59f (1)
0x590|                                             18|               .|        idx: 24 (valid) 0x59f-0x5a0 (1)
     |                                               |                |      [8]{}: local_time_type 0x5a0-0x5a6 (6)
0x5a0|ff ff b9 b0                                    |....            |        utoff: -18000 (valid) 0x5a0-0x5a4 (4)
0x5a0|            01                                 |    .           |        dst: 1 (valid) 0x5a4-0x5a5 (1)
0x5a0|               04                              |     .          |        idx: 4 (valid) 0x5a5-0x5a6 (1)
     |                                               |                |      [9]{}: local_time_type 0x5a6-0x5ac (6)
0x5a0|                  ff ff ab a0                  |      ....      |        utoff: -21600 (valid) 0x5a6-0x5aa (4)
0x5a0|                              00               |          .     |        dst: 0 (valid) 0x5aa-0x5ab (1)
0x5a0|                                 08            |           .    |        idx: 8 (valid) 0x5ab-0x5ac (1)
     |                                               |                |    time_zone_designations[0:7]: 0x5ac-0x5c8 (28)
0x5a0|                                    4c 4d 54 00|            LMT.|      [0]: "LMT" time_zone_designation 0x5ac-0x5b0 (4)
0x5b0|43 44 54 00                                    |CDT.            |      [1]: "CDT" time_zone_designation 0x5b0-0x5b4 (4)
0x5b0|            43 53 54 00                        |    CST.        |      [2]: "CST" time_zone_designation 0x5b4-0x5b8 (4)
0x5b0|                        43 57 54 00            |        CWT.    |      [3]: "CWT" time_zone_designation 0x5b8-0x5bc (4)
0x5b0|                                    43 50 54 00|            CPT.|      [4]: "CPT" time_zone_designation 0x5bc-0x5c0 (4)
0x5c0|45 53 54 00                                    |EST.            |      [5]: "EST" time_zone_designation 0x5c0-0x5c4 (4)
0x5c0|            45 44 54 00                        |    EDT.        |      [6]: "EDT" time_zone_designation 0x5c4-0x5c8 (4)
     |                                               |                |    leap_second_records[0:27]: 0x5c8-0x70c (324)
     |                                               |                |      [0]{}: leap_second_record 0x5c8-0x5d4 (12)
0x5c0|                        00 00 00 00 04 b2 58 00|        ......X.|        occur: "1972-07-01T00:00:00Z" (78796800) 0x5c8-0x5d0 (8)
0x5d0|00 00 00 01                                    |....            |        corr: 1 0x5d0-0x5d4 (4)
     |                                               |                |      [1]{}: leap_second_record 0x5d4-0x5e0 (12)
0x5d0|            00 00 00 00 05 a4 ec 01            |    ........    |        occur: "1973-01-01T00:00:01Z" (94694401) 0x5d4-0x5dc (8)
0x5d0|                                    00 00 00 02|            ....|        corr: 2 0x5dc-0x5e0 (4)
     |                                               |                |      [2]{}: leap_second_record 0x5e0-0x5ec (12)
0x5e0|00 00 00 00 07 86 1f 82                        |........        |        occur: "1974-01-01T00:00:02Z" (126230402) 0x5e0-0x5e8 (8)
0x5e0|                        00 00 00 03            |        ....    |        corr: 3 0x5e8-0x5ec (4)
     |                                               |                |      [3]{}: leap_second_record 0x5ec-0x5f8 (12)
0x5e0|                                    00 00 00 00|            ....|        occur: "1975-01-01T00:00:03Z" (157766403) 0x5ec-0x5f4 (8)
0x5f0|09 67 53 03                                    |.gS.            |
0x5f0|            00 00 00 04                        |    ....        |        corr: 4 0x5f4-0x5f8 (4)
     |                                               |                |      [4]{}: leap_second_record 0x5f8-0x604 (12)
0x5f0|                        00 00 00 00 0b 48 86 84|        .....H..|        occur: "1976-01-01T00:00:04Z" (189302404) 0x5f8-0x600 (8)
0x600|00 00 00 05                                    |....            |        corr: 5 0x600-0x604 (4)
     |                                               |                |      [5]{}: leap_second_record 0x604-0x610 (12)
0x600|            00 00 00 00 0d 2b 0b 85            |    .....+..    |        occur: "1977-01-01T00:00:05Z" (220924805) 0x604-0x60c (8)
0x600|                                    00 00 00 06|            ....|        corr: 6 0x60c-0x610 (4)
     |                                               |                |      [6]{}: leap_second_record 0x610-0x61c (12)
0x610|00 00 00 00 0f 0c 3f 06                        |......?.        |        occur: "1978-01-01T00:00:06Z" (252460806) 0x610-0x618 (8)
0x610|                        00 00 00 07            |        ....    |        corr: 7 0x618-0x61c (4)
     |                                               |                |      [7]{}: leap_second_record 0x61c-0x628 (12)
0x610|                                    00 00 00 00|            ....|        occur: "1979-01-01T00:00:07Z" (283996807) 0x61c-0x624 (8)
0x620|10 ed 72 87                                    |..r.            |
0x620|            00 00 00 08                        |    ....        |        corr: 8 0x624-0x628 (4)
     |                                               |                |      [8]{}: leap_second_record 0x628-0x634 (12)
0x620|                        00 00 00 00 12 ce a6 08|        ........|        occur: "1980-01-01T00:00:08Z" (315532808) 0x628-0x630 (8)
0x630|00 00 00 09                                    |....            |        corr: 9 0x630-0x634 (4)
     |                                               |                |      [9]{}: leap_second_record 0x634-0x640 (12)
0x630|            00 00 00 00 15 9f ca 89            |    ........    |        occur: "1981-07-01T00:00:09Z" (362793609) 0x634-0x63c (8)
0x630|                                    00 00 00 0a|            ....|        corr: 10 0x63c-0x640 (4)
     |                                               |                |      [10]{}: leap_second_record 0x640-0x64c (12)
0x640|00 00 00 00 17 80 fe 0a                        |........        |        occur: "1982-07-01T00:00:10Z" (394329610) 0x640-0x648 (8)
0x640|                        00 00 00 0b            |        ....    |        corr: 11 0x648-0x64c (4)
     |                                               |                |      [11]{}: leap_second_record 0x64c-0x658 (12)
0x640|                                    00 00 00 00|            ....|        occur: "1983-07-01T00:00:11Z" (425865611) 0x64c-0x654 (8)
0x650|19 62 31 8b                                    |.b1.            |
0x650|            00 00 00 0c                        |    ....        |        corr: 12 0x654-0x658 (4)
     |                                               |                |      [12]{}: leap_second_record 0x658-0x664 (12)
0x650|                        00 00 00 00 1d 25 ea 0c|        .....%..|        occur: "1985-07-01T00:00:12Z" (489024012) 0x658-0x660 (8)
0x660|00 00 00 0d                                    |....            |        corr: 13 0x660-0x664 (4)
     |                                               |                |      [13]{}: leap_second_record 0x664-0x670 (12)
0x660|            00 00 00 00 21 da e5 0d            |    ....!...    |        occur: "1988-01-01T00:00:13Z" (567993613) 0x664-0x66c (8)
0x660|                                    00 00 00 0e|            ....|        corr: 14 0x66c-0x670 (4)
     |                                               |                |      [14]{}: leap_second_record 0x670-0x67c (12)
0x670|00 00 00 00 25 9e 9d 8e                        |....%...        |        occur: "1990-01-01T00:00:14Z" (631152014) 0x670-0x678 (8)
0x670|                        00 00 00 0f            |        ....    |        corr: 15 0x678-0x67c (4)
     |                                               |                |      [15]{}: leap_second_record 0x67c-0x688 (12)
0x670|                                    00 00 00 00|            ....|        occur: "1991-01-01T00:00:15Z" (662688015) 0x67c-0x684 (8)
0x680|27 7f d1 0f                                    |'...            |
0x680|            00 00 00 10                        |    ....        |        corr: 16 0x684-0x688 (4)
     |                                               |                |      [16]{}: leap_second_record 0x688-0x694 (12)
0x680|                        00 00 00 00 2a 50 f5 90|        ....*P..|        occur: "1992-07-01T00:00:16Z" (709948816) 0x688-0x690 (8)
0x690|00 00 00 11                                    |....            |        corr: 17 0x690-0x694 (4)
     |                                               |                |      [17]{}: leap_second_record 0x694-0x6a0 (12)
0x690|            00 00 00 00 2c 32 29 11            |    ....,2).    |        occur: "1993-07-01T00:00:17Z" (741484817) 0x694-0x69c (8)
0x690|                                    00 00 00 12|            ....|        corr: 18 0x69c-0x6a0 (4)
     |                                               |                |      [18]{}: leap_second_record 0x6a0-0x6ac (12)
0x6a0|00 00 00 00 2e 13 5c 92                        |......\.        |        occur: "1994-07-01T00:00:18Z" (773020818) 0x6a0-0x6a8 (8)
0x6a0|                        00 00 00 13            |        ....    |        corr: 19 0x6a8-0x6ac (4)
     |                                               |                |      [19]{}: leap_second_record 0x6ac-0x6b8 (12)
0x6a0|                                    00 00 00 00|            ....|        occur: "1996-01-01T00:00:19Z" (820454419) 0x6ac-0x6b4 (8)
0x6b0|30 e7 24 13                                    |0.$.            |
0x6b0|            00 00 00 14                        |    ....        |        corr: 20 0x6b4-0x6b8 (4)
     |                                               |                |      [20]{}: leap_second_record 0x6b8-0x6c4 (12)
0x6b0|                        00 00 00 00 33 b8 48 94|        ....3.H.|        occur: "1997-07-01T00:00:20Z" (867715220) 0x6b8-0x6c0 (8)
0x6c0|00 00 00 15                                    |....            |        corr: 21 0x6c0-0x6c4 (4)
     |                                               |                |      [21]{}: leap_second_record 0x6c4-0x6d0 (12)
0x6c0|            00 00 00 00 36 8c 10 15            |    ....6...    |        occur: "1999-01-01T00:00:21Z" (915148821) 0x6c4-0x6cc (8)
0x6c0|                                    00 00 00 16|            ....|        corr: 22 0x6cc-0x6d0 (4)
     |                                               |                |      [22]{}: leap_second_record 0x6d0-0x6dc (12)
0x6d0|00 00 00 00 43 b7 1b 96                        |....C...        |        occur: "2006-01-01T00:00:22Z" (1136073622) 0x6d0-0x6d8 (8)
0x6d0|                        00 00 00 17            |        ....    |        corr: 23 0x6d8-0x6dc (4)
     |                                               |                |      [23]{}: leap_second_record 0x6dc-0x6e8 (12)
0x6d0|                                    00 00 00 00|            ....|        occur: "2009-01-01T00:00:23Z" (1230768023) 0x6dc-0x6e4 (8)
0x6e0|49 5c 07 97                                    |I\..            |
0x6e0|            00 00 00 18                        |    ....        |        corr: 24 0x6e4-0x6e8 (4)
     |                                               |                |      [24]{}: leap_second_record 0x6e8-0x6f4 (12)
0x6e0|                        00 00 00 00 4f ef 93 18|        ....O...|        occur: "2012-07-01T00:00:24Z" (1341100824) 0x6e8-0x6f0 (8)
0x6f0|00 00 00 19                                    |....            |        corr: 25 0x6f0-0x6f4 (4)
     |                                               |                |      [25]{}: leap_second_record 0x6f4-0x700 (12)
0x6f0|            00 00 00 00 55 93 2d 99            |    ....U.-.    |        occur: "2015-07-01T00:00:25Z" (1435708825) 0x6f4-0x6fc (8)
0x6f0|                                    00 00 00 1a|            ....|        corr: 26 0x6fc-0x700 (4)
     |                                               |                |      [26]{}: leap_second_record 0x700-0x70c (12)
0x700|00 00 00 00 58 68 46 9a                        |....XhF.        |        occur: "2017-01-01T00:00:26Z" (1483228826) 0x700-0x708 (8)
0x700|                        00 00 00 1b            |        ....    |        corr: 27 0x708-0x70c (4)
     |                                               |                |    standard_wall_indicators[0:10]: 0x70c-0x716 (10)
0x700|                                    00         |            .   |      [0]: 0 standard_wall_indicator (valid) 0x70c-0x70d (1)
0x700|                                       00      |             .  |      [1]: 0 standard_wall_indicator (valid) 0x70d-0x70e (1)
0x700|                                          00   |              . |      [2]: 0 standard_wall_indicator (valid) 0x70e-0x70f (1)
0x700|                                             00|               .|      [3]: 0 standard_wall_indicator (valid) 0x70f-0x710 (1)
0x710|01                                             |.               |      [4]: 1 standard_wall_indicator (valid) 0x710-0x711 (1)
0x710|   01                                          | .              |      [5]: 1 standard_wall_indicator (valid) 0x711-0x712 (1)
0x710|      00                                       |  .             |      [6]: 0 standard_wall_indicator (valid) 0x712-0x713 (1)
0x710|         00                                    |   .            |      [7]: 0 standard_wall_indicator (valid) 0x713-0x714 (1)
0x710|            00                                 |    .           |      [8]: 0 standard_wall_indicator (valid) 0x714-0x715 (1)
0x710|               00                              |     .          |      [9]: 0 standard_wall_indicator (valid) 0x715-0x716 (1)
     |                                               |                |    ut_local_indicators[0:10]: 0x716-0x720 (10)
0x710|                  00                           |      .         |      [0]: 0 ut_local_indicator (valid) 0x716-0x717 (1)
0x710|                     00                        |       .        |      [1]: 0 ut_local_indicator (valid) 0x717-0x718 (1)
0x710|                        00                     |        .       |      [2]: 0 ut_local_indicator (valid) 0x718-0x719 (1)
0x710|                           00                  |         .      |      [3]: 0 ut_local_indicator (valid) 0x719-0x71a (1)
0x710|                              01               |          .     |      [4]: 1 ut_local_indicator (valid) 0x71a-0x71b (1)
0x710|                                 01            |           .    |      [5]: 1 ut_local_indicator (valid) 0x71b-0x71c (1)
0x710|                                    00         |            .   |      [6]: 0 ut_local_indicator (valid) 0x71c-0x71d (1)
0x710|                                       00      |             .  |      [7]: 0 ut_local_indicator (valid) 0x71d-0x71e (1)
0x710|                                          00   |              . |      [8]: 0 ut_local_indicator (valid) 0x71e-0x71f (1)
0x710|                                             00|               .|      [9]: 0 ut_local_indicator (valid) 0x71f-0x720 (1)
     |                                               |                |  footer{}: 0x720-0x722 (2)
0x720|0a                                             |.               |    nl1: 10 (valid) 0x720-0x721 (1)
     |                                               |                |    tz_string: "" 0x721-0x721 (0)
0x720|   0a|                                         | .|             |    nl2: 10 (valid) 0x721-0x722 (1)
