$ fq -d tzif dv Thimphu
     |00 01 02 03 04 05 06 07 08 09 0a 0b 0c 0d 0e 0f|0123456789abcdef|.{}: Thimphu (tzif) 0x0-0x2df.7 (736)
     |                                               |                |  v1header{}: 0x0-0x2b.7 (44)
0x000|54 5a 69 66                                    |TZif            |    magic: 0x545a6966 (valid) 0x0-0x3.7 (4)
0x000|            32                                 |    2           |    ver: "2" (0x32) (valid) 0x4-0x4.7 (1)
0x000|               00 00 00 00 00 00 00 00 00 00 00|     ...........|    reserved: raw bits 0x5-0x13.7 (15)
0x010|00 00 00 00                                    |....            |
0x010|            00 00 00 00                        |    ....        |    isutcnt: 0 0x14-0x17.7 (4)
0x010|                        00 00 00 00            |        ....    |    isstdcnt: 0 0x18-0x1b.7 (4)
0x010|                                    00 00 00 1b|            ....|    leapcnt: 27 0x1c-0x1f.7 (4)
0x020|00 00 00 03                                    |....            |    timecnt: 3 0x20-0x23.7 (4)
0x020|            00 00 00 03                        |    ....        |    typecnt: 3 0x24-0x27.7 (4)
0x020|                        00 00 00 0e            |        ....    |    charcnt: 14 0x28-0x2b.7 (4)
     |                                               |                |  v1datablock{}: 0x2c-0x132.7 (263)
     |                                               |                |    transition_times[0:3]: 0x2c-0x37.7 (12)
0x020|                                    d5 e6 15 74|            ...t|      [0]: "1947-08-14T18:01:24Z" (-706341516) transition_time 0x2c-0x2f.7 (4)
0x030|21 61 4d b5                                    |!aM.            |      [1]: "1987-09-30T18:30:13Z" (560025013) transition_time 0x30-0x33.7 (4)
0x030|            64 9b 78 1b                        |    d.x.        |      [2]: "2023-06-28T00:00:27Z" (1687910427) transition_time 0x34-0x37.7 (4)
     |                                               |                |    transition_types[0:3]: 0x38-0x3a.7 (3)
0x030|                        01                     |        .       |      [0]: 1 transition_type 0x38-0x38.7 (1)
0x030|                           02                  |         .      |      [1]: 2 transition_type 0x39-0x39.7 (1)
0x030|                              02               |          .     |      [2]: 2 transition_type 0x3a-0x3a.7 (1)
     |                                               |                |    local_time_type_records[0:3]: 0x3b-0x4c.7 (18)
     |                                               |                |      [0]{}: local_time_type 0x3b-0x40.7 (6)
0x030|                                 00 00 54 0c   |           ..T. |        utoff: 21516 (valid) 0x3b-0x3e.7 (4)
0x030|                                             00|               .|        dst: 0 (valid) 0x3f-0x3f.7 (1)
0x040|00                                             |.               |        idx: 0 (valid) 0x40-0x40.7 (1)
     |                                               |                |      [1]{}: local_time_type 0x41-0x46.7 (6)
0x040|   00 00 4d 58                                 | ..MX           |        utoff: 19800 (valid) 0x41-0x44.7 (4)
0x040|               00                              |     .          |        dst: 0 (valid) 0x45-0x45.7 (1)
0x040|                  04                           |      .         |        idx: 4 (valid) 0x46-0x46.7 (1)
     |                                               |                |      [2]{}: local_time_type 0x47-0x4c.7 (6)
0x040|                     00 00 54 60               |       ..T`     |        utoff: 21600 (valid) 0x47-0x4a.7 (4)
0x040|                                 00            |           .    |        dst: 0 (valid) 0x4b-0x4b.7 (1)
0x040|                                    0a         |            .   |        idx: 10 (valid) 0x4c-0x4c.7 (1)
     |                                               |                |    time_zone_designations[0:3]: 0x4d-0x5a.7 (14)
0x040|                                       4c 4d 54|             LMT|      [0]: "LMT" time_zone_designation 0x4d-0x50.7 (4)
0x050|00                                             |.               |
0x050|   2b 30 35 33 30 00                           | +0530.         |      [1]: "+0530" time_zone_designation 0x51-0x56.7 (6)
0x050|                     2b 30 36 00               |       +06.     |      [2]: "+06" time_zone_designation 0x57-0x5a.7 (4)
     |                                               |                |    leap_second_records[0:27]: 0x5b-0x132.7 (216)
     |                                               |                |      [0]{}: leap_second_record 0x5b-0x62.7 (8)
0x050|                                 04 b2 58 00   |           ..X. |        occur: "1972-07-01T00:00:00Z" (78796800) 0x5b-0x5e.7 (4)
0x050|                                             00|               .|        corr: 1 0x5f-0x62.7 (4)
0x060|00 00 01                                       |...             |
     |                                               |                |      [1]{}: leap_second_record 0x63-0x6a.7 (8)
0x060|         05 a4 ec 01                           |   ....         |        occur: "1973-01-01T00:00:01Z" (94694401) 0x63-0x66.7 (4)
0x060|                     00 00 00 02               |       ....     |        corr: 2 0x67-0x6a.7 (4)
     |                                               |                |      [2]{}: leap_second_record 0x6b-0x72.7 (8)
0x060|                                 07 86 1f 82   |           .... |        occur: "1974-01-01T00:00:02Z" (126230402) 0x6b-0x6e.7 (4)
0x060|                                             00|               .|        corr: 3 0x6f-0x72.7 (4)
0x070|00 00 03                                       |...             |
     |                                               |                |      [3]{}: leap_second_record 0x73-0x7a.7 (8)
0x070|         09 67 53 03                           |   .gS.         |        occur: "1975-01-01T00:00:03Z" (157766403) 0x73-0x76.7 (4)
0x070|                     00 00 00 04               |       ....     |        corr: 4 0x77-0x7a.7 (4)
     |                                               |                |      [4]{}: leap_second_record 0x7b-0x82.7 (8)
0x070|                                 0b 48 86 84   |           .H.. |        occur: "1976-01-01T00:00:04Z" (189302404) 0x7b-0x7e.7 (4)
0x070|                                             00|               .|        corr: 5 0x7f-0x82.7 (4)
0x080|00 00 05                                       |...             |
     |                                               |                |      [5]{}: leap_second_record 0x83-0x8a.7 (8)
0x080|         0d 2b 0b 85                           |   .+..         |        occur: "1977-01-01T00:00:05Z" (220924805) 0x83-0x86.7 (4)
0x080|                     00 00 00 06               |       ....     |        corr: 6 0x87-0x8a.7 (4)
     |                                               |                |      [6]{}: leap_second_record 0x8b-0x92.7 (8)
0x080|                                 0f 0c 3f 06   |           ..?. |        occur: "1978-01-01T00:00:06Z" (252460806) 0x8b-0x8e.7 (4)
0x080|                                             00|               .|        corr: 7 0x8f-0x92.7 (4)
0x090|00 00 07                                       |...             |
     |                                               |                |      [7]{}: leap_second_record 0x93-0x9a.7 (8)
0x090|         10 ed 72 87                           |   ..r.         |        occur: "1979-01-01T00:00:07Z" (283996807) 0x93-0x96.7 (4)
0x090|                     00 00 00 08               |       ....     |        corr: 8 0x97-0x9a.7 (4)
     |                                               |                |      [8]{}: leap_second_record 0x9b-0xa2.7 (8)
0x090|                                 12 ce a6 08   |           .... |        occur: "1980-01-01T00:00:08Z" (315532808) 0x9b-0x9e.7 (4)
0x090|                                             00|               .|        corr: 9 0x9f-0xa2.7 (4)
0x0a0|00 00 09                                       |...             |
     |                                               |                |      [9]{}: leap_second_record 0xa3-0xaa.7 (8)
0x0a0|         15 9f ca 89                           |   ....         |        occur: "1981-07-01T00:00:09Z" (362793609) 0xa3-0xa6.7 (4)
0x0a0|                     00 00 00 0a               |       ....     |        corr: 10 0xa7-0xaa.7 (4)
     |                                               |                |      [10]{}: leap_second_record 0xab-0xb2.7 (8)
0x0a0|                                 17 80 fe 0a   |           .... |        occur: "1982-07-01T00:00:10Z" (394329610) 0xab-0xae.7 (4)
0x0a0|                                             00|               .|        corr: 11 0xaf-0xb2.7 (4)
0x0b0|00 00 0b                                       |...             |
     |                                               |                |      [11]{}: leap_second_record 0xb3-0xba.7 (8)
0x0b0|         19 62 31 8b                           |   .b1.         |        occur: "1983-07-01T00:00:11Z" (425865611) 0xb3-0xb6.7 (4)
0x0b0|                     00 00 00 0c               |       ....     |        corr: 12 0xb7-0xba.7 (4)
     |                                               |                |      [12]{}: leap_second_record 0xbb-0xc2.7 (8)
0x0b0|                                 1d 25 ea 0c   |           .%.. |        occur: "1985-07-01T00:00:12Z" (489024012) 0xbb-0xbe.7 (4)
0x0b0|                                             00|               .|        corr: 13 0xbf-0xc2.7 (4)
0x0c0|00 00 0d                                       |...             |
     |                                               |                |      [13]{}: leap_second_record 0xc3-0xca.7 (8)
0x0c0|         21 da e5 0d                           |   !...         |        occur: "1988-01-01T00:00:13Z" (567993613) 0xc3-0xc6.7 (4)
0x0c0|                     00 00 00 0e               |       ....     |        corr: 14 0xc7-0xca.7 (4)
     |                                               |                |      [14]{}: leap_second_record 0xcb-0xd2.7 (8)
0x0c0|                                 25 9e 9d 8e   |           %... |        occur: "1990-01-01T00:00:14Z" (631152014) 0xcb-0xce.7 (4)
0x0c0|                                             00|               .|        corr: 15 0xcf-0xd2.7 (4)
0x0d0|00 00 0f                                       |...             |
     |                                               |                |      [15]{}: leap_second_record 0xd3-0xda.7 (8)
0x0d0|         27 7f d1 0f                           |   '...         |        occur: "1991-01-01T00:00:15Z" (662688015) 0xd3-0xd6.7 (4)
0x0d0|                     00 00 00 10               |       ....     |        corr: 16 0xd7-0xda.7 (4)
     |                                               |                |      [16]{}: leap_second_record 0xdb-0xe2.7 (8)
0x0d0|                                 2a 50 f5 90   |           *P.. |        occur: "1992-07-01T00:00:16Z" (709948816) 0xdb-0xde.7 (4)
0x0d0|                                             00|               .|        corr: 17 0xdf-0xe2.7 (4)
0x0e0|00 00 11                                       |...             |
     |                                               |                |      [17]{}: leap_second_record 0xe3-0xea.7 (8)
0x0e0|         2c 32 29 11                           |   ,2).         |        occur: "1993-07-01T00:00:17Z" (741484817) 0xe3-0xe6.7 (4)
0x0e0|                     00 00 00 12               |       ....     |        corr: 18 0xe7-0xea.7 (4)
     |                                               |                |      [18]{}: leap_second_record 0xeb-0xf2.7 (8)
0x0e0|                                 2e 13 5c 92   |           ..\. |        occur: "1994-07-01T00:00:18Z" (773020818) 0xeb-0xee.7 (4)
0x0e0|                                             00|               .|        corr: 19 0xef-0xf2.7 (4)
0x0f0|00 00 13                                       |...             |
     |                                               |                |      [19]{}: leap_second_record 0xf3-0xfa.7 (8)
0x0f0|         30 e7 24 13                           |   0.$.         |        occur: "1996-01-01T00:00:19Z" (820454419) 0xf3-0xf6.7 (4)
0x0f0|                     00 00 00 14               |       ....     |        corr: 20 0xf7-0xfa.7 (4)
     |                                               |                |      [20]{}: leap_second_record 0xfb-0x102.7 (8)
0x0f0|                                 33 b8 48 94   |           3.H. |        occur: "1997-07-01T00:00:20Z" (867715220) 0xfb-0xfe.7 (4)
0x0f0|                                             00|               .|        corr: 21 0xff-0x102.7 (4)
0x100|00 00 15                                       |...             |
     |                                               |                |      [21]{}: leap_second_record 0x103-0x10a.7 (8)
0x100|         36 8c 10 15                           |   6...         |        occur: "1999-01-01T00:00:21Z" (915148821) 0x103-0x106.7 (4)
0x100|                     00 00 00 16               |       ....     |        corr: 22 0x107-0x10a.7 (4)
     |                                               |                |      [22]{}: leap_second_record 0x10b-0x112.7 (8)
0x100|                                 43 b7 1b 96   |           C... |        occur: "2006-01-01T00:00:22Z" (1136073622) 0x10b-0x10e.7 (4)
0x100|                                             00|               .|        corr: 23 0x10f-0x112.7 (4)
0x110|00 00 17                                       |...             |
     |                                               |                |      [23]{}: leap_second_record 0x113-0x11a.7 (8)
0x110|         49 5c 07 97                           |   I\..         |        occur: "2009-01-01T00:00:23Z" (1230768023) 0x113-0x116.7 (4)
0x110|                     00 00 00 18               |       ....     |        corr: 24 0x117-0x11a.7 (4)
     |                                               |                |      [24]{}: leap_second_record 0x11b-0x122.7 (8)
0x110|                                 4f ef 93 18   |           O... |        occur: "2012-07-01T00:00:24Z" (1341100824) 0x11b-0x11e.7 (4)
0x110|                                             00|               .|        corr: 25 0x11f-0x122.7 (4)
0x120|00 00 19                                       |...             |
     |                                               |                |      [25]{}: leap_second_record 0x123-0x12a.7 (8)
0x120|         55 93 2d 99                           |   U.-.         |        occur: "2015-07-01T00:00:25Z" (1435708825) 0x123-0x126.7 (4)
0x120|                     00 00 00 1a               |       ....     |        corr: 26 0x127-0x12a.7 (4)
     |                                               |                |      [26]{}: leap_second_record 0x12b-0x132.7 (8)
0x120|                                 58 68 46 9a   |           XhF. |        occur: "2017-01-01T00:00:26Z" (1483228826) 0x12b-0x12e.7 (4)
0x120|                                             00|               .|        corr: 27 0x12f-0x132.7 (4)
0x130|00 00 1b                                       |...             |
     |                                               |                |    standard_wall_indicators[0:0]: 0x133-NA (0)
     |                                               |                |    ut_local_indicators[0:0]: 0x133-NA (0)
     |                                               |                |  v2plusheader{}: 0x133-0x15e.7 (44)
0x130|         54 5a 69 66                           |   TZif         |    magic: 0x545a6966 (valid) 0x133-0x136.7 (4)
0x130|                     32                        |       2        |    ver: "2" (0x32) (valid) 0x137-0x137.7 (1)
0x130|                        00 00 00 00 00 00 00 00|        ........|    reserved: raw bits 0x138-0x146.7 (15)
0x140|00 00 00 00 00 00 00                           |.......         |
0x140|                     00 00 00 00               |       ....     |    isutcnt: 0 0x147-0x14a.7 (4)
0x140|                                 00 00 00 00   |           .... |    isstdcnt: 0 0x14b-0x14e.7 (4)
0x140|                                             00|               .|    leapcnt: 27 0x14f-0x152.7 (4)
0x150|00 00 1b                                       |...             |
0x150|         00 00 00 03                           |   ....         |    timecnt: 3 0x153-0x156.7 (4)
0x150|                     00 00 00 03               |       ....     |    typecnt: 3 0x157-0x15a.7 (4)
0x150|                                 00 00 00 0e   |           .... |    charcnt: 14 0x15b-0x15e.7 (4)
     |                                               |                |  v2plusdatablock{}: 0x15f-0x2dd.7 (383)
     |                                               |                |    transition_times[0:3]: 0x15f-0x176.7 (24)
0x150|                                             ff|               .|      [0]: "1947-08-14T18:01:24Z" (-706341516) transition_time 0x15f-0x166.7 (8)
0x160|ff ff ff d5 e6 15 74                           |......t         |
0x160|                     00 00 00 00 21 61 4d b5   |       ....!aM. |      [1]: "1987-09-30T18:30:13Z" (560025013) transition_time 0x167-0x16e.7 (8)
0x160|                                             00|               .|      [2]: "2023-06-28T00:00:27Z" (1687910427) transition_time 0x16f-0x176.7 (8)
0x170|00 00 00 64 9b 78 1b                           |...d.x.         |
     |                                               |                |    transition_types[0:3]: 0x177-0x179.7 (3)
0x170|                     01                        |       .        |      [0]: 1 transition_type 0x177-0x177.7 (1)
0x170|                        02                     |        .       |      [1]: 2 transition_type 0x178-0x178.7 (1)
0x170|                           02                  |         .      |      [2]: 2 transition_type 0x179-0x179.7 (1)
     |                                               |                |    local_time_type_records[0:3]: 0x17a-0x18b.7 (18)
     |                                               |                |      [0]{}: local_time_type 0x17a-0x17f.7 (6)
0x170|                              00 00 54 0c      |          ..T.  |        utoff: 21516 (valid) 0x17a-0x17d.7 (4)
0x170|                                          00   |              . |        dst: 0 (valid) 0x17e-0x17e.7 (1)
0x170|                                             00|               .|        idx: 0 (valid) 0x17f-0x17f.7 (1)
     |                                               |                |      [1]{}: local_time_type 0x180-0x185.7 (6)
0x180|00 00 4d 58                                    |..MX            |        utoff: 19800 (valid) 0x180-0x183.7 (4)
0x180|            00                                 |    .           |        dst: 0 (valid) 0x184-0x184.7 (1)
0x180|               04                              |     .          |        idx: 4 (valid) 0x185-0x185.7 (1)
     |                                               |                |      [2]{}: local_time_type 0x186-0x18b.7 (6)
0x180|                  00 00 54 60                  |      ..T`      |        utoff: 21600 (valid) 0x186-0x189.7 (4)
0x180|                              00               |          .     |        dst: 0 (valid) 0x18a-0x18a.7 (1)
0x180|                                 0a            |           .    |        idx: 10 (valid) 0x18b-0x18b.7 (1)
     |                                               |                |    time_zone_designations[0:3]: 0x18c-0x199.7 (14)
0x180|                                    4c 4d 54 00|            LMT.|      [0]: "LMT" time_zone_designation 0x18c-0x18f.7 (4)
0x190|2b 30 35 33 30 00                              |+0530.          |      [1]: "+0530" time_zone_designation 0x190-0x195.7 (6)
0x190|                  2b 30 36 00                  |      +06.      |      [2]: "+06" time_zone_designation 0x196-0x199.7 (4)
     |                                               |                |    leap_second_records[0:27]: 0x19a-0x2dd.7 (324)
     |                                               |                |      [0]{}: leap_second_record 0x19a-0x1a5.7 (12)
0x190|                              00 00 00 00 04 b2|          ......|        occur: "1972-07-01T00:00:00Z" (78796800) 0x19a-0x1a1.7 (8)
0x1a0|58 00                                          |X.              |
0x1a0|      00 00 00 01                              |  ....          |        corr: 1 0x1a2-0x1a5.7 (4)
     |                                               |                |      [1]{}: leap_second_record 0x1a6-0x1b1.7 (12)
0x1a0|                  00 00 00 00 05 a4 ec 01      |      ........  |        occur: "1973-01-01T00:00:01Z" (94694401) 0x1a6-0x1ad.7 (8)
0x1a0|                                          00 00|              ..|        corr: 2 0x1ae-0x1b1.7 (4)
0x1b0|00 02                                          |..              |
     |                                               |                |      [2]{}: leap_second_record 0x1b2-0x1bd.7 (12)
0x1b0|      00 00 00 00 07 86 1f 82                  |  ........      |        occur: "1974-01-01T00:00:02Z" (126230402) 0x1b2-0x1b9.7 (8)
0x1b0|                              00 00 00 03      |          ....  |        corr: 3 0x1ba-0x1bd.7 (4)
     |                                               |                |      [3]{}: leap_second_record 0x1be-0x1c9.7 (12)
0x1b0|                                          00 00|              ..|        occur: "1975-01-01T00:00:03Z" (157766403) 0x1be-0x1c5.7 (8)
0x1c0|00 00 09 67 53 03                              |...gS.          |
0x1c0|                  00 00 00 04                  |      ....      |        corr: 4 0x1c6-0x1c9.7 (4)
     |                                               |                |      [4]{}: leap_second_record 0x1ca-0x1d5.7 (12)
0x1c0|                              00 00 00 00 0b 48|          .....H|        occur: "1976-01-01T00:00:04Z" (189302404) 0x1ca-0x1d1.7 (8)
0x1d0|86 84                                          |..              |
0x1d0|      00 00 00 05                              |  ....          |        corr: 5 0x1d2-0x1d5.7 (4)
     |                                               |                |      [5]{}: leap_second_record 0x1d6-0x1e1.7 (12)
0x1d0|                  00 00 00 00 0d 2b 0b 85      |      .....+..  |        occur: "1977-01-01T00:00:05Z" (220924805) 0x1d6-0x1dd.7 (8)
0x1d0|                                          00 00|              ..|        corr: 6 0x1de-0x1e1.7 (4)
0x1e0|00 06                                          |..              |
     |                                               |                |      [6]{}: leap_second_record 0x1e2-0x1ed.7 (12)
0x1e0|      00 00 00 00 0f 0c 3f 06                  |  ......?.      |        occur: "1978-01-01T00:00:06Z" (252460806) 0x1e2-0x1e9.7 (8)
0x1e0|                              00 00 00 07      |          ....  |        corr: 7 0x1ea-0x1ed.7 (4)
     |                                               |                |      [7]{}: leap_second_record 0x1ee-0x1f9.7 (12)
0x1e0|                                          00 00|              ..|        occur: "1979-01-01T00:00:07Z" (283996807) 0x1ee-0x1f5.7 (8)
0x1f0|00 00 10 ed 72 87                              |....r.          |
0x1f0|                  00 00 00 08                  |      ....      |        corr: 8 0x1f6-0x1f9.7 (4)
     |                                               |                |      [8]{}: leap_second_record 0x1fa-0x205.7 (12)
0x1f0|                              00 00 00 00 12 ce|          ......|        occur: "1980-01-01T00:00:08Z" (315532808) 0x1fa-0x201.7 (8)
0x200|a6 08                                          |..              |
0x200|      00 00 00 09                              |  ....          |        corr: 9 0x202-0x205.7 (4)
     |                                               |                |      [9]{}: leap_second_record 0x206-0x211.7 (12)
0x200|                  00 00 00 00 15 9f ca 89      |      ........  |        occur: "1981-07-01T00:00:09Z" (362793609) 0x206-0x20d.7 (8)
0x200|                                          00 00|              ..|        corr: 10 0x20e-0x211.7 (4)
0x210|00 0a                                          |..              |
     |                                               |                |      [10]{}: leap_second_record 0x212-0x21d.7 (12)
0x210|      00 00 00 00 17 80 fe 0a                  |  ........      |        occur: "1982-07-01T00:00:10Z" (394329610) 0x212-0x219.7 (8)
0x210|                              00 00 00 0b      |          ....  |        corr: 11 0x21a-0x21d.7 (4)
     |                                               |                |      [11]{}: leap_second_record 0x21e-0x229.7 (12)
0x210|                                          00 00|              ..|        occur: "1983-07-01T00:00:11Z" (425865611) 0x21e-0x225.7 (8)
0x220|00 00 19 62 31 8b                              |...b1.          |
0x220|                  00 00 00 0c                  |      ....      |        corr: 12 0x226-0x229.7 (4)
     |                                               |                |      [12]{}: leap_second_record 0x22a-0x235.7 (12)
0x220|                              00 00 00 00 1d 25|          .....%|        occur: "1985-07-01T00:00:12Z" (489024012) 0x22a-0x231.7 (8)
0x230|ea 0c                                          |..              |
0x230|      00 00 00 0d                              |  ....          |        corr: 13 0x232-0x235.7 (4)
     |                                               |                |      [13]{}: leap_second_record 0x236-0x241.7 (12)
0x230|                  00 00 00 00 21 da e5 0d      |      ....!...  |        occur: "1988-01-01T00:00:13Z" (567993613) 0x236-0x23d.7 (8)
0x230|                                          00 00|              ..|        corr: 14 0x23e-0x241.7 (4)
0x240|00 0e                                          |..              |
     |                                               |                |      [14]{}: leap_second_record 0x242-0x24d.7 (12)
0x240|      00 00 00 00 25 9e 9d 8e                  |  ....%...      |        occur: "1990-01-01T00:00:14Z" (631152014) 0x242-0x249.7 (8)
0x240|                              00 00 00 0f      |          ....  |        corr: 15 0x24a-0x24d.7 (4)
     |                                               |                |      [15]{}: leap_second_record 0x24e-0x259.7 (12)
0x240|                                          00 00|              ..|        occur: "1991-01-01T00:00:15Z" (662688015) 0x24e-0x255.7 (8)
0x250|00 00 27 7f d1 0f                              |..'...          |
0x250|                  00 00 00 10                  |      ....      |        corr: 16 0x256-0x259.7 (4)
     |                                               |                |      [16]{}: leap_second_record 0x25a-0x265.7 (12)
0x250|                              00 00 00 00 2a 50|          ....*P|        occur: "1992-07-01T00:00:16Z" (709948816) 0x25a-0x261.7 (8)
0x260|f5 90                                          |..              |
0x260|      00 00 00 11                              |  ....          |        corr: 17 0x262-0x265.7 (4)
     |                                               |                |      [17]{}: leap_second_record 0x266-0x271.7 (12)
0x260|                  00 00 00 00 2c 32 29 11      |      ....,2).  |        occur: "1993-07-01T00:00:17Z" (741484817) 0x266-0x26d.7 (8)
0x260|                                          00 00|              ..|        corr: 18 0x26e-0x271.7 (4)
0x270|00 12                                          |..              |
     |                                               |                |      [18]{}: leap_second_record 0x272-0x27d.7 (12)
0x270|      00 00 00 00 2e 13 5c 92                  |  ......\.      |        occur: "1994-07-01T00:00:18Z" (773020818) 0x272-0x279.7 (8)
0x270|                              00 00 00 13      |          ....  |        corr: 19 0x27a-0x27d.7 (4)
     |                                               |                |      [19]{}: leap_second_record 0x27e-0x289.7 (12)
0x270|                                          00 00|              ..|        occur: "1996-01-01T00:00:19Z" (820454419) 0x27e-0x285.7 (8)
0x280|00 00 30 e7 24 13                              |..0.$.          |
0x280|                  00 00 00 14                  |      ....      |        corr: 20 0x286-0x289.7 (4)
     |                                               |                |      [20]{}: leap_second_record 0x28a-0x295.7 (12)
0x280|                              00 00 00 00 33 b8|          ....3.|        occur: "1997-07-01T00:00:20Z" (867715220) 0x28a-0x291.7 (8)
0x290|48 94                                          |H.              |
0x290|      00 00 00 15                              |  ....          |        corr: 21 0x292-0x295.7 (4)
     |                                               |                |      [21]{}: leap_second_record 0x296-0x2a1.7 (12)
0x290|                  00 00 00 00 36 8c 10 15      |      ....6...  |        occur: "1999-01-01T00:00:21Z" (915148821) 0x296-0x29d.7 (8)
0x290|                                          00 00|              ..|        corr: 22 0x29e-0x2a1.7 (4)
0x2a0|00 16                                          |..              |
     |                                               |                |      [22]{}: leap_second_record 0x2a2-0x2ad.7 (12)
0x2a0|      00 00 00 00 43 b7 1b 96                  |  ....C...      |        occur: "2006-01-01T00:00:22Z" (1136073622) 0x2a2-0x2a9.7 (8)
0x2a0|                              00 00 00 17      |          ....  |        corr: 23 0x2aa-0x2ad.7 (4)
     |                                               |                |      [23]{}: leap_second_record 0x2ae-0x2b9.7 (12)
0x2a0|                                          00 00|              ..|        occur: "2009-01-01T00:00:23Z" (1230768023) 0x2ae-0x2b5.7 (8)
0x2b0|00 00 49 5c 07 97                              |..I\..          |
0x2b0|                  00 00 00 18                  |      ....      |        corr: 24 0x2b6-0x2b9.7 (4)
     |                                               |                |      [24]{}: leap_second_record 0x2ba-0x2c5.7 (12)
0x2b0|                              00 00 00 00 4f ef|          ....O.|        occur: "2012-07-01T00:00:24Z" (1341100824) 0x2ba-0x2c1.7 (8)
0x2c0|93 18                                          |..              |
0x2c0|      00 00 00 19                              |  ....          |        corr: 25 0x2c2-0x2c5.7 (4)
     |                                               |                |      [25]{}: leap_second_record 0x2c6-0x2d1.7 (12)
0x2c0|                  00 00 00 00 55 93 2d 99      |      ....U.-.  |        occur: "2015-07-01T00:00:25Z" (1435708825) 0x2c6-0x2cd.7 (8)
0x2c0|                                          00 00|              ..|        corr: 26 0x2ce-0x2d1.7 (4)
0x2d0|00 1a                                          |..              |
     |                                               |                |      [26]{}: leap_second_record 0x2d2-0x2dd.7 (12)
0x2d0|      00 00 00 00 58 68 46 9a                  |  ....XhF.      |        occur: "2017-01-01T00:00:26Z" (1483228826) 0x2d2-0x2d9.7 (8)
0x2d0|                              00 00 00 1b      |          ....  |        corr: 27 0x2da-0x2dd.7 (4)
     |                                               |                |    standard_wall_indicators[0:0]: 0x2de-NA (0)
     |                                               |                |    ut_local_indicators[0:0]: 0x2de-NA (0)
     |                                               |                |  footer{}: 0x2de-0x2df.7 (2)
0x2d0|                                          0a   |              . |    nl1: 10 (valid) 0x2de-0x2de.7 (1)
     |                                               |                |    tz_string: "" 0x2df-NA (0)
0x2d0|                                             0a|               .|    nl2: 10 (valid) 0x2df-0x2df.7 (1)
