$ fq -d tzif dv Thule
     |00 01 02 03 04 05 06 07 08 09 0a 0b 0c 0d 0e 0f|0123456789abcdef|.{}: Thule (tzif) 0x0-0x65b.7 (1628)
     |                                               |                |  v1header{}: 0x0-0x2b.7 (44)
0x000|54 5a 69 66                                    |TZif            |    magic: 0x545a6966 (valid) 0x0-0x3.7 (4)
0x000|            32                                 |    2           |    ver: "2" (0x32) (valid) 0x4-0x4.7 (1)
0x000|               00 00 00 00 00 00 00 00 00 00 00|     ...........|    reserved: raw bits 0x5-0x13.7 (15)
0x010|00 00 00 00                                    |....            |
0x010|            00 00 00 00                        |    ....        |    isutcnt: 0 0x14-0x17.7 (4)
0x010|                        00 00 00 00            |        ....    |    isstdcnt: 0 0x18-0x1b.7 (4)
0x010|                                    00 00 00 1b|            ....|    leapcnt: 27 0x1c-0x1f.7 (4)
0x020|00 00 00 43                                    |...C            |    timecnt: 67 0x20-0x23.7 (4)
0x020|            00 00 00 03                        |    ....        |    typecnt: 3 0x24-0x27.7 (4)
0x020|                        00 00 00 0c            |        ....    |    charcnt: 12 0x28-0x2b.7 (4)
     |                                               |                |  v1datablock{}: 0x2c-0x270.7 (581)
     |                                               |                |    transition_times[0:67]: 0x2c-0x137.7 (268)
0x020|                                    9b 80 77 fc|            ..w.|      [0]: "1916-07-28T04:35:08Z" (-1686079492) transition_time 0x2c-0x2f.7 (4)
0x030|27 f5 7a f0                                    |'.z.            |      [1]: "1991-03-31T06:00:16Z" (670399216) transition_time 0x30-0x33.7 (4)
0x030|            28 e5 5d e0                        |    (.].        |      [2]: "1991-09-29T05:00:16Z" (686120416) transition_time 0x34-0x37.7 (4)
0x030|                        29 d5 5c f0            |        ).\.    |      [3]: "1992-03-29T06:00:16Z" (701848816) transition_time 0x38-0x3b.7 (4)
0x030|                                    2a c5 3f e1|            *.?.|      [4]: "1992-09-27T05:00:17Z" (717570017) transition_time 0x3c-0x3f.7 (4)
0x040|2b be 79 71                                    |+.yq            |      [5]: "1993-04-04T06:00:17Z" (733903217) transition_time 0x40-0x43.7 (4)
0x040|            2c d3 46 62                        |    ,.Fb        |      [6]: "1993-10-31T05:00:18Z" (752043618) transition_time 0x44-0x47.7 (4)
0x040|                        2d 9e 5b 72            |        -.[r    |      [7]: "1994-04-03T06:00:18Z" (765352818) transition_time 0x48-0x4b.7 (4)
0x040|                                    2e b3 28 63|            ..(c|      [8]: "1994-10-30T05:00:19Z" (783493219) transition_time 0x4c-0x4f.7 (4)
0x050|2f 7e 3d 73                                    |/~=s            |      [9]: "1995-04-02T06:00:19Z" (796802419) transition_time 0x50-0x53.7 (4)
0x050|            30 93 0a 63                        |    0..c        |      [10]: "1995-10-29T05:00:19Z" (814942819) transition_time 0x54-0x57.7 (4)
0x050|                        31 67 59 f4            |        1gY.    |      [11]: "1996-04-07T06:00:20Z" (828856820) transition_time 0x58-0x5b.7 (4)
0x050|                                    32 72 ec 64|            2r.d|      [12]: "1996-10-27T05:00:20Z" (846392420) transition_time 0x5c-0x5f.7 (4)
0x060|33 47 3b f4                                    |3G;.            |      [13]: "1997-04-06T06:00:20Z" (860306420) transition_time 0x60-0x63.7 (4)
0x060|            34 52 ce 65                        |    4R.e        |      [14]: "1997-10-26T05:00:21Z" (877842021) transition_time 0x64-0x67.7 (4)
0x060|                        35 27 1d f5            |        5'..    |      [15]: "1998-04-05T06:00:21Z" (891756021) transition_time 0x68-0x6b.7 (4)
0x060|                                    36 32 b0 65|            62.e|      [16]: "1998-10-25T05:00:21Z" (909291621) transition_time 0x6c-0x6f.7 (4)
0x070|37 06 ff f6                                    |7...            |      [17]: "1999-04-04T06:00:22Z" (923205622) transition_time 0x70-0x73.7 (4)
0x070|            38 1b cc e6                        |    8...        |      [18]: "1999-10-31T05:00:22Z" (941346022) transition_time 0x74-0x77.7 (4)
0x070|                        38 e6 e1 f6            |        8...    |      [19]: "2000-04-02T06:00:22Z" (954655222) transition_time 0x78-0x7b.7 (4)
0x070|                                    39 fb ae e6|            9...|      [20]: "2000-10-29T05:00:22Z" (972795622) transition_time 0x7c-0x7f.7 (4)
0x080|3a c6 c3 f6                                    |:...            |      [21]: "2001-04-01T06:00:22Z" (986104822) transition_time 0x80-0x83.7 (4)
0x080|            3b db 90 e6                        |    ;...        |      [22]: "2001-10-28T05:00:22Z" (1004245222) transition_time 0x84-0x87.7 (4)
0x080|                        3c af e0 76            |        <..v    |      [23]: "2002-04-07T06:00:22Z" (1018159222) transition_time 0x88-0x8b.7 (4)
0x080|                                    3d bb 72 e6|            =.r.|      [24]: "2002-10-27T05:00:22Z" (1035694822) transition_time 0x8c-0x8f.7 (4)
0x090|3e 8f c2 76                                    |>..v            |      [25]: "2003-04-06T06:00:22Z" (1049608822) transition_time 0x90-0x93.7 (4)
0x090|            3f 9b 54 e6                        |    ?.T.        |      [26]: "2003-10-26T05:00:22Z" (1067144422) transition_time 0x94-0x97.7 (4)
0x090|                        40 6f a4 76            |        @o.v    |      [27]: "2004-04-04T06:00:22Z" (1081058422) transition_time 0x98-0x9b.7 (4)
0x090|                                    41 84 71 66|            A.qf|      [28]: "2004-10-31T05:00:22Z" (1099198822) transition_time 0x9c-0x9f.7 (4)
0x0a0|42 4f 86 76                                    |BO.v            |      [29]: "2005-04-03T06:00:22Z" (1112508022) transition_time 0xa0-0xa3.7 (4)
0x0a0|            43 64 53 66                        |    CdSf        |      [30]: "2005-10-30T05:00:22Z" (1130648422) transition_time 0xa4-0xa7.7 (4)
0x0a0|                        44 2f 68 77            |        D/hw    |      [31]: "2006-04-02T06:00:23Z" (1143957623) transition_time 0xa8-0xab.7 (4)
0x0a0|                                    45 44 35 67|            ED5g|      [32]: "2006-10-29T05:00:23Z" (1162098023) transition_time 0xac-0xaf.7 (4)
0x0b0|45 f3 9a f7                                    |E...            |      [33]: "2007-03-11T06:00:23Z" (1173592823) transition_time 0xb0-0xb3.7 (4)
0x0b0|            47 2d 51 e7                        |    G-Q.        |      [34]: "2007-11-04T05:00:23Z" (1194152423) transition_time 0xb4-0xb7.7 (4)
0x0b0|                        47 d3 7c f7            |        G.|.    |      [35]: "2008-03-09T06:00:23Z" (1205042423) transition_time 0xb8-0xbb.7 (4)
0x0b0|                                    49 0d 33 e7|            I.3.|      [36]: "2008-11-02T05:00:23Z" (1225602023) transition_time 0xbc-0xbf.7 (4)
0x0c0|49 b3 5e f8                                    |I.^.            |      [37]: "2009-03-08T06:00:24Z" (1236492024) transition_time 0xc0-0xc3.7 (4)
0x0c0|            4a ed 15 e8                        |    J...        |      [38]: "2009-11-01T05:00:24Z" (1257051624) transition_time 0xc4-0xc7.7 (4)
0x0c0|                        4b 9c 7b 78            |        K.{x    |      [39]: "2010-03-14T06:00:24Z" (1268546424) transition_time 0xc8-0xcb.7 (4)
0x0c0|                                    4c d6 32 68|            L.2h|      [40]: "2010-11-07T05:00:24Z" (1289106024) transition_time 0xcc-0xcf.7 (4)
0x0d0|4d 7c 5d 78                                    |M|]x            |      [41]: "2011-03-13T06:00:24Z" (1299996024) transition_time 0xd0-0xd3.7 (4)
0x0d0|            4e b6 14 68                        |    N..h        |      [42]: "2011-11-06T05:00:24Z" (1320555624) transition_time 0xd4-0xd7.7 (4)
0x0d0|                        4f 5c 3f 78            |        O\?x    |      [43]: "2012-03-11T06:00:24Z" (1331445624) transition_time 0xd8-0xdb.7 (4)
0x0d0|                                    50 95 f6 69|            P..i|      [44]: "2012-11-04T05:00:25Z" (1352005225) transition_time 0xdc-0xdf.7 (4)
0x0e0|51 3c 21 79                                    |Q<!y            |      [45]: "2013-03-10T06:00:25Z" (1362895225) transition_time 0xe0-0xe3.7 (4)
0x0e0|            52 75 d8 69                        |    Ru.i        |      [46]: "2013-11-03T05:00:25Z" (1383454825) transition_time 0xe4-0xe7.7 (4)
0x0e0|                        53 1c 03 79            |        S..y    |      [47]: "2014-03-09T06:00:25Z" (1394344825) transition_time 0xe8-0xeb.7 (4)
0x0e0|                                    54 55 ba 69|            TU.i|      [48]: "2014-11-02T05:00:25Z" (1414904425) transition_time 0xec-0xef.7 (4)
0x0f0|54 fb e5 79                                    |T..y            |      [49]: "2015-03-08T06:00:25Z" (1425794425) transition_time 0xf0-0xf3.7 (4)
0x0f0|            56 35 9c 6a                        |    V5.j        |      [50]: "2015-11-01T05:00:26Z" (1446354026) transition_time 0xf4-0xf7.7 (4)
0x0f0|                        56 e5 01 fa            |        V...    |      [51]: "2016-03-13T06:00:26Z" (1457848826) transition_time 0xf8-0xfb.7 (4)
0x0f0|                                    58 1e b8 ea|            X...|      [52]: "2016-11-06T05:00:26Z" (1478408426) transition_time 0xfc-0xff.7 (4)
0x100|58 c4 e3 fb                                    |X...            |      [53]: "2017-03-12T06:00:27Z" (1489298427) transition_time 0x100-0x103.7 (4)
0x100|            59 fe 9a eb                        |    Y...        |      [54]: "2017-11-05T05:00:27Z" (1509858027) transition_time 0x104-0x107.7 (4)
0x100|                        5a a4 c5 fb            |        Z...    |      [55]: "2018-03-11T06:00:27Z" (1520748027) transition_time 0x108-0x10b.7 (4)
0x100|                                    5b de 7c eb|            [.|.|      [56]: "2018-11-04T05:00:27Z" (1541307627) transition_time 0x10c-0x10f.7 (4)
0x110|5c 84 a7 fb                                    |\...            |      [57]: "2019-03-10T06:00:27Z" (1552197627) transition_time 0x110-0x113.7 (4)
0x110|            5d be 5e eb                        |    ].^.        |      [58]: "2019-11-03T05:00:27Z" (1572757227) transition_time 0x114-0x117.7 (4)
0x110|                        5e 64 89 fb            |        ^d..    |      [59]: "2020-03-08T06:00:27Z" (1583647227) transition_time 0x118-0x11b.7 (4)
0x110|                                    5f 9e 40 eb|            _.@.|      [60]: "2020-11-01T05:00:27Z" (1604206827) transition_time 0x11c-0x11f.7 (4)
0x120|60 4d a6 7b                                    |`M.{            |      [61]: "2021-03-14T06:00:27Z" (1615701627) transition_time 0x120-0x123.7 (4)
0x120|            61 87 5d 6b                        |    a.]k        |      [62]: "2021-11-07T05:00:27Z" (1636261227) transition_time 0x124-0x127.7 (4)
0x120|                        62 2d 88 7b            |        b-.{    |      [63]: "2022-03-13T06:00:27Z" (1647151227) transition_time 0x128-0x12b.7 (4)
0x120|                                    63 67 3f 6b|            cg?k|      [64]: "2022-11-06T05:00:27Z" (1667710827) transition_time 0x12c-0x12f.7 (4)
0x130|64 0d 6a 7b                                    |d.j{            |      [65]: "2023-03-12T06:00:27Z" (1678600827) transition_time 0x130-0x133.7 (4)
0x130|            64 9b 78 1b                        |    d.x.        |      [66]: "2023-06-28T00:00:27Z" (1687910427) transition_time 0x134-0x137.7 (4)
     |                                               |                |    transition_types[0:67]: 0x138-0x17a.7 (67)
0x130|                        02                     |        .       |      [0]: 2 transition_type 0x138-0x138.7 (1)
0x130|                           01                  |         .      |      [1]: 1 transition_type 0x139-0x139.7 (1)
0x130|                              02               |          .     |      [2]: 2 transition_type 0x13a-0x13a.7 (1)
0x130|                                 01            |           .    |      [3]: 1 transition_type 0x13b-0x13b.7 (1)
0x130|                                    02         |            .   |      [4]: 2 transition_type 0x13c-0x13c.7 (1)
0x130|                                       01      |             .  |      [5]: 1 transition_type 0x13d-0x13d.7 (1)
0x130|                                          02   |              . |      [6]: 2 transition_type 0x13e-0x13e.7 (1)
0x130|                                             01|               .|      [7]: 1 transition_type 0x13f-0x13f.7 (1)
0x140|02                                             |.               |      [8]: 2 transition_type 0x140-0x140.7 (1)
0x140|   01                                          | .              |      [9]: 1 transition_type 0x141-0x141.7 (1)
0x140|      02                                       |  .             |      [10]: 2 transition_type 0x142-0x142.7 (1)
0x140|         01                                    |   .            |      [11]: 1 transition_type 0x143-0x143.7 (1)
0x140|            02                                 |    .           |      [12]: 2 transition_type 0x144-0x144.7 (1)
0x140|               01                              |     .          |      [13]: 1 transition_type 0x145-0x145.7 (1)
0x140|                  02                           |      .         |      [14]: 2 transition_type 0x146-0x146.7 (1)
0x140|                     01                        |       .        |      [15]: 1 transition_type 0x147-0x147.7 (1)
0x140|                        02                     |        .       |      [16]: 2 transition_type 0x148-0x148.7 (1)
0x140|                           01                  |         .      |      [17]: 1 transition_type 0x149-0x149.7 (1)
0x140|                              02               |          .     |      [18]: 2 transition_type 0x14a-0x14a.7 (1)
0x140|                                 01            |           .    |      [19]: 1 transition_type 0x14b-0x14b.7 (1)
0x140|                                    02         |            .   |      [20]: 2 transition_type 0x14c-0x14c.7 (1)
0x140|                                       01      |             .  |      [21]: 1 transition_type 0x14d-0x14d.7 (1)
0x140|                                          02   |              . |      [22]: 2 transition_type 0x14e-0x14e.7 (1)
0x140|                                             01|               .|      [23]: 1 transition_type 0x14f-0x14f.7 (1)
0x150|02                                             |.               |      [24]: 2 transition_type 0x150-0x150.7 (1)
0x150|   01                                          | .              |      [25]: 1 transition_type 0x151-0x151.7 (1)
0x150|      02                                       |  .             |      [26]: 2 transition_type 0x152-0x152.7 (1)
0x150|         01                                    |   .            |      [27]: 1 transition_type 0x153-0x153.7 (1)
0x150|            02                                 |    .           |      [28]: 2 transition_type 0x154-0x154.7 (1)
0x150|               01                              |     .          |      [29]: 1 transition_type 0x155-0x155.7 (1)
0x150|                  02                           |      .         |      [30]: 2 transition_type 0x156-0x156.7 (1)
0x150|                     01                        |       .        |      [31]: 1 transition_type 0x157-0x157.7 (1)
0x150|                        02                     |        .       |      [32]: 2 transition_type 0x158-0x158.7 (1)
0x150|                           01                  |         .      |      [33]: 1 transition_type 0x159-0x159.7 (1)
0x150|                              02               |          .     |      [34]: 2 transition_type 0x15a-0x15a.7 (1)
0x150|                                 01            |           .    |      [35]: 1 transition_type 0x15b-0x15b.7 (1)
0x150|                                    02         |            .   |      [36]: 2 transition_type 0x15c-0x15c.7 (1)
0x150|                                       01      |             .  |      [37]: 1 transition_type 0x15d-0x15d.7 (1)
0x150|                                          02   |              . |      [38]: 2 transition_type 0x15e-0x15e.7 (1)
0x150|                                             01|               .|      [39]: 1 transition_type 0x15f-0x15f.7 (1)
0x160|02                                             |.               |      [40]: 2 transition_type 0x160-0x160.7 (1)
0x160|   01                                          | .              |      [41]: 1 transition_type 0x161-0x161.7 (1)
0x160|      02                                       |  .             |      [42]: 2 transition_type 0x162-0x162.7 (1)
0x160|         01                                    |   .            |      [43]: 1 transition_type 0x163-0x163.7 (1)
0x160|            02                                 |    .           |      [44]: 2 transition_type 0x164-0x164.7 (1)
0x160|               01                              |     .          |      [45]: 1 transition_type 0x165-0x165.7 (1)
0x160|                  02                           |      .         |      [46]: 2 transition_type 0x166-0x166.7 (1)
0x160|                     01                        |       .        |      [47]: 1 transition_type 0x167-0x167.7 (1)
0x160|                        02                     |        .       |      [48]: 2 transition_type 0x168-0x168.7 (1)
0x160|                           01                  |         .      |      [49]: 1 transition_type 0x169-0x169.7 (1)
0x160|                              02               |          .     |      [50]: 2 transition_type 0x16a-0x16a.7 (1)
0x160|                                 01            |           .    |      [51]: 1 transition_type 0x16b-0x16b.7 (1)
0x160|                                    02         |            .   |      [52]: 2 transition_type 0x16c-0x16c.7 (1)
0x160|                                       01      |             .  |      [53]: 1 transition_type 0x16d-0x16d.7 (1)
0x160|                                          02   |              . |      [54]: 2 transition_type 0x16e-0x16e.7 (1)
0x160|                                             01|               .|      [55]: 1 transition_type 0x16f-0x16f.7 (1)
0x170|02                                             |.               |      [56]: 2 transition_type 0x170-0x170.7 (1)
0x170|   01                                          | .              |      [57]: 1 transition_type 0x171-0x171.7 (1)
0x170|      02                                       |  .             |      [58]: 2 transition_type 0x172-0x172.7 (1)
0x170|         01                                    |   .            |      [59]: 1 transition_type 0x173-0x173.7 (1)
0x170|            02                                 |    .           |      [60]: 2 transition_type 0x174-0x174.7 (1)
0x170|               01                              |     .          |      [61]: 1 transition_type 0x175-0x175.7 (1)
0x170|                  02                           |      .         |      [62]: 2 transition_type 0x176-0x176.7 (1)
0x170|                     01                        |       .        |      [63]: 1 transition_type 0x177-0x177.7 (1)
0x170|                        02                     |        .       |      [64]: 2 transition_type 0x178-0x178.7 (1)
0x170|                           01                  |         .      |      [65]: 1 transition_type 0x179-0x179.7 (1)
0x170|                              01               |          .     |      [66]: 1 transition_type 0x17a-0x17a.7 (1)
     |                                               |                |    local_time_type_records[0:3]: 0x17b-0x18c.7 (18)
     |                                               |                |      [0]{}: local_time_type 0x17b-0x180.7 (6)
0x170|                                 ff ff bf 84   |           .... |        utoff: -16508 (valid) 0x17b-0x17e.7 (4)
0x170|                                             00|               .|        dst: 0 (valid) 0x17f-0x17f.7 (1)
0x180|00                                             |.               |        idx: 0 (valid) 0x180-0x180.7 (1)
     |                                               |                |      [1]{}: local_time_type 0x181-0x186.7 (6)
0x180|   ff ff d5 d0                                 | ....           |        utoff: -10800 (valid) 0x181-0x184.7 (4)
0x180|               01                              |     .          |        dst: 1 (valid) 0x185-0x185.7 (1)
0x180|                  04                           |      .         |        idx: 4 (valid) 0x186-0x186.7 (1)
     |                                               |                |      [2]{}: local_time_type 0x187-0x18c.7 (6)
0x180|                     ff ff c7 c0               |       ....     |        utoff: -14400 (valid) 0x187-0x18a.7 (4)
0x180|                                 00            |           .    |        dst: 0 (valid) 0x18b-0x18b.7 (1)
0x180|                                    08         |            .   |        idx: 8 (valid) 0x18c-0x18c.7 (1)
     |                                               |                |    time_zone_designations[0:3]: 0x18d-0x198.7 (12)
0x180|                                       4c 4d 54|             LMT|      [0]: "LMT" time_zone_designation 0x18d-0x190.7 (4)
0x190|00                                             |.               |
0x190|   41 44 54 00                                 | ADT.           |      [1]: "ADT" time_zone_designation 0x191-0x194.7 (4)
0x190|               41 53 54 00                     |     AST.       |      [2]: "AST" time_zone_designation 0x195-0x198.7 (4)
     |                                               |                |    leap_second_records[0:27]: 0x199-0x270.7 (216)
     |                                               |                |      [0]{}: leap_second_record 0x199-0x1a0.7 (8)
0x190|                           04 b2 58 00         |         ..X.   |        occur: "1972-07-01T00:00:00Z" (78796800) 0x199-0x19c.7 (4)
0x190|                                       00 00 00|             ...|        corr: 1 0x19d-0x1a0.7 (4)
0x1a0|01                                             |.               |
     |                                               |                |      [1]{}: leap_second_record 0x1a1-0x1a8.7 (8)
0x1a0|   05 a4 ec 01                                 | ....           |        occur: "1973-01-01T00:00:01Z" (94694401) 0x1a1-0x1a4.7 (4)
0x1a0|               00 00 00 02                     |     ....       |        corr: 2 0x1a5-0x1a8.7 (4)
     |                                               |                |      [2]{}: leap_second_record 0x1a9-0x1b0.7 (8)
0x1a0|                           07 86 1f 82         |         ....   |        occur: "1974-01-01T00:00:02Z" (126230402) 0x1a9-0x1ac.7 (4)
0x1a0|                                       00 00 00|             ...|        corr: 3 0x1ad-0x1b0.7 (4)
0x1b0|03                                             |.               |
     |                                               |                |      [3]{}: leap_second_record 0x1b1-0x1b8.7 (8)
0x1b0|   09 67 53 03                                 | .gS.           |        occur: "1975-01-01T00:00:03Z" (157766403) 0x1b1-0x1b4.7 (4)
0x1b0|               00 00 00 04                     |     ....       |        corr: 4 0x1b5-0x1b8.7 (4)
     |                                               |                |      [4]{}: leap_second_record 0x1b9-0x1c0.7 (8)
0x1b0|                           0b 48 86 84         |         .H..   |        occur: "1976-01-01T00:00:04Z" (189302404) 0x1b9-0x1bc.7 (4)
0x1b0|                                       00 00 00|             ...|        corr: 5 0x1bd-0x1c0.7 (4)
0x1c0|05                                             |.               |
     |                                               |                |      [5]{}: leap_second_record 0x1c1-0x1c8.7 (8)
0x1c0|   0d 2b 0b 85                                 | .+..           |        occur: "1977-01-01T00:00:05Z" (220924805) 0x1c1-0x1c4.7 (4)
0x1c0|               00 00 00 06                     |     ....       |        corr: 6 0x1c5-0x1c8.7 (4)
     |                                               |                |      [6]{}: leap_second_record 0x1c9-0x1d0.7 (8)
0x1c0|                           0f 0c 3f 06         |         ..?.   |        occur: "1978-01-01T00:00:06Z" (252460806) 0x1c9-0x1cc.7 (4)
0x1c0|                                       00 00 00|             ...|        corr: 7 0x1cd-0x1d0.7 (4)
0x1d0|07                                             |.               |
     |                                               |                |      [7]{}: leap_second_record 0x1d1-0x1d8.7 (8)
0x1d0|   10 ed 72 87                                 | ..r.           |        occur: "1979-01-01T00:00:07Z" (283996807) 0x1d1-0x1d4.7 (4)
0x1d0|               00 00 00 08                     |     ....       |        corr: 8 0x1d5-0x1d8.7 (4)
     |                                               |                |      [8]{}: leap_second_record 0x1d9-0x1e0.7 (8)
0x1d0|                           12 ce a6 08         |         ....   |        occur: "1980-01-01T00:00:08Z" (315532808) 0x1d9-0x1dc.7 (4)
0x1d0|                                       00 00 00|             ...|        corr: 9 0x1dd-0x1e0.7 (4)
0x1e0|09                                             |.               |
     |                                               |                |      [9]{}: leap_second_record 0x1e1-0x1e8.7 (8)
0x1e0|   15 9f ca 89                                 | ....           |        occur: "1981-07-01T00:00:09Z" (362793609) 0x1e1-0x1e4.7 (4)
0x1e0|               00 00 00 0a                     |     ....       |        corr: 10 0x1e5-0x1e8.7 (4)
     |                                               |                |      [10]{}: leap_second_record 0x1e9-0x1f0.7 (8)
0x1e0|                           17 80 fe 0a         |         ....   |        occur: "1982-07-01T00:00:10Z" (394329610) 0x1e9-0x1ec.7 (4)
0x1e0|                                       00 00 00|             ...|        corr: 11 0x1ed-0x1f0.7 (4)
0x1f0|0b                                             |.               |
     |                                               |                |      [11]{}: leap_second_record 0x1f1-0x1f8.7 (8)
0x1f0|   19 62 31 8b                                 | .b1.           |        occur: "1983-07-01T00:00:11Z" (425865611) 0x1f1-0x1f4.7 (4)
0x1f0|               00 00 00 0c                     |     ....       |        corr: 12 0x1f5-0x1f8.7 (4)
     |                                               |                |      [12]{}: leap_second_record 0x1f9-0x200.7 (8)
0x1f0|                           1d 25 ea 0c         |         .%..   |        occur: "1985-07-01T00:00:12Z" (489024012) 0x1f9-0x1fc.7 (4)
0x1f0|                                       00 00 00|             ...|        corr: 13 0x1fd-0x200.7 (4)
0x200|0d                                             |.               |
     |                                               |                |      [13]{}: leap_second_record 0x201-0x208.7 (8)
0x200|   21 da e5 0d                                 | !...           |        occur: "1988-01-01T00:00:13Z" (567993613) 0x201-0x204.7 (4)
0x200|               00 00 00 0e                     |     ....       |        corr: 14 0x205-0x208.7 (4)
     |                                               |                |      [14]{}: leap_second_record 0x209-0x210.7 (8)
0x200|                           25 9e 9d 8e         |         %...   |        occur: "1990-01-01T00:00:14Z" (631152014) 0x209-0x20c.7 (4)
0x200|                                       00 00 00|             ...|        corr: 15 0x20d-0x210.7 (4)
0x210|0f                                             |.               |
     |                                               |                |      [15]{}: leap_second_record 0x211-0x218.7 (8)
0x210|   27 7f d1 0f                                 | '...           |        occur: "1991-01-01T00:00:15Z" (662688015) 0x211-0x214.7 (4)
0x210|               00 00 00 10                     |     ....       |        corr: 16 0x215-0x218.7 (4)
     |                                               |                |      [16]{}: leap_second_record 0x219-0x220.7 (8)
0x210|                           2a 50 f5 90         |         *P..   |        occur: "1992-07-01T00:00:16Z" (709948816) 0x219-0x21c.7 (4)
0x210|                                       00 00 00|             ...|        corr: 17 0x21d-0x220.7 (4)
0x220|11                                             |.               |
     |                                               |                |      [17]{}: leap_second_record 0x221-0x228.7 (8)
0x220|   2c 32 29 11                                 | ,2).           |        occur: "1993-07-01T00:00:17Z" (741484817) 0x221-0x224.7 (4)
0x220|               00 00 00 12                     |     ....       |        corr: 18 0x225-0x228.7 (4)
     |                                               |                |      [18]{}: leap_second_record 0x229-0x230.7 (8)
0x220|                           2e 13 5c 92         |         ..\.   |        occur: "1994-07-01T00:00:18Z" (773020818) 0x229-0x22c.7 (4)
0x220|                                       00 00 00|             ...|        corr: 19 0x22d-0x230.7 (4)
0x230|13                                             |.               |
     |                                               |                |      [19]{}: leap_second_record 0x231-0x238.7 (8)
0x230|   30 e7 24 13                                 | 0.$.           |        occur: "1996-01-01T00:00:19Z" (820454419) 0x231-0x234.7 (4)
0x230|               00 00 00 14                     |     ....       |        corr: 20 0x235-0x238.7 (4)
     |                                               |                |      [20]{}: leap_second_record 0x239-0x240.7 (8)
0x230|                           33 b8 48 94         |         3.H.   |        occur: "1997-07-01T00:00:20Z" (867715220) 0x239-0x23c.7 (4)
0x230|                                       00 00 00|             ...|        corr: 21 0x23d-0x240.7 (4)
0x240|15                                             |.               |
     |                                               |                |      [21]{}: leap_second_record 0x241-0x248.7 (8)
0x240|   36 8c 10 15                                 | 6...           |        occur: "1999-01-01T00:00:21Z" (915148821) 0x241-0x244.7 (4)
0x240|               00 00 00 16                     |     ....       |        corr: 22 0x245-0x248.7 (4)
     |                                               |                |      [22]{}: leap_second_record 0x249-0x250.7 (8)
0x240|                           43 b7 1b 96         |         C...   |        occur: "2006-01-01T00:00:22Z" (1136073622) 0x249-0x24c.7 (4)
0x240|                                       00 00 00|             ...|        corr: 23 0x24d-0x250.7 (4)
0x250|17                                             |.               |
     |                                               |                |      [23]{}: leap_second_record 0x251-0x258.7 (8)
0x250|   49 5c 07 97                                 | I\..           |        occur: "2009-01-01T00:00:23Z" (1230768023) 0x251-0x254.7 (4)
0x250|               00 00 00 18                     |     ....       |        corr: 24 0x255-0x258.7 (4)
     |                                               |                |      [24]{}: leap_second_record 0x259-0x260.7 (8)
0x250|                           4f ef 93 18         |         O...   |        occur: "2012-07-01T00:00:24Z" (1341100824) 0x259-0x25c.7 (4)
0x250|                                       00 00 00|             ...|        corr: 25 0x25d-0x260.7 (4)
0x260|19                                             |.               |
     |                                               |                |      [25]{}: leap_second_record 0x261-0x268.7 (8)
0x260|   55 93 2d 99                                 | U.-.           |        occur: "2015-07-01T00:00:25Z" (1435708825) 0x261-0x264.7 (4)
0x260|               00 00 00 1a                     |     ....       |        corr: 26 0x265-0x268.7 (4)
     |                                               |                |      [26]{}: leap_second_record 0x269-0x270.7 (8)
0x260|                           58 68 46 9a         |         XhF.   |        occur: "2017-01-01T00:00:26Z" (1483228826) 0x269-0x26c.7 (4)
0x260|                                       00 00 00|             ...|        corr: 27 0x26d-0x270.7 (4)
0x270|1b                                             |.               |
     |                                               |                |    standard_wall_indicators[0:0]: 0x271-NA (0)
     |                                               |                |    ut_local_indicators[0:0]: 0x271-NA (0)
     |                                               |                |  v2plusheader{}: 0x271-0x29c.7 (44)
0x270|   54 5a 69 66                                 | TZif           |    magic: 0x545a6966 (valid) 0x271-0x274.7 (4)
0x270|               32                              |     2          |    ver: "2" (0x32) (valid) 0x275-0x275.7 (1)
0x270|                  00 00 00 00 00 00 00 00 00 00|      ..........|    reserved: raw bits 0x276-0x284.7 (15)
0x280|00 00 00 00 00                                 |.....           |
0x280|               00 00 00 00                     |     ....       |    isutcnt: 0 0x285-0x288.7 (4)
0x280|                           00 00 00 00         |         ....   |    isstdcnt: 0 0x289-0x28c.7 (4)
0x280|                                       00 00 00|             ...|    leapcnt: 27 0x28d-0x290.7 (4)
0x290|1b                                             |.               |
0x290|   00 00 00 43                                 | ...C           |    timecnt: 67 0x291-0x294.7 (4)
0x290|               00 00 00 03                     |     ....       |    typecnt: 3 0x295-0x298.7 (4)
0x290|                           00 00 00 0c         |         ....   |    charcnt: 12 0x299-0x29c.7 (4)
     |                                               |                |  v2plusdatablock{}: 0x29d-0x659.7 (957)
     |                                               |                |    transition_times[0:67]: 0x29d-0x4b4.7 (536)
0x290|                                       ff ff ff|             ...|      [0]: "1916-07-28T04:35:08Z" (-1686079492) transition_time 0x29d-0x2a4.7 (8)
0x2a0|ff 9b 80 77 fc                                 |...w.           |
0x2a0|               00 00 00 00 27 f5 7a f0         |     ....'.z.   |      [1]: "1991-03-31T06:00:16Z" (670399216) transition_time 0x2a5-0x2ac.7 (8)
0x2a0|                                       00 00 00|             ...|      [2]: "1991-09-29T05:00:16Z" (686120416) transition_time 0x2ad-0x2b4.7 (8)
0x2b0|00 28 e5 5d e0                                 |.(.].           |
0x2b0|               00 00 00 00 29 d5 5c f0         |     ....).\.   |      [3]: "1992-03-29T06:00:16Z" (701848816) transition_time 0x2b5-0x2bc.7 (8)
0x2b0|                                       00 00 00|             ...|      [4]: "1992-09-27T05:00:17Z" (717570017) transition_time 0x2bd-0x2c4.7 (8)
0x2c0|00 2a c5 3f e1                                 |.*.?.           |
0x2c0|               00 00 00 00 2b be 79 71         |     ....+.yq   |      [5]: "1993-04-04T06:00:17Z" (733903217) transition_time 0x2c5-0x2cc.7 (8)
0x2c0|                                       00 00 00|             ...|      [6]: "1993-10-31T05:00:18Z" (752043618) transition_time 0x2cd-0x2d4.7 (8)
0x2d0|00 2c d3 46 62                                 |.,.Fb           |
0x2d0|               00 00 00 00 2d 9e 5b 72         |     ....-.[r   |      [7]: "1994-04-03T06:00:18Z" (765352818) transition_time 0x2d5-0x2dc.7 (8)
0x2d0|                                       00 00 00|             ...|      [8]: "1994-10-30T05:00:19Z" (783493219) transition_time 0x2dd-0x2e4.7 (8)
0x2e0|00 2e b3 28 63                                 |...(c           |
0x2e0|               00 00 00 00 2f 7e 3d 73         |     ..../~=s   |      [9]: "1995-04-02T06:00:19Z" (796802419) transition_time 0x2e5-0x2ec.7 (8)
0x2e0|                                       00 00 00|             ...|      [10]: "1995-10-29T05:00:19Z" (814942819) transition_time 0x2ed-0x2f4.7 (8)
0x2f0|00 30 93 0a 63                                 |.0..c           |
0x2f0|               00 00 00 00 31 67 59 f4         |     ....1gY.   |      [11]: "1996-04-07T06:00:20Z" (828856820) transition_time 0x2f5-0x2fc.7 (8)
0x2f0|                                       00 00 00|             ...|      [12]: "1996-10-27T05:00:20Z" (846392420) transition_time 0x2fd-0x304.7 (8)
0x300|00 32 72 ec 64                                 |.2r.d           |
0x300|               00 00 00 00 33 47 3b f4         |     ....3G;.   |      [13]: "1997-04-06T06:00:20Z" (860306420) transition_time 0x305-0x30c.7 (8)
0x300|                                       00 00 00|             ...|      [14]: "1997-10-26T05:00:21Z" (877842021) transition_time 0x30d-0x314.7 (8)
0x310|00 34 52 ce 65                                 |.4R.e           |
0x310|               00 00 00 00 35 27 1d f5         |     ....5'..   |      [15]: "1998-04-05T06:00:21Z" (891756021) transition_time 0x315-0x31c.7 (8)
0x310|                                       00 00 00|             ...|      [16]: "1998-10-25T05:00:21Z" (909291621) transition_time 0x31d-0x324.7 (8)
0x320|00 36 32 b0 65                                 |.62.e           |
0x320|               00 00 00 00 37 06 ff f6         |     ....7...   |      [17]: "1999-04-04T06:00:22Z" (923205622) transition_time 0x325-0x32c.7 (8)
0x320|                                       00 00 00|             ...|      [18]: "1999-10-31T05:00:22Z" (941346022) transition_time 0x32d-0x334.7 (8)
0x330|00 38 1b cc e6                                 |.8...           |
0x330|               00 00 00 00 38 e6 e1 f6         |     ....8...   |      [19]: "2000-04-02T06:00:22Z" (954655222) transition_time 0x335-0x33c.7 (8)
0x330|                                       00 00 00|             ...|      [20]: "2000-10-29T05:00:22Z" (972795622) transition_time 0x33d-0x344.7 (8)
0x340|00 39 fb ae e6                                 |.9...           |
0x340|               00 00 00 00 3a c6 c3 f6         |     ....:...   |      [21]: "2001-04-01T06:00:22Z" (986104822) transition_time 0x345-0x34c.7 (8)
0x340|                                       00 00 00|             ...|      [22]: "2001-10-28T05:00:22Z" (1004245222) transition_time 0x34d-0x354.7 (8)
0x350|00 3b db 90 e6                                 |.;...           |
0x350|               00 00 00 00 3c af e0 76         |     ....<..v   |      [23]: "2002-04-07T06:00:22Z" (1018159222) transition_time 0x355-0x35c.7 (8)
0x350|                                       00 00 00|             ...|      [24]: "2002-10-27T05:00:22Z" (1035694822) transition_time 0x35d-0x364.7 (8)
0x360|00 3d bb 72 e6                                 |.=.r.           |
0x360|               00 00 00 00 3e 8f c2 76         |     ....>..v   |      [25]: "2003-04-06T06:00:22Z" (1049608822) transition_time 0x365-0x36c.7 (8)
0x360|                                       00 00 00|             ...|      [26]: "2003-10-26T05:00:22Z" (1067144422) transition_time 0x36d-0x374.7 (8)
0x370|00 3f 9b 54 e6                                 |.?.T.           |
0x370|               00 00 00 00 40 6f a4 76         |     ....@o.v   |      [27]: "2004-04-04T06:00:22Z" (1081058422) transition_time 0x375-0x37c.7 (8)
0x370|                                       00 00 00|             ...|      [28]: "2004-10-31T05:00:22Z" (1099198822) transition_time 0x37d-0x384.7 (8)
0x380|00 41 84 71 66                                 |.A.qf           |
0x380|               00 00 00 00 42 4f 86 76         |     ....BO.v   |      [29]: "2005-04-03T06:00:22Z" (1112508022) transition_time 0x385-0x38c.7 (8)
0x380|                                       00 00 00|             ...|      [30]: "2005-10-30T05:00:22Z" (1130648422) transition_time 0x38d-0x394.7 (8)
0x390|00 43 64 53 66                                 |.CdSf           |
0x390|               00 00 00 00 44 2f 68 77         |     ....D/hw   |      [31]: "2006-04-02T06:00:23Z" (1143957623) transition_time 0x395-0x39c.7 (8)
0x390|                                       00 00 00|             ...|      [32]: "2006-10-29T05:00:23Z" (1162098023) transition_time 0x39d-0x3a4.7 (8)
0x3a0|00 45 44 35 67                                 |.ED5g           |
0x3a0|               00 00 00 00 45 f3 9a f7         |     ....E...   |      [33]: "2007-03-11T06:00:23Z" (1173592823) transition_time 0x3a5-0x3ac.7 (8)
0x3a0|                                       00 00 00|             ...|      [34]: "2007-11-04T05:00:23Z" (1194152423) transition_time 0x3ad-0x3b4.7 (8)
0x3b0|00 47 2d 51 e7                                 |.G-Q.           |
0x3b0|               00 00 00 00 47 d3 7c f7         |     ....G.|.   |      [35]: "2008-03-09T06:00:23Z" (1205042423) transition_time 0x3b5-0x3bc.7 (8)
0x3b0|                                       00 00 00|             ...|      [36]: "2008-11-02T05:00:23Z" (1225602023) transition_time 0x3bd-0x3c4.7 (8)
0x3c0|00 49 0d 33 e7                                 |.I.3.           |
0x3c0|               00 00 00 00 49 b3 5e f8         |     ....I.^.   |      [37]: "2009-03-08T06:00:24Z" (1236492024) transition_time 0x3c5-0x3cc.7 (8)
0x3c0|                                       00 00 00|             ...|      [38]: "2009-11-01T05:00:24Z" (1257051624) transition_time 0x3cd-0x3d4.7 (8)
0x3d0|00 4a ed 15 e8                                 |.J...           |
0x3d0|               00 00 00 00 4b 9c 7b 78         |     ....K.{x   |      [39]: "2010-03-14T06:00:24Z" (1268546424) transition_time 0x3d5-0x3dc.7 (8)
0x3d0|                                       00 00 00|             ...|      [40]: "2010-11-07T05:00:24Z" (1289106024) transition_time 0x3dd-0x3e4.7 (8)
0x3e0|00 4c d6 32 68                                 |.L.2h           |
0x3e0|               00 00 00 00 4d 7c 5d 78         |     ....M|]x   |      [41]: "2011-03-13T06:00:24Z" (1299996024) transition_time 0x3e5-0x3ec.7 (8)
0x3e0|                                       00 00 00|             ...|      [42]: "2011-11-06T05:00:24Z" (1320555624) transition_time 0x3ed-0x3f4.7 (8)
0x3f0|00 4e b6 14 68                                 |.N..h           |
0x3f0|               00 00 00 00 4f 5c 3f 78         |     ....O\?x   |      [43]: "2012-03-11T06:00:24Z" (1331445624) transition_time 0x3f5-0x3fc.7 (8)
0x3f0|                                       00 00 00|             ...|      [44]: "2012-11-04T05:00:25Z" (1352005225) transition_time 0x3fd-0x404.7 (8)
0x400|00 50 95 f6 69                                 |.P..i           |
0x400|               00 00 00 00 51 3c 21 79         |     ....Q<!y   |      [45]: "2013-03-10T06:00:25Z" (1362895225) transition_time 0x405-0x40c.7 (8)
0x400|                                       00 00 00|             ...|      [46]: "2013-11-03T05:00:25Z" (1383454825) transition_time 0x40d-0x414.7 (8)
0x410|00 52 75 d8 69                                 |.Ru.i           |
0x410|               00 00 00 00 53 1c 03 79         |     ....S..y   |      [47]: "2014-03-09T06:00:25Z" (1394344825) transition_time 0x415-0x41c.7 (8)
0x410|                                       00 00 00|             ...|      [48]: "2014-11-02T05:00:25Z" (1414904425) transition_time 0x41d-0x424.7 (8)
0x420|00 54 55 ba 69                                 |.TU.i           |
0x420|               00 00 00 00 54 fb e5 79         |     ....T..y   |      [49]: "2015-03-08T06:00:25Z" (1425794425) transition_time 0x425-0x42c.7 (8)
0x420|                                       00 00 00|             ...|      [50]: "2015-11-01T05:00:26Z" (1446354026) transition_time 0x42d-0x434.7 (8)
0x430|00 56 35 9c 6a                                 |.V5.j           |
0x430|               00 00 00 00 56 e5 01 fa         |     ....V...   |      [51]: "2016-03-13T06:00:26Z" (1457848826) transition_time 0x435-0x43c.7 (8)
0x430|                                       00 00 00|             ...|      [52]: "2016-11-06T05:00:26Z" (1478408426) transition_time 0x43d-0x444.7 (8)
0x440|00 58 1e b8 ea                                 |.X...           |
0x440|               00 00 00 00 58 c4 e3 fb         |     ....X...   |      [53]: "2017-03-12T06:00:27Z" (1489298427) transition_time 0x445-0x44c.7 (8)
0x440|                                       00 00 00|             ...|      [54]: "2017-11-05T05:00:27Z" (1509858027) transition_time 0x44d-0x454.7 (8)
0x450|00 59 fe 9a eb                                 |.Y...           |
0x450|               00 00 00 00 5a a4 c5 fb         |     ....Z...   |      [55]: "2018-03-11T06:00:27Z" (1520748027) transition_time 0x455-0x45c.7 (8)
0x450|                                       00 00 00|             ...|      [56]: "2018-11-04T05:00:27Z" (1541307627) transition_time 0x45d-0x464.7 (8)
0x460|00 5b de 7c eb                                 |.[.|.           |
0x460|               00 00 00 00 5c 84 a7 fb         |     ....\...   |      [57]: "2019-03-10T06:00:27Z" (1552197627) transition_time 0x465-0x46c.7 (8)
0x460|                                       00 00 00|             ...|      [58]: "2019-11-03T05:00:27Z" (1572757227) transition_time 0x46d-0x474.7 (8)
0x470|00 5d be 5e eb                                 |.].^.           |
0x470|               00 00 00 00 5e 64 89 fb         |     ....^d..   |      [59]: "2020-03-08T06:00:27Z" (1583647227) transition_time 0x475-0x47c.7 (8)
0x470|                                       00 00 00|             ...|      [60]: "2020-11-01T05:00:27Z" (1604206827) transition_time 0x47d-0x484.7 (8)
0x480|00 5f 9e 40 eb                                 |._.@.           |
0x480|               00 00 00 00 60 4d a6 7b         |     ....`M.{   |      [61]: "2021-03-14T06:00:27Z" (1615701627) transition_time 0x485-0x48c.7 (8)
0x480|                                       00 00 00|             ...|      [62]: "2021-11-07T05:00:27Z" (1636261227) transition_time 0x48d-0x494.7 (8)
0x490|00 61 87 5d 6b                                 |.a.]k           |
0x490|               00 00 00 00 62 2d 88 7b         |     ....b-.{   |      [63]: "2022-03-13T06:00:27Z" (1647151227) transition_time 0x495-0x49c.7 (8)
0x490|                                       00 00 00|             ...|      [64]: "2022-11-06T05:00:27Z" (1667710827) transition_time 0x49d-0x4a4.7 (8)
0x4a0|00 63 67 3f 6b                                 |.cg?k           |
0x4a0|               00 00 00 00 64 0d 6a 7b         |     ....d.j{   |      [65]: "2023-03-12T06:00:27Z" (1678600827) transition_time 0x4a5-0x4ac.7 (8)
0x4a0|                                       00 00 00|             ...|      [66]: "2023-06-28T00:00:27Z" (1687910427) transition_time 0x4ad-0x4b4.7 (8)
0x4b0|00 64 9b 78 1b                                 |.d.x.           |
     |                                               |                |    transition_types[0:67]: 0x4b5-0x4f7.7 (67)
0x4b0|               02                              |     .          |      [0]: 2 transition_type 0x4b5-0x4b5.7 (1)
0x4b0|                  01                           |      .         |      [1]: 1 transition_type 0x4b6-0x4b6.7 (1)
0x4b0|                     02                        |       .        |      [2]: 2 transition_type 0x4b7-0x4b7.7 (1)
0x4b0|                        01                     |        .       |      [3]: 1 transition_type 0x4b8-0x4b8.7 (1)
0x4b0|                           02                  |         .      |      [4]: 2 transition_type 0x4b9-0x4b9.7 (1)
0x4b0|                              01               |          .     |      [5]: 1 transition_type 0x4ba-0x4ba.7 (1)
0x4b0|                                 02            |           .    |      [6]: 2 transition_type 0x4bb-0x4bb.7 (1)
0x4b0|                                    01         |            .   |      [7]: 1 transition_type 0x4bc-0x4bc.7 (1)
0x4b0|                                       02      |             .  |      [8]: 2 transition_type 0x4bd-0x4bd.7 (1)
0x4b0|                                          01   |              . |      [9]: 1 transition_type 0x4be-0x4be.7 (1)
0x4b0|                                             02|               .|      [10]: 2 transition_type 0x4bf-0x4bf.7 (1)
0x4c0|01                                             |.               |      [11]: 1 transition_type 0x4c0-0x4c0.7 (1)
0x4c0|   02                                          | .              |      [12]: 2 transition_type 0x4c1-0x4c1.7 (1)
0x4c0|      01                                       |  .             |      [13]: 1 transition_type 0x4c2-0x4c2.7 (1)
0x4c0|         02                                    |   .            |      [14]: 2 transition_type 0x4c3-0x4c3.7 (1)
0x4c0|            01                                 |    .           |      [15]: 1 transition_type 0x4c4-0x4c4.7 (1)
0x4c0|               02                              |     .          |      [16]: 2 transition_type 0x4c5-0x4c5.7 (1)
0x4c0|                  01                           |      .         |      [17]: 1 transition_type 0x4c6-0x4c6.7 (1)
0x4c0|                     02                        |       .        |      [18]: 2 transition_type 0x4c7-0x4c7.7 (1)
0x4c0|                        01                     |        .       |      [19]: 1 transition_type 0x4c8-0x4c8.7 (1)
0x4c0|                           02                  |         .      |      [20]: 2 transition_type 0x4c9-0x4c9.7 (1)
0x4c0|                              01               |          .     |      [21]: 1 transition_type 0x4ca-0x4ca.7 (1)
0x4c0|                                 02            |           .    |      [22]: 2 transition_type 0x4cb-0x4cb.7 (1)
0x4c0|                                    01         |            .   |      [23]: 1 transition_type 0x4cc-0x4cc.7 (1)
0x4c0|                                       02      |             .  |      [24]: 2 transition_type 0x4cd-0x4cd.7 (1)
0x4c0|                                          01   |              . |      [25]: 1 transition_type 0x4ce-0x4ce.7 (1)
0x4c0|                                             02|               .|      [26]: 2 transition_type 0x4cf-0x4cf.7 (1)
0x4d0|01                                             |.               |      [27]: 1 transition_type 0x4d0-0x4d0.7 (1)
0x4d0|   02                                          | .              |      [28]: 2 transition_type 0x4d1-0x4d1.7 (1)
0x4d0|      01                                       |  .             |      [29]: 1 transition_type 0x4d2-0x4d2.7 (1)
0x4d0|         02                                    |   .            |      [30]: 2 transition_type 0x4d3-0x4d3.7 (1)
0x4d0|            01                                 |    .           |      [31]: 1 transition_type 0x4d4-0x4d4.7 (1)
0x4d0|               02                              |     .          |      [32]: 2 transition_type 0x4d5-0x4d5.7 (1)
0x4d0|                  01                           |      .         |      [33]: 1 transition_type 0x4d6-0x4d6.7 (1)
0x4d0|                     02                        |       .        |      [34]: 2 transition_type 0x4d7-0x4d7.7 (1)
0x4d0|                        01                     |        .       |      [35]: 1 transition_type 0x4d8-0x4d8.7 (1)
0x4d0|                           02                  |         .      |      [36]: 2 transition_type 0x4d9-0x4d9.7 (1)
0x4d0|                              01               |          .     |      [37]: 1 transition_type 0x4da-0x4da.7 (1)
0x4d0|                                 02            |           .    |      [38]: 2 transition_type 0x4db-0x4db.7 (1)
0x4d0|                                    01         |            .   |      [39]: 1 transition_type 0x4dc-0x4dc.7 (1)
0x4d0|                                       02      |             .  |      [40]: 2 transition_type 0x4dd-0x4dd.7 (1)
0x4d0|                                          01   |              . |      [41]: 1 transition_type 0x4de-0x4de.7 (1)
0x4d0|                                             02|               .|      [42]: 2 transition_type 0x4df-0x4df.7 (1)
0x4e0|01                                             |.               |      [43]: 1 transition_type 0x4e0-0x4e0.7 (1)
0x4e0|   02                                          | .              |      [44]: 2 transition_type 0x4e1-0x4e1.7 (1)
0x4e0|      01                                       |  .             |      [45]: 1 transition_type 0x4e2-0x4e2.7 (1)
0x4e0|         02                                    |   .            |      [46]: 2 transition_type 0x4e3-0x4e3.7 (1)
0x4e0|            01                                 |    .           |      [47]: 1 transition_type 0x4e4-0x4e4.7 (1)
0x4e0|               02                              |     .          |      [48]: 2 transition_type 0x4e5-0x4e5.7 (1)
0x4e0|                  01                           |      .         |      [49]: 1 transition_type 0x4e6-0x4e6.7 (1)
0x4e0|                     02                        |       .        |      [50]: 2 transition_type 0x4e7-0x4e7.7 (1)
0x4e0|                        01                     |        .       |      [51]: 1 transition_type 0x4e8-0x4e8.7 (1)
0x4e0|                           02                  |         .      |      [52]: 2 transition_type 0x4e9-0x4e9.7 (1)
0x4e0|                              01               |          .     |      [53]: 1 transition_type 0x4ea-0x4ea.7 (1)
0x4e0|                                 02            |           .    |      [54]: 2 transition_type 0x4eb-0x4eb.7 (1)
0x4e0|                                    01         |            .   |      [55]: 1 transition_type 0x4ec-0x4ec.7 (1)
0x4e0|                                       02      |             .  |      [56]: 2 transition_type 0x4ed-0x4ed.7 (1)
0x4e0|                                          01   |              . |      [57]: 1 transition_type 0x4ee-0x4ee.7 (1)
0x4e0|                                             02|               .|      [58]: 2 transition_type 0x4ef-0x4ef.7 (1)
0x4f0|01                                             |.               |      [59]: 1 transition_type 0x4f0-0x4f0.7 (1)
0x4f0|   02                                          | .              |      [60]: 2 transition_type 0x4f1-0x4f1.7 (1)
0x4f0|      01                                       |  .             |      [61]: 1 transition_type 0x4f2-0x4f2.7 (1)
0x4f0|         02                                    |   .            |      [62]: 2 transition_type 0x4f3-0x4f3.7 (1)
0x4f0|            01                                 |    .           |      [63]: 1 transition_type 0x4f4-0x4f4.7 (1)
0x4f0|               02                              |     .          |      [64]: 2 transition_type 0x4f5-0x4f5.7 (1)
0x4f0|                  01                           |      .         |      [65]: 1 transition_type 0x4f6-0x4f6.7 (1)
0x4f0|                     01                        |       .        |      [66]: 1 transition_type 0x4f7-0x4f7.7 (1)
     |                                               |                |    local_time_type_records[0:3]: 0x4f8-0x509.7 (18)
     |                                               |                |      [0]{}: local_time_type 0x4f8-0x4fd.7 (6)
0x4f0|                        ff ff bf 84            |        ....    |        utoff: -16508 (valid) 0x4f8-0x4fb.7 (4)
0x4f0|                                    00         |            .   |        dst: 0 (valid) 0x4fc-0x4fc.7 (1)
0x4f0|                                       00      |             .  |        idx: 0 (valid) 0x4fd-0x4fd.7 (1)
     |                                               |                |      [1]{}: local_time_type 0x4fe-0x503.7 (6)
0x4f0|                                          ff ff|              ..|        utoff: -10800 (valid) 0x4fe-0x501.7 (4)
0x500|d5 d0                                          |..              |
0x500|      01                                       |  .             |        dst: 1 (valid) 0x502-0x502.7 (1)
0x500|         04                                    |   .            |        idx: 4 (valid) 0x503-0x503.7 (1)
     |                                               |                |      [2]{}: local_time_type 0x504-0x509.7 (6)
0x500|            ff ff c7 c0                        |    ....        |        utoff: -14400 (valid) 0x504-0x507.7 (4)
0x500|                        00                     |        .       |        dst: 0 (valid) 0x508-0x508.7 (1)
0x500|                           08                  |         .      |        idx: 8 (valid) 0x509-0x509.7 (1)
     |                                               |                |    time_zone_designations[0:3]: 0x50a-0x515.7 (12)
0x500|                              4c 4d 54 00      |          LMT.  |      [0]: "LMT" time_zone_designation 0x50a-0x50d.7 (4)
0x500|                                          41 44|              AD|      [1]: "ADT" time_zone_designation 0x50e-0x511.7 (4)
0x510|54 00                                          |T.              |
0x510|      41 53 54 00                              |  AST.          |      [2]: "AST" time_zone_designation 0x512-0x515.7 (4)
     |                                               |                |    leap_second_records[0:27]: 0x516-0x659.7 (324)
     |                                               |                |      [0]{}: leap_second_record 0x516-0x521.7 (12)
0x510|                  00 00 00 00 04 b2 58 00      |      ......X.  |        occur: "1972-07-01T00:00:00Z" (78796800) 0x516-0x51d.7 (8)
0x510|                                          00 00|              ..|        corr: 1 0x51e-0x521.7 (4)
0x520|00 01                                          |..              |
     |                                               |                |      [1]{}: leap_second_record 0x522-0x52d.7 (12)
0x520|      00 00 00 00 05 a4 ec 01                  |  ........      |        occur: "1973-01-01T00:00:01Z" (94694401) 0x522-0x529.7 (8)
0x520|                              00 00 00 02      |          ....  |        corr: 2 0x52a-0x52d.7 (4)
     |                                               |                |      [2]{}: leap_second_record 0x52e-0x539.7 (12)
0x520|                                          00 00|              ..|        occur: "1974-01-01T00:00:02Z" (126230402) 0x52e-0x535.7 (8)
0x530|00 00 07 86 1f 82                              |......          |
0x530|                  00 00 00 03                  |      ....      |        corr: 3 0x536-0x539.7 (4)
     |                                               |                |      [3]{}: leap_second_record 0x53a-0x545.7 (12)
0x530|                              00 00 00 00 09 67|          .....g|        occur: "1975-01-01T00:00:03Z" (157766403) 0x53a-0x541.7 (8)
0x540|53 03                                          |S.              |
0x540|      00 00 00 04                              |  ....          |        corr: 4 0x542-0x545.7 (4)
     |                                               |                |      [4]{}: leap_second_record 0x546-0x551.7 (12)
0x540|                  00 00 00 00 0b 48 86 84      |      .....H..  |        occur: "1976-01-01T00:00:04Z" (189302404) 0x546-0x54d.7 (8)
0x540|                                          00 00|              ..|        corr: 5 0x54e-0x551.7 (4)
0x550|00 05                                          |..              |
     |                                               |                |      [5]{}: leap_second_record 0x552-0x55d.7 (12)
0x550|      00 00 00 00 0d 2b 0b 85                  |  .....+..      |        occur: "1977-01-01T00:00:05Z" (220924805) 0x552-0x559.7 (8)
0x550|                              00 00 00 06      |          ....  |        corr: 6 0x55a-0x55d.7 (4)
     |                                               |                |      [6]{}: leap_second_record 0x55e-0x569.7 (12)
0x550|                                          00 00|              ..|        occur: "1978-01-01T00:00:06Z" (252460806) 0x55e-0x565.7 (8)
0x560|00 00 0f 0c 3f 06                              |....?.          |
0x560|                  00 00 00 07                  |      ....      |        corr: 7 0x566-0x569.7 (4)
     |                                               |                |      [7]{}: leap_second_record 0x56a-0x575.7 (12)
0x560|                              00 00 00 00 10 ed|          ......|        occur: "1979-01-01T00:00:07Z" (283996807) 0x56a-0x571.7 (8)
0x570|72 87                                          |r.              |
0x570|      00 00 00 08                              |  ....          |        corr: 8 0x572-0x575.7 (4)
     |                                               |                |      [8]{}: leap_second_record 0x576-0x581.7 (12)
0x570|                  00 00 00 00 12 ce a6 08      |      ........  |        occur: "1980-01-01T00:00:08Z" (315532808) 0x576-0x57d.7 (8)
0x570|                                          00 00|              ..|        corr: 9 0x57e-0x581.7 (4)
0x580|00 09                                          |..              |
     |                                               |                |      [9]{}: leap_second_record 0x582-0x58d.7 (12)
0x580|      00 00 00 00 15 9f ca 89                  |  ........      |        occur: "1981-07-01T00:00:09Z" (362793609) 0x582-0x589.7 (8)
0x580|                              00 00 00 0a      |          ....  |        corr: 10 0x58a-0x58d.7 (4)
     |                                               |                |      [10]{}: leap_second_record 0x58e-0x599.7 (12)
0x580|                                          00 00|              ..|        occur: "1982-07-01T00:00:10Z" (394329610) 0x58e-0x595.7 (8)
0x590|00 00 17 80 fe 0a                              |......          |
0x590|                  00 00 00 0b                  |      ....      |        corr: 11 0x596-0x599.7 (4)
     |                                               |                |      [11]{}: leap_second_record 0x59a-0x5a5.7 (12)
0x590|                              00 00 00 00 19 62|          .....b|        occur: "1983-07-01T00:00:11Z" (425865611) 0x59a-0x5a1.7 (8)
0x5a0|31 8b                                          |1.              |
0x5a0|      00 00 00 0c                              |  ....          |        corr: 12 0x5a2-0x5a5.7 (4)
     |                                               |                |      [12]{}: leap_second_record 0x5a6-0x5b1.7 (12)
0x5a0|                  00 00 00 00 1d 25 ea 0c      |      .....%..  |        occur: "1985-07-01T00:00:12Z" (489024012) 0x5a6-0x5ad.7 (8)
0x5a0|                                          00 00|              ..|        corr: 13 0x5ae-0x5b1.7 (4)
0x5b0|00 0d                                          |..              |
     |                                               |                |      [13]{}: leap_second_record 0x5b2-0x5bd.7 (12)
0x5b0|      00 00 00 00 21 da e5 0d                  |  ....!...      |        occur: "1988-01-01T00:00:13Z" (567993613) 0x5b2-0x5b9.7 (8)
0x5b0|                              00 00 00 0e      |          ....  |        corr: 14 0x5ba-0x5bd.7 (4)
     |                                               |                |      [14]{}: leap_second_record 0x5be-0x5c9.7 (12)
0x5b0|                                          00 00|              ..|        occur: "1990-01-01T00:00:14Z" (631152014) 0x5be-0x5c5.7 (8)
0x5c0|00 00 25 9e 9d 8e                              |..%...          |
0x5c0|                  00 00 00 0f                  |      ....      |        corr: 15 0x5c6-0x5c9.7 (4)
     |                                               |                |      [15]{}: leap_second_record 0x5ca-0x5d5.7 (12)
0x5c0|                              00 00 00 00 27 7f|          ....'.|        occur: "1991-01-01T00:00:15Z" (662688015) 0x5ca-0x5d1.7 (8)
0x5d0|d1 0f                                          |..              |
0x5d0|      00 00 00 10                              |  ....          |        corr: 16 0x5d2-0x5d5.7 (4)
     |                                               |                |      [16]{}: leap_second_record 0x5d6-0x5e1.7 (12)
0x5d0|                  00 00 00 00 2a 50 f5 90      |      ....*P..  |        occur: "1992-07-01T00:00:16Z" (709948816) 0x5d6-0x5dd.7 (8)
0x5d0|                                          00 00|              ..|        corr: 17 0x5de-0x5e1.7 (4)
0x5e0|00 11                                          |..              |
     |                                               |                |      [17]{}: leap_second_record 0x5e2-0x5ed.7 (12)
0x5e0|      00 00 00 00 2c 32 29 11                  |  ....,2).      |        occur: "1993-07-01T00:00:17Z" (741484817) 0x5e2-0x5e9.7 (8)
0x5e0|                              00 00 00 12      |          ....  |        corr: 18 0x5ea-0x5ed.7 (4)
     |                                               |                |      [18]{}: leap_second_record 0x5ee-0x5f9.7 (12)
0x5e0|                                          00 00|              ..|        occur: "1994-07-01T00:00:18Z" (773020818) 0x5ee-0x5f5.7 (8)
0x5f0|00 00 2e 13 5c 92                              |....\.          |
0x5f0|                  00 00 00 13                  |      ....      |        corr: 19 0x5f6-0x5f9.7 (4)
     |                                               |                |      [19]{}: leap_second_record 0x5fa-0x605.7 (12)
0x5f0|                              00 00 00 00 30 e7|          ....0.|        occur: "1996-01-01T00:00:19Z" (820454419) 0x5fa-0x601.7 (8)
0x600|24 13                                          |$.              |
0x600|      00 00 00 14                              |  ....          |        corr: 20 0x602-0x605.7 (4)
     |                                               |                |      [20]{}: leap_second_record 0x606-0x611.7 (12)
0x600|                  00 00 00 00 33 b8 48 94      |      ....3.H.  |        occur: "1997-07-01T00:00:20Z" (867715220) 0x606-0x60d.7 (8)
0x600|                                          00 00|              ..|        corr: 21 0x60e-0x611.7 (4)
0x610|00 15                                          |..              |
     |                                               |                |      [21]{}: leap_second_record 0x612-0x61d.7 (12)
0x610|      00 00 00 00 36 8c 10 15                  |  ....6...      |        occur: "1999-01-01T00:00:21Z" (915148821) 0x612-0x619.7 (8)
0x610|                              00 00 00 16      |          ....  |        corr: 22 0x61a-0x61d.7 (4)
     |                                               |                |      [22]{}: leap_second_record 0x61e-0x629.7 (12)
0x610|                                          00 00|              ..|        occur: "2006-01-01T00:00:22Z" (1136073622) 0x61e-0x625.7 (8)
0x620|00 00 43 b7 1b 96                              |..C...          |
0x620|                  00 00 00 17                  |      ....      |        corr: 23 0x626-0x629.7 (4)
     |                                               |                |      [23]{}: leap_second_record 0x62a-0x635.7 (12)
0x620|                              00 00 00 00 49 5c|          ....I\|        occur: "2009-01-01T00:00:23Z" (1230768023) 0x62a-0x631.7 (8)
0x630|07 97                                          |..              |
0x630|      00 00 00 18                              |  ....          |        corr: 24 0x632-0x635.7 (4)
     |                                               |                |      [24]{}: leap_second_record 0x636-0x641.7 (12)
0x630|                  00 00 00 00 4f ef 93 18      |      ....O...  |        occur: "2012-07-01T00:00:24Z" (1341100824) 0x636-0x63d.7 (8)
0x630|                                          00 00|              ..|        corr: 25 0x63e-0x641.7 (4)
0x640|00 19                                          |..              |
     |                                               |                |      [25]{}: leap_second_record 0x642-0x64d.7 (12)
0x640|      00 00 00 00 55 93 2d 99                  |  ....U.-.      |        occur: "2015-07-01T00:00:25Z" (1435708825) 0x642-0x649.7 (8)
0x640|                              00 00 00 1a      |          ....  |        corr: 26 0x64a-0x64d.7 (4)
     |                                               |                |      [26]{}: leap_second_record 0x64e-0x659.7 (12)
0x640|                                          00 00|              ..|        occur: "2017-01-01T00:00:26Z" (1483228826) 0x64e-0x655.7 (8)
0x650|00 00 58 68 46 9a                              |..XhF.          |
0x650|                  00 00 00 1b                  |      ....      |        corr: 27 0x656-0x659.7 (4)
     |                                               |                |    standard_wall_indicators[0:0]: 0x65a-NA (0)
     |                                               |                |    ut_local_indicators[0:0]: 0x65a-NA (0)
     |                                               |                |  footer{}: 0x65a-0x65b.7 (2)
0x650|                              0a               |          .     |    nl1: 10 (valid) 0x65a-0x65a.7 (1)
     |                                               |                |    tz_string: "" 0x65b-NA (0)
0x650|                                 0a|           |           .|   |    nl2: 10 (valid) 0x65b-0x65b.7 (1)
