$ fq -d tzif dv Tijuana
     |00 01 02 03 04 05 06 07 08 09 0a 0b 0c 0d 0e 0f|0123456789abcdef|.{}: Tijuana (tzif) 0x0-0x9c4 (2500)
     |                                               |                |  v1header{}: 0x0-0x2c (44)
0x000|54 5a 69 66                                    |TZif            |    magic: 0x545a6966 (valid) 0x0-0x4 (4)
0x000|            32                                 |    2           |    ver: "2" (0x32) (valid) 0x4-0x5 (1)
0x000|               00 00 00 00 00 00 00 00 00 00 00|     ...........|    reserved: raw bits 0x5-0x14 (15)
0x010|00 00 00 00                                    |....            |
0x010|            00 00 00 08                        |    ....        |    isutcnt: 8 0x14-0x18 (4)
0x010|                        00 00 00 08            |        ....    |    isstdcnt: 8 0x18-0x1c (4)
0x010|                                    00 00 00 1b|            ....|    leapcnt: 27 0x1c-0x20 (4)
0x020|00 00 00 79                                    |...y            |    timecnt: 121 0x20-0x24 (4)
0x020|            00 00 00 08                        |    ....        |    typecnt: 8 0x24-0x28 (4)
0x020|                        00 00 00 18            |        ....    |    charcnt: 24 0x28-0x2c (4)
     |                                               |                |  v1datablock{}: 0x2c-0x3b9 (909)
     |                                               |                |    transition_times[0:121]: 0x2c-0x210 (484)
0x020|                                    a5 b6 e8 70|            ...p|      [0]: "1922-01-01T07:00:00Z" (-1514739600) transition_time 0x2c-0x30 (4)
0x030|a9 79 4f 70                                    |.yOp            |      [1]: "1924-01-01T07:00:00Z" (-1451667600) transition_time 0x30-0x34 (4)
0x030|            af f2 7c f0                        |    ..|.        |      [2]: "1927-06-11T07:00:00Z" (-1343062800) transition_time 0x34-0x38 (4)
0x030|                        b6 66 64 70            |        .fdp    |      [3]: "1930-11-15T07:00:00Z" (-1234803600) transition_time 0x38-0x3c (4)
0x030|                                    b7 1b 10 00|            ....|      [4]: "1931-04-01T08:00:00Z" (-1222963200) transition_time 0x3c-0x40 (4)
0x040|b8 0a f2 f0                                    |....            |      [5]: "1931-09-30T07:00:00Z" (-1207242000) transition_time 0x40-0x44 (4)
0x040|            cb ea 8d 80                        |    ....        |      [6]: "1942-04-24T08:00:00Z" (-873820800) transition_time 0x44-0x48 (4)
0x040|                        d2 23 f4 70            |        .#.p    |      [7]: "1945-08-14T23:00:00Z" (-769395600) transition_time 0x48-0x4c (4)
0x040|                                    d2 99 ba 70|            ...p|      [8]: "1945-11-12T07:00:00Z" (-761677200) transition_time 0x4c-0x50 (4)
0x050|d7 1b 59 00                                    |..Y.            |      [9]: "1948-04-05T08:00:00Z" (-686073600) transition_time 0x50-0x54 (4)
0x050|            d8 91 b4 f0                        |    ....        |      [10]: "1949-01-14T07:00:00Z" (-661539600) transition_time 0x54-0x58 (4)
0x050|                        e2 7e 4b 90            |        .~K.    |      [11]: "1954-04-25T09:00:00Z" (-495039600) transition_time 0x58-0x5c (4)
0x050|                                    e3 49 52 90|            .IR.|      [12]: "1954-09-26T09:00:00Z" (-481734000) transition_time 0x5c-0x60 (4)
0x060|e4 5e 2d 90                                    |.^-.            |      [13]: "1955-04-24T09:00:00Z" (-463590000) transition_time 0x60-0x64 (4)
0x060|            e5 29 34 90                        |    .)4.        |      [14]: "1955-09-25T09:00:00Z" (-450284400) transition_time 0x64-0x68 (4)
0x060|                        e6 47 4a 10            |        .GJ.    |      [15]: "1956-04-29T09:00:00Z" (-431535600) transition_time 0x68-0x6c (4)
0x060|                                    e7 12 51 10|            ..Q.|      [16]: "1956-09-30T09:00:00Z" (-418230000) transition_time 0x6c-0x70 (4)
0x070|e8 27 2c 10                                    |.',.            |      [17]: "1957-04-28T09:00:00Z" (-400086000) transition_time 0x70-0x74 (4)
0x070|            e8 f2 33 10                        |    ..3.        |      [18]: "1957-09-29T09:00:00Z" (-386780400) transition_time 0x74-0x78 (4)
0x070|                        ea 07 0e 10            |        ....    |      [19]: "1958-04-27T09:00:00Z" (-368636400) transition_time 0x78-0x7c (4)
0x070|                                    ea d2 15 10|            ....|      [20]: "1958-09-28T09:00:00Z" (-355330800) transition_time 0x7c-0x80 (4)
0x080|eb e6 f0 10                                    |....            |      [21]: "1959-04-26T09:00:00Z" (-337186800) transition_time 0x80-0x84 (4)
0x080|            ec b1 f7 10                        |    ....        |      [22]: "1959-09-27T09:00:00Z" (-323881200) transition_time 0x84-0x88 (4)
0x080|                        ed c6 d2 10            |        ....    |      [23]: "1960-04-24T09:00:00Z" (-305737200) transition_time 0x88-0x8c (4)
0x080|                                    ee 91 d9 10|            ....|      [24]: "1960-09-25T09:00:00Z" (-292431600) transition_time 0x8c-0x90 (4)
0x090|0b e0 af a5                                    |....            |      [25]: "1976-04-25T10:00:05Z" (199274405) transition_time 0x90-0x94 (4)
0x090|            0c d9 cd 15                        |    ....        |      [26]: "1976-10-31T09:00:05Z" (215600405) transition_time 0x94-0x98 (4)
0x090|                        0d c0 91 a6            |        ....    |      [27]: "1977-04-24T10:00:06Z" (230724006) transition_time 0x98-0x9c (4)
0x090|                                    0e b9 af 16|            ....|      [28]: "1977-10-30T09:00:06Z" (247050006) transition_time 0x9c-0xa0 (4)
0x0a0|0f a9 ae 27                                    |...'            |      [29]: "1978-04-30T10:00:07Z" (262778407) transition_time 0xa0-0xa4 (4)
0x0a0|            10 99 91 17                        |    ....        |      [30]: "1978-10-29T09:00:07Z" (278499607) transition_time 0xa4-0xa8 (4)
0x0a0|                        11 89 90 28            |        ...(    |      [31]: "1979-04-29T10:00:08Z" (294228008) transition_time 0xa8-0xac (4)
0x0a0|                                    12 79 73 18|            .ys.|      [32]: "1979-10-28T09:00:08Z" (309949208) transition_time 0xac-0xb0 (4)
0x0b0|13 69 72 29                                    |.ir)            |      [33]: "1980-04-27T10:00:09Z" (325677609) transition_time 0xb0-0xb4 (4)
0x0b0|            14 59 55 19                        |    .YU.        |      [34]: "1980-10-26T09:00:09Z" (341398809) transition_time 0xb4-0xb8 (4)
0x0b0|                        15 49 54 29            |        .IT)    |      [35]: "1981-04-26T10:00:09Z" (357127209) transition_time 0xb8-0xbc (4)
0x0b0|                                    16 39 37 1a|            .97.|      [36]: "1981-10-25T09:00:10Z" (372848410) transition_time 0xbc-0xc0 (4)
0x0c0|17 29 36 2a                                    |.)6*            |      [37]: "1982-04-25T10:00:10Z" (388576810) transition_time 0xc0-0xc4 (4)
0x0c0|            18 22 53 9b                        |    ."S.        |      [38]: "1982-10-31T09:00:11Z" (404902811) transition_time 0xc4-0xc8 (4)
0x0c0|                        19 09 18 2b            |        ...+    |      [39]: "1983-04-24T10:00:11Z" (420026411) transition_time 0xc8-0xcc (4)
0x0c0|                                    1a 02 35 9c|            ..5.|      [40]: "1983-10-30T09:00:12Z" (436352412) transition_time 0xcc-0xd0 (4)
0x0d0|1a f2 34 ac                                    |..4.            |      [41]: "1984-04-29T10:00:12Z" (452080812) transition_time 0xd0-0xd4 (4)
0x0d0|            1b e2 17 9c                        |    ....        |      [42]: "1984-10-28T09:00:12Z" (467802012) transition_time 0xd4-0xd8 (4)
0x0d0|                        1c d2 16 ac            |        ....    |      [43]: "1985-04-28T10:00:12Z" (483530412) transition_time 0xd8-0xdc (4)
0x0d0|                                    1d c1 f9 9d|            ....|      [44]: "1985-10-27T09:00:13Z" (499251613) transition_time 0xdc-0xe0 (4)
0x0e0|1e b1 f8 ad                                    |....            |      [45]: "1986-04-27T10:00:13Z" (514980013) transition_time 0xe0-0xe4 (4)
0x0e0|            1f a1 db 9d                        |    ....        |      [46]: "1986-10-26T09:00:13Z" (530701213) transition_time 0xe4-0xe8 (4)
0x0e0|                        20 76 2b 2d            |         v+-    |      [47]: "1987-04-05T10:00:13Z" (544615213) transition_time 0xe8-0xec (4)
0x0e0|                                    21 81 bd 9d|            !...|      [48]: "1987-10-25T09:00:13Z" (562150813) transition_time 0xec-0xf0 (4)
0x0f0|22 56 0d 2e                                    |"V..            |      [49]: "1988-04-03T10:00:14Z" (576064814) transition_time 0xf0-0xf4 (4)
0x0f0|            23 6a da 1e                        |    #j..        |      [50]: "1988-10-30T09:00:14Z" (594205214) transition_time 0xf4-0xf8 (4)
0x0f0|                        24 35 ef 2e            |        $5..    |      [51]: "1989-04-02T10:00:14Z" (607514414) transition_time 0xf8-0xfc (4)
0x0f0|                                    25 4a bc 1e|            %J..|      [52]: "1989-10-29T09:00:14Z" (625654814) transition_time 0xfc-0x100 (4)
0x100|26 15 d1 2f                                    |&../            |      [53]: "1990-04-01T10:00:15Z" (638964015) transition_time 0x100-0x104 (4)
0x100|            27 2a 9e 1f                        |    '*..        |      [54]: "1990-10-28T09:00:15Z" (657104415) transition_time 0x104-0x108 (4)
0x100|                        27 fe ed b0            |        '...    |      [55]: "1991-04-07T10:00:16Z" (671018416) transition_time 0x108-0x10c (4)
0x100|                                    29 0a 80 20|            ).. |      [56]: "1991-10-27T09:00:16Z" (688554016) transition_time 0x10c-0x110 (4)
0x110|29 de cf b0                                    |)...            |      [57]: "1992-04-05T10:00:16Z" (702468016) transition_time 0x110-0x114 (4)
0x110|            2a ea 62 21                        |    *.b!        |      [58]: "1992-10-25T09:00:17Z" (720003617) transition_time 0x114-0x118 (4)
0x110|                        2b be b1 b1            |        +...    |      [59]: "1993-04-04T10:00:17Z" (733917617) transition_time 0x118-0x11c (4)
0x110|                                    2c d3 7e a2|            ,.~.|      [60]: "1993-10-31T09:00:18Z" (752058018) transition_time 0x11c-0x120 (4)
0x120|2d 9e 93 b2                                    |-...            |      [61]: "1994-04-03T10:00:18Z" (765367218) transition_time 0x120-0x124 (4)
0x120|            2e b3 60 a3                        |    ..`.        |      [62]: "1994-10-30T09:00:19Z" (783507619) transition_time 0x124-0x128 (4)
0x120|                        2f 7e 75 b3            |        /~u.    |      [63]: "1995-04-02T10:00:19Z" (796816819) transition_time 0x128-0x12c (4)
0x120|                                    30 93 42 a3|            0.B.|      [64]: "1995-10-29T09:00:19Z" (814957219) transition_time 0x12c-0x130 (4)
0x130|31 67 92 34                                    |1g.4            |      [65]: "1996-04-07T10:00:20Z" (828871220) transition_time 0x130-0x134 (4)
0x130|            32 73 24 a4                        |    2s$.        |      [66]: "1996-10-27T09:00:20Z" (846406820) transition_time 0x134-0x138 (4)
0x130|                        33 47 74 34            |        3Gt4    |      [67]: "1997-04-06T10:00:20Z" (860320820) transition_time 0x138-0x13c (4)
0x130|                                    34 53 06 a5|            4S..|      [68]: "1997-10-26T09:00:21Z" (877856421) transition_time 0x13c-0x140 (4)
0x140|35 27 56 35                                    |5'V5            |      [69]: "1998-04-05T10:00:21Z" (891770421) transition_time 0x140-0x144 (4)
0x140|            36 32 e8 a5                        |    62..        |      [70]: "1998-10-25T09:00:21Z" (909306021) transition_time 0x144-0x148 (4)
0x140|                        37 07 38 36            |        7.86    |      [71]: "1999-04-04T10:00:22Z" (923220022) transition_time 0x148-0x14c (4)
0x140|                                    38 1c 05 26|            8..&|      [72]: "1999-10-31T09:00:22Z" (941360422) transition_time 0x14c-0x150 (4)
0x150|38 e7 1a 36                                    |8..6            |      [73]: "2000-04-02T10:00:22Z" (954669622) transition_time 0x150-0x154 (4)
0x150|            39 fb e7 26                        |    9..&        |      [74]: "2000-10-29T09:00:22Z" (972810022) transition_time 0x154-0x158 (4)
0x150|                        3a c6 fc 36            |        :..6    |      [75]: "2001-04-01T10:00:22Z" (986119222) transition_time 0x158-0x15c (4)
0x150|                                    3b db c9 26|            ;..&|      [76]: "2001-10-28T09:00:22Z" (1004259622) transition_time 0x15c-0x160 (4)
0x160|3c b0 18 b6                                    |<...            |      [77]: "2002-04-07T10:00:22Z" (1018173622) transition_time 0x160-0x164 (4)
0x160|            3d bb ab 26                        |    =..&        |      [78]: "2002-10-27T09:00:22Z" (1035709222) transition_time 0x164-0x168 (4)
0x160|                        3e 8f fa b6            |        >...    |      [79]: "2003-04-06T10:00:22Z" (1049623222) transition_time 0x168-0x16c (4)
0x160|                                    3f 9b 8d 26|            ?..&|      [80]: "2003-10-26T09:00:22Z" (1067158822) transition_time 0x16c-0x170 (4)
0x170|40 6f dc b6                                    |@o..            |      [81]: "2004-04-04T10:00:22Z" (1081072822) transition_time 0x170-0x174 (4)
0x170|            41 84 a9 a6                        |    A...        |      [82]: "2004-10-31T09:00:22Z" (1099213222) transition_time 0x174-0x178 (4)
0x170|                        42 4f be b6            |        BO..    |      [83]: "2005-04-03T10:00:22Z" (1112522422) transition_time 0x178-0x17c (4)
0x170|                                    43 64 8b a6|            Cd..|      [84]: "2005-10-30T09:00:22Z" (1130662822) transition_time 0x17c-0x180 (4)
0x180|44 2f a0 b7                                    |D/..            |      [85]: "2006-04-02T10:00:23Z" (1143972023) transition_time 0x180-0x184 (4)
0x180|            45 44 6d a7                        |    EDm.        |      [86]: "2006-10-29T09:00:23Z" (1162112423) transition_time 0x184-0x188 (4)
0x180|                        46 0f 82 b7            |        F...    |      [87]: "2007-04-01T10:00:23Z" (1175421623) transition_time 0x188-0x18c (4)
0x180|                                    47 24 4f a7|            G$O.|      [88]: "2007-10-28T09:00:23Z" (1193562023) transition_time 0x18c-0x190 (4)
0x190|47 f8 9f 37                                    |G..7            |      [89]: "2008-04-06T10:00:23Z" (1207476023) transition_time 0x190-0x194 (4)
0x190|            49 04 31 a7                        |    I.1.        |      [90]: "2008-10-26T09:00:23Z" (1225011623) transition_time 0x194-0x198 (4)
0x190|                        49 d8 81 38            |        I..8    |      [91]: "2009-04-05T10:00:24Z" (1238925624) transition_time 0x198-0x19c (4)
0x190|                                    4a e4 13 a8|            J...|      [92]: "2009-10-25T09:00:24Z" (1256461224) transition_time 0x19c-0x1a0 (4)
0x1a0|4b 9c b3 b8                                    |K...            |      [93]: "2010-03-14T10:00:24Z" (1268560824) transition_time 0x1a0-0x1a4 (4)
0x1a0|            4c d6 6a a8                        |    L.j.        |      [94]: "2010-11-07T09:00:24Z" (1289120424) transition_time 0x1a4-0x1a8 (4)
0x1a0|                        4d 7c 95 b8            |        M|..    |      [95]: "2011-03-13T10:00:24Z" (1300010424) transition_time 0x1a8-0x1ac (4)
0x1a0|                                    4e b6 4c a8|            N.L.|      [96]: "2011-11-06T09:00:24Z" (1320570024) transition_time 0x1ac-0x1b0 (4)
0x1b0|4f 5c 77 b8                                    |O\w.            |      [97]: "2012-03-11T10:00:24Z" (1331460024) transition_time 0x1b0-0x1b4 (4)
0x1b0|            50 96 2e a9                        |    P...        |      [98]: "2012-11-04T09:00:25Z" (1352019625) transition_time 0x1b4-0x1b8 (4)
0x1b0|                        51 3c 59 b9            |        Q<Y.    |      [99]: "2013-03-10T10:00:25Z" (1362909625) transition_time 0x1b8-0x1bc (4)
0x1b0|                                    52 76 10 a9|            Rv..|      [100]: "2013-11-03T09:00:25Z" (1383469225) transition_time 0x1bc-0x1c0 (4)
0x1c0|53 1c 3b b9                                    |S.;.            |      [101]: "2014-03-09T10:00:25Z" (1394359225) transition_time 0x1c0-0x1c4 (4)
0x1c0|            54 55 f2 a9                        |    TU..        |      [102]: "2014-11-02T09:00:25Z" (1414918825) transition_time 0x1c4-0x1c8 (4)
0x1c0|                        54 fc 1d b9            |        T...    |      [103]: "2015-03-08T10:00:25Z" (1425808825) transition_time 0x1c8-0x1cc (4)
0x1c0|                                    56 35 d4 aa|            V5..|      [104]: "2015-11-01T09:00:26Z" (1446368426) transition_time 0x1cc-0x1d0 (4)
0x1d0|56 e5 3a 3a                                    |V.::            |      [105]: "2016-03-13T10:00:26Z" (1457863226) transition_time 0x1d0-0x1d4 (4)
0x1d0|            58 1e f1 2a                        |    X..*        |      [106]: "2016-11-06T09:00:26Z" (1478422826) transition_time 0x1d4-0x1d8 (4)
0x1d0|                        58 c5 1c 3b            |        X..;    |      [107]: "2017-03-12T10:00:27Z" (1489312827) transition_time 0x1d8-0x1dc (4)
0x1d0|                                    59 fe d3 2b|            Y..+|      [108]: "2017-11-05T09:00:27Z" (1509872427) transition_time 0x1dc-0x1e0 (4)
0x1e0|5a a4 fe 3b                                    |Z..;            |      [109]: "2018-03-11T10:00:27Z" (1520762427) transition_time 0x1e0-0x1e4 (4)
0x1e0|            5b de b5 2b                        |    [..+        |      [110]: "2018-11-04T09:00:27Z" (1541322027) transition_time 0x1e4-0x1e8 (4)
0x1e0|                        5c 84 e0 3b            |        \..;    |      [111]: "2019-03-10T10:00:27Z" (1552212027) transition_time 0x1e8-0x1ec (4)
0x1e0|                                    5d be 97 2b|            ]..+|      [112]: "2019-11-03T09:00:27Z" (1572771627) transition_time 0x1ec-0x1f0 (4)
0x1f0|5e 64 c2 3b                                    |^d.;            |      [113]: "2020-03-08T10:00:27Z" (1583661627) transition_time 0x1f0-0x1f4 (4)
0x1f0|            5f 9e 79 2b                        |    _.y+        |      [114]: "2020-11-01T09:00:27Z" (1604221227) transition_time 0x1f4-0x1f8 (4)
0x1f0|                        60 4d de bb            |        `M..    |      [115]: "2021-03-14T10:00:27Z" (1615716027) transition_time 0x1f8-0x1fc (4)
0x1f0|                                    61 87 95 ab|            a...|      [116]: "2021-11-07T09:00:27Z" (1636275627) transition_time 0x1fc-0x200 (4)
0x200|62 2d c0 bb                                    |b-..            |      [117]: "2022-03-13T10:00:27Z" (1647165627) transition_time 0x200-0x204 (4)
0x200|            63 67 77 ab                        |    cgw.        |      [118]: "2022-11-06T09:00:27Z" (1667725227) transition_time 0x204-0x208 (4)
0x200|                        64 0d a2 bb            |        d...    |      [119]: "2023-03-12T10:00:27Z" (1678615227) transition_time 0x208-0x20c (4)
0x200|                                    64 9b 78 1b|            d.x.|      [120]: "2023-06-28T00:00:27Z" (1687910427) transition_time 0x20c-0x210 (4)
     |                                               |                |    transition_types[0:121]: 0x210-0x289 (121)
0x210|01                                             |.               |      [0]: 1 transition_type 0x210-0x211 (1)
0x210|   02                                          | .              |      [1]: 2 transition_type 0x211-0x212 (1)
0x210|      03                                       |  .             |      [2]: 3 transition_type 0x212-0x213 (1)
0x210|         02                                    |   .            |      [3]: 2 transition_type 0x213-0x214 (1)
0x210|            04                                 |    .           |      [4]: 4 transition_type 0x214-0x215 (1)
0x210|               02                              |     .          |      [5]: 2 transition_type 0x215-0x216 (1)
0x210|                  05                           |      .         |      [6]: 5 transition_type 0x216-0x217 (1)
0x210|                     06                        |       .        |      [7]: 6 transition_type 0x217-0x218 (1)
0x210|                        02                     |        .       |      [8]: 2 transition_type 0x218-0x219 (1)
0x210|                           04                  |         .      |      [9]: 4 transition_type 0x219-0x21a (1)
0x210|                              02               |          .     |      [10]: 2 transition_type 0x21a-0x21b (1)
0x210|                                 04            |           .    |      [11]: 4 transition_type 0x21b-0x21c (1)
0x210|                                    02         |            .   |      [12]: 2 transition_type 0x21c-0x21d (1)
0x210|                                       04      |             .  |      [13]: 4 transition_type 0x21d-0x21e (1)
0x210|                                          02   |              . |      [14]: 2 transition_type 0x21e-0x21f (1)
0x210|                                             04|               .|      [15]: 4 transition_type 0x21f-0x220 (1)
0x220|02                                             |.               |      [16]: 2 transition_type 0x220-0x221 (1)
0x220|   04                                          | .              |      [17]: 4 transition_type 0x221-0x222 (1)
0x220|      02                                       |  .             |      [18]: 2 transition_type 0x222-0x223 (1)
0x220|         04                                    |   .            |      [19]: 4 transition_type 0x223-0x224 (1)
0x220|            02                                 |    .           |      [20]: 2 transition_type 0x224-0x225 (1)
0x220|               04                              |     .          |      [21]: 4 transition_type 0x225-0x226 (1)
0x220|                  02                           |      .         |      [22]: 2 transition_type 0x226-0x227 (1)
0x220|                     04                        |       .        |      [23]: 4 transition_type 0x227-0x228 (1)
0x220|                        02                     |        .       |      [24]: 2 transition_type 0x228-0x229 (1)
0x220|                           04                  |         .      |      [25]: 4 transition_type 0x229-0x22a (1)
0x220|                              02               |          .     |      [26]: 2 transition_type 0x22a-0x22b (1)
0x220|                                 04            |           .    |      [27]: 4 transition_type 0x22b-0x22c (1)
0x220|                                    02         |            .   |      [28]: 2 transition_type 0x22c-0x22d (1)
0x220|                                       04      |             .  |      [29]: 4 transition_type 0x22d-0x22e (1)
0x220|                                          02   |              . |      [30]: 2 transition_type 0x22e-0x22f (1)
0x220|                                             04|               .|      [31]: 4 transition_type 0x22f-0x230 (1)
0x230|02                                             |.               |      [32]: 2 transition_type 0x230-0x231 (1)
0x230|   04                                          | .              |      [33]: 4 transition_type 0x231-0x232 (1)
0x230|      02                                       |  .             |      [34]: 2 transition_type 0x232-0x233 (1)
0x230|         04                                    |   .            |      [35]: 4 transition_type 0x233-0x234 (1)
0x230|            02                                 |    .           |      [36]: 2 transition_type 0x234-0x235 (1)
0x230|               04                              |     .          |      [37]: 4 transition_type 0x235-0x236 (1)
0x230|                  02                           |      .         |      [38]: 2 transition_type 0x236-0x237 (1)
0x230|                     04                        |       .        |      [39]: 4 transition_type 0x237-0x238 (1)
0x230|                        02                     |        .       |      [40]: 2 transition_type 0x238-0x239 (1)
0x230|                           04                  |         .      |      [41]: 4 transition_type 0x239-0x23a (1)
0x230|                              02               |          .     |      [42]: 2 transition_type 0x23a-0x23b (1)
0x230|                                 04            |           .    |      [43]: 4 transition_type 0x23b-0x23c (1)
0x230|                                    02         |            .   |      [44]: 2 transition_type 0x23c-0x23d (1)
0x230|                                       04      |             .  |      [45]: 4 transition_type 0x23d-0x23e (1)
0x230|                                          02   |              . |      [46]: 2 transition_type 0x23e-0x23f (1)
0x230|                                             04|               .|      [47]: 4 transition_type 0x23f-0x240 (1)
0x240|02                                             |.               |      [48]: 2 transition_type 0x240-0x241 (1)
0x240|   04                                          | .              |      [49]: 4 transition_type 0x241-0x242 (1)
0x240|      02                                       |  .             |      [50]: 2 transition_type 0x242-0x243 (1)
0x240|         04                                    |   .            |      [51]: 4 transition_type 0x243-0x244 (1)
0x240|            02                                 |    .           |      [52]: 2 transition_type 0x244-0x245 (1)
0x240|               04                              |     .          |      [53]: 4 transition_type 0x245-0x246 (1)
0x240|                  02                           |      .         |      [54]: 2 transition_type 0x246-0x247 (1)
0x240|                     04                        |       .        |      [55]: 4 transition_type 0x247-0x248 (1)
0x240|                        02                     |        .       |      [56]: 2 transition_type 0x248-0x249 (1)
0x240|                           04                  |         .      |      [57]: 4 transition_type 0x249-0x24a (1)
0x240|                              02               |          .     |      [58]: 2 transition_type 0x24a-0x24b (1)
0x240|                                 04            |           .    |      [59]: 4 transition_type 0x24b-0x24c (1)
0x240|                                    02         |            .   |      [60]: 2 transition_type 0x24c-0x24d (1)
0x240|                                       04      |             .  |      [61]: 4 transition_type 0x24d-0x24e (1)
0x240|                                          02   |              . |      [62]: 2 transition_type 0x24e-0x24f (1)
0x240|                                             04|               .|      [63]: 4 transition_type 0x24f-0x250 (1)
0x250|02                                             |.               |      [64]: 2 transition_type 0x250-0x251 (1)
0x250|   04                                          | .              |      [65]: 4 transition_type 0x251-0x252 (1)
0x250|      02                                       |  .             |      [66]: 2 transition_type 0x252-0x253 (1)
0x250|         04                                    |   .            |      [67]: 4 transition_type 0x253-0x254 (1)
0x250|            02                                 |    .           |      [68]: 2 transition_type 0x254-0x255 (1)
0x250|               04                              |     .          |      [69]: 4 transition_type 0x255-0x256 (1)
0x250|                  02                           |      .         |      [70]: 2 transition_type 0x256-0x257 (1)
0x250|                     04                        |       .        |      [71]: 4 transition_type 0x257-0x258 (1)
0x250|                        02                     |        .       |      [72]: 2 transition_type 0x258-0x259 (1)
0x250|                           04                  |         .      |      [73]: 4 transition_type 0x259-0x25a (1)
0x250|                              02               |          .     |      [74]: 2 transition_type 0x25a-0x25b (1)
0x250|                                 04            |           .    |      [75]: 4 transition_type 0x25b-0x25c (1)
0x250|                                    02         |            .   |      [76]: 2 transition_type 0x25c-0x25d (1)
0x250|                                       04      |             .  |      [77]: 4 transition_type 0x25d-0x25e (1)
0x250|                                          02   |              . |      [78]: 2 transition_type 0x25e-0x25f (1)
0x250|                                             04|               .|      [79]: 4 transition_type 0x25f-0x260 (1)
0x260|02                                             |.               |      [80]: 2 transition_type 0x260-0x261 (1)
0x260|   04                                          | .              |      [81]: 4 transition_type 0x261-0x262 (1)
0x260|      02                                       |  .             |      [82]: 2 transition_type 0x262-0x263 (1)
0x260|         04                                    |   .            |      [83]: 4 transition_type 0x263-0x264 (1)
0x260|            02                                 |    .           |      [84]: 2 transition_type 0x264-0x265 (1)
0x260|               04                              |     .          |      [85]: 4 transition_type 0x265-0x266 (1)
0x260|                  02                           |      .         |      [86]: 2 transition_type 0x266-0x267 (1)
0x260|                     04                        |       .        |      [87]: 4 transition_type 0x267-0x268 (1)
0x260|                        02                     |        .       |      [88]: 2 transition_type 0x268-0x269 (1)
0x260|                           04                  |         .      |      [89]: 4 transition_type 0x269-0x26a (1)
0x260|                              02               |          .     |      [90]: 2 transition_type 0x26a-0x26b (1)
0x260|                                 04            |           .    |      [91]: 4 transition_type 0x26b-0x26c (1)
0x260|                                    02         |            .   |      [92]: 2 transition_type 0x26c-0x26d (1)
0x260|                                       04      |             .  |      [93]: 4 transition_type 0x26d-0x26e (1)
0x260|                                          02   |              . |      [94]: 2 transition_type 0x26e-0x26f (1)
0x260|                                             04|               .|      [95]: 4 transition_type 0x26f-0x270 (1)
0x270|02                                             |.               |      [96]: 2 transition_type 0x270-0x271 (1)
0x270|   04                                          | .              |      [97]: 4 transition_type 0x271-0x272 (1)
0x270|      02                                       |  .             |      [98]: 2 transition_type 0x272-0x273 (1)
0x270|         04                                    |   .            |      [99]: 4 transition_type 0x273-0x274 (1)
0x270|            02                                 |    .           |      [100]: 2 transition_type 0x274-0x275 (1)
0x270|               04                              |     .          |      [101]: 4 transition_type 0x275-0x276 (1)
0x270|                  02                           |      .         |      [102]: 2 transition_type 0x276-0x277 (1)
0x270|                     04                        |       .        |      [103]: 4 transition_type 0x277-0x278 (1)
0x270|                        02                     |        .       |      [104]: 2 transition_type 0x278-0x279 (1)
0x270|                           04                  |         .      |      [105]: 4 transition_type 0x279-0x27a (1)
0x270|                              02               |          .     |      [106]: 2 transition_type 0x27a-0x27b (1)
0x270|                                 04            |           .    |      [107]: 4 transition_type 0x27b-0x27c (1)
0x270|                                    02         |            .   |      [108]: 2 transition_type 0x27c-0x27d (1)
0x270|                                       04      |             .  |      [109]: 4 transition_type 0x27d-0x27e (1)
0x270|                                          02   |              . |      [110]: 2 transition_type 0x27e-0x27f (1)
0x270|                                             04|               .|      [111]: 4 transition_type 0x27f-0x280 (1)
0x280|02                                             |.               |      [112]: 2 transition_type 0x280-0x281 (1)
0x280|   04                                          | .              |      [113]: 4 transition_type 0x281-0x282 (1)
0x280|      02                                       |  .             |      [114]: 2 transition_type 0x282-0x283 (1)
0x280|         04                                    |   .            |      [115]: 4 transition_type 0x283-0x284 (1)
0x280|            02                                 |    .           |      [116]: 2 transition_type 0x284-0x285 (1)
0x280|               04                              |     .          |      [117]: 4 transition_type 0x285-0x286 (1)
0x280|                  02                           |      .         |      [118]: 2 transition_type 0x286-0x287 (1)
0x280|                     04                        |       .        |      [119]: 4 transition_type 0x287-0x288 (1)
0x280|                        04                     |        .       |      [120]: 4 transition_type 0x288-0x289 (1)
     |                                               |                |    local_time_type_records[0:8]: 0x289-0x2b9 (48)
     |                                               |                |      [0]{}: local_time_type 0x289-0x28f (6)
0x280|                           ff ff 92 4c         |         ...L   |        utoff: -28084 (valid) 0x289-0x28d (4)
0x280|                                       00      |             .  |        dst: 0 (valid) 0x28d-0x28e (1)
0x280|                                          00   |              . |        idx: 0 (valid) 0x28e-0x28f (1)
     |                                               |                |      [1]{}: local_time_type 0x28f-0x295 (6)
0x280|                                             ff|               .|        utoff: -25200 (valid) 0x28f-0x293 (4)
0x290|ff 9d 90                                       |...             |
0x290|         00                                    |   .            |        dst: 0 (valid) 0x293-0x294 (1)
0x290|            04                                 |    .           |        idx: 4 (valid) 0x294-0x295 (1)
     |                                               |                |      [2]{}: local_time_type 0x295-0x29b (6)
0x290|               ff ff 8f 80                     |     ....       |        utoff: -28800 (valid) 0x295-0x299 (4)
0x290|                           00                  |         .      |        dst: 0 (valid) 0x299-0x29a (1)
0x290|                              08               |          .     |        idx: 8 (valid) 0x29a-0x29b (1)
     |                                               |                |      [3]{}: local_time_type 0x29b-0x2a1 (6)
0x290|                                 ff ff 9d 90   |           .... |        utoff: -25200 (valid) 0x29b-0x29f (4)
0x290|                                             00|               .|        dst: 0 (valid) 0x29f-0x2a0 (1)
0x2a0|04                                             |.               |        idx: 4 (valid) 0x2a0-0x2a1 (1)
     |                                               |                |      [4]{}: local_time_type 0x2a1-0x2a7 (6)
0x2a0|   ff ff 9d 90                                 | ....           |        utoff: -25200 (valid) 0x2a1-0x2a5 (4)
0x2a0|               01                              |     .          |        dst: 1 (valid) 0x2a5-0x2a6 (1)
0x2a0|                  0c                           |      .         |        idx: 12 (valid) 0x2a6-0x2a7 (1)
     |                                               |                |      [5]{}: local_time_type 0x2a7-0x2ad (6)
0x2a0|                     ff ff 9d 90               |       ....     |        utoff: -25200 (valid) 0x2a7-0x2ab (4)
0x2a0|                                 01            |           .    |        dst: 1 (valid) 0x2ab-0x2ac (1)
0x2a0|                                    10         |            .   |        idx: 16 (valid) 0x2ac-0x2ad (1)
     |                                               |                |      [6]{}: local_time_type 0x2ad-0x2b3 (6)
0x2a0|                                       ff ff 9d|             ...|        utoff: -25200 (valid) 0x2ad-0x2b1 (4)
0x2b0|90                                             |.               |
0x2b0|   01                                          | .              |        dst: 1 (valid) 0x2b1-0x2b2 (1)
0x2b0|      14                                       |  .             |        idx: 20 (valid) 0x2b2-0x2b3 (1)
     |                                               |                |      [7]{}: local_time_type 0x2b3-0x2b9 (6)
0x2b0|         ff ff 8f 80                           |   ....         |        utoff: -28800 (valid) 0x2b3-0x2b7 (4)
0x2b0|                     00                        |       .        |        dst: 0 (valid) 0x2b7-0x2b8 (1)
0x2b0|                        08                     |        .       |        idx: 8 (valid) 0x2b8-0x2b9 (1)
     |                                               |                |    time_zone_designations[0:6]: 0x2b9-0x2d1 (24)
0x2b0|                           4c 4d 54 00         |         LMT.   |      [0]: "LMT" time_zone_designation 0x2b9-0x2bd (4)
0x2b0|                                       4d 53 54|             MST|      [1]: "MST" time_zone_designation 0x2bd-0x2c1 (4)
0x2c0|00                                             |.               |
0x2c0|   50 53 54 00                                 | PST.           |      [2]: "PST" time_zone_designation 0x2c1-0x2c5 (4)
0x2c0|               50 44 54 00                     |     PDT.       |      [3]: "PDT" time_zone_designation 0x2c5-0x2c9 (4)
0x2c0|                           50 57 54 00         |         PWT.   |      [4]: "PWT" time_zone_designation 0x2c9-0x2cd (4)
0x2c0|                                       50 50 54|             PPT|      [5]: "PPT" time_zone_designation 0x2cd-0x2d1 (4)
0x2d0|00                                             |.               |
     |                                               |                |    leap_second_records[0:27]: 0x2d1-0x3a9 (216)
     |                                               |                |      [0]{}: leap_second_record 0x2d1-0x2d9 (8)
0x2d0|   04 b2 58 00                                 | ..X.           |        occur: "1972-07-01T00:00:00Z" (78796800) 0x2d1-0x2d5 (4)
0x2d0|               00 00 00 01                     |     ....       |        corr: 1 0x2d5-0x2d9 (4)
     |                                               |                |      [1]{}: leap_second_record 0x2d9-0x2e1 (8)
0x2d0|                           05 a4 ec 01         |         ....   |        occur: "1973-01-01T00:00:01Z" (94694401) 0x2d9-0x2dd (4)
0x2d0|                                       00 00 00|             ...|        corr: 2 0x2dd-0x2e1 (4)
0x2e0|02                                             |.               |
     |                                               |                |      [2]{}: leap_second_record 0x2e1-0x2e9 (8)
0x2e0|   07 86 1f 82                                 | ....           |        occur: "1974-01-01T00:00:02Z" (126230402) 0x2e1-0x2e5 (4)
0x2e0|               00 00 00 03                     |     ....       |        corr: 3 0x2e5-0x2e9 (4)
     |                                               |                |      [3]{}: leap_second_record 0x2e9-0x2f1 (8)
0x2e0|                           09 67 53 03         |         .gS.   |        occur: "1975-01-01T00:00:03Z" (157766403) 0x2e9-0x2ed (4)
0x2e0|                                       00 00 00|             ...|        corr: 4 0x2ed-0x2f1 (4)
0x2f0|04                                             |.               |
     |                                               |                |      [4]{}: leap_second_record 0x2f1-0x2f9 (8)
0x2f0|   0b 48 86 84                                 | .H..           |        occur: "1976-01-01T00:00:04Z" (189302404) 0x2f1-0x2f5 (4)
0x2f0|               00 00 00 05                     |     ....       |        corr: 5 0x2f5-0x2f9 (4)
     |                                               |                |      [5]{}: leap_second_record 0x2f9-0x301 (8)
0x2f0|                           0d 2b 0b 85         |         .+..   |        occur: "1977-01-01T00:00:05Z" (220924805) 0x2f9-0x2fd (4)
0x2f0|                                       00 00 00|             ...|        corr: 6 0x2fd-0x301 (4)
0x300|06                                             |.               |
     |                                               |                |      [6]{}: leap_second_record 0x301-0x309 (8)
0x300|   0f 0c 3f 06                                 | ..?.           |        occur: "1978-01-01T00:00:06Z" (252460806) 0x301-0x305 (4)
0x300|               00 00 00 07                     |     ....       |        corr: 7 0x305-0x309 (4)
     |                                               |                |      [7]{}: leap_second_record 0x309-0x311 (8)
0x300|                           10 ed 72 87         |         ..r.   |        occur: "1979-01-01T00:00:07Z" (283996807) 0x309-0x30d (4)
0x300|                                       00 00 00|             ...|        corr: 8 0x30d-0x311 (4)
0x310|08                                             |.               |
     |                                               |                |      [8]{}: leap_second_record 0x311-0x319 (8)
0x310|   12 ce a6 08                                 | ....           |        occur: "1980-01-01T00:00:08Z" (315532808) 0x311-0x315 (4)
0x310|               00 00 00 09                     |     ....       |        corr: 9 0x315-0x319 (4)
     |                                               |                |      [9]{}: leap_second_record 0x319-0x321 (8)
0x310|                           15 9f ca 89         |         ....   |        occur: "1981-07-01T00:00:09Z" (362793609) 0x319-0x31d (4)
0x310|                                       00 00 00|             ...|        corr: 10 0x31d-0x321 (4)
0x320|0a                                             |.               |
     |                                               |                |      [10]{}: leap_second_record 0x321-0x329 (8)
0x320|   17 80 fe 0a                                 | ....           |        occur: "1982-07-01T00:00:10Z" (394329610) 0x321-0x325 (4)
0x320|               00 00 00 0b                     |     ....       |        corr: 11 0x325-0x329 (4)
     |                                               |                |      [11]{}: leap_second_record 0x329-0x331 (8)
0x320|                           19 62 31 8b         |         .b1.   |        occur: "1983-07-01T00:00:11Z" (425865611) 0x329-0x32d (4)
0x320|                                       00 00 00|             ...|        corr: 12 0x32d-0x331 (4)
0x330|0c                                             |.               |
     |                                               |                |      [12]{}: leap_second_record 0x331-0x339 (8)
0x330|   1d 25 ea 0c                                 | .%..           |        occur: "1985-07-01T00:00:12Z" (489024012) 0x331-0x335 (4)
0x330|               00 00 00 0d                     |     ....       |        corr: 13 0x335-0x339 (4)
     |                                               |                |      [13]{}: leap_second_record 0x339-0x341 (8)
0x330|                           21 da e5 0d         |         !...   |        occur: "1988-01-01T00:00:13Z" (567993613) 0x339-0x33d (4)
0x330|                                       00 00 00|             ...|        corr: 14 0x33d-0x341 (4)
0x340|0e                                             |.               |
     |                                               |                |      [14]{}: leap_second_record 0x341-0x349 (8)
0x340|   25 9e 9d 8e                                 | %...           |        occur: "1990-01-01T00:00:14Z" (631152014) 0x341-0x345 (4)
0x340|               00 00 00 0f                     |     ....       |        corr: 15 0x345-0x349 (4)
     |                                               |                |      [15]{}: leap_second_record 0x349-0x351 (8)
0x340|                           27 7f d1 0f         |         '...   |        occur: "1991-01-01T00:00:15Z" (662688015) 0x349-0x34d (4)
0x340|                                       00 00 00|             ...|        corr: 16 0x34d-0x351 (4)
0x350|10                                             |.               |
     |                                               |                |      [16]{}: leap_second_record 0x351-0x359 (8)
0x350|   2a 50 f5 90                                 | *P..           |        occur: "1992-07-01T00:00:16Z" (709948816) 0x351-0x355 (4)
0x350|               00 00 00 11                     |     ....       |        corr: 17 0x355-0x359 (4)
     |                                               |                |      [17]{}: leap_second_record 0x359-0x361 (8)
0x350|                           2c 32 29 11         |         ,2).   |        occur: "1993-07-01T00:00:17Z" (741484817) 0x359-0x35d (4)
0x350|                                       00 00 00|             ...|        corr: 18 0x35d-0x361 (4)
0x360|12                                             |.               |
     |                                               |                |      [18]{}: leap_second_record 0x361-0x369 (8)
0x360|   2e 13 5c 92                                 | ..\.           |        occur: "1994-07-01T00:00:18Z" (773020818) 0x361-0x365 (4)
0x360|               00 00 00 13                     |     ....       |        corr: 19 0x365-0x369 (4)
     |                                               |                |      [19]{}: leap_second_record 0x369-0x371 (8)
0x360|                           30 e7 24 13         |         0.$.   |        occur: "1996-01-01T00:00:19Z" (820454419) 0x369-0x36d (4)
0x360|                                       00 00 00|             ...|        corr: 20 0x36d-0x371 (4)
0x370|14                                             |.               |
     |                                               |                |      [20]{}: leap_second_record 0x371-0x379 (8)
0x370|   33 b8 48 94                                 | 3.H.           |        occur: "1997-07-01T00:00:20Z" (867715220) 0x371-0x375 (4)
0x370|               00 00 00 15                     |     ....       |        corr: 21 0x375-0x379 (4)
     |                                               |                |      [21]{}: leap_second_record 0x379-0x381 (8)
0x370|                           36 8c 10 15         |         6...   |        occur: "1999-01-01T00:00:21Z" (915148821) 0x379-0x37d (4)
0x370|                                       00 00 00|             ...|        corr: 22 0x37d-0x381 (4)
0x380|16                                             |.               |
     |                                               |                |      [22]{}: leap_second_record 0x381-0x389 (8)
0x380|   43 b7 1b 96                                 | C...           |        occur: "2006-01-01T00:00:22Z" (1136073622) 0x381-0x385 (4)
0x380|               00 00 00 17                     |     ....       |        corr: 23 0x385-0x389 (4)
     |                                               |                |      [23]{}: leap_second_record 0x389-0x391 (8)
0x380|                           49 5c 07 97         |         I\..   |        occur: "2009-01-01T00:00:23Z" (1230768023) 0x389-0x38d (4)
0x380|                                       00 00 00|             ...|        corr: 24 0x38d-0x391 (4)
0x390|18                                             |.               |
     |                                               |                |      [24]{}: leap_second_record 0x391-0x399 (8)
0x390|   4f ef 93 18                                 | O...           |        occur: "2012-07-01T00:00:24Z" (1341100824) 0x391-0x395 (4)
0x390|               00 00 00 19                     |     ....       |        corr: 25 0x395-0x399 (4)
     |                                               |                |      [25]{}: leap_second_record 0x399-0x3a1 (8)
0x390|                           55 93 2d 99         |         U.-.   |        occur: "2015-07-01T00:00:25Z" (1435708825) 0x399-0x39d (4)
0x390|                                       00 00 00|             ...|        corr: 26 0x39d-0x3a1 (4)
0x3a0|1a                                             |.               |
     |                                               |                |      [26]{}: leap_second_record 0x3a1-0x3a9 (8)
0x3a0|   58 68 46 9a                                 | XhF.           |        occur: "2017-01-01T00:00:26Z" (1483228826) 0x3a1-0x3a5 (4)
0x3a0|               00 00 00 1b                     |     ....       |        corr: 27 0x3a5-0x3a9 (4)
     |                                               |                |    standard_wall_indicators[0:8]: 0x3a9-0x3b1 (8)
0x3a0|                           00                  |         .      |      [0]: 0 standard_wall_indicator (valid) 0x3a9-0x3aa (1)
0x3a0|                              01               |          .     |      [1]: 1 standard_wall_indicator (valid) 0x3aa-0x3ab (1)
0x3a0|                                 00            |           .    |      [2]: 0 standard_wall_indicator (valid) 0x3ab-0x3ac (1)
0x3a0|                                    00         |            .   |      [3]: 0 standard_wall_indicator (valid) 0x3ac-0x3ad (1)
0x3a0|                                       00      |             .  |      [4]: 0 standard_wall_indicator (valid) 0x3ad-0x3ae (1)
0x3a0|                                          00   |              . |      [5]: 0 standard_wall_indicator (valid) 0x3ae-0x3af (1)
0x3a0|                                             01|               .|      [6]: 1 standard_wall_indicator (valid) 0x3af-0x3b0 (1)
0x3b0|00                                             |.               |      [7]: 0 standard_wall_indicator (valid) 0x3b0-0x3b1 (1)
     |                                               |                |    ut_local_indicators[0:8]: 0x3b1-0x3b9 (8)
0x3b0|   00                                          | .              |      [0]: 0 ut_local_indicator (valid) 0x3b1-0x3b2 (1)
0x3b0|      01                                       |  .             |      [1]: 1 ut_local_indicator (valid) 0x3b2-0x3b3 (1)
0x3b0|         00                                    |   .            |      [2]: 0 ut_local_indicator (valid) 0x3b3-0x3b4 (1)
0x3b0|            00                                 |    .           |      [3]: 0 ut_local_indicator (valid) 0x3b4-0x3b5 (1)
0x3b0|               00                              |     .          |      [4]: 0 ut_local_indicator (valid) 0x3b5-0x3b6 (1)
0x3b0|                  00                           |      .         |      [5]: 0 ut_local_indicator (valid) 0x3b6-0x3b7 (1)
0x3b0|                     01                        |       .        |      [6]: 1 ut_local_indicator (valid) 0x3b7-0x3b8 (1)
0x3b0|                        00                     |        .       |      [7]: 0 ut_local_indicator (valid) 0x3b8-0x3b9 (1)
     |                                               |                |  v2plusheader{}: 0x3b9-0x3e5 (44)
0x3b0|                           54 5a 69 66         |         TZif   |    magic: 0x545a6966 (valid) 0x3b9-0x3bd (4)
0x3b0|                                       32      |             2  |    ver: "2" (0x32) (valid) 0x3bd-0x3be (1)
0x3b0|                                          00 00|              ..|    reserved: raw bits 0x3be-0x3cd (15)
0x3c0|00 00 00 00 00 00 00 00 00 00 00 00 00         |.............   |
0x3c0|                                       00 00 00|             ...|    isutcnt: 8 0x3cd-0x3d1 (4)
0x3d0|08                                             |.               |
0x3d0|   00 00 00 08                                 | ....           |    isstdcnt: 8 0x3d1-0x3d5 (4)
0x3d0|               00 00 00 1b                     |     ....       |    leapcnt: 27 0x3d5-0x3d9 (4)
0x3d0|                           00 00 00 79         |         ...y   |    timecnt: 121 0x3d9-0x3dd (4)
0x3d0|                                       00 00 00|             ...|    typecnt: 8 0x3dd-0x3e1 (4)
0x3e0|08                                             |.               |
0x3e0|   00 00 00 18                                 | ....           |    charcnt: 24 0x3e1-0x3e5 (4)
     |                                               |                |  v2plusdatablock{}: 0x3e5-0x9c2 (1501)
     |                                               |                |    transition_times[0:121]: 0x3e5-0x7ad (968)
0x3e0|               ff ff ff ff a5 b6 e8 70         |     .......p   |      [0]: "1922-01-01T07:00:00Z" (-1514739600) transition_time 0x3e5-0x3ed (8)
0x3e0|                                       ff ff ff|             ...|      [1]: "1924-01-01T07:00:00Z" (-1451667600) transition_time 0x3ed-0x3f5 (8)
0x3f0|ff a9 79 4f 70                                 |..yOp           |
0x3f0|               ff ff ff ff af f2 7c f0         |     ......|.   |      [2]: "1927-06-11T07:00:00Z" (-1343062800) transition_time 0x3f5-0x3fd (8)
0x3f0|                                       ff ff ff|             ...|      [3]: "1930-11-15T07:00:00Z" (-1234803600) transition_time 0x3fd-0x405 (8)
0x400|ff b6 66 64 70                                 |..fdp           |
0x400|               ff ff ff ff b7 1b 10 00         |     ........   |      [4]: "1931-04-01T08:00:00Z" (-1222963200) transition_time 0x405-0x40d (8)
0x400|                                       ff ff ff|             ...|      [5]: "1931-09-30T07:00:00Z" (-1207242000) transition_time 0x40d-0x415 (8)
0x410|ff b8 0a f2 f0                                 |.....           |
0x410|               ff ff ff ff cb ea 8d 80         |     ........   |      [6]: "1942-04-24T08:00:00Z" (-873820800) transition_time 0x415-0x41d (8)
0x410|                                       ff ff ff|             ...|      [7]: "1945-08-14T23:00:00Z" (-769395600) transition_time 0x41d-0x425 (8)
0x420|ff d2 23 f4 70                                 |..#.p           |
0x420|               ff ff ff ff d2 99 ba 70         |     .......p   |      [8]: "1945-11-12T07:00:00Z" (-761677200) transition_time 0x425-0x42d (8)
0x420|                                       ff ff ff|             ...|      [9]: "1948-04-05T08:00:00Z" (-686073600) transition_time 0x42d-0x435 (8)
0x430|ff d7 1b 59 00                                 |...Y.           |
0x430|               ff ff ff ff d8 91 b4 f0         |     ........   |      [10]: "1949-01-14T07:00:00Z" (-661539600) transition_time 0x435-0x43d (8)
0x430|                                       ff ff ff|             ...|      [11]: "1954-04-25T09:00:00Z" (-495039600) transition_time 0x43d-0x445 (8)
0x440|ff e2 7e 4b 90                                 |..~K.           |
0x440|               ff ff ff ff e3 49 52 90         |     .....IR.   |      [12]: "1954-09-26T09:00:00Z" (-481734000) transition_time 0x445-0x44d (8)
0x440|                                       ff ff ff|             ...|      [13]: "1955-04-24T09:00:00Z" (-463590000) transition_time 0x44d-0x455 (8)
0x450|ff e4 5e 2d 90                                 |..^-.           |
0x450|               ff ff ff ff e5 29 34 90         |     .....)4.   |      [14]: "1955-09-25T09:00:00Z" (-450284400) transition_time 0x455-0x45d (8)
0x450|                                       ff ff ff|             ...|      [15]: "1956-04-29T09:00:00Z" (-431535600) transition_time 0x45d-0x465 (8)
0x460|ff e6 47 4a 10                                 |..GJ.           |
0x460|               ff ff ff ff e7 12 51 10         |     ......Q.   |      [16]: "1956-09-30T09:00:00Z" (-418230000) transition_time 0x465-0x46d (8)
0x460|                                       ff ff ff|             ...|      [17]: "1957-04-28T09:00:00Z" (-400086000) transition_time 0x46d-0x475 (8)
0x470|ff e8 27 2c 10                                 |..',.           |
0x470|               ff ff ff ff e8 f2 33 10         |     ......3.   |      [18]: "1957-09-29T09:00:00Z" (-386780400) transition_time 0x475-0x47d (8)
0x470|                                       ff ff ff|             ...|      [19]: "1958-04-27T09:00:00Z" (-368636400) transition_time 0x47d-0x485 (8)
0x480|ff ea 07 0e 10                                 |.....           |
0x480|               ff ff ff ff ea d2 15 10         |     ........   |      [20]: "1958-09-28T09:00:00Z" (-355330800) transition_time 0x485-0x48d (8)
0x480|                                       ff ff ff|             ...|      [21]: "1959-04-26T09:00:00Z" (-337186800) transition_time 0x48d-0x495 (8)
0x490|ff eb e6 f0 10                                 |.....           |
0x490|               ff ff ff ff ec b1 f7 10         |     ........   |      [22]: "1959-09-27T09:00:00Z" (-323881200) transition_time 0x495-0x49d (8)
0x490|                                       ff ff ff|             ...|      [23]: "1960-04-24T09:00:00Z" (-305737200) transition_time 0x49d-0x4a5 (8)
0x4a0|ff ed c6 d2 10                                 |.....           |
0x4a0|               ff ff ff ff ee 91 d9 10         |     ........   |      [24]: "1960-09-25T09:00:00Z" (-292431600) transition_time 0x4a5-0x4ad (8)
0x4a0|                                       00 00 00|             ...|      [25]: "1976-04-25T10:00:05Z" (199274405) transition_time 0x4ad-0x4b5 (8)
0x4b0|00 0b e0 af a5                                 |.....           |
0x4b0|               00 00 00 00 0c d9 cd 15         |     ........   |      [26]: "1976-10-31T09:00:05Z" (215600405) transition_time 0x4b5-0x4bd (8)
0x4b0|                                       00 00 00|             ...|      [27]: "1977-04-24T10:00:06Z" (230724006) transition_time 0x4bd-0x4c5 (8)
0x4c0|00 0d c0 91 a6                                 |.....           |
0x4c0|               00 00 00 00 0e b9 af 16         |     ........   |      [28]: "1977-10-30T09:00:06Z" (247050006) transition_time 0x4c5-0x4cd (8)
0x4c0|                                       00 00 00|             ...|      [29]: "1978-04-30T10:00:07Z" (262778407) transition_time 0x4cd-0x4d5 (8)
0x4d0|00 0f a9 ae 27                                 |....'           |
0x4d0|               00 00 00 00 10 99 91 17         |     ........   |      [30]: "1978-10-29T09:00:07Z" (278499607) transition_time 0x4d5-0x4dd (8)
0x4d0|                                       00 00 00|             ...|      [31]: "1979-04-29T10:00:08Z" (294228008) transition_time 0x4dd-0x4e5 (8)
0x4e0|00 11 89 90 28                                 |....(           |
0x4e0|               00 00 00 00 12 79 73 18         |     .....ys.   |      [32]: "1979-10-28T09:00:08Z" (309949208) transition_time 0x4e5-0x4ed (8)
0x4e0|                                       00 00 00|             ...|      [33]: "1980-04-27T10:00:09Z" (325677609) transition_time 0x4ed-0x4f5 (8)
0x4f0|00 13 69 72 29                                 |..ir)           |
0x4f0|               00 00 00 00 14 59 55 19         |     .....YU.   |      [34]: "1980-10-26T09:00:09Z" (341398809) transition_time 0x4f5-0x4fd (8)
0x4f0|                                       00 00 00|             ...|      [35]: "1981-04-26T10:00:09Z" (357127209) transition_time 0x4fd-0x505 (8)
0x500|00 15 49 54 29                                 |..IT)           |
0x500|               00 00 00 00 16 39 37 1a         |     .....97.   |      [36]: "1981-10-25T09:00:10Z" (372848410) transition_time 0x505-0x50d (8)
0x500|                                       00 00 00|             ...|      [37]: "1982-04-25T10:00:10Z" (388576810) transition_time 0x50d-0x515 (8)
0x510|00 17 29 36 2a                                 |..)6*           |
0x510|               00 00 00 00 18 22 53 9b         |     ....."S.   |      [38]: "1982-10-31T09:00:11Z" (404902811) transition_time 0x515-0x51d (8)
0x510|                                       00 00 00|             ...|      [39]: "1983-04-24T10:00:11Z" (420026411) transition_time 0x51d-0x525 (8)
0x520|00 19 09 18 2b                                 |....+           |
0x520|               00 00 00 00 1a 02 35 9c         |     ......5.   |      [40]: "1983-10-30T09:00:12Z" (436352412) transition_time 0x525-0x52d (8)
0x520|                                       00 00 00|             ...|      [41]: "1984-04-29T10:00:12Z" (452080812) transition_time 0x52d-0x535 (8)
0x530|00 1a f2 34 ac                                 |...4.           |
0x530|               00 00 00 00 1b e2 17 9c         |     ........   |      [42]: "1984-10-28T09:00:12Z" (467802012) transition_time 0x535-0x53d (8)
0x530|                                       00 00 00|             ...|      [43]: "1985-04-28T10:00:12Z" (483530412) transition_time 0x53d-0x545 (8)
0x540|00 1c d2 16 ac                                 |.....           |
0x540|               00 00 00 00 1d c1 f9 9d         |     ........   |      [44]: "1985-10-27T09:00:13Z" (499251613) transition_time 0x545-0x54d (8)
0x540|                                       00 00 00|             ...|      [45]: "1986-04-27T10:00:13Z" (514980013) transition_time 0x54d-0x555 (8)
0x550|00 1e b1 f8 ad                                 |.....           |
0x550|               00 00 00 00 1f a1 db 9d         |     ........   |      [46]: "1986-10-26T09:00:13Z" (530701213) transition_time 0x555-0x55d (8)
0x550|                                       00 00 00|             ...|      [47]: "1987-04-05T10:00:13Z" (544615213) transition_time 0x55d-0x565 (8)
0x560|00 20 76 2b 2d                                 |. v+-           |
0x560|               00 00 00 00 21 81 bd 9d         |     ....!...   |      [48]: "1987-10-25T09:00:13Z" (562150813) transition_time 0x565-0x56d (8)
0x560|                                       00 00 00|             ...|      [49]: "1988-04-03T10:00:14Z" (576064814) transition_time 0x56d-0x575 (8)
0x570|00 22 56 0d 2e                                 |."V..           |
0x570|               00 00 00 00 23 6a da 1e         |     ....#j..   |      [50]: "1988-10-30T09:00:14Z" (594205214) transition_time 0x575-0x57d (8)
0x570|                                       00 00 00|             ...|      [51]: "1989-04-02T10:00:14Z" (607514414) transition_time 0x57d-0x585 (8)
0x580|00 24 35 ef 2e                                 |.$5..           |
0x580|               00 00 00 00 25 4a bc 1e         |     ....%J..   |      [52]: "1989-10-29T09:00:14Z" (625654814) transition_time 0x585-0x58d (8)
0x580|                                       00 00 00|             ...|      [53]: "1990-04-01T10:00:15Z" (638964015) transition_time 0x58d-0x595 (8)
0x590|00 26 15 d1 2f                                 |.&../           |
0x590|               00 00 00 00 27 2a 9e 1f         |     ....'*..   |      [54]: "1990-10-28T09:00:15Z" (657104415) transition_time 0x595-0x59d (8)
0x590|                                       00 00 00|             ...|      [55]: "1991-04-07T10:00:16Z" (671018416) transition_time 0x59d-0x5a5 (8)
0x5a0|00 27 fe ed b0                                 |.'...           |
0x5a0|               00 00 00 00 29 0a 80 20         |     ....)..    |      [56]: "1991-10-27T09:00:16Z" (688554016) transition_time 0x5a5-0x5ad (8)
0x5a0|                                       00 00 00|             ...|      [57]: "1992-04-05T10:00:16Z" (702468016) transition_time 0x5ad-0x5b5 (8)
0x5b0|00 29 de cf b0                                 |.)...           |
0x5b0|               00 00 00 00 2a ea 62 21         |     ....*.b!   |      [58]: "1992-10-25T09:00:17Z" (720003617) transition_time 0x5b5-0x5bd (8)
0x5b0|                                       00 00 00|             ...|      [59]: "1993-04-04T10:00:17Z" (733917617) transition_time 0x5bd-0x5c5 (8)
0x5c0|00 2b be b1 b1                                 |.+...           |
0x5c0|               00 00 00 00 2c d3 7e a2         |     ....,.~.   |      [60]: "1993-10-31T09:00:18Z" (752058018) transition_time 0x5c5-0x5cd (8)
0x5c0|                                       00 00 00|             ...|      [61]: "1994-04-03T10:00:18Z" (765367218) transition_time 0x5cd-0x5d5 (8)
0x5d0|00 2d 9e 93 b2                                 |.-...           |
0x5d0|               00 00 00 00 2e b3 60 a3         |     ......`.   |      [62]: "1994-10-30T09:00:19Z" (783507619) transition_time 0x5d5-0x5dd (8)
0x5d0|                                       00 00 00|             ...|      [63]: "1995-04-02T10:00:19Z" (796816819) transition_time 0x5dd-0x5e5 (8)
0x5e0|00 2f 7e 75 b3                                 |./~u.           |
0x5e0|               00 00 00 00 30 93 42 a3         |     ....0.B.   |      [64]: "1995-10-29T09:00:19Z" (814957219) transition_time 0x5e5-0x5ed (8)
0x5e0|                                       00 00 00|             ...|      [65]: "1996-04-07T10:00:20Z" (828871220) transition_time 0x5ed-0x5f5 (8)
0x5f0|00 31 67 92 34                                 |.1g.4           |
0x5f0|               00 00 00 00 32 73 24 a4         |     ....2s$.   |      [66]: "1996-10-27T09:00:20Z" (846406820) transition_time 0x5f5-0x5fd (8)
0x5f0|                                       00 00 00|             ...|      [67]: "1997-04-06T10:00:20Z" (860320820) transition_time 0x5fd-0x605 (8)
0x600|00 33 47 74 34                                 |.3Gt4           |
0x600|               00 00 00 00 34 53 06 a5         |     ....4S..   |      [68]: "1997-10-26T09:00:21Z" (877856421) transition_time 0x605-0x60d (8)
0x600|                                       00 00 00|             ...|      [69]: "1998-04-05T10:00:21Z" (891770421) transition_time 0x60d-0x615 (8)
0x610|00 35 27 56 35                                 |.5'V5           |
0x610|               00 00 00 00 36 32 e8 a5         |     ....62..   |      [70]: "1998-10-25T09:00:21Z" (909306021) transition_time 0x615-0x61d (8)
0x610|                                       00 00 00|             ...|      [71]: "1999-04-04T10:00:22Z" (923220022) transition_time 0x61d-0x625 (8)
0x620|00 37 07 38 36                                 |.7.86           |
0x620|               00 00 00 00 38 1c 05 26         |     ....8..&   |      [72]: "1999-10-31T09:00:22Z" (941360422) transition_time 0x625-0x62d (8)
0x620|                                       00 00 00|             ...|      [73]: "2000-04-02T10:00:22Z" (954669622) transition_time 0x62d-0x635 (8)
0x630|00 38 e7 1a 36                                 |.8..6           |
0x630|               00 00 00 00 39 fb e7 26         |     ....9..&   |      [74]: "2000-10-29T09:00:22Z" (972810022) transition_time 0x635-0x63d (8)
0x630|                                       00 00 00|             ...|      [75]: "2001-04-01T10:00:22Z" (986119222) transition_time 0x63d-0x645 (8)
0x640|00 3a c6 fc 36                                 |.:..6           |
0x640|               00 00 00 00 3b db c9 26         |     ....;..&   |      [76]: "2001-10-28T09:00:22Z" (1004259622) transition_time 0x645-0x64d (8)
0x640|                                       00 00 00|             ...|      [77]: "2002-04-07T10:00:22Z" (1018173622) transition_time 0x64d-0x655 (8)
0x650|00 3c b0 18 b6                                 |.<...           |
0x650|               00 00 00 00 3d bb ab 26         |     ....=..&   |      [78]: "2002-10-27T09:00:22Z" (1035709222) transition_time 0x655-0x65d (8)
0x650|                                       00 00 00|             ...|      [79]: "2003-04-06T10:00:22Z" (1049623222) transition_time 0x65d-0x665 (8)
0x660|00 3e 8f fa b6                                 |.>...           |
0x660|               00 00 00 00 3f 9b 8d 26         |     ....?..&   |      [80]: "2003-10-26T09:00:22Z" (1067158822) transition_time 0x665-0x66d (8)
0x660|                                       00 00 00|             ...|      [81]: "2004-04-04T10:00:22Z" (1081072822) transition_time 0x66d-0x675 (8)
0x670|00 40 6f dc b6                                 |.@o..           |
0x670|               00 00 00 00 41 84 a9 a6         |     ....A...   |      [82]: "2004-10-31T09:00:22Z" (1099213222) transition_time 0x675-0x67d (8)
0x670|                                       00 00 00|             ...|      [83]: "2005-04-03T10:00:22Z" (1112522422) transition_time 0x67d-0x685 (8)
0x680|00 42 4f be b6                                 |.BO..           |
0x680|               00 00 00 00 43 64 8b a6         |     ....Cd..   |      [84]: "2005-10-30T09:00:22Z" (1130662822) transition_time 0x685-0x68d (8)
0x680|                                       00 00 00|             ...|      [85]: "2006-04-02T10:00:23Z" (1143972023) transition_time 0x68d-0x695 (8)
0x690|00 44 2f a0 b7                                 |.D/..           |
0x690|               00 00 00 00 45 44 6d a7         |     ....EDm.   |      [86]: "2006-10-29T09:00:23Z" (1162112423) transition_time 0x695-0x69d (8)
0x690|                                       00 00 00|             ...|      [87]: "2007-04-01T10:00:23Z" (1175421623) transition_time 0x69d-0x6a5 (8)
0x6a0|00 46 0f 82 b7                                 |.F...           |
0x6a0|               00 00 00 00 47 24 4f a7         |     ....G$O.   |      [88]: "2007-10-28T09:00:23Z" (1193562023) transition_time 0x6a5-0x6ad (8)
0x6a0|                                       00 00 00|             ...|      [89]: "2008-04-06T10:00:23Z" (1207476023) transition_time 0x6ad-0x6b5 (8)
0x6b0|00 47 f8 9f 37                                 |.G..7           |
0x6b0|               00 00 00 00 49 04 31 a7         |     ....I.1.   |      [90]: "2008-10-26T09:00:23Z" (1225011623) transition_time 0x6b5-0x6bd (8)
0x6b0|                                       00 00 00|             ...|      [91]: "2009-04-05T10:00:24Z" (1238925624) transition_time 0x6bd-0x6c5 (8)
0x6c0|00 49 d8 81 38                                 |.I..8           |
0x6c0|               00 00 00 00 4a e4 13 a8         |     ....J...   |      [92]: "2009-10-25T09:00:24Z" (1256461224) transition_time 0x6c5-0x6cd (8)
0x6c0|                                       00 00 00|             ...|      [93]: "2010-03-14T10:00:24Z" (1268560824) transition_time 0x6cd-0x6d5 (8)
0x6d0|00 4b 9c b3 b8                                 |.K...           |
0x6d0|               00 00 00 00 4c d6 6a a8         |     ....L.j.   |      [94]: "2010-11-07T09:00:24Z" (1289120424) transition_time 0x6d5-0x6dd (8)
0x6d0|                                       00 00 00|             ...|      [95]: "2011-03-13T10:00:24Z" (1300010424) transition_time 0x6dd-0x6e5 (8)
0x6e0|00 4d 7c 95 b8                                 |.M|..           |
0x6e0|               00 00 00 00 4e b6 4c a8         |     ....N.L.   |      [96]: "2011-11-06T09:00:24Z" (1320570024) transition_time 0x6e5-0x6ed (8)
0x6e0|                                       00 00 00|             ...|      [97]: "2012-03-11T10:00:24Z" (1331460024) transition_time 0x6ed-0x6f5 (8)
0x6f0|00 4f 5c 77 b8                                 |.O\w.           |
0x6f0|               00 00 00 00 50 96 2e a9         |     ....P...   |      [98]: "2012-11-04T09:00:25Z" (1352019625) transition_time 0x6f5-0x6fd (8)
0x6f0|                                       00 00 00|             ...|      [99]: "2013-03-10T10:00:25Z" (1362909625) transition_time 0x6fd-0x705 (8)
0x700|00 51 3c 59 b9                                 |.Q<Y.           |
0x700|               00 00 00 00 52 76 10 a9         |     ....Rv..   |      [100]: "2013-11-03T09:00:25Z" (1383469225) transition_time 0x705-0x70d (8)
0x700|                                       00 00 00|             ...|      [101]: "2014-03-09T10:00:25Z" (1394359225) transition_time 0x70d-0x715 (8)
0x710|00 53 1c 3b b9                                 |.S.;.           |
0x710|               00 00 00 00 54 55 f2 a9         |     ....TU..   |      [102]: "2014-11-02T09:00:25Z" (1414918825) transition_time 0x715-0x71d (8)
0x710|                                       00 00 00|             ...|      [103]: "2015-03-08T10:00:25Z" (1425808825) transition_time 0x71d-0x725 (8)
0x720|00 54 fc 1d b9                                 |.T...           |
0x720|               00 00 00 00 56 35 d4 aa         |     ....V5..   |      [104]: "2015-11-01T09:00:26Z" (1446368426) transition_time 0x725-0x72d (8)
0x720|                                       00 00 00|             ...|      [105]: "2016-03-13T10:00:26Z" (1457863226) transition_time 0x72d-0x735 (8)
0x730|00 56 e5 3a 3a                                 |.V.::           |
0x730|               00 00 00 00 58 1e f1 2a         |     ....X..*   |      [106]: "2016-11-06T09:00:26Z" (1478422826) transition_time 0x735-0x73d (8)
0x730|                                       00 00 00|             ...|      [107]: "2017-03-12T10:00:27Z" (1489312827) transition_time 0x73d-0x745 (8)
0x740|00 58 c5 1c 3b                                 |.X..;           |
0x740|               00 00 00 00 59 fe d3 2b         |     ....Y..+   |      [108]: "2017-11-05T09:00:27Z" (1509872427) transition_time 0x745-0x74d (8)
0x740|                                       00 00 00|             ...|      [109]: "2018-03-11T10:00:27Z" (1520762427) transition_time 0x74d-0x755 (8)
0x750|00 5a a4 fe 3b                                 |.Z..;           |
0x750|               00 00 00 00 5b de b5 2b         |     ....[..+   |      [110]: "2018-11-04T09:00:27Z" (1541322027) transition_time 0x755-0x75d (8)
0x750|                                       00 00 00|             ...|      [111]: "2019-03-10T10:00:27Z" (1552212027) transition_time 0x75d-0x765 (8)
0x760|00 5c 84 e0 3b                                 |.\..;           |
0x760|               00 00 00 00 5d be 97 2b         |     ....]..+   |      [112]: "2019-11-03T09:00:27Z" (1572771627) transition_time 0x765-0x76d (8)
0x760|                                       00 00 00|             ...|      [113]: "2020-03-08T10:00:27Z" (1583661627) transition_time 0x76d-0x775 (8)
0x770|00 5e 64 c2 3b                                 |.^d.;           |
0x770|               00 00 00 00 5f 9e 79 2b         |     ...._.y+   |      [114]: "2020-11-01T09:00:27Z" (1604221227) transition_time 0x775-0x77d (8)
0x770|                                       00 00 00|             ...|      [115]: "2021-03-14T10:00:27Z" (1615716027) transition_time 0x77d-0x785 (8)
0x780|00 60 4d de bb                                 |.`M..           |
0x780|               00 00 00 00 61 87 95 ab         |     ....a...   |      [116]: "2021-11-07T09:00:27Z" (1636275627) transition_time 0x785-0x78d (8)
0x780|                                       00 00 00|             ...|      [117]: "2022-03-13T10:00:27Z" (1647165627) transition_time 0x78d-0x795 (8)
0x790|00 62 2d c0 bb                                 |.b-..           |
0x790|               00 00 00 00 63 67 77 ab         |     ....cgw.   |      [118]: "2022-11-06T09:00:27Z" (1667725227) transition_time 0x795-0x79d (8)
0x790|                                       00 00 00|             ...|      [119]: "2023-03-12T10:00:27Z" (1678615227) transition_time 0x79d-0x7a5 (8)
0x7a0|00 64 0d a2 bb                                 |.d...           |
0x7a0|               00 00 00 00 64 9b 78 1b         |     ....d.x.   |      [120]: "2023-06-28T00:00:27Z" (1687910427) transition_time 0x7a5-0x7ad (8)
     |                                               |                |    transition_types[0:121]: 0x7ad-0x826 (121)
0x7a0|                                       01      |             .  |      [0]: 1 transition_type 0x7ad-0x7ae (1)
0x7a0|                                          02   |              . |      [1]: 2 transition_type 0x7ae-0x7af (1)
0x7a0|                                             03|               .|      [2]: 3 transition_type 0x7af-0x7b0 (1)
0x7b0|02                                             |.               |      [3]: 2 transition_type 0x7b0-0x7b1 (1)
0x7b0|   04                                          | .              |      [4]: 4 transition_type 0x7b1-0x7b2 (1)
0x7b0|      02                                       |  .             |      [5]: 2 transition_type 0x7b2-0x7b3 (1)
0x7b0|         05                                    |   .            |      [6]: 5 transition_type 0x7b3-0x7b4 (1)
0x7b0|            06                                 |    .           |      [7]: 6 transition_type 0x7b4-0x7b5 (1)
0x7b0|               02                              |     .          |      [8]: 2 transition_type 0x7b5-0x7b6 (1)
0x7b0|                  04                           |      .         |      [9]: 4 transition_type 0x7b6-0x7b7 (1)
0x7b0|                     02                        |       .        |      [10]: 2 transition_type 0x7b7-0x7b8 (1)
0x7b0|                        04                     |        .       |      [11]: 4 transition_type 0x7b8-0x7b9 (1)
0x7b0|                           02                  |         .      |      [12]: 2 transition_type 0x7b9-0x7ba (1)
0x7b0|                              04               |          .     |      [13]: 4 transition_type 0x7ba-0x7bb (1)
0x7b0|                                 02            |           .    |      [14]: 2 transition_type 0x7bb-0x7bc (1)
0x7b0|                                    04         |            .   |      [15]: 4 transition_type 0x7bc-0x7bd (1)
0x7b0|                                       02      |             .  |      [16]: 2 transition_type 0x7bd-0x7be (1)
0x7b0|                                          04   |              . |      [17]: 4 transition_type 0x7be-0x7bf (1)
0x7b0|                                             02|               .|      [18]: 2 transition_type 0x7bf-0x7c0 (1)
0x7c0|04                                             |.               |      [19]: 4 transition_type 0x7c0-0x7c1 (1)
0x7c0|   02                                          | .              |      [20]: 2 transition_type 0x7c1-0x7c2 (1)
0x7c0|      04                                       |  .             |      [21]: 4 transition_type 0x7c2-0x7c3 (1)
0x7c0|         02                                    |   .            |      [22]: 2 transition_type 0x7c3-0x7c4 (1)
0x7c0|            04                                 |    .           |      [23]: 4 transition_type 0x7c4-0x7c5 (1)
0x7c0|               02                              |     .          |      [24]: 2 transition_type 0x7c5-0x7c6 (1)
0x7c0|                  04                           |      .         |      [25]: 4 transition_type 0x7c6-0x7c7 (1)
0x7c0|                     02                        |       .        |      [26]: 2 transition_type 0x7c7-0x7c8 (1)
0x7c0|                        04                     |        .       |      [27]: 4 transition_type 0x7c8-0x7c9 (1)
0x7c0|                           02                  |         .      |      [28]: 2 transition_type 0x7c9-0x7ca (1)
0x7c0|                              04               |          .     |      [29]: 4 transition_type 0x7ca-0x7cb (1)
0x7c0|                                 02            |           .    |      [30]: 2 transition_type 0x7cb-0x7cc (1)
0x7c0|                                    04         |            .   |      [31]: 4 transition_type 0x7cc-0x7cd (1)
0x7c0|                                       02      |             .  |      [32]: 2 transition_type 0x7cd-0x7ce (1)
0x7c0|                                          04   |              . |      [33]: 4 transition_type 0x7ce-0x7cf (1)
0x7c0|                                             02|               .|      [34]: 2 transition_type 0x7cf-0x7d0 (1)
0x7d0|04                                             |.               |      [35]: 4 transition_type 0x7d0-0x7d1 (1)
0x7d0|   02                                          | .              |      [36]: 2 transition_type 0x7d1-0x7d2 (1)
0x7d0|      04                                       |  .             |      [37]: 4 transition_type 0x7d2-0x7d3 (1)
0x7d0|         02                                    |   .            |      [38]: 2 transition_type 0x7d3-0x7d4 (1)
0x7d0|            04                                 |    .           |      [39]: 4 transition_type 0x7d4-0x7d5 (1)
0x7d0|               02                              |     .          |      [40]: 2 transition_type 0x7d5-0x7d6 (1)
0x7d0|                  04                           |      .         |      [41]: 4 transition_type 0x7d6-0x7d7 (1)
0x7d0|                     02                        |       .        |      [42]: 2 transition_type 0x7d7-0x7d8 (1)
0x7d0|                        04                     |        .       |      [43]: 4 transition_type 0x7d8-0x7d9 (1)
0x7d0|                           02                  |         .      |      [44]: 2 transition_type 0x7d9-0x7da (1)
0x7d0|                              04               |          .     |      [45]: 4 transition_type 0x7da-0x7db (1)
0x7d0|                                 02            |           .    |      [46]: 2 transition_type 0x7db-0x7dc (1)
0x7d0|                                    04         |            .   |      [47]: 4 transition_type 0x7dc-0x7dd (1)
0x7d0|                                       02      |             .  |      [48]: 2 transition_type 0x7dd-0x7de (1)
0x7d0|                                          04   |              . |      [49]: 4 transition_type 0x7de-0x7df (1)
0x7d0|                                             02|               .|      [50]: 2 transition_type 0x7df-0x7e0 (1)
0x7e0|04                                             |.               |      [51]: 4 transition_type 0x7e0-0x7e1 (1)
0x7e0|   02                                          | .              |      [52]: 2 transition_type 0x7e1-0x7e2 (1)
0x7e0|      04                                       |  .             |      [53]: 4 transition_type 0x7e2-0x7e3 (1)
0x7e0|         02                                    |   .            |      [54]: 2 transition_type 0x7e3-0x7e4 (1)
0x7e0|            04                                 |    .           |      [55]: 4 transition_type 0x7e4-0x7e5 (1)
0x7e0|               02                              |     .          |      [56]: 2 transition_type 0x7e5-0x7e6 (1)
0x7e0|                  04                           |      .         |      [57]: 4 transition_type 0x7e6-0x7e7 (1)
0x7e0|                     02                        |       .        |      [58]: 2 transition_type 0x7e7-0x7e8 (1)
0x7e0|                        04                     |        .       |      [59]: 4 transition_type 0x7e8-0x7e9 (1)
0x7e0|                           02                  |         .      |      [60]: 2 transition_type 0x7e9-0x7ea (1)
0x7e0|                              04               |          .     |      [61]: 4 transition_type 0x7ea-0x7eb (1)
0x7e0|                                 02            |           .    |      [62]: 2 transition_type 0x7eb-0x7ec (1)
0x7e0|                                    04         |            .   |      [63]: 4 transition_type 0x7ec-0x7ed (1)
0x7e0|                                       02      |             .  |      [64]: 2 transition_type 0x7ed-0x7ee (1)
0x7e0|                                          04   |              . |      [65]: 4 transition_type 0x7ee-0x7ef (1)
0x7e0|                                             02|               .|      [66]: 2 transition_type 0x7ef-0x7f0 (1)
0x7f0|04                                             |.               |      [67]: 4 transition_type 0x7f0-0x7f1 (1)
0x7f0|   02                                          | .              |      [68]: 2 transition_type 0x7f1-0x7f2 (1)
0x7f0|      04                                       |  .             |      [69]: 4 transition_type 0x7f2-0x7f3 (1)
0x7f0|         02                                    |   .            |      [70]: 2 transition_type 0x7f3-0x7f4 (1)
0x7f0|            04                                 |    .           |      [71]: 4 transition_type 0x7f4-0x7f5 (1)
0x7f0|               02                              |     .          |      [72]: 2 transition_type 0x7f5-0x7f6 (1)
0x7f0|                  04                           |      .         |      [73]: 4 transition_type 0x7f6-0x7f7 (1)
0x7f0|                     02                        |       .        |      [74]: 2 transition_type 0x7f7-0x7f8 (1)
0x7f0|                        04                     |        .       |      [75]: 4 transition_type 0x7f8-0x7f9 (1)
0x7f0|                           02                  |         .      |      [76]: 2 transition_type 0x7f9-0x7fa (1)
0x7f0|                              04               |          .     |      [77]: 4 transition_type 0x7fa-0x7fb (1)
0x7f0|                                 02            |           .    |      [78]: 2 transition_type 0x7fb-0x7fc (1)
0x7f0|                                    04         |            .   |      [79]: 4 transition_type 0x7fc-0x7fd (1)
0x7f0|                                       02      |             .  |      [80]: 2 transition_type 0x7fd-0x7fe (1)
0x7f0|                                          04   |              . |      [81]: 4 transition_type 0x7fe-0x7ff (1)
0x7f0|                                             02|               .|      [82]: 2 transition_type 0x7ff-0x800 (1)
0x800|04                                             |.               |      [83]: 4 transition_type 0x800-0x801 (1)
0x800|   02                                          | .              |      [84]: 2 transition_type 0x801-0x802 (1)
0x800|      04                                       |  .             |      [85]: 4 transition_type 0x802-0x803 (1)
0x800|         02                                    |   .            |      [86]: 2 transition_type 0x803-0x804 (1)
0x800|            04                                 |    .           |      [87]: 4 transition_type 0x804-0x805 (1)
0x800|               02                              |     .          |      [88]: 2 transition_type 0x805-0x806 (1)
0x800|                  04                           |      .         |      [89]: 4 transition_type 0x806-0x807 (1)
0x800|                     02                        |       .        |      [90]: 2 transition_type 0x807-0x808 (1)
0x800|                        04                     |        .       |      [91]: 4 transition_type 0x808-0x809 (1)
0x800|                           02                  |         .      |      [92]: 2 transition_type 0x809-0x80a (1)
0x800|                              04               |          .     |      [93]: 4 transition_type 0x80a-0x80b (1)
0x800|                                 02            |           .    |      [94]: 2 transition_type 0x80b-0x80c (1)
0x800|                                    04         |            .   |      [95]: 4 transition_type 0x80c-0x80d (1)
0x800|                                       02      |             .  |      [96]: 2 transition_type 0x80d-0x80e (1)
0x800|                                          04   |              . |      [97]: 4 transition_type 0x80e-0x80f (1)
0x800|                                             02|               .|      [98]: 2 transition_type 0x80f-0x810 (1)
0x810|04                                             |.               |      [99]: 4 transition_type 0x810-0x811 (1)
0x810|   02                                          | .              |      [100]: 2 transition_type 0x811-0x812 (1)
0x810|      04                                       |  .             |      [101]: 4 transition_type 0x812-0x813 (1)
0x810|         02                                    |   .            |      [102]: 2 transition_type 0x813-0x814 (1)
0x810|            04                                 |    .           |      [103]: 4 transition_type 0x814-0x815 (1)
0x810|               02                              |     .          |      [104]: 2 transition_type 0x815-0x816 (1)
0x810|                  04                           |      .         |      [105]: 4 transition_type 0x816-0x817 (1)
0x810|                     02                        |       .        |      [106]: 2 transition_type 0x817-0x818 (1)
0x810|                        04                     |        .       |      [107]: 4 transition_type 0x818-0x819 (1)
0x810|                           02                  |         .      |      [108]: 2 transition_type 0x819-0x81a (1)
0x810|                              04               |          .     |      [109]: 4 transition_type 0x81a-0x81b (1)
0x810|                                 02            |           .    |      [110]: 2 transition_type 0x81b-0x81c (1)
0x810|                                    04         |            .   |      [111]: 4 transition_type 0x81c-0x81d (1)
0x810|                                       02      |             .  |      [112]: 2 transition_type 0x81d-0x81e (1)
0x810|                                          04   |              . |      [113]: 4 transition_type 0x81e-0x81f (1)
0x810|                                             02|               .|      [114]: 2 transition_type 0x81f-0x820 (1)
0x820|04                                             |.               |      [115]: 4 transition_type 0x820-0x821 (1)
0x820|   02                                          | .              |      [116]: 2 transition_type 0x821-0x822 (1)
0x820|      04                                       |  .             |      [117]: 4 transition_type 0x822-0x823 (1)
0x820|         02                                    |   .            |      [118]: 2 transition_type 0x823-0x824 (1)
0x820|            04                                 |    .           |      [119]: 4 transition_type 0x824-0x825 (1)
0x820|               04                              |     .          |      [120]: 4 transition_type 0x825-0x826 (1)
     |                                               |                |    local_time_type_records[0:8]: 0x826-0x856 (48)
     |                                               |                |      [0]{}: local_time_type 0x826-0x82c (6)
0x820|                  ff ff 92 4c                  |      ...L      |        utoff: -28084 (valid) 0x826-0x82a (4)
0x820|                              00               |          .     |        dst: 0 (valid) 0x82a-0x82b (1)
0x820|                                 00            |           .    |        idx: 0 (valid) 0x82b-0x82c (1)
     |                                               |                |      [1]{}: local_time_type 0x82c-0x832 (6)
0x820|                                    ff ff 9d 90|            ....|        utoff: -25200 (valid) 0x82c-0x830 (4)
0x830|00                                             |.               |        dst: 0 (valid) 0x830-0x831 (1)
0x830|   04                                          | .              |        idx: 4 (valid) 0x831-0x832 (1)
     |                                               |                |      [2]{}: local_time_type 0x832-0x838 (6)
0x830|      ff ff 8f 80                              |  ....          |        utoff: -28800 (valid) 0x832-0x836 (4)
0x830|                  00                           |      .         |        dst: 0 (valid) 0x836-0x837 (1)
0x830|                     08                        |       .        |        idx: 8 (valid) 0x837-0x838 (1)
     |                                               |                |      [3]{}: local_time_type 0x838-0x83e (6)
0x830|                        ff ff 9d 90            |        ....    |        utoff: -25200 (valid) 0x838-0x83c (4)
0x830|                                    00         |            .   |        dst: 0 (valid) 0x83c-0x83d (1)
0x830|                                       04      |             .  |        idx: 4 (valid) 0x83d-0x83e (1)
     |                                               |                |      [4]{}: local_time_type 0x83e-0x844 (6)
0x830|                                          ff ff|              ..|        utoff: -25200 (valid) 0x83e-0x842 (4)
0x840|9d 90                                          |..              |
0x840|      01                                       |  .             |        dst: 1 (valid) 0x842-0x843 (1)
0x840|         0c                                    |   .            |        idx: 12 (valid) 0x843-0x844 (1)
     |                                               |                |      [5]{}: local_time_type 0x844-0x84a (6)
0x840|            ff ff 9d 90                        |    ....        |        utoff: -25200 (valid) 0x844-0x848 (4)
0x840|                        01                     |        .       |        dst: 1 (valid) 0x848-0x849 (1)
0x840|                           10                  |         .      |        idx: 16 (valid) 0x849-0x84a (1)
     |                                               |                |      [6]{}: local_time_type 0x84a-0x850 (6)
0x840|                              ff ff 9d 90      |          ....  |        utoff: -25200 (valid) 0x84a-0x84e (4)
0x840|                                          01   |              . |        dst: 1 (valid) 0x84e-0x84f (1)
0x840|                                             14|               .|        idx: 20 (valid) 0x84f-0x850 (1)
     |                                               |                |      [7]{}: local_time_type 0x850-0x856 (6)
0x850|ff ff 8f 80                                    |....            |        utoff: -28800 (valid) 0x850-0x854 (4)
0x850|            00                                 |    .           |        dst: 0 (valid) 0x854-0x855 (1)
0x850|               08                              |     .          |        idx: 8 (valid) 0x855-0x856 (1)
     |                                               |                |    time_zone_designations[0:6]: 0x856-0x86e (24)
0x850|                  4c 4d 54 00                  |      LMT.      |      [0]: "LMT" time_zone_designation 0x856-0x85a (4)
0x850|                              4d 53 54 00      |          MST.  |      [1]: "MST" time_zone_designation 0x85a-0x85e (4)
0x850|                                          50 53|              PS|      [2]: "PST" time_zone_designation 0x85e-0x862 (4)
0x860|54 00                                          |T.              |
0x860|      50 44 54 00                              |  PDT.          |      [3]: "PDT" time_zone_designation 0x862-0x866 (4)
0x860|                  50 57 54 00                  |      PWT.      |      [4]: "PWT" time_zone_designation 0x866-0x86a (4)
0x860|                              50 50 54 00      |          PPT.  |      [5]: "PPT" time_zone_designation 0x86a-0x86e (4)
     |                                               |                |    leap_second_records[0:27]: 0x86e-0x9b2 (324)
     |                                               |                |      [0]{}: leap_second_record 0x86e-0x87a (12)
0x860|                                          00 00|              ..|        occur: "1972-07-01T00:00:00Z" (78796800) 0x86e-0x876 (8)
0x870|00 00 04 b2 58 00                              |....X.          |
0x870|                  00 00 00 01                  |      ....      |        corr: 1 0x876-0x87a (4)
     |                                               |                |      [1]{}: leap_second_record 0x87a-0x886 (12)
0x870|                              00 00 00 00 05 a4|          ......|        occur: "1973-01-01T00:00:01Z" (94694401) 0x87a-0x882 (8)
0x880|ec 01                                          |..              |
0x880|      00 00 00 02                              |  ....          |        corr: 2 0x882-0x886 (4)
     |                                               |                |      [2]{}: leap_second_record 0x886-0x892 (12)
0x880|                  00 00 00 00 07 86 1f 82      |      ........  |        occur: "1974-01-01T00:00:02Z" (126230402) 0x886-0x88e (8)
0x880|                                          00 00|              ..|        corr: 3 0x88e-0x892 (4)
0x890|00 03                                          |..              |
     |                                               |                |      [3]{}: leap_second_record 0x892-0x89e (12)
0x890|      00 00 00 00 09 67 53 03                  |  .....gS.      |        occur: "1975-01-01T00:00:03Z" (157766403) 0x892-0x89a (8)
0x890|                              00 00 00 04      |          ....  |        corr: 4 0x89a-0x89e (4)
     |                                               |                |      [4]{}: leap_second_record 0x89e-0x8aa (12)
0x890|                                          00 00|              ..|        occur: "1976-01-01T00:00:04Z" (189302404) 0x89e-0x8a6 (8)
0x8a0|00 00 0b 48 86 84                              |...H..          |
0x8a0|                  00 00 00 05                  |      ....      |        corr: 5 0x8a6-0x8aa (4)
     |                                               |                |      [5]{}: leap_second_record 0x8aa-0x8b6 (12)
0x8a0|                              00 00 00 00 0d 2b|          .....+|        occur: "1977-01-01T00:00:05Z" (220924805) 0x8aa-0x8b2 (8)
0x8b0|0b 85                                          |..              |
0x8b0|      00 00 00 06                              |  ....          |        corr: 6 0x8b2-0x8b6 (4)
     |                                               |                |      [6]{}: leap_second_record 0x8b6-0x8c2 (12)
0x8b0|                  00 00 00 00 0f 0c 3f 06      |      ......?.  |        occur: "1978-01-01T00:00:06Z" (252460806) 0x8b6-0x8be (8)
0x8b0|                                          00 00|              ..|        corr: 7 0x8be-0x8c2 (4)
0x8c0|00 07                                          |..              |
     |                                               |                |      [7]{}: leap_second_record 0x8c2-0x8ce (12)
0x8c0|      00 00 00 00 10 ed 72 87                  |  ......r.      |        occur: "1979-01-01T00:00:07Z" (283996807) 0x8c2-0x8ca (8)
0x8c0|                              00 00 00 08      |          ....  |        corr: 8 0x8ca-0x8ce (4)
     |                                               |                |      [8]{}: leap_second_record 0x8ce-0x8da (12)
0x8c0|                                          00 00|              ..|        occur: "1980-01-01T00:00:08Z" (315532808) 0x8ce-0x8d6 (8)
0x8d0|00 00 12 ce a6 08                              |......          |
0x8d0|                  00 00 00 09                  |      ....      |        corr: 9 0x8d6-0x8da (4)
     |                                               |                |      [9]{}: leap_second_record 0x8da-0x8e6 (12)
0x8d0|                              00 00 00 00 15 9f|          ......|        occur: "1981-07-01T00:00:09Z" (362793609) 0x8da-0x8e2 (8)
0x8e0|ca 89                                          |..              |
0x8e0|      00 00 00 0a                              |  ....          |        corr: 10 0x8e2-0x8e6 (4)
     |                                               |                |      [10]{}: leap_second_record 0x8e6-0x8f2 (12)
0x8e0|                  00 00 00 00 17 80 fe 0a      |      ........  |        occur: "1982-07-01T00:00:10Z" (394329610) 0x8e6-0x8ee (8)
0x8e0|                                          00 00|              ..|        corr: 11 0x8ee-0x8f2 (4)
0x8f0|00 0b                                          |..              |
     |                                               |                |      [11]{}: leap_second_record 0x8f2-0x8fe (12)
0x8f0|      00 00 00 00 19 62 31 8b                  |  .....b1.      |        occur: "1983-07-01T00:00:11Z" (425865611) 0x8f2-0x8fa (8)
0x8f0|                              00 00 00 0c      |          ....  |        corr: 12 0x8fa-0x8fe (4)
     |                                               |                |      [12]{}: leap_second_record 0x8fe-0x90a (12)
0x8f0|                                          00 00|              ..|        occur: "1985-07-01T00:00:12Z" (489024012) 0x8fe-0x906 (8)
0x900|00 00 1d 25 ea 0c                              |...%..          |
0x900|                  00 00 00 0d                  |      ....      |        corr: 13 0x906-0x90a (4)
     |                                               |                |      [13]{}: leap_second_record 0x90a-0x916 (12)
0x900|                              00 00 00 00 21 da|          ....!.|        occur: "1988-01-01T00:00:13Z" (567993613) 0x90a-0x912 (8)
0x910|e5 0d                                          |..              |
0x910|      00 00 00 0e                              |  ....          |        corr: 14 0x912-0x916 (4)
     |                                               |                |      [14]{}: leap_second_record 0x916-0x922 (12)
0x910|                  00 00 00 00 25 9e 9d 8e      |      ....%...  |        occur: "1990-01-01T00:00:14Z" (631152014) 0x916-0x91e (8)
0x910|                                          00 00|              ..|        corr: 15 0x91e-0x922 (4)
0x920|00 0f                                          |..              |
     |                                               |                |      [15]{}: leap_second_record 0x922-0x92e (12)
0x920|      00 00 00 00 27 7f d1 0f                  |  ....'...      |        occur: "1991-01-01T00:00:15Z" (662688015) 0x922-0x92a (8)
0x920|                              00 00 00 10      |          ....  |        corr: 16 0x92a-0x92e (4)
     |                                               |                |      [16]{}: leap_second_record 0x92e-0x93a (12)
0x920|                                          00 00|              ..|        occur: "1992-07-01T00:00:16Z" (709948816) 0x92e-0x936 (8)
0x930|00 00 2a 50 f5 90                              |..*P..          |
0x930|                  00 00 00 11                  |      ....      |        corr: 17 0x936-0x93a (4)
     |                                               |                |      [17]{}: leap_second_record 0x93a-0x946 (12)
0x930|                              00 00 00 00 2c 32|          ....,2|        occur: "1993-07-01T00:00:17Z" (741484817) 0x93a-0x942 (8)
0x940|29 11                                          |).              |
0x940|      00 00 00 12                              |  ....          |        corr: 18 0x942-0x946 (4)
     |                                               |                |      [18]{}: leap_second_record 0x946-0x952 (12)
0x940|                  00 00 00 00 2e 13 5c 92      |      ......\.  |        occur: "1994-07-01T00:00:18Z" (773020818) 0x946-0x94e (8)
0x940|                                          00 00|              ..|        corr: 19 0x94e-0x952 (4)
0x950|00 13                                          |..              |
     |                                               |                |      [19]{}: leap_second_record 0x952-0x95e (12)
0x950|      00 00 00 00 30 e7 24 13                  |  ....0.$.      |        occur: "1996-01-01T00:00:19Z" (820454419) 0x952-0x95a (8)
0x950|                              00 00 00 14      |          ....  |        corr: 20 0x95a-0x95e (4)
     |                                               |                |      [20]{}: leap_second_record 0x95e-0x96a (12)
0x950|                                          00 00|              ..|        occur: "1997-07-01T00:00:20Z" (867715220) 0x95e-0x966 (8)
0x960|00 00 33 b8 48 94                              |..3.H.          |
0x960|                  00 00 00 15                  |      ....      |        corr: 21 0x966-0x96a (4)
     |                                               |                |      [21]{}: leap_second_record 0x96a-0x976 (12)
0x960|                              00 00 00 00 36 8c|          ....6.|        occur: "1999-01-01T00:00:21Z" (915148821) 0x96a-0x972 (8)
0x970|10 15                                          |..              |
0x970|      00 00 00 16                              |  ....          |        corr: 22 0x972-0x976 (4)
     |                                               |                |      [22]{}: leap_second_record 0x976-0x982 (12)
0x970|                  00 00 00 00 43 b7 1b 96      |      ....C...  |        occur: "2006-01-01T00:00:22Z" (1136073622) 0x976-0x97e (8)
0x970|                                          00 00|              ..|        corr: 23 0x97e-0x982 (4)
0x980|00 17                                          |..              |
     |                                               |                |      [23]{}: leap_second_record 0x982-0x98e (12)
0x980|      00 00 00 00 49 5c 07 97                  |  ....I\..      |        occur: "2009-01-01T00:00:23Z" (1230768023) 0x982-0x98a (8)
0x980|                              00 00 00 18      |          ....  |        corr: 24 0x98a-0x98e (4)
     |                                               |                |      [24]{}: leap_second_record 0x98e-0x99a (12)
0x980|                                          00 00|              ..|        occur: "2012-07-01T00:00:24Z" (1341100824) 0x98e-0x996 (8)
0x990|00 00 4f ef 93 18                              |..O...          |
0x990|                  00 00 00 19                  |      ....      |        corr: 25 0x996-0x99a (4)
     |                                               |                |      [25]{}: leap_second_record 0x99a-0x9a6 (12)
0x990|                              00 00 00 00 55 93|          ....U.|        occur: "2015-07-01T00:00:25Z" (1435708825) 0x99a-0x9a2 (8)
0x9a0|2d 99                                          |-.              |
0x9a0|      00 00 00 1a                              |  ....          |        corr: 26 0x9a2-0x9a6 (4)
     |                                               |                |      [26]{}: leap_second_record 0x9a6-0x9b2 (12)
0x9a0|                  00 00 00 00 58 68 46 9a      |      ....XhF.  |        occur: "2017-01-01T00:00:26Z" (1483228826) 0x9a6-0x9ae (8)
0x9a0|                                          00 00|              ..|        corr: 27 0x9ae-0x9b2 (4)
0x9b0|00 1b                                          |..              |
     |                                               |                |    standard_wall_indicators[0:8]: 0x9b2-0x9ba (8)
0x9b0|      00                                       |  .             |      [0]: 0 standard_wall_indicator (valid) 0x9b2-0x9b3 (1)
0x9b0|         01                                    |   .            |      [1]: 1 standard_wall_indicator (valid) 0x9b3-0x9b4 (1)
0x9b0|            00                                 |    .           |      [2]: 0 standard_wall_indicator (valid) 0x9b4-0x9b5 (1)
0x9b0|               00                              |     .          |      [3]: 0 standard_wall_indicator (valid) 0x9b5-0x9b6 (1)
0x9b0|                  00                           |      .         |      [4]: 0 standard_wall_indicator (valid) 0x9b6-0x9b7 (1)
0x9b0|                     00                        |       .        |      [5]: 0 standard_wall_indicator (valid) 0x9b7-0x9b8 (1)
0x9b0|                        01                     |        .       |      [6]: 1 standard_wall_indicator (valid) 0x9b8-0x9b9 (1)
0x9b0|                           00                  |         .      |      [7]: 0 standard_wall_indicator (valid) 0x9b9-0x9ba (1)
     |                                               |                |    ut_local_indicators[0:8]: 0x9ba-0x9c2 (8)
0x9b0|                              00               |          .     |      [0]: 0 ut_local_indicator (valid) 0x9ba-0x9bb (1)
0x9b0|                                 01            |           .    |      [1]: 1 ut_local_indicator (valid) 0x9bb-0x9bc (1)
0x9b0|                                    00         |            .   |      [2]: 0 ut_local_indicator (valid) 0x9bc-0x9bd (1)
0x9b0|                                       00      |             .  |      [3]: 0 ut_local_indicator (valid) 0x9bd-0x9be (1)
0x9b0|                                          00   |              . |      [4]: 0 ut_local_indicator (valid) 0x9be-0x9bf (1)
0x9b0|                                             00|               .|      [5]: 0 ut_local_indicator (valid) 0x9bf-0x9c0 (1)
0x9c0|01                                             |.               |      [6]: 1 ut_local_indicator (valid) 0x9c0-0x9c1 (1)
0x9c0|   00                                          | .              |      [7]: 0 ut_local_indicator (valid) 0x9c1-0x9c2 (1)
     |                                               |                |  footer{}: 0x9c2-0x9c4 (2)
0x9c0|      0a                                       |  .             |    nl1: 10 (valid) 0x9c2-0x9c3 (1)
     |                                               |                |    tz_string: "" 0x9c3-0x9c3 (0)
0x9c0|         0a|                                   |   .|           |    nl2: 10 (valid) 0x9c3-0x9c4 (1)
