$ fq -d tzif dv Tirane
     |00 01 02 03 04 05 06 07 08 09 0a 0b 0c 0d 0e 0f|0123456789abcdef|.{}: Tirane (tzif) 0x0-0x823.7 (2084)
     |                                               |                |  v1header{}: 0x0-0x2b.7 (44)
0x000|54 5a 69 66                                    |TZif            |    magic: 0x545a6966 (valid) 0x0-0x3.7 (4)
0x000|            32                                 |    2           |    ver: "2" (0x32) (valid) 0x4-0x4.7 (1)
0x000|               00 00 00 00 00 00 00 00 00 00 00|     ...........|    reserved: raw bits 0x5-0x13.7 (15)
0x010|00 00 00 00                                    |....            |
0x010|            00 00 00 05                        |    ....        |    isutcnt: 5 0x14-0x17.7 (4)
0x010|                        00 00 00 05            |        ....    |    isstdcnt: 5 0x18-0x1b.7 (4)
0x010|                                    00 00 00 00|            ....|    leapcnt: 0 0x1c-0x1f.7 (4)
0x020|00 00 00 85                                    |....            |    timecnt: 133 0x20-0x23.7 (4)
0x020|            00 00 00 05                        |    ....        |    typecnt: 5 0x24-0x27.7 (4)
0x020|                        00 00 00 0d            |        ....    |    charcnt: 13 0x28-0x2b.7 (4)
     |                                               |                |  v1datablock{}: 0x2c-0x2f9.7 (718)
     |                                               |                |    transition_times[0:133]: 0x2c-0x23f.7 (532)
0x020|                                    96 aa 34 68|            ..4h|      [0]: "1913-12-31T22:40:40Z" (-1767230360) transition_time 0x2c-0x2f.7 (4)
0x030|c8 6d 87 70                                    |.m.p            |      [1]: "1940-06-15T23:00:00Z" (-932346000) transition_time 0x30-0x33.7 (4)
0x030|            cc e7 4b 10                        |    ..K.        |      [2]: "1942-11-02T01:00:00Z" (-857257200) transition_time 0x34-0x37.7 (4)
0x030|                        cd a9 17 90            |        ....    |      [3]: "1943-03-29T01:00:00Z" (-844556400) transition_time 0x38-0x3b.7 (4)
0x030|                                    cd b8 e9 90|            ....|      [4]: "1943-04-10T01:00:00Z" (-843519600) transition_time 0x3c-0x3f.7 (4)
0x040|08 28 39 f0                                    |.(9.            |      [5]: "1974-05-03T23:00:00Z" (136854000) transition_time 0x40-0x43.7 (4)
0x040|            08 ef 3e 60                        |    ..>`        |      [6]: "1974-10-01T22:00:00Z" (149896800) transition_time 0x44-0x47.7 (4)
0x040|                        0a 05 78 f0            |        ..x.    |      [7]: "1975-04-30T23:00:00Z" (168130800) transition_time 0x48-0x4b.7 (4)
0x040|                                    0a d0 71 e0|            ..q.|      [8]: "1975-10-01T22:00:00Z" (181432800) transition_time 0x4c-0x4f.7 (4)
0x050|0b e9 4f 70                                    |..Op            |      [9]: "1976-05-01T23:00:00Z" (199839600) transition_time 0x50-0x53.7 (4)
0x050|            0c b4 48 60                        |    ..H`        |      [10]: "1976-10-02T22:00:00Z" (213141600) transition_time 0x54-0x57.7 (4)
0x050|                        0d d2 6b f0            |        ..k.    |      [11]: "1977-05-07T23:00:00Z" (231894000) transition_time 0x58-0x5b.7 (4)
0x050|                                    0e 94 2a 60|            ..*`|      [12]: "1977-10-01T22:00:00Z" (244591200) transition_time 0x5c-0x5f.7 (4)
0x060|0f b0 fc 70                                    |...p            |      [13]: "1978-05-05T23:00:00Z" (263257200) transition_time 0x60-0x63.7 (4)
0x060|            10 74 0c 60                        |    .t.`        |      [14]: "1978-09-30T22:00:00Z" (276040800) transition_time 0x64-0x67.7 (4)
0x060|                        11 90 de 70            |        ...p    |      [15]: "1979-05-04T23:00:00Z" (294706800) transition_time 0x68-0x6b.7 (4)
0x060|                                    12 53 ee 60|            .S.`|      [16]: "1979-09-29T22:00:00Z" (307490400) transition_time 0x6c-0x6f.7 (4)
0x070|13 70 c0 70                                    |.p.p            |      [17]: "1980-05-02T23:00:00Z" (326156400) transition_time 0x70-0x73.7 (4)
0x070|            14 3b b9 60                        |    .;.`        |      [18]: "1980-10-03T22:00:00Z" (339458400) transition_time 0x74-0x77.7 (4)
0x070|                        15 48 b9 70            |        .H.p    |      [19]: "1981-04-25T23:00:00Z" (357087600) transition_time 0x78-0x7b.7 (4)
0x070|                                    16 13 b2 60|            ...`|      [20]: "1981-09-26T22:00:00Z" (370389600) transition_time 0x7c-0x7f.7 (4)
0x080|17 31 d5 f0                                    |.1..            |      [21]: "1982-05-01T23:00:00Z" (389142000) transition_time 0x80-0x83.7 (4)
0x080|            17 fc ce e0                        |    ....        |      [22]: "1982-10-02T22:00:00Z" (402444000) transition_time 0x84-0x87.7 (4)
0x080|                        19 00 94 70            |        ...p    |      [23]: "1983-04-17T23:00:00Z" (419468400) transition_time 0x88-0x8b.7 (4)
0x080|                                    19 db 5f 60|            .._`|      [24]: "1983-09-30T22:00:00Z" (433807200) transition_time 0x8c-0x8f.7 (4)
0x090|1a cc af f0                                    |....            |      [25]: "1984-03-31T23:00:00Z" (449622000) transition_time 0x90-0x93.7 (4)
0x090|            1b bc bd 10                        |    ....        |      [26]: "1984-09-30T01:00:00Z" (465354000) transition_time 0x94-0x97.7 (4)
0x090|                        1c ac ae 10            |        ....    |      [27]: "1985-03-31T01:00:00Z" (481078800) transition_time 0x98-0x9b.7 (4)
0x090|                                    1d 9c 9f 10|            ....|      [28]: "1985-09-29T01:00:00Z" (496803600) transition_time 0x9c-0x9f.7 (4)
0x0a0|1e 8c 90 10                                    |....            |      [29]: "1986-03-30T01:00:00Z" (512528400) transition_time 0xa0-0xa3.7 (4)
0x0a0|            1f 7c 81 10                        |    .|..        |      [30]: "1986-09-28T01:00:00Z" (528253200) transition_time 0xa4-0xa7.7 (4)
0x0a0|                        20 6c 72 10            |         lr.    |      [31]: "1987-03-29T01:00:00Z" (543978000) transition_time 0xa8-0xab.7 (4)
0x0a0|                                    21 5c 63 10|            !\c.|      [32]: "1987-09-27T01:00:00Z" (559702800) transition_time 0xac-0xaf.7 (4)
0x0b0|22 4c 54 10                                    |"LT.            |      [33]: "1988-03-27T01:00:00Z" (575427600) transition_time 0xb0-0xb3.7 (4)
0x0b0|            23 3c 45 10                        |    #<E.        |      [34]: "1988-09-25T01:00:00Z" (591152400) transition_time 0xb4-0xb7.7 (4)
0x0b0|                        24 2c 36 10            |        $,6.    |      [35]: "1989-03-26T01:00:00Z" (606877200) transition_time 0xb8-0xbb.7 (4)
0x0b0|                                    25 1c 27 10|            %.'.|      [36]: "1989-09-24T01:00:00Z" (622602000) transition_time 0xbc-0xbf.7 (4)
0x0c0|26 0c 18 10                                    |&...            |      [37]: "1990-03-25T01:00:00Z" (638326800) transition_time 0xc0-0xc3.7 (4)
0x0c0|            27 05 43 90                        |    '.C.        |      [38]: "1990-09-30T01:00:00Z" (654656400) transition_time 0xc4-0xc7.7 (4)
0x0c0|                        27 f5 34 90            |        '.4.    |      [39]: "1991-03-31T01:00:00Z" (670381200) transition_time 0xc8-0xcb.7 (4)
0x0c0|                                    28 e5 25 90|            (.%.|      [40]: "1991-09-29T01:00:00Z" (686106000) transition_time 0xcc-0xcf.7 (4)
0x0d0|29 d5 16 90                                    |)...            |      [41]: "1992-03-29T01:00:00Z" (701830800) transition_time 0xd0-0xd3.7 (4)
0x0d0|            2a c5 07 90                        |    *...        |      [42]: "1992-09-27T01:00:00Z" (717555600) transition_time 0xd4-0xd7.7 (4)
0x0d0|                        2b b4 f8 90            |        +...    |      [43]: "1993-03-28T01:00:00Z" (733280400) transition_time 0xd8-0xdb.7 (4)
0x0d0|                                    2c a4 e9 90|            ,...|      [44]: "1993-09-26T01:00:00Z" (749005200) transition_time 0xdc-0xdf.7 (4)
0x0e0|2d 94 da 90                                    |-...            |      [45]: "1994-03-27T01:00:00Z" (764730000) transition_time 0xe0-0xe3.7 (4)
0x0e0|            2e 84 cb 90                        |    ....        |      [46]: "1994-09-25T01:00:00Z" (780454800) transition_time 0xe4-0xe7.7 (4)
0x0e0|                        2f 74 bc 90            |        /t..    |      [47]: "1995-03-26T01:00:00Z" (796179600) transition_time 0xe8-0xeb.7 (4)
0x0e0|                                    30 64 ad 90|            0d..|      [48]: "1995-09-24T01:00:00Z" (811904400) transition_time 0xec-0xef.7 (4)
0x0f0|31 5d d9 10                                    |1]..            |      [49]: "1996-03-31T01:00:00Z" (828234000) transition_time 0xf0-0xf3.7 (4)
0x0f0|            32 72 b4 10                        |    2r..        |      [50]: "1996-10-27T01:00:00Z" (846378000) transition_time 0xf4-0xf7.7 (4)
0x0f0|                        33 3d bb 10            |        3=..    |      [51]: "1997-03-30T01:00:00Z" (859683600) transition_time 0xf8-0xfb.7 (4)
0x0f0|                                    34 52 96 10|            4R..|      [52]: "1997-10-26T01:00:00Z" (877827600) transition_time 0xfc-0xff.7 (4)
0x100|35 1d 9d 10                                    |5...            |      [53]: "1998-03-29T01:00:00Z" (891133200) transition_time 0x100-0x103.7 (4)
0x100|            36 32 78 10                        |    62x.        |      [54]: "1998-10-25T01:00:00Z" (909277200) transition_time 0x104-0x107.7 (4)
0x100|                        36 fd 7f 10            |        6...    |      [55]: "1999-03-28T01:00:00Z" (922582800) transition_time 0x108-0x10b.7 (4)
0x100|                                    38 1b 94 90|            8...|      [56]: "1999-10-31T01:00:00Z" (941331600) transition_time 0x10c-0x10f.7 (4)
0x110|38 dd 61 10                                    |8.a.            |      [57]: "2000-03-26T01:00:00Z" (954032400) transition_time 0x110-0x113.7 (4)
0x110|            39 fb 76 90                        |    9.v.        |      [58]: "2000-10-29T01:00:00Z" (972781200) transition_time 0x114-0x117.7 (4)
0x110|                        3a bd 43 10            |        :.C.    |      [59]: "2001-03-25T01:00:00Z" (985482000) transition_time 0x118-0x11b.7 (4)
0x110|                                    3b db 58 90|            ;.X.|      [60]: "2001-10-28T01:00:00Z" (1004230800) transition_time 0x11c-0x11f.7 (4)
0x120|3c a6 5f 90                                    |<._.            |      [61]: "2002-03-31T01:00:00Z" (1017536400) transition_time 0x120-0x123.7 (4)
0x120|            3d bb 3a 90                        |    =.:.        |      [62]: "2002-10-27T01:00:00Z" (1035680400) transition_time 0x124-0x127.7 (4)
0x120|                        3e 86 41 90            |        >.A.    |      [63]: "2003-03-30T01:00:00Z" (1048986000) transition_time 0x128-0x12b.7 (4)
0x120|                                    3f 9b 1c 90|            ?...|      [64]: "2003-10-26T01:00:00Z" (1067130000) transition_time 0x12c-0x12f.7 (4)
0x130|40 66 23 90                                    |@f#.            |      [65]: "2004-03-28T01:00:00Z" (1080435600) transition_time 0x130-0x133.7 (4)
0x130|            41 84 39 10                        |    A.9.        |      [66]: "2004-10-31T01:00:00Z" (1099184400) transition_time 0x134-0x137.7 (4)
0x130|                        42 46 05 90            |        BF..    |      [67]: "2005-03-27T01:00:00Z" (1111885200) transition_time 0x138-0x13b.7 (4)
0x130|                                    43 64 1b 10|            Cd..|      [68]: "2005-10-30T01:00:00Z" (1130634000) transition_time 0x13c-0x13f.7 (4)
0x140|44 25 e7 90                                    |D%..            |      [69]: "2006-03-26T01:00:00Z" (1143334800) transition_time 0x140-0x143.7 (4)
0x140|            45 43 fd 10                        |    EC..        |      [70]: "2006-10-29T01:00:00Z" (1162083600) transition_time 0x144-0x147.7 (4)
0x140|                        46 05 c9 90            |        F...    |      [71]: "2007-03-25T01:00:00Z" (1174784400) transition_time 0x148-0x14b.7 (4)
0x140|                                    47 23 df 10|            G#..|      [72]: "2007-10-28T01:00:00Z" (1193533200) transition_time 0x14c-0x14f.7 (4)
0x150|47 ee e6 10                                    |G...            |      [73]: "2008-03-30T01:00:00Z" (1206838800) transition_time 0x150-0x153.7 (4)
0x150|            49 03 c1 10                        |    I...        |      [74]: "2008-10-26T01:00:00Z" (1224982800) transition_time 0x154-0x157.7 (4)
0x150|                        49 ce c8 10            |        I...    |      [75]: "2009-03-29T01:00:00Z" (1238288400) transition_time 0x158-0x15b.7 (4)
0x150|                                    4a e3 a3 10|            J...|      [76]: "2009-10-25T01:00:00Z" (1256432400) transition_time 0x15c-0x15f.7 (4)
0x160|4b ae aa 10                                    |K...            |      [77]: "2010-03-28T01:00:00Z" (1269738000) transition_time 0x160-0x163.7 (4)
0x160|            4c cc bf 90                        |    L...        |      [78]: "2010-10-31T01:00:00Z" (1288486800) transition_time 0x164-0x167.7 (4)
0x160|                        4d 8e 8c 10            |        M...    |      [79]: "2011-03-27T01:00:00Z" (1301187600) transition_time 0x168-0x16b.7 (4)
0x160|                                    4e ac a1 90|            N...|      [80]: "2011-10-30T01:00:00Z" (1319936400) transition_time 0x16c-0x16f.7 (4)
0x170|4f 6e 6e 10                                    |Onn.            |      [81]: "2012-03-25T01:00:00Z" (1332637200) transition_time 0x170-0x173.7 (4)
0x170|            50 8c 83 90                        |    P...        |      [82]: "2012-10-28T01:00:00Z" (1351386000) transition_time 0x174-0x177.7 (4)
0x170|                        51 57 8a 90            |        QW..    |      [83]: "2013-03-31T01:00:00Z" (1364691600) transition_time 0x178-0x17b.7 (4)
0x170|                                    52 6c 65 90|            Rle.|      [84]: "2013-10-27T01:00:00Z" (1382835600) transition_time 0x17c-0x17f.7 (4)
0x180|53 37 6c 90                                    |S7l.            |      [85]: "2014-03-30T01:00:00Z" (1396141200) transition_time 0x180-0x183.7 (4)
0x180|            54 4c 47 90                        |    TLG.        |      [86]: "2014-10-26T01:00:00Z" (1414285200) transition_time 0x184-0x187.7 (4)
0x180|                        55 17 4e 90            |        U.N.    |      [87]: "2015-03-29T01:00:00Z" (1427590800) transition_time 0x188-0x18b.7 (4)
0x180|                                    56 2c 29 90|            V,).|      [88]: "2015-10-25T01:00:00Z" (1445734800) transition_time 0x18c-0x18f.7 (4)
0x190|56 f7 30 90                                    |V.0.            |      [89]: "2016-03-27T01:00:00Z" (1459040400) transition_time 0x190-0x193.7 (4)
0x190|            58 15 46 10                        |    X.F.        |      [90]: "2016-10-30T01:00:00Z" (1477789200) transition_time 0x194-0x197.7 (4)
0x190|                        58 d7 12 90            |        X...    |      [91]: "2017-03-26T01:00:00Z" (1490490000) transition_time 0x198-0x19b.7 (4)
0x190|                                    59 f5 28 10|            Y.(.|      [92]: "2017-10-29T01:00:00Z" (1509238800) transition_time 0x19c-0x19f.7 (4)
0x1a0|5a b6 f4 90                                    |Z...            |      [93]: "2018-03-25T01:00:00Z" (1521939600) transition_time 0x1a0-0x1a3.7 (4)
0x1a0|            5b d5 0a 10                        |    [...        |      [94]: "2018-10-28T01:00:00Z" (1540688400) transition_time 0x1a4-0x1a7.7 (4)
0x1a0|                        5c a0 11 10            |        \...    |      [95]: "2019-03-31T01:00:00Z" (1553994000) transition_time 0x1a8-0x1ab.7 (4)
0x1a0|                                    5d b4 ec 10|            ]...|      [96]: "2019-10-27T01:00:00Z" (1572138000) transition_time 0x1ac-0x1af.7 (4)
0x1b0|5e 7f f3 10                                    |^...            |      [97]: "2020-03-29T01:00:00Z" (1585443600) transition_time 0x1b0-0x1b3.7 (4)
0x1b0|            5f 94 ce 10                        |    _...        |      [98]: "2020-10-25T01:00:00Z" (1603587600) transition_time 0x1b4-0x1b7.7 (4)
0x1b0|                        60 5f d5 10            |        `_..    |      [99]: "2021-03-28T01:00:00Z" (1616893200) transition_time 0x1b8-0x1bb.7 (4)
0x1b0|                                    61 7d ea 90|            a}..|      [100]: "2021-10-31T01:00:00Z" (1635642000) transition_time 0x1bc-0x1bf.7 (4)
0x1c0|62 3f b7 10                                    |b?..            |      [101]: "2022-03-27T01:00:00Z" (1648342800) transition_time 0x1c0-0x1c3.7 (4)
0x1c0|            63 5d cc 90                        |    c]..        |      [102]: "2022-10-30T01:00:00Z" (1667091600) transition_time 0x1c4-0x1c7.7 (4)
0x1c0|                        64 1f 99 10            |        d...    |      [103]: "2023-03-26T01:00:00Z" (1679792400) transition_time 0x1c8-0x1cb.7 (4)
0x1c0|                                    65 3d ae 90|            e=..|      [104]: "2023-10-29T01:00:00Z" (1698541200) transition_time 0x1cc-0x1cf.7 (4)
0x1d0|66 08 b5 90                                    |f...            |      [105]: "2024-03-31T01:00:00Z" (1711846800) transition_time 0x1d0-0x1d3.7 (4)
0x1d0|            67 1d 90 90                        |    g...        |      [106]: "2024-10-27T01:00:00Z" (1729990800) transition_time 0x1d4-0x1d7.7 (4)
0x1d0|                        67 e8 97 90            |        g...    |      [107]: "2025-03-30T01:00:00Z" (1743296400) transition_time 0x1d8-0x1db.7 (4)
0x1d0|                                    68 fd 72 90|            h.r.|      [108]: "2025-10-26T01:00:00Z" (1761440400) transition_time 0x1dc-0x1df.7 (4)
0x1e0|69 c8 79 90                                    |i.y.            |      [109]: "2026-03-29T01:00:00Z" (1774746000) transition_time 0x1e0-0x1e3.7 (4)
0x1e0|            6a dd 54 90                        |    j.T.        |      [110]: "2026-10-25T01:00:00Z" (1792890000) transition_time 0x1e4-0x1e7.7 (4)
0x1e0|                        6b a8 5b 90            |        k.[.    |      [111]: "2027-03-28T01:00:00Z" (1806195600) transition_time 0x1e8-0x1eb.7 (4)
0x1e0|                                    6c c6 71 10|            l.q.|      [112]: "2027-10-31T01:00:00Z" (1824944400) transition_time 0x1ec-0x1ef.7 (4)
0x1f0|6d 88 3d 90                                    |m.=.            |      [113]: "2028-03-26T01:00:00Z" (1837645200) transition_time 0x1f0-0x1f3.7 (4)
0x1f0|            6e a6 53 10                        |    n.S.        |      [114]: "2028-10-29T01:00:00Z" (1856394000) transition_time 0x1f4-0x1f7.7 (4)
0x1f0|                        6f 68 1f 90            |        oh..    |      [115]: "2029-03-25T01:00:00Z" (1869094800) transition_time 0x1f8-0x1fb.7 (4)
0x1f0|                                    70 86 35 10|            p.5.|      [116]: "2029-10-28T01:00:00Z" (1887843600) transition_time 0x1fc-0x1ff.7 (4)
0x200|71 51 3c 10                                    |qQ<.            |      [117]: "2030-03-31T01:00:00Z" (1901149200) transition_time 0x200-0x203.7 (4)
0x200|            72 66 17 10                        |    rf..        |      [118]: "2030-10-27T01:00:00Z" (1919293200) transition_time 0x204-0x207.7 (4)
0x200|                        73 31 1e 10            |        s1..    |      [119]: "2031-03-30T01:00:00Z" (1932598800) transition_time 0x208-0x20b.7 (4)
0x200|                                    74 45 f9 10|            tE..|      [120]: "2031-10-26T01:00:00Z" (1950742800) transition_time 0x20c-0x20f.7 (4)
0x210|75 11 00 10                                    |u...            |      [121]: "2032-03-28T01:00:00Z" (1964048400) transition_time 0x210-0x213.7 (4)
0x210|            76 2f 15 90                        |    v/..        |      [122]: "2032-10-31T01:00:00Z" (1982797200) transition_time 0x214-0x217.7 (4)
0x210|                        76 f0 e2 10            |        v...    |      [123]: "2033-03-27T01:00:00Z" (1995498000) transition_time 0x218-0x21b.7 (4)
0x210|                                    78 0e f7 90|            x...|      [124]: "2033-10-30T01:00:00Z" (2014246800) transition_time 0x21c-0x21f.7 (4)
0x220|78 d0 c4 10                                    |x...            |      [125]: "2034-03-26T01:00:00Z" (2026947600) transition_time 0x220-0x223.7 (4)
0x220|            79 ee d9 90                        |    y...        |      [126]: "2034-10-29T01:00:00Z" (2045696400) transition_time 0x224-0x227.7 (4)
0x220|                        7a b0 a6 10            |        z...    |      [127]: "2035-03-25T01:00:00Z" (2058397200) transition_time 0x228-0x22b.7 (4)
0x220|                                    7b ce bb 90|            {...|      [128]: "2035-10-28T01:00:00Z" (2077146000) transition_time 0x22c-0x22f.7 (4)
0x230|7c 99 c2 90                                    ||...            |      [129]: "2036-03-30T01:00:00Z" (2090451600) transition_time 0x230-0x233.7 (4)
0x230|            7d ae 9d 90                        |    }...        |      [130]: "2036-10-26T01:00:00Z" (2108595600) transition_time 0x234-0x237.7 (4)
0x230|                        7e 79 a4 90            |        ~y..    |      [131]: "2037-03-29T01:00:00Z" (2121901200) transition_time 0x238-0x23b.7 (4)
0x230|                                    7f 8e 7f 90|            ....|      [132]: "2037-10-25T01:00:00Z" (2140045200) transition_time 0x23c-0x23f.7 (4)
     |                                               |                |    transition_types[0:133]: 0x240-0x2c4.7 (133)
0x240|01                                             |.               |      [0]: 1 transition_type 0x240-0x240.7 (1)
0x240|   02                                          | .              |      [1]: 2 transition_type 0x241-0x241.7 (1)
0x240|      01                                       |  .             |      [2]: 1 transition_type 0x242-0x242.7 (1)
0x240|         02                                    |   .            |      [3]: 2 transition_type 0x243-0x243.7 (1)
0x240|            01                                 |    .           |      [4]: 1 transition_type 0x244-0x244.7 (1)
0x240|               02                              |     .          |      [5]: 2 transition_type 0x245-0x245.7 (1)
0x240|                  01                           |      .         |      [6]: 1 transition_type 0x246-0x246.7 (1)
0x240|                     02                        |       .        |      [7]: 2 transition_type 0x247-0x247.7 (1)
0x240|                        01                     |        .       |      [8]: 1 transition_type 0x248-0x248.7 (1)
0x240|                           02                  |         .      |      [9]: 2 transition_type 0x249-0x249.7 (1)
0x240|                              01               |          .     |      [10]: 1 transition_type 0x24a-0x24a.7 (1)
0x240|                                 02            |           .    |      [11]: 2 transition_type 0x24b-0x24b.7 (1)
0x240|                                    01         |            .   |      [12]: 1 transition_type 0x24c-0x24c.7 (1)
0x240|                                       02      |             .  |      [13]: 2 transition_type 0x24d-0x24d.7 (1)
0x240|                                          01   |              . |      [14]: 1 transition_type 0x24e-0x24e.7 (1)
0x240|                                             02|               .|      [15]: 2 transition_type 0x24f-0x24f.7 (1)
0x250|01                                             |.               |      [16]: 1 transition_type 0x250-0x250.7 (1)
0x250|   02                                          | .              |      [17]: 2 transition_type 0x251-0x251.7 (1)
0x250|      01                                       |  .             |      [18]: 1 transition_type 0x252-0x252.7 (1)
0x250|         02                                    |   .            |      [19]: 2 transition_type 0x253-0x253.7 (1)
0x250|            01                                 |    .           |      [20]: 1 transition_type 0x254-0x254.7 (1)
0x250|               02                              |     .          |      [21]: 2 transition_type 0x255-0x255.7 (1)
0x250|                  01                           |      .         |      [22]: 1 transition_type 0x256-0x256.7 (1)
0x250|                     02                        |       .        |      [23]: 2 transition_type 0x257-0x257.7 (1)
0x250|                        01                     |        .       |      [24]: 1 transition_type 0x258-0x258.7 (1)
0x250|                           02                  |         .      |      [25]: 2 transition_type 0x259-0x259.7 (1)
0x250|                              03               |          .     |      [26]: 3 transition_type 0x25a-0x25a.7 (1)
0x250|                                 04            |           .    |      [27]: 4 transition_type 0x25b-0x25b.7 (1)
0x250|                                    03         |            .   |      [28]: 3 transition_type 0x25c-0x25c.7 (1)
0x250|                                       04      |             .  |      [29]: 4 transition_type 0x25d-0x25d.7 (1)
0x250|                                          03   |              . |      [30]: 3 transition_type 0x25e-0x25e.7 (1)
0x250|                                             04|               .|      [31]: 4 transition_type 0x25f-0x25f.7 (1)
0x260|03                                             |.               |      [32]: 3 transition_type 0x260-0x260.7 (1)
0x260|   04                                          | .              |      [33]: 4 transition_type 0x261-0x261.7 (1)
0x260|      03                                       |  .             |      [34]: 3 transition_type 0x262-0x262.7 (1)
0x260|         04                                    |   .            |      [35]: 4 transition_type 0x263-0x263.7 (1)
0x260|            03                                 |    .           |      [36]: 3 transition_type 0x264-0x264.7 (1)
0x260|               04                              |     .          |      [37]: 4 transition_type 0x265-0x265.7 (1)
0x260|                  03                           |      .         |      [38]: 3 transition_type 0x266-0x266.7 (1)
0x260|                     04                        |       .        |      [39]: 4 transition_type 0x267-0x267.7 (1)
0x260|                        03                     |        .       |      [40]: 3 transition_type 0x268-0x268.7 (1)
0x260|                           04                  |         .      |      [41]: 4 transition_type 0x269-0x269.7 (1)
0x260|                              03               |          .     |      [42]: 3 transition_type 0x26a-0x26a.7 (1)
0x260|                                 04            |           .    |      [43]: 4 transition_type 0x26b-0x26b.7 (1)
0x260|                                    03         |            .   |      [44]: 3 transition_type 0x26c-0x26c.7 (1)
0x260|                                       04      |             .  |      [45]: 4 transition_type 0x26d-0x26d.7 (1)
0x260|                                          03   |              . |      [46]: 3 transition_type 0x26e-0x26e.7 (1)
0x260|                                             04|               .|      [47]: 4 transition_type 0x26f-0x26f.7 (1)
0x270|03                                             |.               |      [48]: 3 transition_type 0x270-0x270.7 (1)
0x270|   04                                          | .              |      [49]: 4 transition_type 0x271-0x271.7 (1)
0x270|      03                                       |  .             |      [50]: 3 transition_type 0x272-0x272.7 (1)
0x270|         04                                    |   .            |      [51]: 4 transition_type 0x273-0x273.7 (1)
0x270|            03                                 |    .           |      [52]: 3 transition_type 0x274-0x274.7 (1)
0x270|               04                              |     .          |      [53]: 4 transition_type 0x275-0x275.7 (1)
0x270|                  03                           |      .         |      [54]: 3 transition_type 0x276-0x276.7 (1)
0x270|                     04                        |       .        |      [55]: 4 transition_type 0x277-0x277.7 (1)
0x270|                        03                     |        .       |      [56]: 3 transition_type 0x278-0x278.7 (1)
0x270|                           04                  |         .      |      [57]: 4 transition_type 0x279-0x279.7 (1)
0x270|                              03               |          .     |      [58]: 3 transition_type 0x27a-0x27a.7 (1)
0x270|                                 04            |           .    |      [59]: 4 transition_type 0x27b-0x27b.7 (1)
0x270|                                    03         |            .   |      [60]: 3 transition_type 0x27c-0x27c.7 (1)
0x270|                                       04      |             .  |      [61]: 4 transition_type 0x27d-0x27d.7 (1)
0x270|                                          03   |              . |      [62]: 3 transition_type 0x27e-0x27e.7 (1)
0x270|                                             04|               .|      [63]: 4 transition_type 0x27f-0x27f.7 (1)
0x280|03                                             |.               |      [64]: 3 transition_type 0x280-0x280.7 (1)
0x280|   04                                          | .              |      [65]: 4 transition_type 0x281-0x281.7 (1)
0x280|      03                                       |  .             |      [66]: 3 transition_type 0x282-0x282.7 (1)
0x280|         04                                    |   .            |      [67]: 4 transition_type 0x283-0x283.7 (1)
0x280|            03                                 |    .           |      [68]: 3 transition_type 0x284-0x284.7 (1)
0x280|               04                              |     .          |      [69]: 4 transition_type 0x285-0x285.7 (1)
0x280|                  03                           |      .         |      [70]: 3 transition_type 0x286-0x286.7 (1)
0x280|                     04                        |       .        |      [71]: 4 transition_type 0x287-0x287.7 (1)
0x280|                        03                     |        .       |      [72]: 3 transition_type 0x288-0x288.7 (1)
0x280|                           04                  |         .      |      [73]: 4 transition_type 0x289-0x289.7 (1)
0x280|                              03               |          .     |      [74]: 3 transition_type 0x28a-0x28a.7 (1)
0x280|                                 04            |           .    |      [75]: 4 transition_type 0x28b-0x28b.7 (1)
0x280|                                    03         |            .   |      [76]: 3 transition_type 0x28c-0x28c.7 (1)
0x280|                                       04      |             .  |      [77]: 4 transition_type 0x28d-0x28d.7 (1)
0x280|                                          03   |              . |      [78]: 3 transition_type 0x28e-0x28e.7 (1)
0x280|                                             04|               .|      [79]: 4 transition_type 0x28f-0x28f.7 (1)
0x290|03                                             |.               |      [80]: 3 transition_type 0x290-0x290.7 (1)
0x290|   04                                          | .              |      [81]: 4 transition_type 0x291-0x291.7 (1)
0x290|      03                                       |  .             |      [82]: 3 transition_type 0x292-0x292.7 (1)
0x290|         04                                    |   .            |      [83]: 4 transition_type 0x293-0x293.7 (1)
0x290|            03                                 |    .           |      [84]: 3 transition_type 0x294-0x294.7 (1)
0x290|               04                              |     .          |      [85]: 4 transition_type 0x295-0x295.7 (1)
0x290|                  03                           |      .         |      [86]: 3 transition_type 0x296-0x296.7 (1)
0x290|                     04                        |       .        |      [87]: 4 transition_type 0x297-0x297.7 (1)
0x290|                        03                     |        .       |      [88]: 3 transition_type 0x298-0x298.7 (1)
0x290|                           04                  |         .      |      [89]: 4 transition_type 0x299-0x299.7 (1)
0x290|                              03               |          .     |      [90]: 3 transition_type 0x29a-0x29a.7 (1)
0x290|                                 04            |           .    |      [91]: 4 transition_type 0x29b-0x29b.7 (1)
0x290|                                    03         |            .   |      [92]: 3 transition_type 0x29c-0x29c.7 (1)
0x290|                                       04      |             .  |      [93]: 4 transition_type 0x29d-0x29d.7 (1)
0x290|                                          03   |              . |      [94]: 3 transition_type 0x29e-0x29e.7 (1)
0x290|                                             04|               .|      [95]: 4 transition_type 0x29f-0x29f.7 (1)
0x2a0|03                                             |.               |      [96]: 3 transition_type 0x2a0-0x2a0.7 (1)
0x2a0|   04                                          | .              |      [97]: 4 transition_type 0x2a1-0x2a1.7 (1)
0x2a0|      03                                       |  .             |      [98]: 3 transition_type 0x2a2-0x2a2.7 (1)
0x2a0|         04                                    |   .            |      [99]: 4 transition_type 0x2a3-0x2a3.7 (1)
0x2a0|            03                                 |    .           |      [100]: 3 transition_type 0x2a4-0x2a4.7 (1)
0x2a0|               04                              |     .          |      [101]: 4 transition_type 0x2a5-0x2a5.7 (1)
0x2a0|                  03                           |      .         |      [102]: 3 transition_type 0x2a6-0x2a6.7 (1)
0x2a0|                     04                        |       .        |      [103]: 4 transition_type 0x2a7-0x2a7.7 (1)
0x2a0|                        03                     |        .       |      [104]: 3 transition_type 0x2a8-0x2a8.7 (1)
0x2a0|                           04                  |         .      |      [105]: 4 transition_type 0x2a9-0x2a9.7 (1)
0x2a0|                              03               |          .     |      [106]: 3 transition_type 0x2aa-0x2aa.7 (1)
0x2a0|                                 04            |           .    |      [107]: 4 transition_type 0x2ab-0x2ab.7 (1)
0x2a0|                                    03         |            .   |      [108]: 3 transition_type 0x2ac-0x2ac.7 (1)
0x2a0|                                       04      |             .  |      [109]: 4 transition_type 0x2ad-0x2ad.7 (1)
0x2a0|                                          03   |              . |      [110]: 3 transition_type 0x2ae-0x2ae.7 (1)
0x2a0|                                             04|               .|      [111]: 4 transition_type 0x2af-0x2af.7 (1)
0x2b0|03                                             |.               |      [112]: 3 transition_type 0x2b0-0x2b0.7 (1)
0x2b0|   04                                          | .              |      [113]: 4 transition_type 0x2b1-0x2b1.7 (1)
0x2b0|      03                                       |  .             |      [114]: 3 transition_type 0x2b2-0x2b2.7 (1)
0x2b0|         04                                    |   .            |      [115]: 4 transition_type 0x2b3-0x2b3.7 (1)
0x2b0|            03                                 |    .           |      [116]: 3 transition_type 0x2b4-0x2b4.7 (1)
0x2b0|               04                              |     .          |      [117]: 4 transition_type 0x2b5-0x2b5.7 (1)
0x2b0|                  03                           |      .         |      [118]: 3 transition_type 0x2b6-0x2b6.7 (1)
0x2b0|                     04                        |       .        |      [119]: 4 transition_type 0x2b7-0x2b7.7 (1)
0x2b0|                        03                     |        .       |      [120]: 3 transition_type 0x2b8-0x2b8.7 (1)
0x2b0|                           04                  |         .      |      [121]: 4 transition_type 0x2b9-0x2b9.7 (1)
0x2b0|                              03               |          .     |      [122]: 3 transition_type 0x2ba-0x2ba.7 (1)
0x2b0|                                 04            |           .    |      [123]: 4 transition_type 0x2bb-0x2bb.7 (1)
0x2b0|                                    03         |            .   |      [124]: 3 transition_type 0x2bc-0x2bc.7 (1)
0x2b0|                                       04      |             .  |      [125]: 4 transition_type 0x2bd-0x2bd.7 (1)
0x2b0|                                          03   |              . |      [126]: 3 transition_type 0x2be-0x2be.7 (1)
0x2b0|                                             04|               .|      [127]: 4 transition_type 0x2bf-0x2bf.7 (1)
0x2c0|03                                             |.               |      [128]: 3 transition_type 0x2c0-0x2c0.7 (1)
0x2c0|   04                                          | .              |      [129]: 4 transition_type 0x2c1-0x2c1.7 (1)
0x2c0|      03                                       |  .             |      [130]: 3 transition_type 0x2c2-0x2c2.7 (1)
0x2c0|         04                                    |   .            |      [131]: 4 transition_type 0x2c3-0x2c3.7 (1)
0x2c0|            03                                 |    .           |      [132]: 3 transition_type 0x2c4-0x2c4.7 (1)
     |                                               |                |    local_time_type_records[0:5]: 0x2c5-0x2e2.7 (30)
     |                                               |                |      [0]{}: local_time_type 0x2c5-0x2ca.7 (6)
0x2c0|               00 00 12 98                     |     ....       |        utoff: 4760 (valid) 0x2c5-0x2c8.7 (4)
0x2c0|                           00                  |         .      |        dst: 0 (valid) 0x2c9-0x2c9.7 (1)
0x2c0|                              00               |          .     |        idx: 0 (valid) 0x2ca-0x2ca.7 (1)
     |                                               |                |      [1]{}: local_time_type 0x2cb-0x2d0.7 (6)
0x2c0|                                 00 00 0e 10   |           .... |        utoff: 3600 (valid) 0x2cb-0x2ce.7 (4)
0x2c0|                                             00|               .|        dst: 0 (valid) 0x2cf-0x2cf.7 (1)
0x2d0|04                                             |.               |        idx: 4 (valid) 0x2d0-0x2d0.7 (1)
     |                                               |                |      [2]{}: local_time_type 0x2d1-0x2d6.7 (6)
0x2d0|   00 00 1c 20                                 | ...            |        utoff: 7200 (valid) 0x2d1-0x2d4.7 (4)
0x2d0|               01                              |     .          |        dst: 1 (valid) 0x2d5-0x2d5.7 (1)
0x2d0|                  08                           |      .         |        idx: 8 (valid) 0x2d6-0x2d6.7 (1)
     |                                               |                |      [3]{}: local_time_type 0x2d7-0x2dc.7 (6)
0x2d0|                     00 00 0e 10               |       ....     |        utoff: 3600 (valid) 0x2d7-0x2da.7 (4)
0x2d0|                                 00            |           .    |        dst: 0 (valid) 0x2db-0x2db.7 (1)
0x2d0|                                    04         |            .   |        idx: 4 (valid) 0x2dc-0x2dc.7 (1)
     |                                               |                |      [4]{}: local_time_type 0x2dd-0x2e2.7 (6)
0x2d0|                                       00 00 1c|             ...|        utoff: 7200 (valid) 0x2dd-0x2e0.7 (4)
0x2e0|20                                             |                |
0x2e0|   01                                          | .              |        dst: 1 (valid) 0x2e1-0x2e1.7 (1)
0x2e0|      08                                       |  .             |        idx: 8 (valid) 0x2e2-0x2e2.7 (1)
     |                                               |                |    time_zone_designations[0:3]: 0x2e3-0x2ef.7 (13)
0x2e0|         4c 4d 54 00                           |   LMT.         |      [0]: "LMT" time_zone_designation 0x2e3-0x2e6.7 (4)
0x2e0|                     43 45 54 00               |       CET.     |      [1]: "CET" time_zone_designation 0x2e7-0x2ea.7 (4)
0x2e0|                                 43 45 53 54 00|           CEST.|      [2]: "CEST" time_zone_designation 0x2eb-0x2ef.7 (5)
     |                                               |                |    leap_second_records[0:0]: 0x2f0-NA (0)
     |                                               |                |    standard_wall_indicators[0:5]: 0x2f0-0x2f4.7 (5)
0x2f0|00                                             |.               |      [0]: 0 standard_wall_indicator (valid) 0x2f0-0x2f0.7 (1)
0x2f0|   00                                          | .              |      [1]: 0 standard_wall_indicator (valid) 0x2f1-0x2f1.7 (1)
0x2f0|      00                                       |  .             |      [2]: 0 standard_wall_indicator (valid) 0x2f2-0x2f2.7 (1)
0x2f0|         01                                    |   .            |      [3]: 1 standard_wall_indicator (valid) 0x2f3-0x2f3.7 (1)
0x2f0|            01                                 |    .           |      [4]: 1 standard_wall_indicator (valid) 0x2f4-0x2f4.7 (1)
     |                                               |                |    ut_local_indicators[0:5]: 0x2f5-0x2f9.7 (5)
0x2f0|               00                              |     .          |      [0]: 0 ut_local_indicator (valid) 0x2f5-0x2f5.7 (1)
0x2f0|                  00                           |      .         |      [1]: 0 ut_local_indicator (valid) 0x2f6-0x2f6.7 (1)
0x2f0|                     00                        |       .        |      [2]: 0 ut_local_indicator (valid) 0x2f7-0x2f7.7 (1)
0x2f0|                        01                     |        .       |      [3]: 1 ut_local_indicator (valid) 0x2f8-0x2f8.7 (1)
0x2f0|                           01                  |         .      |      [4]: 1 ut_local_indicator (valid) 0x2f9-0x2f9.7 (1)
     |                                               |                |  v2plusheader{}: 0x2fa-0x325.7 (44)
0x2f0|                              54 5a 69 66      |          TZif  |    magic: 0x545a6966 (valid) 0x2fa-0x2fd.7 (4)
0x2f0|                                          32   |              2 |    ver: "2" (0x32) (valid) 0x2fe-0x2fe.7 (1)
0x2f0|                                             00|               .|    reserved: raw bits 0x2ff-0x30d.7 (15)
0x300|00 00 00 00 00 00 00 00 00 00 00 00 00 00      |..............  |
0x300|                                          00 00|              ..|    isutcnt: 5 0x30e-0x311.7 (4)
0x310|00 05                                          |..              |
0x310|      00 00 00 05                              |  ....          |    isstdcnt: 5 0x312-0x315.7 (4)
0x310|                  00 00 00 00                  |      ....      |    leapcnt: 0 0x316-0x319.7 (4)
0x310|                              00 00 00 85      |          ....  |    timecnt: 133 0x31a-0x31d.7 (4)
0x310|                                          00 00|              ..|    typecnt: 5 0x31e-0x321.7 (4)
0x320|00 05                                          |..              |
0x320|      00 00 00 0d                              |  ....          |    charcnt: 13 0x322-0x325.7 (4)
     |                                               |                |  v2plusdatablock{}: 0x326-0x807.7 (1250)
     |                                               |                |    transition_times[0:133]: 0x326-0x74d.7 (1064)
0x320|                  ff ff ff ff 96 aa 34 68      |      ......4h  |      [0]: "1913-12-31T22:40:40Z" (-1767230360) transition_time 0x326-0x32d.7 (8)
0x320|                                          ff ff|              ..|      [1]: "1940-06-15T23:00:00Z" (-932346000) transition_time 0x32e-0x335.7 (8)
0x330|ff ff c8 6d 87 70                              |...m.p          |
0x330|                  ff ff ff ff cc e7 4b 10      |      ......K.  |      [2]: "1942-11-02T01:00:00Z" (-857257200) transition_time 0x336-0x33d.7 (8)
0x330|                                          ff ff|              ..|      [3]: "1943-03-29T01:00:00Z" (-844556400) transition_time 0x33e-0x345.7 (8)
0x340|ff ff cd a9 17 90                              |......          |
0x340|                  ff ff ff ff cd b8 e9 90      |      ........  |      [4]: "1943-04-10T01:00:00Z" (-843519600) transition_time 0x346-0x34d.7 (8)
0x340|                                          00 00|              ..|      [5]: "1974-05-03T23:00:00Z" (136854000) transition_time 0x34e-0x355.7 (8)
0x350|00 00 08 28 39 f0                              |...(9.          |
0x350|                  00 00 00 00 08 ef 3e 60      |      ......>`  |      [6]: "1974-10-01T22:00:00Z" (149896800) transition_time 0x356-0x35d.7 (8)
0x350|                                          00 00|              ..|      [7]: "1975-04-30T23:00:00Z" (168130800) transition_time 0x35e-0x365.7 (8)
0x360|00 00 0a 05 78 f0                              |....x.          |
0x360|                  00 00 00 00 0a d0 71 e0      |      ......q.  |      [8]: "1975-10-01T22:00:00Z" (181432800) transition_time 0x366-0x36d.7 (8)
0x360|                                          00 00|              ..|      [9]: "1976-05-01T23:00:00Z" (199839600) transition_time 0x36e-0x375.7 (8)
0x370|00 00 0b e9 4f 70                              |....Op          |
0x370|                  00 00 00 00 0c b4 48 60      |      ......H`  |      [10]: "1976-10-02T22:00:00Z" (213141600) transition_time 0x376-0x37d.7 (8)
0x370|                                          00 00|              ..|      [11]: "1977-05-07T23:00:00Z" (231894000) transition_time 0x37e-0x385.7 (8)
0x380|00 00 0d d2 6b f0                              |....k.          |
0x380|                  00 00 00 00 0e 94 2a 60      |      ......*`  |      [12]: "1977-10-01T22:00:00Z" (244591200) transition_time 0x386-0x38d.7 (8)
0x380|                                          00 00|              ..|      [13]: "1978-05-05T23:00:00Z" (263257200) transition_time 0x38e-0x395.7 (8)
0x390|00 00 0f b0 fc 70                              |.....p          |
0x390|                  00 00 00 00 10 74 0c 60      |      .....t.`  |      [14]: "1978-09-30T22:00:00Z" (276040800) transition_time 0x396-0x39d.7 (8)
0x390|                                          00 00|              ..|      [15]: "1979-05-04T23:00:00Z" (294706800) transition_time 0x39e-0x3a5.7 (8)
0x3a0|00 00 11 90 de 70                              |.....p          |
0x3a0|                  00 00 00 00 12 53 ee 60      |      .....S.`  |      [16]: "1979-09-29T22:00:00Z" (307490400) transition_time 0x3a6-0x3ad.7 (8)
0x3a0|                                          00 00|              ..|      [17]: "1980-05-02T23:00:00Z" (326156400) transition_time 0x3ae-0x3b5.7 (8)
0x3b0|00 00 13 70 c0 70                              |...p.p          |
0x3b0|                  00 00 00 00 14 3b b9 60      |      .....;.`  |      [18]: "1980-10-03T22:00:00Z" (339458400) transition_time 0x3b6-0x3bd.7 (8)
0x3b0|                                          00 00|              ..|      [19]: "1981-04-25T23:00:00Z" (357087600) transition_time 0x3be-0x3c5.7 (8)
0x3c0|00 00 15 48 b9 70                              |...H.p          |
0x3c0|                  00 00 00 00 16 13 b2 60      |      .......`  |      [20]: "1981-09-26T22:00:00Z" (370389600) transition_time 0x3c6-0x3cd.7 (8)
0x3c0|                                          00 00|              ..|      [21]: "1982-05-01T23:00:00Z" (389142000) transition_time 0x3ce-0x3d5.7 (8)
0x3d0|00 00 17 31 d5 f0                              |...1..          |
0x3d0|                  00 00 00 00 17 fc ce e0      |      ........  |      [22]: "1982-10-02T22:00:00Z" (402444000) transition_time 0x3d6-0x3dd.7 (8)
0x3d0|                                          00 00|              ..|      [23]: "1983-04-17T23:00:00Z" (419468400) transition_time 0x3de-0x3e5.7 (8)
0x3e0|00 00 19 00 94 70                              |.....p          |
0x3e0|                  00 00 00 00 19 db 5f 60      |      ......_`  |      [24]: "1983-09-30T22:00:00Z" (433807200) transition_time 0x3e6-0x3ed.7 (8)
0x3e0|                                          00 00|              ..|      [25]: "1984-03-31T23:00:00Z" (449622000) transition_time 0x3ee-0x3f5.7 (8)
0x3f0|00 00 1a cc af f0                              |......          |
0x3f0|                  00 00 00 00 1b bc bd 10      |      ........  |      [26]: "1984-09-30T01:00:00Z" (465354000) transition_time 0x3f6-0x3fd.7 (8)
0x3f0|                                          00 00|              ..|      [27]: "1985-03-31T01:00:00Z" (481078800) transition_time 0x3fe-0x405.7 (8)
0x400|00 00 1c ac ae 10                              |......          |
0x400|                  00 00 00 00 1d 9c 9f 10      |      ........  |      [28]: "1985-09-29T01:00:00Z" (496803600) transition_time 0x406-0x40d.7 (8)
0x400|                                          00 00|              ..|      [29]: "1986-03-30T01:00:00Z" (512528400) transition_time 0x40e-0x415.7 (8)
0x410|00 00 1e 8c 90 10                              |......          |
0x410|                  00 00 00 00 1f 7c 81 10      |      .....|..  |      [30]: "1986-09-28T01:00:00Z" (528253200) transition_time 0x416-0x41d.7 (8)
0x410|                                          00 00|              ..|      [31]: "1987-03-29T01:00:00Z" (543978000) transition_time 0x41e-0x425.7 (8)
0x420|00 00 20 6c 72 10                              |.. lr.          |
0x420|                  00 00 00 00 21 5c 63 10      |      ....!\c.  |      [32]: "1987-09-27T01:00:00Z" (559702800) transition_time 0x426-0x42d.7 (8)
0x420|                                          00 00|              ..|      [33]: "1988-03-27T01:00:00Z" (575427600) transition_time 0x42e-0x435.7 (8)
0x430|00 00 22 4c 54 10                              |.."LT.          |
0x430|                  00 00 00 00 23 3c 45 10      |      ....#<E.  |      [34]: "1988-09-25T01:00:00Z" (591152400) transition_time 0x436-0x43d.7 (8)
0x430|                                          00 00|              ..|      [35]: "1989-03-26T01:00:00Z" (606877200) transition_time 0x43e-0x445.7 (8)
0x440|00 00 24 2c 36 10                              |..$,6.          |
0x440|                  00 00 00 00 25 1c 27 10      |      ....%.'.  |      [36]: "1989-09-24T01:00:00Z" (622602000) transition_time 0x446-0x44d.7 (8)
0x440|                                          00 00|              ..|      [37]: "1990-03-25T01:00:00Z" (638326800) transition_time 0x44e-0x455.7 (8)
0x450|00 00 26 0c 18 10                              |..&...          |
0x450|                  00 00 00 00 27 05 43 90      |      ....'.C.  |      [38]: "1990-09-30T01:00:00Z" (654656400) transition_time 0x456-0x45d.7 (8)
0x450|                                          00 00|              ..|      [39]: "1991-03-31T01:00:00Z" (670381200) transition_time 0x45e-0x465.7 (8)
0x460|00 00 27 f5 34 90                              |..'.4.          |
0x460|                  00 00 00 00 28 e5 25 90      |      ....(.%.  |      [40]: "1991-09-29T01:00:00Z" (686106000) transition_time 0x466-0x46d.7 (8)
0x460|                                          00 00|              ..|      [41]: "1992-03-29T01:00:00Z" (701830800) transition_time 0x46e-0x475.7 (8)
0x470|00 00 29 d5 16 90                              |..)...          |
0x470|                  00 00 00 00 2a c5 07 90      |      ....*...  |      [42]: "1992-09-27T01:00:00Z" (717555600) transition_time 0x476-0x47d.7 (8)
0x470|                                          00 00|              ..|      [43]: "1993-03-28T01:00:00Z" (733280400) transition_time 0x47e-0x485.7 (8)
0x480|00 00 2b b4 f8 90                              |..+...          |
0x480|                  00 00 00 00 2c a4 e9 90      |      ....,...  |      [44]: "1993-09-26T01:00:00Z" (749005200) transition_time 0x486-0x48d.7 (8)
0x480|                                          00 00|              ..|      [45]: "1994-03-27T01:00:00Z" (764730000) transition_time 0x48e-0x495.7 (8)
0x490|00 00 2d 94 da 90                              |..-...          |
0x490|                  00 00 00 00 2e 84 cb 90      |      ........  |      [46]: "1994-09-25T01:00:00Z" (780454800) transition_time 0x496-0x49d.7 (8)
0x490|                                          00 00|              ..|      [47]: "1995-03-26T01:00:00Z" (796179600) transition_time 0x49e-0x4a5.7 (8)
0x4a0|00 00 2f 74 bc 90                              |../t..          |
0x4a0|                  00 00 00 00 30 64 ad 90      |      ....0d..  |      [48]: "1995-09-24T01:00:00Z" (811904400) transition_time 0x4a6-0x4ad.7 (8)
0x4a0|                                          00 00|              ..|      [49]: "1996-03-31T01:00:00Z" (828234000) transition_time 0x4ae-0x4b5.7 (8)
0x4b0|00 00 31 5d d9 10                              |..1]..          |
0x4b0|                  00 00 00 00 32 72 b4 10      |      ....2r..  |      [50]: "1996-10-27T01:00:00Z" (846378000) transition_time 0x4b6-0x4bd.7 (8)
0x4b0|                                          00 00|              ..|      [51]: "1997-03-30T01:00:00Z" (859683600) transition_time 0x4be-0x4c5.7 (8)
0x4c0|00 00 33 3d bb 10                              |..3=..          |
0x4c0|                  00 00 00 00 34 52 96 10      |      ....4R..  |      [52]: "1997-10-26T01:00:00Z" (877827600) transition_time 0x4c6-0x4cd.7 (8)
0x4c0|                                          00 00|              ..|      [53]: "1998-03-29T01:00:00Z" (891133200) transition_time 0x4ce-0x4d5.7 (8)
0x4d0|00 00 35 1d 9d 10                              |..5...          |
0x4d0|                  00 00 00 00 36 32 78 10      |      ....62x.  |      [54]: "1998-10-25T01:00:00Z" (909277200) transition_time 0x4d6-0x4dd.7 (8)
0x4d0|                                          00 00|              ..|      [55]: "1999-03-28T01:00:00Z" (922582800) transition_time 0x4de-0x4e5.7 (8)
0x4e0|00 00 36 fd 7f 10                              |..6...          |
0x4e0|                  00 00 00 00 38 1b 94 90      |      ....8...  |      [56]: "1999-10-31T01:00:00Z" (941331600) transition_time 0x4e6-0x4ed.7 (8)
0x4e0|                                          00 00|              ..|      [57]: "2000-03-26T01:00:00Z" (954032400) transition_time 0x4ee-0x4f5.7 (8)
0x4f0|00 00 38 dd 61 10                              |..8.a.          |
0x4f0|                  00 00 00 00 39 fb 76 90      |      ....9.v.  |      [58]: "2000-10-29T01:00:00Z" (972781200) transition_time 0x4f6-0x4fd.7 (8)
0x4f0|                                          00 00|              ..|      [59]: "2001-03-25T01:00:00Z" (985482000) transition_time 0x4fe-0x505.7 (8)
0x500|00 00 3a bd 43 10                              |..:.C.          |
0x500|                  00 00 00 00 3b db 58 90      |      ....;.X.  |      [60]: "2001-10-28T01:00:00Z" (1004230800) transition_time 0x506-0x50d.7 (8)
0x500|                                          00 00|              ..|      [61]: "2002-03-31T01:00:00Z" (1017536400) transition_time 0x50e-0x515.7 (8)
0x510|00 00 3c a6 5f 90                              |..<._.          |
0x510|                  00 00 00 00 3d bb 3a 90      |      ....=.:.  |      [62]: "2002-10-27T01:00:00Z" (1035680400) transition_time 0x516-0x51d.7 (8)
0x510|                                          00 00|              ..|      [63]: "2003-03-30T01:00:00Z" (1048986000) transition_time 0x51e-0x525.7 (8)
0x520|00 00 3e 86 41 90                              |..>.A.          |
0x520|                  00 00 00 00 3f 9b 1c 90      |      ....?...  |      [64]: "2003-10-26T01:00:00Z" (1067130000) transition_time 0x526-0x52d.7 (8)
0x520|                                          00 00|              ..|      [65]: "2004-03-28T01:00:00Z" (1080435600) transition_time 0x52e-0x535.7 (8)
0x530|00 00 40 66 23 90                              |..@f#.          |
0x530|                  00 00 00 00 41 84 39 10      |      ....A.9.  |      [66]: "2004-10-31T01:00:00Z" (1099184400) transition_time 0x536-0x53d.7 (8)
0x530|                                          00 00|              ..|      [67]: "2005-03-27T01:00:00Z" (1111885200) transition_time 0x53e-0x545.7 (8)
0x540|00 00 42 46 05 90                              |..BF..          |
0x540|                  00 00 00 00 43 64 1b 10      |      ....Cd..  |      [68]: "2005-10-30T01:00:00Z" (1130634000) transition_time 0x546-0x54d.7 (8)
0x540|                                          00 00|              ..|      [69]: "2006-03-26T01:00:00Z" (1143334800) transition_time 0x54e-0x555.7 (8)
0x550|00 00 44 25 e7 90                              |..D%..          |
0x550|                  00 00 00 00 45 43 fd 10      |      ....EC..  |      [70]: "2006-10-29T01:00:00Z" (1162083600) transition_time 0x556-0x55d.7 (8)
0x550|                                          00 00|              ..|      [71]: "2007-03-25T01:00:00Z" (1174784400) transition_time 0x55e-0x565.7 (8)
0x560|00 00 46 05 c9 90                              |..F...          |
0x560|                  00 00 00 00 47 23 df 10      |      ....G#..  |      [72]: "2007-10-28T01:00:00Z" (1193533200) transition_time 0x566-0x56d.7 (8)
0x560|                                          00 00|              ..|      [73]: "2008-03-30T01:00:00Z" (1206838800) transition_time 0x56e-0x575.7 (8)
0x570|00 00 47 ee e6 10                              |..G...          |
0x570|                  00 00 00 00 49 03 c1 10      |      ....I...  |      [74]: "2008-10-26T01:00:00Z" (1224982800) transition_time 0x576-0x57d.7 (8)
0x570|                                          00 00|              ..|      [75]: "2009-03-29T01:00:00Z" (1238288400) transition_time 0x57e-0x585.7 (8)
0x580|00 00 49 ce c8 10                              |..I...          |
0x580|                  00 00 00 00 4a e3 a3 10      |      ....J...  |      [76]: "2009-10-25T01:00:00Z" (1256432400) transition_time 0x586-0x58d.7 (8)
0x580|                                          00 00|              ..|      [77]: "2010-03-28T01:00:00Z" (1269738000) transition_time 0x58e-0x595.7 (8)
0x590|00 00 4b ae aa 10                              |..K...          |
0x590|                  00 00 00 00 4c cc bf 90      |      ....L...  |      [78]: "2010-10-31T01:00:00Z" (1288486800) transition_time 0x596-0x59d.7 (8)
0x590|                                          00 00|              ..|      [79]: "2011-03-27T01:00:00Z" (1301187600) transition_time 0x59e-0x5a5.7 (8)
0x5a0|00 00 4d 8e 8c 10                              |..M...          |
0x5a0|                  00 00 00 00 4e ac a1 90      |      ....N...  |      [80]: "2011-10-30T01:00:00Z" (1319936400) transition_time 0x5a6-0x5ad.7 (8)
0x5a0|                                          00 00|              ..|      [81]: "2012-03-25T01:00:00Z" (1332637200) transition_time 0x5ae-0x5b5.7 (8)
0x5b0|00 00 4f 6e 6e 10                              |..Onn.          |
0x5b0|                  00 00 00 00 50 8c 83 90      |      ....P...  |      [82]: "2012-10-28T01:00:00Z" (1351386000) transition_time 0x5b6-0x5bd.7 (8)
0x5b0|                                          00 00|              ..|      [83]: "2013-03-31T01:00:00Z" (1364691600) transition_time 0x5be-0x5c5.7 (8)
0x5c0|00 00 51 57 8a 90                              |..QW..          |
0x5c0|                  00 00 00 00 52 6c 65 90      |      ....Rle.  |      [84]: "2013-10-27T01:00:00Z" (1382835600) transition_time 0x5c6-0x5cd.7 (8)
0x5c0|                                          00 00|              ..|      [85]: "2014-03-30T01:00:00Z" (1396141200) transition_time 0x5ce-0x5d5.7 (8)
0x5d0|00 00 53 37 6c 90                              |..S7l.          |
0x5d0|                  00 00 00 00 54 4c 47 90      |      ....TLG.  |      [86]: "2014-10-26T01:00:00Z" (1414285200) transition_time 0x5d6-0x5dd.7 (8)
0x5d0|                                          00 00|              ..|      [87]: "2015-03-29T01:00:00Z" (1427590800) transition_time 0x5de-0x5e5.7 (8)
0x5e0|00 00 55 17 4e 90                              |..U.N.          |
0x5e0|                  00 00 00 00 56 2c 29 90      |      ....V,).  |      [88]: "2015-10-25T01:00:00Z" (1445734800) transition_time 0x5e6-0x5ed.7 (8)
0x5e0|                                          00 00|              ..|      [89]: "2016-03-27T01:00:00Z" (1459040400) transition_time 0x5ee-0x5f5.7 (8)
0x5f0|00 00 56 f7 30 90                              |..V.0.          |
0x5f0|                  00 00 00 00 58 15 46 10      |      ....X.F.  |      [90]: "2016-10-30T01:00:00Z" (1477789200) transition_time 0x5f6-0x5fd.7 (8)
0x5f0|                                          00 00|              ..|      [91]: "2017-03-26T01:00:00Z" (1490490000) transition_time 0x5fe-0x605.7 (8)
0x600|00 00 58 d7 12 90                              |..X...          |
0x600|                  00 00 00 00 59 f5 28 10      |      ....Y.(.  |      [92]: "2017-10-29T01:00:00Z" (1509238800) transition_time 0x606-0x60d.7 (8)
0x600|                                          00 00|              ..|      [93]: "2018-03-25T01:00:00Z" (1521939600) transition_time 0x60e-0x615.7 (8)
0x610|00 00 5a b6 f4 90                              |..Z...          |
0x610|                  00 00 00 00 5b d5 0a 10      |      ....[...  |      [94]: "2018-10-28T01:00:00Z" (1540688400) transition_time 0x616-0x61d.7 (8)
0x610|                                          00 00|              ..|      [95]: "2019-03-31T01:00:00Z" (1553994000) transition_time 0x61e-0x625.7 (8)
0x620|00 00 5c a0 11 10                              |..\...          |
0x620|                  00 00 00 00 5d b4 ec 10      |      ....]...  |      [96]: "2019-10-27T01:00:00Z" (1572138000) transition_time 0x626-0x62d.7 (8)
0x620|                                          00 00|              ..|      [97]: "2020-03-29T01:00:00Z" (1585443600) transition_time 0x62e-0x635.7 (8)
0x630|00 00 5e 7f f3 10                              |..^...          |
0x630|                  00 00 00 00 5f 94 ce 10      |      ...._...  |      [98]: "2020-10-25T01:00:00Z" (1603587600) transition_time 0x636-0x63d.7 (8)
0x630|                                          00 00|              ..|      [99]: "2021-03-28T01:00:00Z" (1616893200) transition_time 0x63e-0x645.7 (8)
0x640|00 00 60 5f d5 10                              |..`_..          |
0x640|                  00 00 00 00 61 7d ea 90      |      ....a}..  |      [100]: "2021-10-31T01:00:00Z" (1635642000) transition_time 0x646-0x64d.7 (8)
0x640|                                          00 00|              ..|      [101]: "2022-03-27T01:00:00Z" (1648342800) transition_time 0x64e-0x655.7 (8)
0x650|00 00 62 3f b7 10                              |..b?..          |
0x650|                  00 00 00 00 63 5d cc 90      |      ....c]..  |      [102]: "2022-10-30T01:00:00Z" (1667091600) transition_time 0x656-0x65d.7 (8)
0x650|                                          00 00|              ..|      [103]: "2023-03-26T01:00:00Z" (1679792400) transition_time 0x65e-0x665.7 (8)
0x660|00 00 64 1f 99 10                              |..d...          |
0x660|                  00 00 00 00 65 3d ae 90      |      ....e=..  |      [104]: "2023-10-29T01:00:00Z" (1698541200) transition_time 0x666-0x66d.7 (8)
0x660|                                          00 00|              ..|      [105]: "2024-03-31T01:00:00Z" (1711846800) transition_time 0x66e-0x675.7 (8)
0x670|00 00 66 08 b5 90                              |..f...          |
0x670|                  00 00 00 00 67 1d 90 90      |      ....g...  |      [106]: "2024-10-27T01:00:00Z" (1729990800) transition_time 0x676-0x67d.7 (8)
0x670|                                          00 00|              ..|      [107]: "2025-03-30T01:00:00Z" (1743296400) transition_time 0x67e-0x685.7 (8)
0x680|00 00 67 e8 97 90                              |..g...          |
0x680|                  00 00 00 00 68 fd 72 90      |      ....h.r.  |      [108]: "2025-10-26T01:00:00Z" (1761440400) transition_time 0x686-0x68d.7 (8)
0x680|                                          00 00|              ..|      [109]: "2026-03-29T01:00:00Z" (1774746000) transition_time 0x68e-0x695.7 (8)
0x690|00 00 69 c8 79 90                              |..i.y.          |
0x690|                  00 00 00 00 6a dd 54 90      |      ....j.T.  |      [110]: "2026-10-25T01:00:00Z" (1792890000) transition_time 0x696-0x69d.7 (8)
0x690|                                          00 00|              ..|      [111]: "2027-03-28T01:00:00Z" (1806195600) transition_time 0x69e-0x6a5.7 (8)
0x6a0|00 00 6b a8 5b 90                              |..k.[.          |
0x6a0|                  00 00 00 00 6c c6 71 10      |      ....l.q.  |      [112]: "2027-10-31T01:00:00Z" (1824944400) transition_time 0x6a6-0x6ad.7 (8)
0x6a0|                                          00 00|              ..|      [113]: "2028-03-26T01:00:00Z" (1837645200) transition_time 0x6ae-0x6b5.7 (8)
0x6b0|00 00 6d 88 3d 90                              |..m.=.          |
0x6b0|                  00 00 00 00 6e a6 53 10      |      ....n.S.  |      [114]: "2028-10-29T01:00:00Z" (1856394000) transition_time 0x6b6-0x6bd.7 (8)
0x6b0|                                          00 00|              ..|      [115]: "2029-03-25T01:00:00Z" (1869094800) transition_time 0x6be-0x6c5.7 (8)
0x6c0|00 00 6f 68 1f 90                              |..oh..          |
0x6c0|                  00 00 00 00 70 86 35 10      |      ....p.5.  |      [116]: "2029-10-28T01:00:00Z" (1887843600) transition_time 0x6c6-0x6cd.7 (8)
0x6c0|                                          00 00|              ..|      [117]: "2030-03-31T01:00:00Z" (1901149200) transition_time 0x6ce-0x6d5.7 (8)
0x6d0|00 00 71 51 3c 10                              |..qQ<.          |
0x6d0|                  00 00 00 00 72 66 17 10      |      ....rf..  |      [118]: "2030-10-27T01:00:00Z" (1919293200) transition_time 0x6d6-0x6dd.7 (8)
0x6d0|                                          00 00|              ..|      [119]: "2031-03-30T01:00:00Z" (1932598800) transition_time 0x6de-0x6e5.7 (8)
0x6e0|00 00 73 31 1e 10                              |..s1..          |
0x6e0|                  00 00 00 00 74 45 f9 10      |      ....tE..  |      [120]: "2031-10-26T01:00:00Z" (1950742800) transition_time 0x6e6-0x6ed.7 (8)
0x6e0|                                          00 00|              ..|      [121]: "2032-03-28T01:00:00Z" (1964048400) transition_time 0x6ee-0x6f5.7 (8)
0x6f0|00 00 75 11 00 10                              |..u...          |
0x6f0|                  00 00 00 00 76 2f 15 90      |      ....v/..  |      [122]: "2032-10-31T01:00:00Z" (1982797200) transition_time 0x6f6-0x6fd.7 (8)
0x6f0|                                          00 00|              ..|      [123]: "2033-03-27T01:00:00Z" (1995498000) transition_time 0x6fe-0x705.7 (8)
0x700|00 00 76 f0 e2 10                              |..v...          |
0x700|                  00 00 00 00 78 0e f7 90      |      ....x...  |      [124]: "2033-10-30T01:00:00Z" (2014246800) transition_time 0x706-0x70d.7 (8)
0x700|                                          00 00|              ..|      [125]: "2034-03-26T01:00:00Z" (2026947600) transition_time 0x70e-0x715.7 (8)
0x710|00 00 78 d0 c4 10                              |..x...          |
0x710|                  00 00 00 00 79 ee d9 90      |      ....y...  |      [126]: "2034-10-29T01:00:00Z" (2045696400) transition_time 0x716-0x71d.7 (8)
0x710|                                          00 00|              ..|      [127]: "2035-03-25T01:00:00Z" (2058397200) transition_time 0x71e-0x725.7 (8)
0x720|00 00 7a b0 a6 10                              |..z...          |
0x720|                  00 00 00 00 7b ce bb 90      |      ....{...  |      [128]: "2035-10-28T01:00:00Z" (2077146000) transition_time 0x726-0x72d.7 (8)
0x720|                                          00 00|              ..|      [129]: "2036-03-30T01:00:00Z" (2090451600) transition_time 0x72e-0x735.7 (8)
0x730|00 00 7c 99 c2 90                              |..|...          |
0x730|                  00 00 00 00 7d ae 9d 90      |      ....}...  |      [130]: "2036-10-26T01:00:00Z" (2108595600) transition_time 0x736-0x73d.7 (8)
0x730|                                          00 00|              ..|      [131]: "2037-03-29T01:00:00Z" (2121901200) transition_time 0x73e-0x745.7 (8)
0x740|00 00 7e 79 a4 90                              |..~y..          |
0x740|                  00 00 00 00 7f 8e 7f 90      |      ........  |      [132]: "2037-10-25T01:00:00Z" (2140045200) transition_time 0x746-0x74d.7 (8)
     |                                               |                |    transition_types[0:133]: 0x74e-0x7d2.7 (133)
0x740|                                          01   |              . |      [0]: 1 transition_type 0x74e-0x74e.7 (1)
0x740|                                             02|               .|      [1]: 2 transition_type 0x74f-0x74f.7 (1)
0x750|01                                             |.               |      [2]: 1 transition_type 0x750-0x750.7 (1)
0x750|   02                                          | .              |      [3]: 2 transition_type 0x751-0x751.7 (1)
0x750|      01                                       |  .             |      [4]: 1 transition_type 0x752-0x752.7 (1)
0x750|         02                                    |   .            |      [5]: 2 transition_type 0x753-0x753.7 (1)
0x750|            01                                 |    .           |      [6]: 1 transition_type 0x754-0x754.7 (1)
0x750|               02                              |     .          |      [7]: 2 transition_type 0x755-0x755.7 (1)
0x750|                  01                           |      .         |      [8]: 1 transition_type 0x756-0x756.7 (1)
0x750|                     02                        |       .        |      [9]: 2 transition_type 0x757-0x757.7 (1)
0x750|                        01                     |        .       |      [10]: 1 transition_type 0x758-0x758.7 (1)
0x750|                           02                  |         .      |      [11]: 2 transition_type 0x759-0x759.7 (1)
0x750|                              01               |          .     |      [12]: 1 transition_type 0x75a-0x75a.7 (1)
0x750|                                 02            |           .    |      [13]: 2 transition_type 0x75b-0x75b.7 (1)
0x750|                                    01         |            .   |      [14]: 1 transition_type 0x75c-0x75c.7 (1)
0x750|                                       02      |             .  |      [15]: 2 transition_type 0x75d-0x75d.7 (1)
0x750|                                          01   |              . |      [16]: 1 transition_type 0x75e-0x75e.7 (1)
0x750|                                             02|               .|      [17]: 2 transition_type 0x75f-0x75f.7 (1)
0x760|01                                             |.               |      [18]: 1 transition_type 0x760-0x760.7 (1)
0x760|   02                                          | .              |      [19]: 2 transition_type 0x761-0x761.7 (1)
0x760|      01                                       |  .             |      [20]: 1 transition_type 0x762-0x762.7 (1)
0x760|         02                                    |   .            |      [21]: 2 transition_type 0x763-0x763.7 (1)
0x760|            01                                 |    .           |      [22]: 1 transition_type 0x764-0x764.7 (1)
0x760|               02                              |     .          |      [23]: 2 transition_type 0x765-0x765.7 (1)
0x760|                  01                           |      .         |      [24]: 1 transition_type 0x766-0x766.7 (1)
0x760|                     02                        |       .        |      [25]: 2 transition_type 0x767-0x767.7 (1)
0x760|                        03                     |        .       |      [26]: 3 transition_type 0x768-0x768.7 (1)
0x760|                           04                  |         .      |      [27]: 4 transition_type 0x769-0x769.7 (1)
0x760|                              03               |          .     |      [28]: 3 transition_type 0x76a-0x76a.7 (1)
0x760|                                 04            |           .    |      [29]: 4 transition_type 0x76b-0x76b.7 (1)
0x760|                                    03         |            .   |      [30]: 3 transition_type 0x76c-0x76c.7 (1)
0x760|                                       04      |             .  |      [31]: 4 transition_type 0x76d-0x76d.7 (1)
0x760|                                          03   |              . |      [32]: 3 transition_type 0x76e-0x76e.7 (1)
0x760|                                             04|               .|      [33]: 4 transition_type 0x76f-0x76f.7 (1)
0x770|03                                             |.               |      [34]: 3 transition_type 0x770-0x770.7 (1)
0x770|   04                                          | .              |      [35]: 4 transition_type 0x771-0x771.7 (1)
0x770|      03                                       |  .             |      [36]: 3 transition_type 0x772-0x772.7 (1)
0x770|         04                                    |   .            |      [37]: 4 transition_type 0x773-0x773.7 (1)
0x770|            03                                 |    .           |      [38]: 3 transition_type 0x774-0x774.7 (1)
0x770|               04                              |     .          |      [39]: 4 transition_type 0x775-0x775.7 (1)
0x770|                  03                           |      .         |      [40]: 3 transition_type 0x776-0x776.7 (1)
0x770|                     04                        |       .        |      [41]: 4 transition_type 0x777-0x777.7 (1)
0x770|                        03                     |        .       |      [42]: 3 transition_type 0x778-0x778.7 (1)
0x770|                           04                  |         .      |      [43]: 4 transition_type 0x779-0x779.7 (1)
0x770|                              03               |          .     |      [44]: 3 transition_type 0x77a-0x77a.7 (1)
0x770|                                 04            |           .    |      [45]: 4 transition_type 0x77b-0x77b.7 (1)
0x770|                                    03         |            .   |      [46]: 3 transition_type 0x77c-0x77c.7 (1)
0x770|                                       04      |             .  |      [47]: 4 transition_type 0x77d-0x77d.7 (1)
0x770|                                          03   |              . |      [48]: 3 transition_type 0x77e-0x77e.7 (1)
0x770|                                             04|               .|      [49]: 4 transition_type 0x77f-0x77f.7 (1)
0x780|03                                             |.               |      [50]: 3 transition_type 0x780-0x780.7 (1)
0x780|   04                                          | .              |      [51]: 4 transition_type 0x781-0x781.7 (1)
0x780|      03                                       |  .             |      [52]: 3 transition_type 0x782-0x782.7 (1)
0x780|         04                                    |   .            |      [53]: 4 transition_type 0x783-0x783.7 (1)
0x780|            03                                 |    .           |      [54]: 3 transition_type 0x784-0x784.7 (1)
0x780|               04                              |     .          |      [55]: 4 transition_type 0x785-0x785.7 (1)
0x780|                  03                           |      .         |      [56]: 3 transition_type 0x786-0x786.7 (1)
0x780|                     04                        |       .        |      [57]: 4 transition_type 0x787-0x787.7 (1)
0x780|                        03                     |        .       |      [58]: 3 transition_type 0x788-0x788.7 (1)
0x780|                           04                  |         .      |      [59]: 4 transition_type 0x789-0x789.7 (1)
0x780|                              03               |          .     |      [60]: 3 transition_type 0x78a-0x78a.7 (1)
0x780|                                 04            |           .    |      [61]: 4 transition_type 0x78b-0x78b.7 (1)
0x780|                                    03         |            .   |      [62]: 3 transition_type 0x78c-0x78c.7 (1)
0x780|                                       04      |             .  |      [63]: 4 transition_type 0x78d-0x78d.7 (1)
0x780|                                          03   |              . |      [64]: 3 transition_type 0x78e-0x78e.7 (1)
0x780|                                             04|               .|      [65]: 4 transition_type 0x78f-0x78f.7 (1)
0x790|03                                             |.               |      [66]: 3 transition_type 0x790-0x790.7 (1)
0x790|   04                                          | .              |      [67]: 4 transition_type 0x791-0x791.7 (1)
0x790|      03                                       |  .             |      [68]: 3 transition_type 0x792-0x792.7 (1)
0x790|         04                                    |   .            |      [69]: 4 transition_type 0x793-0x793.7 (1)
0x790|            03                                 |    .           |      [70]: 3 transition_type 0x794-0x794.7 (1)
0x790|               04                              |     .          |      [71]: 4 transition_type 0x795-0x795.7 (1)
0x790|                  03                           |      .         |      [72]: 3 transition_type 0x796-0x796.7 (1)
0x790|                     04                        |       .        |      [73]: 4 transition_type 0x797-0x797.7 (1)
0x790|                        03                     |        .       |      [74]: 3 transition_type 0x798-0x798.7 (1)
0x790|                           04                  |         .      |      [75]: 4 transition_type 0x799-0x799.7 (1)
0x790|                              03               |          .     |      [76]: 3 transition_type 0x79a-0x79a.7 (1)
0x790|                                 04            |           .    |      [77]: 4 transition_type 0x79b-0x79b.7 (1)
0x790|                                    03         |            .   |      [78]: 3 transition_type 0x79c-0x79c.7 (1)
0x790|                                       04      |             .  |      [79]: 4 transition_type 0x79d-0x79d.7 (1)
0x790|                                          03   |              . |      [80]: 3 transition_type 0x79e-0x79e.7 (1)
0x790|                                             04|               .|      [81]: 4 transition_type 0x79f-0x79f.7 (1)
0x7a0|03                                             |.               |      [82]: 3 transition_type 0x7a0-0x7a0.7 (1)
0x7a0|   04                                          | .              |      [83]: 4 transition_type 0x7a1-0x7a1.7 (1)
0x7a0|      03                                       |  .             |      [84]: 3 transition_type 0x7a2-0x7a2.7 (1)
0x7a0|         04                                    |   .            |      [85]: 4 transition_type 0x7a3-0x7a3.7 (1)
0x7a0|            03                                 |    .           |      [86]: 3 transition_type 0x7a4-0x7a4.7 (1)
0x7a0|               04                              |     .          |      [87]: 4 transition_type 0x7a5-0x7a5.7 (1)
0x7a0|                  03                           |      .         |      [88]: 3 transition_type 0x7a6-0x7a6.7 (1)
0x7a0|                     04                        |       .        |      [89]: 4 transition_type 0x7a7-0x7a7.7 (1)
0x7a0|                        03                     |        .       |      [90]: 3 transition_type 0x7a8-0x7a8.7 (1)
0x7a0|                           04                  |         .      |      [91]: 4 transition_type 0x7a9-0x7a9.7 (1)
0x7a0|                              03               |          .     |      [92]: 3 transition_type 0x7aa-0x7aa.7 (1)
0x7a0|                                 04            |           .    |      [93]: 4 transition_type 0x7ab-0x7ab.7 (1)
0x7a0|                                    03         |            .   |      [94]: 3 transition_type 0x7ac-0x7ac.7 (1)
0x7a0|                                       04      |             .  |      [95]: 4 transition_type 0x7ad-0x7ad.7 (1)
0x7a0|                                          03   |              . |      [96]: 3 transition_type 0x7ae-0x7ae.7 (1)
0x7a0|                                             04|               .|      [97]: 4 transition_type 0x7af-0x7af.7 (1)
0x7b0|03                                             |.               |      [98]: 3 transition_type 0x7b0-0x7b0.7 (1)
0x7b0|   04                                          | .              |      [99]: 4 transition_type 0x7b1-0x7b1.7 (1)
0x7b0|      03                                       |  .             |      [100]: 3 transition_type 0x7b2-0x7b2.7 (1)
0x7b0|         04                                    |   .            |      [101]: 4 transition_type 0x7b3-0x7b3.7 (1)
0x7b0|            03                                 |    .           |      [102]: 3 transition_type 0x7b4-0x7b4.7 (1)
0x7b0|               04                              |     .          |      [103]: 4 transition_type 0x7b5-0x7b5.7 (1)
0x7b0|                  03                           |      .         |      [104]: 3 transition_type 0x7b6-0x7b6.7 (1)
0x7b0|                     04                        |       .        |      [105]: 4 transition_type 0x7b7-0x7b7.7 (1)
0x7b0|                        03                     |        .       |      [106]: 3 transition_type 0x7b8-0x7b8.7 (1)
0x7b0|                           04                  |         .      |      [107]: 4 transition_type 0x7b9-0x7b9.7 (1)
0x7b0|                              03               |          .     |      [108]: 3 transition_type 0x7ba-0x7ba.7 (1)
0x7b0|                                 04            |           .    |      [109]: 4 transition_type 0x7bb-0x7bb.7 (1)
0x7b0|                                    03         |            .   |      [110]: 3 transition_type 0x7bc-0x7bc.7 (1)
0x7b0|                                       04      |             .  |      [111]: 4 transition_type 0x7bd-0x7bd.7 (1)
0x7b0|                                          03   |              . |      [112]: 3 transition_type 0x7be-0x7be.7 (1)
0x7b0|                                             04|               .|      [113]: 4 transition_type 0x7bf-0x7bf.7 (1)
0x7c0|03                                             |.               |      [114]: 3 transition_type 0x7c0-0x7c0.7 (1)
0x7c0|   04                                          | .              |      [115]: 4 transition_type 0x7c1-0x7c1.7 (1)
0x7c0|      03                                       |  .             |      [116]: 3 transition_type 0x7c2-0x7c2.7 (1)
0x7c0|         04                                    |   .            |      [117]: 4 transition_type 0x7c3-0x7c3.7 (1)
0x7c0|            03                                 |    .           |      [118]: 3 transition_type 0x7c4-0x7c4.7 (1)
0x7c0|               04                              |     .          |      [119]: 4 transition_type 0x7c5-0x7c5.7 (1)
0x7c0|                  03                           |      .         |      [120]: 3 transition_type 0x7c6-0x7c6.7 (1)
0x7c0|                     04                        |       .        |      [121]: 4 transition_type 0x7c7-0x7c7.7 (1)
0x7c0|                        03                     |        .       |      [122]: 3 transition_type 0x7c8-0x7c8.7 (1)
0x7c0|                           04                  |         .      |      [123]: 4 transition_type 0x7c9-0x7c9.7 (1)
0x7c0|                              03               |          .     |      [124]: 3 transition_type 0x7ca-0x7ca.7 (1)
0x7c0|                                 04            |           .    |      [125]: 4 transition_type 0x7cb-0x7cb.7 (1)
0x7c0|                                    03         |            .   |      [126]: 3 transition_type 0x7cc-0x7cc.7 (1)
0x7c0|                                       04      |             .  |      [127]: 4 transition_type 0x7cd-0x7cd.7 (1)
0x7c0|                                          03   |              . |      [128]: 3 transition_type 0x7ce-0x7ce.7 (1)
0x7c0|                                             04|               .|      [129]: 4 transition_type 0x7cf-0x7cf.7 (1)
0x7d0|03                                             |.               |      [130]: 3 transition_type 0x7d0-0x7d0.7 (1)
0x7d0|   04                                          | .              |      [131]: 4 transition_type 0x7d1-0x7d1.7 (1)
0x7d0|      03                                       |  .             |      [132]: 3 transition_type 0x7d2-0x7d2.7 (1)
     |                                               |                |    local_time_type_records[0:5]: 0x7d3-0x7f0.7 (30)
     |                                               |                |      [0]{}: local_time_type 0x7d3-0x7d8.7 (6)
0x7d0|         00 00 12 98                           |   ....         |        utoff: 4760 (valid) 0x7d3-0x7d6.7 (4)
0x7d0|                     00                        |       .        |        dst: 0 (valid) 0x7d7-0x7d7.7 (1)
0x7d0|                        00                     |        .       |        idx: 0 (valid) 0x7d8-0x7d8.7 (1)
     |                                               |                |      [1]{}: local_time_type 0x7d9-0x7de.7 (6)
0x7d0|                           00 00 0e 10         |         ....   |        utoff: 3600 (valid) 0x7d9-0x7dc.7 (4)
0x7d0|                                       00      |             .  |        dst: 0 (valid) 0x7dd-0x7dd.7 (1)
0x7d0|                                          04   |              . |        idx: 4 (valid) 0x7de-0x7de.7 (1)
     |                                               |                |      [2]{}: local_time_type 0x7df-0x7e4.7 (6)
0x7d0|                                             00|               .|        utoff: 7200 (valid) 0x7df-0x7e2.7 (4)
0x7e0|00 1c 20                                       |..              |
0x7e0|         01                                    |   .            |        dst: 1 (valid) 0x7e3-0x7e3.7 (1)
0x7e0|            08                                 |    .           |        idx: 8 (valid) 0x7e4-0x7e4.7 (1)
     |                                               |                |      [3]{}: local_time_type 0x7e5-0x7ea.7 (6)
0x7e0|               00 00 0e 10                     |     ....       |        utoff: 3600 (valid) 0x7e5-0x7e8.7 (4)
0x7e0|                           00                  |         .      |        dst: 0 (valid) 0x7e9-0x7e9.7 (1)
0x7e0|                              04               |          .     |        idx: 4 (valid) 0x7ea-0x7ea.7 (1)
     |                                               |                |      [4]{}: local_time_type 0x7eb-0x7f0.7 (6)
0x7e0|                                 00 00 1c 20   |           ...  |        utoff: 7200 (valid) 0x7eb-0x7ee.7 (4)
0x7e0|                                             01|               .|        dst: 1 (valid) 0x7ef-0x7ef.7 (1)
0x7f0|08                                             |.               |        idx: 8 (valid) 0x7f0-0x7f0.7 (1)
     |                                               |                |    time_zone_designations[0:3]: 0x7f1-0x7fd.7 (13)
0x7f0|   4c 4d 54 00                                 | LMT.           |      [0]: "LMT" time_zone_designation 0x7f1-0x7f4.7 (4)
0x7f0|               43 45 54 00                     |     CET.       |      [1]: "CET" time_zone_designation 0x7f5-0x7f8.7 (4)
0x7f0|                           43 45 53 54 00      |         CEST.  |      [2]: "CEST" time_zone_designation 0x7f9-0x7fd.7 (5)
     |                                               |                |    leap_second_records[0:0]: 0x7fe-NA (0)
     |                                               |                |    standard_wall_indicators[0:5]: 0x7fe-0x802.7 (5)
0x7f0|                                          00   |              . |      [0]: 0 standard_wall_indicator (valid) 0x7fe-0x7fe.7 (1)
0x7f0|                                             00|               .|      [1]: 0 standard_wall_indicator (valid) 0x7ff-0x7ff.7 (1)
0x800|00                                             |.               |      [2]: 0 standard_wall_indicator (valid) 0x800-0x800.7 (1)
0x800|   01                                          | .              |      [3]: 1 standard_wall_indicator (valid) 0x801-0x801.7 (1)
0x800|      01                                       |  .             |      [4]: 1 standard_wall_indicator (valid) 0x802-0x802.7 (1)
     |                                               |                |    ut_local_indicators[0:5]: 0x803-0x807.7 (5)
0x800|         00                                    |   .            |      [0]: 0 ut_local_indicator (valid) 0x803-0x803.7 (1)
0x800|            00                                 |    .           |      [1]: 0 ut_local_indicator (valid) 0x804-0x804.7 (1)
0x800|               00                              |     .          |      [2]: 0 ut_local_indicator (valid) 0x805-0x805.7 (1)
0x800|                  01                           |      .         |      [3]: 1 ut_local_indicator (valid) 0x806-0x806.7 (1)
0x800|                     01                        |       .        |      [4]: 1 ut_local_indicator (valid) 0x807-0x807.7 (1)
     |                                               |                |  footer{}: 0x808-0x823.7 (28)
0x800|                        0a                     |        .       |    nl1: 10 (valid) 0x808-0x808.7 (1)
0x800|                           43 45 54 2d 31 43 45|         CET-1CE|    tz_string: "CET-1CEST,M3.5.0,M10.5.0/3" 0x809-0x822.7 (26)
0x810|53 54 2c 4d 33 2e 35 2e 30 2c 4d 31 30 2e 35 2e|ST,M3.5.0,M10.5.|
0x820|30 2f 33                                       |0/3             |
0x820|         0a|                                   |   .|           |    nl2: 10 (valid) 0x823-0x823.7 (1)
