$ fq -d tzif dv Tokyo
     |00 01 02 03 04 05 06 07 08 09 0a 0b 0c 0d 0e 0f|0123456789abcdef|.{}: Tokyo (tzif) 0x0-0x359.7 (858)
     |                                               |                |  v1header{}: 0x0-0x2b.7 (44)
0x000|54 5a 69 66                                    |TZif            |    magic: 0x545a6966 (valid) 0x0-0x3.7 (4)
0x000|            32                                 |    2           |    ver: "2" (0x32) (valid) 0x4-0x4.7 (1)
0x000|               00 00 00 00 00 00 00 00 00 00 00|     ...........|    reserved: raw bits 0x5-0x13.7 (15)
0x010|00 00 00 00                                    |....            |
0x010|            00 00 00 04                        |    ....        |    isutcnt: 4 0x14-0x17.7 (4)
0x010|                        00 00 00 04            |        ....    |    isstdcnt: 4 0x18-0x1b.7 (4)
0x010|                                    00 00 00 1b|            ....|    leapcnt: 27 0x1c-0x1f.7 (4)
0x020|00 00 00 0a                                    |....            |    timecnt: 10 0x20-0x23.7 (4)
0x020|            00 00 00 04                        |    ....        |    typecnt: 4 0x24-0x27.7 (4)
0x020|                        00 00 00 0c            |        ....    |    charcnt: 12 0x28-0x2b.7 (4)
     |                                               |                |  v1datablock{}: 0x2c-0x161.7 (310)
     |                                               |                |    transition_times[0:10]: 0x2c-0x53.7 (40)
0x020|                                    80 00 00 00|            ....|      [0]: "1901-12-13T20:45:52Z" (-2147483648) transition_time 0x2c-0x2f.7 (4)
0x030|d7 3e 02 70                                    |.>.p            |      [1]: "1948-05-01T15:00:00Z" (-683802000) transition_time 0x30-0x33.7 (4)
0x030|            d7 ed 59 f0                        |    ..Y.        |      [2]: "1948-09-11T15:00:00Z" (-672310800) transition_time 0x34-0x37.7 (4)
0x030|                        d8 f8 fa 70            |        ...p    |      [3]: "1949-04-02T15:00:00Z" (-654771600) transition_time 0x38-0x3b.7 (4)
0x030|                                    d9 cd 3b f0|            ..;.|      [4]: "1949-09-10T15:00:00Z" (-640861200) transition_time 0x3c-0x3f.7 (4)
0x040|db 07 00 f0                                    |....            |      [5]: "1950-05-06T15:00:00Z" (-620298000) transition_time 0x40-0x43.7 (4)
0x040|            db ad 1d f0                        |    ....        |      [6]: "1950-09-09T15:00:00Z" (-609411600) transition_time 0x44-0x47.7 (4)
0x040|                        dc e6 e2 f0            |        ....    |      [7]: "1951-05-05T15:00:00Z" (-588848400) transition_time 0x48-0x4b.7 (4)
0x040|                                    dd 8c ff f0|            ....|      [8]: "1951-09-08T15:00:00Z" (-577962000) transition_time 0x4c-0x4f.7 (4)
0x050|64 9b 78 1b                                    |d.x.            |      [9]: "2023-06-28T00:00:27Z" (1687910427) transition_time 0x50-0x53.7 (4)
     |                                               |                |    transition_types[0:10]: 0x54-0x5d.7 (10)
0x050|            03                                 |    .           |      [0]: 3 transition_type 0x54-0x54.7 (1)
0x050|               01                              |     .          |      [1]: 1 transition_type 0x55-0x55.7 (1)
0x050|                  02                           |      .         |      [2]: 2 transition_type 0x56-0x56.7 (1)
0x050|                     01                        |       .        |      [3]: 1 transition_type 0x57-0x57.7 (1)
0x050|                        02                     |        .       |      [4]: 2 transition_type 0x58-0x58.7 (1)
0x050|                           01                  |         .      |      [5]: 1 transition_type 0x59-0x59.7 (1)
0x050|                              02               |          .     |      [6]: 2 transition_type 0x5a-0x5a.7 (1)
0x050|                                 01            |           .    |      [7]: 1 transition_type 0x5b-0x5b.7 (1)
0x050|                                    02         |            .   |      [8]: 2 transition_type 0x5c-0x5c.7 (1)
0x050|                                       02      |             .  |      [9]: 2 transition_type 0x5d-0x5d.7 (1)
     |                                               |                |    local_time_type_records[0:4]: 0x5e-0x75.7 (24)
     |                                               |                |      [0]{}: local_time_type 0x5e-0x63.7 (6)
0x050|                                          00 00|              ..|        utoff: 33539 (valid) 0x5e-0x61.7 (4)
0x060|83 03                                          |..              |
0x060|      00                                       |  .             |        dst: 0 (valid) 0x62-0x62.7 (1)
0x060|         00                                    |   .            |        idx: 0 (valid) 0x63-0x63.7 (1)
     |                                               |                |      [1]{}: local_time_type 0x64-0x69.7 (6)
0x060|            00 00 8c a0                        |    ....        |        utoff: 36000 (valid) 0x64-0x67.7 (4)
0x060|                        01                     |        .       |        dst: 1 (valid) 0x68-0x68.7 (1)
0x060|                           04                  |         .      |        idx: 4 (valid) 0x69-0x69.7 (1)
     |                                               |                |      [2]{}: local_time_type 0x6a-0x6f.7 (6)
0x060|                              00 00 7e 90      |          ..~.  |        utoff: 32400 (valid) 0x6a-0x6d.7 (4)
0x060|                                          00   |              . |        dst: 0 (valid) 0x6e-0x6e.7 (1)
0x060|                                             08|               .|        idx: 8 (valid) 0x6f-0x6f.7 (1)
     |                                               |                |      [3]{}: local_time_type 0x70-0x75.7 (6)
0x070|00 00 7e 90                                    |..~.            |        utoff: 32400 (valid) 0x70-0x73.7 (4)
0x070|            00                                 |    .           |        dst: 0 (valid) 0x74-0x74.7 (1)
0x070|               08                              |     .          |        idx: 8 (valid) 0x75-0x75.7 (1)
     |                                               |                |    time_zone_designations[0:3]: 0x76-0x81.7 (12)
0x070|                  4c 4d 54 00                  |      LMT.      |      [0]: "LMT" time_zone_designation 0x76-0x79.7 (4)
0x070|                              4a 44 54 00      |          JDT.  |      [1]: "JDT" time_zone_designation 0x7a-0x7d.7 (4)
0x070|                                          4a 53|              JS|      [2]: "JST" time_zone_designation 0x7e-0x81.7 (4)
0x080|54 00                                          |T.              |
     |                                               |                |    leap_second_records[0:27]: 0x82-0x159.7 (216)
     |                                               |                |      [0]{}: leap_second_record 0x82-0x89.7 (8)
0x080|      04 b2 58 00                              |  ..X.          |        occur: "1972-07-01T00:00:00Z" (78796800) 0x82-0x85.7 (4)
0x080|                  00 00 00 01                  |      ....      |        corr: 1 0x86-0x89.7 (4)
     |                                               |                |      [1]{}: leap_second_record 0x8a-0x91.7 (8)
0x080|                              05 a4 ec 01      |          ....  |        occur: "1973-01-01T00:00:01Z" (94694401) 0x8a-0x8d.7 (4)
0x080|                                          00 00|              ..|        corr: 2 0x8e-0x91.7 (4)
0x090|00 02                                          |..              |
     |                                               |                |      [2]{}: leap_second_record 0x92-0x99.7 (8)
0x090|      07 86 1f 82                              |  ....          |        occur: "1974-01-01T00:00:02Z" (126230402) 0x92-0x95.7 (4)
0x090|                  00 00 00 03                  |      ....      |        corr: 3 0x96-0x99.7 (4)
     |                                               |                |      [3]{}: leap_second_record 0x9a-0xa1.7 (8)
0x090|                              09 67 53 03      |          .gS.  |        occur: "1975-01-01T00:00:03Z" (157766403) 0x9a-0x9d.7 (4)
0x090|                                          00 00|              ..|        corr: 4 0x9e-0xa1.7 (4)
0x0a0|00 04                                          |..              |
     |                                               |                |      [4]{}: leap_second_record 0xa2-0xa9.7 (8)
0x0a0|      0b 48 86 84                              |  .H..          |        occur: "1976-01-01T00:00:04Z" (189302404) 0xa2-0xa5.7 (4)
0x0a0|                  00 00 00 05                  |      ....      |        corr: 5 0xa6-0xa9.7 (4)
     |                                               |                |      [5]{}: leap_second_record 0xaa-0xb1.7 (8)
0x0a0|                              0d 2b 0b 85      |          .+..  |        occur: "1977-01-01T00:00:05Z" (220924805) 0xaa-0xad.7 (4)
0x0a0|                                          00 00|              ..|        corr: 6 0xae-0xb1.7 (4)
0x0b0|00 06                                          |..              |
     |                                               |                |      [6]{}: leap_second_record 0xb2-0xb9.7 (8)
0x0b0|      0f 0c 3f 06                              |  ..?.          |        occur: "1978-01-01T00:00:06Z" (252460806) 0xb2-0xb5.7 (4)
0x0b0|                  00 00 00 07                  |      ....      |        corr: 7 0xb6-0xb9.7 (4)
     |                                               |                |      [7]{}: leap_second_record 0xba-0xc1.7 (8)
0x0b0|                              10 ed 72 87      |          ..r.  |        occur: "1979-01-01T00:00:07Z" (283996807) 0xba-0xbd.7 (4)
0x0b0|                                          00 00|              ..|        corr: 8 0xbe-0xc1.7 (4)
0x0c0|00 08                                          |..              |
     |                                               |                |      [8]{}: leap_second_record 0xc2-0xc9.7 (8)
0x0c0|      12 ce a6 08                              |  ....          |        occur: "1980-01-01T00:00:08Z" (315532808) 0xc2-0xc5.7 (4)
0x0c0|                  00 00 00 09                  |      ....      |        corr: 9 0xc6-0xc9.7 (4)
     |                                               |                |      [9]{}: leap_second_record 0xca-0xd1.7 (8)
0x0c0|                              15 9f ca 89      |          ....  |        occur: "1981-07-01T00:00:09Z" (362793609) 0xca-0xcd.7 (4)
0x0c0|                                          00 00|              ..|        corr: 10 0xce-0xd1.7 (4)
0x0d0|00 0a                                          |..              |
     |                                               |                |      [10]{}: leap_second_record 0xd2-0xd9.7 (8)
0x0d0|      17 80 fe 0a                              |  ....          |        occur: "1982-07-01T00:00:10Z" (394329610) 0xd2-0xd5.7 (4)
0x0d0|                  00 00 00 0b                  |      ....      |        corr: 11 0xd6-0xd9.7 (4)
     |                                               |                |      [11]{}: leap_second_record 0xda-0xe1.7 (8)
0x0d0|                              19 62 31 8b      |          .b1.  |        occur: "1983-07-01T00:00:11Z" (425865611) 0xda-0xdd.7 (4)
0x0d0|                                          00 00|              ..|        corr: 12 0xde-0xe1.7 (4)
0x0e0|00 0c                                          |..              |
     |                                               |                |      [12]{}: leap_second_record 0xe2-0xe9.7 (8)
0x0e0|      1d 25 ea 0c                              |  .%..          |        occur: "1985-07-01T00:00:12Z" (489024012) 0xe2-0xe5.7 (4)
0x0e0|                  00 00 00 0d                  |      ....      |        corr: 13 0xe6-0xe9.7 (4)
     |                                               |                |      [13]{}: leap_second_record 0xea-0xf1.7 (8)
0x0e0|                              21 da e5 0d      |          !...  |        occur: "1988-01-01T00:00:13Z" (567993613) 0xea-0xed.7 (4)
0x0e0|                                          00 00|              ..|        corr: 14 0xee-0xf1.7 (4)
0x0f0|00 0e                                          |..              |
     |                                               |                |      [14]{}: leap_second_record 0xf2-0xf9.7 (8)
0x0f0|      25 9e 9d 8e                              |  %...          |        occur: "1990-01-01T00:00:14Z" (631152014) 0xf2-0xf5.7 (4)
0x0f0|                  00 00 00 0f                  |      ....      |        corr: 15 0xf6-0xf9.7 (4)
     |                                               |                |      [15]{}: leap_second_record 0xfa-0x101.7 (8)
0x0f0|                              27 7f d1 0f      |          '...  |        occur: "1991-01-01T00:00:15Z" (662688015) 0xfa-0xfd.7 (4)
0x0f0|                                          00 00|              ..|        corr: 16 0xfe-0x101.7 (4)
0x100|00 10                                          |..              |
     |                                               |                |      [16]{}: leap_second_record 0x102-0x109.7 (8)
0x100|      2a 50 f5 90                              |  *P..          |        occur: "1992-07-01T00:00:16Z" (709948816) 0x102-0x105.7 (4)
0x100|                  00 00 00 11                  |      ....      |        corr: 17 0x106-0x109.7 (4)
     |                                               |                |      [17]{}: leap_second_record 0x10a-0x111.7 (8)
0x100|                              2c 32 29 11      |          ,2).  |        occur: "1993-07-01T00:00:17Z" (741484817) 0x10a-0x10d.7 (4)
0x100|                                          00 00|              ..|        corr: 18 0x10e-0x111.7 (4)
0x110|00 12                                          |..              |
     |                                               |                |      [18]{}: leap_second_record 0x112-0x119.7 (8)
0x110|      2e 13 5c 92                              |  ..\.          |        occur: "1994-07-01T00:00:18Z" (773020818) 0x112-0x115.7 (4)
0x110|                  00 00 00 13                  |      ....      |        corr: 19 0x116-0x119.7 (4)
     |                                               |                |      [19]{}: leap_second_record 0x11a-0x121.7 (8)
0x110|                              30 e7 24 13      |          0.$.  |        occur: "1996-01-01T00:00:19Z" (820454419) 0x11a-0x11d.7 (4)
0x110|                                          00 00|              ..|        corr: 20 0x11e-0x121.7 (4)
0x120|00 14                                          |..              |
     |                                               |                |      [20]{}: leap_second_record 0x122-0x129.7 (8)
0x120|      33 b8 48 94                              |  3.H.          |        occur: "1997-07-01T00:00:20Z" (867715220) 0x122-0x125.7 (4)
0x120|                  00 00 00 15                  |      ....      |        corr: 21 0x126-0x129.7 (4)
     |                                               |                |      [21]{}: leap_second_record 0x12a-0x131.7 (8)
0x120|                              36 8c 10 15      |          6...  |        occur: "1999-01-01T00:00:21Z" (915148821) 0x12a-0x12d.7 (4)
0x120|                                          00 00|              ..|        corr: 22 0x12e-0x131.7 (4)
0x130|00 16                                          |..              |
     |                                               |                |      [22]{}: leap_second_record 0x132-0x139.7 (8)
0x130|      43 b7 1b 96                              |  C...          |        occur: "2006-01-01T00:00:22Z" (1136073622) 0x132-0x135.7 (4)
0x130|                  00 00 00 17                  |      ....      |        corr: 23 0x136-0x139.7 (4)
     |                                               |                |      [23]{}: leap_second_record 0x13a-0x141.7 (8)
0x130|                              49 5c 07 97      |          I\..  |        occur: "2009-01-01T00:00:23Z" (1230768023) 0x13a-0x13d.7 (4)
0x130|                                          00 00|              ..|        corr: 24 0x13e-0x141.7 (4)
0x140|00 18                                          |..              |
     |                                               |                |      [24]{}: leap_second_record 0x142-0x149.7 (8)
0x140|      4f ef 93 18                              |  O...          |        occur: "2012-07-01T00:00:24Z" (1341100824) 0x142-0x145.7 (4)
0x140|                  00 00 00 19                  |      ....      |        corr: 25 0x146-0x149.7 (4)
     |                                               |                |      [25]{}: leap_second_record 0x14a-0x151.7 (8)
0x140|                              55 93 2d 99      |          U.-.  |        occur: "2015-07-01T00:00:25Z" (1435708825) 0x14a-0x14d.7 (4)
0x140|                                          00 00|              ..|        corr: 26 0x14e-0x151.7 (4)
0x150|00 1a                                          |..              |
     |                                               |                |      [26]{}: leap_second_record 0x152-0x159.7 (8)
0x150|      58 68 46 9a                              |  XhF.          |        occur: "2017-01-01T00:00:26Z" (1483228826) 0x152-0x155.7 (4)
0x150|                  00 00 00 1b                  |      ....      |        corr: 27 0x156-0x159.7 (4)
     |                                               |                |    standard_wall_indicators[0:4]: 0x15a-0x15d.7 (4)
0x150|                              00               |          .     |      [0]: 0 standard_wall_indicator (valid) 0x15a-0x15a.7 (1)
0x150|                                 00            |           .    |      [1]: 0 standard_wall_indicator (valid) 0x15b-0x15b.7 (1)
0x150|                                    00         |            .   |      [2]: 0 standard_wall_indicator (valid) 0x15c-0x15c.7 (1)
0x150|                                       01      |             .  |      [3]: 1 standard_wall_indicator (valid) 0x15d-0x15d.7 (1)
     |                                               |                |    ut_local_indicators[0:4]: 0x15e-0x161.7 (4)
0x150|                                          00   |              . |      [0]: 0 ut_local_indicator (valid) 0x15e-0x15e.7 (1)
0x150|                                             00|               .|      [1]: 0 ut_local_indicator (valid) 0x15f-0x15f.7 (1)
0x160|00                                             |.               |      [2]: 0 ut_local_indicator (valid) 0x160-0x160.7 (1)
0x160|   01                                          | .              |      [3]: 1 ut_local_indicator (valid) 0x161-0x161.7 (1)
     |                                               |                |  v2plusheader{}: 0x162-0x18d.7 (44)
0x160|      54 5a 69 66                              |  TZif          |    magic: 0x545a6966 (valid) 0x162-0x165.7 (4)
0x160|                  32                           |      2         |    ver: "2" (0x32) (valid) 0x166-0x166.7 (1)
0x160|                     00 00 00 00 00 00 00 00 00|       .........|    reserved: raw bits 0x167-0x175.7 (15)
0x170|00 00 00 00 00 00                              |......          |
0x170|                  00 00 00 04                  |      ....      |    isutcnt: 4 0x176-0x179.7 (4)
0x170|                              00 00 00 04      |          ....  |    isstdcnt: 4 0x17a-0x17d.7 (4)
0x170|                                          00 00|              ..|    leapcnt: 27 0x17e-0x181.7 (4)
0x180|00 1b                                          |..              |
0x180|      00 00 00 0a                              |  ....          |    timecnt: 10 0x182-0x185.7 (4)
0x180|                  00 00 00 04                  |      ....      |    typecnt: 4 0x186-0x189.7 (4)
0x180|                              00 00 00 0c      |          ....  |    charcnt: 12 0x18a-0x18d.7 (4)
     |                                               |                |  v2plusdatablock{}: 0x18e-0x357.7 (458)
     |                                               |                |    transition_times[0:10]: 0x18e-0x1dd.7 (80)
0x180|                                          ff ff|              ..|      [0]: "1887-12-31T15:00:00Z" (-2587712400) transition_time 0x18e-0x195.7 (8)
0x190|ff ff 65 c2 a4 70                              |..e..p          |
0x190|                  ff ff ff ff d7 3e 02 70      |      .....>.p  |      [1]: "1948-05-01T15:00:00Z" (-683802000) transition_time 0x196-0x19d.7 (8)
0x190|                                          ff ff|              ..|      [2]: "1948-09-11T15:00:00Z" (-672310800) transition_time 0x19e-0x1a5.7 (8)
0x1a0|ff ff d7 ed 59 f0                              |....Y.          |
0x1a0|                  ff ff ff ff d8 f8 fa 70      |      .......p  |      [3]: "1949-04-02T15:00:00Z" (-654771600) transition_time 0x1a6-0x1ad.7 (8)
0x1a0|                                          ff ff|              ..|      [4]: "1949-09-10T15:00:00Z" (-640861200) transition_time 0x1ae-0x1b5.7 (8)
0x1b0|ff ff d9 cd 3b f0                              |....;.          |
0x1b0|                  ff ff ff ff db 07 00 f0      |      ........  |      [5]: "1950-05-06T15:00:00Z" (-620298000) transition_time 0x1b6-0x1bd.7 (8)
0x1b0|                                          ff ff|              ..|      [6]: "1950-09-09T15:00:00Z" (-609411600) transition_time 0x1be-0x1c5.7 (8)
0x1c0|ff ff db ad 1d f0                              |......          |
0x1c0|                  ff ff ff ff dc e6 e2 f0      |      ........  |      [7]: "1951-05-05T15:00:00Z" (-588848400) transition_time 0x1c6-0x1cd.7 (8)
0x1c0|                                          ff ff|              ..|      [8]: "1951-09-08T15:00:00Z" (-577962000) transition_time 0x1ce-0x1d5.7 (8)
0x1d0|ff ff dd 8c ff f0                              |......          |
0x1d0|                  00 00 00 00 64 9b 78 1b      |      ....d.x.  |      [9]: "2023-06-28T00:00:27Z" (1687910427) transition_time 0x1d6-0x1dd.7 (8)
     |                                               |                |    transition_types[0:10]: 0x1de-0x1e7.7 (10)
0x1d0|                                          03   |              . |      [0]: 3 transition_type 0x1de-0x1de.7 (1)
0x1d0|                                             01|               .|      [1]: 1 transition_type 0x1df-0x1df.7 (1)
0x1e0|02                                             |.               |      [2]: 2 transition_type 0x1e0-0x1e0.7 (1)
0x1e0|   01                                          | .              |      [3]: 1 transition_type 0x1e1-0x1e1.7 (1)
0x1e0|      02                                       |  .             |      [4]: 2 transition_type 0x1e2-0x1e2.7 (1)
0x1e0|         01                                    |   .            |      [5]: 1 transition_type 0x1e3-0x1e3.7 (1)
0x1e0|            02                                 |    .           |      [6]: 2 transition_type 0x1e4-0x1e4.7 (1)
0x1e0|               01                              |     .          |      [7]: 1 transition_type 0x1e5-0x1e5.7 (1)
0x1e0|                  02                           |      .         |      [8]: 2 transition_type 0x1e6-0x1e6.7 (1)
0x1e0|                     02                        |       .        |      [9]: 2 transition_type 0x1e7-0x1e7.7 (1)
     |                                               |                |    local_time_type_records[0:4]: 0x1e8-0x1ff.7 (24)
     |                                               |                |      [0]{}: local_time_type 0x1e8-0x1ed.7 (6)
0x1e0|                        00 00 83 03            |        ....    |        utoff: 33539 (valid) 0x1e8-0x1eb.7 (4)
0x1e0|                                    00         |            .   |        dst: 0 (valid) 0x1ec-0x1ec.7 (1)
0x1e0|                                       00      |             .  |        idx: 0 (valid) 0x1ed-0x1ed.7 (1)
     |                                               |                |      [1]{}: local_time_type 0x1ee-0x1f3.7 (6)
0x1e0|                                          00 00|              ..|        utoff: 36000 (valid) 0x1ee-0x1f1.7 (4)
0x1f0|8c a0                                          |..              |
0x1f0|      01                                       |  .             |        dst: 1 (valid) 0x1f2-0x1f2.7 (1)
0x1f0|         04                                    |   .            |        idx: 4 (valid) 0x1f3-0x1f3.7 (1)
     |                                               |                |      [2]{}: local_time_type 0x1f4-0x1f9.7 (6)
0x1f0|            00 00 7e 90                        |    ..~.        |        utoff: 32400 (valid) 0x1f4-0x1f7.7 (4)
0x1f0|                        00                     |        .       |        dst: 0 (valid) 0x1f8-0x1f8.7 (1)
0x1f0|                           08                  |         .      |        idx: 8 (valid) 0x1f9-0x1f9.7 (1)
     |                                               |                |      [3]{}: local_time_type 0x1fa-0x1ff.7 (6)
0x1f0|                              00 00 7e 90      |          ..~.  |        utoff: 32400 (valid) 0x1fa-0x1fd.7 (4)
0x1f0|                                          00   |              . |        dst: 0 (valid) 0x1fe-0x1fe.7 (1)
0x1f0|                                             08|               .|        idx: 8 (valid) 0x1ff-0x1ff.7 (1)
     |                                               |                |    time_zone_designations[0:3]: 0x200-0x20b.7 (12)
0x200|4c 4d 54 00                                    |LMT.            |      [0]: "LMT" time_zone_designation 0x200-0x203.7 (4)
0x200|            4a 44 54 00                        |    JDT.        |      [1]: "JDT" time_zone_designation 0x204-0x207.7 (4)
0x200|                        4a 53 54 00            |        JST.    |      [2]: "JST" time_zone_designation 0x208-0x20b.7 (4)
     |                                               |                |    leap_second_records[0:27]: 0x20c-0x34f.7 (324)
     |                                               |                |      [0]{}: leap_second_record 0x20c-0x217.7 (12)
0x200|                                    00 00 00 00|            ....|        occur: "1972-07-01T00:00:00Z" (78796800) 0x20c-0x213.7 (8)
0x210|04 b2 58 00                                    |..X.            |
0x210|            00 00 00 01                        |    ....        |        corr: 1 0x214-0x217.7 (4)
     |                                               |                |      [1]{}: leap_second_record 0x218-0x223.7 (12)
0x210|                        00 00 00 00 05 a4 ec 01|        ........|        occur: "1973-01-01T00:00:01Z" (94694401) 0x218-0x21f.7 (8)
0x220|00 00 00 02                                    |....            |        corr: 2 0x220-0x223.7 (4)
     |                                               |                |      [2]{}: leap_second_record 0x224-0x22f.7 (12)
0x220|            00 00 00 00 07 86 1f 82            |    ........    |        occur: "1974-01-01T00:00:02Z" (126230402) 0x224-0x22b.7 (8)
0x220|                                    00 00 00 03|            ....|        corr: 3 0x22c-0x22f.7 (4)
     |                                               |                |      [3]{}: leap_second_record 0x230-0x23b.7 (12)
0x230|00 00 00 00 09 67 53 03                        |.....gS.        |        occur: "1975-01-01T00:00:03Z" (157766403) 0x230-0x237.7 (8)
0x230|                        00 00 00 04            |        ....    |        corr: 4 0x238-0x23b.7 (4)
     |                                               |                |      [4]{}: leap_second_record 0x23c-0x247.7 (12)
0x230|                                    00 00 00 00|            ....|        occur: "1976-01-01T00:00:04Z" (189302404) 0x23c-0x243.7 (8)
0x240|0b 48 86 84                                    |.H..            |
0x240|            00 00 00 05                        |    ....        |        corr: 5 0x244-0x247.7 (4)
     |                                               |                |      [5]{}: leap_second_record 0x248-0x253.7 (12)
0x240|                        00 00 00 00 0d 2b 0b 85|        .....+..|        occur: "1977-01-01T00:00:05Z" (220924805) 0x248-0x24f.7 (8)
0x250|00 00 00 06                                    |....            |        corr: 6 0x250-0x253.7 (4)
     |                                               |                |      [6]{}: leap_second_record 0x254-0x25f.7 (12)
0x250|            00 00 00 00 0f 0c 3f 06            |    ......?.    |        occur: "1978-01-01T00:00:06Z" (252460806) 0x254-0x25b.7 (8)
0x250|                                    00 00 00 07|            ....|        corr: 7 0x25c-0x25f.7 (4)
     |                                               |                |      [7]{}: leap_second_record 0x260-0x26b.7 (12)
0x260|00 00 00 00 10 ed 72 87                        |......r.        |        occur: "1979-01-01T00:00:07Z" (283996807) 0x260-0x267.7 (8)
0x260|                        00 00 00 08            |        ....    |        corr: 8 0x268-0x26b.7 (4)
     |                                               |                |      [8]{}: leap_second_record 0x26c-0x277.7 (12)
0x260|                                    00 00 00 00|            ....|        occur: "1980-01-01T00:00:08Z" (315532808) 0x26c-0x273.7 (8)
0x270|12 ce a6 08                                    |....            |
0x270|            00 00 00 09                        |    ....        |        corr: 9 0x274-0x277.7 (4)
     |                                               |                |      [9]{}: leap_second_record 0x278-0x283.7 (12)
0x270|                        00 00 00 00 15 9f ca 89|        ........|        occur: "1981-07-01T00:00:09Z" (362793609) 0x278-0x27f.7 (8)
0x280|00 00 00 0a                                    |....            |        corr: 10 0x280-0x283.7 (4)
     |                                               |                |      [10]{}: leap_second_record 0x284-0x28f.7 (12)
0x280|            00 00 00 00 17 80 fe 0a            |    ........    |        occur: "1982-07-01T00:00:10Z" (394329610) 0x284-0x28b.7 (8)
0x280|                                    00 00 00 0b|            ....|        corr: 11 0x28c-0x28f.7 (4)
     |                                               |                |      [11]{}: leap_second_record 0x290-0x29b.7 (12)
0x290|00 00 00 00 19 62 31 8b                        |.....b1.        |        occur: "1983-07-01T00:00:11Z" (425865611) 0x290-0x297.7 (8)
0x290|                        00 00 00 0c            |        ....    |        corr: 12 0x298-0x29b.7 (4)
     |                                               |                |      [12]{}: leap_second_record 0x29c-0x2a7.7 (12)
0x290|                                    00 00 00 00|            ....|        occur: "1985-07-01T00:00:12Z" (489024012) 0x29c-0x2a3.7 (8)
0x2a0|1d 25 ea 0c                                    |.%..            |
0x2a0|            00 00 00 0d                        |    ....        |        corr: 13 0x2a4-0x2a7.7 (4)
     |                                               |                |      [13]{}: leap_second_record 0x2a8-0x2b3.7 (12)
0x2a0|                        00 00 00 00 21 da e5 0d|        ....!...|        occur: "1988-01-01T00:00:13Z" (567993613) 0x2a8-0x2af.7 (8)
0x2b0|00 00 00 0e                                    |....            |        corr: 14 0x2b0-0x2b3.7 (4)
     |                                               |                |      [14]{}: leap_second_record 0x2b4-0x2bf.7 (12)
0x2b0|            00 00 00 00 25 9e 9d 8e            |    ....%...    |        occur: "1990-01-01T00:00:14Z" (631152014) 0x2b4-0x2bb.7 (8)
0x2b0|                                    00 00 00 0f|            ....|        corr: 15 0x2bc-0x2bf.7 (4)
     |                                               |                |      [15]{}: leap_second_record 0x2c0-0x2cb.7 (12)
0x2c0|00 00 00 00 27 7f d1 0f                        |....'...        |        occur: "1991-01-01T00:00:15Z" (662688015) 0x2c0-0x2c7.7 (8)
0x2c0|                        00 00 00 10            |        ....    |        corr: 16 0x2c8-0x2cb.7 (4)
     |                                               |                |      [16]{}: leap_second_record 0x2cc-0x2d7.7 (12)
0x2c0|                                    00 00 00 00|            ....|        occur: "1992-07-01T00:00:16Z" (709948816) 0x2cc-0x2d3.7 (8)
0x2d0|2a 50 f5 90                                    |*P..            |
0x2d0|            00 00 00 11                        |    ....        |        corr: 17 0x2d4-0x2d7.7 (4)
     |                                               |                |      [17]{}: leap_second_record 0x2d8-0x2e3.7 (12)
0x2d0|                        00 00 00 00 2c 32 29 11|        ....,2).|        occur: "1993-07-01T00:00:17Z" (741484817) 0x2d8-0x2df.7 (8)
0x2e0|00 00 00 12                                    |....            |        corr: 18 0x2e0-0x2e3.7 (4)
     |                                               |                |      [18]{}: leap_second_record 0x2e4-0x2ef.7 (12)
0x2e0|            00 00 00 00 2e 13 5c 92            |    ......\.    |        occur: "1994-07-01T00:00:18Z" (773020818) 0x2e4-0x2eb.7 (8)
0x2e0|                                    00 00 00 13|            ....|        corr: 19 0x2ec-0x2ef.7 (4)
     |                                               |                |      [19]{}: leap_second_record 0x2f0-0x2fb.7 (12)
0x2f0|00 00 00 00 30 e7 24 13                        |....0.$.        |        occur: "1996-01-01T00:00:19Z" (820454419) 0x2f0-0x2f7.7 (8)
0x2f0|                        00 00 00 14            |        ....    |        corr: 20 0x2f8-0x2fb.7 (4)
     |                                               |                |      [20]{}: leap_second_record 0x2fc-0x307.7 (12)
0x2f0|                                    00 00 00 00|            ....|        occur: "1997-07-01T00:00:20Z" (867715220) 0x2fc-0x303.7 (8)
0x300|33 b8 48 94                                    |3.H.            |
0x300|            00 00 00 15                        |    ....        |        corr: 21 0x304-0x307.7 (4)
     |                                               |                |      [21]{}: leap_second_record 0x308-0x313.7 (12)
0x300|                        00 00 00 00 36 8c 10 15|        ....6...|        occur: "1999-01-01T00:00:21Z" (915148821) 0x308-0x30f.7 (8)
0x310|00 00 00 16                                    |....            |        corr: 22 0x310-0x313.7 (4)
     |                                               |                |      [22]{}: leap_second_record 0x314-0x31f.7 (12)
0x310|            00 00 00 00 43 b7 1b 96            |    ....C...    |        occur: "2006-01-01T00:00:22Z" (1136073622) 0x314-0x31b.7 (8)
0x310|                                    00 00 00 17|            ....|        corr: 23 0x31c-0x31f.7 (4)
     |                                               |                |      [23]{}: leap_second_record 0x320-0x32b.7 (12)
0x320|00 00 00 00 49 5c 07 97                        |....I\..        |        occur: "2009-01-01T00:00:23Z" (1230768023) 0x320-0x327.7 (8)
0x320|                        00 00 00 18            |        ....    |        corr: 24 0x328-0x32b.7 (4)
     |                                               |                |      [24]{}: leap_second_record 0x32c-0x337.7 (12)
0x320|                                    00 00 00 00|            ....|        occur: "2012-07-01T00:00:24Z" (1341100824) 0x32c-0x333.7 (8)
0x330|4f ef 93 18                                    |O...            |
0x330|            00 00 00 19                        |    ....        |        corr: 25 0x334-0x337.7 (4)
     |                                               |                |      [25]{}: leap_second_record 0x338-0x343.7 (12)
0x330|                        00 00 00 00 55 93 2d 99|        ....U.-.|        occur: "2015-07-01T00:00:25Z" (1435708825) 0x338-0x33f.7 (8)
0x340|00 00 00 1a                                    |....            |        corr: 26 0x340-0x343.7 (4)
     |                                               |                |      [26]{}: leap_second_record 0x344-0x34f.7 (12)
0x340|            00 00 00 00 58 68 46 9a            |    ....XhF.    |        occur: "2017-01-01T00:00:26Z" (1483228826) 0x344-0x34b.7 (8)
0x340|                                    00 00 00 1b|            ....|        corr: 27 0x34c-0x34f.7 (4)
     |                                               |                |    standard_wall_indicators[0:4]: 0x350-0x353.7 (4)
0x350|00                                             |.               |      [0]: 0 standard_wall_indicator (valid) 0x350-0x350.7 (1)
0x350|   00                                          | .              |      [1]: 0 standard_wall_indicator (valid) 0x351-0x351.7 (1)
0x350|      00                                       |  .             |      [2]: 0 standard_wall_indicator (valid) 0x352-0x352.7 (1)
0x350|         01                                    |   .            |      [3]: 1 standard_wall_indicator (valid) 0x353-0x353.7 (1)
     |                                               |                |    ut_local_indicators[0:4]: 0x354-0x357.7 (4)
0x350|            00                                 |    .           |      [0]: 0 ut_local_indicator (valid) 0x354-0x354.7 (1)
0x350|               00                              |     .          |      [1]: 0 ut_local_indicator (valid) 0x355-0x355.7 (1)
0x350|                  00                           |      .         |      [2]: 0 ut_local_indicator (valid) 0x356-0x356.7 (1)
0x350|                     01                        |       .        |      [3]: 1 ut_local_indicator (valid) 0x357-0x357.7 (1)
     |                                               |                |  footer{}: 0x358-0x359.7 (2)
0x350|                        0a                     |        .       |    nl1: 10 (valid) 0x358-0x358.7 (1)
     |                                               |                |    tz_string: "" 0x359-NA (0)
0x350|                           0a|                 |         .|     |    nl2: 10 (valid) 0x359-0x359.7 (1)
