$ fq -d tzif dv Tomsk
     |00 01 02 03 04 05 06 07 08 09 0a 0b 0c 0d 0e 0f|0123456789abcdef|.{}: Tomsk (tzif) 0x0-0x6d9.7 (1754)
     |                                               |                |  v1header{}: 0x0-0x2b.7 (44)
0x000|54 5a 69 66                                    |TZif            |    magic: 0x545a6966 (valid) 0x0-0x3.7 (4)
0x000|            32                                 |    2           |    ver: "2" (0x32) (valid) 0x4-0x4.7 (1)
0x000|               00 00 00 00 00 00 00 00 00 00 00|     ...........|    reserved: raw bits 0x5-0x13.7 (15)
0x010|00 00 00 00                                    |....            |
0x010|            00 00 00 00                        |    ....        |    isutcnt: 0 0x14-0x17.7 (4)
0x010|                        00 00 00 0a            |        ....    |    isstdcnt: 10 0x18-0x1b.7 (4)
0x010|                                    00 00 00 1b|            ....|    leapcnt: 27 0x1c-0x1f.7 (4)
0x020|00 00 00 44                                    |...D            |    timecnt: 68 0x20-0x23.7 (4)
0x020|            00 00 00 0a                        |    ....        |    typecnt: 10 0x24-0x27.7 (4)
0x020|                        00 00 00 10            |        ....    |    charcnt: 16 0x28-0x2b.7 (4)
     |                                               |                |  v1datablock{}: 0x2c-0x2ad.7 (642)
     |                                               |                |    transition_times[0:68]: 0x2c-0x13b.7 (272)
0x020|                                    a1 e5 4e d9|            ..N.|      [0]: "1919-12-21T18:20:09Z" (-1578807591) transition_time 0x2c-0x2f.7 (4)
0x030|b5 a3 e1 20                                    |...             |      [1]: "1930-06-20T18:00:00Z" (-1247551200) transition_time 0x30-0x33.7 (4)
0x030|            15 27 6f 99                        |    .'o.        |      [2]: "1981-03-31T17:00:09Z" (354906009) transition_time 0x34-0x37.7 (4)
0x030|                        16 18 a4 0a            |        ....    |      [3]: "1981-09-30T16:00:10Z" (370713610) transition_time 0x38-0x3b.7 (4)
0x030|                                    17 08 a3 1a|            ....|      [4]: "1982-03-31T17:00:10Z" (386442010) transition_time 0x3c-0x3f.7 (4)
0x040|17 f9 d7 8b                                    |....            |      [5]: "1982-09-30T16:00:11Z" (402249611) transition_time 0x40-0x43.7 (4)
0x040|            18 e9 d6 9b                        |    ....        |      [6]: "1983-03-31T17:00:11Z" (417978011) transition_time 0x44-0x47.7 (4)
0x040|                        19 db 0b 0c            |        ....    |      [7]: "1983-09-30T16:00:12Z" (433785612) transition_time 0x48-0x4b.7 (4)
0x040|                                    1a cc 5b 9c|            ..[.|      [8]: "1984-03-31T17:00:12Z" (449600412) transition_time 0x4c-0x4f.7 (4)
0x050|1b bc 68 bc                                    |..h.            |      [9]: "1984-09-29T19:00:12Z" (465332412) transition_time 0x50-0x53.7 (4)
0x050|            1c ac 59 bc                        |    ..Y.        |      [10]: "1985-03-30T19:00:12Z" (481057212) transition_time 0x54-0x57.7 (4)
0x050|                        1d 9c 4a bd            |        ..J.    |      [11]: "1985-09-28T19:00:13Z" (496782013) transition_time 0x58-0x5b.7 (4)
0x050|                                    1e 8c 3b bd|            ..;.|      [12]: "1986-03-29T19:00:13Z" (512506813) transition_time 0x5c-0x5f.7 (4)
0x060|1f 7c 2c bd                                    |.|,.            |      [13]: "1986-09-27T19:00:13Z" (528231613) transition_time 0x60-0x63.7 (4)
0x060|            20 6c 1d bd                        |     l..        |      [14]: "1987-03-28T19:00:13Z" (543956413) transition_time 0x64-0x67.7 (4)
0x060|                        21 5c 0e bd            |        !\..    |      [15]: "1987-09-26T19:00:13Z" (559681213) transition_time 0x68-0x6b.7 (4)
0x060|                                    22 4b ff be|            "K..|      [16]: "1988-03-26T19:00:14Z" (575406014) transition_time 0x6c-0x6f.7 (4)
0x070|23 3b f0 be                                    |#;..            |      [17]: "1988-09-24T19:00:14Z" (591130814) transition_time 0x70-0x73.7 (4)
0x070|            24 2b e1 be                        |    $+..        |      [18]: "1989-03-25T19:00:14Z" (606855614) transition_time 0x74-0x77.7 (4)
0x070|                        25 1b d2 be            |        %...    |      [19]: "1989-09-23T19:00:14Z" (622580414) transition_time 0x78-0x7b.7 (4)
0x070|                                    26 0b c3 bf|            &...|      [20]: "1990-03-24T19:00:15Z" (638305215) transition_time 0x7c-0x7f.7 (4)
0x080|27 04 ef 3f                                    |'..?            |      [21]: "1990-09-29T19:00:15Z" (654634815) transition_time 0x80-0x83.7 (4)
0x080|            27 f4 e0 40                        |    '..@        |      [22]: "1991-03-30T19:00:16Z" (670359616) transition_time 0x84-0x87.7 (4)
0x080|                        28 e4 df 50            |        (..P    |      [23]: "1991-09-28T20:00:16Z" (686088016) transition_time 0x88-0x8b.7 (4)
0x080|                                    29 78 87 50|            )x.P|      [24]: "1992-01-18T20:00:16Z" (695764816) transition_time 0x8c-0x8f.7 (4)
0x090|29 d4 c2 40                                    |)..@            |      [25]: "1992-03-28T19:00:16Z" (701809216) transition_time 0x90-0x93.7 (4)
0x090|            2a c4 b3 41                        |    *..A        |      [26]: "1992-09-26T19:00:17Z" (717534017) transition_time 0x94-0x97.7 (4)
0x090|                        2b b4 a4 41            |        +..A    |      [27]: "1993-03-27T19:00:17Z" (733258817) transition_time 0x98-0x9b.7 (4)
0x090|                                    2c a4 95 42|            ,..B|      [28]: "1993-09-25T19:00:18Z" (748983618) transition_time 0x9c-0x9f.7 (4)
0x0a0|2d 94 86 42                                    |-..B            |      [29]: "1994-03-26T19:00:18Z" (764708418) transition_time 0xa0-0xa3.7 (4)
0x0a0|            2e 84 77 43                        |    ..wC        |      [30]: "1994-09-24T19:00:19Z" (780433219) transition_time 0xa4-0xa7.7 (4)
0x0a0|                        2f 74 68 43            |        /thC    |      [31]: "1995-03-25T19:00:19Z" (796158019) transition_time 0xa8-0xab.7 (4)
0x0a0|                                    30 64 59 43|            0dYC|      [32]: "1995-09-23T19:00:19Z" (811882819) transition_time 0xac-0xaf.7 (4)
0x0b0|31 5d 84 c4                                    |1]..            |      [33]: "1996-03-30T19:00:20Z" (828212420) transition_time 0xb0-0xb3.7 (4)
0x0b0|            32 72 5f c4                        |    2r_.        |      [34]: "1996-10-26T19:00:20Z" (846356420) transition_time 0xb4-0xb7.7 (4)
0x0b0|                        33 3d 66 c4            |        3=f.    |      [35]: "1997-03-29T19:00:20Z" (859662020) transition_time 0xb8-0xbb.7 (4)
0x0b0|                                    34 52 41 c5|            4RA.|      [36]: "1997-10-25T19:00:21Z" (877806021) transition_time 0xbc-0xbf.7 (4)
0x0c0|35 1d 48 c5                                    |5.H.            |      [37]: "1998-03-28T19:00:21Z" (891111621) transition_time 0xc0-0xc3.7 (4)
0x0c0|            36 32 23 c5                        |    62#.        |      [38]: "1998-10-24T19:00:21Z" (909255621) transition_time 0xc4-0xc7.7 (4)
0x0c0|                        36 fd 2a c6            |        6.*.    |      [39]: "1999-03-27T19:00:22Z" (922561222) transition_time 0xc8-0xcb.7 (4)
0x0c0|                                    38 1b 40 46|            8.@F|      [40]: "1999-10-30T19:00:22Z" (941310022) transition_time 0xcc-0xcf.7 (4)
0x0d0|38 dd 0c c6                                    |8...            |      [41]: "2000-03-25T19:00:22Z" (954010822) transition_time 0xd0-0xd3.7 (4)
0x0d0|            39 fb 22 46                        |    9."F        |      [42]: "2000-10-28T19:00:22Z" (972759622) transition_time 0xd4-0xd7.7 (4)
0x0d0|                        3a bc ee c6            |        :...    |      [43]: "2001-03-24T19:00:22Z" (985460422) transition_time 0xd8-0xdb.7 (4)
0x0d0|                                    3b db 04 46|            ;..F|      [44]: "2001-10-27T19:00:22Z" (1004209222) transition_time 0xdc-0xdf.7 (4)
0x0e0|3c a6 0b 46                                    |<..F            |      [45]: "2002-03-30T19:00:22Z" (1017514822) transition_time 0xe0-0xe3.7 (4)
0x0e0|            3c ce e9 c6                        |    <...        |      [46]: "2002-04-30T19:00:22Z" (1020193222) transition_time 0xe4-0xe7.7 (4)
0x0e0|                        3d ba f4 56            |        =..V    |      [47]: "2002-10-26T20:00:22Z" (1035662422) transition_time 0xe8-0xeb.7 (4)
0x0e0|                                    3e 85 fb 56|            >..V|      [48]: "2003-03-29T20:00:22Z" (1048968022) transition_time 0xec-0xef.7 (4)
0x0f0|3f 9a d6 56                                    |?..V            |      [49]: "2003-10-25T20:00:22Z" (1067112022) transition_time 0xf0-0xf3.7 (4)
0x0f0|            40 65 dd 56                        |    @e.V        |      [50]: "2004-03-27T20:00:22Z" (1080417622) transition_time 0xf4-0xf7.7 (4)
0x0f0|                        41 83 f2 d6            |        A...    |      [51]: "2004-10-30T20:00:22Z" (1099166422) transition_time 0xf8-0xfb.7 (4)
0x0f0|                                    42 45 bf 56|            BE.V|      [52]: "2005-03-26T20:00:22Z" (1111867222) transition_time 0xfc-0xff.7 (4)
0x100|43 63 d4 d6                                    |Cc..            |      [53]: "2005-10-29T20:00:22Z" (1130616022) transition_time 0x100-0x103.7 (4)
0x100|            44 25 a1 57                        |    D%.W        |      [54]: "2006-03-25T20:00:23Z" (1143316823) transition_time 0x104-0x107.7 (4)
0x100|                        45 43 b6 d7            |        EC..    |      [55]: "2006-10-28T20:00:23Z" (1162065623) transition_time 0x108-0x10b.7 (4)
0x100|                                    46 05 83 57|            F..W|      [56]: "2007-03-24T20:00:23Z" (1174766423) transition_time 0x10c-0x10f.7 (4)
0x110|47 23 98 d7                                    |G#..            |      [57]: "2007-10-27T20:00:23Z" (1193515223) transition_time 0x110-0x113.7 (4)
0x110|            47 ee 9f d7                        |    G...        |      [58]: "2008-03-29T20:00:23Z" (1206820823) transition_time 0x114-0x117.7 (4)
0x110|                        49 03 7a d7            |        I.z.    |      [59]: "2008-10-25T20:00:23Z" (1224964823) transition_time 0x118-0x11b.7 (4)
0x110|                                    49 ce 81 d8|            I...|      [60]: "2009-03-28T20:00:24Z" (1238270424) transition_time 0x11c-0x11f.7 (4)
0x120|4a e3 5c d8                                    |J.\.            |      [61]: "2009-10-24T20:00:24Z" (1256414424) transition_time 0x120-0x123.7 (4)
0x120|            4b ae 63 d8                        |    K.c.        |      [62]: "2010-03-27T20:00:24Z" (1269720024) transition_time 0x124-0x127.7 (4)
0x120|                        4c cc 79 58            |        L.yX    |      [63]: "2010-10-30T20:00:24Z" (1288468824) transition_time 0x128-0x12b.7 (4)
0x120|                                    4d 8e 45 d8|            M.E.|      [64]: "2011-03-26T20:00:24Z" (1301169624) transition_time 0x12c-0x12f.7 (4)
0x130|54 4b f3 49                                    |TK.I            |      [65]: "2014-10-25T19:00:25Z" (1414263625) transition_time 0x130-0x133.7 (4)
0x130|            57 49 f8 da                        |    WI..        |      [66]: "2016-05-28T20:00:26Z" (1464465626) transition_time 0x134-0x137.7 (4)
0x130|                        64 9b 78 1b            |        d.x.    |      [67]: "2023-06-28T00:00:27Z" (1687910427) transition_time 0x138-0x13b.7 (4)
     |                                               |                |    transition_types[0:68]: 0x13c-0x17f.7 (68)
0x130|                                    01         |            .   |      [0]: 1 transition_type 0x13c-0x13c.7 (1)
0x130|                                       03      |             .  |      [1]: 3 transition_type 0x13d-0x13d.7 (1)
0x130|                                          02   |              . |      [2]: 2 transition_type 0x13e-0x13e.7 (1)
0x130|                                             03|               .|      [3]: 3 transition_type 0x13f-0x13f.7 (1)
0x140|02                                             |.               |      [4]: 2 transition_type 0x140-0x140.7 (1)
0x140|   03                                          | .              |      [5]: 3 transition_type 0x141-0x141.7 (1)
0x140|      02                                       |  .             |      [6]: 2 transition_type 0x142-0x142.7 (1)
0x140|         03                                    |   .            |      [7]: 3 transition_type 0x143-0x143.7 (1)
0x140|            02                                 |    .           |      [8]: 2 transition_type 0x144-0x144.7 (1)
0x140|               04                              |     .          |      [9]: 4 transition_type 0x145-0x145.7 (1)
0x140|                  05                           |      .         |      [10]: 5 transition_type 0x146-0x146.7 (1)
0x140|                     04                        |       .        |      [11]: 4 transition_type 0x147-0x147.7 (1)
0x140|                        05                     |        .       |      [12]: 5 transition_type 0x148-0x148.7 (1)
0x140|                           04                  |         .      |      [13]: 4 transition_type 0x149-0x149.7 (1)
0x140|                              05               |          .     |      [14]: 5 transition_type 0x14a-0x14a.7 (1)
0x140|                                 04            |           .    |      [15]: 4 transition_type 0x14b-0x14b.7 (1)
0x140|                                    05         |            .   |      [16]: 5 transition_type 0x14c-0x14c.7 (1)
0x140|                                       04      |             .  |      [17]: 4 transition_type 0x14d-0x14d.7 (1)
0x140|                                          05   |              . |      [18]: 5 transition_type 0x14e-0x14e.7 (1)
0x140|                                             04|               .|      [19]: 4 transition_type 0x14f-0x14f.7 (1)
0x150|05                                             |.               |      [20]: 5 transition_type 0x150-0x150.7 (1)
0x150|   04                                          | .              |      [21]: 4 transition_type 0x151-0x151.7 (1)
0x150|      06                                       |  .             |      [22]: 6 transition_type 0x152-0x152.7 (1)
0x150|         07                                    |   .            |      [23]: 7 transition_type 0x153-0x153.7 (1)
0x150|            04                                 |    .           |      [24]: 4 transition_type 0x154-0x154.7 (1)
0x150|               05                              |     .          |      [25]: 5 transition_type 0x155-0x155.7 (1)
0x150|                  04                           |      .         |      [26]: 4 transition_type 0x156-0x156.7 (1)
0x150|                     05                        |       .        |      [27]: 5 transition_type 0x157-0x157.7 (1)
0x150|                        04                     |        .       |      [28]: 4 transition_type 0x158-0x158.7 (1)
0x150|                           05                  |         .      |      [29]: 5 transition_type 0x159-0x159.7 (1)
0x150|                              04               |          .     |      [30]: 4 transition_type 0x15a-0x15a.7 (1)
0x150|                                 05            |           .    |      [31]: 5 transition_type 0x15b-0x15b.7 (1)
0x150|                                    04         |            .   |      [32]: 4 transition_type 0x15c-0x15c.7 (1)
0x150|                                       05      |             .  |      [33]: 5 transition_type 0x15d-0x15d.7 (1)
0x150|                                          04   |              . |      [34]: 4 transition_type 0x15e-0x15e.7 (1)
0x150|                                             05|               .|      [35]: 5 transition_type 0x15f-0x15f.7 (1)
0x160|04                                             |.               |      [36]: 4 transition_type 0x160-0x160.7 (1)
0x160|   05                                          | .              |      [37]: 5 transition_type 0x161-0x161.7 (1)
0x160|      04                                       |  .             |      [38]: 4 transition_type 0x162-0x162.7 (1)
0x160|         05                                    |   .            |      [39]: 5 transition_type 0x163-0x163.7 (1)
0x160|            04                                 |    .           |      [40]: 4 transition_type 0x164-0x164.7 (1)
0x160|               05                              |     .          |      [41]: 5 transition_type 0x165-0x165.7 (1)
0x160|                  04                           |      .         |      [42]: 4 transition_type 0x166-0x166.7 (1)
0x160|                     05                        |       .        |      [43]: 5 transition_type 0x167-0x167.7 (1)
0x160|                        04                     |        .       |      [44]: 4 transition_type 0x168-0x168.7 (1)
0x160|                           05                  |         .      |      [45]: 5 transition_type 0x169-0x169.7 (1)
0x160|                              08               |          .     |      [46]: 8 transition_type 0x16a-0x16a.7 (1)
0x160|                                 07            |           .    |      [47]: 7 transition_type 0x16b-0x16b.7 (1)
0x160|                                    06         |            .   |      [48]: 6 transition_type 0x16c-0x16c.7 (1)
0x160|                                       07      |             .  |      [49]: 7 transition_type 0x16d-0x16d.7 (1)
0x160|                                          06   |              . |      [50]: 6 transition_type 0x16e-0x16e.7 (1)
0x160|                                             07|               .|      [51]: 7 transition_type 0x16f-0x16f.7 (1)
0x170|06                                             |.               |      [52]: 6 transition_type 0x170-0x170.7 (1)
0x170|   07                                          | .              |      [53]: 7 transition_type 0x171-0x171.7 (1)
0x170|      06                                       |  .             |      [54]: 6 transition_type 0x172-0x172.7 (1)
0x170|         07                                    |   .            |      [55]: 7 transition_type 0x173-0x173.7 (1)
0x170|            06                                 |    .           |      [56]: 6 transition_type 0x174-0x174.7 (1)
0x170|               07                              |     .          |      [57]: 7 transition_type 0x175-0x175.7 (1)
0x170|                  06                           |      .         |      [58]: 6 transition_type 0x176-0x176.7 (1)
0x170|                     07                        |       .        |      [59]: 7 transition_type 0x177-0x177.7 (1)
0x170|                        06                     |        .       |      [60]: 6 transition_type 0x178-0x178.7 (1)
0x170|                           07                  |         .      |      [61]: 7 transition_type 0x179-0x179.7 (1)
0x170|                              06               |          .     |      [62]: 6 transition_type 0x17a-0x17a.7 (1)
0x170|                                 07            |           .    |      [63]: 7 transition_type 0x17b-0x17b.7 (1)
0x170|                                    04         |            .   |      [64]: 4 transition_type 0x17c-0x17c.7 (1)
0x170|                                       07      |             .  |      [65]: 7 transition_type 0x17d-0x17d.7 (1)
0x170|                                          04   |              . |      [66]: 4 transition_type 0x17e-0x17e.7 (1)
0x170|                                             04|               .|      [67]: 4 transition_type 0x17f-0x17f.7 (1)
     |                                               |                |    local_time_type_records[0:10]: 0x180-0x1bb.7 (60)
     |                                               |                |      [0]{}: local_time_type 0x180-0x185.7 (6)
0x180|00 00 4f a7                                    |..O.            |        utoff: 20391 (valid) 0x180-0x183.7 (4)
0x180|            00                                 |    .           |        dst: 0 (valid) 0x184-0x184.7 (1)
0x180|               00                              |     .          |        idx: 0 (valid) 0x185-0x185.7 (1)
     |                                               |                |      [1]{}: local_time_type 0x186-0x18b.7 (6)
0x180|                  00 00 54 60                  |      ..T`      |        utoff: 21600 (valid) 0x186-0x189.7 (4)
0x180|                              00               |          .     |        dst: 0 (valid) 0x18a-0x18a.7 (1)
0x180|                                 04            |           .    |        idx: 4 (valid) 0x18b-0x18b.7 (1)
     |                                               |                |      [2]{}: local_time_type 0x18c-0x191.7 (6)
0x180|                                    00 00 70 80|            ..p.|        utoff: 28800 (valid) 0x18c-0x18f.7 (4)
0x190|01                                             |.               |        dst: 1 (valid) 0x190-0x190.7 (1)
0x190|   08                                          | .              |        idx: 8 (valid) 0x191-0x191.7 (1)
     |                                               |                |      [3]{}: local_time_type 0x192-0x197.7 (6)
0x190|      00 00 62 70                              |  ..bp          |        utoff: 25200 (valid) 0x192-0x195.7 (4)
0x190|                  00                           |      .         |        dst: 0 (valid) 0x196-0x196.7 (1)
0x190|                     0c                        |       .        |        idx: 12 (valid) 0x197-0x197.7 (1)
     |                                               |                |      [4]{}: local_time_type 0x198-0x19d.7 (6)
0x190|                        00 00 62 70            |        ..bp    |        utoff: 25200 (valid) 0x198-0x19b.7 (4)
0x190|                                    00         |            .   |        dst: 0 (valid) 0x19c-0x19c.7 (1)
0x190|                                       0c      |             .  |        idx: 12 (valid) 0x19d-0x19d.7 (1)
     |                                               |                |      [5]{}: local_time_type 0x19e-0x1a3.7 (6)
0x190|                                          00 00|              ..|        utoff: 28800 (valid) 0x19e-0x1a1.7 (4)
0x1a0|70 80                                          |p.              |
0x1a0|      01                                       |  .             |        dst: 1 (valid) 0x1a2-0x1a2.7 (1)
0x1a0|         08                                    |   .            |        idx: 8 (valid) 0x1a3-0x1a3.7 (1)
     |                                               |                |      [6]{}: local_time_type 0x1a4-0x1a9.7 (6)
0x1a0|            00 00 62 70                        |    ..bp        |        utoff: 25200 (valid) 0x1a4-0x1a7.7 (4)
0x1a0|                        01                     |        .       |        dst: 1 (valid) 0x1a8-0x1a8.7 (1)
0x1a0|                           0c                  |         .      |        idx: 12 (valid) 0x1a9-0x1a9.7 (1)
     |                                               |                |      [7]{}: local_time_type 0x1aa-0x1af.7 (6)
0x1a0|                              00 00 54 60      |          ..T`  |        utoff: 21600 (valid) 0x1aa-0x1ad.7 (4)
0x1a0|                                          00   |              . |        dst: 0 (valid) 0x1ae-0x1ae.7 (1)
0x1a0|                                             04|               .|        idx: 4 (valid) 0x1af-0x1af.7 (1)
     |                                               |                |      [8]{}: local_time_type 0x1b0-0x1b5.7 (6)
0x1b0|00 00 62 70                                    |..bp            |        utoff: 25200 (valid) 0x1b0-0x1b3.7 (4)
0x1b0|            01                                 |    .           |        dst: 1 (valid) 0x1b4-0x1b4.7 (1)
0x1b0|               0c                              |     .          |        idx: 12 (valid) 0x1b5-0x1b5.7 (1)
     |                                               |                |      [9]{}: local_time_type 0x1b6-0x1bb.7 (6)
0x1b0|                  00 00 62 70                  |      ..bp      |        utoff: 25200 (valid) 0x1b6-0x1b9.7 (4)
0x1b0|                              00               |          .     |        dst: 0 (valid) 0x1ba-0x1ba.7 (1)
0x1b0|                                 0c            |           .    |        idx: 12 (valid) 0x1bb-0x1bb.7 (1)
     |                                               |                |    time_zone_designations[0:4]: 0x1bc-0x1cb.7 (16)
0x1b0|                                    4c 4d 54 00|            LMT.|      [0]: "LMT" time_zone_designation 0x1bc-0x1bf.7 (4)
0x1c0|2b 30 36 00                                    |+06.            |      [1]: "+06" time_zone_designation 0x1c0-0x1c3.7 (4)
0x1c0|            2b 30 38 00                        |    +08.        |      [2]: "+08" time_zone_designation 0x1c4-0x1c7.7 (4)
0x1c0|                        2b 30 37 00            |        +07.    |      [3]: "+07" time_zone_designation 0x1c8-0x1cb.7 (4)
     |                                               |                |    leap_second_records[0:27]: 0x1cc-0x2a3.7 (216)
     |                                               |                |      [0]{}: leap_second_record 0x1cc-0x1d3.7 (8)
0x1c0|                                    04 b2 58 00|            ..X.|        occur: "1972-07-01T00:00:00Z" (78796800) 0x1cc-0x1cf.7 (4)
0x1d0|00 00 00 01                                    |....            |        corr: 1 0x1d0-0x1d3.7 (4)
     |                                               |                |      [1]{}: leap_second_record 0x1d4-0x1db.7 (8)
0x1d0|            05 a4 ec 01                        |    ....        |        occur: "1973-01-01T00:00:01Z" (94694401) 0x1d4-0x1d7.7 (4)
0x1d0|                        00 00 00 02            |        ....    |        corr: 2 0x1d8-0x1db.7 (4)
     |                                               |                |      [2]{}: leap_second_record 0x1dc-0x1e3.7 (8)
0x1d0|                                    07 86 1f 82|            ....|        occur: "1974-01-01T00:00:02Z" (126230402) 0x1dc-0x1df.7 (4)
0x1e0|00 00 00 03                                    |....            |        corr: 3 0x1e0-0x1e3.7 (4)
     |                                               |                |      [3]{}: leap_second_record 0x1e4-0x1eb.7 (8)
0x1e0|            09 67 53 03                        |    .gS.        |        occur: "1975-01-01T00:00:03Z" (157766403) 0x1e4-0x1e7.7 (4)
0x1e0|                        00 00 00 04            |        ....    |        corr: 4 0x1e8-0x1eb.7 (4)
     |                                               |                |      [4]{}: leap_second_record 0x1ec-0x1f3.7 (8)
0x1e0|                                    0b 48 86 84|            .H..|        occur: "1976-01-01T00:00:04Z" (189302404) 0x1ec-0x1ef.7 (4)
0x1f0|00 00 00 05                                    |....            |        corr: 5 0x1f0-0x1f3.7 (4)
     |                                               |                |      [5]{}: leap_second_record 0x1f4-0x1fb.7 (8)
0x1f0|            0d 2b 0b 85                        |    .+..        |        occur: "1977-01-01T00:00:05Z" (220924805) 0x1f4-0x1f7.7 (4)
0x1f0|                        00 00 00 06            |        ....    |        corr: 6 0x1f8-0x1fb.7 (4)
     |                                               |                |      [6]{}: leap_second_record 0x1fc-0x203.7 (8)
0x1f0|                                    0f 0c 3f 06|            ..?.|        occur: "1978-01-01T00:00:06Z" (252460806) 0x1fc-0x1ff.7 (4)
0x200|00 00 00 07                                    |....            |        corr: 7 0x200-0x203.7 (4)
     |                                               |                |      [7]{}: leap_second_record 0x204-0x20b.7 (8)
0x200|            10 ed 72 87                        |    ..r.        |        occur: "1979-01-01T00:00:07Z" (283996807) 0x204-0x207.7 (4)
0x200|                        00 00 00 08            |        ....    |        corr: 8 0x208-0x20b.7 (4)
     |                                               |                |      [8]{}: leap_second_record 0x20c-0x213.7 (8)
0x200|                                    12 ce a6 08|            ....|        occur: "1980-01-01T00:00:08Z" (315532808) 0x20c-0x20f.7 (4)
0x210|00 00 00 09                                    |....            |        corr: 9 0x210-0x213.7 (4)
     |                                               |                |      [9]{}: leap_second_record 0x214-0x21b.7 (8)
0x210|            15 9f ca 89                        |    ....        |        occur: "1981-07-01T00:00:09Z" (362793609) 0x214-0x217.7 (4)
0x210|                        00 00 00 0a            |        ....    |        corr: 10 0x218-0x21b.7 (4)
     |                                               |                |      [10]{}: leap_second_record 0x21c-0x223.7 (8)
0x210|                                    17 80 fe 0a|            ....|        occur: "1982-07-01T00:00:10Z" (394329610) 0x21c-0x21f.7 (4)
0x220|00 00 00 0b                                    |....            |        corr: 11 0x220-0x223.7 (4)
     |                                               |                |      [11]{}: leap_second_record 0x224-0x22b.7 (8)
0x220|            19 62 31 8b                        |    .b1.        |        occur: "1983-07-01T00:00:11Z" (425865611) 0x224-0x227.7 (4)
0x220|                        00 00 00 0c            |        ....    |        corr: 12 0x228-0x22b.7 (4)
     |                                               |                |      [12]{}: leap_second_record 0x22c-0x233.7 (8)
0x220|                                    1d 25 ea 0c|            .%..|        occur: "1985-07-01T00:00:12Z" (489024012) 0x22c-0x22f.7 (4)
0x230|00 00 00 0d                                    |....            |        corr: 13 0x230-0x233.7 (4)
     |                                               |                |      [13]{}: leap_second_record 0x234-0x23b.7 (8)
0x230|            21 da e5 0d                        |    !...        |        occur: "1988-01-01T00:00:13Z" (567993613) 0x234-0x237.7 (4)
0x230|                        00 00 00 0e            |        ....    |        corr: 14 0x238-0x23b.7 (4)
     |                                               |                |      [14]{}: leap_second_record 0x23c-0x243.7 (8)
0x230|                                    25 9e 9d 8e|            %...|        occur: "1990-01-01T00:00:14Z" (631152014) 0x23c-0x23f.7 (4)
0x240|00 00 00 0f                                    |....            |        corr: 15 0x240-0x243.7 (4)
     |                                               |                |      [15]{}: leap_second_record 0x244-0x24b.7 (8)
0x240|            27 7f d1 0f                        |    '...        |        occur: "1991-01-01T00:00:15Z" (662688015) 0x244-0x247.7 (4)
0x240|                        00 00 00 10            |        ....    |        corr: 16 0x248-0x24b.7 (4)
     |                                               |                |      [16]{}: leap_second_record 0x24c-0x253.7 (8)
0x240|                                    2a 50 f5 90|            *P..|        occur: "1992-07-01T00:00:16Z" (709948816) 0x24c-0x24f.7 (4)
0x250|00 00 00 11                                    |....            |        corr: 17 0x250-0x253.7 (4)
     |                                               |                |      [17]{}: leap_second_record 0x254-0x25b.7 (8)
0x250|            2c 32 29 11                        |    ,2).        |        occur: "1993-07-01T00:00:17Z" (741484817) 0x254-0x257.7 (4)
0x250|                        00 00 00 12            |        ....    |        corr: 18 0x258-0x25b.7 (4)
     |                                               |                |      [18]{}: leap_second_record 0x25c-0x263.7 (8)
0x250|                                    2e 13 5c 92|            ..\.|        occur: "1994-07-01T00:00:18Z" (773020818) 0x25c-0x25f.7 (4)
0x260|00 00 00 13                                    |....            |        corr: 19 0x260-0x263.7 (4)
     |                                               |                |      [19]{}: leap_second_record 0x264-0x26b.7 (8)
0x260|            30 e7 24 13                        |    0.$.        |        occur: "1996-01-01T00:00:19Z" (820454419) 0x264-0x267.7 (4)
0x260|                        00 00 00 14            |        ....    |        corr: 20 0x268-0x26b.7 (4)
     |                                               |                |      [20]{}: leap_second_record 0x26c-0x273.7 (8)
0x260|                                    33 b8 48 94|            3.H.|        occur: "1997-07-01T00:00:20Z" (867715220) 0x26c-0x26f.7 (4)
0x270|00 00 00 15                                    |....            |        corr: 21 0x270-0x273.7 (4)
     |                                               |                |      [21]{}: leap_second_record 0x274-0x27b.7 (8)
0x270|            36 8c 10 15                        |    6...        |        occur: "1999-01-01T00:00:21Z" (915148821) 0x274-0x277.7 (4)
0x270|                        00 00 00 16            |        ....    |        corr: 22 0x278-0x27b.7 (4)
     |                                               |                |      [22]{}: leap_second_record 0x27c-0x283.7 (8)
0x270|                                    43 b7 1b 96|            C...|        occur: "2006-01-01T00:00:22Z" (1136073622) 0x27c-0x27f.7 (4)
0x280|00 00 00 17                                    |....            |        corr: 23 0x280-0x283.7 (4)
     |                                               |                |      [23]{}: leap_second_record 0x284-0x28b.7 (8)
0x280|            49 5c 07 97                        |    I\..        |        occur: "2009-01-01T00:00:23Z" (1230768023) 0x284-0x287.7 (4)
0x280|                        00 00 00 18            |        ....    |        corr: 24 0x288-0x28b.7 (4)
     |                                               |                |      [24]{}: leap_second_record 0x28c-0x293.7 (8)
0x280|                                    4f ef 93 18|            O...|        occur: "2012-07-01T00:00:24Z" (1341100824) 0x28c-0x28f.7 (4)
0x290|00 00 00 19                                    |....            |        corr: 25 0x290-0x293.7 (4)
     |                                               |                |      [25]{}: leap_second_record 0x294-0x29b.7 (8)
0x290|            55 93 2d 99                        |    U.-.        |        occur: "2015-07-01T00:00:25Z" (1435708825) 0x294-0x297.7 (4)
0x290|                        00 00 00 1a            |        ....    |        corr: 26 0x298-0x29b.7 (4)
     |                                               |                |      [26]{}: leap_second_record 0x29c-0x2a3.7 (8)
0x290|                                    58 68 46 9a|            XhF.|        occur: "2017-01-01T00:00:26Z" (1483228826) 0x29c-0x29f.7 (4)
0x2a0|00 00 00 1b                                    |....            |        corr: 27 0x2a0-0x2a3.7 (4)
     |                                               |                |    standard_wall_indicators[0:10]: 0x2a4-0x2ad.7 (10)
0x2a0|            00                                 |    .           |      [0]: 0 standard_wall_indicator (valid) 0x2a4-0x2a4.7 (1)
0x2a0|               00                              |     .          |      [1]: 0 standard_wall_indicator (valid) 0x2a5-0x2a5.7 (1)
0x2a0|                  00                           |      .         |      [2]: 0 standard_wall_indicator (valid) 0x2a6-0x2a6.7 (1)
0x2a0|                     00                        |       .        |      [3]: 0 standard_wall_indicator (valid) 0x2a7-0x2a7.7 (1)
0x2a0|                        01                     |        .       |      [4]: 1 standard_wall_indicator (valid) 0x2a8-0x2a8.7 (1)
0x2a0|                           01                  |         .      |      [5]: 1 standard_wall_indicator (valid) 0x2a9-0x2a9.7 (1)
0x2a0|                              01               |          .     |      [6]: 1 standard_wall_indicator (valid) 0x2aa-0x2aa.7 (1)
0x2a0|                                 01            |           .    |      [7]: 1 standard_wall_indicator (valid) 0x2ab-0x2ab.7 (1)
0x2a0|                                    00         |            .   |      [8]: 0 standard_wall_indicator (valid) 0x2ac-0x2ac.7 (1)
0x2a0|                                       01      |             .  |      [9]: 1 standard_wall_indicator (valid) 0x2ad-0x2ad.7 (1)
     |                                               |                |    ut_local_indicators[0:0]: 0x2ae-NA (0)
     |                                               |                |  v2plusheader{}: 0x2ae-0x2d9.7 (44)
0x2a0|                                          54 5a|              TZ|    magic: 0x545a6966 (valid) 0x2ae-0x2b1.7 (4)
0x2b0|69 66                                          |if              |
0x2b0|      32                                       |  2             |    ver: "2" (0x32) (valid) 0x2b2-0x2b2.7 (1)
0x2b0|         00 00 00 00 00 00 00 00 00 00 00 00 00|   .............|    reserved: raw bits 0x2b3-0x2c1.7 (15)
0x2c0|00 00                                          |..              |
0x2c0|      00 00 00 00                              |  ....          |    isutcnt: 0 0x2c2-0x2c5.7 (4)
0x2c0|                  00 00 00 0a                  |      ....      |    isstdcnt: 10 0x2c6-0x2c9.7 (4)
0x2c0|                              00 00 00 1b      |          ....  |    leapcnt: 27 0x2ca-0x2cd.7 (4)
0x2c0|                                          00 00|              ..|    timecnt: 68 0x2ce-0x2d1.7 (4)
0x2d0|00 44                                          |.D              |
0x2d0|      00 00 00 0a                              |  ....          |    typecnt: 10 0x2d2-0x2d5.7 (4)
0x2d0|                  00 00 00 10                  |      ....      |    charcnt: 16 0x2d6-0x2d9.7 (4)
     |                                               |                |  v2plusdatablock{}: 0x2da-0x6d7.7 (1022)
     |                                               |                |    transition_times[0:68]: 0x2da-0x4f9.7 (544)
0x2d0|                              ff ff ff ff a1 e5|          ......|      [0]: "1919-12-21T18:20:09Z" (-1578807591) transition_time 0x2da-0x2e1.7 (8)
0x2e0|4e d9                                          |N.              |
0x2e0|      ff ff ff ff b5 a3 e1 20                  |  .......       |      [1]: "1930-06-20T18:00:00Z" (-1247551200) transition_time 0x2e2-0x2e9.7 (8)
0x2e0|                              00 00 00 00 15 27|          .....'|      [2]: "1981-03-31T17:00:09Z" (354906009) transition_time 0x2ea-0x2f1.7 (8)
0x2f0|6f 99                                          |o.              |
0x2f0|      00 00 00 00 16 18 a4 0a                  |  ........      |      [3]: "1981-09-30T16:00:10Z" (370713610) transition_time 0x2f2-0x2f9.7 (8)
0x2f0|                              00 00 00 00 17 08|          ......|      [4]: "1982-03-31T17:00:10Z" (386442010) transition_time 0x2fa-0x301.7 (8)
0x300|a3 1a                                          |..              |
0x300|      00 00 00 00 17 f9 d7 8b                  |  ........      |      [5]: "1982-09-30T16:00:11Z" (402249611) transition_time 0x302-0x309.7 (8)
0x300|                              00 00 00 00 18 e9|          ......|      [6]: "1983-03-31T17:00:11Z" (417978011) transition_time 0x30a-0x311.7 (8)
0x310|d6 9b                                          |..              |
0x310|      00 00 00 00 19 db 0b 0c                  |  ........      |      [7]: "1983-09-30T16:00:12Z" (433785612) transition_time 0x312-0x319.7 (8)
0x310|                              00 00 00 00 1a cc|          ......|      [8]: "1984-03-31T17:00:12Z" (449600412) transition_time 0x31a-0x321.7 (8)
0x320|5b 9c                                          |[.              |
0x320|      00 00 00 00 1b bc 68 bc                  |  ......h.      |      [9]: "1984-09-29T19:00:12Z" (465332412) transition_time 0x322-0x329.7 (8)
0x320|                              00 00 00 00 1c ac|          ......|      [10]: "1985-03-30T19:00:12Z" (481057212) transition_time 0x32a-0x331.7 (8)
0x330|59 bc                                          |Y.              |
0x330|      00 00 00 00 1d 9c 4a bd                  |  ......J.      |      [11]: "1985-09-28T19:00:13Z" (496782013) transition_time 0x332-0x339.7 (8)
0x330|                              00 00 00 00 1e 8c|          ......|      [12]: "1986-03-29T19:00:13Z" (512506813) transition_time 0x33a-0x341.7 (8)
0x340|3b bd                                          |;.              |
0x340|      00 00 00 00 1f 7c 2c bd                  |  .....|,.      |      [13]: "1986-09-27T19:00:13Z" (528231613) transition_time 0x342-0x349.7 (8)
0x340|                              00 00 00 00 20 6c|          .... l|      [14]: "1987-03-28T19:00:13Z" (543956413) transition_time 0x34a-0x351.7 (8)
0x350|1d bd                                          |..              |
0x350|      00 00 00 00 21 5c 0e bd                  |  ....!\..      |      [15]: "1987-09-26T19:00:13Z" (559681213) transition_time 0x352-0x359.7 (8)
0x350|                              00 00 00 00 22 4b|          ...."K|      [16]: "1988-03-26T19:00:14Z" (575406014) transition_time 0x35a-0x361.7 (8)
0x360|ff be                                          |..              |
0x360|      00 00 00 00 23 3b f0 be                  |  ....#;..      |      [17]: "1988-09-24T19:00:14Z" (591130814) transition_time 0x362-0x369.7 (8)
0x360|                              00 00 00 00 24 2b|          ....$+|      [18]: "1989-03-25T19:00:14Z" (606855614) transition_time 0x36a-0x371.7 (8)
0x370|e1 be                                          |..              |
0x370|      00 00 00 00 25 1b d2 be                  |  ....%...      |      [19]: "1989-09-23T19:00:14Z" (622580414) transition_time 0x372-0x379.7 (8)
0x370|                              00 00 00 00 26 0b|          ....&.|      [20]: "1990-03-24T19:00:15Z" (638305215) transition_time 0x37a-0x381.7 (8)
0x380|c3 bf                                          |..              |
0x380|      00 00 00 00 27 04 ef 3f                  |  ....'..?      |      [21]: "1990-09-29T19:00:15Z" (654634815) transition_time 0x382-0x389.7 (8)
0x380|                              00 00 00 00 27 f4|          ....'.|      [22]: "1991-03-30T19:00:16Z" (670359616) transition_time 0x38a-0x391.7 (8)
0x390|e0 40                                          |.@              |
0x390|      00 00 00 00 28 e4 df 50                  |  ....(..P      |      [23]: "1991-09-28T20:00:16Z" (686088016) transition_time 0x392-0x399.7 (8)
0x390|                              00 00 00 00 29 78|          ....)x|      [24]: "1992-01-18T20:00:16Z" (695764816) transition_time 0x39a-0x3a1.7 (8)
0x3a0|87 50                                          |.P              |
0x3a0|      00 00 00 00 29 d4 c2 40                  |  ....)..@      |      [25]: "1992-03-28T19:00:16Z" (701809216) transition_time 0x3a2-0x3a9.7 (8)
0x3a0|                              00 00 00 00 2a c4|          ....*.|      [26]: "1992-09-26T19:00:17Z" (717534017) transition_time 0x3aa-0x3b1.7 (8)
0x3b0|b3 41                                          |.A              |
0x3b0|      00 00 00 00 2b b4 a4 41                  |  ....+..A      |      [27]: "1993-03-27T19:00:17Z" (733258817) transition_time 0x3b2-0x3b9.7 (8)
0x3b0|                              00 00 00 00 2c a4|          ....,.|      [28]: "1993-09-25T19:00:18Z" (748983618) transition_time 0x3ba-0x3c1.7 (8)
0x3c0|95 42                                          |.B              |
0x3c0|      00 00 00 00 2d 94 86 42                  |  ....-..B      |      [29]: "1994-03-26T19:00:18Z" (764708418) transition_time 0x3c2-0x3c9.7 (8)
0x3c0|                              00 00 00 00 2e 84|          ......|      [30]: "1994-09-24T19:00:19Z" (780433219) transition_time 0x3ca-0x3d1.7 (8)
0x3d0|77 43                                          |wC              |
0x3d0|      00 00 00 00 2f 74 68 43                  |  ..../thC      |      [31]: "1995-03-25T19:00:19Z" (796158019) transition_time 0x3d2-0x3d9.7 (8)
0x3d0|                              00 00 00 00 30 64|          ....0d|      [32]: "1995-09-23T19:00:19Z" (811882819) transition_time 0x3da-0x3e1.7 (8)
0x3e0|59 43                                          |YC              |
0x3e0|      00 00 00 00 31 5d 84 c4                  |  ....1]..      |      [33]: "1996-03-30T19:00:20Z" (828212420) transition_time 0x3e2-0x3e9.7 (8)
0x3e0|                              00 00 00 00 32 72|          ....2r|      [34]: "1996-10-26T19:00:20Z" (846356420) transition_time 0x3ea-0x3f1.7 (8)
0x3f0|5f c4                                          |_.              |
0x3f0|      00 00 00 00 33 3d 66 c4                  |  ....3=f.      |      [35]: "1997-03-29T19:00:20Z" (859662020) transition_time 0x3f2-0x3f9.7 (8)
0x3f0|                              00 00 00 00 34 52|          ....4R|      [36]: "1997-10-25T19:00:21Z" (877806021) transition_time 0x3fa-0x401.7 (8)
0x400|41 c5                                          |A.              |
0x400|      00 00 00 00 35 1d 48 c5                  |  ....5.H.      |      [37]: "1998-03-28T19:00:21Z" (891111621) transition_time 0x402-0x409.7 (8)
0x400|                              00 00 00 00 36 32|          ....62|      [38]: "1998-10-24T19:00:21Z" (909255621) transition_time 0x40a-0x411.7 (8)
0x410|23 c5                                          |#.              |
0x410|      00 00 00 00 36 fd 2a c6                  |  ....6.*.      |      [39]: "1999-03-27T19:00:22Z" (922561222) transition_time 0x412-0x419.7 (8)
0x410|                              00 00 00 00 38 1b|          ....8.|      [40]: "1999-10-30T19:00:22Z" (941310022) transition_time 0x41a-0x421.7 (8)
0x420|40 46                                          |@F              |
0x420|      00 00 00 00 38 dd 0c c6                  |  ....8...      |      [41]: "2000-03-25T19:00:22Z" (954010822) transition_time 0x422-0x429.7 (8)
0x420|                              00 00 00 00 39 fb|          ....9.|      [42]: "2000-10-28T19:00:22Z" (972759622) transition_time 0x42a-0x431.7 (8)
0x430|22 46                                          |"F              |
0x430|      00 00 00 00 3a bc ee c6                  |  ....:...      |      [43]: "2001-03-24T19:00:22Z" (985460422) transition_time 0x432-0x439.7 (8)
0x430|                              00 00 00 00 3b db|          ....;.|      [44]: "2001-10-27T19:00:22Z" (1004209222) transition_time 0x43a-0x441.7 (8)
0x440|04 46                                          |.F              |
0x440|      00 00 00 00 3c a6 0b 46                  |  ....<..F      |      [45]: "2002-03-30T19:00:22Z" (1017514822) transition_time 0x442-0x449.7 (8)
0x440|                              00 00 00 00 3c ce|          ....<.|      [46]: "2002-04-30T19:00:22Z" (1020193222) transition_time 0x44a-0x451.7 (8)
0x450|e9 c6                                          |..              |
0x450|      00 00 00 00 3d ba f4 56                  |  ....=..V      |      [47]: "2002-10-26T20:00:22Z" (1035662422) transition_time 0x452-0x459.7 (8)
0x450|                              00 00 00 00 3e 85|          ....>.|      [48]: "2003-03-29T20:00:22Z" (1048968022) transition_time 0x45a-0x461.7 (8)
0x460|fb 56                                          |.V              |
0x460|      00 00 00 00 3f 9a d6 56                  |  ....?..V      |      [49]: "2003-10-25T20:00:22Z" (1067112022) transition_time 0x462-0x469.7 (8)
0x460|                              00 00 00 00 40 65|          ....@e|      [50]: "2004-03-27T20:00:22Z" (1080417622) transition_time 0x46a-0x471.7 (8)
0x470|dd 56                                          |.V              |
0x470|      00 00 00 00 41 83 f2 d6                  |  ....A...      |      [51]: "2004-10-30T20:00:22Z" (1099166422) transition_time 0x472-0x479.7 (8)
0x470|                              00 00 00 00 42 45|          ....BE|      [52]: "2005-03-26T20:00:22Z" (1111867222) transition_time 0x47a-0x481.7 (8)
0x480|bf 56                                          |.V              |
0x480|      00 00 00 00 43 63 d4 d6                  |  ....Cc..      |      [53]: "2005-10-29T20:00:22Z" (1130616022) transition_time 0x482-0x489.7 (8)
0x480|                              00 00 00 00 44 25|          ....D%|      [54]: "2006-03-25T20:00:23Z" (1143316823) transition_time 0x48a-0x491.7 (8)
0x490|a1 57                                          |.W              |
0x490|      00 00 00 00 45 43 b6 d7                  |  ....EC..      |      [55]: "2006-10-28T20:00:23Z" (1162065623) transition_time 0x492-0x499.7 (8)
0x490|                              00 00 00 00 46 05|          ....F.|      [56]: "2007-03-24T20:00:23Z" (1174766423) transition_time 0x49a-0x4a1.7 (8)
0x4a0|83 57                                          |.W              |
0x4a0|      00 00 00 00 47 23 98 d7                  |  ....G#..      |      [57]: "2007-10-27T20:00:23Z" (1193515223) transition_time 0x4a2-0x4a9.7 (8)
0x4a0|                              00 00 00 00 47 ee|          ....G.|      [58]: "2008-03-29T20:00:23Z" (1206820823) transition_time 0x4aa-0x4b1.7 (8)
0x4b0|9f d7                                          |..              |
0x4b0|      00 00 00 00 49 03 7a d7                  |  ....I.z.      |      [59]: "2008-10-25T20:00:23Z" (1224964823) transition_time 0x4b2-0x4b9.7 (8)
0x4b0|                              00 00 00 00 49 ce|          ....I.|      [60]: "2009-03-28T20:00:24Z" (1238270424) transition_time 0x4ba-0x4c1.7 (8)
0x4c0|81 d8                                          |..              |
0x4c0|      00 00 00 00 4a e3 5c d8                  |  ....J.\.      |      [61]: "2009-10-24T20:00:24Z" (1256414424) transition_time 0x4c2-0x4c9.7 (8)
0x4c0|                              00 00 00 00 4b ae|          ....K.|      [62]: "2010-03-27T20:00:24Z" (1269720024) transition_time 0x4ca-0x4d1.7 (8)
0x4d0|63 d8                                          |c.              |
0x4d0|      00 00 00 00 4c cc 79 58                  |  ....L.yX      |      [63]: "2010-10-30T20:00:24Z" (1288468824) transition_time 0x4d2-0x4d9.7 (8)
0x4d0|                              00 00 00 00 4d 8e|          ....M.|      [64]: "2011-03-26T20:00:24Z" (1301169624) transition_time 0x4da-0x4e1.7 (8)
0x4e0|45 d8                                          |E.              |
0x4e0|      00 00 00 00 54 4b f3 49                  |  ....TK.I      |      [65]: "2014-10-25T19:00:25Z" (1414263625) transition_time 0x4e2-0x4e9.7 (8)
0x4e0|                              00 00 00 00 57 49|          ....WI|      [66]: "2016-05-28T20:00:26Z" (1464465626) transition_time 0x4ea-0x4f1.7 (8)
0x4f0|f8 da                                          |..              |
0x4f0|      00 00 00 00 64 9b 78 1b                  |  ....d.x.      |      [67]: "2023-06-28T00:00:27Z" (1687910427) transition_time 0x4f2-0x4f9.7 (8)
     |                                               |                |    transition_types[0:68]: 0x4fa-0x53d.7 (68)
0x4f0|                              01               |          .     |      [0]: 1 transition_type 0x4fa-0x4fa.7 (1)
0x4f0|                                 03            |           .    |      [1]: 3 transition_type 0x4fb-0x4fb.7 (1)
0x4f0|                                    02         |            .   |      [2]: 2 transition_type 0x4fc-0x4fc.7 (1)
0x4f0|                                       03      |             .  |      [3]: 3 transition_type 0x4fd-0x4fd.7 (1)
0x4f0|                                          02   |              . |      [4]: 2 transition_type 0x4fe-0x4fe.7 (1)
0x4f0|                                             03|               .|      [5]: 3 transition_type 0x4ff-0x4ff.7 (1)
0x500|02                                             |.               |      [6]: 2 transition_type 0x500-0x500.7 (1)
0x500|   03                                          | .              |      [7]: 3 transition_type 0x501-0x501.7 (1)
0x500|      02                                       |  .             |      [8]: 2 transition_type 0x502-0x502.7 (1)
0x500|         04                                    |   .            |      [9]: 4 transition_type 0x503-0x503.7 (1)
0x500|            05                                 |    .           |      [10]: 5 transition_type 0x504-0x504.7 (1)
0x500|               04                              |     .          |      [11]: 4 transition_type 0x505-0x505.7 (1)
0x500|                  05                           |      .         |      [12]: 5 transition_type 0x506-0x506.7 (1)
0x500|                     04                        |       .        |      [13]: 4 transition_type 0x507-0x507.7 (1)
0x500|                        05                     |        .       |      [14]: 5 transition_type 0x508-0x508.7 (1)
0x500|                           04                  |         .      |      [15]: 4 transition_type 0x509-0x509.7 (1)
0x500|                              05               |          .     |      [16]: 5 transition_type 0x50a-0x50a.7 (1)
0x500|                                 04            |           .    |      [17]: 4 transition_type 0x50b-0x50b.7 (1)
0x500|                                    05         |            .   |      [18]: 5 transition_type 0x50c-0x50c.7 (1)
0x500|                                       04      |             .  |      [19]: 4 transition_type 0x50d-0x50d.7 (1)
0x500|                                          05   |              . |      [20]: 5 transition_type 0x50e-0x50e.7 (1)
0x500|                                             04|               .|      [21]: 4 transition_type 0x50f-0x50f.7 (1)
0x510|06                                             |.               |      [22]: 6 transition_type 0x510-0x510.7 (1)
0x510|   07                                          | .              |      [23]: 7 transition_type 0x511-0x511.7 (1)
0x510|      04                                       |  .             |      [24]: 4 transition_type 0x512-0x512.7 (1)
0x510|         05                                    |   .            |      [25]: 5 transition_type 0x513-0x513.7 (1)
0x510|            04                                 |    .           |      [26]: 4 transition_type 0x514-0x514.7 (1)
0x510|               05                              |     .          |      [27]: 5 transition_type 0x515-0x515.7 (1)
0x510|                  04                           |      .         |      [28]: 4 transition_type 0x516-0x516.7 (1)
0x510|                     05                        |       .        |      [29]: 5 transition_type 0x517-0x517.7 (1)
0x510|                        04                     |        .       |      [30]: 4 transition_type 0x518-0x518.7 (1)
0x510|                           05                  |         .      |      [31]: 5 transition_type 0x519-0x519.7 (1)
0x510|                              04               |          .     |      [32]: 4 transition_type 0x51a-0x51a.7 (1)
0x510|                                 05            |           .    |      [33]: 5 transition_type 0x51b-0x51b.7 (1)
0x510|                                    04         |            .   |      [34]: 4 transition_type 0x51c-0x51c.7 (1)
0x510|                                       05      |             .  |      [35]: 5 transition_type 0x51d-0x51d.7 (1)
0x510|                                          04   |              . |      [36]: 4 transition_type 0x51e-0x51e.7 (1)
0x510|                                             05|               .|      [37]: 5 transition_type 0x51f-0x51f.7 (1)
0x520|04                                             |.               |      [38]: 4 transition_type 0x520-0x520.7 (1)
0x520|   05                                          | .              |      [39]: 5 transition_type 0x521-0x521.7 (1)
0x520|      04                                       |  .             |      [40]: 4 transition_type 0x522-0x522.7 (1)
0x520|         05                                    |   .            |      [41]: 5 transition_type 0x523-0x523.7 (1)
0x520|            04                                 |    .           |      [42]: 4 transition_type 0x524-0x524.7 (1)
0x520|               05                              |     .          |      [43]: 5 transition_type 0x525-0x525.7 (1)
0x520|                  04                           |      .         |      [44]: 4 transition_type 0x526-0x526.7 (1)
0x520|                     05                        |       .        |      [45]: 5 transition_type 0x527-0x527.7 (1)
0x520|                        08                     |        .       |      [46]: 8 transition_type 0x528-0x528.7 (1)
0x520|                           07                  |         .      |      [47]: 7 transition_type 0x529-0x529.7 (1)
0x520|                              06               |          .     |      [48]: 6 transition_type 0x52a-0x52a.7 (1)
0x520|                                 07            |           .    |      [49]: 7 transition_type 0x52b-0x52b.7 (1)
0x520|                                    06         |            .   |      [50]: 6 transition_type 0x52c-0x52c.7 (1)
0x520|                                       07      |             .  |      [51]: 7 transition_type 0x52d-0x52d.7 (1)
0x520|                                          06   |              . |      [52]: 6 transition_type 0x52e-0x52e.7 (1)
0x520|                                             07|               .|      [53]: 7 transition_type 0x52f-0x52f.7 (1)
0x530|06                                             |.               |      [54]: 6 transition_type 0x530-0x530.7 (1)
0x530|   07                                          | .              |      [55]: 7 transition_type 0x531-0x531.7 (1)
0x530|      06                                       |  .             |      [56]: 6 transition_type 0x532-0x532.7 (1)
0x530|         07                                    |   .            |      [57]: 7 transition_type 0x533-0x533.7 (1)
0x530|            06                                 |    .           |      [58]: 6 transition_type 0x534-0x534.7 (1)
0x530|               07                              |     .          |      [59]: 7 transition_type 0x535-0x535.7 (1)
0x530|                  06                           |      .         |      [60]: 6 transition_type 0x536-0x536.7 (1)
0x530|                     07                        |       .        |      [61]: 7 transition_type 0x537-0x537.7 (1)
0x530|                        06                     |        .       |      [62]: 6 transition_type 0x538-0x538.7 (1)
0x530|                           07                  |         .      |      [63]: 7 transition_type 0x539-0x539.7 (1)
0x530|                              04               |          .     |      [64]: 4 transition_type 0x53a-0x53a.7 (1)
0x530|                                 07            |           .    |      [65]: 7 transition_type 0x53b-0x53b.7 (1)
0x530|                                    04         |            .   |      [66]: 4 transition_type 0x53c-0x53c.7 (1)
0x530|                                       04      |             .  |      [67]: 4 transition_type 0x53d-0x53d.7 (1)
     |                                               |                |    local_time_type_records[0:10]: 0x53e-0x579.7 (60)
     |                                               |                |      [0]{}: local_time_type 0x53e-0x543.7 (6)
0x530|                                          00 00|              ..|        utoff: 20391 (valid) 0x53e-0x541.7 (4)
0x540|4f a7                                          |O.              |
0x540|      00                                       |  .             |        dst: 0 (valid) 0x542-0x542.7 (1)
0x540|         00                                    |   .            |        idx: 0 (valid) 0x543-0x543.7 (1)
     |                                               |                |      [1]{}: local_time_type 0x544-0x549.7 (6)
0x540|            00 00 54 60                        |    ..T`        |        utoff: 21600 (valid) 0x544-0x547.7 (4)
0x540|                        00                     |        .       |        dst: 0 (valid) 0x548-0x548.7 (1)
0x540|                           04                  |         .      |        idx: 4 (valid) 0x549-0x549.7 (1)
     |                                               |                |      [2]{}: local_time_type 0x54a-0x54f.7 (6)
0x540|                              00 00 70 80      |          ..p.  |        utoff: 28800 (valid) 0x54a-0x54d.7 (4)
0x540|                                          01   |              . |        dst: 1 (valid) 0x54e-0x54e.7 (1)
0x540|                                             08|               .|        idx: 8 (valid) 0x54f-0x54f.7 (1)
     |                                               |                |      [3]{}: local_time_type 0x550-0x555.7 (6)
0x550|00 00 62 70                                    |..bp            |        utoff: 25200 (valid) 0x550-0x553.7 (4)
0x550|            00                                 |    .           |        dst: 0 (valid) 0x554-0x554.7 (1)
0x550|               0c                              |     .          |        idx: 12 (valid) 0x555-0x555.7 (1)
     |                                               |                |      [4]{}: local_time_type 0x556-0x55b.7 (6)
0x550|                  00 00 62 70                  |      ..bp      |        utoff: 25200 (valid) 0x556-0x559.7 (4)
0x550|                              00               |          .     |        dst: 0 (valid) 0x55a-0x55a.7 (1)
0x550|                                 0c            |           .    |        idx: 12 (valid) 0x55b-0x55b.7 (1)
     |                                               |                |      [5]{}: local_time_type 0x55c-0x561.7 (6)
0x550|                                    00 00 70 80|            ..p.|        utoff: 28800 (valid) 0x55c-0x55f.7 (4)
0x560|01                                             |.               |        dst: 1 (valid) 0x560-0x560.7 (1)
0x560|   08                                          | .              |        idx: 8 (valid) 0x561-0x561.7 (1)
     |                                               |                |      [6]{}: local_time_type 0x562-0x567.7 (6)
0x560|      00 00 62 70                              |  ..bp          |        utoff: 25200 (valid) 0x562-0x565.7 (4)
0x560|                  01                           |      .         |        dst: 1 (valid) 0x566-0x566.7 (1)
0x560|                     0c                        |       .        |        idx: 12 (valid) 0x567-0x567.7 (1)
     |                                               |                |      [7]{}: local_time_type 0x568-0x56d.7 (6)
0x560|                        00 00 54 60            |        ..T`    |        utoff: 21600 (valid) 0x568-0x56b.7 (4)
0x560|                                    00         |            .   |        dst: 0 (valid) 0x56c-0x56c.7 (1)
0x560|                                       04      |             .  |        idx: 4 (valid) 0x56d-0x56d.7 (1)
     |                                               |                |      [8]{}: local_time_type 0x56e-0x573.7 (6)
0x560|                                          00 00|              ..|        utoff: 25200 (valid) 0x56e-0x571.7 (4)
0x570|62 70                                          |bp              |
0x570|      01                                       |  .             |        dst: 1 (valid) 0x572-0x572.7 (1)
0x570|         0c                                    |   .            |        idx: 12 (valid) 0x573-0x573.7 (1)
     |                                               |                |      [9]{}: local_time_type 0x574-0x579.7 (6)
0x570|            00 00 62 70                        |    ..bp        |        utoff: 25200 (valid) 0x574-0x577.7 (4)
0x570|                        00                     |        .       |        dst: 0 (valid) 0x578-0x578.7 (1)
0x570|                           0c                  |         .      |        idx: 12 (valid) 0x579-0x579.7 (1)
     |                                               |                |    time_zone_designations[0:4]: 0x57a-0x589.7 (16)
0x570|                              4c 4d 54 00      |          LMT.  |      [0]: "LMT" time_zone_designation 0x57a-0x57d.7 (4)
0x570|                                          2b 30|              +0|      [1]: "+06" time_zone_designation 0x57e-0x581.7 (4)
0x580|36 00                                          |6.              |
0x580|      2b 30 38 00                              |  +08.          |      [2]: "+08" time_zone_designation 0x582-0x585.7 (4)
0x580|                  2b 30 37 00                  |      +07.      |      [3]: "+07" time_zone_designation 0x586-0x589.7 (4)
     |                                               |                |    leap_second_records[0:27]: 0x58a-0x6cd.7 (324)
     |                                               |                |      [0]{}: leap_second_record 0x58a-0x595.7 (12)
0x580|                              00 00 00 00 04 b2|          ......|        occur: "1972-07-01T00:00:00Z" (78796800) 0x58a-0x591.7 (8)
0x590|58 00                                          |X.              |
0x590|      00 00 00 01                              |  ....          |        corr: 1 0x592-0x595.7 (4)
     |                                               |                |      [1]{}: leap_second_record 0x596-0x5a1.7 (12)
0x590|                  00 00 00 00 05 a4 ec 01      |      ........  |        occur: "1973-01-01T00:00:01Z" (94694401) 0x596-0x59d.7 (8)
0x590|                                          00 00|              ..|        corr: 2 0x59e-0x5a1.7 (4)
0x5a0|00 02                                          |..              |
     |                                               |                |      [2]{}: leap_second_record 0x5a2-0x5ad.7 (12)
0x5a0|      00 00 00 00 07 86 1f 82                  |  ........      |        occur: "1974-01-01T00:00:02Z" (126230402) 0x5a2-0x5a9.7 (8)
0x5a0|                              00 00 00 03      |          ....  |        corr: 3 0x5aa-0x5ad.7 (4)
     |                                               |                |      [3]{}: leap_second_record 0x5ae-0x5b9.7 (12)
0x5a0|                                          00 00|              ..|        occur: "1975-01-01T00:00:03Z" (157766403) 0x5ae-0x5b5.7 (8)
0x5b0|00 00 09 67 53 03                              |...gS.          |
0x5b0|                  00 00 00 04                  |      ....      |        corr: 4 0x5b6-0x5b9.7 (4)
     |                                               |                |      [4]{}: leap_second_record 0x5ba-0x5c5.7 (12)
0x5b0|                              00 00 00 00 0b 48|          .....H|        occur: "1976-01-01T00:00:04Z" (189302404) 0x5ba-0x5c1.7 (8)
0x5c0|86 84                                          |..              |
0x5c0|      00 00 00 05                              |  ....          |        corr: 5 0x5c2-0x5c5.7 (4)
     |                                               |                |      [5]{}: leap_second_record 0x5c6-0x5d1.7 (12)
0x5c0|                  00 00 00 00 0d 2b 0b 85      |      .....+..  |        occur: "1977-01-01T00:00:05Z" (220924805) 0x5c6-0x5cd.7 (8)
0x5c0|                                          00 00|              ..|        corr: 6 0x5ce-0x5d1.7 (4)
0x5d0|00 06                                          |..              |
     |                                               |                |      [6]{}: leap_second_record 0x5d2-0x5dd.7 (12)
0x5d0|      00 00 00 00 0f 0c 3f 06                  |  ......?.      |        occur: "1978-01-01T00:00:06Z" (252460806) 0x5d2-0x5d9.7 (8)
0x5d0|                              00 00 00 07      |          ....  |        corr: 7 0x5da-0x5dd.7 (4)
     |                                               |                |      [7]{}: leap_second_record 0x5de-0x5e9.7 (12)
0x5d0|                                          00 00|              ..|        occur: "1979-01-01T00:00:07Z" (283996807) 0x5de-0x5e5.7 (8)
0x5e0|00 00 10 ed 72 87                              |....r.          |
0x5e0|                  00 00 00 08                  |      ....      |        corr: 8 0x5e6-0x5e9.7 (4)
     |                                               |                |      [8]{}: leap_second_record 0x5ea-0x5f5.7 (12)
0x5e0|                              00 00 00 00 12 ce|          ......|        occur: "1980-01-01T00:00:08Z" (315532808) 0x5ea-0x5f1.7 (8)
0x5f0|a6 08                                          |..              |
0x5f0|      00 00 00 09                              |  ....          |        corr: 9 0x5f2-0x5f5.7 (4)
     |                                               |                |      [9]{}: leap_second_record 0x5f6-0x601.7 (12)
0x5f0|                  00 00 00 00 15 9f ca 89      |      ........  |        occur: "1981-07-01T00:00:09Z" (362793609) 0x5f6-0x5fd.7 (8)
0x5f0|                                          00 00|              ..|        corr: 10 0x5fe-0x601.7 (4)
0x600|00 0a                                          |..              |
     |                                               |                |      [10]{}: leap_second_record 0x602-0x60d.7 (12)
0x600|      00 00 00 00 17 80 fe 0a                  |  ........      |        occur: "1982-07-01T00:00:10Z" (394329610) 0x602-0x609.7 (8)
0x600|                              00 00 00 0b      |          ....  |        corr: 11 0x60a-0x60d.7 (4)
     |                                               |                |      [11]{}: leap_second_record 0x60e-0x619.7 (12)
0x600|                                          00 00|              ..|        occur: "1983-07-01T00:00:11Z" (425865611) 0x60e-0x615.7 (8)
0x610|00 00 19 62 31 8b                              |...b1.          |
0x610|                  00 00 00 0c                  |      ....      |        corr: 12 0x616-0x619.7 (4)
     |                                               |                |      [12]{}: leap_second_record 0x61a-0x625.7 (12)
0x610|                              00 00 00 00 1d 25|          .....%|        occur: "1985-07-01T00:00:12Z" (489024012) 0x61a-0x621.7 (8)
0x620|ea 0c                                          |..              |
0x620|      00 00 00 0d                              |  ....          |        corr: 13 0x622-0x625.7 (4)
     |                                               |                |      [13]{}: leap_second_record 0x626-0x631.7 (12)
0x620|                  00 00 00 00 21 da e5 0d      |      ....!...  |        occur: "1988-01-01T00:00:13Z" (567993613) 0x626-0x62d.7 (8)
0x620|                                          00 00|              ..|        corr: 14 0x62e-0x631.7 (4)
0x630|00 0e                                          |..              |
     |                                               |                |      [14]{}: leap_second_record 0x632-0x63d.7 (12)
0x630|      00 00 00 00 25 9e 9d 8e                  |  ....%...      |        occur: "1990-01-01T00:00:14Z" (631152014) 0x632-0x639.7 (8)
0x630|                              00 00 00 0f      |          ....  |        corr: 15 0x63a-0x63d.7 (4)
     |                                               |                |      [15]{}: leap_second_record 0x63e-0x649.7 (12)
0x630|                                          00 00|              ..|        occur: "1991-01-01T00:00:15Z" (662688015) 0x63e-0x645.7 (8)
0x640|00 00 27 7f d1 0f                              |..'...          |
0x640|                  00 00 00 10                  |      ....      |        corr: 16 0x646-0x649.7 (4)
     |                                               |                |      [16]{}: leap_second_record 0x64a-0x655.7 (12)
0x640|                              00 00 00 00 2a 50|          ....*P|        occur: "1992-07-01T00:00:16Z" (709948816) 0x64a-0x651.7 (8)
0x650|f5 90                                          |..              |
0x650|      00 00 00 11                              |  ....          |        corr: 17 0x652-0x655.7 (4)
     |                                               |                |      [17]{}: leap_second_record 0x656-0x661.7 (12)
0x650|                  00 00 00 00 2c 32 29 11      |      ....,2).  |        occur: "1993-07-01T00:00:17Z" (741484817) 0x656-0x65d.7 (8)
0x650|                                          00 00|              ..|        corr: 18 0x65e-0x661.7 (4)
0x660|00 12                                          |..              |
     |                                               |                |      [18]{}: leap_second_record 0x662-0x66d.7 (12)
0x660|      00 00 00 00 2e 13 5c 92                  |  ......\.      |        occur: "1994-07-01T00:00:18Z" (773020818) 0x662-0x669.7 (8)
0x660|                              00 00 00 13      |          ....  |        corr: 19 0x66a-0x66d.7 (4)
     |                                               |                |      [19]{}: leap_second_record 0x66e-0x679.7 (12)
0x660|                                          00 00|              ..|        occur: "1996-01-01T00:00:19Z" (820454419) 0x66e-0x675.7 (8)
0x670|00 00 30 e7 24 13                              |..0.$.          |
0x670|                  00 00 00 14                  |      ....      |        corr: 20 0x676-0x679.7 (4)
     |                                               |                |      [20]{}: leap_second_record 0x67a-0x685.7 (12)
0x670|                              00 00 00 00 33 b8|          ....3.|        occur: "1997-07-01T00:00:20Z" (867715220) 0x67a-0x681.7 (8)
0x680|48 94                                          |H.              |
0x680|      00 00 00 15                              |  ....          |        corr: 21 0x682-0x685.7 (4)
     |                                               |                |      [21]{}: leap_second_record 0x686-0x691.7 (12)
0x680|                  00 00 00 00 36 8c 10 15      |      ....6...  |        occur: "1999-01-01T00:00:21Z" (915148821) 0x686-0x68d.7 (8)
0x680|                                          00 00|              ..|        corr: 22 0x68e-0x691.7 (4)
0x690|00 16                                          |..              |
     |                                               |                |      [22]{}: leap_second_record 0x692-0x69d.7 (12)
0x690|      00 00 00 00 43 b7 1b 96                  |  ....C...      |        occur: "2006-01-01T00:00:22Z" (1136073622) 0x692-0x699.7 (8)
0x690|                              00 00 00 17      |          ....  |        corr: 23 0x69a-0x69d.7 (4)
     |                                               |                |      [23]{}: leap_second_record 0x69e-0x6a9.7 (12)
0x690|                                          00 00|              ..|        occur: "2009-01-01T00:00:23Z" (1230768023) 0x69e-0x6a5.7 (8)
0x6a0|00 00 49 5c 07 97                              |..I\..          |
0x6a0|                  00 00 00 18                  |      ....      |        corr: 24 0x6a6-0x6a9.7 (4)
     |                                               |                |      [24]{}: leap_second_record 0x6aa-0x6b5.7 (12)
0x6a0|                              00 00 00 00 4f ef|          ....O.|        occur: "2012-07-01T00:00:24Z" (1341100824) 0x6aa-0x6b1.7 (8)
0x6b0|93 18                                          |..              |
0x6b0|      00 00 00 19                              |  ....          |        corr: 25 0x6b2-0x6b5.7 (4)
     |                                               |                |      [25]{}: leap_second_record 0x6b6-0x6c1.7 (12)
0x6b0|                  00 00 00 00 55 93 2d 99      |      ....U.-.  |        occur: "2015-07-01T00:00:25Z" (1435708825) 0x6b6-0x6bd.7 (8)
0x6b0|                                          00 00|              ..|        corr: 26 0x6be-0x6c1.7 (4)
0x6c0|00 1a                                          |..              |
     |                                               |                |      [26]{}: leap_second_record 0x6c2-0x6cd.7 (12)
0x6c0|      00 00 00 00 58 68 46 9a                  |  ....XhF.      |        occur: "2017-01-01T00:00:26Z" (1483228826) 0x6c2-0x6c9.7 (8)
0x6c0|                              00 00 00 1b      |          ....  |        corr: 27 0x6ca-0x6cd.7 (4)
     |                                               |                |    standard_wall_indicators[0:10]: 0x6ce-0x6d7.7 (10)
0x6c0|                                          00   |              . |      [0]: 0 standard_wall_indicator (valid) 0x6ce-0x6ce.7 (1)
0x6c0|                                             00|               .|      [1]: 0 standard_wall_indicator (valid) 0x6cf-0x6cf.7 (1)
0x6d0|00                                             |.               |      [2]: 0 standard_wall_indicator (valid) 0x6d0-0x6d0.7 (1)
0x6d0|   00                                          | .              |      [3]: 0 standard_wall_indicator (valid) 0x6d1-0x6d1.7 (1)
0x6d0|      01                                       |  .             |      [4]: 1 standard_wall_indicator (valid) 0x6d2-0x6d2.7 (1)
0x6d0|         01                                    |   .            |      [5]: 1 standard_wall_indicator (valid) 0x6d3-0x6d3.7 (1)
0x6d0|            01                                 |    .           |      [6]: 1 standard_wall_indicator (valid) 0x6d4-0x6d4.7 (1)
0x6d0|               01                              |     .          |      [7]: 1 standard_wall_indicator (valid) 0x6d5-0x6d5.7 (1)
0x6d0|                  00                           |      .         |      [8]: 0 standard_wall_indicator (valid) 0x6d6-0x6d6.7 (1)
0x6d0|                     01                        |       .        |      [9]: 1 standard_wall_indicator (valid) 0x6d7-0x6d7.7 (1)
     |                                               |                |    ut_local_indicators[0:0]: 0x6d8-NA (0)
     |                                               |                |  footer{}: 0x6d8-0x6d9.7 (2)
0x6d0|                        0a                     |        .       |    nl1: 10 (valid) 0x6d8-0x6d8.7 (1)
     |                                               |                |    tz_string: "" 0x6d9-NA (0)
0x6d0|                           0a|                 |         .|     |    nl2: 10 (valid) 0x6d9-0x6d9.7 (1)
