$ fq -d tzif dv Toronto
     |00 01 02 03 04 05 06 07 08 09 0a 0b 0c 0d 0e 0f|0123456789abcdef|.{}: Toronto (tzif) 0x0-0xe23.7 (3620)
     |                                               |                |  v1header{}: 0x0-0x2b.7 (44)
0x000|54 5a 69 66                                    |TZif            |    magic: 0x545a6966 (valid) 0x0-0x3.7 (4)
0x000|            32                                 |    2           |    ver: "2" (0x32) (valid) 0x4-0x4.7 (1)
0x000|               00 00 00 00 00 00 00 00 00 00 00|     ...........|    reserved: raw bits 0x5-0x13.7 (15)
0x010|00 00 00 00                                    |....            |
0x010|            00 00 00 05                        |    ....        |    isutcnt: 5 0x14-0x17.7 (4)
0x010|                        00 00 00 05            |        ....    |    isstdcnt: 5 0x18-0x1b.7 (4)
0x010|                                    00 00 00 1b|            ....|    leapcnt: 27 0x1c-0x1f.7 (4)
0x020|00 00 00 cd                                    |....            |    timecnt: 205 0x20-0x23.7 (4)
0x020|            00 00 00 05                        |    ....        |    typecnt: 5 0x24-0x27.7 (4)
0x020|                        00 00 00 14            |        ....    |    charcnt: 20 0x28-0x2b.7 (4)
     |                                               |                |  v1datablock{}: 0x2c-0x540.7 (1301)
     |                                               |                |    transition_times[0:205]: 0x2c-0x35f.7 (820)
0x020|                                    80 00 00 00|            ....|      [0]: "1901-12-13T20:45:52Z" (-2147483648) transition_time 0x2c-0x2f.7 (4)
0x030|9e b8 93 70                                    |...p            |      [1]: "1918-04-14T07:00:00Z" (-1632070800) transition_time 0x30-0x33.7 (4)
0x030|            9f ba eb 60                        |    ...`        |      [2]: "1918-10-27T06:00:00Z" (-1615140000) transition_time 0x34-0x37.7 (4)
0x030|                        a0 87 2e c8            |        ....    |      [3]: "1919-03-31T04:30:00Z" (-1601753400) transition_time 0x38-0x3b.7 (4)
0x030|                                    a1 9a b1 40|            ...@|      [4]: "1919-10-26T04:00:00Z" (-1583697600) transition_time 0x3c-0x3f.7 (4)
0x040|a2 94 06 f0                                    |....            |      [5]: "1920-05-02T07:00:00Z" (-1567357200) transition_time 0x40-0x43.7 (4)
0x040|            a3 55 a9 40                        |    .U.@        |      [6]: "1920-09-26T04:00:00Z" (-1554667200) transition_time 0x44-0x47.7 (4)
0x040|                        a4 86 5d f0            |        ..].    |      [7]: "1921-05-15T07:00:00Z" (-1534698000) transition_time 0x48-0x4b.7 (4)
0x040|                                    a5 28 78 60|            .(x`|      [8]: "1921-09-15T06:00:00Z" (-1524074400) transition_time 0x4c-0x4f.7 (4)
0x050|a6 66 3f f0                                    |.f?.            |      [9]: "1922-05-14T07:00:00Z" (-1503248400) transition_time 0x50-0x53.7 (4)
0x050|            a7 0c 4e e0                        |    ..N.        |      [10]: "1922-09-17T06:00:00Z" (-1492365600) transition_time 0x54-0x57.7 (4)
0x050|                        a8 46 21 f0            |        .F!.    |      [11]: "1923-05-13T07:00:00Z" (-1471798800) transition_time 0x58-0x5b.7 (4)
0x050|                                    a8 ec 30 e0|            ..0.|      [12]: "1923-09-16T06:00:00Z" (-1460916000) transition_time 0x5c-0x5f.7 (4)
0x060|aa 1c c9 70                                    |...p            |      [13]: "1924-05-04T07:00:00Z" (-1440954000) transition_time 0x60-0x63.7 (4)
0x060|            aa d5 4d 60                        |    ..M`        |      [14]: "1924-09-21T06:00:00Z" (-1428861600) transition_time 0x64-0x67.7 (4)
0x060|                        ab fc ab 70            |        ...p    |      [15]: "1925-05-03T07:00:00Z" (-1409504400) transition_time 0x68-0x6b.7 (4)
0x060|                                    ac b5 2f 60|            ../`|      [16]: "1925-09-20T06:00:00Z" (-1397412000) transition_time 0x6c-0x6f.7 (4)
0x070|ad dc 8d 70                                    |...p            |      [17]: "1926-05-02T07:00:00Z" (-1378054800) transition_time 0x70-0x73.7 (4)
0x070|            ae 95 11 60                        |    ...`        |      [18]: "1926-09-19T06:00:00Z" (-1365962400) transition_time 0x74-0x77.7 (4)
0x070|                        af bc 6f 70            |        ..op    |      [19]: "1927-05-01T07:00:00Z" (-1346605200) transition_time 0x78-0x7b.7 (4)
0x070|                                    b0 7e 2d e0|            .~-.|      [20]: "1927-09-25T06:00:00Z" (-1333908000) transition_time 0x7c-0x7f.7 (4)
0x080|b1 9c 51 70                                    |..Qp            |      [21]: "1928-04-29T07:00:00Z" (-1315155600) transition_time 0x80-0x83.7 (4)
0x080|            b2 67 4a 60                        |    .gJ`        |      [22]: "1928-09-30T06:00:00Z" (-1301853600) transition_time 0x84-0x87.7 (4)
0x080|                        b3 7c 33 70            |        .|3p    |      [23]: "1929-04-28T07:00:00Z" (-1283706000) transition_time 0x88-0x8b.7 (4)
0x080|                                    b4 47 2c 60|            .G,`|      [24]: "1929-09-29T06:00:00Z" (-1270404000) transition_time 0x8c-0x8f.7 (4)
0x090|b5 5c 15 70                                    |.\.p            |      [25]: "1930-04-27T07:00:00Z" (-1252256400) transition_time 0x90-0x93.7 (4)
0x090|            b6 27 0e 60                        |    .'.`        |      [26]: "1930-09-28T06:00:00Z" (-1238954400) transition_time 0x94-0x97.7 (4)
0x090|                        b7 3b f7 70            |        .;.p    |      [27]: "1931-04-26T07:00:00Z" (-1220806800) transition_time 0x98-0x9b.7 (4)
0x090|                                    b8 06 f0 60|            ...`|      [28]: "1931-09-27T06:00:00Z" (-1207504800) transition_time 0x9c-0x9f.7 (4)
0x0a0|b9 25 13 f0                                    |.%..            |      [29]: "1932-05-01T07:00:00Z" (-1188752400) transition_time 0xa0-0xa3.7 (4)
0x0a0|            b9 e6 d2 60                        |    ...`        |      [30]: "1932-09-25T06:00:00Z" (-1176055200) transition_time 0xa4-0xa7.7 (4)
0x0a0|                        bb 04 f5 f0            |        ....    |      [31]: "1933-04-30T07:00:00Z" (-1157302800) transition_time 0xa8-0xab.7 (4)
0x0a0|                                    bb cf ee e0|            ....|      [32]: "1933-10-01T06:00:00Z" (-1144000800) transition_time 0xac-0xaf.7 (4)
0x0b0|bc e4 d7 f0                                    |....            |      [33]: "1934-04-29T07:00:00Z" (-1125853200) transition_time 0xb0-0xb3.7 (4)
0x0b0|            bd af d0 e0                        |    ....        |      [34]: "1934-09-30T06:00:00Z" (-1112551200) transition_time 0xb4-0xb7.7 (4)
0x0b0|                        be c4 b9 f0            |        ....    |      [35]: "1935-04-28T07:00:00Z" (-1094403600) transition_time 0xb8-0xbb.7 (4)
0x0b0|                                    bf 8f b2 e0|            ....|      [36]: "1935-09-29T06:00:00Z" (-1081101600) transition_time 0xbc-0xbf.7 (4)
0x0c0|c0 a4 9b f0                                    |....            |      [37]: "1936-04-26T07:00:00Z" (-1062954000) transition_time 0xc0-0xc3.7 (4)
0x0c0|            c1 6f 94 e0                        |    .o..        |      [38]: "1936-09-27T06:00:00Z" (-1049652000) transition_time 0xc4-0xc7.7 (4)
0x0c0|                        c2 84 7d f0            |        ..}.    |      [39]: "1937-04-25T07:00:00Z" (-1031504400) transition_time 0xc8-0xcb.7 (4)
0x0c0|                                    c3 4f 76 e0|            .Ov.|      [40]: "1937-09-26T06:00:00Z" (-1018202400) transition_time 0xcc-0xcf.7 (4)
0x0d0|c4 64 5f f0                                    |.d_.            |      [41]: "1938-04-24T07:00:00Z" (-1000054800) transition_time 0xd0-0xd3.7 (4)
0x0d0|            c5 2f 58 e0                        |    ./X.        |      [42]: "1938-09-25T06:00:00Z" (-986752800) transition_time 0xd4-0xd7.7 (4)
0x0d0|                        c6 4d 7c 70            |        .M|p    |      [43]: "1939-04-30T07:00:00Z" (-968000400) transition_time 0xd8-0xdb.7 (4)
0x0d0|                                    c7 0f 3a e0|            ..:.|      [44]: "1939-09-24T06:00:00Z" (-955303200) transition_time 0xdc-0xdf.7 (4)
0x0e0|c8 2d 5e 70                                    |.-^p            |      [45]: "1940-04-28T07:00:00Z" (-936550800) transition_time 0xe0-0xe3.7 (4)
0x0e0|            cb 88 f0 70                        |    ...p        |      [46]: "1942-02-09T07:00:00Z" (-880218000) transition_time 0xe4-0xe7.7 (4)
0x0e0|                        d2 23 f4 70            |        .#.p    |      [47]: "1945-08-14T23:00:00Z" (-769395600) transition_time 0xe8-0xeb.7 (4)
0x0e0|                                    d2 60 fb e0|            .`..|      [48]: "1945-09-30T06:00:00Z" (-765396000) transition_time 0xec-0xef.7 (4)
0x0f0|d3 75 e4 f0                                    |.u..            |      [49]: "1946-04-28T07:00:00Z" (-747248400) transition_time 0xf0-0xf3.7 (4)
0x0f0|            d4 40 dd e0                        |    .@..        |      [50]: "1946-09-29T06:00:00Z" (-733946400) transition_time 0xf4-0xf7.7 (4)
0x0f0|                        d5 55 aa d0            |        .U..    |      [51]: "1947-04-27T05:00:00Z" (-715806000) transition_time 0xf8-0xfb.7 (4)
0x0f0|                                    d6 20 a3 c0|            . ..|      [52]: "1947-09-28T04:00:00Z" (-702504000) transition_time 0xfc-0xff.7 (4)
0x100|d7 35 8c d0                                    |.5..            |      [53]: "1948-04-25T05:00:00Z" (-684356400) transition_time 0x100-0x103.7 (4)
0x100|            d8 00 85 c0                        |    ....        |      [54]: "1948-09-26T04:00:00Z" (-671054400) transition_time 0x104-0x107.7 (4)
0x100|                        d9 15 6e d0            |        ..n.    |      [55]: "1949-04-24T05:00:00Z" (-652906800) transition_time 0x108-0x10b.7 (4)
0x100|                                    da 33 76 40|            .3v@|      [56]: "1949-11-27T04:00:00Z" (-634161600) transition_time 0x10c-0x10f.7 (4)
0x110|da fe a7 70                                    |...p            |      [57]: "1950-04-30T07:00:00Z" (-620845200) transition_time 0x110-0x113.7 (4)
0x110|            dc 13 74 60                        |    ..t`        |      [58]: "1950-11-26T06:00:00Z" (-602704800) transition_time 0x114-0x117.7 (4)
0x110|                        dc de 89 70            |        ...p    |      [59]: "1951-04-29T07:00:00Z" (-589395600) transition_time 0x118-0x11b.7 (4)
0x110|                                    dd a9 82 60|            ...`|      [60]: "1951-09-30T06:00:00Z" (-576093600) transition_time 0x11c-0x11f.7 (4)
0x120|de be 6b 70                                    |..kp            |      [61]: "1952-04-27T07:00:00Z" (-557946000) transition_time 0x120-0x123.7 (4)
0x120|            df 89 64 60                        |    ..d`        |      [62]: "1952-09-28T06:00:00Z" (-544644000) transition_time 0x124-0x127.7 (4)
0x120|                        e0 9e 4d 70            |        ..Mp    |      [63]: "1953-04-26T07:00:00Z" (-526496400) transition_time 0x128-0x12b.7 (4)
0x120|                                    e1 69 46 60|            .iF`|      [64]: "1953-09-27T06:00:00Z" (-513194400) transition_time 0x12c-0x12f.7 (4)
0x130|e2 7e 2f 70                                    |.~/p            |      [65]: "1954-04-25T07:00:00Z" (-495046800) transition_time 0x130-0x133.7 (4)
0x130|            e3 49 28 60                        |    .I(`        |      [66]: "1954-09-26T06:00:00Z" (-481744800) transition_time 0x134-0x137.7 (4)
0x130|                        e4 5e 11 70            |        .^.p    |      [67]: "1955-04-24T07:00:00Z" (-463597200) transition_time 0x138-0x13b.7 (4)
0x130|                                    e5 29 0a 60|            .).`|      [68]: "1955-09-25T06:00:00Z" (-450295200) transition_time 0x13c-0x13f.7 (4)
0x140|e6 47 2d f0                                    |.G-.            |      [69]: "1956-04-29T07:00:00Z" (-431542800) transition_time 0x140-0x143.7 (4)
0x140|            e7 12 26 e0                        |    ..&.        |      [70]: "1956-09-30T06:00:00Z" (-418240800) transition_time 0x144-0x147.7 (4)
0x140|                        e8 27 0f f0            |        .'..    |      [71]: "1957-04-28T07:00:00Z" (-400093200) transition_time 0x148-0x14b.7 (4)
0x140|                                    e9 16 f2 e0|            ....|      [72]: "1957-10-27T06:00:00Z" (-384372000) transition_time 0x14c-0x14f.7 (4)
0x150|ea 06 f1 f0                                    |....            |      [73]: "1958-04-27T07:00:00Z" (-368643600) transition_time 0x150-0x153.7 (4)
0x150|            ea f6 d4 e0                        |    ....        |      [74]: "1958-10-26T06:00:00Z" (-352922400) transition_time 0x154-0x157.7 (4)
0x150|                        eb e6 d3 f0            |        ....    |      [75]: "1959-04-26T07:00:00Z" (-337194000) transition_time 0x158-0x15b.7 (4)
0x150|                                    ec d6 b6 e0|            ....|      [76]: "1959-10-25T06:00:00Z" (-321472800) transition_time 0x15c-0x15f.7 (4)
0x160|ed c6 b5 f0                                    |....            |      [77]: "1960-04-24T07:00:00Z" (-305744400) transition_time 0x160-0x163.7 (4)
0x160|            ee bf d3 60                        |    ...`        |      [78]: "1960-10-30T06:00:00Z" (-289418400) transition_time 0x164-0x167.7 (4)
0x160|                        ef af d2 70            |        ...p    |      [79]: "1961-04-30T07:00:00Z" (-273690000) transition_time 0x168-0x16b.7 (4)
0x160|                                    f0 9f b5 60|            ...`|      [80]: "1961-10-29T06:00:00Z" (-257968800) transition_time 0x16c-0x16f.7 (4)
0x170|f1 8f b4 70                                    |...p            |      [81]: "1962-04-29T07:00:00Z" (-242240400) transition_time 0x170-0x173.7 (4)
0x170|            f2 7f 97 60                        |    ...`        |      [82]: "1962-10-28T06:00:00Z" (-226519200) transition_time 0x174-0x177.7 (4)
0x170|                        f3 6f 96 70            |        .o.p    |      [83]: "1963-04-28T07:00:00Z" (-210790800) transition_time 0x178-0x17b.7 (4)
0x170|                                    f4 5f 79 60|            ._y`|      [84]: "1963-10-27T06:00:00Z" (-195069600) transition_time 0x17c-0x17f.7 (4)
0x180|f5 4f 78 70                                    |.Oxp            |      [85]: "1964-04-26T07:00:00Z" (-179341200) transition_time 0x180-0x183.7 (4)
0x180|            f6 3f 5b 60                        |    .?[`        |      [86]: "1964-10-25T06:00:00Z" (-163620000) transition_time 0x184-0x187.7 (4)
0x180|                        f7 2f 5a 70            |        ./Zp    |      [87]: "1965-04-25T07:00:00Z" (-147891600) transition_time 0x188-0x18b.7 (4)
0x180|                                    f8 28 77 e0|            .(w.|      [88]: "1965-10-31T06:00:00Z" (-131565600) transition_time 0x18c-0x18f.7 (4)
0x190|f9 0f 3c 70                                    |..<p            |      [89]: "1966-04-24T07:00:00Z" (-116442000) transition_time 0x190-0x193.7 (4)
0x190|            fa 08 59 e0                        |    ..Y.        |      [90]: "1966-10-30T06:00:00Z" (-100116000) transition_time 0x194-0x197.7 (4)
0x190|                        fa f8 58 f0            |        ..X.    |      [91]: "1967-04-30T07:00:00Z" (-84387600) transition_time 0x198-0x19b.7 (4)
0x190|                                    fb e8 3b e0|            ..;.|      [92]: "1967-10-29T06:00:00Z" (-68666400) transition_time 0x19c-0x19f.7 (4)
0x1a0|fc d8 3a f0                                    |..:.            |      [93]: "1968-04-28T07:00:00Z" (-52938000) transition_time 0x1a0-0x1a3.7 (4)
0x1a0|            fd c8 1d e0                        |    ....        |      [94]: "1968-10-27T06:00:00Z" (-37216800) transition_time 0x1a4-0x1a7.7 (4)
0x1a0|                        fe b8 1c f0            |        ....    |      [95]: "1969-04-27T07:00:00Z" (-21488400) transition_time 0x1a8-0x1ab.7 (4)
0x1a0|                                    ff a7 ff e0|            ....|      [96]: "1969-10-26T06:00:00Z" (-5767200) transition_time 0x1ac-0x1af.7 (4)
0x1b0|00 97 fe f0                                    |....            |      [97]: "1970-04-26T07:00:00Z" (9961200) transition_time 0x1b0-0x1b3.7 (4)
0x1b0|            01 87 e1 e0                        |    ....        |      [98]: "1970-10-25T06:00:00Z" (25682400) transition_time 0x1b4-0x1b7.7 (4)
0x1b0|                        02 77 e0 f0            |        .w..    |      [99]: "1971-04-25T07:00:00Z" (41410800) transition_time 0x1b8-0x1bb.7 (4)
0x1b0|                                    03 70 fe 60|            .p.`|      [100]: "1971-10-31T06:00:00Z" (57736800) transition_time 0x1bc-0x1bf.7 (4)
0x1c0|04 60 fd 70                                    |.`.p            |      [101]: "1972-04-30T07:00:00Z" (73465200) transition_time 0x1c0-0x1c3.7 (4)
0x1c0|            05 50 e0 61                        |    .P.a        |      [102]: "1972-10-29T06:00:01Z" (89186401) transition_time 0x1c4-0x1c7.7 (4)
0x1c0|                        06 40 df 72            |        .@.r    |      [103]: "1973-04-29T07:00:02Z" (104914802) transition_time 0x1c8-0x1cb.7 (4)
0x1c0|                                    07 30 c2 62|            .0.b|      [104]: "1973-10-28T06:00:02Z" (120636002) transition_time 0x1cc-0x1cf.7 (4)
0x1d0|08 20 c1 73                                    |. .s            |      [105]: "1974-04-28T07:00:03Z" (136364403) transition_time 0x1d0-0x1d3.7 (4)
0x1d0|            09 10 a4 63                        |    ...c        |      [106]: "1974-10-27T06:00:03Z" (152085603) transition_time 0x1d4-0x1d7.7 (4)
0x1d0|                        0a 00 a3 74            |        ...t    |      [107]: "1975-04-27T07:00:04Z" (167814004) transition_time 0x1d8-0x1db.7 (4)
0x1d0|                                    0a f0 86 64|            ...d|      [108]: "1975-10-26T06:00:04Z" (183535204) transition_time 0x1dc-0x1df.7 (4)
0x1e0|0b e0 85 75                                    |...u            |      [109]: "1976-04-25T07:00:05Z" (199263605) transition_time 0x1e0-0x1e3.7 (4)
0x1e0|            0c d9 a2 e5                        |    ....        |      [110]: "1976-10-31T06:00:05Z" (215589605) transition_time 0x1e4-0x1e7.7 (4)
0x1e0|                        0d c0 67 76            |        ..gv    |      [111]: "1977-04-24T07:00:06Z" (230713206) transition_time 0x1e8-0x1eb.7 (4)
0x1e0|                                    0e b9 84 e6|            ....|      [112]: "1977-10-30T06:00:06Z" (247039206) transition_time 0x1ec-0x1ef.7 (4)
0x1f0|0f a9 83 f7                                    |....            |      [113]: "1978-04-30T07:00:07Z" (262767607) transition_time 0x1f0-0x1f3.7 (4)
0x1f0|            10 99 66 e7                        |    ..f.        |      [114]: "1978-10-29T06:00:07Z" (278488807) transition_time 0x1f4-0x1f7.7 (4)
0x1f0|                        11 89 65 f8            |        ..e.    |      [115]: "1979-04-29T07:00:08Z" (294217208) transition_time 0x1f8-0x1fb.7 (4)
0x1f0|                                    12 79 48 e8|            .yH.|      [116]: "1979-10-28T06:00:08Z" (309938408) transition_time 0x1fc-0x1ff.7 (4)
0x200|13 69 47 f9                                    |.iG.            |      [117]: "1980-04-27T07:00:09Z" (325666809) transition_time 0x200-0x203.7 (4)
0x200|            14 59 2a e9                        |    .Y*.        |      [118]: "1980-10-26T06:00:09Z" (341388009) transition_time 0x204-0x207.7 (4)
0x200|                        15 49 29 f9            |        .I).    |      [119]: "1981-04-26T07:00:09Z" (357116409) transition_time 0x208-0x20b.7 (4)
0x200|                                    16 39 0c ea|            .9..|      [120]: "1981-10-25T06:00:10Z" (372837610) transition_time 0x20c-0x20f.7 (4)
0x210|17 29 0b fa                                    |.)..            |      [121]: "1982-04-25T07:00:10Z" (388566010) transition_time 0x210-0x213.7 (4)
0x210|            18 22 29 6b                        |    .")k        |      [122]: "1982-10-31T06:00:11Z" (404892011) transition_time 0x214-0x217.7 (4)
0x210|                        19 08 ed fb            |        ....    |      [123]: "1983-04-24T07:00:11Z" (420015611) transition_time 0x218-0x21b.7 (4)
0x210|                                    1a 02 0b 6c|            ...l|      [124]: "1983-10-30T06:00:12Z" (436341612) transition_time 0x21c-0x21f.7 (4)
0x220|1a f2 0a 7c                                    |...|            |      [125]: "1984-04-29T07:00:12Z" (452070012) transition_time 0x220-0x223.7 (4)
0x220|            1b e1 ed 6c                        |    ...l        |      [126]: "1984-10-28T06:00:12Z" (467791212) transition_time 0x224-0x227.7 (4)
0x220|                        1c d1 ec 7c            |        ...|    |      [127]: "1985-04-28T07:00:12Z" (483519612) transition_time 0x228-0x22b.7 (4)
0x220|                                    1d c1 cf 6d|            ...m|      [128]: "1985-10-27T06:00:13Z" (499240813) transition_time 0x22c-0x22f.7 (4)
0x230|1e b1 ce 7d                                    |...}            |      [129]: "1986-04-27T07:00:13Z" (514969213) transition_time 0x230-0x233.7 (4)
0x230|            1f a1 b1 6d                        |    ...m        |      [130]: "1986-10-26T06:00:13Z" (530690413) transition_time 0x234-0x237.7 (4)
0x230|                        20 76 00 fd            |         v..    |      [131]: "1987-04-05T07:00:13Z" (544604413) transition_time 0x238-0x23b.7 (4)
0x230|                                    21 81 93 6d|            !..m|      [132]: "1987-10-25T06:00:13Z" (562140013) transition_time 0x23c-0x23f.7 (4)
0x240|22 55 e2 fe                                    |"U..            |      [133]: "1988-04-03T07:00:14Z" (576054014) transition_time 0x240-0x243.7 (4)
0x240|            23 6a af ee                        |    #j..        |      [134]: "1988-10-30T06:00:14Z" (594194414) transition_time 0x244-0x247.7 (4)
0x240|                        24 35 c4 fe            |        $5..    |      [135]: "1989-04-02T07:00:14Z" (607503614) transition_time 0x248-0x24b.7 (4)
0x240|                                    25 4a 91 ee|            %J..|      [136]: "1989-10-29T06:00:14Z" (625644014) transition_time 0x24c-0x24f.7 (4)
0x250|26 15 a6 ff                                    |&...            |      [137]: "1990-04-01T07:00:15Z" (638953215) transition_time 0x250-0x253.7 (4)
0x250|            27 2a 73 ef                        |    '*s.        |      [138]: "1990-10-28T06:00:15Z" (657093615) transition_time 0x254-0x257.7 (4)
0x250|                        27 fe c3 80            |        '...    |      [139]: "1991-04-07T07:00:16Z" (671007616) transition_time 0x258-0x25b.7 (4)
0x250|                                    29 0a 55 f0|            ).U.|      [140]: "1991-10-27T06:00:16Z" (688543216) transition_time 0x25c-0x25f.7 (4)
0x260|29 de a5 80                                    |)...            |      [141]: "1992-04-05T07:00:16Z" (702457216) transition_time 0x260-0x263.7 (4)
0x260|            2a ea 37 f1                        |    *.7.        |      [142]: "1992-10-25T06:00:17Z" (719992817) transition_time 0x264-0x267.7 (4)
0x260|                        2b be 87 81            |        +...    |      [143]: "1993-04-04T07:00:17Z" (733906817) transition_time 0x268-0x26b.7 (4)
0x260|                                    2c d3 54 72|            ,.Tr|      [144]: "1993-10-31T06:00:18Z" (752047218) transition_time 0x26c-0x26f.7 (4)
0x270|2d 9e 69 82                                    |-.i.            |      [145]: "1994-04-03T07:00:18Z" (765356418) transition_time 0x270-0x273.7 (4)
0x270|            2e b3 36 73                        |    ..6s        |      [146]: "1994-10-30T06:00:19Z" (783496819) transition_time 0x274-0x277.7 (4)
0x270|                        2f 7e 4b 83            |        /~K.    |      [147]: "1995-04-02T07:00:19Z" (796806019) transition_time 0x278-0x27b.7 (4)
0x270|                                    30 93 18 73|            0..s|      [148]: "1995-10-29T06:00:19Z" (814946419) transition_time 0x27c-0x27f.7 (4)
0x280|31 67 68 04                                    |1gh.            |      [149]: "1996-04-07T07:00:20Z" (828860420) transition_time 0x280-0x283.7 (4)
0x280|            32 72 fa 74                        |    2r.t        |      [150]: "1996-10-27T06:00:20Z" (846396020) transition_time 0x284-0x287.7 (4)
0x280|                        33 47 4a 04            |        3GJ.    |      [151]: "1997-04-06T07:00:20Z" (860310020) transition_time 0x288-0x28b.7 (4)
0x280|                                    34 52 dc 75|            4R.u|      [152]: "1997-10-26T06:00:21Z" (877845621) transition_time 0x28c-0x28f.7 (4)
0x290|35 27 2c 05                                    |5',.            |      [153]: "1998-04-05T07:00:21Z" (891759621) transition_time 0x290-0x293.7 (4)
0x290|            36 32 be 75                        |    62.u        |      [154]: "1998-10-25T06:00:21Z" (909295221) transition_time 0x294-0x297.7 (4)
0x290|                        37 07 0e 06            |        7...    |      [155]: "1999-04-04T07:00:22Z" (923209222) transition_time 0x298-0x29b.7 (4)
0x290|                                    38 1b da f6|            8...|      [156]: "1999-10-31T06:00:22Z" (941349622) transition_time 0x29c-0x29f.7 (4)
0x2a0|38 e6 f0 06                                    |8...            |      [157]: "2000-04-02T07:00:22Z" (954658822) transition_time 0x2a0-0x2a3.7 (4)
0x2a0|            39 fb bc f6                        |    9...        |      [158]: "2000-10-29T06:00:22Z" (972799222) transition_time 0x2a4-0x2a7.7 (4)
0x2a0|                        3a c6 d2 06            |        :...    |      [159]: "2001-04-01T07:00:22Z" (986108422) transition_time 0x2a8-0x2ab.7 (4)
0x2a0|                                    3b db 9e f6|            ;...|      [160]: "2001-10-28T06:00:22Z" (1004248822) transition_time 0x2ac-0x2af.7 (4)
0x2b0|3c af ee 86                                    |<...            |      [161]: "2002-04-07T07:00:22Z" (1018162822) transition_time 0x2b0-0x2b3.7 (4)
0x2b0|            3d bb 80 f6                        |    =...        |      [162]: "2002-10-27T06:00:22Z" (1035698422) transition_time 0x2b4-0x2b7.7 (4)
0x2b0|                        3e 8f d0 86            |        >...    |      [163]: "2003-04-06T07:00:22Z" (1049612422) transition_time 0x2b8-0x2bb.7 (4)
0x2b0|                                    3f 9b 62 f6|            ?.b.|      [164]: "2003-10-26T06:00:22Z" (1067148022) transition_time 0x2bc-0x2bf.7 (4)
0x2c0|40 6f b2 86                                    |@o..            |      [165]: "2004-04-04T07:00:22Z" (1081062022) transition_time 0x2c0-0x2c3.7 (4)
0x2c0|            41 84 7f 76                        |    A..v        |      [166]: "2004-10-31T06:00:22Z" (1099202422) transition_time 0x2c4-0x2c7.7 (4)
0x2c0|                        42 4f 94 86            |        BO..    |      [167]: "2005-04-03T07:00:22Z" (1112511622) transition_time 0x2c8-0x2cb.7 (4)
0x2c0|                                    43 64 61 76|            Cdav|      [168]: "2005-10-30T06:00:22Z" (1130652022) transition_time 0x2cc-0x2cf.7 (4)
0x2d0|44 2f 76 87                                    |D/v.            |      [169]: "2006-04-02T07:00:23Z" (1143961223) transition_time 0x2d0-0x2d3.7 (4)
0x2d0|            45 44 43 77                        |    EDCw        |      [170]: "2006-10-29T06:00:23Z" (1162101623) transition_time 0x2d4-0x2d7.7 (4)
0x2d0|                        45 f3 a9 07            |        E...    |      [171]: "2007-03-11T07:00:23Z" (1173596423) transition_time 0x2d8-0x2db.7 (4)
0x2d0|                                    47 2d 5f f7|            G-_.|      [172]: "2007-11-04T06:00:23Z" (1194156023) transition_time 0x2dc-0x2df.7 (4)
0x2e0|47 d3 8b 07                                    |G...            |      [173]: "2008-03-09T07:00:23Z" (1205046023) transition_time 0x2e0-0x2e3.7 (4)
0x2e0|            49 0d 41 f7                        |    I.A.        |      [174]: "2008-11-02T06:00:23Z" (1225605623) transition_time 0x2e4-0x2e7.7 (4)
0x2e0|                        49 b3 6d 08            |        I.m.    |      [175]: "2009-03-08T07:00:24Z" (1236495624) transition_time 0x2e8-0x2eb.7 (4)
0x2e0|                                    4a ed 23 f8|            J.#.|      [176]: "2009-11-01T06:00:24Z" (1257055224) transition_time 0x2ec-0x2ef.7 (4)
0x2f0|4b 9c 89 88                                    |K...            |      [177]: "2010-03-14T07:00:24Z" (1268550024) transition_time 0x2f0-0x2f3.7 (4)
0x2f0|            4c d6 40 78                        |    L.@x        |      [178]: "2010-11-07T06:00:24Z" (1289109624) transition_time 0x2f4-0x2f7.7 (4)
0x2f0|                        4d 7c 6b 88            |        M|k.    |      [179]: "2011-03-13T07:00:24Z" (1299999624) transition_time 0x2f8-0x2fb.7 (4)
0x2f0|                                    4e b6 22 78|            N."x|      [180]: "2011-11-06T06:00:24Z" (1320559224) transition_time 0x2fc-0x2ff.7 (4)
0x300|4f 5c 4d 88                                    |O\M.            |      [181]: "2012-03-11T07:00:24Z" (1331449224) transition_time 0x300-0x303.7 (4)
0x300|            50 96 04 79                        |    P..y        |      [182]: "2012-11-04T06:00:25Z" (1352008825) transition_time 0x304-0x307.7 (4)
0x300|                        51 3c 2f 89            |        Q</.    |      [183]: "2013-03-10T07:00:25Z" (1362898825) transition_time 0x308-0x30b.7 (4)
0x300|                                    52 75 e6 79|            Ru.y|      [184]: "2013-11-03T06:00:25Z" (1383458425) transition_time 0x30c-0x30f.7 (4)
0x310|53 1c 11 89                                    |S...            |      [185]: "2014-03-09T07:00:25Z" (1394348425) transition_time 0x310-0x313.7 (4)
0x310|            54 55 c8 79                        |    TU.y        |      [186]: "2014-11-02T06:00:25Z" (1414908025) transition_time 0x314-0x317.7 (4)
0x310|                        54 fb f3 89            |        T...    |      [187]: "2015-03-08T07:00:25Z" (1425798025) transition_time 0x318-0x31b.7 (4)
0x310|                                    56 35 aa 7a|            V5.z|      [188]: "2015-11-01T06:00:26Z" (1446357626) transition_time 0x31c-0x31f.7 (4)
0x320|56 e5 10 0a                                    |V...            |      [189]: "2016-03-13T07:00:26Z" (1457852426) transition_time 0x320-0x323.7 (4)
0x320|            58 1e c6 fa                        |    X...        |      [190]: "2016-11-06T06:00:26Z" (1478412026) transition_time 0x324-0x327.7 (4)
0x320|                        58 c4 f2 0b            |        X...    |      [191]: "2017-03-12T07:00:27Z" (1489302027) transition_time 0x328-0x32b.7 (4)
0x320|                                    59 fe a8 fb|            Y...|      [192]: "2017-11-05T06:00:27Z" (1509861627) transition_time 0x32c-0x32f.7 (4)
0x330|5a a4 d4 0b                                    |Z...            |      [193]: "2018-03-11T07:00:27Z" (1520751627) transition_time 0x330-0x333.7 (4)
0x330|            5b de 8a fb                        |    [...        |      [194]: "2018-11-04T06:00:27Z" (1541311227) transition_time 0x334-0x337.7 (4)
0x330|                        5c 84 b6 0b            |        \...    |      [195]: "2019-03-10T07:00:27Z" (1552201227) transition_time 0x338-0x33b.7 (4)
0x330|                                    5d be 6c fb|            ].l.|      [196]: "2019-11-03T06:00:27Z" (1572760827) transition_time 0x33c-0x33f.7 (4)
0x340|5e 64 98 0b                                    |^d..            |      [197]: "2020-03-08T07:00:27Z" (1583650827) transition_time 0x340-0x343.7 (4)
0x340|            5f 9e 4e fb                        |    _.N.        |      [198]: "2020-11-01T06:00:27Z" (1604210427) transition_time 0x344-0x347.7 (4)
0x340|                        60 4d b4 8b            |        `M..    |      [199]: "2021-03-14T07:00:27Z" (1615705227) transition_time 0x348-0x34b.7 (4)
0x340|                                    61 87 6b 7b|            a.k{|      [200]: "2021-11-07T06:00:27Z" (1636264827) transition_time 0x34c-0x34f.7 (4)
0x350|62 2d 96 8b                                    |b-..            |      [201]: "2022-03-13T07:00:27Z" (1647154827) transition_time 0x350-0x353.7 (4)
0x350|            63 67 4d 7b                        |    cgM{        |      [202]: "2022-11-06T06:00:27Z" (1667714427) transition_time 0x354-0x357.7 (4)
0x350|                        64 0d 78 8b            |        d.x.    |      [203]: "2023-03-12T07:00:27Z" (1678604427) transition_time 0x358-0x35b.7 (4)
0x350|                                    64 9b 78 1b|            d.x.|      [204]: "2023-06-28T00:00:27Z" (1687910427) transition_time 0x35c-0x35f.7 (4)
     |                                               |                |    transition_types[0:205]: 0x360-0x42c.7 (205)
0x360|02                                             |.               |      [0]: 2 transition_type 0x360-0x360.7 (1)
0x360|   01                                          | .              |      [1]: 1 transition_type 0x361-0x361.7 (1)
0x360|      02                                       |  .             |      [2]: 2 transition_type 0x362-0x362.7 (1)
0x360|         01                                    |   .            |      [3]: 1 transition_type 0x363-0x363.7 (1)
0x360|            02                                 |    .           |      [4]: 2 transition_type 0x364-0x364.7 (1)
0x360|               01                              |     .          |      [5]: 1 transition_type 0x365-0x365.7 (1)
0x360|                  02                           |      .         |      [6]: 2 transition_type 0x366-0x366.7 (1)
0x360|                     01                        |       .        |      [7]: 1 transition_type 0x367-0x367.7 (1)
0x360|                        02                     |        .       |      [8]: 2 transition_type 0x368-0x368.7 (1)
0x360|                           01                  |         .      |      [9]: 1 transition_type 0x369-0x369.7 (1)
0x360|                              02               |          .     |      [10]: 2 transition_type 0x36a-0x36a.7 (1)
0x360|                                 01            |           .    |      [11]: 1 transition_type 0x36b-0x36b.7 (1)
0x360|                                    02         |            .   |      [12]: 2 transition_type 0x36c-0x36c.7 (1)
0x360|                                       01      |             .  |      [13]: 1 transition_type 0x36d-0x36d.7 (1)
0x360|                                          02   |              . |      [14]: 2 transition_type 0x36e-0x36e.7 (1)
0x360|                                             01|               .|      [15]: 1 transition_type 0x36f-0x36f.7 (1)
0x370|02                                             |.               |      [16]: 2 transition_type 0x370-0x370.7 (1)
0x370|   01                                          | .              |      [17]: 1 transition_type 0x371-0x371.7 (1)
0x370|      02                                       |  .             |      [18]: 2 transition_type 0x372-0x372.7 (1)
0x370|         01                                    |   .            |      [19]: 1 transition_type 0x373-0x373.7 (1)
0x370|            02                                 |    .           |      [20]: 2 transition_type 0x374-0x374.7 (1)
0x370|               01                              |     .          |      [21]: 1 transition_type 0x375-0x375.7 (1)
0x370|                  02                           |      .         |      [22]: 2 transition_type 0x376-0x376.7 (1)
0x370|                     01                        |       .        |      [23]: 1 transition_type 0x377-0x377.7 (1)
0x370|                        02                     |        .       |      [24]: 2 transition_type 0x378-0x378.7 (1)
0x370|                           01                  |         .      |      [25]: 1 transition_type 0x379-0x379.7 (1)
0x370|                              02               |          .     |      [26]: 2 transition_type 0x37a-0x37a.7 (1)
0x370|                                 01            |           .    |      [27]: 1 transition_type 0x37b-0x37b.7 (1)
0x370|                                    02         |            .   |      [28]: 2 transition_type 0x37c-0x37c.7 (1)
0x370|                                       01      |             .  |      [29]: 1 transition_type 0x37d-0x37d.7 (1)
0x370|                                          02   |              . |      [30]: 2 transition_type 0x37e-0x37e.7 (1)
0x370|                                             01|               .|      [31]: 1 transition_type 0x37f-0x37f.7 (1)
0x380|02                                             |.               |      [32]: 2 transition_type 0x380-0x380.7 (1)
0x380|   01                                          | .              |      [33]: 1 transition_type 0x381-0x381.7 (1)
0x380|      02                                       |  .             |      [34]: 2 transition_type 0x382-0x382.7 (1)
0x380|         01                                    |   .            |      [35]: 1 transition_type 0x383-0x383.7 (1)
0x380|            02                                 |    .           |      [36]: 2 transition_type 0x384-0x384.7 (1)
0x380|               01                              |     .          |      [37]: 1 transition_type 0x385-0x385.7 (1)
0x380|                  02                           |      .         |      [38]: 2 transition_type 0x386-0x386.7 (1)
0x380|                     01                        |       .        |      [39]: 1 transition_type 0x387-0x387.7 (1)
0x380|                        02                     |        .       |      [40]: 2 transition_type 0x388-0x388.7 (1)
0x380|                           01                  |         .      |      [41]: 1 transition_type 0x389-0x389.7 (1)
0x380|                              02               |          .     |      [42]: 2 transition_type 0x38a-0x38a.7 (1)
0x380|                                 01            |           .    |      [43]: 1 transition_type 0x38b-0x38b.7 (1)
0x380|                                    02         |            .   |      [44]: 2 transition_type 0x38c-0x38c.7 (1)
0x380|                                       01      |             .  |      [45]: 1 transition_type 0x38d-0x38d.7 (1)
0x380|                                          03   |              . |      [46]: 3 transition_type 0x38e-0x38e.7 (1)
0x380|                                             04|               .|      [47]: 4 transition_type 0x38f-0x38f.7 (1)
0x390|02                                             |.               |      [48]: 2 transition_type 0x390-0x390.7 (1)
0x390|   01                                          | .              |      [49]: 1 transition_type 0x391-0x391.7 (1)
0x390|      02                                       |  .             |      [50]: 2 transition_type 0x392-0x392.7 (1)
0x390|         01                                    |   .            |      [51]: 1 transition_type 0x393-0x393.7 (1)
0x390|            02                                 |    .           |      [52]: 2 transition_type 0x394-0x394.7 (1)
0x390|               01                              |     .          |      [53]: 1 transition_type 0x395-0x395.7 (1)
0x390|                  02                           |      .         |      [54]: 2 transition_type 0x396-0x396.7 (1)
0x390|                     01                        |       .        |      [55]: 1 transition_type 0x397-0x397.7 (1)
0x390|                        02                     |        .       |      [56]: 2 transition_type 0x398-0x398.7 (1)
0x390|                           01                  |         .      |      [57]: 1 transition_type 0x399-0x399.7 (1)
0x390|                              02               |          .     |      [58]: 2 transition_type 0x39a-0x39a.7 (1)
0x390|                                 01            |           .    |      [59]: 1 transition_type 0x39b-0x39b.7 (1)
0x390|                                    02         |            .   |      [60]: 2 transition_type 0x39c-0x39c.7 (1)
0x390|                                       01      |             .  |      [61]: 1 transition_type 0x39d-0x39d.7 (1)
0x390|                                          02   |              . |      [62]: 2 transition_type 0x39e-0x39e.7 (1)
0x390|                                             01|               .|      [63]: 1 transition_type 0x39f-0x39f.7 (1)
0x3a0|02                                             |.               |      [64]: 2 transition_type 0x3a0-0x3a0.7 (1)
0x3a0|   01                                          | .              |      [65]: 1 transition_type 0x3a1-0x3a1.7 (1)
0x3a0|      02                                       |  .             |      [66]: 2 transition_type 0x3a2-0x3a2.7 (1)
0x3a0|         01                                    |   .            |      [67]: 1 transition_type 0x3a3-0x3a3.7 (1)
0x3a0|            02                                 |    .           |      [68]: 2 transition_type 0x3a4-0x3a4.7 (1)
0x3a0|               01                              |     .          |      [69]: 1 transition_type 0x3a5-0x3a5.7 (1)
0x3a0|                  02                           |      .         |      [70]: 2 transition_type 0x3a6-0x3a6.7 (1)
0x3a0|                     01                        |       .        |      [71]: 1 transition_type 0x3a7-0x3a7.7 (1)
0x3a0|                        02                     |        .       |      [72]: 2 transition_type 0x3a8-0x3a8.7 (1)
0x3a0|                           01                  |         .      |      [73]: 1 transition_type 0x3a9-0x3a9.7 (1)
0x3a0|                              02               |          .     |      [74]: 2 transition_type 0x3aa-0x3aa.7 (1)
0x3a0|                                 01            |           .    |      [75]: 1 transition_type 0x3ab-0x3ab.7 (1)
0x3a0|                                    02         |            .   |      [76]: 2 transition_type 0x3ac-0x3ac.7 (1)
0x3a0|                                       01      |             .  |      [77]: 1 transition_type 0x3ad-0x3ad.7 (1)
0x3a0|                                          02   |              . |      [78]: 2 transition_type 0x3ae-0x3ae.7 (1)
0x3a0|                                             01|               .|      [79]: 1 transition_type 0x3af-0x3af.7 (1)
0x3b0|02                                             |.               |      [80]: 2 transition_type 0x3b0-0x3b0.7 (1)
0x3b0|   01                                          | .              |      [81]: 1 transition_type 0x3b1-0x3b1.7 (1)
0x3b0|      02                                       |  .             |      [82]: 2 transition_type 0x3b2-0x3b2.7 (1)
0x3b0|         01                                    |   .            |      [83]: 1 transition_type 0x3b3-0x3b3.7 (1)
0x3b0|            02                                 |    .           |      [84]: 2 transition_type 0x3b4-0x3b4.7 (1)
0x3b0|               01                              |     .          |      [85]: 1 transition_type 0x3b5-0x3b5.7 (1)
0x3b0|                  02                           |      .         |      [86]: 2 transition_type 0x3b6-0x3b6.7 (1)
0x3b0|                     01                        |       .        |      [87]: 1 transition_type 0x3b7-0x3b7.7 (1)
0x3b0|                        02                     |        .       |      [88]: 2 transition_type 0x3b8-0x3b8.7 (1)
0x3b0|                           01                  |         .      |      [89]: 1 transition_type 0x3b9-0x3b9.7 (1)
0x3b0|                              02               |          .     |      [90]: 2 transition_type 0x3ba-0x3ba.7 (1)
0x3b0|                                 01            |           .    |      [91]: 1 transition_type 0x3bb-0x3bb.7 (1)
0x3b0|                                    02         |            .   |      [92]: 2 transition_type 0x3bc-0x3bc.7 (1)
0x3b0|                                       01      |             .  |      [93]: 1 transition_type 0x3bd-0x3bd.7 (1)
0x3b0|                                          02   |              . |      [94]: 2 transition_type 0x3be-0x3be.7 (1)
0x3b0|                                             01|               .|      [95]: 1 transition_type 0x3bf-0x3bf.7 (1)
0x3c0|02                                             |.               |      [96]: 2 transition_type 0x3c0-0x3c0.7 (1)
0x3c0|   01                                          | .              |      [97]: 1 transition_type 0x3c1-0x3c1.7 (1)
0x3c0|      02                                       |  .             |      [98]: 2 transition_type 0x3c2-0x3c2.7 (1)
0x3c0|         01                                    |   .            |      [99]: 1 transition_type 0x3c3-0x3c3.7 (1)
0x3c0|            02                                 |    .           |      [100]: 2 transition_type 0x3c4-0x3c4.7 (1)
0x3c0|               01                              |     .          |      [101]: 1 transition_type 0x3c5-0x3c5.7 (1)
0x3c0|                  02                           |      .         |      [102]: 2 transition_type 0x3c6-0x3c6.7 (1)
0x3c0|                     01                        |       .        |      [103]: 1 transition_type 0x3c7-0x3c7.7 (1)
0x3c0|                        02                     |        .       |      [104]: 2 transition_type 0x3c8-0x3c8.7 (1)
0x3c0|                           01                  |         .      |      [105]: 1 transition_type 0x3c9-0x3c9.7 (1)
0x3c0|                              02               |          .     |      [106]: 2 transition_type 0x3ca-0x3ca.7 (1)
0x3c0|                                 01            |           .    |      [107]: 1 transition_type 0x3cb-0x3cb.7 (1)
0x3c0|                                    02         |            .   |      [108]: 2 transition_type 0x3cc-0x3cc.7 (1)
0x3c0|                                       01      |             .  |      [109]: 1 transition_type 0x3cd-0x3cd.7 (1)
0x3c0|                                          02   |              . |      [110]: 2 transition_type 0x3ce-0x3ce.7 (1)
0x3c0|                                             01|               .|      [111]: 1 transition_type 0x3cf-0x3cf.7 (1)
0x3d0|02                                             |.               |      [112]: 2 transition_type 0x3d0-0x3d0.7 (1)
0x3d0|   01                                          | .              |      [113]: 1 transition_type 0x3d1-0x3d1.7 (1)
0x3d0|      02                                       |  .             |      [114]: 2 transition_type 0x3d2-0x3d2.7 (1)
0x3d0|         01                                    |   .            |      [115]: 1 transition_type 0x3d3-0x3d3.7 (1)
0x3d0|            02                                 |    .           |      [116]: 2 transition_type 0x3d4-0x3d4.7 (1)
0x3d0|               01                              |     .          |      [117]: 1 transition_type 0x3d5-0x3d5.7 (1)
0x3d0|                  02                           |      .         |      [118]: 2 transition_type 0x3d6-0x3d6.7 (1)
0x3d0|                     01                        |       .        |      [119]: 1 transition_type 0x3d7-0x3d7.7 (1)
0x3d0|                        02                     |        .       |      [120]: 2 transition_type 0x3d8-0x3d8.7 (1)
0x3d0|                           01                  |         .      |      [121]: 1 transition_type 0x3d9-0x3d9.7 (1)
0x3d0|                              02               |          .     |      [122]: 2 transition_type 0x3da-0x3da.7 (1)
0x3d0|                                 01            |           .    |      [123]: 1 transition_type 0x3db-0x3db.7 (1)
0x3d0|                                    02         |            .   |      [124]: 2 transition_type 0x3dc-0x3dc.7 (1)
0x3d0|                                       01      |             .  |      [125]: 1 transition_type 0x3dd-0x3dd.7 (1)
0x3d0|                                          02   |              . |      [126]: 2 transition_type 0x3de-0x3de.7 (1)
0x3d0|                                             01|               .|      [127]: 1 transition_type 0x3df-0x3df.7 (1)
0x3e0|02                                             |.               |      [128]: 2 transition_type 0x3e0-0x3e0.7 (1)
0x3e0|   01                                          | .              |      [129]: 1 transition_type 0x3e1-0x3e1.7 (1)
0x3e0|      02                                       |  .             |      [130]: 2 transition_type 0x3e2-0x3e2.7 (1)
0x3e0|         01                                    |   .            |      [131]: 1 transition_type 0x3e3-0x3e3.7 (1)
0x3e0|            02                                 |    .           |      [132]: 2 transition_type 0x3e4-0x3e4.7 (1)
0x3e0|               01                              |     .          |      [133]: 1 transition_type 0x3e5-0x3e5.7 (1)
0x3e0|                  02                           |      .         |      [134]: 2 transition_type 0x3e6-0x3e6.7 (1)
0x3e0|                     01                        |       .        |      [135]: 1 transition_type 0x3e7-0x3e7.7 (1)
0x3e0|                        02                     |        .       |      [136]: 2 transition_type 0x3e8-0x3e8.7 (1)
0x3e0|                           01                  |         .      |      [137]: 1 transition_type 0x3e9-0x3e9.7 (1)
0x3e0|                              02               |          .     |      [138]: 2 transition_type 0x3ea-0x3ea.7 (1)
0x3e0|                                 01            |           .    |      [139]: 1 transition_type 0x3eb-0x3eb.7 (1)
0x3e0|                                    02         |            .   |      [140]: 2 transition_type 0x3ec-0x3ec.7 (1)
0x3e0|                                       01      |             .  |      [141]: 1 transition_type 0x3ed-0x3ed.7 (1)
0x3e0|                                          02   |              . |      [142]: 2 transition_type 0x3ee-0x3ee.7 (1)
0x3e0|                                             01|               .|      [143]: 1 transition_type 0x3ef-0x3ef.7 (1)
0x3f0|02                                             |.               |      [144]: 2 transition_type 0x3f0-0x3f0.7 (1)
0x3f0|   01                                          | .              |      [145]: 1 transition_type 0x3f1-0x3f1.7 (1)
0x3f0|      02                                       |  .             |      [146]: 2 transition_type 0x3f2-0x3f2.7 (1)
0x3f0|         01                                    |   .            |      [147]: 1 transition_type 0x3f3-0x3f3.7 (1)
0x3f0|            02                                 |    .           |      [148]: 2 transition_type 0x3f4-0x3f4.7 (1)
0x3f0|               01                              |     .          |      [149]: 1 transition_type 0x3f5-0x3f5.7 (1)
0x3f0|                  02                           |      .         |      [150]: 2 transition_type 0x3f6-0x3f6.7 (1)
0x3f0|                     01                        |       .        |      [151]: 1 transition_type 0x3f7-0x3f7.7 (1)
0x3f0|                        02                     |        .       |      [152]: 2 transition_type 0x3f8-0x3f8.7 (1)
0x3f0|                           01                  |         .      |      [153]: 1 transition_type 0x3f9-0x3f9.7 (1)
0x3f0|                              02               |          .     |      [154]: 2 transition_type 0x3fa-0x3fa.7 (1)
0x3f0|                                 01            |           .    |      [155]: 1 transition_type 0x3fb-0x3fb.7 (1)
0x3f0|                                    02         |            .   |      [156]: 2 transition_type 0x3fc-0x3fc.7 (1)
0x3f0|                                       01      |             .  |      [157]: 1 transition_type 0x3fd-0x3fd.7 (1)
0x3f0|                                          02   |              . |      [158]: 2 transition_type 0x3fe-0x3fe.7 (1)
0x3f0|                                             01|               .|      [159]: 1 transition_type 0x3ff-0x3ff.7 (1)
0x400|02                                             |.               |      [160]: 2 transition_type 0x400-0x400.7 (1)
0x400|   01                                          | .              |      [161]: 1 transition_type 0x401-0x401.7 (1)
0x400|      02                                       |  .             |      [162]: 2 transition_type 0x402-0x402.7 (1)
0x400|         01                                    |   .            |      [163]: 1 transition_type 0x403-0x403.7 (1)
0x400|            02                                 |    .           |      [164]: 2 transition_type 0x404-0x404.7 (1)
0x400|               01                              |     .          |      [165]: 1 transition_type 0x405-0x405.7 (1)
0x400|                  02                           |      .         |      [166]: 2 transition_type 0x406-0x406.7 (1)
0x400|                     01                        |       .        |      [167]: 1 transition_type 0x407-0x407.7 (1)
0x400|                        02                     |        .       |      [168]: 2 transition_type 0x408-0x408.7 (1)
0x400|                           01                  |         .      |      [169]: 1 transition_type 0x409-0x409.7 (1)
0x400|                              02               |          .     |      [170]: 2 transition_type 0x40a-0x40a.7 (1)
0x400|                                 01            |           .    |      [171]: 1 transition_type 0x40b-0x40b.7 (1)
0x400|                                    02         |            .   |      [172]: 2 transition_type 0x40c-0x40c.7 (1)
0x400|                                       01      |             .  |      [173]: 1 transition_type 0x40d-0x40d.7 (1)
0x400|                                          02   |              . |      [174]: 2 transition_type 0x40e-0x40e.7 (1)
0x400|                                             01|               .|      [175]: 1 transition_type 0x40f-0x40f.7 (1)
0x410|02                                             |.               |      [176]: 2 transition_type 0x410-0x410.7 (1)
0x410|   01                                          | .              |      [177]: 1 transition_type 0x411-0x411.7 (1)
0x410|      02                                       |  .             |      [178]: 2 transition_type 0x412-0x412.7 (1)
0x410|         01                                    |   .            |      [179]: 1 transition_type 0x413-0x413.7 (1)
0x410|            02                                 |    .           |      [180]: 2 transition_type 0x414-0x414.7 (1)
0x410|               01                              |     .          |      [181]: 1 transition_type 0x415-0x415.7 (1)
0x410|                  02                           |      .         |      [182]: 2 transition_type 0x416-0x416.7 (1)
0x410|                     01                        |       .        |      [183]: 1 transition_type 0x417-0x417.7 (1)
0x410|                        02                     |        .       |      [184]: 2 transition_type 0x418-0x418.7 (1)
0x410|                           01                  |         .      |      [185]: 1 transition_type 0x419-0x419.7 (1)
0x410|                              02               |          .     |      [186]: 2 transition_type 0x41a-0x41a.7 (1)
0x410|                                 01            |           .    |      [187]: 1 transition_type 0x41b-0x41b.7 (1)
0x410|                                    02         |            .   |      [188]: 2 transition_type 0x41c-0x41c.7 (1)
0x410|                                       01      |             .  |      [189]: 1 transition_type 0x41d-0x41d.7 (1)
0x410|                                          02   |              . |      [190]: 2 transition_type 0x41e-0x41e.7 (1)
0x410|                                             01|               .|      [191]: 1 transition_type 0x41f-0x41f.7 (1)
0x420|02                                             |.               |      [192]: 2 transition_type 0x420-0x420.7 (1)
0x420|   01                                          | .              |      [193]: 1 transition_type 0x421-0x421.7 (1)
0x420|      02                                       |  .             |      [194]: 2 transition_type 0x422-0x422.7 (1)
0x420|         01                                    |   .            |      [195]: 1 transition_type 0x423-0x423.7 (1)
0x420|            02                                 |    .           |      [196]: 2 transition_type 0x424-0x424.7 (1)
0x420|               01                              |     .          |      [197]: 1 transition_type 0x425-0x425.7 (1)
0x420|                  02                           |      .         |      [198]: 2 transition_type 0x426-0x426.7 (1)
0x420|                     01                        |       .        |      [199]: 1 transition_type 0x427-0x427.7 (1)
0x420|                        02                     |        .       |      [200]: 2 transition_type 0x428-0x428.7 (1)
0x420|                           01                  |         .      |      [201]: 1 transition_type 0x429-0x429.7 (1)
0x420|                              02               |          .     |      [202]: 2 transition_type 0x42a-0x42a.7 (1)
0x420|                                 01            |           .    |      [203]: 1 transition_type 0x42b-0x42b.7 (1)
0x420|                                    01         |            .   |      [204]: 1 transition_type 0x42c-0x42c.7 (1)
     |                                               |                |    local_time_type_records[0:5]: 0x42d-0x44a.7 (30)
     |                                               |                |      [0]{}: local_time_type 0x42d-0x432.7 (6)
0x420|                                       ff ff b5|             ...|        utoff: -19052 (valid) 0x42d-0x430.7 (4)
0x430|94                                             |.               |
0x430|   00                                          | .              |        dst: 0 (valid) 0x431-0x431.7 (1)
0x430|      00                                       |  .             |        idx: 0 (valid) 0x432-0x432.7 (1)
     |                                               |                |      [1]{}: local_time_type 0x433-0x438.7 (6)
0x430|         ff ff c7 c0                           |   ....         |        utoff: -14400 (valid) 0x433-0x436.7 (4)
0x430|                     01                        |       .        |        dst: 1 (valid) 0x437-0x437.7 (1)
0x430|                        04                     |        .       |        idx: 4 (valid) 0x438-0x438.7 (1)
     |                                               |                |      [2]{}: local_time_type 0x439-0x43e.7 (6)
0x430|                           ff ff b9 b0         |         ....   |        utoff: -18000 (valid) 0x439-0x43c.7 (4)
0x430|                                       00      |             .  |        dst: 0 (valid) 0x43d-0x43d.7 (1)
0x430|                                          08   |              . |        idx: 8 (valid) 0x43e-0x43e.7 (1)
     |                                               |                |      [3]{}: local_time_type 0x43f-0x444.7 (6)
0x430|                                             ff|               .|        utoff: -14400 (valid) 0x43f-0x442.7 (4)
0x440|ff c7 c0                                       |...             |
0x440|         01                                    |   .            |        dst: 1 (valid) 0x443-0x443.7 (1)
0x440|            0c                                 |    .           |        idx: 12 (valid) 0x444-0x444.7 (1)
     |                                               |                |      [4]{}: local_time_type 0x445-0x44a.7 (6)
0x440|               ff ff c7 c0                     |     ....       |        utoff: -14400 (valid) 0x445-0x448.7 (4)
0x440|                           01                  |         .      |        dst: 1 (valid) 0x449-0x449.7 (1)
0x440|                              10               |          .     |        idx: 16 (valid) 0x44a-0x44a.7 (1)
     |                                               |                |    time_zone_designations[0:5]: 0x44b-0x45e.7 (20)
0x440|                                 4c 4d 54 00   |           LMT. |      [0]: "LMT" time_zone_designation 0x44b-0x44e.7 (4)
0x440|                                             45|               E|      [1]: "EDT" time_zone_designation 0x44f-0x452.7 (4)
0x450|44 54 00                                       |DT.             |
0x450|         45 53 54 00                           |   EST.         |      [2]: "EST" time_zone_designation 0x453-0x456.7 (4)
0x450|                     45 57 54 00               |       EWT.     |      [3]: "EWT" time_zone_designation 0x457-0x45a.7 (4)
0x450|                                 45 50 54 00   |           EPT. |      [4]: "EPT" time_zone_designation 0x45b-0x45e.7 (4)
     |                                               |                |    leap_second_records[0:27]: 0x45f-0x536.7 (216)
     |                                               |                |      [0]{}: leap_second_record 0x45f-0x466.7 (8)
0x450|                                             04|               .|        occur: "1972-07-01T00:00:00Z" (78796800) 0x45f-0x462.7 (4)
0x460|b2 58 00                                       |.X.             |
0x460|         00 00 00 01                           |   ....         |        corr: 1 0x463-0x466.7 (4)
     |                                               |                |      [1]{}: leap_second_record 0x467-0x46e.7 (8)
0x460|                     05 a4 ec 01               |       ....     |        occur: "1973-01-01T00:00:01Z" (94694401) 0x467-0x46a.7 (4)
0x460|                                 00 00 00 02   |           .... |        corr: 2 0x46b-0x46e.7 (4)
     |                                               |                |      [2]{}: leap_second_record 0x46f-0x476.7 (8)
0x460|                                             07|               .|        occur: "1974-01-01T00:00:02Z" (126230402) 0x46f-0x472.7 (4)
0x470|86 1f 82                                       |...             |
0x470|         00 00 00 03                           |   ....         |        corr: 3 0x473-0x476.7 (4)
     |                                               |                |      [3]{}: leap_second_record 0x477-0x47e.7 (8)
0x470|                     09 67 53 03               |       .gS.     |        occur: "1975-01-01T00:00:03Z" (157766403) 0x477-0x47a.7 (4)
0x470|                                 00 00 00 04   |           .... |        corr: 4 0x47b-0x47e.7 (4)
     |                                               |                |      [4]{}: leap_second_record 0x47f-0x486.7 (8)
0x470|                                             0b|               .|        occur: "1976-01-01T00:00:04Z" (189302404) 0x47f-0x482.7 (4)
0x480|48 86 84                                       |H..             |
0x480|         00 00 00 05                           |   ....         |        corr: 5 0x483-0x486.7 (4)
     |                                               |                |      [5]{}: leap_second_record 0x487-0x48e.7 (8)
0x480|                     0d 2b 0b 85               |       .+..     |        occur: "1977-01-01T00:00:05Z" (220924805) 0x487-0x48a.7 (4)
0x480|                                 00 00 00 06   |           .... |        corr: 6 0x48b-0x48e.7 (4)
     |                                               |                |      [6]{}: leap_second_record 0x48f-0x496.7 (8)
0x480|                                             0f|               .|        occur: "1978-01-01T00:00:06Z" (252460806) 0x48f-0x492.7 (4)
0x490|0c 3f 06                                       |.?.             |
0x490|         00 00 00 07                           |   ....         |        corr: 7 0x493-0x496.7 (4)
     |                                               |                |      [7]{}: leap_second_record 0x497-0x49e.7 (8)
0x490|                     10 ed 72 87               |       ..r.     |        occur: "1979-01-01T00:00:07Z" (283996807) 0x497-0x49a.7 (4)
0x490|                                 00 00 00 08   |           .... |        corr: 8 0x49b-0x49e.7 (4)
     |                                               |                |      [8]{}: leap_second_record 0x49f-0x4a6.7 (8)
0x490|                                             12|               .|        occur: "1980-01-01T00:00:08Z" (315532808) 0x49f-0x4a2.7 (4)
0x4a0|ce a6 08                                       |...             |
0x4a0|         00 00 00 09                           |   ....         |        corr: 9 0x4a3-0x4a6.7 (4)
     |                                               |                |      [9]{}: leap_second_record 0x4a7-0x4ae.7 (8)
0x4a0|                     15 9f ca 89               |       ....     |        occur: "1981-07-01T00:00:09Z" (362793609) 0x4a7-0x4aa.7 (4)
0x4a0|                                 00 00 00 0a   |           .... |        corr: 10 0x4ab-0x4ae.7 (4)
     |                                               |                |      [10]{}: leap_second_record 0x4af-0x4b6.7 (8)
0x4a0|                                             17|               .|        occur: "1982-07-01T00:00:10Z" (394329610) 0x4af-0x4b2.7 (4)
0x4b0|80 fe 0a                                       |...             |
0x4b0|         00 00 00 0b                           |   ....         |        corr: 11 0x4b3-0x4b6.7 (4)
     |                                               |                |      [11]{}: leap_second_record 0x4b7-0x4be.7 (8)
0x4b0|                     19 62 31 8b               |       .b1.     |        occur: "1983-07-01T00:00:11Z" (425865611) 0x4b7-0x4ba.7 (4)
0x4b0|                                 00 00 00 0c   |           .... |        corr: 12 0x4bb-0x4be.7 (4)
     |                                               |                |      [12]{}: leap_second_record 0x4bf-0x4c6.7 (8)
0x4b0|                                             1d|               .|        occur: "1985-07-01T00:00:12Z" (489024012) 0x4bf-0x4c2.7 (4)
0x4c0|25 ea 0c                                       |%..             |
0x4c0|         00 00 00 0d                           |   ....         |        corr: 13 0x4c3-0x4c6.7 (4)
     |                                               |                |      [13]{}: leap_second_record 0x4c7-0x4ce.7 (8)
0x4c0|                     21 da e5 0d               |       !...     |        occur: "1988-01-01T00:00:13Z" (567993613) 0x4c7-0x4ca.7 (4)
0x4c0|                                 00 00 00 0e   |           .... |        corr: 14 0x4cb-0x4ce.7 (4)
     |                                               |                |      [14]{}: leap_second_record 0x4cf-0x4d6.7 (8)
0x4c0|                                             25|               %|        occur: "1990-01-01T00:00:14Z" (631152014) 0x4cf-0x4d2.7 (4)
0x4d0|9e 9d 8e                                       |...             |
0x4d0|         00 00 00 0f                           |   ....         |        corr: 15 0x4d3-0x4d6.7 (4)
     |                                               |                |      [15]{}: leap_second_record 0x4d7-0x4de.7 (8)
0x4d0|                     27 7f d1 0f               |       '...     |        occur: "1991-01-01T00:00:15Z" (662688015) 0x4d7-0x4da.7 (4)
0x4d0|                                 00 00 00 10   |           .... |        corr: 16 0x4db-0x4de.7 (4)
     |                                               |                |      [16]{}: leap_second_record 0x4df-0x4e6.7 (8)
0x4d0|                                             2a|               *|        occur: "1992-07-01T00:00:16Z" (709948816) 0x4df-0x4e2.7 (4)
0x4e0|50 f5 90                                       |P..             |
0x4e0|         00 00 00 11                           |   ....         |        corr: 17 0x4e3-0x4e6.7 (4)
     |                                               |                |      [17]{}: leap_second_record 0x4e7-0x4ee.7 (8)
0x4e0|                     2c 32 29 11               |       ,2).     |        occur: "1993-07-01T00:00:17Z" (741484817) 0x4e7-0x4ea.7 (4)
0x4e0|                                 00 00 00 12   |           .... |        corr: 18 0x4eb-0x4ee.7 (4)
     |                                               |                |      [18]{}: leap_second_record 0x4ef-0x4f6.7 (8)
0x4e0|                                             2e|               .|        occur: "1994-07-01T00:00:18Z" (773020818) 0x4ef-0x4f2.7 (4)
0x4f0|13 5c 92                                       |.\.             |
0x4f0|         00 00 00 13                           |   ....         |        corr: 19 0x4f3-0x4f6.7 (4)
     |                                               |                |      [19]{}: leap_second_record 0x4f7-0x4fe.7 (8)
0x4f0|                     30 e7 24 13               |       0.$.     |        occur: "1996-01-01T00:00:19Z" (820454419) 0x4f7-0x4fa.7 (4)
0x4f0|                                 00 00 00 14   |           .... |        corr: 20 0x4fb-0x4fe.7 (4)
     |                                               |                |      [20]{}: leap_second_record 0x4ff-0x506.7 (8)
0x4f0|                                             33|               3|        occur: "1997-07-01T00:00:20Z" (867715220) 0x4ff-0x502.7 (4)
0x500|b8 48 94                                       |.H.             |
0x500|         00 00 00 15                           |   ....         |        corr: 21 0x503-0x506.7 (4)
     |                                               |                |      [21]{}: leap_second_record 0x507-0x50e.7 (8)
0x500|                     36 8c 10 15               |       6...     |        occur: "1999-01-01T00:00:21Z" (915148821) 0x507-0x50a.7 (4)
0x500|                                 00 00 00 16   |           .... |        corr: 22 0x50b-0x50e.7 (4)
     |                                               |                |      [22]{}: leap_second_record 0x50f-0x516.7 (8)
0x500|                                             43|               C|        occur: "2006-01-01T00:00:22Z" (1136073622) 0x50f-0x512.7 (4)
0x510|b7 1b 96                                       |...             |
0x510|         00 00 00 17                           |   ....         |        corr: 23 0x513-0x516.7 (4)
     |                                               |                |      [23]{}: leap_second_record 0x517-0x51e.7 (8)
0x510|                     49 5c 07 97               |       I\..     |        occur: "2009-01-01T00:00:23Z" (1230768023) 0x517-0x51a.7 (4)
0x510|                                 00 00 00 18   |           .... |        corr: 24 0x51b-0x51e.7 (4)
     |                                               |                |      [24]{}: leap_second_record 0x51f-0x526.7 (8)
0x510|                                             4f|               O|        occur: "2012-07-01T00:00:24Z" (1341100824) 0x51f-0x522.7 (4)
0x520|ef 93 18                                       |...             |
0x520|         00 00 00 19                           |   ....         |        corr: 25 0x523-0x526.7 (4)
     |                                               |                |      [25]{}: leap_second_record 0x527-0x52e.7 (8)
0x520|                     55 93 2d 99               |       U.-.     |        occur: "2015-07-01T00:00:25Z" (1435708825) 0x527-0x52a.7 (4)
0x520|                                 00 00 00 1a   |           .... |        corr: 26 0x52b-0x52e.7 (4)
     |                                               |                |      [26]{}: leap_second_record 0x52f-0x536.7 (8)
0x520|                                             58|               X|        occur: "2017-01-01T00:00:26Z" (1483228826) 0x52f-0x532.7 (4)
0x530|68 46 9a                                       |hF.             |
0x530|         00 00 00 1b                           |   ....         |        corr: 27 0x533-0x536.7 (4)
     |                                               |                |    standard_wall_indicators[0:5]: 0x537-0x53b.7 (5)
0x530|                     00                        |       .        |      [0]: 0 standard_wall_indicator (valid) 0x537-0x537.7 (1)
0x530|                        00                     |        .       |      [1]: 0 standard_wall_indicator (valid) 0x538-0x538.7 (1)
0x530|                           00                  |         .      |      [2]: 0 standard_wall_indicator (valid) 0x539-0x539.7 (1)
0x530|                              00               |          .     |      [3]: 0 standard_wall_indicator (valid) 0x53a-0x53a.7 (1)
0x530|                                 01            |           .    |      [4]: 1 standard_wall_indicator (valid) 0x53b-0x53b.7 (1)
     |                                               |                |    ut_local_indicators[0:5]: 0x53c-0x540.7 (5)
0x530|                                    00         |            .   |      [0]: 0 ut_local_indicator (valid) 0x53c-0x53c.7 (1)
0x530|                                       00      |             .  |      [1]: 0 ut_local_indicator (valid) 0x53d-0x53d.7 (1)
0x530|                                          00   |              . |      [2]: 0 ut_local_indicator (valid) 0x53e-0x53e.7 (1)
0x530|                                             00|               .|      [3]: 0 ut_local_indicator (valid) 0x53f-0x53f.7 (1)
0x540|01                                             |.               |      [4]: 1 ut_local_indicator (valid) 0x540-0x540.7 (1)
     |                                               |                |  v2plusheader{}: 0x541-0x56c.7 (44)
0x540|   54 5a 69 66                                 | TZif           |    magic: 0x545a6966 (valid) 0x541-0x544.7 (4)
0x540|               32                              |     2          |    ver: "2" (0x32) (valid) 0x545-0x545.7 (1)
0x540|                  00 00 00 00 00 00 00 00 00 00|      ..........|    reserved: raw bits 0x546-0x554.7 (15)
0x550|00 00 00 00 00                                 |.....           |
0x550|               00 00 00 05                     |     ....       |    isutcnt: 5 0x555-0x558.7 (4)
0x550|                           00 00 00 05         |         ....   |    isstdcnt: 5 0x559-0x55c.7 (4)
0x550|                                       00 00 00|             ...|    leapcnt: 27 0x55d-0x560.7 (4)
0x560|1b                                             |.               |
0x560|   00 00 00 cd                                 | ....           |    timecnt: 205 0x561-0x564.7 (4)
0x560|               00 00 00 05                     |     ....       |    typecnt: 5 0x565-0x568.7 (4)
0x560|                           00 00 00 14         |         ....   |    charcnt: 20 0x569-0x56c.7 (4)
     |                                               |                |  v2plusdatablock{}: 0x56d-0xe21.7 (2229)
     |                                               |                |    transition_times[0:205]: 0x56d-0xbd4.7 (1640)
0x560|                                       ff ff ff|             ...|      [0]: "1895-01-01T05:17:32Z" (-2366736148) transition_time 0x56d-0x574.7 (8)
0x570|ff 72 ee 78 ec                                 |.r.x.           |
0x570|               ff ff ff ff 9e b8 93 70         |     .......p   |      [1]: "1918-04-14T07:00:00Z" (-1632070800) transition_time 0x575-0x57c.7 (8)
0x570|                                       ff ff ff|             ...|      [2]: "1918-10-27T06:00:00Z" (-1615140000) transition_time 0x57d-0x584.7 (8)
0x580|ff 9f ba eb 60                                 |....`           |
0x580|               ff ff ff ff a0 87 2e c8         |     ........   |      [3]: "1919-03-31T04:30:00Z" (-1601753400) transition_time 0x585-0x58c.7 (8)
0x580|                                       ff ff ff|             ...|      [4]: "1919-10-26T04:00:00Z" (-1583697600) transition_time 0x58d-0x594.7 (8)
0x590|ff a1 9a b1 40                                 |....@           |
0x590|               ff ff ff ff a2 94 06 f0         |     ........   |      [5]: "1920-05-02T07:00:00Z" (-1567357200) transition_time 0x595-0x59c.7 (8)
0x590|                                       ff ff ff|             ...|      [6]: "1920-09-26T04:00:00Z" (-1554667200) transition_time 0x59d-0x5a4.7 (8)
0x5a0|ff a3 55 a9 40                                 |..U.@           |
0x5a0|               ff ff ff ff a4 86 5d f0         |     ......].   |      [7]: "1921-05-15T07:00:00Z" (-1534698000) transition_time 0x5a5-0x5ac.7 (8)
0x5a0|                                       ff ff ff|             ...|      [8]: "1921-09-15T06:00:00Z" (-1524074400) transition_time 0x5ad-0x5b4.7 (8)
0x5b0|ff a5 28 78 60                                 |..(x`           |
0x5b0|               ff ff ff ff a6 66 3f f0         |     .....f?.   |      [9]: "1922-05-14T07:00:00Z" (-1503248400) transition_time 0x5b5-0x5bc.7 (8)
0x5b0|                                       ff ff ff|             ...|      [10]: "1922-09-17T06:00:00Z" (-1492365600) transition_time 0x5bd-0x5c4.7 (8)
0x5c0|ff a7 0c 4e e0                                 |...N.           |
0x5c0|               ff ff ff ff a8 46 21 f0         |     .....F!.   |      [11]: "1923-05-13T07:00:00Z" (-1471798800) transition_time 0x5c5-0x5cc.7 (8)
0x5c0|                                       ff ff ff|             ...|      [12]: "1923-09-16T06:00:00Z" (-1460916000) transition_time 0x5cd-0x5d4.7 (8)
0x5d0|ff a8 ec 30 e0                                 |...0.           |
0x5d0|               ff ff ff ff aa 1c c9 70         |     .......p   |      [13]: "1924-05-04T07:00:00Z" (-1440954000) transition_time 0x5d5-0x5dc.7 (8)
0x5d0|                                       ff ff ff|             ...|      [14]: "1924-09-21T06:00:00Z" (-1428861600) transition_time 0x5dd-0x5e4.7 (8)
0x5e0|ff aa d5 4d 60                                 |...M`           |
0x5e0|               ff ff ff ff ab fc ab 70         |     .......p   |      [15]: "1925-05-03T07:00:00Z" (-1409504400) transition_time 0x5e5-0x5ec.7 (8)
0x5e0|                                       ff ff ff|             ...|      [16]: "1925-09-20T06:00:00Z" (-1397412000) transition_time 0x5ed-0x5f4.7 (8)
0x5f0|ff ac b5 2f 60                                 |.../`           |
0x5f0|               ff ff ff ff ad dc 8d 70         |     .......p   |      [17]: "1926-05-02T07:00:00Z" (-1378054800) transition_time 0x5f5-0x5fc.7 (8)
0x5f0|                                       ff ff ff|             ...|      [18]: "1926-09-19T06:00:00Z" (-1365962400) transition_time 0x5fd-0x604.7 (8)
0x600|ff ae 95 11 60                                 |....`           |
0x600|               ff ff ff ff af bc 6f 70         |     ......op   |      [19]: "1927-05-01T07:00:00Z" (-1346605200) transition_time 0x605-0x60c.7 (8)
0x600|                                       ff ff ff|             ...|      [20]: "1927-09-25T06:00:00Z" (-1333908000) transition_time 0x60d-0x614.7 (8)
0x610|ff b0 7e 2d e0                                 |..~-.           |
0x610|               ff ff ff ff b1 9c 51 70         |     ......Qp   |      [21]: "1928-04-29T07:00:00Z" (-1315155600) transition_time 0x615-0x61c.7 (8)
0x610|                                       ff ff ff|             ...|      [22]: "1928-09-30T06:00:00Z" (-1301853600) transition_time 0x61d-0x624.7 (8)
0x620|ff b2 67 4a 60                                 |..gJ`           |
0x620|               ff ff ff ff b3 7c 33 70         |     .....|3p   |      [23]: "1929-04-28T07:00:00Z" (-1283706000) transition_time 0x625-0x62c.7 (8)
0x620|                                       ff ff ff|             ...|      [24]: "1929-09-29T06:00:00Z" (-1270404000) transition_time 0x62d-0x634.7 (8)
0x630|ff b4 47 2c 60                                 |..G,`           |
0x630|               ff ff ff ff b5 5c 15 70         |     .....\.p   |      [25]: "1930-04-27T07:00:00Z" (-1252256400) transition_time 0x635-0x63c.7 (8)
0x630|                                       ff ff ff|             ...|      [26]: "1930-09-28T06:00:00Z" (-1238954400) transition_time 0x63d-0x644.7 (8)
0x640|ff b6 27 0e 60                                 |..'.`           |
0x640|               ff ff ff ff b7 3b f7 70         |     .....;.p   |      [27]: "1931-04-26T07:00:00Z" (-1220806800) transition_time 0x645-0x64c.7 (8)
0x640|                                       ff ff ff|             ...|      [28]: "1931-09-27T06:00:00Z" (-1207504800) transition_time 0x64d-0x654.7 (8)
0x650|ff b8 06 f0 60                                 |....`           |
0x650|               ff ff ff ff b9 25 13 f0         |     .....%..   |      [29]: "1932-05-01T07:00:00Z" (-1188752400) transition_time 0x655-0x65c.7 (8)
0x650|                                       ff ff ff|             ...|      [30]: "1932-09-25T06:00:00Z" (-1176055200) transition_time 0x65d-0x664.7 (8)
0x660|ff b9 e6 d2 60                                 |....`           |
0x660|               ff ff ff ff bb 04 f5 f0         |     ........   |      [31]: "1933-04-30T07:00:00Z" (-1157302800) transition_time 0x665-0x66c.7 (8)
0x660|                                       ff ff ff|             ...|      [32]: "1933-10-01T06:00:00Z" (-1144000800) transition_time 0x66d-0x674.7 (8)
0x670|ff bb cf ee e0                                 |.....           |
0x670|               ff ff ff ff bc e4 d7 f0         |     ........   |      [33]: "1934-04-29T07:00:00Z" (-1125853200) transition_time 0x675-0x67c.7 (8)
0x670|                                       ff ff ff|             ...|      [34]: "1934-09-30T06:00:00Z" (-1112551200) transition_time 0x67d-0x684.7 (8)
0x680|ff bd af d0 e0                                 |.....           |
0x680|               ff ff ff ff be c4 b9 f0         |     ........   |      [35]: "1935-04-28T07:00:00Z" (-1094403600) transition_time 0x685-0x68c.7 (8)
0x680|                                       ff ff ff|             ...|      [36]: "1935-09-29T06:00:00Z" (-1081101600) transition_time 0x68d-0x694.7 (8)
0x690|ff bf 8f b2 e0                                 |.....           |
0x690|               ff ff ff ff c0 a4 9b f0         |     ........   |      [37]: "1936-04-26T07:00:00Z" (-1062954000) transition_time 0x695-0x69c.7 (8)
0x690|                                       ff ff ff|             ...|      [38]: "1936-09-27T06:00:00Z" (-1049652000) transition_time 0x69d-0x6a4.7 (8)
0x6a0|ff c1 6f 94 e0                                 |..o..           |
0x6a0|               ff ff ff ff c2 84 7d f0         |     ......}.   |      [39]: "1937-04-25T07:00:00Z" (-1031504400) transition_time 0x6a5-0x6ac.7 (8)
0x6a0|                                       ff ff ff|             ...|      [40]: "1937-09-26T06:00:00Z" (-1018202400) transition_time 0x6ad-0x6b4.7 (8)
0x6b0|ff c3 4f 76 e0                                 |..Ov.           |
0x6b0|               ff ff ff ff c4 64 5f f0         |     .....d_.   |      [41]: "1938-04-24T07:00:00Z" (-1000054800) transition_time 0x6b5-0x6bc.7 (8)
0x6b0|                                       ff ff ff|             ...|      [42]: "1938-09-25T06:00:00Z" (-986752800) transition_time 0x6bd-0x6c4.7 (8)
0x6c0|ff c5 2f 58 e0                                 |../X.           |
0x6c0|               ff ff ff ff c6 4d 7c 70         |     .....M|p   |      [43]: "1939-04-30T07:00:00Z" (-968000400) transition_time 0x6c5-0x6cc.7 (8)
0x6c0|                                       ff ff ff|             ...|      [44]: "1939-09-24T06:00:00Z" (-955303200) transition_time 0x6cd-0x6d4.7 (8)
0x6d0|ff c7 0f 3a e0                                 |...:.           |
0x6d0|               ff ff ff ff c8 2d 5e 70         |     .....-^p   |      [45]: "1940-04-28T07:00:00Z" (-936550800) transition_time 0x6d5-0x6dc.7 (8)
0x6d0|                                       ff ff ff|             ...|      [46]: "1942-02-09T07:00:00Z" (-880218000) transition_time 0x6dd-0x6e4.7 (8)
0x6e0|ff cb 88 f0 70                                 |....p           |
0x6e0|               ff ff ff ff d2 23 f4 70         |     .....#.p   |      [47]: "1945-08-14T23:00:00Z" (-769395600) transition_time 0x6e5-0x6ec.7 (8)
0x6e0|                                       ff ff ff|             ...|      [48]: "1945-09-30T06:00:00Z" (-765396000) transition_time 0x6ed-0x6f4.7 (8)
0x6f0|ff d2 60 fb e0                                 |..`..           |
0x6f0|               ff ff ff ff d3 75 e4 f0         |     .....u..   |      [49]: "1946-04-28T07:00:00Z" (-747248400) transition_time 0x6f5-0x6fc.7 (8)
0x6f0|                                       ff ff ff|             ...|      [50]: "1946-09-29T06:00:00Z" (-733946400) transition_time 0x6fd-0x704.7 (8)
0x700|ff d4 40 dd e0                                 |..@..           |
0x700|               ff ff ff ff d5 55 aa d0         |     .....U..   |      [51]: "1947-04-27T05:00:00Z" (-715806000) transition_time 0x705-0x70c.7 (8)
0x700|                                       ff ff ff|             ...|      [52]: "1947-09-28T04:00:00Z" (-702504000) transition_time 0x70d-0x714.7 (8)
0x710|ff d6 20 a3 c0                                 |.. ..           |
0x710|               ff ff ff ff d7 35 8c d0         |     .....5..   |      [53]: "1948-04-25T05:00:00Z" (-684356400) transition_time 0x715-0x71c.7 (8)
0x710|                                       ff ff ff|             ...|      [54]: "1948-09-26T04:00:00Z" (-671054400) transition_time 0x71d-0x724.7 (8)
0x720|ff d8 00 85 c0                                 |.....           |
0x720|               ff ff ff ff d9 15 6e d0         |     ......n.   |      [55]: "1949-04-24T05:00:00Z" (-652906800) transition_time 0x725-0x72c.7 (8)
0x720|                                       ff ff ff|             ...|      [56]: "1949-11-27T04:00:00Z" (-634161600) transition_time 0x72d-0x734.7 (8)
0x730|ff da 33 76 40                                 |..3v@           |
0x730|               ff ff ff ff da fe a7 70         |     .......p   |      [57]: "1950-04-30T07:00:00Z" (-620845200) transition_time 0x735-0x73c.7 (8)
0x730|                                       ff ff ff|             ...|      [58]: "1950-11-26T06:00:00Z" (-602704800) transition_time 0x73d-0x744.7 (8)
0x740|ff dc 13 74 60                                 |...t`           |
0x740|               ff ff ff ff dc de 89 70         |     .......p   |      [59]: "1951-04-29T07:00:00Z" (-589395600) transition_time 0x745-0x74c.7 (8)
0x740|                                       ff ff ff|             ...|      [60]: "1951-09-30T06:00:00Z" (-576093600) transition_time 0x74d-0x754.7 (8)
0x750|ff dd a9 82 60                                 |....`           |
0x750|               ff ff ff ff de be 6b 70         |     ......kp   |      [61]: "1952-04-27T07:00:00Z" (-557946000) transition_time 0x755-0x75c.7 (8)
0x750|                                       ff ff ff|             ...|      [62]: "1952-09-28T06:00:00Z" (-544644000) transition_time 0x75d-0x764.7 (8)
0x760|ff df 89 64 60                                 |...d`           |
0x760|               ff ff ff ff e0 9e 4d 70         |     ......Mp   |      [63]: "1953-04-26T07:00:00Z" (-526496400) transition_time 0x765-0x76c.7 (8)
0x760|                                       ff ff ff|             ...|      [64]: "1953-09-27T06:00:00Z" (-513194400) transition_time 0x76d-0x774.7 (8)
0x770|ff e1 69 46 60                                 |..iF`           |
0x770|               ff ff ff ff e2 7e 2f 70         |     .....~/p   |      [65]: "1954-04-25T07:00:00Z" (-495046800) transition_time 0x775-0x77c.7 (8)
0x770|                                       ff ff ff|             ...|      [66]: "1954-09-26T06:00:00Z" (-481744800) transition_time 0x77d-0x784.7 (8)
0x780|ff e3 49 28 60                                 |..I(`           |
0x780|               ff ff ff ff e4 5e 11 70         |     .....^.p   |      [67]: "1955-04-24T07:00:00Z" (-463597200) transition_time 0x785-0x78c.7 (8)
0x780|                                       ff ff ff|             ...|      [68]: "1955-09-25T06:00:00Z" (-450295200) transition_time 0x78d-0x794.7 (8)
0x790|ff e5 29 0a 60                                 |..).`           |
0x790|               ff ff ff ff e6 47 2d f0         |     .....G-.   |      [69]: "1956-04-29T07:00:00Z" (-431542800) transition_time 0x795-0x79c.7 (8)
0x790|                                       ff ff ff|             ...|      [70]: "1956-09-30T06:00:00Z" (-418240800) transition_time 0x79d-0x7a4.7 (8)
0x7a0|ff e7 12 26 e0                                 |...&.           |
0x7a0|               ff ff ff ff e8 27 0f f0         |     .....'..   |      [71]: "1957-04-28T07:00:00Z" (-400093200) transition_time 0x7a5-0x7ac.7 (8)
0x7a0|                                       ff ff ff|             ...|      [72]: "1957-10-27T06:00:00Z" (-384372000) transition_time 0x7ad-0x7b4.7 (8)
0x7b0|ff e9 16 f2 e0                                 |.....           |
0x7b0|               ff ff ff ff ea 06 f1 f0         |     ........   |      [73]: "1958-04-27T07:00:00Z" (-368643600) transition_time 0x7b5-0x7bc.7 (8)
0x7b0|                                       ff ff ff|             ...|      [74]: "1958-10-26T06:00:00Z" (-352922400) transition_time 0x7bd-0x7c4.7 (8)
0x7c0|ff ea f6 d4 e0                                 |.....           |
0x7c0|               ff ff ff ff eb e6 d3 f0         |     ........   |      [75]: "1959-04-26T07:00:00Z" (-337194000) transition_time 0x7c5-0x7cc.7 (8)
0x7c0|                                       ff ff ff|             ...|      [76]: "1959-10-25T06:00:00Z" (-321472800) transition_time 0x7cd-0x7d4.7 (8)
0x7d0|ff ec d6 b6 e0                                 |.....           |
0x7d0|               ff ff ff ff ed c6 b5 f0         |     ........   |      [77]: "1960-04-24T07:00:00Z" (-305744400) transition_time 0x7d5-0x7dc.7 (8)
0x7d0|                                       ff ff ff|             ...|      [78]: "1960-10-30T06:00:00Z" (-289418400) transition_time 0x7dd-0x7e4.7 (8)
0x7e0|ff ee bf d3 60                                 |....`           |
0x7e0|               ff ff ff ff ef af d2 70         |     .......p   |      [79]: "1961-04-30T07:00:00Z" (-273690000) transition_time 0x7e5-0x7ec.7 (8)
0x7e0|                                       ff ff ff|             ...|      [80]: "1961-10-29T06:00:00Z" (-257968800) transition_time 0x7ed-0x7f4.7 (8)
0x7f0|ff f0 9f b5 60                                 |....`           |
0x7f0|               ff ff ff ff f1 8f b4 70         |     .......p   |      [81]: "1962-04-29T07:00:00Z" (-242240400) transition_time 0x7f5-0x7fc.7 (8)
0x7f0|                                       ff ff ff|             ...|      [82]: "1962-10-28T06:00:00Z" (-226519200) transition_time 0x7fd-0x804.7 (8)
0x800|ff f2 7f 97 60                                 |....`           |
0x800|               ff ff ff ff f3 6f 96 70         |     .....o.p   |      [83]: "1963-04-28T07:00:00Z" (-210790800) transition_time 0x805-0x80c.7 (8)
0x800|                                       ff ff ff|             ...|      [84]: "1963-10-27T06:00:00Z" (-195069600) transition_time 0x80d-0x814.7 (8)
0x810|ff f4 5f 79 60                                 |.._y`           |
0x810|               ff ff ff ff f5 4f 78 70         |     .....Oxp   |      [85]: "1964-04-26T07:00:00Z" (-179341200) transition_time 0x815-0x81c.7 (8)
0x810|                                       ff ff ff|             ...|      [86]: "1964-10-25T06:00:00Z" (-163620000) transition_time 0x81d-0x824.7 (8)
0x820|ff f6 3f 5b 60                                 |..?[`           |
0x820|               ff ff ff ff f7 2f 5a 70         |     ...../Zp   |      [87]: "1965-04-25T07:00:00Z" (-147891600) transition_time 0x825-0x82c.7 (8)
0x820|                                       ff ff ff|             ...|      [88]: "1965-10-31T06:00:00Z" (-131565600) transition_time 0x82d-0x834.7 (8)
0x830|ff f8 28 77 e0                                 |..(w.           |
0x830|               ff ff ff ff f9 0f 3c 70         |     ......<p   |      [89]: "1966-04-24T07:00:00Z" (-116442000) transition_time 0x835-0x83c.7 (8)
0x830|                                       ff ff ff|             ...|      [90]: "1966-10-30T06:00:00Z" (-100116000) transition_time 0x83d-0x844.7 (8)
0x840|ff fa 08 59 e0                                 |...Y.           |
0x840|               ff ff ff ff fa f8 58 f0         |     ......X.   |      [91]: "1967-04-30T07:00:00Z" (-84387600) transition_time 0x845-0x84c.7 (8)
0x840|                                       ff ff ff|             ...|      [92]: "1967-10-29T06:00:00Z" (-68666400) transition_time 0x84d-0x854.7 (8)
0x850|ff fb e8 3b e0                                 |...;.           |
0x850|               ff ff ff ff fc d8 3a f0         |     ......:.   |      [93]: "1968-04-28T07:00:00Z" (-52938000) transition_time 0x855-0x85c.7 (8)
0x850|                                       ff ff ff|             ...|      [94]: "1968-10-27T06:00:00Z" (-37216800) transition_time 0x85d-0x864.7 (8)
0x860|ff fd c8 1d e0                                 |.....           |
0x860|               ff ff ff ff fe b8 1c f0         |     ........   |      [95]: "1969-04-27T07:00:00Z" (-21488400) transition_time 0x865-0x86c.7 (8)
0x860|                                       ff ff ff|             ...|      [96]: "1969-10-26T06:00:00Z" (-5767200) transition_time 0x86d-0x874.7 (8)
0x870|ff ff a7 ff e0                                 |.....           |
0x870|               00 00 00 00 00 97 fe f0         |     ........   |      [97]: "1970-04-26T07:00:00Z" (9961200) transition_time 0x875-0x87c.7 (8)
0x870|                                       00 00 00|             ...|      [98]: "1970-10-25T06:00:00Z" (25682400) transition_time 0x87d-0x884.7 (8)
0x880|00 01 87 e1 e0                                 |.....           |
0x880|               00 00 00 00 02 77 e0 f0         |     .....w..   |      [99]: "1971-04-25T07:00:00Z" (41410800) transition_time 0x885-0x88c.7 (8)
0x880|                                       00 00 00|             ...|      [100]: "1971-10-31T06:00:00Z" (57736800) transition_time 0x88d-0x894.7 (8)
0x890|00 03 70 fe 60                                 |..p.`           |
0x890|               00 00 00 00 04 60 fd 70         |     .....`.p   |      [101]: "1972-04-30T07:00:00Z" (73465200) transition_time 0x895-0x89c.7 (8)
0x890|                                       00 00 00|             ...|      [102]: "1972-10-29T06:00:01Z" (89186401) transition_time 0x89d-0x8a4.7 (8)
0x8a0|00 05 50 e0 61                                 |..P.a           |
0x8a0|               00 00 00 00 06 40 df 72         |     .....@.r   |      [103]: "1973-04-29T07:00:02Z" (104914802) transition_time 0x8a5-0x8ac.7 (8)
0x8a0|                                       00 00 00|             ...|      [104]: "1973-10-28T06:00:02Z" (120636002) transition_time 0x8ad-0x8b4.7 (8)
0x8b0|00 07 30 c2 62                                 |..0.b           |
0x8b0|               00 00 00 00 08 20 c1 73         |     ..... .s   |      [105]: "1974-04-28T07:00:03Z" (136364403) transition_time 0x8b5-0x8bc.7 (8)
0x8b0|                                       00 00 00|             ...|      [106]: "1974-10-27T06:00:03Z" (152085603) transition_time 0x8bd-0x8c4.7 (8)
0x8c0|00 09 10 a4 63                                 |....c           |
0x8c0|               00 00 00 00 0a 00 a3 74         |     .......t   |      [107]: "1975-04-27T07:00:04Z" (167814004) transition_time 0x8c5-0x8cc.7 (8)
0x8c0|                                       00 00 00|             ...|      [108]: "1975-10-26T06:00:04Z" (183535204) transition_time 0x8cd-0x8d4.7 (8)
0x8d0|00 0a f0 86 64                                 |....d           |
0x8d0|               00 00 00 00 0b e0 85 75         |     .......u   |      [109]: "1976-04-25T07:00:05Z" (199263605) transition_time 0x8d5-0x8dc.7 (8)
0x8d0|                                       00 00 00|             ...|      [110]: "1976-10-31T06:00:05Z" (215589605) transition_time 0x8dd-0x8e4.7 (8)
0x8e0|00 0c d9 a2 e5                                 |.....           |
0x8e0|               00 00 00 00 0d c0 67 76         |     ......gv   |      [111]: "1977-04-24T07:00:06Z" (230713206) transition_time 0x8e5-0x8ec.7 (8)
0x8e0|                                       00 00 00|             ...|      [112]: "1977-10-30T06:00:06Z" (247039206) transition_time 0x8ed-0x8f4.7 (8)
0x8f0|00 0e b9 84 e6                                 |.....           |
0x8f0|               00 00 00 00 0f a9 83 f7         |     ........   |      [113]: "1978-04-30T07:00:07Z" (262767607) transition_time 0x8f5-0x8fc.7 (8)
0x8f0|                                       00 00 00|             ...|      [114]: "1978-10-29T06:00:07Z" (278488807) transition_time 0x8fd-0x904.7 (8)
0x900|00 10 99 66 e7                                 |...f.           |
0x900|               00 00 00 00 11 89 65 f8         |     ......e.   |      [115]: "1979-04-29T07:00:08Z" (294217208) transition_time 0x905-0x90c.7 (8)
0x900|                                       00 00 00|             ...|      [116]: "1979-10-28T06:00:08Z" (309938408) transition_time 0x90d-0x914.7 (8)
0x910|00 12 79 48 e8                                 |..yH.           |
0x910|               00 00 00 00 13 69 47 f9         |     .....iG.   |      [117]: "1980-04-27T07:00:09Z" (325666809) transition_time 0x915-0x91c.7 (8)
0x910|                                       00 00 00|             ...|      [118]: "1980-10-26T06:00:09Z" (341388009) transition_time 0x91d-0x924.7 (8)
0x920|00 14 59 2a e9                                 |..Y*.           |
0x920|               00 00 00 00 15 49 29 f9         |     .....I).   |      [119]: "1981-04-26T07:00:09Z" (357116409) transition_time 0x925-0x92c.7 (8)
0x920|                                       00 00 00|             ...|      [120]: "1981-10-25T06:00:10Z" (372837610) transition_time 0x92d-0x934.7 (8)
0x930|00 16 39 0c ea                                 |..9..           |
0x930|               00 00 00 00 17 29 0b fa         |     .....)..   |      [121]: "1982-04-25T07:00:10Z" (388566010) transition_time 0x935-0x93c.7 (8)
0x930|                                       00 00 00|             ...|      [122]: "1982-10-31T06:00:11Z" (404892011) transition_time 0x93d-0x944.7 (8)
0x940|00 18 22 29 6b                                 |..")k           |
0x940|               00 00 00 00 19 08 ed fb         |     ........   |      [123]: "1983-04-24T07:00:11Z" (420015611) transition_time 0x945-0x94c.7 (8)
0x940|                                       00 00 00|             ...|      [124]: "1983-10-30T06:00:12Z" (436341612) transition_time 0x94d-0x954.7 (8)
0x950|00 1a 02 0b 6c                                 |....l           |
0x950|               00 00 00 00 1a f2 0a 7c         |     .......|   |      [125]: "1984-04-29T07:00:12Z" (452070012) transition_time 0x955-0x95c.7 (8)
0x950|                                       00 00 00|             ...|      [126]: "1984-10-28T06:00:12Z" (467791212) transition_time 0x95d-0x964.7 (8)
0x960|00 1b e1 ed 6c                                 |....l           |
0x960|               00 00 00 00 1c d1 ec 7c         |     .......|   |      [127]: "1985-04-28T07:00:12Z" (483519612) transition_time 0x965-0x96c.7 (8)
0x960|                                       00 00 00|             ...|      [128]: "1985-10-27T06:00:13Z" (499240813) transition_time 0x96d-0x974.7 (8)
0x970|00 1d c1 cf 6d                                 |....m           |
0x970|               00 00 00 00 1e b1 ce 7d         |     .......}   |      [129]: "1986-04-27T07:00:13Z" (514969213) transition_time 0x975-0x97c.7 (8)
0x970|                                       00 00 00|             ...|      [130]: "1986-10-26T06:00:13Z" (530690413) transition_time 0x97d-0x984.7 (8)
0x980|00 1f a1 b1 6d                                 |....m           |
0x980|               00 00 00 00 20 76 00 fd         |     .... v..   |      [131]: "1987-04-05T07:00:13Z" (544604413) transition_time 0x985-0x98c.7 (8)
0x980|                                       00 00 00|             ...|      [132]: "1987-10-25T06:00:13Z" (562140013) transition_time 0x98d-0x994.7 (8)
0x990|00 21 81 93 6d                                 |.!..m           |
0x990|               00 00 00 00 22 55 e2 fe         |     ...."U..   |      [133]: "1988-04-03T07:00:14Z" (576054014) transition_time 0x995-0x99c.7 (8)
0x990|                                       00 00 00|             ...|      [134]: "1988-10-30T06:00:14Z" (594194414) transition_time 0x99d-0x9a4.7 (8)
0x9a0|00 23 6a af ee                                 |.#j..           |
0x9a0|               00 00 00 00 24 35 c4 fe         |     ....$5..   |      [135]: "1989-04-02T07:00:14Z" (607503614) transition_time 0x9a5-0x9ac.7 (8)
0x9a0|                                       00 00 00|             ...|      [136]: "1989-10-29T06:00:14Z" (625644014) transition_time 0x9ad-0x9b4.7 (8)
0x9b0|00 25 4a 91 ee                                 |.%J..           |
0x9b0|               00 00 00 00 26 15 a6 ff         |     ....&...   |      [137]: "1990-04-01T07:00:15Z" (638953215) transition_time 0x9b5-0x9bc.7 (8)
0x9b0|                                       00 00 00|             ...|      [138]: "1990-10-28T06:00:15Z" (657093615) transition_time 0x9bd-0x9c4.7 (8)
0x9c0|00 27 2a 73 ef                                 |.'*s.           |
0x9c0|               00 00 00 00 27 fe c3 80         |     ....'...   |      [139]: "1991-04-07T07:00:16Z" (671007616) transition_time 0x9c5-0x9cc.7 (8)
0x9c0|                                       00 00 00|             ...|      [140]: "1991-10-27T06:00:16Z" (688543216) transition_time 0x9cd-0x9d4.7 (8)
0x9d0|00 29 0a 55 f0                                 |.).U.           |
0x9d0|               00 00 00 00 29 de a5 80         |     ....)...   |      [141]: "1992-04-05T07:00:16Z" (702457216) transition_time 0x9d5-0x9dc.7 (8)
0x9d0|                                       00 00 00|             ...|      [142]: "1992-10-25T06:00:17Z" (719992817) transition_time 0x9dd-0x9e4.7 (8)
0x9e0|00 2a ea 37 f1                                 |.*.7.           |
0x9e0|               00 00 00 00 2b be 87 81         |     ....+...   |      [143]: "1993-04-04T07:00:17Z" (733906817) transition_time 0x9e5-0x9ec.7 (8)
0x9e0|                                       00 00 00|             ...|      [144]: "1993-10-31T06:00:18Z" (752047218) transition_time 0x9ed-0x9f4.7 (8)
0x9f0|00 2c d3 54 72                                 |.,.Tr           |
0x9f0|               00 00 00 00 2d 9e 69 82         |     ....-.i.   |      [145]: "1994-04-03T07:00:18Z" (765356418) transition_time 0x9f5-0x9fc.7 (8)
0x9f0|                                       00 00 00|             ...|      [146]: "1994-10-30T06:00:19Z" (783496819) transition_time 0x9fd-0xa04.7 (8)
0xa00|00 2e b3 36 73                                 |...6s           |
0xa00|               00 00 00 00 2f 7e 4b 83         |     ..../~K.   |      [147]: "1995-04-02T07:00:19Z" (796806019) transition_time 0xa05-0xa0c.7 (8)
0xa00|                                       00 00 00|             ...|      [148]: "1995-10-29T06:00:19Z" (814946419) transition_time 0xa0d-0xa14.7 (8)
0xa10|00 30 93 18 73                                 |.0..s           |
0xa10|               00 00 00 00 31 67 68 04         |     ....1gh.   |      [149]: "1996-04-07T07:00:20Z" (828860420) transition_time 0xa15-0xa1c.7 (8)
0xa10|                                       00 00 00|             ...|      [150]: "1996-10-27T06:00:20Z" (846396020) transition_time 0xa1d-0xa24.7 (8)
0xa20|00 32 72 fa 74                                 |.2r.t           |
0xa20|               00 00 00 00 33 47 4a 04         |     ....3GJ.   |      [151]: "1997-04-06T07:00:20Z" (860310020) transition_time 0xa25-0xa2c.7 (8)
0xa20|                                       00 00 00|             ...|      [152]: "1997-10-26T06:00:21Z" (877845621) transition_time 0xa2d-0xa34.7 (8)
0xa30|00 34 52 dc 75                                 |.4R.u           |
0xa30|               00 00 00 00 35 27 2c 05         |     ....5',.   |      [153]: "1998-04-05T07:00:21Z" (891759621) transition_time 0xa35-0xa3c.7 (8)
0xa30|                                       00 00 00|             ...|      [154]: "1998-10-25T06:00:21Z" (909295221) transition_time 0xa3d-0xa44.7 (8)
0xa40|00 36 32 be 75                                 |.62.u           |
0xa40|               00 00 00 00 37 07 0e 06         |     ....7...   |      [155]: "1999-04-04T07:00:22Z" (923209222) transition_time 0xa45-0xa4c.7 (8)
0xa40|                                       00 00 00|             ...|      [156]: "1999-10-31T06:00:22Z" (941349622) transition_time 0xa4d-0xa54.7 (8)
0xa50|00 38 1b da f6                                 |.8...           |
0xa50|               00 00 00 00 38 e6 f0 06         |     ....8...   |      [157]: "2000-04-02T07:00:22Z" (954658822) transition_time 0xa55-0xa5c.7 (8)
0xa50|                                       00 00 00|             ...|      [158]: "2000-10-29T06:00:22Z" (972799222) transition_time 0xa5d-0xa64.7 (8)
0xa60|00 39 fb bc f6                                 |.9...           |
0xa60|               00 00 00 00 3a c6 d2 06         |     ....:...   |      [159]: "2001-04-01T07:00:22Z" (986108422) transition_time 0xa65-0xa6c.7 (8)
0xa60|                                       00 00 00|             ...|      [160]: "2001-10-28T06:00:22Z" (1004248822) transition_time 0xa6d-0xa74.7 (8)
0xa70|00 3b db 9e f6                                 |.;...           |
0xa70|               00 00 00 00 3c af ee 86         |     ....<...   |      [161]: "2002-04-07T07:00:22Z" (1018162822) transition_time 0xa75-0xa7c.7 (8)
0xa70|                                       00 00 00|             ...|      [162]: "2002-10-27T06:00:22Z" (1035698422) transition_time 0xa7d-0xa84.7 (8)
0xa80|00 3d bb 80 f6                                 |.=...           |
0xa80|               00 00 00 00 3e 8f d0 86         |     ....>...   |      [163]: "2003-04-06T07:00:22Z" (1049612422) transition_time 0xa85-0xa8c.7 (8)
0xa80|                                       00 00 00|             ...|      [164]: "2003-10-26T06:00:22Z" (1067148022) transition_time 0xa8d-0xa94.7 (8)
0xa90|00 3f 9b 62 f6                                 |.?.b.           |
0xa90|               00 00 00 00 40 6f b2 86         |     ....@o..   |      [165]: "2004-04-04T07:00:22Z" (1081062022) transition_time 0xa95-0xa9c.7 (8)
0xa90|                                       00 00 00|             ...|      [166]: "2004-10-31T06:00:22Z" (1099202422) transition_time 0xa9d-0xaa4.7 (8)
0xaa0|00 41 84 7f 76                                 |.A..v           |
0xaa0|               00 00 00 00 42 4f 94 86         |     ....BO..   |      [167]: "2005-04-03T07:00:22Z" (1112511622) transition_time 0xaa5-0xaac.7 (8)
0xaa0|                                       00 00 00|             ...|      [168]: "2005-10-30T06:00:22Z" (1130652022) transition_time 0xaad-0xab4.7 (8)
0xab0|00 43 64 61 76                                 |.Cdav           |
0xab0|               00 00 00 00 44 2f 76 87         |     ....D/v.   |      [169]: "2006-04-02T07:00:23Z" (1143961223) transition_time 0xab5-0xabc.7 (8)
0xab0|                                       00 00 00|             ...|      [170]: "2006-10-29T06:00:23Z" (1162101623) transition_time 0xabd-0xac4.7 (8)
0xac0|00 45 44 43 77                                 |.EDCw           |
0xac0|               00 00 00 00 45 f3 a9 07         |     ....E...   |      [171]: "2007-03-11T07:00:23Z" (1173596423) transition_time 0xac5-0xacc.7 (8)
0xac0|                                       00 00 00|             ...|      [172]: "2007-11-04T06:00:23Z" (1194156023) transition_time 0xacd-0xad4.7 (8)
0xad0|00 47 2d 5f f7                                 |.G-_.           |
0xad0|               00 00 00 00 47 d3 8b 07         |     ....G...   |      [173]: "2008-03-09T07:00:23Z" (1205046023) transition_time 0xad5-0xadc.7 (8)
0xad0|                                       00 00 00|             ...|      [174]: "2008-11-02T06:00:23Z" (1225605623) transition_time 0xadd-0xae4.7 (8)
0xae0|00 49 0d 41 f7                                 |.I.A.           |
0xae0|               00 00 00 00 49 b3 6d 08         |     ....I.m.   |      [175]: "2009-03-08T07:00:24Z" (1236495624) transition_time 0xae5-0xaec.7 (8)
0xae0|                                       00 00 00|             ...|      [176]: "2009-11-01T06:00:24Z" (1257055224) transition_time 0xaed-0xaf4.7 (8)
0xaf0|00 4a ed 23 f8                                 |.J.#.           |
0xaf0|               00 00 00 00 4b 9c 89 88         |     ....K...   |      [177]: "2010-03-14T07:00:24Z" (1268550024) transition_time 0xaf5-0xafc.7 (8)
0xaf0|                                       00 00 00|             ...|      [178]: "2010-11-07T06:00:24Z" (1289109624) transition_time 0xafd-0xb04.7 (8)
0xb00|00 4c d6 40 78                                 |.L.@x           |
0xb00|               00 00 00 00 4d 7c 6b 88         |     ....M|k.   |      [179]: "2011-03-13T07:00:24Z" (1299999624) transition_time 0xb05-0xb0c.7 (8)
0xb00|                                       00 00 00|             ...|      [180]: "2011-11-06T06:00:24Z" (1320559224) transition_time 0xb0d-0xb14.7 (8)
0xb10|00 4e b6 22 78                                 |.N."x           |
0xb10|               00 00 00 00 4f 5c 4d 88         |     ....O\M.   |      [181]: "2012-03-11T07:00:24Z" (1331449224) transition_time 0xb15-0xb1c.7 (8)
0xb10|                                       00 00 00|             ...|      [182]: "2012-11-04T06:00:25Z" (1352008825) transition_time 0xb1d-0xb24.7 (8)
0xb20|00 50 96 04 79                                 |.P..y           |
0xb20|               00 00 00 00 51 3c 2f 89         |     ....Q</.   |      [183]: "2013-03-10T07:00:25Z" (1362898825) transition_time 0xb25-0xb2c.7 (8)
0xb20|                                       00 00 00|             ...|      [184]: "2013-11-03T06:00:25Z" (1383458425) transition_time 0xb2d-0xb34.7 (8)
0xb30|00 52 75 e6 79                                 |.Ru.y           |
0xb30|               00 00 00 00 53 1c 11 89         |     ....S...   |      [185]: "2014-03-09T07:00:25Z" (1394348425) transition_time 0xb35-0xb3c.7 (8)
0xb30|                                       00 00 00|             ...|      [186]: "2014-11-02T06:00:25Z" (1414908025) transition_time 0xb3d-0xb44.7 (8)
0xb40|00 54 55 c8 79                                 |.TU.y           |
0xb40|               00 00 00 00 54 fb f3 89         |     ....T...   |      [187]: "2015-03-08T07:00:25Z" (1425798025) transition_time 0xb45-0xb4c.7 (8)
0xb40|                                       00 00 00|             ...|      [188]: "2015-11-01T06:00:26Z" (1446357626) transition_time 0xb4d-0xb54.7 (8)
0xb50|00 56 35 aa 7a                                 |.V5.z           |
0xb50|               00 00 00 00 56 e5 10 0a         |     ....V...   |      [189]: "2016-03-13T07:00:26Z" (1457852426) transition_time 0xb55-0xb5c.7 (8)
0xb50|                                       00 00 00|             ...|      [190]: "2016-11-06T06:00:26Z" (1478412026) transition_time 0xb5d-0xb64.7 (8)
0xb60|00 58 1e c6 fa                                 |.X...           |
0xb60|               00 00 00 00 58 c4 f2 0b         |     ....X...   |      [191]: "2017-03-12T07:00:27Z" (1489302027) transition_time 0xb65-0xb6c.7 (8)
0xb60|                                       00 00 00|             ...|      [192]: "2017-11-05T06:00:27Z" (1509861627) transition_time 0xb6d-0xb74.7 (8)
0xb70|00 59 fe a8 fb                                 |.Y...           |
0xb70|               00 00 00 00 5a a4 d4 0b         |     ....Z...   |      [193]: "2018-03-11T07:00:27Z" (1520751627) transition_time 0xb75-0xb7c.7 (8)
0xb70|                                       00 00 00|             ...|      [194]: "2018-11-04T06:00:27Z" (1541311227) transition_time 0xb7d-0xb84.7 (8)
0xb80|00 5b de 8a fb                                 |.[...           |
0xb80|               00 00 00 00 5c 84 b6 0b         |     ....\...   |      [195]: "2019-03-10T07:00:27Z" (1552201227) transition_time 0xb85-0xb8c.7 (8)
0xb80|                                       00 00 00|             ...|      [196]: "2019-11-03T06:00:27Z" (1572760827) transition_time 0xb8d-0xb94.7 (8)
0xb90|00 5d be 6c fb                                 |.].l.           |
0xb90|               00 00 00 00 5e 64 98 0b         |     ....^d..   |      [197]: "2020-03-08T07:00:27Z" (1583650827) transition_time 0xb95-0xb9c.7 (8)
0xb90|                                       00 00 00|             ...|      [198]: "2020-11-01T06:00:27Z" (1604210427) transition_time 0xb9d-0xba4.7 (8)
0xba0|00 5f 9e 4e fb                                 |._.N.           |
0xba0|               00 00 00 00 60 4d b4 8b         |     ....`M..   |      [199]: "2021-03-14T07:00:27Z" (1615705227) transition_time 0xba5-0xbac.7 (8)
0xba0|                                       00 00 00|             ...|      [200]: "2021-11-07T06:00:27Z" (1636264827) transition_time 0xbad-0xbb4.7 (8)
0xbb0|00 61 87 6b 7b                                 |.a.k{           |
0xbb0|               00 00 00 00 62 2d 96 8b         |     ....b-..   |      [201]: "2022-03-13T07:00:27Z" (1647154827) transition_time 0xbb5-0xbbc.7 (8)
0xbb0|                                       00 00 00|             ...|      [202]: "2022-11-06T06:00:27Z" (1667714427) transition_time 0xbbd-0xbc4.7 (8)
0xbc0|00 63 67 4d 7b                                 |.cgM{           |
0xbc0|               00 00 00 00 64 0d 78 8b         |     ....d.x.   |      [203]: "2023-03-12T07:00:27Z" (1678604427) transition_time 0xbc5-0xbcc.7 (8)
0xbc0|                                       00 00 00|             ...|      [204]: "2023-06-28T00:00:27Z" (1687910427) transition_time 0xbcd-0xbd4.7 (8)
0xbd0|00 64 9b 78 1b                                 |.d.x.           |
     |                                               |                |    transition_types[0:205]: 0xbd5-0xca1.7 (205)
0xbd0|               02                              |     .          |      [0]: 2 transition_type 0xbd5-0xbd5.7 (1)
0xbd0|                  01                           |      .         |      [1]: 1 transition_type 0xbd6-0xbd6.7 (1)
0xbd0|                     02                        |       .        |      [2]: 2 transition_type 0xbd7-0xbd7.7 (1)
0xbd0|                        01                     |        .       |      [3]: 1 transition_type 0xbd8-0xbd8.7 (1)
0xbd0|                           02                  |         .      |      [4]: 2 transition_type 0xbd9-0xbd9.7 (1)
0xbd0|                              01               |          .     |      [5]: 1 transition_type 0xbda-0xbda.7 (1)
0xbd0|                                 02            |           .    |      [6]: 2 transition_type 0xbdb-0xbdb.7 (1)
0xbd0|                                    01         |            .   |      [7]: 1 transition_type 0xbdc-0xbdc.7 (1)
0xbd0|                                       02      |             .  |      [8]: 2 transition_type 0xbdd-0xbdd.7 (1)
0xbd0|                                          01   |              . |      [9]: 1 transition_type 0xbde-0xbde.7 (1)
0xbd0|                                             02|               .|      [10]: 2 transition_type 0xbdf-0xbdf.7 (1)
0xbe0|01                                             |.               |      [11]: 1 transition_type 0xbe0-0xbe0.7 (1)
0xbe0|   02                                          | .              |      [12]: 2 transition_type 0xbe1-0xbe1.7 (1)
0xbe0|      01                                       |  .             |      [13]: 1 transition_type 0xbe2-0xbe2.7 (1)
0xbe0|         02                                    |   .            |      [14]: 2 transition_type 0xbe3-0xbe3.7 (1)
0xbe0|            01                                 |    .           |      [15]: 1 transition_type 0xbe4-0xbe4.7 (1)
0xbe0|               02                              |     .          |      [16]: 2 transition_type 0xbe5-0xbe5.7 (1)
0xbe0|                  01                           |      .         |      [17]: 1 transition_type 0xbe6-0xbe6.7 (1)
0xbe0|                     02                        |       .        |      [18]: 2 transition_type 0xbe7-0xbe7.7 (1)
0xbe0|                        01                     |        .       |      [19]: 1 transition_type 0xbe8-0xbe8.7 (1)
0xbe0|                           02                  |         .      |      [20]: 2 transition_type 0xbe9-0xbe9.7 (1)
0xbe0|                              01               |          .     |      [21]: 1 transition_type 0xbea-0xbea.7 (1)
0xbe0|                                 02            |           .    |      [22]: 2 transition_type 0xbeb-0xbeb.7 (1)
0xbe0|                                    01         |            .   |      [23]: 1 transition_type 0xbec-0xbec.7 (1)
0xbe0|                                       02      |             .  |      [24]: 2 transition_type 0xbed-0xbed.7 (1)
0xbe0|                                          01   |              . |      [25]: 1 transition_type 0xbee-0xbee.7 (1)
0xbe0|                                             02|               .|      [26]: 2 transition_type 0xbef-0xbef.7 (1)
0xbf0|01                                             |.               |      [27]: 1 transition_type 0xbf0-0xbf0.7 (1)
0xbf0|   02                                          | .              |      [28]: 2 transition_type 0xbf1-0xbf1.7 (1)
0xbf0|      01                                       |  .             |      [29]: 1 transition_type 0xbf2-0xbf2.7 (1)
0xbf0|         02                                    |   .            |      [30]: 2 transition_type 0xbf3-0xbf3.7 (1)
0xbf0|            01                                 |    .           |      [31]: 1 transition_type 0xbf4-0xbf4.7 (1)
0xbf0|               02                              |     .          |      [32]: 2 transition_type 0xbf5-0xbf5.7 (1)
0xbf0|                  01                           |      .         |      [33]: 1 transition_type 0xbf6-0xbf6.7 (1)
0xbf0|                     02                        |       .        |      [34]: 2 transition_type 0xbf7-0xbf7.7 (1)
0xbf0|                        01                     |        .       |      [35]: 1 transition_type 0xbf8-0xbf8.7 (1)
0xbf0|                           02                  |         .      |      [36]: 2 transition_type 0xbf9-0xbf9.7 (1)
0xbf0|                              01               |          .     |      [37]: 1 transition_type 0xbfa-0xbfa.7 (1)
0xbf0|                                 02            |           .    |      [38]: 2 transition_type 0xbfb-0xbfb.7 (1)
0xbf0|                                    01         |            .   |      [39]: 1 transition_type 0xbfc-0xbfc.7 (1)
0xbf0|                                       02      |             .  |      [40]: 2 transition_type 0xbfd-0xbfd.7 (1)
0xbf0|                                          01   |              . |      [41]: 1 transition_type 0xbfe-0xbfe.7 (1)
0xbf0|                                             02|               .|      [42]: 2 transition_type 0xbff-0xbff.7 (1)
0xc00|01                                             |.               |      [43]: 1 transition_type 0xc00-0xc00.7 (1)
0xc00|   02                                          | .              |      [44]: 2 transition_type 0xc01-0xc01.7 (1)
0xc00|      01                                       |  .             |      [45]: 1 transition_type 0xc02-0xc02.7 (1)
0xc00|         03                                    |   .            |      [46]: 3 transition_type 0xc03-0xc03.7 (1)
0xc00|            04                                 |    .           |      [47]: 4 transition_type 0xc04-0xc04.7 (1)
0xc00|               02                              |     .          |      [48]: 2 transition_type 0xc05-0xc05.7 (1)
0xc00|                  01                           |      .         |      [49]: 1 transition_type 0xc06-0xc06.7 (1)
0xc00|                     02                        |       .        |      [50]: 2 transition_type 0xc07-0xc07.7 (1)
0xc00|                        01                     |        .       |      [51]: 1 transition_type 0xc08-0xc08.7 (1)
0xc00|                           02                  |         .      |      [52]: 2 transition_type 0xc09-0xc09.7 (1)
0xc00|                              01               |          .     |      [53]: 1 transition_type 0xc0a-0xc0a.7 (1)
0xc00|                                 02            |           .    |      [54]: 2 transition_type 0xc0b-0xc0b.7 (1)
0xc00|                                    01         |            .   |      [55]: 1 transition_type 0xc0c-0xc0c.7 (1)
0xc00|                                       02      |             .  |      [56]: 2 transition_type 0xc0d-0xc0d.7 (1)
0xc00|                                          01   |              . |      [57]: 1 transition_type 0xc0e-0xc0e.7 (1)
0xc00|                                             02|               .|      [58]: 2 transition_type 0xc0f-0xc0f.7 (1)
0xc10|01                                             |.               |      [59]: 1 transition_type 0xc10-0xc10.7 (1)
0xc10|   02                                          | .              |      [60]: 2 transition_type 0xc11-0xc11.7 (1)
0xc10|      01                                       |  .             |      [61]: 1 transition_type 0xc12-0xc12.7 (1)
0xc10|         02                                    |   .            |      [62]: 2 transition_type 0xc13-0xc13.7 (1)
0xc10|            01                                 |    .           |      [63]: 1 transition_type 0xc14-0xc14.7 (1)
0xc10|               02                              |     .          |      [64]: 2 transition_type 0xc15-0xc15.7 (1)
0xc10|                  01                           |      .         |      [65]: 1 transition_type 0xc16-0xc16.7 (1)
0xc10|                     02                        |       .        |      [66]: 2 transition_type 0xc17-0xc17.7 (1)
0xc10|                        01                     |        .       |      [67]: 1 transition_type 0xc18-0xc18.7 (1)
0xc10|                           02                  |         .      |      [68]: 2 transition_type 0xc19-0xc19.7 (1)
0xc10|                              01               |          .     |      [69]: 1 transition_type 0xc1a-0xc1a.7 (1)
0xc10|                                 02            |           .    |      [70]: 2 transition_type 0xc1b-0xc1b.7 (1)
0xc10|                                    01         |            .   |      [71]: 1 transition_type 0xc1c-0xc1c.7 (1)
0xc10|                                       02      |             .  |      [72]: 2 transition_type 0xc1d-0xc1d.7 (1)
0xc10|                                          01   |              . |      [73]: 1 transition_type 0xc1e-0xc1e.7 (1)
0xc10|                                             02|               .|      [74]: 2 transition_type 0xc1f-0xc1f.7 (1)
0xc20|01                                             |.               |      [75]: 1 transition_type 0xc20-0xc20.7 (1)
0xc20|   02                                          | .              |      [76]: 2 transition_type 0xc21-0xc21.7 (1)
0xc20|      01                                       |  .             |      [77]: 1 transition_type 0xc22-0xc22.7 (1)
0xc20|         02                                    |   .            |      [78]: 2 transition_type 0xc23-0xc23.7 (1)
0xc20|            01                                 |    .           |      [79]: 1 transition_type 0xc24-0xc24.7 (1)
0xc20|               02                              |     .          |      [80]: 2 transition_type 0xc25-0xc25.7 (1)
0xc20|                  01                           |      .         |      [81]: 1 transition_type 0xc26-0xc26.7 (1)
0xc20|                     02                        |       .        |      [82]: 2 transition_type 0xc27-0xc27.7 (1)
0xc20|                        01                     |        .       |      [83]: 1 transition_type 0xc28-0xc28.7 (1)
0xc20|                           02                  |         .      |      [84]: 2 transition_type 0xc29-0xc29.7 (1)
0xc20|                              01               |          .     |      [85]: 1 transition_type 0xc2a-0xc2a.7 (1)
0xc20|                                 02            |           .    |      [86]: 2 transition_type 0xc2b-0xc2b.7 (1)
0xc20|                                    01         |            .   |      [87]: 1 transition_type 0xc2c-0xc2c.7 (1)
0xc20|                                       02      |             .  |      [88]: 2 transition_type 0xc2d-0xc2d.7 (1)
0xc20|                                          01   |              . |      [89]: 1 transition_type 0xc2e-0xc2e.7 (1)
0xc20|                                             02|               .|      [90]: 2 transition_type 0xc2f-0xc2f.7 (1)
0xc30|01                                             |.               |      [91]: 1 transition_type 0xc30-0xc30.7 (1)
0xc30|   02                                          | .              |      [92]: 2 transition_type 0xc31-0xc31.7 (1)
0xc30|      01                                       |  .             |      [93]: 1 transition_type 0xc32-0xc32.7 (1)
0xc30|         02                                    |   .            |      [94]: 2 transition_type 0xc33-0xc33.7 (1)
0xc30|            01                                 |    .           |      [95]: 1 transition_type 0xc34-0xc34.7 (1)
0xc30|               02                              |     .          |      [96]: 2 transition_type 0xc35-0xc35.7 (1)
0xc30|                  01                           |      .         |      [97]: 1 transition_type 0xc36-0xc36.7 (1)
0xc30|                     02                        |       .        |      [98]: 2 transition_type 0xc37-0xc37.7 (1)
0xc30|                        01                     |        .       |      [99]: 1 transition_type 0xc38-0xc38.7 (1)
0xc30|                           02                  |         .      |      [100]: 2 transition_type 0xc39-0xc39.7 (1)
0xc30|                              01               |          .     |      [101]: 1 transition_type 0xc3a-0xc3a.7 (1)
0xc30|                                 02            |           .    |      [102]: 2 transition_type 0xc3b-0xc3b.7 (1)
0xc30|                                    01         |            .   |      [103]: 1 transition_type 0xc3c-0xc3c.7 (1)
0xc30|                                       02      |             .  |      [104]: 2 transition_type 0xc3d-0xc3d.7 (1)
0xc30|                                          01   |              . |      [105]: 1 transition_type 0xc3e-0xc3e.7 (1)
0xc30|                                             02|               .|      [106]: 2 transition_type 0xc3f-0xc3f.7 (1)
0xc40|01                                             |.               |      [107]: 1 transition_type 0xc40-0xc40.7 (1)
0xc40|   02                                          | .              |      [108]: 2 transition_type 0xc41-0xc41.7 (1)
0xc40|      01                                       |  .             |      [109]: 1 transition_type 0xc42-0xc42.7 (1)
0xc40|         02                                    |   .            |      [110]: 2 transition_type 0xc43-0xc43.7 (1)
0xc40|            01                                 |    .           |      [111]: 1 transition_type 0xc44-0xc44.7 (1)
0xc40|               02                              |     .          |      [112]: 2 transition_type 0xc45-0xc45.7 (1)
0xc40|                  01                           |      .         |      [113]: 1 transition_type 0xc46-0xc46.7 (1)
0xc40|                     02                        |       .        |      [114]: 2 transition_type 0xc47-0xc47.7 (1)
0xc40|                        01                     |        .       |      [115]: 1 transition_type 0xc48-0xc48.7 (1)
0xc40|                           02                  |         .      |      [116]: 2 transition_type 0xc49-0xc49.7 (1)
0xc40|                              01               |          .     |      [117]: 1 transition_type 0xc4a-0xc4a.7 (1)
0xc40|                                 02            |           .    |      [118]: 2 transition_type 0xc4b-0xc4b.7 (1)
0xc40|                                    01         |            .   |      [119]: 1 transition_type 0xc4c-0xc4c.7 (1)
0xc40|                                       02      |             .  |      [120]: 2 transition_type 0xc4d-0xc4d.7 (1)
0xc40|                                          01   |              . |      [121]: 1 transition_type 0xc4e-0xc4e.7 (1)
0xc40|                                             02|               .|      [122]: 2 transition_type 0xc4f-0xc4f.7 (1)
0xc50|01                                             |.               |      [123]: 1 transition_type 0xc50-0xc50.7 (1)
0xc50|   02                                          | .              |      [124]: 2 transition_type 0xc51-0xc51.7 (1)
0xc50|      01                                       |  .             |      [125]: 1 transition_type 0xc52-0xc52.7 (1)
0xc50|         02                                    |   .            |      [126]: 2 transition_type 0xc53-0xc53.7 (1)
0xc50|            01                                 |    .           |      [127]: 1 transition_type 0xc54-0xc54.7 (1)
0xc50|               02                              |     .          |      [128]: 2 transition_type 0xc55-0xc55.7 (1)
0xc50|                  01                           |      .         |      [129]: 1 transition_type 0xc56-0xc56.7 (1)
0xc50|                     02                        |       .        |      [130]: 2 transition_type 0xc57-0xc57.7 (1)
0xc50|                        01                     |        .       |      [131]: 1 transition_type 0xc58-0xc58.7 (1)
0xc50|                           02                  |         .      |      [132]: 2 transition_type 0xc59-0xc59.7 (1)
0xc50|                              01               |          .     |      [133]: 1 transition_type 0xc5a-0xc5a.7 (1)
0xc50|                                 02            |           .    |      [134]: 2 transition_type 0xc5b-0xc5b.7 (1)
0xc50|                                    01         |            .   |      [135]: 1 transition_type 0xc5c-0xc5c.7 (1)
0xc50|                                       02      |             .  |      [136]: 2 transition_type 0xc5d-0xc5d.7 (1)
0xc50|                                          01   |              . |      [137]: 1 transition_type 0xc5e-0xc5e.7 (1)
0xc50|                                             02|               .|      [138]: 2 transition_type 0xc5f-0xc5f.7 (1)
0xc60|01                                             |.               |      [139]: 1 transition_type 0xc60-0xc60.7 (1)
0xc60|   02                                          | .              |      [140]: 2 transition_type 0xc61-0xc61.7 (1)
0xc60|      01                                       |  .             |      [141]: 1 transition_type 0xc62-0xc62.7 (1)
0xc60|         02                                    |   .            |      [142]: 2 transition_type 0xc63-0xc63.7 (1)
0xc60|            01                                 |    .           |      [143]: 1 transition_type 0xc64-0xc64.7 (1)
0xc60|               02                              |     .          |      [144]: 2 transition_type 0xc65-0xc65.7 (1)
0xc60|                  01                           |      .         |      [145]: 1 transition_type 0xc66-0xc66.7 (1)
0xc60|                     02                        |       .        |      [146]: 2 transition_type 0xc67-0xc67.7 (1)
0xc60|                        01                     |        .       |      [147]: 1 transition_type 0xc68-0xc68.7 (1)
0xc60|                           02                  |         .      |      [148]: 2 transition_type 0xc69-0xc69.7 (1)
0xc60|                              01               |          .     |      [149]: 1 transition_type 0xc6a-0xc6a.7 (1)
0xc60|                                 02            |           .    |      [150]: 2 transition_type 0xc6b-0xc6b.7 (1)
0xc60|                                    01         |            .   |      [151]: 1 transition_type 0xc6c-0xc6c.7 (1)
0xc60|                                       02      |             .  |      [152]: 2 transition_type 0xc6d-0xc6d.7 (1)
0xc60|                                          01   |              . |      [153]: 1 transition_type 0xc6e-0xc6e.7 (1)
0xc60|                                             02|               .|      [154]: 2 transition_type 0xc6f-0xc6f.7 (1)
0xc70|01                                             |.               |      [155]: 1 transition_type 0xc70-0xc70.7 (1)
0xc70|   02                                          | .              |      [156]: 2 transition_type 0xc71-0xc71.7 (1)
0xc70|      01                                       |  .             |      [157]: 1 transition_type 0xc72-0xc72.7 (1)
0xc70|         02                                    |   .            |      [158]: 2 transition_type 0xc73-0xc73.7 (1)
0xc70|            01                                 |    .           |      [159]: 1 transition_type 0xc74-0xc74.7 (1)
0xc70|               02                              |     .          |      [160]: 2 transition_type 0xc75-0xc75.7 (1)
0xc70|                  01                           |      .         |      [161]: 1 transition_type 0xc76-0xc76.7 (1)
0xc70|                     02                        |       .        |      [162]: 2 transition_type 0xc77-0xc77.7 (1)
0xc70|                        01                     |        .       |      [163]: 1 transition_type 0xc78-0xc78.7 (1)
0xc70|                           02                  |         .      |      [164]: 2 transition_type 0xc79-0xc79.7 (1)
0xc70|                              01               |          .     |      [165]: 1 transition_type 0xc7a-0xc7a.7 (1)
0xc70|                                 02            |           .    |      [166]: 2 transition_type 0xc7b-0xc7b.7 (1)
0xc70|                                    01         |            .   |      [167]: 1 transition_type 0xc7c-0xc7c.7 (1)
0xc70|                                       02      |             .  |      [168]: 2 transition_type 0xc7d-0xc7d.7 (1)
0xc70|                                          01   |              . |      [169]: 1 transition_type 0xc7e-0xc7e.7 (1)
0xc70|                                             02|               .|      [170]: 2 transition_type 0xc7f-0xc7f.7 (1)
0xc80|01                                             |.               |      [171]: 1 transition_type 0xc80-0xc80.7 (1)
0xc80|   02                                          | .              |      [172]: 2 transition_type 0xc81-0xc81.7 (1)
0xc80|      01                                       |  .             |      [173]: 1 transition_type 0xc82-0xc82.7 (1)
0xc80|         02                                    |   .            |      [174]: 2 transition_type 0xc83-0xc83.7 (1)
0xc80|            01                                 |    .           |      [175]: 1 transition_type 0xc84-0xc84.7 (1)
0xc80|               02                              |     .          |      [176]: 2 transition_type 0xc85-0xc85.7 (1)
0xc80|                  01                           |      .         |      [177]: 1 transition_type 0xc86-0xc86.7 (1)
0xc80|                     02                        |       .        |      [178]: 2 transition_type 0xc87-0xc87.7 (1)
0xc80|                        01                     |        .       |      [179]: 1 transition_type 0xc88-0xc88.7 (1)
0xc80|                           02                  |         .      |      [180]: 2 transition_type 0xc89-0xc89.7 (1)
0xc80|                              01               |          .     |      [181]: 1 transition_type 0xc8a-0xc8a.7 (1)
0xc80|                                 02            |           .    |      [182]: 2 transition_type 0xc8b-0xc8b.7 (1)
0xc80|                                    01         |            .   |      [183]: 1 transition_type 0xc8c-0xc8c.7 (1)
0xc80|                                       02      |             .  |      [184]: 2 transition_type 0xc8d-0xc8d.7 (1)
0xc80|                                          01   |              . |      [185]: 1 transition_type 0xc8e-0xc8e.7 (1)
0xc80|                                             02|               .|      [186]: 2 transition_type 0xc8f-0xc8f.7 (1)
0xc90|01                                             |.               |      [187]: 1 transition_type 0xc90-0xc90.7 (1)
0xc90|   02                                          | .              |      [188]: 2 transition_type 0xc91-0xc91.7 (1)
0xc90|      01                                       |  .             |      [189]: 1 transition_type 0xc92-0xc92.7 (1)
0xc90|         02                                    |   .            |      [190]: 2 transition_type 0xc93-0xc93.7 (1)
0xc90|            01                                 |    .           |      [191]: 1 transition_type 0xc94-0xc94.7 (1)
0xc90|               02                              |     .          |      [192]: 2 transition_type 0xc95-0xc95.7 (1)
0xc90|                  01                           |      .         |      [193]: 1 transition_type 0xc96-0xc96.7 (1)
0xc90|                     02                        |       .        |      [194]: 2 transition_type 0xc97-0xc97.7 (1)
0xc90|                        01                     |        .       |      [195]: 1 transition_type 0xc98-0xc98.7 (1)
0xc90|                           02                  |         .      |      [196]: 2 transition_type 0xc99-0xc99.7 (1)
0xc90|                              01               |          .     |      [197]: 1 transition_type 0xc9a-0xc9a.7 (1)
0xc90|                                 02            |           .    |      [198]: 2 transition_type 0xc9b-0xc9b.7 (1)
0xc90|                                    01         |            .   |      [199]: 1 transition_type 0xc9c-0xc9c.7 (1)
0xc90|                                       02      |             .  |      [200]: 2 transition_type 0xc9d-0xc9d.7 (1)
0xc90|                                          01   |              . |      [201]: 1 transition_type 0xc9e-0xc9e.7 (1)
0xc90|                                             02|               .|      [202]: 2 transition_type 0xc9f-0xc9f.7 (1)
0xca0|01                                             |.               |      [203]: 1 transition_type 0xca0-0xca0.7 (1)
0xca0|   01                                          | .              |      [204]: 1 transition_type 0xca1-0xca1.7 (1)
     |                                               |                |    local_time_type_records[0:5]: 0xca2-0xcbf.7 (30)
     |                                               |                |      [0]{}: local_time_type 0xca2-0xca7.7 (6)
0xca0|      ff ff b5 94                              |  ....          |        utoff: -19052 (valid) 0xca2-0xca5.7 (4)
0xca0|                  00                           |      .         |        dst: 0 (valid) 0xca6-0xca6.7 (1)
0xca0|                     00                        |       .        |        idx: 0 (valid) 0xca7-0xca7.7 (1)
     |                                               |                |      [1]{}: local_time_type 0xca8-0xcad.7 (6)
0xca0|                        ff ff c7 c0            |        ....    |        utoff: -14400 (valid) 0xca8-0xcab.7 (4)
0xca0|                                    01         |            .   |        dst: 1 (valid) 0xcac-0xcac.7 (1)
0xca0|                                       04      |             .  |        idx: 4 (valid) 0xcad-0xcad.7 (1)
     |                                               |                |      [2]{}: local_time_type 0xcae-0xcb3.7 (6)
0xca0|                                          ff ff|              ..|        utoff: -18000 (valid) 0xcae-0xcb1.7 (4)
0xcb0|b9 b0                                          |..              |
0xcb0|      00                                       |  .             |        dst: 0 (valid) 0xcb2-0xcb2.7 (1)
0xcb0|         08                                    |   .            |        idx: 8 (valid) 0xcb3-0xcb3.7 (1)
     |                                               |                |      [3]{}: local_time_type 0xcb4-0xcb9.7 (6)
0xcb0|            ff ff c7 c0                        |    ....        |        utoff: -14400 (valid) 0xcb4-0xcb7.7 (4)
0xcb0|                        01                     |        .       |        dst: 1 (valid) 0xcb8-0xcb8.7 (1)
0xcb0|                           0c                  |         .      |        idx: 12 (valid) 0xcb9-0xcb9.7 (1)
     |                                               |                |      [4]{}: local_time_type 0xcba-0xcbf.7 (6)
0xcb0|                              ff ff c7 c0      |          ....  |        utoff: -14400 (valid) 0xcba-0xcbd.7 (4)
0xcb0|                                          01   |              . |        dst: 1 (valid) 0xcbe-0xcbe.7 (1)
0xcb0|                                             10|               .|        idx: 16 (valid) 0xcbf-0xcbf.7 (1)
     |                                               |                |    time_zone_designations[0:5]: 0xcc0-0xcd3.7 (20)
0xcc0|4c 4d 54 00                                    |LMT.            |      [0]: "LMT" time_zone_designation 0xcc0-0xcc3.7 (4)
0xcc0|            45 44 54 00                        |    EDT.        |      [1]: "EDT" time_zone_designation 0xcc4-0xcc7.7 (4)
0xcc0|                        45 53 54 00            |        EST.    |      [2]: "EST" time_zone_designation 0xcc8-0xccb.7 (4)
0xcc0|                                    45 57 54 00|            EWT.|      [3]: "EWT" time_zone_designation 0xccc-0xccf.7 (4)
0xcd0|45 50 54 00                                    |EPT.            |      [4]: "EPT" time_zone_designation 0xcd0-0xcd3.7 (4)
     |                                               |                |    leap_second_records[0:27]: 0xcd4-0xe17.7 (324)
     |                                               |                |      [0]{}: leap_second_record 0xcd4-0xcdf.7 (12)
0xcd0|            00 00 00 00 04 b2 58 00            |    ......X.    |        occur: "1972-07-01T00:00:00Z" (78796800) 0xcd4-0xcdb.7 (8)
0xcd0|                                    00 00 00 01|            ....|        corr: 1 0xcdc-0xcdf.7 (4)
     |                                               |                |      [1]{}: leap_second_record 0xce0-0xceb.7 (12)
0xce0|00 00 00 00 05 a4 ec 01                        |........        |        occur: "1973-01-01T00:00:01Z" (94694401) 0xce0-0xce7.7 (8)
0xce0|                        00 00 00 02            |        ....    |        corr: 2 0xce8-0xceb.7 (4)
     |                                               |                |      [2]{}: leap_second_record 0xcec-0xcf7.7 (12)
0xce0|                                    00 00 00 00|            ....|        occur: "1974-01-01T00:00:02Z" (126230402) 0xcec-0xcf3.7 (8)
0xcf0|07 86 1f 82                                    |....            |
0xcf0|            00 00 00 03                        |    ....        |        corr: 3 0xcf4-0xcf7.7 (4)
     |                                               |                |      [3]{}: leap_second_record 0xcf8-0xd03.7 (12)
0xcf0|                        00 00 00 00 09 67 53 03|        .....gS.|        occur: "1975-01-01T00:00:03Z" (157766403) 0xcf8-0xcff.7 (8)
0xd00|00 00 00 04                                    |....            |        corr: 4 0xd00-0xd03.7 (4)
     |                                               |                |      [4]{}: leap_second_record 0xd04-0xd0f.7 (12)
0xd00|            00 00 00 00 0b 48 86 84            |    .....H..    |        occur: "1976-01-01T00:00:04Z" (189302404) 0xd04-0xd0b.7 (8)
0xd00|                                    00 00 00 05|            ....|        corr: 5 0xd0c-0xd0f.7 (4)
     |                                               |                |      [5]{}: leap_second_record 0xd10-0xd1b.7 (12)
0xd10|00 00 00 00 0d 2b 0b 85                        |.....+..        |        occur: "1977-01-01T00:00:05Z" (220924805) 0xd10-0xd17.7 (8)
0xd10|                        00 00 00 06            |        ....    |        corr: 6 0xd18-0xd1b.7 (4)
     |                                               |                |      [6]{}: leap_second_record 0xd1c-0xd27.7 (12)
0xd10|                                    00 00 00 00|            ....|        occur: "1978-01-01T00:00:06Z" (252460806) 0xd1c-0xd23.7 (8)
0xd20|0f 0c 3f 06                                    |..?.            |
0xd20|            00 00 00 07                        |    ....        |        corr: 7 0xd24-0xd27.7 (4)
     |                                               |                |      [7]{}: leap_second_record 0xd28-0xd33.7 (12)
0xd20|                        00 00 00 00 10 ed 72 87|        ......r.|        occur: "1979-01-01T00:00:07Z" (283996807) 0xd28-0xd2f.7 (8)
0xd30|00 00 00 08                                    |....            |        corr: 8 0xd30-0xd33.7 (4)
     |                                               |                |      [8]{}: leap_second_record 0xd34-0xd3f.7 (12)
0xd30|            00 00 00 00 12 ce a6 08            |    ........    |        occur: "1980-01-01T00:00:08Z" (315532808) 0xd34-0xd3b.7 (8)
0xd30|                                    00 00 00 09|            ....|        corr: 9 0xd3c-0xd3f.7 (4)
     |                                               |                |      [9]{}: leap_second_record 0xd40-0xd4b.7 (12)
0xd40|00 00 00 00 15 9f ca 89                        |........        |        occur: "1981-07-01T00:00:09Z" (362793609) 0xd40-0xd47.7 (8)
0xd40|                        00 00 00 0a            |        ....    |        corr: 10 0xd48-0xd4b.7 (4)
     |                                               |                |      [10]{}: leap_second_record 0xd4c-0xd57.7 (12)
0xd40|                                    00 00 00 00|            ....|        occur: "1982-07-01T00:00:10Z" (394329610) 0xd4c-0xd53.7 (8)
0xd50|17 80 fe 0a                                    |....            |
0xd50|            00 00 00 0b                        |    ....        |        corr: 11 0xd54-0xd57.7 (4)
     |                                               |                |      [11]{}: leap_second_record 0xd58-0xd63.7 (12)
0xd50|                        00 00 00 00 19 62 31 8b|        .....b1.|        occur: "1983-07-01T00:00:11Z" (425865611) 0xd58-0xd5f.7 (8)
0xd60|00 00 00 0c                                    |....            |        corr: 12 0xd60-0xd63.7 (4)
     |                                               |                |      [12]{}: leap_second_record 0xd64-0xd6f.7 (12)
0xd60|            00 00 00 00 1d 25 ea 0c            |    .....%..    |        occur: "1985-07-01T00:00:12Z" (489024012) 0xd64-0xd6b.7 (8)
0xd60|                                    00 00 00 0d|            ....|        corr: 13 0xd6c-0xd6f.7 (4)
     |                                               |                |      [13]{}: leap_second_record 0xd70-0xd7b.7 (12)
0xd70|00 00 00 00 21 da e5 0d                        |....!...        |        occur: "1988-01-01T00:00:13Z" (567993613) 0xd70-0xd77.7 (8)
0xd70|                        00 00 00 0e            |        ....    |        corr: 14 0xd78-0xd7b.7 (4)
     |                                               |                |      [14]{}: leap_second_record 0xd7c-0xd87.7 (12)
0xd70|                                    00 00 00 00|            ....|        occur: "1990-01-01T00:00:14Z" (631152014) 0xd7c-0xd83.7 (8)
0xd80|25 9e 9d 8e                                    |%...            |
0xd80|            00 00 00 0f                        |    ....        |        corr: 15 0xd84-0xd87.7 (4)
     |                                               |                |      [15]{}: leap_second_record 0xd88-0xd93.7 (12)
0xd80|                        00 00 00 00 27 7f d1 0f|        ....'...|        occur: "1991-01-01T00:00:15Z" (662688015) 0xd88-0xd8f.7 (8)
0xd90|00 00 00 10                                    |....            |        corr: 16 0xd90-0xd93.7 (4)
     |                                               |                |      [16]{}: leap_second_record 0xd94-0xd9f.7 (12)
0xd90|            00 00 00 00 2a 50 f5 90            |    ....*P..    |        occur: "1992-07-01T00:00:16Z" (709948816) 0xd94-0xd9b.7 (8)
0xd90|                                    00 00 00 11|            ....|        corr: 17 0xd9c-0xd9f.7 (4)
     |                                               |                |      [17]{}: leap_second_record 0xda0-0xdab.7 (12)
0xda0|00 00 00 00 2c 32 29 11                        |....,2).        |        occur: "1993-07-01T00:00:17Z" (741484817) 0xda0-0xda7.7 (8)
0xda0|                        00 00 00 12            |        ....    |        corr: 18 0xda8-0xdab.7 (4)
     |                                               |                |      [18]{}: leap_second_record 0xdac-0xdb7.7 (12)
0xda0|                                    00 00 00 00|            ....|        occur: "1994-07-01T00:00:18Z" (773020818) 0xdac-0xdb3.7 (8)
0xdb0|2e 13 5c 92                                    |..\.            |
0xdb0|            00 00 00 13                        |    ....        |        corr: 19 0xdb4-0xdb7.7 (4)
     |                                               |                |      [19]{}: leap_second_record 0xdb8-0xdc3.7 (12)
0xdb0|                        00 00 00 00 30 e7 24 13|        ....0.$.|        occur: "1996-01-01T00:00:19Z" (820454419) 0xdb8-0xdbf.7 (8)
0xdc0|00 00 00 14                                    |....            |        corr: 20 0xdc0-0xdc3.7 (4)
     |                                               |                |      [20]{}: leap_second_record 0xdc4-0xdcf.7 (12)
0xdc0|            00 00 00 00 33 b8 48 94            |    ....3.H.    |        occur: "1997-07-01T00:00:20Z" (867715220) 0xdc4-0xdcb.7 (8)
0xdc0|                                    00 00 00 15|            ....|        corr: 21 0xdcc-0xdcf.7 (4)
     |                                               |                |      [21]{}: leap_second_record 0xdd0-0xddb.7 (12)
0xdd0|00 00 00 00 36 8c 10 15                        |....6...        |        occur: "1999-01-01T00:00:21Z" (915148821) 0xdd0-0xdd7.7 (8)
0xdd0|                        00 00 00 16            |        ....    |        corr: 22 0xdd8-0xddb.7 (4)
     |                                               |                |      [22]{}: leap_second_record 0xddc-0xde7.7 (12)
0xdd0|                                    00 00 00 00|            ....|        occur: "2006-01-01T00:00:22Z" (1136073622) 0xddc-0xde3.7 (8)
0xde0|43 b7 1b 96                                    |C...            |
0xde0|            00 00 00 17                        |    ....        |        corr: 23 0xde4-0xde7.7 (4)
     |                                               |                |      [23]{}: leap_second_record 0xde8-0xdf3.7 (12)
0xde0|                        00 00 00 00 49 5c 07 97|        ....I\..|        occur: "2009-01-01T00:00:23Z" (1230768023) 0xde8-0xdef.7 (8)
0xdf0|00 00 00 18                                    |....            |        corr: 24 0xdf0-0xdf3.7 (4)
     |                                               |                |      [24]{}: leap_second_record 0xdf4-0xdff.7 (12)
0xdf0|            00 00 00 00 4f ef 93 18            |    ....O...    |        occur: "2012-07-01T00:00:24Z" (1341100824) 0xdf4-0xdfb.7 (8)
0xdf0|                                    00 00 00 19|            ....|        corr: 25 0xdfc-0xdff.7 (4)
     |                                               |                |      [25]{}: leap_second_record 0xe00-0xe0b.7 (12)
0xe00|00 00 00 00 55 93 2d 99                        |....U.-.        |        occur: "2015-07-01T00:00:25Z" (1435708825) 0xe00-0xe07.7 (8)
0xe00|                        00 00 00 1a            |        ....    |        corr: 26 0xe08-0xe0b.7 (4)
     |                                               |                |      [26]{}: leap_second_record 0xe0c-0xe17.7 (12)
0xe00|                                    00 00 00 00|            ....|        occur: "2017-01-01T00:00:26Z" (1483228826) 0xe0c-0xe13.7 (8)
0xe10|58 68 46 9a                                    |XhF.            |
0xe10|            00 00 00 1b                        |    ....        |        corr: 27 0xe14-0xe17.7 (4)
     |                                               |                |    standard_wall_indicators[0:5]: 0xe18-0xe1c.7 (5)
0xe10|                        00                     |        .       |      [0]: 0 standard_wall_indicator (valid) 0xe18-0xe18.7 (1)
0xe10|                           00                  |         .      |      [1]: 0 standard_wall_indicator (valid) 0xe19-0xe19.7 (1)
0xe10|                              00               |          .     |      [2]: 0 standard_wall_indicator (valid) 0xe1a-0xe1a.7 (1)
0xe10|                                 00            |           .    |      [3]: 0 standard_wall_indicator (valid) 0xe1b-0xe1b.7 (1)
0xe10|                                    01         |            .   |      [4]: 1 standard_wall_indicator (valid) 0xe1c-0xe1c.7 (1)
     |                                               |                |    ut_local_indicators[0:5]: 0xe1d-0xe21.7 (5)
0xe10|                                       00      |             .  |      [0]: 0 ut_local_indicator (valid) 0xe1d-0xe1d.7 (1)
0xe10|                                          00   |              . |      [1]: 0 ut_local_indicator (valid) 0xe1e-0xe1e.7 (1)
0xe10|                                             00|               .|      [2]: 0 ut_local_indicator (valid) 0xe1f-0xe1f.7 (1)
0xe20|00                                             |.               |      [3]: 0 ut_local_indicator (valid) 0xe20-0xe20.7 (1)
0xe20|   01                                          | .              |      [4]: 1 ut_local_indicator (valid) 0xe21-0xe21.7 (1)
     |                                               |                |  footer{}: 0xe22-0xe23.7 (2)
0xe20|      0a                                       |  .             |    nl1: 10 (valid) 0xe22-0xe22.7 (1)
     |                                               |                |    tz_string: "" 0xe23-NA (0)
0xe20|         0a|                                   |   .|           |    nl2: 10 (valid) 0xe23-0xe23.7 (1)
