$ fq -d tzif dv Tripoli
     |00 01 02 03 04 05 06 07 08 09 0a 0b 0c 0d 0e 0f|0123456789abcdef|.{}: Tripoli (tzif) 0x0-0x270.7 (625)
     |                                               |                |  v1header{}: 0x0-0x2b.7 (44)
0x000|54 5a 69 66                                    |TZif            |    magic: 0x545a6966 (valid) 0x0-0x3.7 (4)
0x000|            32                                 |    2           |    ver: "2" (0x32) (valid) 0x4-0x4.7 (1)
0x000|               00 00 00 00 00 00 00 00 00 00 00|     ...........|    reserved: raw bits 0x5-0x13.7 (15)
0x010|00 00 00 00                                    |....            |
0x010|            00 00 00 00                        |    ....        |    isutcnt: 0 0x14-0x17.7 (4)
0x010|                        00 00 00 00            |        ....    |    isstdcnt: 0 0x18-0x1b.7 (4)
0x010|                                    00 00 00 00|            ....|    leapcnt: 0 0x1c-0x1f.7 (4)
0x020|00 00 00 20                                    |...             |    timecnt: 32 0x20-0x23.7 (4)
0x020|            00 00 00 04                        |    ....        |    typecnt: 4 0x24-0x27.7 (4)
0x020|                        00 00 00 11            |        ....    |    charcnt: 17 0x28-0x2b.7 (4)
     |                                               |                |  v1datablock{}: 0x2c-0xf4.7 (201)
     |                                               |                |    transition_times[0:32]: 0x2c-0xab.7 (128)
0x020|                                    a1 f2 c1 24|            ...$|      [0]: "1919-12-31T23:07:16Z" (-1577926364) transition_time 0x2c-0x2f.7 (4)
0x030|dd bb b1 10                                    |....            |      [1]: "1951-10-14T01:00:00Z" (-574902000) transition_time 0x30-0x33.7 (4)
0x030|            de 23 ad 60                        |    .#.`        |      [2]: "1951-12-31T22:00:00Z" (-568087200) transition_time 0x34-0x37.7 (4)
0x030|                        e1 78 d2 10            |        .x..    |      [3]: "1953-10-09T01:00:00Z" (-512175600) transition_time 0x38-0x3b.7 (4)
0x030|                                    e1 e7 65 e0|            ..e.|      [4]: "1953-12-31T22:00:00Z" (-504928800) transition_time 0x3c-0x3f.7 (4)
0x040|e5 2f 3f 70                                    |./?p            |      [5]: "1955-09-29T23:00:00Z" (-449888400) transition_time 0x40-0x43.7 (4)
0x040|            e5 a9 cc e0                        |    ....        |      [6]: "1955-12-31T22:00:00Z" (-441856800) transition_time 0x44-0x47.7 (4)
0x040|                        eb 4e c6 f0            |        .N..    |      [7]: "1958-12-31T23:00:00Z" (-347158800) transition_time 0x48-0x4b.7 (4)
0x040|                                    16 92 42 60|            ..B`|      [8]: "1981-12-31T22:00:00Z" (378684000) transition_time 0x4c-0x4f.7 (4)
0x050|17 08 f7 70                                    |...p            |      [9]: "1982-03-31T23:00:00Z" (386463600) transition_time 0x50-0x53.7 (4)
0x050|            17 fa 2b e0                        |    ..+.        |      [10]: "1982-09-30T22:00:00Z" (402271200) transition_time 0x54-0x57.7 (4)
0x050|                        18 ea 2a f0            |        ..*.    |      [11]: "1983-03-31T23:00:00Z" (417999600) transition_time 0x58-0x5b.7 (4)
0x050|                                    19 db 5f 60|            .._`|      [12]: "1983-09-30T22:00:00Z" (433807200) transition_time 0x5c-0x5f.7 (4)
0x060|1a cc af f0                                    |....            |      [13]: "1984-03-31T23:00:00Z" (449622000) transition_time 0x60-0x63.7 (4)
0x060|            1b bd e4 60                        |    ...`        |      [14]: "1984-09-30T22:00:00Z" (465429600) transition_time 0x64-0x67.7 (4)
0x060|                        1c b4 7a f0            |        ..z.    |      [15]: "1985-04-05T23:00:00Z" (481590000) transition_time 0x68-0x6b.7 (4)
0x060|                                    1d 9f 17 e0|            ....|      [16]: "1985-09-30T22:00:00Z" (496965600) transition_time 0x6c-0x6f.7 (4)
0x070|1e 93 0b 70                                    |...p            |      [17]: "1986-04-03T23:00:00Z" (512953200) transition_time 0x70-0x73.7 (4)
0x070|            1f 82 ee 60                        |    ...`        |      [18]: "1986-10-02T22:00:00Z" (528674400) transition_time 0x74-0x77.7 (4)
0x070|                        20 70 4a 70            |         pJp    |      [19]: "1987-03-31T23:00:00Z" (544230000) transition_time 0x78-0x7b.7 (4)
0x070|                                    21 61 7e e0|            !a~.|      [20]: "1987-09-30T22:00:00Z" (560037600) transition_time 0x7c-0x7f.7 (4)
0x080|22 52 cf 70                                    |"R.p            |      [21]: "1988-03-31T23:00:00Z" (575852400) transition_time 0x80-0x83.7 (4)
0x080|            23 44 03 e0                        |    #D..        |      [22]: "1988-09-30T22:00:00Z" (591660000) transition_time 0x84-0x87.7 (4)
0x080|                        24 34 02 f0            |        $4..    |      [23]: "1989-03-31T23:00:00Z" (607388400) transition_time 0x88-0x8b.7 (4)
0x080|                                    25 25 37 60|            %%7`|      [24]: "1989-09-30T22:00:00Z" (623196000) transition_time 0x8c-0x8f.7 (4)
0x090|26 40 b7 f0                                    |&@..            |      [25]: "1990-05-03T23:00:00Z" (641775600) transition_time 0x90-0x93.7 (4)
0x090|            32 4e f1 60                        |    2N.`        |      [26]: "1996-09-29T22:00:00Z" (844034400) transition_time 0x94-0x97.7 (4)
0x090|                        33 44 36 70            |        3D6p    |      [27]: "1997-04-03T23:00:00Z" (860108400) transition_time 0x98-0x9b.7 (4)
0x090|                                    34 35 6a e0|            45j.|      [28]: "1997-10-03T22:00:00Z" (875916000) transition_time 0x9c-0x9f.7 (4)
0x0a0|50 9d 99 00                                    |P...            |      [29]: "2012-11-10T00:00:00Z" (1352505600) transition_time 0xa0-0xa3.7 (4)
0x0a0|            51 54 d9 80                        |    QT..        |      [30]: "2013-03-29T00:00:00Z" (1364515200) transition_time 0xa4-0xa7.7 (4)
0x0a0|                        52 69 b4 80            |        Ri..    |      [31]: "2013-10-25T00:00:00Z" (1382659200) transition_time 0xa8-0xab.7 (4)
     |                                               |                |    transition_types[0:32]: 0xac-0xcb.7 (32)
0x0a0|                                    02         |            .   |      [0]: 2 transition_type 0xac-0xac.7 (1)
0x0a0|                                       01      |             .  |      [1]: 1 transition_type 0xad-0xad.7 (1)
0x0a0|                                          02   |              . |      [2]: 2 transition_type 0xae-0xae.7 (1)
0x0a0|                                             01|               .|      [3]: 1 transition_type 0xaf-0xaf.7 (1)
0x0b0|02                                             |.               |      [4]: 2 transition_type 0xb0-0xb0.7 (1)
0x0b0|   01                                          | .              |      [5]: 1 transition_type 0xb1-0xb1.7 (1)
0x0b0|      02                                       |  .             |      [6]: 2 transition_type 0xb2-0xb2.7 (1)
0x0b0|         03                                    |   .            |      [7]: 3 transition_type 0xb3-0xb3.7 (1)
0x0b0|            02                                 |    .           |      [8]: 2 transition_type 0xb4-0xb4.7 (1)
0x0b0|               01                              |     .          |      [9]: 1 transition_type 0xb5-0xb5.7 (1)
0x0b0|                  02                           |      .         |      [10]: 2 transition_type 0xb6-0xb6.7 (1)
0x0b0|                     01                        |       .        |      [11]: 1 transition_type 0xb7-0xb7.7 (1)
0x0b0|                        02                     |        .       |      [12]: 2 transition_type 0xb8-0xb8.7 (1)
0x0b0|                           01                  |         .      |      [13]: 1 transition_type 0xb9-0xb9.7 (1)
0x0b0|                              02               |          .     |      [14]: 2 transition_type 0xba-0xba.7 (1)
0x0b0|                                 01            |           .    |      [15]: 1 transition_type 0xbb-0xbb.7 (1)
0x0b0|                                    02         |            .   |      [16]: 2 transition_type 0xbc-0xbc.7 (1)
0x0b0|                                       01      |             .  |      [17]: 1 transition_type 0xbd-0xbd.7 (1)
0x0b0|                                          02   |              . |      [18]: 2 transition_type 0xbe-0xbe.7 (1)
0x0b0|                                             01|               .|      [19]: 1 transition_type 0xbf-0xbf.7 (1)
0x0c0|02                                             |.               |      [20]: 2 transition_type 0xc0-0xc0.7 (1)
0x0c0|   01                                          | .              |      [21]: 1 transition_type 0xc1-0xc1.7 (1)
0x0c0|      02                                       |  .             |      [22]: 2 transition_type 0xc2-0xc2.7 (1)
0x0c0|         01                                    |   .            |      [23]: 1 transition_type 0xc3-0xc3.7 (1)
0x0c0|            02                                 |    .           |      [24]: 2 transition_type 0xc4-0xc4.7 (1)
0x0c0|               03                              |     .          |      [25]: 3 transition_type 0xc5-0xc5.7 (1)
0x0c0|                  02                           |      .         |      [26]: 2 transition_type 0xc6-0xc6.7 (1)
0x0c0|                     01                        |       .        |      [27]: 1 transition_type 0xc7-0xc7.7 (1)
0x0c0|                        03                     |        .       |      [28]: 3 transition_type 0xc8-0xc8.7 (1)
0x0c0|                           02                  |         .      |      [29]: 2 transition_type 0xc9-0xc9.7 (1)
0x0c0|                              01               |          .     |      [30]: 1 transition_type 0xca-0xca.7 (1)
0x0c0|                                 03            |           .    |      [31]: 3 transition_type 0xcb-0xcb.7 (1)
     |                                               |                |    local_time_type_records[0:4]: 0xcc-0xe3.7 (24)
     |                                               |                |      [0]{}: local_time_type 0xcc-0xd1.7 (6)
0x0c0|                                    00 00 0c 5c|            ...\|        utoff: 3164 (valid) 0xcc-0xcf.7 (4)
0x0d0|00                                             |.               |        dst: 0 (valid) 0xd0-0xd0.7 (1)
0x0d0|   00                                          | .              |        idx: 0 (valid) 0xd1-0xd1.7 (1)
     |                                               |                |      [1]{}: local_time_type 0xd2-0xd7.7 (6)
0x0d0|      00 00 1c 20                              |  ...           |        utoff: 7200 (valid) 0xd2-0xd5.7 (4)
0x0d0|                  01                           |      .         |        dst: 1 (valid) 0xd6-0xd6.7 (1)
0x0d0|                     04                        |       .        |        idx: 4 (valid) 0xd7-0xd7.7 (1)
     |                                               |                |      [2]{}: local_time_type 0xd8-0xdd.7 (6)
0x0d0|                        00 00 0e 10            |        ....    |        utoff: 3600 (valid) 0xd8-0xdb.7 (4)
0x0d0|                                    00         |            .   |        dst: 0 (valid) 0xdc-0xdc.7 (1)
0x0d0|                                       09      |             .  |        idx: 9 (valid) 0xdd-0xdd.7 (1)
     |                                               |                |      [3]{}: local_time_type 0xde-0xe3.7 (6)
0x0d0|                                          00 00|              ..|        utoff: 7200 (valid) 0xde-0xe1.7 (4)
0x0e0|1c 20                                          |.               |
0x0e0|      00                                       |  .             |        dst: 0 (valid) 0xe2-0xe2.7 (1)
0x0e0|         0d                                    |   .            |        idx: 13 (valid) 0xe3-0xe3.7 (1)
     |                                               |                |    time_zone_designations[0:4]: 0xe4-0xf4.7 (17)
0x0e0|            4c 4d 54 00                        |    LMT.        |      [0]: "LMT" time_zone_designation 0xe4-0xe7.7 (4)
0x0e0|                        43 45 53 54 00         |        CEST.   |      [1]: "CEST" time_zone_designation 0xe8-0xec.7 (5)
0x0e0|                                       43 45 54|             CET|      [2]: "CET" time_zone_designation 0xed-0xf0.7 (4)
0x0f0|00                                             |.               |
0x0f0|   45 45 54 00                                 | EET.           |      [3]: "EET" time_zone_designation 0xf1-0xf4.7 (4)
     |                                               |                |    leap_second_records[0:0]: 0xf5-NA (0)
     |                                               |                |    standard_wall_indicators[0:0]: 0xf5-NA (0)
     |                                               |                |    ut_local_indicators[0:0]: 0xf5-NA (0)
     |                                               |                |  v2plusheader{}: 0xf5-0x120.7 (44)
0x0f0|               54 5a 69 66                     |     TZif       |    magic: 0x545a6966 (valid) 0xf5-0xf8.7 (4)
0x0f0|                           32                  |         2      |    ver: "2" (0x32) (valid) 0xf9-0xf9.7 (1)
0x0f0|                              00 00 00 00 00 00|          ......|    reserved: raw bits 0xfa-0x108.7 (15)
0x100|00 00 00 00 00 00 00 00 00                     |.........       |
0x100|                           00 00 00 00         |         ....   |    isutcnt: 0 0x109-0x10c.7 (4)
0x100|                                       00 00 00|             ...|    isstdcnt: 0 0x10d-0x110.7 (4)
0x110|00                                             |.               |
0x110|   00 00 00 00                                 | ....           |    leapcnt: 0 0x111-0x114.7 (4)
0x110|               00 00 00 20                     |     ...        |    timecnt: 32 0x115-0x118.7 (4)
0x110|                           00 00 00 04         |         ....   |    typecnt: 4 0x119-0x11c.7 (4)
0x110|                                       00 00 00|             ...|    charcnt: 17 0x11d-0x120.7 (4)
0x120|11                                             |.               |
     |                                               |                |  v2plusdatablock{}: 0x121-0x269.7 (329)
     |                                               |                |    transition_times[0:32]: 0x121-0x220.7 (256)
0x120|   ff ff ff ff a1 f2 c1 24                     | .......$       |      [0]: "1919-12-31T23:07:16Z" (-1577926364) transition_time 0x121-0x128.7 (8)
0x120|                           ff ff ff ff dd bb b1|         .......|      [1]: "1951-10-14T01:00:00Z" (-574902000) transition_time 0x129-0x130.7 (8)
0x130|10                                             |.               |
0x130|   ff ff ff ff de 23 ad 60                     | .....#.`       |      [2]: "1951-12-31T22:00:00Z" (-568087200) transition_time 0x131-0x138.7 (8)
0x130|                           ff ff ff ff e1 78 d2|         .....x.|      [3]: "1953-10-09T01:00:00Z" (-512175600) transition_time 0x139-0x140.7 (8)
0x140|10                                             |.               |
0x140|   ff ff ff ff e1 e7 65 e0                     | ......e.       |      [4]: "1953-12-31T22:00:00Z" (-504928800) transition_time 0x141-0x148.7 (8)
0x140|                           ff ff ff ff e5 2f 3f|         ...../?|      [5]: "1955-09-29T23:00:00Z" (-449888400) transition_time 0x149-0x150.7 (8)
0x150|70                                             |p               |
0x150|   ff ff ff ff e5 a9 cc e0                     | ........       |      [6]: "1955-12-31T22:00:00Z" (-441856800) transition_time 0x151-0x158.7 (8)
0x150|                           ff ff ff ff eb 4e c6|         .....N.|      [7]: "1958-12-31T23:00:00Z" (-347158800) transition_time 0x159-0x160.7 (8)
0x160|f0                                             |.               |
0x160|   00 00 00 00 16 92 42 60                     | ......B`       |      [8]: "1981-12-31T22:00:00Z" (378684000) transition_time 0x161-0x168.7 (8)
0x160|                           00 00 00 00 17 08 f7|         .......|      [9]: "1982-03-31T23:00:00Z" (386463600) transition_time 0x169-0x170.7 (8)
0x170|70                                             |p               |
0x170|   00 00 00 00 17 fa 2b e0                     | ......+.       |      [10]: "1982-09-30T22:00:00Z" (402271200) transition_time 0x171-0x178.7 (8)
0x170|                           00 00 00 00 18 ea 2a|         ......*|      [11]: "1983-03-31T23:00:00Z" (417999600) transition_time 0x179-0x180.7 (8)
0x180|f0                                             |.               |
0x180|   00 00 00 00 19 db 5f 60                     | ......_`       |      [12]: "1983-09-30T22:00:00Z" (433807200) transition_time 0x181-0x188.7 (8)
0x180|                           00 00 00 00 1a cc af|         .......|      [13]: "1984-03-31T23:00:00Z" (449622000) transition_time 0x189-0x190.7 (8)
0x190|f0                                             |.               |
0x190|   00 00 00 00 1b bd e4 60                     | .......`       |      [14]: "1984-09-30T22:00:00Z" (465429600) transition_time 0x191-0x198.7 (8)
0x190|                           00 00 00 00 1c b4 7a|         ......z|      [15]: "1985-04-05T23:00:00Z" (481590000) transition_time 0x199-0x1a0.7 (8)
0x1a0|f0                                             |.               |
0x1a0|   00 00 00 00 1d 9f 17 e0                     | ........       |      [16]: "1985-09-30T22:00:00Z" (496965600) transition_time 0x1a1-0x1a8.7 (8)
0x1a0|                           00 00 00 00 1e 93 0b|         .......|      [17]: "1986-04-03T23:00:00Z" (512953200) transition_time 0x1a9-0x1b0.7 (8)
0x1b0|70                                             |p               |
0x1b0|   00 00 00 00 1f 82 ee 60                     | .......`       |      [18]: "1986-10-02T22:00:00Z" (528674400) transition_time 0x1b1-0x1b8.7 (8)
0x1b0|                           00 00 00 00 20 70 4a|         .... pJ|      [19]: "1987-03-31T23:00:00Z" (544230000) transition_time 0x1b9-0x1c0.7 (8)
0x1c0|70                                             |p               |
0x1c0|   00 00 00 00 21 61 7e e0                     | ....!a~.       |      [20]: "1987-09-30T22:00:00Z" (560037600) transition_time 0x1c1-0x1c8.7 (8)
0x1c0|                           00 00 00 00 22 52 cf|         ...."R.|      [21]: "1988-03-31T23:00:00Z" (575852400) transition_time 0x1c9-0x1d0.7 (8)
0x1d0|70                                             |p               |
0x1d0|   00 00 00 00 23 44 03 e0                     | ....#D..       |      [22]: "1988-09-30T22:00:00Z" (591660000) transition_time 0x1d1-0x1d8.7 (8)
0x1d0|                           00 00 00 00 24 34 02|         ....$4.|      [23]: "1989-03-31T23:00:00Z" (607388400) transition_time 0x1d9-0x1e0.7 (8)
0x1e0|f0                                             |.               |
0x1e0|   00 00 00 00 25 25 37 60                     | ....%%7`       |      [24]: "1989-09-30T22:00:00Z" (623196000) transition_time 0x1e1-0x1e8.7 (8)
0x1e0|                           00 00 00 00 26 40 b7|         ....&@.|      [25]: "1990-05-03T23:00:00Z" (641775600) transition_time 0x1e9-0x1f0.7 (8)
0x1f0|f0                                             |.               |
0x1f0|   00 00 00 00 32 4e f1 60                     | ....2N.`       |      [26]: "1996-09-29T22:00:00Z" (844034400) transition_time 0x1f1-0x1f8.7 (8)
0x1f0|                           00 00 00 00 33 44 36|         ....3D6|      [27]: "1997-04-03T23:00:00Z" (860108400) transition_time 0x1f9-0x200.7 (8)
0x200|70                                             |p               |
0x200|   00 00 00 00 34 35 6a e0                     | ....45j.       |      [28]: "1997-10-03T22:00:00Z" (875916000) transition_time 0x201-0x208.7 (8)
0x200|                           00 00 00 00 50 9d 99|         ....P..|      [29]: "2012-11-10T00:00:00Z" (1352505600) transition_time 0x209-0x210.7 (8)
0x210|00                                             |.               |
0x210|   00 00 00 00 51 54 d9 80                     | ....QT..       |      [30]: "2013-03-29T00:00:00Z" (1364515200) transition_time 0x211-0x218.7 (8)
0x210|                           00 00 00 00 52 69 b4|         ....Ri.|      [31]: "2013-10-25T00:00:00Z" (1382659200) transition_time 0x219-0x220.7 (8)
0x220|80                                             |.               |
     |                                               |                |    transition_types[0:32]: 0x221-0x240.7 (32)
0x220|   02                                          | .              |      [0]: 2 transition_type 0x221-0x221.7 (1)
0x220|      01                                       |  .             |      [1]: 1 transition_type 0x222-0x222.7 (1)
0x220|         02                                    |   .            |      [2]: 2 transition_type 0x223-0x223.7 (1)
0x220|            01                                 |    .           |      [3]: 1 transition_type 0x224-0x224.7 (1)
0x220|               02                              |     .          |      [4]: 2 transition_type 0x225-0x225.7 (1)
0x220|                  01                           |      .         |      [5]: 1 transition_type 0x226-0x226.7 (1)
0x220|                     02                        |       .        |      [6]: 2 transition_type 0x227-0x227.7 (1)
0x220|                        03                     |        .       |      [7]: 3 transition_type 0x228-0x228.7 (1)
0x220|                           02                  |         .      |      [8]: 2 transition_type 0x229-0x229.7 (1)
0x220|                              01               |          .     |      [9]: 1 transition_type 0x22a-0x22a.7 (1)
0x220|                                 02            |           .    |      [10]: 2 transition_type 0x22b-0x22b.7 (1)
0x220|                                    01         |            .   |      [11]: 1 transition_type 0x22c-0x22c.7 (1)
0x220|                                       02      |             .  |      [12]: 2 transition_type 0x22d-0x22d.7 (1)
0x220|                                          01   |              . |      [13]: 1 transition_type 0x22e-0x22e.7 (1)
0x220|                                             02|               .|      [14]: 2 transition_type 0x22f-0x22f.7 (1)
0x230|01                                             |.               |      [15]: 1 transition_type 0x230-0x230.7 (1)
0x230|   02                                          | .              |      [16]: 2 transition_type 0x231-0x231.7 (1)
0x230|      01                                       |  .             |      [17]: 1 transition_type 0x232-0x232.7 (1)
0x230|         02                                    |   .            |      [18]: 2 transition_type 0x233-0x233.7 (1)
0x230|            01                                 |    .           |      [19]: 1 transition_type 0x234-0x234.7 (1)
0x230|               02                              |     .          |      [20]: 2 transition_type 0x235-0x235.7 (1)
0x230|                  01                           |      .         |      [21]: 1 transition_type 0x236-0x236.7 (1)
0x230|                     02                        |       .        |      [22]: 2 transition_type 0x237-0x237.7 (1)
0x230|                        01                     |        .       |      [23]: 1 transition_type 0x238-0x238.7 (1)
0x230|                           02                  |         .      |      [24]: 2 transition_type 0x239-0x239.7 (1)
0x230|                              03               |          .     |      [25]: 3 transition_type 0x23a-0x23a.7 (1)
0x230|                                 02            |           .    |      [26]: 2 transition_type 0x23b-0x23b.7 (1)
0x230|                                    01         |            .   |      [27]: 1 transition_type 0x23c-0x23c.7 (1)
0x230|                                       03      |             .  |      [28]: 3 transition_type 0x23d-0x23d.7 (1)
0x230|                                          02   |              . |      [29]: 2 transition_type 0x23e-0x23e.7 (1)
0x230|                                             01|               .|      [30]: 1 transition_type 0x23f-0x23f.7 (1)
0x240|03                                             |.               |      [31]: 3 transition_type 0x240-0x240.7 (1)
     |                                               |                |    local_time_type_records[0:4]: 0x241-0x258.7 (24)
     |                                               |                |      [0]{}: local_time_type 0x241-0x246.7 (6)
0x240|   00 00 0c 5c                                 | ...\           |        utoff: 3164 (valid) 0x241-0x244.7 (4)
0x240|               00                              |     .          |        dst: 0 (valid) 0x245-0x245.7 (1)
0x240|                  00                           |      .         |        idx: 0 (valid) 0x246-0x246.7 (1)
     |                                               |                |      [1]{}: local_time_type 0x247-0x24c.7 (6)
0x240|                     00 00 1c 20               |       ...      |        utoff: 7200 (valid) 0x247-0x24a.7 (4)
0x240|                                 01            |           .    |        dst: 1 (valid) 0x24b-0x24b.7 (1)
0x240|                                    04         |            .   |        idx: 4 (valid) 0x24c-0x24c.7 (1)
     |                                               |                |      [2]{}: local_time_type 0x24d-0x252.7 (6)
0x240|                                       00 00 0e|             ...|        utoff: 3600 (valid) 0x24d-0x250.7 (4)
0x250|10                                             |.               |
0x250|   00                                          | .              |        dst: 0 (valid) 0x251-0x251.7 (1)
0x250|      09                                       |  .             |        idx: 9 (valid) 0x252-0x252.7 (1)
     |                                               |                |      [3]{}: local_time_type 0x253-0x258.7 (6)
0x250|         00 00 1c 20                           |   ...          |        utoff: 7200 (valid) 0x253-0x256.7 (4)
0x250|                     00                        |       .        |        dst: 0 (valid) 0x257-0x257.7 (1)
0x250|                        0d                     |        .       |        idx: 13 (valid) 0x258-0x258.7 (1)
     |                                               |                |    time_zone_designations[0:4]: 0x259-0x269.7 (17)
0x250|                           4c 4d 54 00         |         LMT.   |      [0]: "LMT" time_zone_designation 0x259-0x25c.7 (4)
0x250|                                       43 45 53|             CES|      [1]: "CEST" time_zone_designation 0x25d-0x261.7 (5)
0x260|54 00                                          |T.              |
0x260|      43 45 54 00                              |  CET.          |      [2]: "CET" time_zone_designation 0x262-0x265.7 (4)
0x260|                  45 45 54 00                  |      EET.      |      [3]: "EET" time_zone_designation 0x266-0x269.7 (4)
     |                                               |                |    leap_second_records[0:0]: 0x26a-NA (0)
     |                                               |                |    standard_wall_indicators[0:0]: 0x26a-NA (0)
     |                                               |                |    ut_local_indicators[0:0]: 0x26a-NA (0)
     |                                               |                |  footer{}: 0x26a-0x270.7 (7)
0x260|                              0a               |          .     |    nl1: 10 (valid) 0x26a-0x26a.7 (1)
0x260|                                 45 45 54 2d 32|           EET-2|    tz_string: "EET-2" 0x26b-0x26f.7 (5)
0x270|0a|                                            |.|              |    nl2: 10 (valid) 0x270-0x270.7 (1)
