$ fq -d tzif dv Troll
     |00 01 02 03 04 05 06 07 08 09 0a 0b 0c 0d 0e 0f|0123456789abcdef|.{}: Troll (tzif) 0x0-0x4f0 (1264)
     |                                               |                |  v1header{}: 0x0-0x2c (44)
0x000|54 5a 69 66                                    |TZif            |    magic: 0x545a6966 (valid) 0x0-0x4 (4)
0x000|            32                                 |    2           |    ver: "2" (0x32) (valid) 0x4-0x5 (1)
0x000|               00 00 00 00 00 00 00 00 00 00 00|     ...........|    reserved: raw bits 0x5-0x14 (15)
0x010|00 00 00 00                                    |....            |
0x010|            00 00 00 04                        |    ....        |    isutcnt: 4 0x14-0x18 (4)
0x010|                        00 00 00 04            |        ....    |    isstdcnt: 4 0x18-0x1c (4)
0x010|                                    00 00 00 1b|            ....|    leapcnt: 27 0x1c-0x20 (4)
0x020|00 00 00 27                                    |...'            |    timecnt: 39 0x20-0x24 (4)
0x020|            00 00 00 04                        |    ....        |    typecnt: 4 0x24-0x28 (4)
0x020|                        00 00 00 0c            |        ....    |    charcnt: 12 0x28-0x2c (4)
     |                                               |                |  v1datablock{}: 0x2c-0x1f3 (455)
     |                                               |                |    transition_times[0:39]: 0x2c-0xc8 (156)
0x020|                                    42 0d 47 16|            B.G.|      [0]: "2005-02-12T00:00:22Z" (1108166422) transition_time 0x2c-0x30 (4)
0x030|42 46 05 a6                                    |BF..            |      [1]: "2005-03-27T01:00:22Z" (1111885222) transition_time 0x30-0x34 (4)
0x030|            43 64 1b 26                        |    Cd.&        |      [2]: "2005-10-30T01:00:22Z" (1130634022) transition_time 0x34-0x38 (4)
0x030|                        44 25 e7 a7            |        D%..    |      [3]: "2006-03-26T01:00:23Z" (1143334823) transition_time 0x38-0x3c (4)
0x030|                                    45 43 fd 27|            EC.'|      [4]: "2006-10-29T01:00:23Z" (1162083623) transition_time 0x3c-0x40 (4)
0x040|46 05 c9 a7                                    |F...            |      [5]: "2007-03-25T01:00:23Z" (1174784423) transition_time 0x40-0x44 (4)
0x040|            47 23 df 27                        |    G#.'        |      [6]: "2007-10-28T01:00:23Z" (1193533223) transition_time 0x44-0x48 (4)
0x040|                        47 ee e6 27            |        G..'    |      [7]: "2008-03-30T01:00:23Z" (1206838823) transition_time 0x48-0x4c (4)
0x040|                                    49 03 c1 27|            I..'|      [8]: "2008-10-26T01:00:23Z" (1224982823) transition_time 0x4c-0x50 (4)
0x050|49 ce c8 28                                    |I..(            |      [9]: "2009-03-29T01:00:24Z" (1238288424) transition_time 0x50-0x54 (4)
0x050|            4a e3 a3 28                        |    J..(        |      [10]: "2009-10-25T01:00:24Z" (1256432424) transition_time 0x54-0x58 (4)
0x050|                        4b ae aa 28            |        K..(    |      [11]: "2010-03-28T01:00:24Z" (1269738024) transition_time 0x58-0x5c (4)
0x050|                                    4c cc bf a8|            L...|      [12]: "2010-10-31T01:00:24Z" (1288486824) transition_time 0x5c-0x60 (4)
0x060|4d 8e 8c 28                                    |M..(            |      [13]: "2011-03-27T01:00:24Z" (1301187624) transition_time 0x60-0x64 (4)
0x060|            4e ac a1 a8                        |    N...        |      [14]: "2011-10-30T01:00:24Z" (1319936424) transition_time 0x64-0x68 (4)
0x060|                        4f 6e 6e 28            |        Onn(    |      [15]: "2012-03-25T01:00:24Z" (1332637224) transition_time 0x68-0x6c (4)
0x060|                                    50 8c 83 a9|            P...|      [16]: "2012-10-28T01:00:25Z" (1351386025) transition_time 0x6c-0x70 (4)
0x070|51 57 8a a9                                    |QW..            |      [17]: "2013-03-31T01:00:25Z" (1364691625) transition_time 0x70-0x74 (4)
0x070|            52 6c 65 a9                        |    Rle.        |      [18]: "2013-10-27T01:00:25Z" (1382835625) transition_time 0x74-0x78 (4)
0x070|                        53 37 6c a9            |        S7l.    |      [19]: "2014-03-30T01:00:25Z" (1396141225) transition_time 0x78-0x7c (4)
0x070|                                    54 4c 47 a9|            TLG.|      [20]: "2014-10-26T01:00:25Z" (1414285225) transition_time 0x7c-0x80 (4)
0x080|55 17 4e a9                                    |U.N.            |      [21]: "2015-03-29T01:00:25Z" (1427590825) transition_time 0x80-0x84 (4)
0x080|            56 2c 29 aa                        |    V,).        |      [22]: "2015-10-25T01:00:26Z" (1445734826) transition_time 0x84-0x88 (4)
0x080|                        56 f7 30 aa            |        V.0.    |      [23]: "2016-03-27T01:00:26Z" (1459040426) transition_time 0x88-0x8c (4)
0x080|                                    58 15 46 2a|            X.F*|      [24]: "2016-10-30T01:00:26Z" (1477789226) transition_time 0x8c-0x90 (4)
0x090|58 d7 12 ab                                    |X...            |      [25]: "2017-03-26T01:00:27Z" (1490490027) transition_time 0x90-0x94 (4)
0x090|            59 f5 28 2b                        |    Y.(+        |      [26]: "2017-10-29T01:00:27Z" (1509238827) transition_time 0x94-0x98 (4)
0x090|                        5a b6 f4 ab            |        Z...    |      [27]: "2018-03-25T01:00:27Z" (1521939627) transition_time 0x98-0x9c (4)
0x090|                                    5b d5 0a 2b|            [..+|      [28]: "2018-10-28T01:00:27Z" (1540688427) transition_time 0x9c-0xa0 (4)
0x0a0|5c a0 11 2b                                    |\..+            |      [29]: "2019-03-31T01:00:27Z" (1553994027) transition_time 0xa0-0xa4 (4)
0x0a0|            5d b4 ec 2b                        |    ]..+        |      [30]: "2019-10-27T01:00:27Z" (1572138027) transition_time 0xa4-0xa8 (4)
0x0a0|                        5e 7f f3 2b            |        ^..+    |      [31]: "2020-03-29T01:00:27Z" (1585443627) transition_time 0xa8-0xac (4)
0x0a0|                                    5f 94 ce 2b|            _..+|      [32]: "2020-10-25T01:00:27Z" (1603587627) transition_time 0xac-0xb0 (4)
0x0b0|60 5f d5 2b                                    |`_.+            |      [33]: "2021-03-28T01:00:27Z" (1616893227) transition_time 0xb0-0xb4 (4)
0x0b0|            61 7d ea ab                        |    a}..        |      [34]: "2021-10-31T01:00:27Z" (1635642027) transition_time 0xb4-0xb8 (4)
0x0b0|                        62 3f b7 2b            |        b?.+    |      [35]: "2022-03-27T01:00:27Z" (1648342827) transition_time 0xb8-0xbc (4)
0x0b0|                                    63 5d cc ab|            c]..|      [36]: "2022-10-30T01:00:27Z" (1667091627) transition_time 0xbc-0xc0 (4)
0x0c0|64 1f 99 2b                                    |d..+            |      [37]: "2023-03-26T01:00:27Z" (1679792427) transition_time 0xc0-0xc4 (4)
0x0c0|            64 9b 78 1b                        |    d.x.        |      [38]: "2023-06-28T00:00:27Z" (1687910427) transition_time 0xc4-0xc8 (4)
     |                                               |                |    transition_types[0:39]: 0xc8-0xef (39)
0x0c0|                        03                     |        .       |      [0]: 3 transition_type 0xc8-0xc9 (1)
0x0c0|                           01                  |         .      |      [1]: 1 transition_type 0xc9-0xca (1)
0x0c0|                              02               |          .     |      [2]: 2 transition_type 0xca-0xcb (1)
0x0c0|                                 01            |           .    |      [3]: 1 transition_type 0xcb-0xcc (1)
0x0c0|                                    02         |            .   |      [4]: 2 transition_type 0xcc-0xcd (1)
0x0c0|                                       01      |             .  |      [5]: 1 transition_type 0xcd-0xce (1)
0x0c0|                                          02   |              . |      [6]: 2 transition_type 0xce-0xcf (1)
0x0c0|                                             01|               .|      [7]: 1 transition_type 0xcf-0xd0 (1)
0x0d0|02                                             |.               |      [8]: 2 transition_type 0xd0-0xd1 (1)
0x0d0|   01                                          | .              |      [9]: 1 transition_type 0xd1-0xd2 (1)
0x0d0|      02                                       |  .             |      [10]: 2 transition_type 0xd2-0xd3 (1)
0x0d0|         01                                    |   .            |      [11]: 1 transition_type 0xd3-0xd4 (1)
0x0d0|            02                                 |    .           |      [12]: 2 transition_type 0xd4-0xd5 (1)
0x0d0|               01                              |     .          |      [13]: 1 transition_type 0xd5-0xd6 (1)
0x0d0|                  02                           |      .         |      [14]: 2 transition_type 0xd6-0xd7 (1)
0x0d0|                     01                        |       .        |      [15]: 1 transition_type 0xd7-0xd8 (1)
0x0d0|                        02                     |        .       |      [16]: 2 transition_type 0xd8-0xd9 (1)
0x0d0|                           01                  |         .      |      [17]: 1 transition_type 0xd9-0xda (1)
0x0d0|                              02               |          .     |      [18]: 2 transition_type 0xda-0xdb (1)
0x0d0|                                 01            |           .    |      [19]: 1 transition_type 0xdb-0xdc (1)
0x0d0|                                    02         |            .   |      [20]: 2 transition_type 0xdc-0xdd (1)
0x0d0|                                       01      |             .  |      [21]: 1 transition_type 0xdd-0xde (1)
0x0d0|                                          02   |              . |      [22]: 2 transition_type 0xde-0xdf (1)
0x0d0|                                             01|               .|      [23]: 1 transition_type 0xdf-0xe0 (1)
0x0e0|02                                             |.               |      [24]: 2 transition_type 0xe0-0xe1 (1)
0x0e0|   01                                          | .              |      [25]: 1 transition_type 0xe1-0xe2 (1)
0x0e0|      02                                       |  .             |      [26]: 2 transition_type 0xe2-0xe3 (1)
0x0e0|         01                                    |   .            |      [27]: 1 transition_type 0xe3-0xe4 (1)
0x0e0|            02                                 |    .           |      [28]: 2 transition_type 0xe4-0xe5 (1)
0x0e0|               01                              |     .          |      [29]: 1 transition_type 0xe5-0xe6 (1)
0x0e0|                  02                           |      .         |      [30]: 2 transition_type 0xe6-0xe7 (1)
0x0e0|                     01                        |       .        |      [31]: 1 transition_type 0xe7-0xe8 (1)
0x0e0|                        02                     |        .       |      [32]: 2 transition_type 0xe8-0xe9 (1)
0x0e0|                           01                  |         .      |      [33]: 1 transition_type 0xe9-0xea (1)
0x0e0|                              02               |          .     |      [34]: 2 transition_type 0xea-0xeb (1)
0x0e0|                                 01            |           .    |      [35]: 1 transition_type 0xeb-0xec (1)
0x0e0|                                    02         |            .   |      [36]: 2 transition_type 0xec-0xed (1)
0x0e0|                                       01      |             .  |      [37]: 1 transition_type 0xed-0xee (1)
0x0e0|                                          01   |              . |      [38]: 1 transition_type 0xee-0xef (1)
     |                                               |                |    local_time_type_records[0:4]: 0xef-0x107 (24)
     |                                               |                |      [0]{}: local_time_type 0xef-0xf5 (6)
0x0e0|                                             00|               .|        utoff: 0 (valid) 0xef-0xf3 (4)
0x0f0|00 00 00                                       |...             |
0x0f0|         00                                    |   .            |        dst: 0 (valid) 0xf3-0xf4 (1)
0x0f0|            00                                 |    .           |        idx: 0 (valid) 0xf4-0xf5 (1)
     |                                               |                |      [1]{}: local_time_type 0xf5-0xfb (6)
0x0f0|               00 00 1c 20                     |     ...        |        utoff: 7200 (valid) 0xf5-0xf9 (4)
0x0f0|                           01                  |         .      |        dst: 1 (valid) 0xf9-0xfa (1)
0x0f0|                              04               |          .     |        idx: 4 (valid) 0xfa-0xfb (1)
     |                                               |                |      [2]{}: local_time_type 0xfb-0x101 (6)
0x0f0|                                 00 00 00 00   |           .... |        utoff: 0 (valid) 0xfb-0xff (4)
0x0f0|                                             00|               .|        dst: 0 (valid) 0xff-0x100 (1)
0x100|08                                             |.               |        idx: 8 (valid) 0x100-0x101 (1)
     |                                               |                |      [3]{}: local_time_type 0x101-0x107 (6)
0x100|   00 00 00 00                                 | ....           |        utoff: 0 (valid) 0x101-0x105 (4)
0x100|               00                              |     .          |        dst: 0 (valid) 0x105-0x106 (1)
0x100|                  08                           |      .         |        idx: 8 (valid) 0x106-0x107 (1)
     |                                               |                |    time_zone_designations[0:3]: 0x107-0x113 (12)
0x100|                     2d 30 30 00               |       -00.     |      [0]: "-00" time_zone_designation 0x107-0x10b (4)
0x100|                                 2b 30 32 00   |           +02. |      [1]: "+02" time_zone_designation 0x10b-0x10f (4)
0x100|                                             2b|               +|      [2]: "+00" time_zone_designation 0x10f-0x113 (4)
0x110|30 30 00                                       |00.             |
     |                                               |                |    leap_second_records[0:27]: 0x113-0x1eb (216)
     |                                               |                |      [0]{}: leap_second_record 0x113-0x11b (8)
0x110|         04 b2 58 00                           |   ..X.         |        occur: "1972-07-01T00:00:00Z" (78796800) 0x113-0x117 (4)
0x110|                     00 00 00 01               |       ....     |        corr: 1 0x117-0x11b (4)
     |                                               |                |      [1]{}: leap_second_record 0x11b-0x123 (8)
0x110|                                 05 a4 ec 01   |           .... |        occur: "1973-01-01T00:00:01Z" (94694401) 0x11b-0x11f (4)
0x110|                                             00|               .|        corr: 2 0x11f-0x123 (4)
0x120|00 00 02                                       |...             |
     |                                               |                |      [2]{}: leap_second_record 0x123-0x12b (8)
0x120|         07 86 1f 82                           |   ....         |        occur: "1974-01-01T00:00:02Z" (126230402) 0x123-0x127 (4)
0x120|                     00 00 00 03               |       ....     |        corr: 3 0x127-0x12b (4)
     |                                               |                |      [3]{}: leap_second_record 0x12b-0x133 (8)
0x120|                                 09 67 53 03   |           .gS. |        occur: "1975-01-01T00:00:03Z" (157766403) 0x12b-0x12f (4)
0x120|                                             00|               .|        corr: 4 0x12f-0x133 (4)
0x130|00 00 04                                       |...             |
     |                                               |                |      [4]{}: leap_second_record 0x133-0x13b (8)
0x130|         0b 48 86 84                           |   .H..         |        occur: "1976-01-01T00:00:04Z" (189302404) 0x133-0x137 (4)
0x130|                     00 00 00 05               |       ....     |        corr: 5 0x137-0x13b (4)
     |                                               |                |      [5]{}: leap_second_record 0x13b-0x143 (8)
0x130|                                 0d 2b 0b 85   |           .+.. |        occur: "1977-01-01T00:00:05Z" (220924805) 0x13b-0x13f (4)
0x130|                                             00|               .|        corr: 6 0x13f-0x143 (4)
0x140|00 00 06                                       |...             |
     |                                               |                |      [6]{}: leap_second_record 0x143-0x14b (8)
0x140|         0f 0c 3f 06                           |   ..?.         |        occur: "1978-01-01T00:00:06Z" (252460806) 0x143-0x147 (4)
0x140|                     00 00 00 07               |       ....     |        corr: 7 0x147-0x14b (4)
     |                                               |                |      [7]{}: leap_second_record 0x14b-0x153 (8)
0x140|                                 10 ed 72 87   |           ..r. |        occur: "1979-01-01T00:00:07Z" (283996807) 0x14b-0x14f (4)
0x140|                                             00|               .|        corr: 8 0x14f-0x153 (4)
0x150|00 00 08                                       |...             |
     |                                               |                |      [8]{}: leap_second_record 0x153-0x15b (8)
0x150|         12 ce a6 08                           |   ....         |        occur: "1980-01-01T00:00:08Z" (315532808) 0x153-0x157 (4)
0x150|                     00 00 00 09               |       ....     |        corr: 9 0x157-0x15b (4)
     |                                               |                |      [9]{}: leap_second_record 0x15b-0x163 (8)
0x150|                                 15 9f ca 89   |           .... |        occur: "1981-07-01T00:00:09Z" (362793609) 0x15b-0x15f (4)
0x150|                                             00|               .|        corr: 10 0x15f-0x163 (4)
0x160|00 00 0a                                       |...             |
     |                                               |                |      [10]{}: leap_second_record 0x163-0x16b (8)
0x160|         17 80 fe 0a                           |   ....         |        occur: "1982-07-01T00:00:10Z" (394329610) 0x163-0x167 (4)
0x160|                     00 00 00 0b               |       ....     |        corr: 11 0x167-0x16b (4)
     |                                               |                |      [11]{}: leap_second_record 0x16b-0x173 (8)
0x160|                                 19 62 31 8b   |           .b1. |        occur: "1983-07-01T00:00:11Z" (425865611) 0x16b-0x16f (4)
0x160|                                             00|               .|        corr: 12 0x16f-0x173 (4)
0x170|00 00 0c                                       |...             |
     |                                               |                |      [12]{}: leap_second_record 0x173-0x17b (8)
0x170|         1d 25 ea 0c                           |   .%..         |        occur: "1985-07-01T00:00:12Z" (489024012) 0x173-0x177 (4)
0x170|                     00 00 00 0d               |       ....     |        corr: 13 0x177-0x17b (4)
     |                                               |                |      [13]{}: leap_second_record 0x17b-0x183 (8)
0x170|                                 21 da e5 0d   |           !... |        occur: "1988-01-01T00:00:13Z" (567993613) 0x17b-0x17f (4)
0x170|                                             00|               .|        corr: 14 0x17f-0x183 (4)
0x180|00 00 0e                                       |...             |
     |                                               |                |      [14]{}: leap_second_record 0x183-0x18b (8)
0x180|         25 9e 9d 8e                           |   %...         |        occur: "1990-01-01T00:00:14Z" (631152014) 0x183-0x187 (4)
0x180|                     00 00 00 0f               |       ....     |        corr: 15 0x187-0x18b (4)
     |                                               |                |      [15]{}: leap_second_record 0x18b-0x193 (8)
0x180|                                 27 7f d1 0f   |           '... |        occur: "1991-01-01T00:00:15Z" (662688015) 0x18b-0x18f (4)
0x180|                                             00|               .|        corr: 16 0x18f-0x193 (4)
0x190|00 00 10                                       |...             |
     |                                               |                |      [16]{}: leap_second_record 0x193-0x19b (8)
0x190|         2a 50 f5 90                           |   *P..         |        occur: "1992-07-01T00:00:16Z" (709948816) 0x193-0x197 (4)
0x190|                     00 00 00 11               |       ....     |        corr: 17 0x197-0x19b (4)
     |                                               |                |      [17]{}: leap_second_record 0x19b-0x1a3 (8)
0x190|                                 2c 32 29 11   |           ,2). |        occur: "1993-07-01T00:00:17Z" (741484817) 0x19b-0x19f (4)
0x190|                                             00|               .|        corr: 18 0x19f-0x1a3 (4)
0x1a0|00 00 12                                       |...             |
     |                                               |                |      [18]{}: leap_second_record 0x1a3-0x1ab (8)
0x1a0|         2e 13 5c 92                           |   ..\.         |        occur: "1994-07-01T00:00:18Z" (773020818) 0x1a3-0x1a7 (4)
0x1a0|                     00 00 00 13               |       ....     |        corr: 19 0x1a7-0x1ab (4)
     |                                               |                |      [19]{}: leap_second_record 0x1ab-0x1b3 (8)
0x1a0|                                 30 e7 24 13   |           0.$. |        occur: "1996-01-01T00:00:19Z" (820454419) 0x1ab-0x1af (4)
0x1a0|                                             00|               .|        corr: 20 0x1af-0x1b3 (4)
0x1b0|00 00 14                                       |...             |
     |                                               |                |      [20]{}: leap_second_record 0x1b3-0x1bb (8)
0x1b0|         33 b8 48 94                           |   3.H.         |        occur: "1997-07-01T00:00:20Z" (867715220) 0x1b3-0x1b7 (4)
0x1b0|                     00 00 00 15               |       ....     |        corr: 21 0x1b7-0x1bb (4)
     |                                               |                |      [21]{}: leap_second_record 0x1bb-0x1c3 (8)
0x1b0|                                 36 8c 10 15   |           6... |        occur: "1999-01-01T00:00:21Z" (915148821) 0x1bb-0x1bf (4)
0x1b0|                                             00|               .|        corr: 22 0x1bf-0x1c3 (4)
0x1c0|00 00 16                                       |...             |
     |                                               |                |      [22]{}: leap_second_record 0x1c3-0x1cb (8)
0x1c0|         43 b7 1b 96                           |   C...         |        occur: "2006-01-01T00:00:22Z" (1136073622) 0x1c3-0x1c7 (4)
0x1c0|                     00 00 00 17               |       ....     |        corr: 23 0x1c7-0x1cb (4)
     |                                               |                |      [23]{}: leap_second_record 0x1cb-0x1d3 (8)
0x1c0|                                 49 5c 07 97   |           I\.. |        occur: "2009-01-01T00:00:23Z" (1230768023) 0x1cb-0x1cf (4)
0x1c0|                                             00|               .|        corr: 24 0x1cf-0x1d3 (4)
0x1d0|00 00 18                                       |...             |
     |                                               |                |      [24]{}: leap_second_record 0x1d3-0x1db (8)
0x1d0|         4f ef 93 18                           |   O...         |        occur: "2012-07-01T00:00:24Z" (1341100824) 0x1d3-0x1d7 (4)
0x1d0|                     00 00 00 19               |       ....     |        corr: 25 0x1d7-0x1db (4)
     |                                               |                |      [25]{}: leap_second_record 0x1db-0x1e3 (8)
0x1d0|                                 55 93 2d 99   |           U.-. |        occur: "2015-07-01T00:00:25Z" (1435708825) 0x1db-0x1df (4)
0x1d0|                                             00|               .|        corr: 26 0x1df-0x1e3 (4)
0x1e0|00 00 1a                                       |...             |
     |                                               |                |      [26]{}: leap_second_record 0x1e3-0x1eb (8)
0x1e0|         58 68 46 9a                           |   XhF.         |        occur: "2017-01-01T00:00:26Z" (1483228826) 0x1e3-0x1e7 (4)
0x1e0|                     00 00 00 1b               |       ....     |        corr: 27 0x1e7-0x1eb (4)
     |                                               |                |    standard_wall_indicators[0:4]: 0x1eb-0x1ef (4)
0x1e0|                                 00            |           .    |      [0]: 0 standard_wall_indicator (valid) 0x1eb-0x1ec (1)
0x1e0|                                    01         |            .   |      [1]: 1 standard_wall_indicator (valid) 0x1ec-0x1ed (1)
0x1e0|                                       01      |             .  |      [2]: 1 standard_wall_indicator (valid) 0x1ed-0x1ee (1)
0x1e0|                                          00   |              . |      [3]: 0 standard_wall_indicator (valid) 0x1ee-0x1ef (1)
     |                                               |                |    ut_local_indicators[0:4]: 0x1ef-0x1f3 (4)
0x1e0|                                             00|               .|      [0]: 0 ut_local_indicator (valid) 0x1ef-0x1f0 (1)
0x1f0|01                                             |.               |      [1]: 1 ut_local_indicator (valid) 0x1f0-0x1f1 (1)
0x1f0|   01                                          | .              |      [2]: 1 ut_local_indicator (valid) 0x1f1-0x1f2 (1)
0x1f0|      00                                       |  .             |      [3]: 0 ut_local_indicator (valid) 0x1f2-0x1f3 (1)
     |                                               |                |  v2plusheader{}: 0x1f3-0x21f (44)
0x1f0|         54 5a 69 66                           |   TZif         |    magic: 0x545a6966 (valid) 0x1f3-0x1f7 (4)
0x1f0|                     32                        |       2        |    ver: "2" (0x32) (valid) 0x1f7-0x1f8 (1)
0x1f0|                        00 00 00 00 00 00 00 00|        ........|    reserved: raw bits 0x1f8-0x207 (15)
0x200|00 00 00 00 00 00 00                           |.......         |
0x200|                     00 00 00 04               |       ....     |    isutcnt: 4 0x207-0x20b (4)
0x200|                                 00 00 00 04   |           .... |    isstdcnt: 4 0x20b-0x20f (4)
0x200|                                             00|               .|    leapcnt: 27 0x20f-0x213 (4)
0x210|00 00 1b                                       |...             |
0x210|         00 00 00 27                           |   ...'         |    timecnt: 39 0x213-0x217 (4)
0x210|                     00 00 00 04               |       ....     |    typecnt: 4 0x217-0x21b (4)
0x210|                                 00 00 00 0c   |           .... |    charcnt: 12 0x21b-0x21f (4)
     |                                               |                |  v2plusdatablock{}: 0x21f-0x4ee (719)
     |                                               |                |    transition_times[0:39]: 0x21f-0x357 (312)
0x210|                                             00|               .|      [0]: "2005-02-12T00:00:22Z" (1108166422) transition_time 0x21f-0x227 (8)
0x220|00 00 00 42 0d 47 16                           |...B.G.         |
0x220|                     00 00 00 00 42 46 05 a6   |       ....BF.. |      [1]: "2005-03-27T01:00:22Z" (1111885222) transition_time 0x227-0x22f (8)
0x220|                                             00|               .|      [2]: "2005-10-30T01:00:22Z" (1130634022) transition_time 0x22f-0x237 (8)
0x230|00 00 00 43 64 1b 26                           |...Cd.&         |
0x230|                     00 00 00 00 44 25 e7 a7   |       ....D%.. |      [3]: "2006-03-26T01:00:23Z" (1143334823) transition_time 0x237-0x23f (8)
0x230|                                             00|               .|      [4]: "2006-10-29T01:00:23Z" (1162083623) transition_time 0x23f-0x247 (8)
0x240|00 00 00 45 43 fd 27                           |...EC.'         |
0x240|                     00 00 00 00 46 05 c9 a7   |       ....F... |      [5]: "2007-03-25T01:00:23Z" (1174784423) transition_time 0x247-0x24f (8)
0x240|                                             00|               .|      [6]: "2007-10-28T01:00:23Z" (1193533223) transition_time 0x24f-0x257 (8)
0x250|00 00 00 47 23 df 27                           |...G#.'         |
0x250|                     00 00 00 00 47 ee e6 27   |       ....G..' |      [7]: "2008-03-30T01:00:23Z" (1206838823) transition_time 0x257-0x25f (8)
0x250|                                             00|               .|      [8]: "2008-10-26T01:00:23Z" (1224982823) transition_time 0x25f-0x267 (8)
0x260|00 00 00 49 03 c1 27                           |...I..'         |
0x260|                     00 00 00 00 49 ce c8 28   |       ....I..( |      [9]: "2009-03-29T01:00:24Z" (1238288424) transition_time 0x267-0x26f (8)
0x260|                                             00|               .|      [10]: "2009-10-25T01:00:24Z" (1256432424) transition_time 0x26f-0x277 (8)
0x270|00 00 00 4a e3 a3 28                           |...J..(         |
0x270|                     00 00 00 00 4b ae aa 28   |       ....K..( |      [11]: "2010-03-28T01:00:24Z" (1269738024) transition_time 0x277-0x27f (8)
0x270|                                             00|               .|      [12]: "2010-10-31T01:00:24Z" (1288486824) transition_time 0x27f-0x287 (8)
0x280|00 00 00 4c cc bf a8                           |...L...         |
0x280|                     00 00 00 00 4d 8e 8c 28   |       ....M..( |      [13]: "2011-03-27T01:00:24Z" (1301187624) transition_time 0x287-0x28f (8)
0x280|                                             00|               .|      [14]: "2011-10-30T01:00:24Z" (1319936424) transition_time 0x28f-0x297 (8)
0x290|00 00 00 4e ac a1 a8                           |...N...         |
0x290|                     00 00 00 00 4f 6e 6e 28   |       ....Onn( |      [15]: "2012-03-25T01:00:24Z" (1332637224) transition_time 0x297-0x29f (8)
0x290|                                             00|               .|      [16]: "2012-10-28T01:00:25Z" (1351386025) transition_time 0x29f-0x2a7 (8)
0x2a0|00 00 00 50 8c 83 a9                           |...P...         |
0x2a0|                     00 00 00 00 51 57 8a a9   |       ....QW.. |      [17]: "2013-03-31T01:00:25Z" (1364691625) transition_time 0x2a7-0x2af (8)
0x2a0|                                             00|               .|      [18]: "2013-10-27T01:00:25Z" (1382835625) transition_time 0x2af-0x2b7 (8)
0x2b0|00 00 00 52 6c 65 a9                           |...Rle.         |
0x2b0|                     00 00 00 00 53 37 6c a9   |       ....S7l. |      [19]: "2014-03-30T01:00:25Z" (1396141225) transition_time 0x2b7-0x2bf (8)
0x2b0|                                             00|               .|      [20]: "2014-10-26T01:00:25Z" (1414285225) transition_time 0x2bf-0x2c7 (8)
0x2c0|00 00 00 54 4c 47 a9                           |...TLG.         |
0x2c0|                     00 00 00 00 55 17 4e a9   |       ....U.N. |      [21]: "2015-03-29T01:00:25Z" (1427590825) transition_time 0x2c7-0x2cf (8)
0x2c0|                                             00|               .|      [22]: "2015-10-25T01:00:26Z" (1445734826) transition_time 0x2cf-0x2d7 (8)
0x2d0|00 00 00 56 2c 29 aa                           |...V,).         |
0x2d0|                     00 00 00 00 56 f7 30 aa   |       ....V.0. |      [23]: "2016-03-27T01:00:26Z" (1459040426) transition_time 0x2d7-0x2df (8)
0x2d0|                                             00|               .|      [24]: "2016-10-30T01:00:26Z" (1477789226) transition_time 0x2df-0x2e7 (8)
0x2e0|00 00 00 58 15 46 2a                           |...X.F*         |
0x2e0|                     00 00 00 00 58 d7 12 ab   |       ....X... |      [25]: "2017-03-26T01:00:27Z" (1490490027) transition_time 0x2e7-0x2ef (8)
0x2e0|                                             00|               .|      [26]: "2017-10-29T01:00:27Z" (1509238827) transition_time 0x2ef-0x2f7 (8)
0x2f0|00 00 00 59 f5 28 2b                           |...Y.(+         |
0x2f0|                     00 00 00 00 5a b6 f4 ab   |       ....Z... |      [27]: "2018-03-25T01:00:27Z" (1521939627) transition_time 0x2f7-0x2ff (8)
0x2f0|                                             00|               .|      [28]: "2018-10-28T01:00:27Z" (1540688427) transition_time 0x2ff-0x307 (8)
0x300|00 00 00 5b d5 0a 2b                           |...[..+         |
0x300|                     00 00 00 00 5c a0 11 2b   |       ....\..+ |      [29]: "2019-03-31T01:00:27Z" (1553994027) transition_time 0x307-0x30f (8)
0x300|                                             00|               .|      [30]: "2019-10-27T01:00:27Z" (1572138027) transition_time 0x30f-0x317 (8)
0x310|00 00 00 5d b4 ec 2b                           |...]..+         |
0x310|                     00 00 00 00 5e 7f f3 2b   |       ....^..+ |      [31]: "2020-03-29T01:00:27Z" (1585443627) transition_time 0x317-0x31f (8)
0x310|                                             00|               .|      [32]: "2020-10-25T01:00:27Z" (1603587627) transition_time 0x31f-0x327 (8)
0x320|00 00 00 5f 94 ce 2b                           |..._..+         |
0x320|                     00 00 00 00 60 5f d5 2b   |       ....`_.+ |      [33]: "2021-03-28T01:00:27Z" (1616893227) transition_time 0x327-0x32f (8)
0x320|                                             00|               .|      [34]: "2021-10-31T01:00:27Z" (1635642027) transition_time 0x32f-0x337 (8)
0x330|00 00 00 61 7d ea ab                           |...a}..         |
0x330|                     00 00 00 00 62 3f b7 2b   |       ....b?.+ |      [35]: "2022-03-27T01:00:27Z" (1648342827) transition_time 0x337-0x33f (8)
0x330|                                             00|               .|      [36]: "2022-10-30T01:00:27Z" (1667091627) transition_time 0x33f-0x347 (8)
0x340|00 00 00 63 5d cc ab                           |...c]..         |
0x340|                     00 00 00 00 64 1f 99 2b   |       ....d..+ |      [37]: "2023-03-26T01:00:27Z" (1679792427) transition_time 0x347-0x34f (8)
0x340|                                             00|               .|      [38]: "2023-06-28T00:00:27Z" (1687910427) transition_time 0x34f-0x357 (8)
0x350|00 00 00 64 9b 78 1b                           |...d.x.         |
     |                                               |                |    transition_types[0:39]: 0x357-0x37e (39)
0x350|                     03                        |       .        |      [0]: 3 transition_type 0x357-0x358 (1)
0x350|                        01                     |        .       |      [1]: 1 transition_type 0x358-0x359 (1)
0x350|                           02                  |         .      |      [2]: 2 transition_type 0x359-0x35a (1)
0x350|                              01               |          .     |      [3]: 1 transition_type 0x35a-0x35b (1)
0x350|                                 02            |           .    |      [4]: 2 transition_type 0x35b-0x35c (1)
0x350|                                    01         |            .   |      [5]: 1 transition_type 0x35c-0x35d (1)
0x350|                                       02      |             .  |      [6]: 2 transition_type 0x35d-0x35e (1)
0x350|                                          01   |              . |      [7]: 1 transition_type 0x35e-0x35f (1)
0x350|                                             02|               .|      [8]: 2 transition_type 0x35f-0x360 (1)
0x360|01                                             |.               |      [9]: 1 transition_type 0x360-0x361 (1)
0x360|   02                                          | .              |      [10]: 2 transition_type 0x361-0x362 (1)
0x360|      01                                       |  .             |      [11]: 1 transition_type 0x362-0x363 (1)
0x360|         02                                    |   .            |      [12]: 2 transition_type 0x363-0x364 (1)
0x360|            01                                 |    .           |      [13]: 1 transition_type 0x364-0x365 (1)
0x360|               02                              |     .          |      [14]: 2 transition_type 0x365-0x366 (1)
0x360|                  01                           |      .         |      [15]: 1 transition_type 0x366-0x367 (1)
0x360|                     02                        |       .        |      [16]: 2 transition_type 0x367-0x368 (1)
0x360|                        01                     |        .       |      [17]: 1 transition_type 0x368-0x369 (1)
0x360|                           02                  |         .      |      [18]: 2 transition_type 0x369-0x36a (1)
0x360|                              01               |          .     |      [19]: 1 transition_type 0x36a-0x36b (1)
0x360|                                 02            |           .    |      [20]: 2 transition_type 0x36b-0x36c (1)
0x360|                                    01         |            .   |      [21]: 1 transition_type 0x36c-0x36d (1)
0x360|                                       02      |             .  |      [22]: 2 transition_type 0x36d-0x36e (1)
0x360|                                          01   |              . |      [23]: 1 transition_type 0x36e-0x36f (1)
0x360|                                             02|               .|      [24]: 2 transition_type 0x36f-0x370 (1)
0x370|01                                             |.               |      [25]: 1 transition_type 0x370-0x371 (1)
0x370|   02                                          | .              |      [26]: 2 transition_type 0x371-0x372 (1)
0x370|      01                                       |  .             |      [27]: 1 transition_type 0x372-0x373 (1)
0x370|         02                                    |   .            |      [28]: 2 transition_type 0x373-0x374 (1)
0x370|            01                                 |    .           |      [29]: 1 transition_type 0x374-0x375 (1)
0x370|               02                              |     .          |      [30]: 2 transition_type 0x375-0x376 (1)
0x370|                  01                           |      .         |      [31]: 1 transition_type 0x376-0x377 (1)
0x370|                     02                        |       .        |      [32]: 2 transition_type 0x377-0x378 (1)
0x370|                        01                     |        .       |      [33]: 1 transition_type 0x378-0x379 (1)
0x370|                           02                  |         .      |      [34]: 2 transition_type 0x379-0x37a (1)
0x370|                              01               |          .     |      [35]: 1 transition_type 0x37a-0x37b (1)
0x370|                                 02            |           .    |      [36]: 2 transition_type 0x37b-0x37c (1)
0x370|                                    01         |            .   |      [37]: 1 transition_type 0x37c-0x37d (1)
0x370|                                       01      |             .  |      [38]: 1 transition_type 0x37d-0x37e (1)
     |                                               |                |    local_time_type_records[0:4]: 0x37e-0x396 (24)
     |                                               |                |      [0]{}: local_time_type 0x37e-0x384 (6)
0x370|                                          00 00|              ..|        utoff: 0 (valid) 0x37e-0x382 (4)
0x380|00 00                                          |..              |
0x380|      00                                       |  .             |        dst: 0 (valid) 0x382-0x383 (1)
0x380|         00                                    |   .            |        idx: 0 (valid) 0x383-0x384 (1)
     |                                               |                |      [1]{}: local_time_type 0x384-0x38a (6)
0x380|            00 00 1c 20                        |    ...         |        utoff: 7200 (valid) 0x384-0x388 (4)
0x380|                        01                     |        .       |        dst: 1 (valid) 0x388-0x389 (1)
0x380|                           04                  |         .      |        idx: 4 (valid) 0x389-0x38a (1)
     |                                               |                |      [2]{}: local_time_type 0x38a-0x390 (6)
0x380|                              00 00 00 00      |          ....  |        utoff: 0 (valid) 0x38a-0x38e (4)
0x380|                                          00   |              . |        dst: 0 (valid) 0x38e-0x38f (1)
0x380|                                             08|               .|        idx: 8 (valid) 0x38f-0x390 (1)
     |                                               |                |      [3]{}: local_time_type 0x390-0x396 (6)
0x390|00 00 00 00                                    |....            |        utoff: 0 (valid) 0x390-0x394 (4)
0x390|            00                                 |    .           |        dst: 0 (valid) 0x394-0x395 (1)
0x390|               08                              |     .          |        idx: 8 (valid) 0x395-0x396 (1)
     |                                               |                |    time_zone_designations[0:3]: 0x396-0x3a2 (12)
0x390|                  2d 30 30 00                  |      -00.      |      [0]: "-00" time_zone_designation 0x396-0x39a (4)
0x390|                              2b 30 32 00      |          +02.  |      [1]: "+02" time_zone_designation 0x39a-0x39e (4)
0x390|                                          2b 30|              +0|      [2]: "+00" time_zone_designation 0x39e-0x3a2 (4)
0x3a0|30 00                                          |0.              |
     |                                               |                |    leap_second_records[0:27]: 0x3a2-0x4e6 (324)
     |                                               |                |      [0]{}: leap_second_record 0x3a2-0x3ae (12)
0x3a0|      00 00 00 00 04 b2 58 00                  |  ......X.      |        occur: "1972-07-01T00:00:00Z" (78796800) 0x3a2-0x3aa (8)
0x3a0|                              00 00 00 01      |          ....  |        corr: 1 0x3aa-0x3ae (4)
     |                                               |                |      [1]{}: leap_second_record 0x3ae-0x3ba (12)
0x3a0|                                          00 00|              ..|        occur: "1973-01-01T00:00:01Z" (94694401) 0x3ae-0x3b6 (8)
0x3b0|00 00 05 a4 ec 01                              |......          |
0x3b0|                  00 00 00 02                  |      ....      |        corr: 2 0x3b6-0x3ba (4)
     |                                               |                |      [2]{}: leap_second_record 0x3ba-0x3c6 (12)
0x3b0|                              00 00 00 00 07 86|          ......|        occur: "1974-01-01T00:00:02Z" (126230402) 0x3ba-0x3c2 (8)
0x3c0|1f 82                                          |..              |
0x3c0|      00 00 00 03                              |  ....          |        corr: 3 0x3c2-0x3c6 (4)
     |                                               |                |      [3]{}: leap_second_record 0x3c6-0x3d2 (12)
0x3c0|                  00 00 00 00 09 67 53 03      |      .....gS.  |        occur: "1975-01-01T00:00:03Z" (157766403) 0x3c6-0x3ce (8)
0x3c0|                                          00 00|              ..|        corr: 4 0x3ce-0x3d2 (4)
0x3d0|00 04                                          |..              |
     |                                               |                |      [4]{}: leap_second_record 0x3d2-0x3de (12)
0x3d0|      00 00 00 00 0b 48 86 84                  |  .....H..      |        occur: "1976-01-01T00:00:04Z" (189302404) 0x3d2-0x3da (8)
0x3d0|                              00 00 00 05      |          ....  |        corr: 5 0x3da-0x3de (4)
     |                                               |                |      [5]{}: leap_second_record 0x3de-0x3ea (12)
0x3d0|                                          00 00|              ..|        occur: "1977-01-01T00:00:05Z" (220924805) 0x3de-0x3e6 (8)
0x3e0|00 00 0d 2b 0b 85                              |...+..          |
0x3e0|                  00 00 00 06                  |      ....      |        corr: 6 0x3e6-0x3ea (4)
     |                                               |                |      [6]{}: leap_second_record 0x3ea-0x3f6 (12)
0x3e0|                              00 00 00 00 0f 0c|          ......|        occur: "1978-01-01T00:00:06Z" (252460806) 0x3ea-0x3f2 (8)
0x3f0|3f 06                                          |?.              |
0x3f0|      00 00 00 07                              |  ....          |        corr: 7 0x3f2-0x3f6 (4)
     |                                               |                |      [7]{}: leap_second_record 0x3f6-0x402 (12)
0x3f0|                  00 00 00 00 10 ed 72 87      |      ......r.  |        occur: "1979-01-01T00:00:07Z" (283996807) 0x3f6-0x3fe (8)
0x3f0|                                          00 00|              ..|        corr: 8 0x3fe-0x402 (4)
0x400|00 08                                          |..              |
     |                                               |                |      [8]{}: leap_second_record 0x402-0x40e (12)
0x400|      00 00 00 00 12 ce a6 08                  |  ........      |        occur: "1980-01-01T00:00:08Z" (315532808) 0x402-0x40a (8)
0x400|                              00 00 00 09      |          ....  |        corr: 9 0x40a-0x40e (4)
     |                                               |                |      [9]{}: leap_second_record 0x40e-0x41a (12)
0x400|                                          00 00|              ..|        occur: "1981-07-01T00:00:09Z" (362793609) 0x40e-0x416 (8)
0x410|00 00 15 9f ca 89                              |......          |
0x410|                  00 00 00 0a                  |      ....      |        corr: 10 0x416-0x41a (4)
     |                                               |                |      [10]{}: leap_second_record 0x41a-0x426 (12)
0x410|                              00 00 00 00 17 80|          ......|        occur: "1982-07-01T00:00:10Z" (394329610) 0x41a-0x422 (8)
0x420|fe 0a                                          |..              |
0x420|      00 00 00 0b                              |  ....          |        corr: 11 0x422-0x426 (4)
     |                                               |                |      [11]{}: leap_second_record 0x426-0x432 (12)
0x420|                  00 00 00 00 19 62 31 8b      |      .....b1.  |        occur: "1983-07-01T00:00:11Z" (425865611) 0x426-0x42e (8)
0x420|                                          00 00|              ..|        corr: 12 0x42e-0x432 (4)
0x430|00 0c                                          |..              |
     |                                               |                |      [12]{}: leap_second_record 0x432-0x43e (12)
0x430|      00 00 00 00 1d 25 ea 0c                  |  .....%..      |        occur: "1985-07-01T00:00:12Z" (489024012) 0x432-0x43a (8)
0x430|                              00 00 00 0d      |          ....  |        corr: 13 0x43a-0x43e (4)
     |                                               |                |      [13]{}: leap_second_record 0x43e-0x44a (12)
0x430|                                          00 00|              ..|        occur: "1988-01-01T00:00:13Z" (567993613) 0x43e-0x446 (8)
0x440|00 00 21 da e5 0d                              |..!...          |
0x440|                  00 00 00 0e                  |      ....      |        corr: 14 0x446-0x44a (4)
     |                                               |                |      [14]{}: leap_second_record 0x44a-0x456 (12)
0x440|                              00 00 00 00 25 9e|          ....%.|        occur: "1990-01-01T00:00:14Z" (631152014) 0x44a-0x452 (8)
0x450|9d 8e                                          |..              |
0x450|      00 00 00 0f                              |  ....          |        corr: 15 0x452-0x456 (4)
     |                                               |                |      [15]{}: leap_second_record 0x456-0x462 (12)
0x450|                  00 00 00 00 27 7f d1 0f      |      ....'...  |        occur: "1991-01-01T00:00:15Z" (662688015) 0x456-0x45e (8)
0x450|                                          00 00|              ..|        corr: 16 0x45e-0x462 (4)
0x460|00 10                                          |..              |
     |                                               |                |      [16]{}: leap_second_record 0x462-0x46e (12)
0x460|      00 00 00 00 2a 50 f5 90                  |  ....*P..      |        occur: "1992-07-01T00:00:16Z" (709948816) 0x462-0x46a (8)
0x460|                              00 00 00 11      |          ....  |        corr: 17 0x46a-0x46e (4)
     |                                               |                |      [17]{}: leap_second_record 0x46e-0x47a (12)
0x460|                                          00 00|              ..|        occur: "1993-07-01T00:00:17Z" (741484817) 0x46e-0x476 (8)
0x470|00 00 2c 32 29 11                              |..,2).          |
0x470|                  00 00 00 12                  |      ....      |        corr: 18 0x476-0x47a (4)
     |                                               |                |      [18]{}: leap_second_record 0x47a-0x486 (12)
0x470|                              00 00 00 00 2e 13|          ......|        occur: "1994-07-01T00:00:18Z" (773020818) 0x47a-0x482 (8)
0x480|5c 92                                          |\.              |
0x480|      00 00 00 13                              |  ....          |        corr: 19 0x482-0x486 (4)
     |                                               |                |      [19]{}: leap_second_record 0x486-0x492 (12)
0x480|                  00 00 00 00 30 e7 24 13      |      ....0.$.  |        occur: "1996-01-01T00:00:19Z" (820454419) 0x486-0x48e (8)
0x480|                                          00 00|              ..|        corr: 20 0x48e-0x492 (4)
0x490|00 14                                          |..              |
     |                                               |                |      [20]{}: leap_second_record 0x492-0x49e (12)
0x490|      00 00 00 00 33 b8 48 94                  |  ....3.H.      |        occur: "1997-07-01T00:00:20Z" (867715220) 0x492-0x49a (8)
0x490|                              00 00 00 15      |          ....  |        corr: 21 0x49a-0x49e (4)
     |                                               |                |      [21]{}: leap_second_record 0x49e-0x4aa (12)
0x490|                                          00 00|              ..|        occur: "1999-01-01T00:00:21Z" (915148821) 0x49e-0x4a6 (8)
0x4a0|00 00 36 8c 10 15                              |..6...          |
0x4a0|                  00 00 00 16                  |      ....      |        corr: 22 0x4a6-0x4aa (4)
     |                                               |                |      [22]{}: leap_second_record 0x4aa-0x4b6 (12)
0x4a0|                              00 00 00 00 43 b7|          ....C.|        occur: "2006-01-01T00:00:22Z" (1136073622) 0x4aa-0x4b2 (8)
0x4b0|1b 96                                          |..              |
0x4b0|      00 00 00 17                              |  ....          |        corr: 23 0x4b2-0x4b6 (4)
     |                                               |                |      [23]{}: leap_second_record 0x4b6-0x4c2 (12)
0x4b0|                  00 00 00 00 49 5c 07 97      |      ....I\..  |        occur: "2009-01-01T00:00:23Z" (1230768023) 0x4b6-0x4be (8)
0x4b0|                                          00 00|              ..|        corr: 24 0x4be-0x4c2 (4)
0x4c0|00 18                                          |..              |
     |                                               |                |      [24]{}: leap_second_record 0x4c2-0x4ce (12)
0x4c0|      00 00 00 00 4f ef 93 18                  |  ....O...      |        occur: "2012-07-01T00:00:24Z" (1341100824) 0x4c2-0x4ca (8)
0x4c0|                              00 00 00 19      |          ....  |        corr: 25 0x4ca-0x4ce (4)
     |                                               |                |      [25]{}: leap_second_record 0x4ce-0x4da (12)
0x4c0|                                          00 00|              ..|        occur: "2015-07-01T00:00:25Z" (1435708825) 0x4ce-0x4d6 (8)
0x4d0|00 00 55 93 2d 99                              |..U.-.          |
0x4d0|                  00 00 00 1a                  |      ....      |        corr: 26 0x4d6-0x4da (4)
     |                                               |                |      [26]{}: leap_second_record 0x4da-0x4e6 (12)
0x4d0|                              00 00 00 00 58 68|          ....Xh|        occur: "2017-01-01T00:00:26Z" (1483228826) 0x4da-0x4e2 (8)
0x4e0|46 9a                                          |F.              |
0x4e0|      00 00 00 1b                              |  ....          |        corr: 27 0x4e2-0x4e6 (4)
     |                                               |                |    standard_wall_indicators[0:4]: 0x4e6-0x4ea (4)
0x4e0|                  00                           |      .         |      [0]: 0 standard_wall_indicator (valid) 0x4e6-0x4e7 (1)
0x4e0|                     01                        |       .        |      [1]: 1 standard_wall_indicator (valid) 0x4e7-0x4e8 (1)
0x4e0|                        01                     |        .       |      [2]: 1 standard_wall_indicator (valid) 0x4e8-0x4e9 (1)
0x4e0|                           00                  |         .      |      [3]: 0 standard_wall_indicator (valid) 0x4e9-0x4ea (1)
     |                                               |                |    ut_local_indicators[0:4]: 0x4ea-0x4ee (4)
0x4e0|                              00               |          .     |      [0]: 0 ut_local_indicator (valid) 0x4ea-0x4eb (1)
0x4e0|                                 01            |           .    |      [1]: 1 ut_local_indicator (valid) 0x4eb-0x4ec (1)
0x4e0|                                    01         |            .   |      [2]: 1 ut_local_indicator (valid) 0x4ec-0x4ed (1)
0x4e0|                                       00      |             .  |      [3]: 0 ut_local_indicator (valid) 0x4ed-0x4ee (1)
     |                                               |                |  footer{}: 0x4ee-0x4f0 (2)
0x4e0|                                          0a   |              . |    nl1: 10 (valid) 0x4ee-0x4ef (1)
     |                                               |                |    tz_string: "" 0x4ef-0x4ef (0)
0x4e0|                                             0a|               .|    nl2: 10 (valid) 0x4ef-0x4f0 (1)
