$ fq -d tzif dv Tucuman
     |00 01 02 03 04 05 06 07 08 09 0a 0b 0c 0d 0e 0f|0123456789abcdef|.{}: Tucuman (tzif) 0x0-0x666 (1638)
     |                                               |                |  v1header{}: 0x0-0x2c (44)
0x000|54 5a 69 66                                    |TZif            |    magic: 0x545a6966 (valid) 0x0-0x4 (4)
0x000|            32                                 |    2           |    ver: "2" (0x32) (valid) 0x4-0x5 (1)
0x000|               00 00 00 00 00 00 00 00 00 00 00|     ...........|    reserved: raw bits 0x5-0x14 (15)
0x010|00 00 00 00                                    |....            |
0x010|            00 00 00 00                        |    ....        |    isutcnt: 0 0x14-0x18 (4)
0x010|                        00 00 00 00            |        ....    |    isstdcnt: 0 0x18-0x1c (4)
0x010|                                    00 00 00 1b|            ....|    leapcnt: 27 0x1c-0x20 (4)
0x020|00 00 00 40                                    |...@            |    timecnt: 64 0x20-0x24 (4)
0x020|            00 00 00 06                        |    ....        |    typecnt: 6 0x24-0x28 (4)
0x020|                        00 00 00 14            |        ....    |    charcnt: 20 0x28-0x2c (4)
     |                                               |                |  v1datablock{}: 0x2c-0x27c (592)
     |                                               |                |    transition_times[0:64]: 0x2c-0x12c (256)
0x020|                                    80 00 00 00|            ....|      [0]: "1901-12-13T20:45:52Z" (-2147483648) transition_time 0x2c-0x30 (4)
0x030|a2 92 8f 30                                    |...0            |      [1]: "1920-05-01T04:16:48Z" (-1567453392) transition_time 0x30-0x34 (4)
0x030|            b6 7b 52 40                        |    .{R@        |      [2]: "1930-12-01T04:00:00Z" (-1233432000) transition_time 0x34-0x38 (4)
0x030|                        b7 1a c9 b0            |        ....    |      [3]: "1931-04-01T03:00:00Z" (-1222981200) transition_time 0x38-0x3c (4)
0x030|                                    b8 1e 8f 40|            ...@|      [4]: "1931-10-15T04:00:00Z" (-1205956800) transition_time 0x3c-0x40 (4)
0x040|b8 d4 70 30                                    |..p0            |      [5]: "1932-03-01T03:00:00Z" (-1194037200) transition_time 0x40-0x44 (4)
0x040|            ba 17 7d c0                        |    ..}.        |      [6]: "1932-11-01T04:00:00Z" (-1172865600) transition_time 0x44-0x48 (4)
0x040|                        ba b5 a3 b0            |        ....    |      [7]: "1933-03-01T03:00:00Z" (-1162501200) transition_time 0x48-0x4c (4)
0x040|                                    bb f8 b1 40|            ...@|      [8]: "1933-11-01T04:00:00Z" (-1141329600) transition_time 0x4c-0x50 (4)
0x050|bc 96 d7 30                                    |...0            |      [9]: "1934-03-01T03:00:00Z" (-1130965200) transition_time 0x50-0x54 (4)
0x050|            bd d9 e4 c0                        |    ....        |      [10]: "1934-11-01T04:00:00Z" (-1109793600) transition_time 0x54-0x58 (4)
0x050|                        be 78 0a b0            |        .x..    |      [11]: "1935-03-01T03:00:00Z" (-1099429200) transition_time 0x58-0x5c (4)
0x050|                                    bf bb 18 40|            ...@|      [12]: "1935-11-01T04:00:00Z" (-1078257600) transition_time 0x5c-0x60 (4)
0x060|c0 5a 8f b0                                    |.Z..            |      [13]: "1936-03-01T03:00:00Z" (-1067806800) transition_time 0x60-0x64 (4)
0x060|            c1 9d 9d 40                        |    ...@        |      [14]: "1936-11-01T04:00:00Z" (-1046635200) transition_time 0x64-0x68 (4)
0x060|                        c2 3b c3 30            |        .;.0    |      [15]: "1937-03-01T03:00:00Z" (-1036270800) transition_time 0x68-0x6c (4)
0x060|                                    c3 7e d0 c0|            .~..|      [16]: "1937-11-01T04:00:00Z" (-1015099200) transition_time 0x6c-0x70 (4)
0x070|c4 1c f6 b0                                    |....            |      [17]: "1938-03-01T03:00:00Z" (-1004734800) transition_time 0x70-0x74 (4)
0x070|            c5 60 04 40                        |    .`.@        |      [18]: "1938-11-01T04:00:00Z" (-983563200) transition_time 0x74-0x78 (4)
0x070|                        c5 fe 2a 30            |        ..*0    |      [19]: "1939-03-01T03:00:00Z" (-973198800) transition_time 0x78-0x7c (4)
0x070|                                    c7 41 37 c0|            .A7.|      [20]: "1939-11-01T04:00:00Z" (-952027200) transition_time 0x7c-0x80 (4)
0x080|c7 e0 af 30                                    |...0            |      [21]: "1940-03-01T03:00:00Z" (-941576400) transition_time 0x80-0x84 (4)
0x080|            c8 81 94 40                        |    ...@        |      [22]: "1940-07-01T04:00:00Z" (-931032000) transition_time 0x84-0x88 (4)
0x080|                        ca 4d a1 b0            |        .M..    |      [23]: "1941-06-15T03:00:00Z" (-900882000) transition_time 0x88-0x8c (4)
0x080|                                    ca ee 86 c0|            ....|      [24]: "1941-10-15T04:00:00Z" (-890337600) transition_time 0x8c-0x90 (4)
0x090|ce 4d ff 30                                    |.M.0            |      [25]: "1943-08-01T03:00:00Z" (-833749200) transition_time 0x90-0x94 (4)
0x090|            ce b0 ed c0                        |    ....        |      [26]: "1943-10-15T04:00:00Z" (-827265600) transition_time 0x94-0x98 (4)
0x090|                        d3 29 35 b0            |        .)5.    |      [27]: "1946-03-01T03:00:00Z" (-752274000) transition_time 0x98-0x9c (4)
0x090|                                    d4 43 64 c0|            .Cd.|      [28]: "1946-10-01T04:00:00Z" (-733780800) transition_time 0x9c-0xa0 (4)
0x0a0|f4 3d 08 30                                    |.=.0            |      [29]: "1963-10-01T03:00:00Z" (-197326800) transition_time 0xa0-0xa4 (4)
0x0a0|            f4 9f f6 c0                        |    ....        |      [30]: "1963-12-15T04:00:00Z" (-190843200) transition_time 0xa4-0xa8 (4)
0x0a0|                        f5 05 6c 30            |        ..l0    |      [31]: "1964-03-01T03:00:00Z" (-184194000) transition_time 0xa8-0xac (4)
0x0a0|                                    f6 32 10 40|            .2.@|      [32]: "1964-10-15T04:00:00Z" (-164491200) transition_time 0xac-0xb0 (4)
0x0b0|f6 e6 9f b0                                    |....            |      [33]: "1965-03-01T03:00:00Z" (-152658000) transition_time 0xb0-0xb4 (4)
0x0b0|            f8 13 43 c0                        |    ..C.        |      [34]: "1965-10-15T04:00:00Z" (-132955200) transition_time 0xb4-0xb8 (4)
0x0b0|                        f8 c7 d3 30            |        ...0    |      [35]: "1966-03-01T03:00:00Z" (-121122000) transition_time 0xb8-0xbc (4)
0x0b0|                                    f9 f4 77 40|            ..w@|      [36]: "1966-10-15T04:00:00Z" (-101419200) transition_time 0xbc-0xc0 (4)
0x0c0|fa d3 36 b0                                    |..6.            |      [37]: "1967-04-02T03:00:00Z" (-86821200) transition_time 0xc0-0xc4 (4)
0x0c0|            fb c3 35 c0                        |    ..5.        |      [38]: "1967-10-01T04:00:00Z" (-71092800) transition_time 0xc4-0xc8 (4)
0x0c0|                        fc bc 53 30            |        ..S0    |      [39]: "1968-04-07T03:00:00Z" (-54766800) transition_time 0xc8-0xcc (4)
0x0c0|                                    fd ac 52 40|            ..R@|      [40]: "1968-10-06T04:00:00Z" (-39038400) transition_time 0xcc-0xd0 (4)
0x0d0|fe 9c 35 30                                    |..50            |      [41]: "1969-04-06T03:00:00Z" (-23317200) transition_time 0xd0-0xd4 (4)
0x0d0|            ff 8c 34 40                        |    ..4@        |      [42]: "1969-10-05T04:00:00Z" (-7588800) transition_time 0xd4-0xd8 (4)
0x0d0|                        07 a3 4a b3            |        ..J.    |      [43]: "1974-01-23T03:00:03Z" (128142003) transition_time 0xd8-0xdc (4)
0x0d0|                                    08 24 6f a3|            .$o.|      [44]: "1974-05-01T02:00:03Z" (136605603) transition_time 0xdc-0xe0 (4)
0x0e0|23 94 b5 be                                    |#...            |      [45]: "1988-12-01T03:00:14Z" (596948414) transition_time 0xe0-0xe4 (4)
0x0e0|            24 10 94 ae                        |    $...        |      [46]: "1989-03-05T02:00:14Z" (605066414) transition_time 0xe4-0xe8 (4)
0x0e0|                        25 37 f2 be            |        %7..    |      [47]: "1989-10-15T03:00:14Z" (624423614) transition_time 0xe8-0xec (4)
0x0e0|                                    25 f0 76 af|            %.v.|      [48]: "1990-03-04T02:00:15Z" (636516015) transition_time 0xec-0xf0 (4)
0x0f0|27 21 0f 3f                                    |'!.?            |      [49]: "1990-10-21T03:00:15Z" (656478015) transition_time 0xf0-0xf4 (4)
0x0f0|            27 d0 58 b0                        |    '.X.        |      [50]: "1991-03-03T02:00:16Z" (667965616) transition_time 0xf4-0xf8 (4)
0x0f0|                        29 00 ff 50            |        )..P    |      [51]: "1991-10-20T04:00:16Z" (687931216) transition_time 0xf8-0xfc (4)
0x0f0|                                    29 b0 3a b0|            ).:.|      [52]: "1992-03-01T02:00:16Z" (699415216) transition_time 0xfc-0x100 (4)
0x100|2a e0 d3 41                                    |*..A            |      [53]: "1992-10-18T03:00:17Z" (719377217) transition_time 0x100-0x104 (4)
0x100|            2b 99 57 31                        |    +.W1        |      [54]: "1993-03-07T02:00:17Z" (731469617) transition_time 0x104-0x108 (4)
0x100|                        37 f6 c6 c6            |        7...    |      [55]: "1999-10-03T03:00:22Z" (938919622) transition_time 0x108-0x10c (4)
0x100|                                    38 bf 2a c6|            8.*.|      [56]: "2000-03-03T03:00:22Z" (952052422) transition_time 0x10c-0x110 (4)
0x110|40 bb f1 46                                    |@..F            |      [57]: "2004-06-01T03:00:22Z" (1086058822) transition_time 0x110-0x114 (4)
0x110|            40 cb d1 56                        |    @..V        |      [58]: "2004-06-13T04:00:22Z" (1087099222) transition_time 0x114-0x118 (4)
0x110|                        47 77 09 c7            |        Gw..    |      [59]: "2007-12-30T03:00:23Z" (1198983623) transition_time 0x118-0x11c (4)
0x110|                                    47 dc 7f 37|            G..7|      [60]: "2008-03-16T02:00:23Z" (1205632823) transition_time 0x11c-0x120 (4)
0x120|48 fa a2 c7                                    |H...            |      [61]: "2008-10-19T03:00:23Z" (1224385223) transition_time 0x120-0x124 (4)
0x120|            49 bc 61 38                        |    I.a8        |      [62]: "2009-03-15T02:00:24Z" (1237082424) transition_time 0x124-0x128 (4)
0x120|                        64 9b 78 1b            |        d.x.    |      [63]: "2023-06-28T00:00:27Z" (1687910427) transition_time 0x128-0x12c (4)
     |                                               |                |    transition_types[0:64]: 0x12c-0x16c (64)
0x120|                                    01         |            .   |      [0]: 1 transition_type 0x12c-0x12d (1)
0x120|                                       02      |             .  |      [1]: 2 transition_type 0x12d-0x12e (1)
0x120|                                          03   |              . |      [2]: 3 transition_type 0x12e-0x12f (1)
0x120|                                             02|               .|      [3]: 2 transition_type 0x12f-0x130 (1)
0x130|03                                             |.               |      [4]: 3 transition_type 0x130-0x131 (1)
0x130|   02                                          | .              |      [5]: 2 transition_type 0x131-0x132 (1)
0x130|      03                                       |  .             |      [6]: 3 transition_type 0x132-0x133 (1)
0x130|         02                                    |   .            |      [7]: 2 transition_type 0x133-0x134 (1)
0x130|            03                                 |    .           |      [8]: 3 transition_type 0x134-0x135 (1)
0x130|               02                              |     .          |      [9]: 2 transition_type 0x135-0x136 (1)
0x130|                  03                           |      .         |      [10]: 3 transition_type 0x136-0x137 (1)
0x130|                     02                        |       .        |      [11]: 2 transition_type 0x137-0x138 (1)
0x130|                        03                     |        .       |      [12]: 3 transition_type 0x138-0x139 (1)
0x130|                           02                  |         .      |      [13]: 2 transition_type 0x139-0x13a (1)
0x130|                              03               |          .     |      [14]: 3 transition_type 0x13a-0x13b (1)
0x130|                                 02            |           .    |      [15]: 2 transition_type 0x13b-0x13c (1)
0x130|                                    03         |            .   |      [16]: 3 transition_type 0x13c-0x13d (1)
0x130|                                       02      |             .  |      [17]: 2 transition_type 0x13d-0x13e (1)
0x130|                                          03   |              . |      [18]: 3 transition_type 0x13e-0x13f (1)
0x130|                                             02|               .|      [19]: 2 transition_type 0x13f-0x140 (1)
0x140|03                                             |.               |      [20]: 3 transition_type 0x140-0x141 (1)
0x140|   02                                          | .              |      [21]: 2 transition_type 0x141-0x142 (1)
0x140|      03                                       |  .             |      [22]: 3 transition_type 0x142-0x143 (1)
0x140|         02                                    |   .            |      [23]: 2 transition_type 0x143-0x144 (1)
0x140|            03                                 |    .           |      [24]: 3 transition_type 0x144-0x145 (1)
0x140|               02                              |     .          |      [25]: 2 transition_type 0x145-0x146 (1)
0x140|                  03                           |      .         |      [26]: 3 transition_type 0x146-0x147 (1)
0x140|                     02                        |       .        |      [27]: 2 transition_type 0x147-0x148 (1)
0x140|                        03                     |        .       |      [28]: 3 transition_type 0x148-0x149 (1)
0x140|                           02                  |         .      |      [29]: 2 transition_type 0x149-0x14a (1)
0x140|                              03               |          .     |      [30]: 3 transition_type 0x14a-0x14b (1)
0x140|                                 02            |           .    |      [31]: 2 transition_type 0x14b-0x14c (1)
0x140|                                    03         |            .   |      [32]: 3 transition_type 0x14c-0x14d (1)
0x140|                                       02      |             .  |      [33]: 2 transition_type 0x14d-0x14e (1)
0x140|                                          03   |              . |      [34]: 3 transition_type 0x14e-0x14f (1)
0x140|                                             02|               .|      [35]: 2 transition_type 0x14f-0x150 (1)
0x150|03                                             |.               |      [36]: 3 transition_type 0x150-0x151 (1)
0x150|   02                                          | .              |      [37]: 2 transition_type 0x151-0x152 (1)
0x150|      03                                       |  .             |      [38]: 3 transition_type 0x152-0x153 (1)
0x150|         02                                    |   .            |      [39]: 2 transition_type 0x153-0x154 (1)
0x150|            03                                 |    .           |      [40]: 3 transition_type 0x154-0x155 (1)
0x150|               02                              |     .          |      [41]: 2 transition_type 0x155-0x156 (1)
0x150|                  05                           |      .         |      [42]: 5 transition_type 0x156-0x157 (1)
0x150|                     04                        |       .        |      [43]: 4 transition_type 0x157-0x158 (1)
0x150|                        05                     |        .       |      [44]: 5 transition_type 0x158-0x159 (1)
0x150|                           04                  |         .      |      [45]: 4 transition_type 0x159-0x15a (1)
0x150|                              05               |          .     |      [46]: 5 transition_type 0x15a-0x15b (1)
0x150|                                 04            |           .    |      [47]: 4 transition_type 0x15b-0x15c (1)
0x150|                                    05         |            .   |      [48]: 5 transition_type 0x15c-0x15d (1)
0x150|                                       04      |             .  |      [49]: 4 transition_type 0x15d-0x15e (1)
0x150|                                          02   |              . |      [50]: 2 transition_type 0x15e-0x15f (1)
0x150|                                             04|               .|      [51]: 4 transition_type 0x15f-0x160 (1)
0x160|05                                             |.               |      [52]: 5 transition_type 0x160-0x161 (1)
0x160|   04                                          | .              |      [53]: 4 transition_type 0x161-0x162 (1)
0x160|      05                                       |  .             |      [54]: 5 transition_type 0x162-0x163 (1)
0x160|         03                                    |   .            |      [55]: 3 transition_type 0x163-0x164 (1)
0x160|            05                                 |    .           |      [56]: 5 transition_type 0x164-0x165 (1)
0x160|               02                              |     .          |      [57]: 2 transition_type 0x165-0x166 (1)
0x160|                  05                           |      .         |      [58]: 5 transition_type 0x166-0x167 (1)
0x160|                     04                        |       .        |      [59]: 4 transition_type 0x167-0x168 (1)
0x160|                        05                     |        .       |      [60]: 5 transition_type 0x168-0x169 (1)
0x160|                           04                  |         .      |      [61]: 4 transition_type 0x169-0x16a (1)
0x160|                              05               |          .     |      [62]: 5 transition_type 0x16a-0x16b (1)
0x160|                                 05            |           .    |      [63]: 5 transition_type 0x16b-0x16c (1)
     |                                               |                |    local_time_type_records[0:6]: 0x16c-0x190 (36)
     |                                               |                |      [0]{}: local_time_type 0x16c-0x172 (6)
0x160|                                    ff ff c2 dc|            ....|        utoff: -15652 (valid) 0x16c-0x170 (4)
0x170|00                                             |.               |        dst: 0 (valid) 0x170-0x171 (1)
0x170|   00                                          | .              |        idx: 0 (valid) 0x171-0x172 (1)
     |                                               |                |      [1]{}: local_time_type 0x172-0x178 (6)
0x170|      ff ff c3 d0                              |  ....          |        utoff: -15408 (valid) 0x172-0x176 (4)
0x170|                  00                           |      .         |        dst: 0 (valid) 0x176-0x177 (1)
0x170|                     04                        |       .        |        idx: 4 (valid) 0x177-0x178 (1)
     |                                               |                |      [2]{}: local_time_type 0x178-0x17e (6)
0x170|                        ff ff c7 c0            |        ....    |        utoff: -14400 (valid) 0x178-0x17c (4)
0x170|                                    00         |            .   |        dst: 0 (valid) 0x17c-0x17d (1)
0x170|                                       08      |             .  |        idx: 8 (valid) 0x17d-0x17e (1)
     |                                               |                |      [3]{}: local_time_type 0x17e-0x184 (6)
0x170|                                          ff ff|              ..|        utoff: -10800 (valid) 0x17e-0x182 (4)
0x180|d5 d0                                          |..              |
0x180|      01                                       |  .             |        dst: 1 (valid) 0x182-0x183 (1)
0x180|         0c                                    |   .            |        idx: 12 (valid) 0x183-0x184 (1)
     |                                               |                |      [4]{}: local_time_type 0x184-0x18a (6)
0x180|            ff ff e3 e0                        |    ....        |        utoff: -7200 (valid) 0x184-0x188 (4)
0x180|                        01                     |        .       |        dst: 1 (valid) 0x188-0x189 (1)
0x180|                           10                  |         .      |        idx: 16 (valid) 0x189-0x18a (1)
     |                                               |                |      [5]{}: local_time_type 0x18a-0x190 (6)
0x180|                              ff ff d5 d0      |          ....  |        utoff: -10800 (valid) 0x18a-0x18e (4)
0x180|                                          00   |              . |        dst: 0 (valid) 0x18e-0x18f (1)
0x180|                                             0c|               .|        idx: 12 (valid) 0x18f-0x190 (1)
     |                                               |                |    time_zone_designations[0:5]: 0x190-0x1a4 (20)
0x190|4c 4d 54 00                                    |LMT.            |      [0]: "LMT" time_zone_designation 0x190-0x194 (4)
0x190|            43 4d 54 00                        |    CMT.        |      [1]: "CMT" time_zone_designation 0x194-0x198 (4)
0x190|                        2d 30 34 00            |        -04.    |      [2]: "-04" time_zone_designation 0x198-0x19c (4)
0x190|                                    2d 30 33 00|            -03.|      [3]: "-03" time_zone_designation 0x19c-0x1a0 (4)
0x1a0|2d 30 32 00                                    |-02.            |      [4]: "-02" time_zone_designation 0x1a0-0x1a4 (4)
     |                                               |                |    leap_second_records[0:27]: 0x1a4-0x27c (216)
     |                                               |                |      [0]{}: leap_second_record 0x1a4-0x1ac (8)
0x1a0|            04 b2 58 00                        |    ..X.        |        occur: "1972-07-01T00:00:00Z" (78796800) 0x1a4-0x1a8 (4)
0x1a0|                        00 00 00 01            |        ....    |        corr: 1 0x1a8-0x1ac (4)
     |                                               |                |      [1]{}: leap_second_record 0x1ac-0x1b4 (8)
0x1a0|                                    05 a4 ec 01|            ....|        occur: "1973-01-01T00:00:01Z" (94694401) 0x1ac-0x1b0 (4)
0x1b0|00 00 00 02                                    |....            |        corr: 2 0x1b0-0x1b4 (4)
     |                                               |                |      [2]{}: leap_second_record 0x1b4-0x1bc (8)
0x1b0|            07 86 1f 82                        |    ....        |        occur: "1974-01-01T00:00:02Z" (126230402) 0x1b4-0x1b8 (4)
0x1b0|                        00 00 00 03            |        ....    |        corr: 3 0x1b8-0x1bc (4)
     |                                               |                |      [3]{}: leap_second_record 0x1bc-0x1c4 (8)
0x1b0|                                    09 67 53 03|            .gS.|        occur: "1975-01-01T00:00:03Z" (157766403) 0x1bc-0x1c0 (4)
0x1c0|00 00 00 04                                    |....            |        corr: 4 0x1c0-0x1c4 (4)
     |                                               |                |      [4]{}: leap_second_record 0x1c4-0x1cc (8)
0x1c0|            0b 48 86 84                        |    .H..        |        occur: "1976-01-01T00:00:04Z" (189302404) 0x1c4-0x1c8 (4)
0x1c0|                        00 00 00 05            |        ....    |        corr: 5 0x1c8-0x1cc (4)
     |                                               |                |      [5]{}: leap_second_record 0x1cc-0x1d4 (8)
0x1c0|                                    0d 2b 0b 85|            .+..|        occur: "1977-01-01T00:00:05Z" (220924805) 0x1cc-0x1d0 (4)
0x1d0|00 00 00 06                                    |....            |        corr: 6 0x1d0-0x1d4 (4)
     |                                               |                |      [6]{}: leap_second_record 0x1d4-0x1dc (8)
0x1d0|            0f 0c 3f 06                        |    ..?.        |        occur: "1978-01-01T00:00:06Z" (252460806) 0x1d4-0x1d8 (4)
0x1d0|                        00 00 00 07            |        ....    |        corr: 7 0x1d8-0x1dc (4)
     |                                               |                |      [7]{}: leap_second_record 0x1dc-0x1e4 (8)
0x1d0|                                    10 ed 72 87|            ..r.|        occur: "1979-01-01T00:00:07Z" (283996807) 0x1dc-0x1e0 (4)
0x1e0|00 00 00 08                                    |....            |        corr: 8 0x1e0-0x1e4 (4)
     |                                               |                |      [8]{}: leap_second_record 0x1e4-0x1ec (8)
0x1e0|            12 ce a6 08                        |    ....        |        occur: "1980-01-01T00:00:08Z" (315532808) 0x1e4-0x1e8 (4)
0x1e0|                        00 00 00 09            |        ....    |        corr: 9 0x1e8-0x1ec (4)
     |                                               |                |      [9]{}: leap_second_record 0x1ec-0x1f4 (8)
0x1e0|                                    15 9f ca 89|            ....|        occur: "1981-07-01T00:00:09Z" (362793609) 0x1ec-0x1f0 (4)
0x1f0|00 00 00 0a                                    |....            |        corr: 10 0x1f0-0x1f4 (4)
     |                                               |                |      [10]{}: leap_second_record 0x1f4-0x1fc (8)
0x1f0|            17 80 fe 0a                        |    ....        |        occur: "1982-07-01T00:00:10Z" (394329610) 0x1f4-0x1f8 (4)
0x1f0|                        00 00 00 0b            |        ....    |        corr: 11 0x1f8-0x1fc (4)
     |                                               |                |      [11]{}: leap_second_record 0x1fc-0x204 (8)
0x1f0|                                    19 62 31 8b|            .b1.|        occur: "1983-07-01T00:00:11Z" (425865611) 0x1fc-0x200 (4)
0x200|00 00 00 0c                                    |....            |        corr: 12 0x200-0x204 (4)
     |                                               |                |      [12]{}: leap_second_record 0x204-0x20c (8)
0x200|            1d 25 ea 0c                        |    .%..        |        occur: "1985-07-01T00:00:12Z" (489024012) 0x204-0x208 (4)
0x200|                        00 00 00 0d            |        ....    |        corr: 13 0x208-0x20c (4)
     |                                               |                |      [13]{}: leap_second_record 0x20c-0x214 (8)
0x200|                                    21 da e5 0d|            !...|        occur: "1988-01-01T00:00:13Z" (567993613) 0x20c-0x210 (4)
0x210|00 00 00 0e                                    |....            |        corr: 14 0x210-0x214 (4)
     |                                               |                |      [14]{}: leap_second_record 0x214-0x21c (8)
0x210|            25 9e 9d 8e                        |    %...        |        occur: "1990-01-01T00:00:14Z" (631152014) 0x214-0x218 (4)
0x210|                        00 00 00 0f            |        ....    |        corr: 15 0x218-0x21c (4)
     |                                               |                |      [15]{}: leap_second_record 0x21c-0x224 (8)
0x210|                                    27 7f d1 0f|            '...|        occur: "1991-01-01T00:00:15Z" (662688015) 0x21c-0x220 (4)
0x220|00 00 00 10                                    |....            |        corr: 16 0x220-0x224 (4)
     |                                               |                |      [16]{}: leap_second_record 0x224-0x22c (8)
0x220|            2a 50 f5 90                        |    *P..        |        occur: "1992-07-01T00:00:16Z" (709948816) 0x224-0x228 (4)
0x220|                        00 00 00 11            |        ....    |        corr: 17 0x228-0x22c (4)
     |                                               |                |      [17]{}: leap_second_record 0x22c-0x234 (8)
0x220|                                    2c 32 29 11|            ,2).|        occur: "1993-07-01T00:00:17Z" (741484817) 0x22c-0x230 (4)
0x230|00 00 00 12                                    |....            |        corr: 18 0x230-0x234 (4)
     |                                               |                |      [18]{}: leap_second_record 0x234-0x23c (8)
0x230|            2e 13 5c 92                        |    ..\.        |        occur: "1994-07-01T00:00:18Z" (773020818) 0x234-0x238 (4)
0x230|                        00 00 00 13            |        ....    |        corr: 19 0x238-0x23c (4)
     |                                               |                |      [19]{}: leap_second_record 0x23c-0x244 (8)
0x230|                                    30 e7 24 13|            0.$.|        occur: "1996-01-01T00:00:19Z" (820454419) 0x23c-0x240 (4)
0x240|00 00 00 14                                    |....            |        corr: 20 0x240-0x244 (4)
     |                                               |                |      [20]{}: leap_second_record 0x244-0x24c (8)
0x240|            33 b8 48 94                        |    3.H.        |        occur: "1997-07-01T00:00:20Z" (867715220) 0x244-0x248 (4)
0x240|                        00 00 00 15            |        ....    |        corr: 21 0x248-0x24c (4)
     |                                               |                |      [21]{}: leap_second_record 0x24c-0x254 (8)
0x240|                                    36 8c 10 15|            6...|        occur: "1999-01-01T00:00:21Z" (915148821) 0x24c-0x250 (4)
0x250|00 00 00 16                                    |....            |        corr: 22 0x250-0x254 (4)
     |                                               |                |      [22]{}: leap_second_record 0x254-0x25c (8)
0x250|            43 b7 1b 96                        |    C...        |        occur: "2006-01-01T00:00:22Z" (1136073622) 0x254-0x258 (4)
0x250|                        00 00 00 17            |        ....    |        corr: 23 0x258-0x25c (4)
     |                                               |                |      [23]{}: leap_second_record 0x25c-0x264 (8)
0x250|                                    49 5c 07 97|            I\..|        occur: "2009-01-01T00:00:23Z" (1230768023) 0x25c-0x260 (4)
0x260|00 00 00 18                                    |....            |        corr: 24 0x260-0x264 (4)
     |                                               |                |      [24]{}: leap_second_record 0x264-0x26c (8)
0x260|            4f ef 93 18                        |    O...        |        occur: "2012-07-01T00:00:24Z" (1341100824) 0x264-0x268 (4)
0x260|                        00 00 00 19            |        ....    |        corr: 25 0x268-0x26c (4)
     |                                               |                |      [25]{}: leap_second_record 0x26c-0x274 (8)
0x260|                                    55 93 2d 99|            U.-.|        occur: "2015-07-01T00:00:25Z" (1435708825) 0x26c-0x270 (4)
0x270|00 00 00 1a                                    |....            |        corr: 26 0x270-0x274 (4)
     |                                               |                |      [26]{}: leap_second_record 0x274-0x27c (8)
0x270|            58 68 46 9a                        |    XhF.        |        occur: "2017-01-01T00:00:26Z" (1483228826) 0x274-0x278 (4)
0x270|                        00 00 00 1b            |        ....    |        corr: 27 0x278-0x27c (4)
     |                                               |                |    standard_wall_indicators[0:0]: 0x27c-0x27c (0)
     |                                               |                |    ut_local_indicators[0:0]: 0x27c-0x27c (0)
     |                                               |                |  v2plusheader{}: 0x27c-0x2a8 (44)
0x270|                                    54 5a 69 66|            TZif|    magic: 0x545a6966 (valid) 0x27c-0x280 (4)
0x280|32                                             |2               |    ver: "2" (0x32) (valid) 0x280-0x281 (1)
0x280|   00 00 00 00 00 00 00 00 00 00 00 00 00 00 00| ...............|    reserved: raw bits 0x281-0x290 (15)
0x290|00 00 00 00                                    |....            |    isutcnt: 0 0x290-0x294 (4)
0x290|            00 00 00 00                        |    ....        |    isstdcnt: 0 0x294-0x298 (4)
0x290|                        00 00 00 1b            |        ....    |    leapcnt: 27 0x298-0x29c (4)
0x290|                                    00 00 00 40|            ...@|    timecnt: 64 0x29c-0x2a0 (4)
0x2a0|00 00 00 06                                    |....            |    typecnt: 6 0x2a0-0x2a4 (4)
0x2a0|            00 00 00 14                        |    ....        |    charcnt: 20 0x2a4-0x2a8 (4)
     |                                               |                |  v2plusdatablock{}: 0x2a8-0x664 (956)
     |                                               |                |    transition_times[0:64]: 0x2a8-0x4a8 (512)
0x2a0|                        ff ff ff ff 72 9c ae a4|        ....r...|      [0]: "1894-10-31T04:20:52Z" (-2372096348) transition_time 0x2a8-0x2b0 (8)
0x2b0|ff ff ff ff a2 92 8f 30                        |.......0        |      [1]: "1920-05-01T04:16:48Z" (-1567453392) transition_time 0x2b0-0x2b8 (8)
0x2b0|                        ff ff ff ff b6 7b 52 40|        .....{R@|      [2]: "1930-12-01T04:00:00Z" (-1233432000) transition_time 0x2b8-0x2c0 (8)
0x2c0|ff ff ff ff b7 1a c9 b0                        |........        |      [3]: "1931-04-01T03:00:00Z" (-1222981200) transition_time 0x2c0-0x2c8 (8)
0x2c0|                        ff ff ff ff b8 1e 8f 40|        .......@|      [4]: "1931-10-15T04:00:00Z" (-1205956800) transition_time 0x2c8-0x2d0 (8)
0x2d0|ff ff ff ff b8 d4 70 30                        |......p0        |      [5]: "1932-03-01T03:00:00Z" (-1194037200) transition_time 0x2d0-0x2d8 (8)
0x2d0|                        ff ff ff ff ba 17 7d c0|        ......}.|      [6]: "1932-11-01T04:00:00Z" (-1172865600) transition_time 0x2d8-0x2e0 (8)
0x2e0|ff ff ff ff ba b5 a3 b0                        |........        |      [7]: "1933-03-01T03:00:00Z" (-1162501200) transition_time 0x2e0-0x2e8 (8)
0x2e0|                        ff ff ff ff bb f8 b1 40|        .......@|      [8]: "1933-11-01T04:00:00Z" (-1141329600) transition_time 0x2e8-0x2f0 (8)
0x2f0|ff ff ff ff bc 96 d7 30                        |.......0        |      [9]: "1934-03-01T03:00:00Z" (-1130965200) transition_time 0x2f0-0x2f8 (8)
0x2f0|                        ff ff ff ff bd d9 e4 c0|        ........|      [10]: "1934-11-01T04:00:00Z" (-1109793600) transition_time 0x2f8-0x300 (8)
0x300|ff ff ff ff be 78 0a b0                        |.....x..        |      [11]: "1935-03-01T03:00:00Z" (-1099429200) transition_time 0x300-0x308 (8)
0x300|                        ff ff ff ff bf bb 18 40|        .......@|      [12]: "1935-11-01T04:00:00Z" (-1078257600) transition_time 0x308-0x310 (8)
0x310|ff ff ff ff c0 5a 8f b0                        |.....Z..        |      [13]: "1936-03-01T03:00:00Z" (-1067806800) transition_time 0x310-0x318 (8)
0x310|                        ff ff ff ff c1 9d 9d 40|        .......@|      [14]: "1936-11-01T04:00:00Z" (-1046635200) transition_time 0x318-0x320 (8)
0x320|ff ff ff ff c2 3b c3 30                        |.....;.0        |      [15]: "1937-03-01T03:00:00Z" (-1036270800) transition_time 0x320-0x328 (8)
0x320|                        ff ff ff ff c3 7e d0 c0|        .....~..|      [16]: "1937-11-01T04:00:00Z" (-1015099200) transition_time 0x328-0x330 (8)
0x330|ff ff ff ff c4 1c f6 b0                        |........        |      [17]: "1938-03-01T03:00:00Z" (-1004734800) transition_time 0x330-0x338 (8)
0x330|                        ff ff ff ff c5 60 04 40|        .....`.@|      [18]: "1938-11-01T04:00:00Z" (-983563200) transition_time 0x338-0x340 (8)
0x340|ff ff ff ff c5 fe 2a 30                        |......*0        |      [19]: "1939-03-01T03:00:00Z" (-973198800) transition_time 0x340-0x348 (8)
0x340|                        ff ff ff ff c7 41 37 c0|        .....A7.|      [20]: "1939-11-01T04:00:00Z" (-952027200) transition_time 0x348-0x350 (8)
0x350|ff ff ff ff c7 e0 af 30                        |.......0        |      [21]: "1940-03-01T03:00:00Z" (-941576400) transition_time 0x350-0x358 (8)
0x350|                        ff ff ff ff c8 81 94 40|        .......@|      [22]: "1940-07-01T04:00:00Z" (-931032000) transition_time 0x358-0x360 (8)
0x360|ff ff ff ff ca 4d a1 b0                        |.....M..        |      [23]: "1941-06-15T03:00:00Z" (-900882000) transition_time 0x360-0x368 (8)
0x360|                        ff ff ff ff ca ee 86 c0|        ........|      [24]: "1941-10-15T04:00:00Z" (-890337600) transition_time 0x368-0x370 (8)
0x370|ff ff ff ff ce 4d ff 30                        |.....M.0        |      [25]: "1943-08-01T03:00:00Z" (-833749200) transition_time 0x370-0x378 (8)
0x370|                        ff ff ff ff ce b0 ed c0|        ........|      [26]: "1943-10-15T04:00:00Z" (-827265600) transition_time 0x378-0x380 (8)
0x380|ff ff ff ff d3 29 35 b0                        |.....)5.        |      [27]: "1946-03-01T03:00:00Z" (-752274000) transition_time 0x380-0x388 (8)
0x380|                        ff ff ff ff d4 43 64 c0|        .....Cd.|      [28]: "1946-10-01T04:00:00Z" (-733780800) transition_time 0x388-0x390 (8)
0x390|ff ff ff ff f4 3d 08 30                        |.....=.0        |      [29]: "1963-10-01T03:00:00Z" (-197326800) transition_time 0x390-0x398 (8)
0x390|                        ff ff ff ff f4 9f f6 c0|        ........|      [30]: "1963-12-15T04:00:00Z" (-190843200) transition_time 0x398-0x3a0 (8)
0x3a0|ff ff ff ff f5 05 6c 30                        |......l0        |      [31]: "1964-03-01T03:00:00Z" (-184194000) transition_time 0x3a0-0x3a8 (8)
0x3a0|                        ff ff ff ff f6 32 10 40|        .....2.@|      [32]: "1964-10-15T04:00:00Z" (-164491200) transition_time 0x3a8-0x3b0 (8)
0x3b0|ff ff ff ff f6 e6 9f b0                        |........        |      [33]: "1965-03-01T03:00:00Z" (-152658000) transition_time 0x3b0-0x3b8 (8)
0x3b0|                        ff ff ff ff f8 13 43 c0|        ......C.|      [34]: "1965-10-15T04:00:00Z" (-132955200) transition_time 0x3b8-0x3c0 (8)
0x3c0|ff ff ff ff f8 c7 d3 30                        |.......0        |      [35]: "1966-03-01T03:00:00Z" (-121122000) transition_time 0x3c0-0x3c8 (8)
0x3c0|                        ff ff ff ff f9 f4 77 40|        ......w@|      [36]: "1966-10-15T04:00:00Z" (-101419200) transition_time 0x3c8-0x3d0 (8)
0x3d0|ff ff ff ff fa d3 36 b0                        |......6.        |      [37]: "1967-04-02T03:00:00Z" (-86821200) transition_time 0x3d0-0x3d8 (8)
0x3d0|                        ff ff ff ff fb c3 35 c0|        ......5.|      [38]: "1967-10-01T04:00:00Z" (-71092800) transition_time 0x3d8-0x3e0 (8)
0x3e0|ff ff ff ff fc bc 53 30                        |......S0        |      [39]: "1968-04-07T03:00:00Z" (-54766800) transition_time 0x3e0-0x3e8 (8)
0x3e0|                        ff ff ff ff fd ac 52 40|        ......R@|      [40]: "1968-10-06T04:00:00Z" (-39038400) transition_time 0x3e8-0x3f0 (8)
0x3f0|ff ff ff ff fe 9c 35 30                        |......50        |      [41]: "1969-04-06T03:00:00Z" (-23317200) transition_time 0x3f0-0x3f8 (8)
0x3f0|                        ff ff ff ff ff 8c 34 40|        ......4@|      [42]: "1969-10-05T04:00:00Z" (-7588800) transition_time 0x3f8-0x400 (8)
0x400|00 00 00 00 07 a3 4a b3                        |......J.        |      [43]: "1974-01-23T03:00:03Z" (128142003) transition_time 0x400-0x408 (8)
0x400|                        00 00 00 00 08 24 6f a3|        .....$o.|      [44]: "1974-05-01T02:00:03Z" (136605603) transition_time 0x408-0x410 (8)
0x410|00 00 00 00 23 94 b5 be                        |....#...        |      [45]: "1988-12-01T03:00:14Z" (596948414) transition_time 0x410-0x418 (8)
0x410|                        00 00 00 00 24 10 94 ae|        ....$...|      [46]: "1989-03-05T02:00:14Z" (605066414) transition_time 0x418-0x420 (8)
0x420|00 00 00 00 25 37 f2 be                        |....%7..        |      [47]: "1989-10-15T03:00:14Z" (624423614) transition_time 0x420-0x428 (8)
0x420|                        00 00 00 00 25 f0 76 af|        ....%.v.|      [48]: "1990-03-04T02:00:15Z" (636516015) transition_time 0x428-0x430 (8)
0x430|00 00 00 00 27 21 0f 3f                        |....'!.?        |      [49]: "1990-10-21T03:00:15Z" (656478015) transition_time 0x430-0x438 (8)
0x430|                        00 00 00 00 27 d0 58 b0|        ....'.X.|      [50]: "1991-03-03T02:00:16Z" (667965616) transition_time 0x438-0x440 (8)
0x440|00 00 00 00 29 00 ff 50                        |....)..P        |      [51]: "1991-10-20T04:00:16Z" (687931216) transition_time 0x440-0x448 (8)
0x440|                        00 00 00 00 29 b0 3a b0|        ....).:.|      [52]: "1992-03-01T02:00:16Z" (699415216) transition_time 0x448-0x450 (8)
0x450|00 00 00 00 2a e0 d3 41                        |....*..A        |      [53]: "1992-10-18T03:00:17Z" (719377217) transition_time 0x450-0x458 (8)
0x450|                        00 00 00 00 2b 99 57 31|        ....+.W1|      [54]: "1993-03-07T02:00:17Z" (731469617) transition_time 0x458-0x460 (8)
0x460|00 00 00 00 37 f6 c6 c6                        |....7...        |      [55]: "1999-10-03T03:00:22Z" (938919622) transition_time 0x460-0x468 (8)
0x460|                        00 00 00 00 38 bf 2a c6|        ....8.*.|      [56]: "2000-03-03T03:00:22Z" (952052422) transition_time 0x468-0x470 (8)
0x470|00 00 00 00 40 bb f1 46                        |....@..F        |      [57]: "2004-06-01T03:00:22Z" (1086058822) transition_time 0x470-0x478 (8)
0x470|                        00 00 00 00 40 cb d1 56|        ....@..V|      [58]: "2004-06-13T04:00:22Z" (1087099222) transition_time 0x478-0x480 (8)
0x480|00 00 00 00 47 77 09 c7                        |....Gw..        |      [59]: "2007-12-30T03:00:23Z" (1198983623) transition_time 0x480-0x488 (8)
0x480|                        00 00 00 00 47 dc 7f 37|        ....G..7|      [60]: "2008-03-16T02:00:23Z" (1205632823) transition_time 0x488-0x490 (8)
0x490|00 00 00 00 48 fa a2 c7                        |....H...        |      [61]: "2008-10-19T03:00:23Z" (1224385223) transition_time 0x490-0x498 (8)
0x490|                        00 00 00 00 49 bc 61 38|        ....I.a8|      [62]: "2009-03-15T02:00:24Z" (1237082424) transition_time 0x498-0x4a0 (8)
0x4a0|00 00 00 00 64 9b 78 1b                        |....d.x.        |      [63]: "2023-06-28T00:00:27Z" (1687910427) transition_time 0x4a0-0x4a8 (8)
     |                                               |                |    transition_types[0:64]: 0x4a8-0x4e8 (64)
0x4a0|                        01                     |        .       |      [0]: 1 transition_type 0x4a8-0x4a9 (1)
0x4a0|                           02                  |         .      |      [1]: 2 transition_type 0x4a9-0x4aa (1)
0x4a0|                              03               |          .     |      [2]: 3 transition_type 0x4aa-0x4ab (1)
0x4a0|                                 02            |           .    |      [3]: 2 transition_type 0x4ab-0x4ac (1)
0x4a0|                                    03         |            .   |      [4]: 3 transition_type 0x4ac-0x4ad (1)
0x4a0|                                       02      |             .  |      [5]: 2 transition_type 0x4ad-0x4ae (1)
0x4a0|                                          03   |              . |      [6]: 3 transition_type 0x4ae-0x4af (1)
0x4a0|                                             02|               .|      [7]: 2 transition_type 0x4af-0x4b0 (1)
0x4b0|03                                             |.               |      [8]: 3 transition_type 0x4b0-0x4b1 (1)
0x4b0|   02                                          | .              |      [9]: 2 transition_type 0x4b1-0x4b2 (1)
0x4b0|      03                                       |  .             |      [10]: 3 transition_type 0x4b2-0x4b3 (1)
0x4b0|         02                                    |   .            |      [11]: 2 transition_type 0x4b3-0x4b4 (1)
0x4b0|            03                                 |    .           |      [12]: 3 transition_type 0x4b4-0x4b5 (1)
0x4b0|               02                              |     .          |      [13]: 2 transition_type 0x4b5-0x4b6 (1)
0x4b0|                  03                           |      .         |      [14]: 3 transition_type 0x4b6-0x4b7 (1)
0x4b0|                     02                        |       .        |      [15]: 2 transition_type 0x4b7-0x4b8 (1)
0x4b0|                        03                     |        .       |      [16]: 3 transition_type 0x4b8-0x4b9 (1)
0x4b0|                           02                  |         .      |      [17]: 2 transition_type 0x4b9-0x4ba (1)
0x4b0|                              03               |          .     |      [18]: 3 transition_type 0x4ba-0x4bb (1)
0x4b0|                                 02            |           .    |      [19]: 2 transition_type 0x4bb-0x4bc (1)
0x4b0|                                    03         |            .   |      [20]: 3 transition_type 0x4bc-0x4bd (1)
0x4b0|                                       02      |             .  |      [21]: 2 transition_type 0x4bd-0x4be (1)
0x4b0|                                          03   |              . |      [22]: 3 transition_type 0x4be-0x4bf (1)
0x4b0|                                             02|               .|      [23]: 2 transition_type 0x4bf-0x4c0 (1)
0x4c0|03                                             |.               |      [24]: 3 transition_type 0x4c0-0x4c1 (1)
0x4c0|   02                                          | .              |      [25]: 2 transition_type 0x4c1-0x4c2 (1)
0x4c0|      03                                       |  .             |      [26]: 3 transition_type 0x4c2-0x4c3 (1)
0x4c0|         02                                    |   .            |      [27]: 2 transition_type 0x4c3-0x4c4 (1)
0x4c0|            03                                 |    .           |      [28]: 3 transition_type 0x4c4-0x4c5 (1)
0x4c0|               02                              |     .          |      [29]: 2 transition_type 0x4c5-0x4c6 (1)
0x4c0|                  03                           |      .         |      [30]: 3 transition_type 0x4c6-0x4c7 (1)
0x4c0|                     02                        |       .        |      [31]: 2 transition_type 0x4c7-0x4c8 (1)
0x4c0|                        03                     |        .       |      [32]: 3 transition_type 0x4c8-0x4c9 (1)
0x4c0|                           02                  |         .      |      [33]: 2 transition_type 0x4c9-0x4ca (1)
0x4c0|                              03               |          .     |      [34]: 3 transition_type 0x4ca-0x4cb (1)
0x4c0|                                 02            |           .    |      [35]: 2 transition_type 0x4cb-0x4cc (1)
0x4c0|                                    03         |            .   |      [36]: 3 transition_type 0x4cc-0x4cd (1)
0x4c0|                                       02      |             .  |      [37]: 2 transition_type 0x4cd-0x4ce (1)
0x4c0|                                          03   |              . |      [38]: 3 transition_type 0x4ce-0x4cf (1)
0x4c0|                                             02|               .|      [39]: 2 transition_type 0x4cf-0x4d0 (1)
0x4d0|03                                             |.               |      [40]: 3 transition_type 0x4d0-0x4d1 (1)
0x4d0|   02                                          | .              |      [41]: 2 transition_type 0x4d1-0x4d2 (1)
0x4d0|      05                                       |  .             |      [42]: 5 transition_type 0x4d2-0x4d3 (1)
0x4d0|         04                                    |   .            |      [43]: 4 transition_type 0x4d3-0x4d4 (1)
0x4d0|            05                                 |    .           |      [44]: 5 transition_type 0x4d4-0x4d5 (1)
0x4d0|               04                              |     .          |      [45]: 4 transition_type 0x4d5-0x4d6 (1)
0x4d0|                  05                           |      .         |      [46]: 5 transition_type 0x4d6-0x4d7 (1)
0x4d0|                     04                        |       .        |      [47]: 4 transition_type 0x4d7-0x4d8 (1)
0x4d0|                        05                     |        .       |      [48]: 5 transition_type 0x4d8-0x4d9 (1)
0x4d0|                           04                  |         .      |      [49]: 4 transition_type 0x4d9-0x4da (1)
0x4d0|                              02               |          .     |      [50]: 2 transition_type 0x4da-0x4db (1)
0x4d0|                                 04            |           .    |      [51]: 4 transition_type 0x4db-0x4dc (1)
0x4d0|                                    05         |            .   |      [52]: 5 transition_type 0x4dc-0x4dd (1)
0x4d0|                                       04      |             .  |      [53]: 4 transition_type 0x4dd-0x4de (1)
0x4d0|                                          05   |              . |      [54]: 5 transition_type 0x4de-0x4df (1)
0x4d0|                                             03|               .|      [55]: 3 transition_type 0x4df-0x4e0 (1)
0x4e0|05                                             |.               |      [56]: 5 transition_type 0x4e0-0x4e1 (1)
0x4e0|   02                                          | .              |      [57]: 2 transition_type 0x4e1-0x4e2 (1)
0x4e0|      05                                       |  .             |      [58]: 5 transition_type 0x4e2-0x4e3 (1)
0x4e0|         04                                    |   .            |      [59]: 4 transition_type 0x4e3-0x4e4 (1)
0x4e0|            05                                 |    .           |      [60]: 5 transition_type 0x4e4-0x4e5 (1)
0x4e0|               04                              |     .          |      [61]: 4 transition_type 0x4e5-0x4e6 (1)
0x4e0|                  05                           |      .         |      [62]: 5 transition_type 0x4e6-0x4e7 (1)
0x4e0|                     05                        |       .        |      [63]: 5 transition_type 0x4e7-0x4e8 (1)
     |                                               |                |    local_time_type_records[0:6]: 0x4e8-0x50c (36)
     |                                               |                |      [0]{}: local_time_type 0x4e8-0x4ee (6)
0x4e0|                        ff ff c2 dc            |        ....    |        utoff: -15652 (valid) 0x4e8-0x4ec (4)
0x4e0|                                    00         |            .   |        dst: 0 (valid) 0x4ec-0x4ed (1)
0x4e0|                                       00      |             .  |        idx: 0 (valid) 0x4ed-0x4ee (1)
     |                                               |                |      [1]{}: local_time_type 0x4ee-0x4f4 (6)
0x4e0|                                          ff ff|              ..|        utoff: -15408 (valid) 0x4ee-0x4f2 (4)
0x4f0|c3 d0                                          |..              |
0x4f0|      00                                       |  .             |        dst: 0 (valid) 0x4f2-0x4f3 (1)
0x4f0|         04                                    |   .            |        idx: 4 (valid) 0x4f3-0x4f4 (1)
     |                                               |                |      [2]{}: local_time_type 0x4f4-0x4fa (6)
0x4f0|            ff ff c7 c0                        |    ....        |        utoff: -14400 (valid) 0x4f4-0x4f8 (4)
0x4f0|                        00                     |        .       |        dst: 0 (valid) 0x4f8-0x4f9 (1)
0x4f0|                           08                  |         .      |        idx: 8 (valid) 0x4f9-0x4fa (1)
     |                                               |                |      [3]{}: local_time_type 0x4fa-0x500 (6)
0x4f0|                              ff ff d5 d0      |          ....  |        utoff: -10800 (valid) 0x4fa-0x4fe (4)
0x4f0|                                          01   |              . |        dst: 1 (valid) 0x4fe-0x4ff (1)
0x4f0|                                             0c|               .|        idx: 12 (valid) 0x4ff-0x500 (1)
     |                                               |                |      [4]{}: local_time_type 0x500-0x506 (6)
0x500|ff ff e3 e0                                    |....            |        utoff: -7200 (valid) 0x500-0x504 (4)
0x500|            01                                 |    .           |        dst: 1 (valid) 0x504-0x505 (1)
0x500|               10                              |     .          |        idx: 16 (valid) 0x505-0x506 (1)
     |                                               |                |      [5]{}: local_time_type 0x506-0x50c (6)
0x500|                  ff ff d5 d0                  |      ....      |        utoff: -10800 (valid) 0x506-0x50a (4)
0x500|                              00               |          .     |        dst: 0 (valid) 0x50a-0x50b (1)
0x500|                                 0c            |           .    |        idx: 12 (valid) 0x50b-0x50c (1)
     |                                               |                |    time_zone_designations[0:5]: 0x50c-0x520 (20)
0x500|                                    4c 4d 54 00|            LMT.|      [0]: "LMT" time_zone_designation 0x50c-0x510 (4)
0x510|43 4d 54 00                                    |CMT.            |      [1]: "CMT" time_zone_designation 0x510-0x514 (4)
0x510|            2d 30 34 00                        |    -04.        |      [2]: "-04" time_zone_designation 0x514-0x518 (4)
0x510|                        2d 30 33 00            |        -03.    |      [3]: "-03" time_zone_designation 0x518-0x51c (4)
0x510|                                    2d 30 32 00|            -02.|      [4]: "-02" time_zone_designation 0x51c-0x520 (4)
     |                                               |                |    leap_second_records[0:27]: 0x520-0x664 (324)
     |                                               |                |      [0]{}: leap_second_record 0x520-0x52c (12)
0x520|00 00 00 00 04 b2 58 00                        |......X.        |        occur: "1972-07-01T00:00:00Z" (78796800) 0x520-0x528 (8)
0x520|                        00 00 00 01            |        ....    |        corr: 1 0x528-0x52c (4)
     |                                               |                |      [1]{}: leap_second_record 0x52c-0x538 (12)
0x520|                                    00 00 00 00|            ....|        occur: "1973-01-01T00:00:01Z" (94694401) 0x52c-0x534 (8)
0x530|05 a4 ec 01                                    |....            |
0x530|            00 00 00 02                        |    ....        |        corr: 2 0x534-0x538 (4)
     |                                               |                |      [2]{}: leap_second_record 0x538-0x544 (12)
0x530|                        00 00 00 00 07 86 1f 82|        ........|        occur: "1974-01-01T00:00:02Z" (126230402) 0x538-0x540 (8)
0x540|00 00 00 03                                    |....            |        corr: 3 0x540-0x544 (4)
     |                                               |                |      [3]{}: leap_second_record 0x544-0x550 (12)
0x540|            00 00 00 00 09 67 53 03            |    .....gS.    |        occur: "1975-01-01T00:00:03Z" (157766403) 0x544-0x54c (8)
0x540|                                    00 00 00 04|            ....|        corr: 4 0x54c-0x550 (4)
     |                                               |                |      [4]{}: leap_second_record 0x550-0x55c (12)
0x550|00 00 00 00 0b 48 86 84                        |.....H..        |        occur: "1976-01-01T00:00:04Z" (189302404) 0x550-0x558 (8)
0x550|                        00 00 00 05            |        ....    |        corr: 5 0x558-0x55c (4)
     |                                               |                |      [5]{}: leap_second_record 0x55c-0x568 (12)
0x550|                                    00 00 00 00|            ....|        occur: "1977-01-01T00:00:05Z" (220924805) 0x55c-0x564 (8)
0x560|0d 2b 0b 85                                    |.+..            |
0x560|            00 00 00 06                        |    ....        |        corr: 6 0x564-0x568 (4)
     |                                               |                |      [6]{}: leap_second_record 0x568-0x574 (12)
0x560|                        00 00 00 00 0f 0c 3f 06|        ......?.|        occur: "1978-01-01T00:00:06Z" (252460806) 0x568-0x570 (8)
0x570|00 00 00 07                                    |....            |        corr: 7 0x570-0x574 (4)
     |                                               |                |      [7]{}: leap_second_record 0x574-0x580 (12)
0x570|            00 00 00 00 10 ed 72 87            |    ......r.    |        occur: "1979-01-01T00:00:07Z" (283996807) 0x574-0x57c (8)
0x570|                                    00 00 00 08|            ....|        corr: 8 0x57c-0x580 (4)
     |                                               |                |      [8]{}: leap_second_record 0x580-0x58c (12)
0x580|00 00 00 00 12 ce a6 08                        |........        |        occur: "1980-01-01T00:00:08Z" (315532808) 0x580-0x588 (8)
0x580|                        00 00 00 09            |        ....    |        corr: 9 0x588-0x58c (4)
     |                                               |                |      [9]{}: leap_second_record 0x58c-0x598 (12)
0x580|                                    00 00 00 00|            ....|        occur: "1981-07-01T00:00:09Z" (362793609) 0x58c-0x594 (8)
0x590|15 9f ca 89                                    |....            |
0x590|            00 00 00 0a                        |    ....        |        corr: 10 0x594-0x598 (4)
     |                                               |                |      [10]{}: leap_second_record 0x598-0x5a4 (12)
0x590|                        00 00 00 00 17 80 fe 0a|        ........|        occur: "1982-07-01T00:00:10Z" (394329610) 0x598-0x5a0 (8)
0x5a0|00 00 00 0b                                    |....            |        corr: 11 0x5a0-0x5a4 (4)
     |                                               |                |      [11]{}: leap_second_record 0x5a4-0x5b0 (12)
0x5a0|            00 00 00 00 19 62 31 8b            |    .....b1.    |        occur: "1983-07-01T00:00:11Z" (425865611) 0x5a4-0x5ac (8)
0x5a0|                                    00 00 00 0c|            ....|        corr: 12 0x5ac-0x5b0 (4)
     |                                               |                |      [12]{}: leap_second_record 0x5b0-0x5bc (12)
0x5b0|00 00 00 00 1d 25 ea 0c                        |.....%..        |        occur: "1985-07-01T00:00:12Z" (489024012) 0x5b0-0x5b8 (8)
0x5b0|                        00 00 00 0d            |        ....    |        corr: 13 0x5b8-0x5bc (4)
     |                                               |                |      [13]{}: leap_second_record 0x5bc-0x5c8 (12)
0x5b0|                                    00 00 00 00|            ....|        occur: "1988-01-01T00:00:13Z" (567993613) 0x5bc-0x5c4 (8)
0x5c0|21 da e5 0d                                    |!...            |
0x5c0|            00 00 00 0e                        |    ....        |        corr: 14 0x5c4-0x5c8 (4)
     |                                               |                |      [14]{}: leap_second_record 0x5c8-0x5d4 (12)
0x5c0|                        00 00 00 00 25 9e 9d 8e|        ....%...|        occur: "1990-01-01T00:00:14Z" (631152014) 0x5c8-0x5d0 (8)
0x5d0|00 00 00 0f                                    |....            |        corr: 15 0x5d0-0x5d4 (4)
     |                                               |                |      [15]{}: leap_second_record 0x5d4-0x5e0 (12)
0x5d0|            00 00 00 00 27 7f d1 0f            |    ....'...    |        occur: "1991-01-01T00:00:15Z" (662688015) 0x5d4-0x5dc (8)
0x5d0|                                    00 00 00 10|            ....|        corr: 16 0x5dc-0x5e0 (4)
     |                                               |                |      [16]{}: leap_second_record 0x5e0-0x5ec (12)
0x5e0|00 00 00 00 2a 50 f5 90                        |....*P..        |        occur: "1992-07-01T00:00:16Z" (709948816) 0x5e0-0x5e8 (8)
0x5e0|                        00 00 00 11            |        ....    |        corr: 17 0x5e8-0x5ec (4)
     |                                               |                |      [17]{}: leap_second_record 0x5ec-0x5f8 (12)
0x5e0|                                    00 00 00 00|            ....|        occur: "1993-07-01T00:00:17Z" (741484817) 0x5ec-0x5f4 (8)
0x5f0|2c 32 29 11                                    |,2).            |
0x5f0|            00 00 00 12                        |    ....        |        corr: 18 0x5f4-0x5f8 (4)
     |                                               |                |      [18]{}: leap_second_record 0x5f8-0x604 (12)
0x5f0|                        00 00 00 00 2e 13 5c 92|        ......\.|        occur: "1994-07-01T00:00:18Z" (773020818) 0x5f8-0x600 (8)
0x600|00 00 00 13                                    |....            |        corr: 19 0x600-0x604 (4)
     |                                               |                |      [19]{}: leap_second_record 0x604-0x610 (12)
0x600|            00 00 00 00 30 e7 24 13            |    ....0.$.    |        occur: "1996-01-01T00:00:19Z" (820454419) 0x604-0x60c (8)
0x600|                                    00 00 00 14|            ....|        corr: 20 0x60c-0x610 (4)
     |                                               |                |      [20]{}: leap_second_record 0x610-0x61c (12)
0x610|00 00 00 00 33 b8 48 94                        |....3.H.        |        occur: "1997-07-01T00:00:20Z" (867715220) 0x610-0x618 (8)
0x610|                        00 00 00 15            |        ....    |        corr: 21 0x618-0x61c (4)
     |                                               |                |      [21]{}: leap_second_record 0x61c-0x628 (12)
0x610|                                    00 00 00 00|            ....|        occur: "1999-01-01T00:00:21Z" (915148821) 0x61c-0x624 (8)
0x620|36 8c 10 15                                    |6...            |
0x620|            00 00 00 16                        |    ....        |        corr: 22 0x624-0x628 (4)
     |                                               |                |      [22]{}: leap_second_record 0x628-0x634 (12)
0x620|                        00 00 00 00 43 b7 1b 96|        ....C...|        occur: "2006-01-01T00:00:22Z" (1136073622) 0x628-0x630 (8)
0x630|00 00 00 17                                    |....            |        corr: 23 0x630-0x634 (4)
     |                                               |                |      [23]{}: leap_second_record 0x634-0x640 (12)
0x630|            00 00 00 00 49 5c 07 97            |    ....I\..    |        occur: "2009-01-01T00:00:23Z" (1230768023) 0x634-0x63c (8)
0x630|                                    00 00 00 18|            ....|        corr: 24 0x63c-0x640 (4)
     |                                               |                |      [24]{}: leap_second_record 0x640-0x64c (12)
0x640|00 00 00 00 4f ef 93 18                        |....O...        |        occur: "2012-07-01T00:00:24Z" (1341100824) 0x640-0x648 (8)
0x640|                        00 00 00 19            |        ....    |        corr: 25 0x648-0x64c (4)
     |                                               |                |      [25]{}: leap_second_record 0x64c-0x658 (12)
0x640|                                    00 00 00 00|            ....|        occur: "2015-07-01T00:00:25Z" (1435708825) 0x64c-0x654 (8)
0x650|55 93 2d 99                                    |U.-.            |
0x650|            00 00 00 1a                        |    ....        |        corr: 26 0x654-0x658 (4)
     |                                               |                |      [26]{}: leap_second_record 0x658-0x664 (12)
0x650|                        00 00 00 00 58 68 46 9a|        ....XhF.|        occur: "2017-01-01T00:00:26Z" (1483228826) 0x658-0x660 (8)
0x660|00 00 00 1b                                    |....            |        corr: 27 0x660-0x664 (4)
     |                                               |                |    standard_wall_indicators[0:0]: 0x664-0x664 (0)
     |                                               |                |    ut_local_indicators[0:0]: 0x664-0x664 (0)
     |                                               |                |  footer{}: 0x664-0x666 (2)
0x660|            0a                                 |    .           |    nl1: 10 (valid) 0x664-0x665 (1)
     |                                               |                |    tz_string: "" 0x665-0x665 (0)
0x660|               0a|                             |     .|         |    nl2: 10 (valid) 0x665-0x666 (1)
