$ fq -d tzif dv Ulyanovsk
     |00 01 02 03 04 05 06 07 08 09 0a 0b 0c 0d 0e 0f|0123456789abcdef|.{}: Ulyanovsk (tzif) 0x0-0x4f3 (1267)
     |                                               |                |  v1header{}: 0x0-0x2c (44)
0x000|54 5a 69 66                                    |TZif            |    magic: 0x545a6966 (valid) 0x0-0x4 (4)
0x000|            32                                 |    2           |    ver: "2" (0x32) (valid) 0x4-0x5 (1)
0x000|               00 00 00 00 00 00 00 00 00 00 00|     ...........|    reserved: raw bits 0x5-0x14 (15)
0x010|00 00 00 00                                    |....            |
0x010|            00 00 00 0c                        |    ....        |    isutcnt: 12 0x14-0x18 (4)
0x010|                        00 00 00 0c            |        ....    |    isstdcnt: 12 0x18-0x1c (4)
0x010|                                    00 00 00 00|            ....|    leapcnt: 0 0x1c-0x20 (4)
0x020|00 00 00 43                                    |...C            |    timecnt: 67 0x20-0x24 (4)
0x020|            00 00 00 0c                        |    ....        |    typecnt: 12 0x24-0x28 (4)
0x020|                        00 00 00 14            |        ....    |    charcnt: 20 0x28-0x2c (4)
     |                                               |                |  v1datablock{}: 0x2c-0x1ef (451)
     |                                               |                |    transition_times[0:67]: 0x2c-0x138 (268)
0x020|                                    a1 00 39 80|            ..9.|      [0]: "1919-07-01T00:00:00Z" (-1593820800) transition_time 0x2c-0x30 (4)
0x030|b5 a4 0b 50                                    |...P            |      [1]: "1930-06-20T21:00:00Z" (-1247540400) transition_time 0x30-0x34 (4)
0x030|            15 27 99 c0                        |    .'..        |      [2]: "1981-03-31T20:00:00Z" (354916800) transition_time 0x34-0x38 (4)
0x030|                        16 18 ce 30            |        ...0    |      [3]: "1981-09-30T19:00:00Z" (370724400) transition_time 0x38-0x3c (4)
0x030|                                    17 08 cd 40|            ...@|      [4]: "1982-03-31T20:00:00Z" (386452800) transition_time 0x3c-0x40 (4)
0x040|17 fa 01 b0                                    |....            |      [5]: "1982-09-30T19:00:00Z" (402260400) transition_time 0x40-0x44 (4)
0x040|            18 ea 00 c0                        |    ....        |      [6]: "1983-03-31T20:00:00Z" (417988800) transition_time 0x44-0x48 (4)
0x040|                        19 db 35 30            |        ..50    |      [7]: "1983-09-30T19:00:00Z" (433796400) transition_time 0x48-0x4c (4)
0x040|                                    1a cc 85 c0|            ....|      [8]: "1984-03-31T20:00:00Z" (449611200) transition_time 0x4c-0x50 (4)
0x050|1b bc 92 e0                                    |....            |      [9]: "1984-09-29T22:00:00Z" (465343200) transition_time 0x50-0x54 (4)
0x050|            1c ac 83 e0                        |    ....        |      [10]: "1985-03-30T22:00:00Z" (481068000) transition_time 0x54-0x58 (4)
0x050|                        1d 9c 74 e0            |        ..t.    |      [11]: "1985-09-28T22:00:00Z" (496792800) transition_time 0x58-0x5c (4)
0x050|                                    1e 8c 65 e0|            ..e.|      [12]: "1986-03-29T22:00:00Z" (512517600) transition_time 0x5c-0x60 (4)
0x060|1f 7c 56 e0                                    |.|V.            |      [13]: "1986-09-27T22:00:00Z" (528242400) transition_time 0x60-0x64 (4)
0x060|            20 6c 47 e0                        |     lG.        |      [14]: "1987-03-28T22:00:00Z" (543967200) transition_time 0x64-0x68 (4)
0x060|                        21 5c 38 e0            |        !\8.    |      [15]: "1987-09-26T22:00:00Z" (559692000) transition_time 0x68-0x6c (4)
0x060|                                    22 4c 29 e0|            "L).|      [16]: "1988-03-26T22:00:00Z" (575416800) transition_time 0x6c-0x70 (4)
0x070|23 3c 1a e0                                    |#<..            |      [17]: "1988-09-24T22:00:00Z" (591141600) transition_time 0x70-0x74 (4)
0x070|            24 2c 0b e0                        |    $,..        |      [18]: "1989-03-25T22:00:00Z" (606866400) transition_time 0x74-0x78 (4)
0x070|                        25 1c 0a f0            |        %...    |      [19]: "1989-09-23T23:00:00Z" (622594800) transition_time 0x78-0x7c (4)
0x070|                                    26 0b fb f0|            &...|      [20]: "1990-03-24T23:00:00Z" (638319600) transition_time 0x7c-0x80 (4)
0x080|27 05 27 70                                    |'.'p            |      [21]: "1990-09-29T23:00:00Z" (654649200) transition_time 0x80-0x84 (4)
0x080|            27 f5 18 70                        |    '..p        |      [22]: "1991-03-30T23:00:00Z" (670374000) transition_time 0x84-0x88 (4)
0x080|                        28 e5 17 80            |        (...    |      [23]: "1991-09-29T00:00:00Z" (686102400) transition_time 0x88-0x8c (4)
0x080|                                    29 78 bf 80|            )x..|      [24]: "1992-01-19T00:00:00Z" (695779200) transition_time 0x8c-0x90 (4)
0x090|29 d4 fa 70                                    |)..p            |      [25]: "1992-03-28T23:00:00Z" (701823600) transition_time 0x90-0x94 (4)
0x090|            2a c4 eb 70                        |    *..p        |      [26]: "1992-09-26T23:00:00Z" (717548400) transition_time 0x94-0x98 (4)
0x090|                        2b b4 dc 70            |        +..p    |      [27]: "1993-03-27T23:00:00Z" (733273200) transition_time 0x98-0x9c (4)
0x090|                                    2c a4 cd 70|            ,..p|      [28]: "1993-09-25T23:00:00Z" (748998000) transition_time 0x9c-0xa0 (4)
0x0a0|2d 94 be 70                                    |-..p            |      [29]: "1994-03-26T23:00:00Z" (764722800) transition_time 0xa0-0xa4 (4)
0x0a0|            2e 84 af 70                        |    ...p        |      [30]: "1994-09-24T23:00:00Z" (780447600) transition_time 0xa4-0xa8 (4)
0x0a0|                        2f 74 a0 70            |        /t.p    |      [31]: "1995-03-25T23:00:00Z" (796172400) transition_time 0xa8-0xac (4)
0x0a0|                                    30 64 91 70|            0d.p|      [32]: "1995-09-23T23:00:00Z" (811897200) transition_time 0xac-0xb0 (4)
0x0b0|31 5d bc f0                                    |1]..            |      [33]: "1996-03-30T23:00:00Z" (828226800) transition_time 0xb0-0xb4 (4)
0x0b0|            32 72 97 f0                        |    2r..        |      [34]: "1996-10-26T23:00:00Z" (846370800) transition_time 0xb4-0xb8 (4)
0x0b0|                        33 3d 9e f0            |        3=..    |      [35]: "1997-03-29T23:00:00Z" (859676400) transition_time 0xb8-0xbc (4)
0x0b0|                                    34 52 79 f0|            4Ry.|      [36]: "1997-10-25T23:00:00Z" (877820400) transition_time 0xbc-0xc0 (4)
0x0c0|35 1d 80 f0                                    |5...            |      [37]: "1998-03-28T23:00:00Z" (891126000) transition_time 0xc0-0xc4 (4)
0x0c0|            36 32 5b f0                        |    62[.        |      [38]: "1998-10-24T23:00:00Z" (909270000) transition_time 0xc4-0xc8 (4)
0x0c0|                        36 fd 62 f0            |        6.b.    |      [39]: "1999-03-27T23:00:00Z" (922575600) transition_time 0xc8-0xcc (4)
0x0c0|                                    38 1b 78 70|            8.xp|      [40]: "1999-10-30T23:00:00Z" (941324400) transition_time 0xcc-0xd0 (4)
0x0d0|38 dd 44 f0                                    |8.D.            |      [41]: "2000-03-25T23:00:00Z" (954025200) transition_time 0xd0-0xd4 (4)
0x0d0|            39 fb 5a 70                        |    9.Zp        |      [42]: "2000-10-28T23:00:00Z" (972774000) transition_time 0xd4-0xd8 (4)
0x0d0|                        3a bd 26 f0            |        :.&.    |      [43]: "2001-03-24T23:00:00Z" (985474800) transition_time 0xd8-0xdc (4)
0x0d0|                                    3b db 3c 70|            ;.<p|      [44]: "2001-10-27T23:00:00Z" (1004223600) transition_time 0xdc-0xe0 (4)
0x0e0|3c a6 43 70                                    |<.Cp            |      [45]: "2002-03-30T23:00:00Z" (1017529200) transition_time 0xe0-0xe4 (4)
0x0e0|            3d bb 1e 70                        |    =..p        |      [46]: "2002-10-26T23:00:00Z" (1035673200) transition_time 0xe4-0xe8 (4)
0x0e0|                        3e 86 25 70            |        >.%p    |      [47]: "2003-03-29T23:00:00Z" (1048978800) transition_time 0xe8-0xec (4)
0x0e0|                                    3f 9b 00 70|            ?..p|      [48]: "2003-10-25T23:00:00Z" (1067122800) transition_time 0xec-0xf0 (4)
0x0f0|40 66 07 70                                    |@f.p            |      [49]: "2004-03-27T23:00:00Z" (1080428400) transition_time 0xf0-0xf4 (4)
0x0f0|            41 84 1c f0                        |    A...        |      [50]: "2004-10-30T23:00:00Z" (1099177200) transition_time 0xf4-0xf8 (4)
0x0f0|                        42 45 e9 70            |        BE.p    |      [51]: "2005-03-26T23:00:00Z" (1111878000) transition_time 0xf8-0xfc (4)
0x0f0|                                    43 63 fe f0|            Cc..|      [52]: "2005-10-29T23:00:00Z" (1130626800) transition_time 0xfc-0x100 (4)
0x100|44 25 cb 70                                    |D%.p            |      [53]: "2006-03-25T23:00:00Z" (1143327600) transition_time 0x100-0x104 (4)
0x100|            45 43 e0 f0                        |    EC..        |      [54]: "2006-10-28T23:00:00Z" (1162076400) transition_time 0x104-0x108 (4)
0x100|                        46 05 ad 70            |        F..p    |      [55]: "2007-03-24T23:00:00Z" (1174777200) transition_time 0x108-0x10c (4)
0x100|                                    47 23 c2 f0|            G#..|      [56]: "2007-10-27T23:00:00Z" (1193526000) transition_time 0x10c-0x110 (4)
0x110|47 ee c9 f0                                    |G...            |      [57]: "2008-03-29T23:00:00Z" (1206831600) transition_time 0x110-0x114 (4)
0x110|            49 03 a4 f0                        |    I...        |      [58]: "2008-10-25T23:00:00Z" (1224975600) transition_time 0x114-0x118 (4)
0x110|                        49 ce ab f0            |        I...    |      [59]: "2009-03-28T23:00:00Z" (1238281200) transition_time 0x118-0x11c (4)
0x110|                                    4a e3 86 f0|            J...|      [60]: "2009-10-24T23:00:00Z" (1256425200) transition_time 0x11c-0x120 (4)
0x120|4b ae 8d f0                                    |K...            |      [61]: "2010-03-27T23:00:00Z" (1269730800) transition_time 0x120-0x124 (4)
0x120|            4c cc a3 70                        |    L..p        |      [62]: "2010-10-30T23:00:00Z" (1288479600) transition_time 0x124-0x128 (4)
0x120|                        4d 8e 6f f0            |        M.o.    |      [63]: "2011-03-26T23:00:00Z" (1301180400) transition_time 0x128-0x12c (4)
0x120|                                    54 4c 1d 60|            TL.`|      [64]: "2014-10-25T22:00:00Z" (1414274400) transition_time 0x12c-0x130 (4)
0x130|56 f7 14 70                                    |V..p            |      [65]: "2016-03-26T23:00:00Z" (1459033200) transition_time 0x130-0x134 (4)
0x130|            7f ff ff ff                        |    ....        |      [66]: "2038-01-19T03:14:07Z" (2147483647) transition_time 0x134-0x138 (4)
     |                                               |                |    transition_types[0:67]: 0x138-0x17b (67)
0x130|                        01                     |        .       |      [0]: 1 transition_type 0x138-0x139 (1)
0x130|                           03                  |         .      |      [1]: 3 transition_type 0x139-0x13a (1)
0x130|                              02               |          .     |      [2]: 2 transition_type 0x13a-0x13b (1)
0x130|                                 03            |           .    |      [3]: 3 transition_type 0x13b-0x13c (1)
0x130|                                    02         |            .   |      [4]: 2 transition_type 0x13c-0x13d (1)
0x130|                                       03      |             .  |      [5]: 3 transition_type 0x13d-0x13e (1)
0x130|                                          02   |              . |      [6]: 2 transition_type 0x13e-0x13f (1)
0x130|                                             03|               .|      [7]: 3 transition_type 0x13f-0x140 (1)
0x140|02                                             |.               |      [8]: 2 transition_type 0x140-0x141 (1)
0x140|   04                                          | .              |      [9]: 4 transition_type 0x141-0x142 (1)
0x140|      05                                       |  .             |      [10]: 5 transition_type 0x142-0x143 (1)
0x140|         04                                    |   .            |      [11]: 4 transition_type 0x143-0x144 (1)
0x140|            05                                 |    .           |      [12]: 5 transition_type 0x144-0x145 (1)
0x140|               04                              |     .          |      [13]: 4 transition_type 0x145-0x146 (1)
0x140|                  05                           |      .         |      [14]: 5 transition_type 0x146-0x147 (1)
0x140|                     04                        |       .        |      [15]: 4 transition_type 0x147-0x148 (1)
0x140|                        05                     |        .       |      [16]: 5 transition_type 0x148-0x149 (1)
0x140|                           04                  |         .      |      [17]: 4 transition_type 0x149-0x14a (1)
0x140|                              06               |          .     |      [18]: 6 transition_type 0x14a-0x14b (1)
0x140|                                 07            |           .    |      [19]: 7 transition_type 0x14b-0x14c (1)
0x140|                                    06         |            .   |      [20]: 6 transition_type 0x14c-0x14d (1)
0x140|                                       07      |             .  |      [21]: 7 transition_type 0x14d-0x14e (1)
0x140|                                          08   |              . |      [22]: 8 transition_type 0x14e-0x14f (1)
0x140|                                             09|               .|      [23]: 9 transition_type 0x14f-0x150 (1)
0x150|07                                             |.               |      [24]: 7 transition_type 0x150-0x151 (1)
0x150|   06                                          | .              |      [25]: 6 transition_type 0x151-0x152 (1)
0x150|      07                                       |  .             |      [26]: 7 transition_type 0x152-0x153 (1)
0x150|         06                                    |   .            |      [27]: 6 transition_type 0x153-0x154 (1)
0x150|            07                                 |    .           |      [28]: 7 transition_type 0x154-0x155 (1)
0x150|               06                              |     .          |      [29]: 6 transition_type 0x155-0x156 (1)
0x150|                  07                           |      .         |      [30]: 7 transition_type 0x156-0x157 (1)
0x150|                     06                        |       .        |      [31]: 6 transition_type 0x157-0x158 (1)
0x150|                        07                     |        .       |      [32]: 7 transition_type 0x158-0x159 (1)
0x150|                           06                  |         .      |      [33]: 6 transition_type 0x159-0x15a (1)
0x150|                              07               |          .     |      [34]: 7 transition_type 0x15a-0x15b (1)
0x150|                                 06            |           .    |      [35]: 6 transition_type 0x15b-0x15c (1)
0x150|                                    07         |            .   |      [36]: 7 transition_type 0x15c-0x15d (1)
0x150|                                       06      |             .  |      [37]: 6 transition_type 0x15d-0x15e (1)
0x150|                                          07   |              . |      [38]: 7 transition_type 0x15e-0x15f (1)
0x150|                                             06|               .|      [39]: 6 transition_type 0x15f-0x160 (1)
0x160|07                                             |.               |      [40]: 7 transition_type 0x160-0x161 (1)
0x160|   06                                          | .              |      [41]: 6 transition_type 0x161-0x162 (1)
0x160|      07                                       |  .             |      [42]: 7 transition_type 0x162-0x163 (1)
0x160|         06                                    |   .            |      [43]: 6 transition_type 0x163-0x164 (1)
0x160|            07                                 |    .           |      [44]: 7 transition_type 0x164-0x165 (1)
0x160|               06                              |     .          |      [45]: 6 transition_type 0x165-0x166 (1)
0x160|                  07                           |      .         |      [46]: 7 transition_type 0x166-0x167 (1)
0x160|                     06                        |       .        |      [47]: 6 transition_type 0x167-0x168 (1)
0x160|                        07                     |        .       |      [48]: 7 transition_type 0x168-0x169 (1)
0x160|                           06                  |         .      |      [49]: 6 transition_type 0x169-0x16a (1)
0x160|                              07               |          .     |      [50]: 7 transition_type 0x16a-0x16b (1)
0x160|                                 06            |           .    |      [51]: 6 transition_type 0x16b-0x16c (1)
0x160|                                    07         |            .   |      [52]: 7 transition_type 0x16c-0x16d (1)
0x160|                                       06      |             .  |      [53]: 6 transition_type 0x16d-0x16e (1)
0x160|                                          07   |              . |      [54]: 7 transition_type 0x16e-0x16f (1)
0x160|                                             06|               .|      [55]: 6 transition_type 0x16f-0x170 (1)
0x170|07                                             |.               |      [56]: 7 transition_type 0x170-0x171 (1)
0x170|   06                                          | .              |      [57]: 6 transition_type 0x171-0x172 (1)
0x170|      07                                       |  .             |      [58]: 7 transition_type 0x172-0x173 (1)
0x170|         06                                    |   .            |      [59]: 6 transition_type 0x173-0x174 (1)
0x170|            07                                 |    .           |      [60]: 7 transition_type 0x174-0x175 (1)
0x170|               06                              |     .          |      [61]: 6 transition_type 0x175-0x176 (1)
0x170|                  07                           |      .         |      [62]: 7 transition_type 0x176-0x177 (1)
0x170|                     04                        |       .        |      [63]: 4 transition_type 0x177-0x178 (1)
0x170|                        07                     |        .       |      [64]: 7 transition_type 0x178-0x179 (1)
0x170|                           04                  |         .      |      [65]: 4 transition_type 0x179-0x17a (1)
0x170|                              04               |          .     |      [66]: 4 transition_type 0x17a-0x17b (1)
     |                                               |                |    local_time_type_records[0:12]: 0x17b-0x1c3 (72)
     |                                               |                |      [0]{}: local_time_type 0x17b-0x181 (6)
0x170|                                 00 00 2d 60   |           ..-` |        utoff: 11616 (valid) 0x17b-0x17f (4)
0x170|                                             00|               .|        dst: 0 (valid) 0x17f-0x180 (1)
0x180|00                                             |.               |        idx: 0 (valid) 0x180-0x181 (1)
     |                                               |                |      [1]{}: local_time_type 0x181-0x187 (6)
0x180|   00 00 2a 30                                 | ..*0           |        utoff: 10800 (valid) 0x181-0x185 (4)
0x180|               00                              |     .          |        dst: 0 (valid) 0x185-0x186 (1)
0x180|                  04                           |      .         |        idx: 4 (valid) 0x186-0x187 (1)
     |                                               |                |      [2]{}: local_time_type 0x187-0x18d (6)
0x180|                     00 00 46 50               |       ..FP     |        utoff: 18000 (valid) 0x187-0x18b (4)
0x180|                                 01            |           .    |        dst: 1 (valid) 0x18b-0x18c (1)
0x180|                                    08         |            .   |        idx: 8 (valid) 0x18c-0x18d (1)
     |                                               |                |      [3]{}: local_time_type 0x18d-0x193 (6)
0x180|                                       00 00 38|             ..8|        utoff: 14400 (valid) 0x18d-0x191 (4)
0x190|40                                             |@               |
0x190|   00                                          | .              |        dst: 0 (valid) 0x191-0x192 (1)
0x190|      0c                                       |  .             |        idx: 12 (valid) 0x192-0x193 (1)
     |                                               |                |      [4]{}: local_time_type 0x193-0x199 (6)
0x190|         00 00 38 40                           |   ..8@         |        utoff: 14400 (valid) 0x193-0x197 (4)
0x190|                     00                        |       .        |        dst: 0 (valid) 0x197-0x198 (1)
0x190|                        0c                     |        .       |        idx: 12 (valid) 0x198-0x199 (1)
     |                                               |                |      [5]{}: local_time_type 0x199-0x19f (6)
0x190|                           00 00 46 50         |         ..FP   |        utoff: 18000 (valid) 0x199-0x19d (4)
0x190|                                       01      |             .  |        dst: 1 (valid) 0x19d-0x19e (1)
0x190|                                          08   |              . |        idx: 8 (valid) 0x19e-0x19f (1)
     |                                               |                |      [6]{}: local_time_type 0x19f-0x1a5 (6)
0x190|                                             00|               .|        utoff: 14400 (valid) 0x19f-0x1a3 (4)
0x1a0|00 38 40                                       |.8@             |
0x1a0|         01                                    |   .            |        dst: 1 (valid) 0x1a3-0x1a4 (1)
0x1a0|            0c                                 |    .           |        idx: 12 (valid) 0x1a4-0x1a5 (1)
     |                                               |                |      [7]{}: local_time_type 0x1a5-0x1ab (6)
0x1a0|               00 00 2a 30                     |     ..*0       |        utoff: 10800 (valid) 0x1a5-0x1a9 (4)
0x1a0|                           00                  |         .      |        dst: 0 (valid) 0x1a9-0x1aa (1)
0x1a0|                              04               |          .     |        idx: 4 (valid) 0x1aa-0x1ab (1)
     |                                               |                |      [8]{}: local_time_type 0x1ab-0x1b1 (6)
0x1a0|                                 00 00 2a 30   |           ..*0 |        utoff: 10800 (valid) 0x1ab-0x1af (4)
0x1a0|                                             01|               .|        dst: 1 (valid) 0x1af-0x1b0 (1)
0x1b0|04                                             |.               |        idx: 4 (valid) 0x1b0-0x1b1 (1)
     |                                               |                |      [9]{}: local_time_type 0x1b1-0x1b7 (6)
0x1b0|   00 00 1c 20                                 | ...            |        utoff: 7200 (valid) 0x1b1-0x1b5 (4)
0x1b0|               00                              |     .          |        dst: 0 (valid) 0x1b5-0x1b6 (1)
0x1b0|                  10                           |      .         |        idx: 16 (valid) 0x1b6-0x1b7 (1)
     |                                               |                |      [10]{}: local_time_type 0x1b7-0x1bd (6)
0x1b0|                     00 00 38 40               |       ..8@     |        utoff: 14400 (valid) 0x1b7-0x1bb (4)
0x1b0|                                 01            |           .    |        dst: 1 (valid) 0x1bb-0x1bc (1)
0x1b0|                                    0c         |            .   |        idx: 12 (valid) 0x1bc-0x1bd (1)
     |                                               |                |      [11]{}: local_time_type 0x1bd-0x1c3 (6)
0x1b0|                                       00 00 38|             ..8|        utoff: 14400 (valid) 0x1bd-0x1c1 (4)
0x1c0|40                                             |@               |
0x1c0|   00                                          | .              |        dst: 0 (valid) 0x1c1-0x1c2 (1)
0x1c0|      0c                                       |  .             |        idx: 12 (valid) 0x1c2-0x1c3 (1)
     |                                               |                |    time_zone_designations[0:5]: 0x1c3-0x1d7 (20)
0x1c0|         4c 4d 54 00                           |   LMT.         |      [0]: "LMT" time_zone_designation 0x1c3-0x1c7 (4)
0x1c0|                     2b 30 33 00               |       +03.     |      [1]: "+03" time_zone_designation 0x1c7-0x1cb (4)
0x1c0|                                 2b 30 35 00   |           +05. |      [2]: "+05" time_zone_designation 0x1cb-0x1cf (4)
0x1c0|                                             2b|               +|      [3]: "+04" time_zone_designation 0x1cf-0x1d3 (4)
0x1d0|30 34 00                                       |04.             |
0x1d0|         2b 30 32 00                           |   +02.         |      [4]: "+02" time_zone_designation 0x1d3-0x1d7 (4)
     |                                               |                |    leap_second_records[0:0]: 0x1d7-0x1d7 (0)
     |                                               |                |    standard_wall_indicators[0:12]: 0x1d7-0x1e3 (12)
0x1d0|                     00                        |       .        |      [0]: 0 standard_wall_indicator (valid) 0x1d7-0x1d8 (1)
0x1d0|                        01                     |        .       |      [1]: 1 standard_wall_indicator (valid) 0x1d8-0x1d9 (1)
0x1d0|                           00                  |         .      |      [2]: 0 standard_wall_indicator (valid) 0x1d9-0x1da (1)
0x1d0|                              00               |          .     |      [3]: 0 standard_wall_indicator (valid) 0x1da-0x1db (1)
0x1d0|                                 01            |           .    |      [4]: 1 standard_wall_indicator (valid) 0x1db-0x1dc (1)
0x1d0|                                    01         |            .   |      [5]: 1 standard_wall_indicator (valid) 0x1dc-0x1dd (1)
0x1d0|                                       01      |             .  |      [6]: 1 standard_wall_indicator (valid) 0x1dd-0x1de (1)
0x1d0|                                          01   |              . |      [7]: 1 standard_wall_indicator (valid) 0x1de-0x1df (1)
0x1d0|                                             01|               .|      [8]: 1 standard_wall_indicator (valid) 0x1df-0x1e0 (1)
0x1e0|01                                             |.               |      [9]: 1 standard_wall_indicator (valid) 0x1e0-0x1e1 (1)
0x1e0|   01                                          | .              |      [10]: 1 standard_wall_indicator (valid) 0x1e1-0x1e2 (1)
0x1e0|      01                                       |  .             |      [11]: 1 standard_wall_indicator (valid) 0x1e2-0x1e3 (1)
     |                                               |                |    ut_local_indicators[0:12]: 0x1e3-0x1ef (12)
0x1e0|         00                                    |   .            |      [0]: 0 ut_local_indicator (valid) 0x1e3-0x1e4 (1)
0x1e0|            01                                 |    .           |      [1]: 1 ut_local_indicator (valid) 0x1e4-0x1e5 (1)
0x1e0|               00                              |     .          |      [2]: 0 ut_local_indicator (valid) 0x1e5-0x1e6 (1)
0x1e0|                  00                           |      .         |      [3]: 0 ut_local_indicator (valid) 0x1e6-0x1e7 (1)
0x1e0|                     00                        |       .        |      [4]: 0 ut_local_indicator (valid) 0x1e7-0x1e8 (1)
0x1e0|                        00                     |        .       |      [5]: 0 ut_local_indicator (valid) 0x1e8-0x1e9 (1)
0x1e0|                           00                  |         .      |      [6]: 0 ut_local_indicator (valid) 0x1e9-0x1ea (1)
0x1e0|                              00               |          .     |      [7]: 0 ut_local_indicator (valid) 0x1ea-0x1eb (1)
0x1e0|                                 00            |           .    |      [8]: 0 ut_local_indicator (valid) 0x1eb-0x1ec (1)
0x1e0|                                    00         |            .   |      [9]: 0 ut_local_indicator (valid) 0x1ec-0x1ed (1)
0x1e0|                                       00      |             .  |      [10]: 0 ut_local_indicator (valid) 0x1ed-0x1ee (1)
0x1e0|                                          00   |              . |      [11]: 0 ut_local_indicator (valid) 0x1ee-0x1ef (1)
     |                                               |                |  v2plusheader{}: 0x1ef-0x21b (44)
0x1e0|                                             54|               T|    magic: 0x545a6966 (valid) 0x1ef-0x1f3 (4)
0x1f0|5a 69 66                                       |Zif             |
0x1f0|         32                                    |   2            |    ver: "2" (0x32) (valid) 0x1f3-0x1f4 (1)
0x1f0|            00 00 00 00 00 00 00 00 00 00 00 00|    ............|    reserved: raw bits 0x1f4-0x203 (15)
0x200|00 00 00                                       |...             |
0x200|         00 00 00 0c                           |   ....         |    isutcnt: 12 0x203-0x207 (4)
0x200|                     00 00 00 0c               |       ....     |    isstdcnt: 12 0x207-0x20b (4)
0x200|                                 00 00 00 00   |           .... |    leapcnt: 0 0x20b-0x20f (4)
0x200|                                             00|               .|    timecnt: 67 0x20f-0x213 (4)
0x210|00 00 43                                       |..C             |
0x210|         00 00 00 0c                           |   ....         |    typecnt: 12 0x213-0x217 (4)
0x210|                     00 00 00 14               |       ....     |    charcnt: 20 0x217-0x21b (4)
     |                                               |                |  v2plusdatablock{}: 0x21b-0x4ea (719)
     |                                               |                |    transition_times[0:67]: 0x21b-0x433 (536)
0x210|                                 ff ff ff ff a1|           .....|      [0]: "1919-07-01T00:00:00Z" (-1593820800) transition_time 0x21b-0x223 (8)
0x220|00 39 80                                       |.9.             |
0x220|         ff ff ff ff b5 a4 0b 50               |   .......P     |      [1]: "1930-06-20T21:00:00Z" (-1247540400) transition_time 0x223-0x22b (8)
0x220|                                 00 00 00 00 15|           .....|      [2]: "1981-03-31T20:00:00Z" (354916800) transition_time 0x22b-0x233 (8)
0x230|27 99 c0                                       |'..             |
0x230|         00 00 00 00 16 18 ce 30               |   .......0     |      [3]: "1981-09-30T19:00:00Z" (370724400) transition_time 0x233-0x23b (8)
0x230|                                 00 00 00 00 17|           .....|      [4]: "1982-03-31T20:00:00Z" (386452800) transition_time 0x23b-0x243 (8)
0x240|08 cd 40                                       |..@             |
0x240|         00 00 00 00 17 fa 01 b0               |   ........     |      [5]: "1982-09-30T19:00:00Z" (402260400) transition_time 0x243-0x24b (8)
0x240|                                 00 00 00 00 18|           .....|      [6]: "1983-03-31T20:00:00Z" (417988800) transition_time 0x24b-0x253 (8)
0x250|ea 00 c0                                       |...             |
0x250|         00 00 00 00 19 db 35 30               |   ......50     |      [7]: "1983-09-30T19:00:00Z" (433796400) transition_time 0x253-0x25b (8)
0x250|                                 00 00 00 00 1a|           .....|      [8]: "1984-03-31T20:00:00Z" (449611200) transition_time 0x25b-0x263 (8)
0x260|cc 85 c0                                       |...             |
0x260|         00 00 00 00 1b bc 92 e0               |   ........     |      [9]: "1984-09-29T22:00:00Z" (465343200) transition_time 0x263-0x26b (8)
0x260|                                 00 00 00 00 1c|           .....|      [10]: "1985-03-30T22:00:00Z" (481068000) transition_time 0x26b-0x273 (8)
0x270|ac 83 e0                                       |...             |
0x270|         00 00 00 00 1d 9c 74 e0               |   ......t.     |      [11]: "1985-09-28T22:00:00Z" (496792800) transition_time 0x273-0x27b (8)
0x270|                                 00 00 00 00 1e|           .....|      [12]: "1986-03-29T22:00:00Z" (512517600) transition_time 0x27b-0x283 (8)
0x280|8c 65 e0                                       |.e.             |
0x280|         00 00 00 00 1f 7c 56 e0               |   .....|V.     |      [13]: "1986-09-27T22:00:00Z" (528242400) transition_time 0x283-0x28b (8)
0x280|                                 00 00 00 00 20|           .... |      [14]: "1987-03-28T22:00:00Z" (543967200) transition_time 0x28b-0x293 (8)
0x290|6c 47 e0                                       |lG.             |
0x290|         00 00 00 00 21 5c 38 e0               |   ....!\8.     |      [15]: "1987-09-26T22:00:00Z" (559692000) transition_time 0x293-0x29b (8)
0x290|                                 00 00 00 00 22|           ...."|      [16]: "1988-03-26T22:00:00Z" (575416800) transition_time 0x29b-0x2a3 (8)
0x2a0|4c 29 e0                                       |L).             |
0x2a0|         00 00 00 00 23 3c 1a e0               |   ....#<..     |      [17]: "1988-09-24T22:00:00Z" (591141600) transition_time 0x2a3-0x2ab (8)
0x2a0|                                 00 00 00 00 24|           ....$|      [18]: "1989-03-25T22:00:00Z" (606866400) transition_time 0x2ab-0x2b3 (8)
0x2b0|2c 0b e0                                       |,..             |
0x2b0|         00 00 00 00 25 1c 0a f0               |   ....%...     |      [19]: "1989-09-23T23:00:00Z" (622594800) transition_time 0x2b3-0x2bb (8)
0x2b0|                                 00 00 00 00 26|           ....&|      [20]: "1990-03-24T23:00:00Z" (638319600) transition_time 0x2bb-0x2c3 (8)
0x2c0|0b fb f0                                       |...             |
0x2c0|         00 00 00 00 27 05 27 70               |   ....'.'p     |      [21]: "1990-09-29T23:00:00Z" (654649200) transition_time 0x2c3-0x2cb (8)
0x2c0|                                 00 00 00 00 27|           ....'|      [22]: "1991-03-30T23:00:00Z" (670374000) transition_time 0x2cb-0x2d3 (8)
0x2d0|f5 18 70                                       |..p             |
0x2d0|         00 00 00 00 28 e5 17 80               |   ....(...     |      [23]: "1991-09-29T00:00:00Z" (686102400) transition_time 0x2d3-0x2db (8)
0x2d0|                                 00 00 00 00 29|           ....)|      [24]: "1992-01-19T00:00:00Z" (695779200) transition_time 0x2db-0x2e3 (8)
0x2e0|78 bf 80                                       |x..             |
0x2e0|         00 00 00 00 29 d4 fa 70               |   ....)..p     |      [25]: "1992-03-28T23:00:00Z" (701823600) transition_time 0x2e3-0x2eb (8)
0x2e0|                                 00 00 00 00 2a|           ....*|      [26]: "1992-09-26T23:00:00Z" (717548400) transition_time 0x2eb-0x2f3 (8)
0x2f0|c4 eb 70                                       |..p             |
0x2f0|         00 00 00 00 2b b4 dc 70               |   ....+..p     |      [27]: "1993-03-27T23:00:00Z" (733273200) transition_time 0x2f3-0x2fb (8)
0x2f0|                                 00 00 00 00 2c|           ....,|      [28]: "1993-09-25T23:00:00Z" (748998000) transition_time 0x2fb-0x303 (8)
0x300|a4 cd 70                                       |..p             |
0x300|         00 00 00 00 2d 94 be 70               |   ....-..p     |      [29]: "1994-03-26T23:00:00Z" (764722800) transition_time 0x303-0x30b (8)
0x300|                                 00 00 00 00 2e|           .....|      [30]: "1994-09-24T23:00:00Z" (780447600) transition_time 0x30b-0x313 (8)
0x310|84 af 70                                       |..p             |
0x310|         00 00 00 00 2f 74 a0 70               |   ..../t.p     |      [31]: "1995-03-25T23:00:00Z" (796172400) transition_time 0x313-0x31b (8)
0x310|                                 00 00 00 00 30|           ....0|      [32]: "1995-09-23T23:00:00Z" (811897200) transition_time 0x31b-0x323 (8)
0x320|64 91 70                                       |d.p             |
0x320|         00 00 00 00 31 5d bc f0               |   ....1]..     |      [33]: "1996-03-30T23:00:00Z" (828226800) transition_time 0x323-0x32b (8)
0x320|                                 00 00 00 00 32|           ....2|      [34]: "1996-10-26T23:00:00Z" (846370800) transition_time 0x32b-0x333 (8)
0x330|72 97 f0                                       |r..             |
0x330|         00 00 00 00 33 3d 9e f0               |   ....3=..     |      [35]: "1997-03-29T23:00:00Z" (859676400) transition_time 0x333-0x33b (8)
0x330|                                 00 00 00 00 34|           ....4|      [36]: "1997-10-25T23:00:00Z" (877820400) transition_time 0x33b-0x343 (8)
0x340|52 79 f0                                       |Ry.             |
0x340|         00 00 00 00 35 1d 80 f0               |   ....5...     |      [37]: "1998-03-28T23:00:00Z" (891126000) transition_time 0x343-0x34b (8)
0x340|                                 00 00 00 00 36|           ....6|      [38]: "1998-10-24T23:00:00Z" (909270000) transition_time 0x34b-0x353 (8)
0x350|32 5b f0                                       |2[.             |
0x350|         00 00 00 00 36 fd 62 f0               |   ....6.b.     |      [39]: "1999-03-27T23:00:00Z" (922575600) transition_time 0x353-0x35b (8)
0x350|                                 00 00 00 00 38|           ....8|      [40]: "1999-10-30T23:00:00Z" (941324400) transition_time 0x35b-0x363 (8)
0x360|1b 78 70                                       |.xp             |
0x360|         00 00 00 00 38 dd 44 f0               |   ....8.D.     |      [41]: "2000-03-25T23:00:00Z" (954025200) transition_time 0x363-0x36b (8)
0x360|                                 00 00 00 00 39|           ....9|      [42]: "2000-10-28T23:00:00Z" (972774000) transition_time 0x36b-0x373 (8)
0x370|fb 5a 70                                       |.Zp             |
0x370|         00 00 00 00 3a bd 26 f0               |   ....:.&.     |      [43]: "2001-03-24T23:00:00Z" (985474800) transition_time 0x373-0x37b (8)
0x370|                                 00 00 00 00 3b|           ....;|      [44]: "2001-10-27T23:00:00Z" (1004223600) transition_time 0x37b-0x383 (8)
0x380|db 3c 70                                       |.<p             |
0x380|         00 00 00 00 3c a6 43 70               |   ....<.Cp     |      [45]: "2002-03-30T23:00:00Z" (1017529200) transition_time 0x383-0x38b (8)
0x380|                                 00 00 00 00 3d|           ....=|      [46]: "2002-10-26T23:00:00Z" (1035673200) transition_time 0x38b-0x393 (8)
0x390|bb 1e 70                                       |..p             |
0x390|         00 00 00 00 3e 86 25 70               |   ....>.%p     |      [47]: "2003-03-29T23:00:00Z" (1048978800) transition_time 0x393-0x39b (8)
0x390|                                 00 00 00 00 3f|           ....?|      [48]: "2003-10-25T23:00:00Z" (1067122800) transition_time 0x39b-0x3a3 (8)
0x3a0|9b 00 70                                       |..p             |
0x3a0|         00 00 00 00 40 66 07 70               |   ....@f.p     |      [49]: "2004-03-27T23:00:00Z" (1080428400) transition_time 0x3a3-0x3ab (8)
0x3a0|                                 00 00 00 00 41|           ....A|      [50]: "2004-10-30T23:00:00Z" (1099177200) transition_time 0x3ab-0x3b3 (8)
0x3b0|84 1c f0                                       |...             |
0x3b0|         00 00 00 00 42 45 e9 70               |   ....BE.p     |      [51]: "2005-03-26T23:00:00Z" (1111878000) transition_time 0x3b3-0x3bb (8)
0x3b0|                                 00 00 00 00 43|           ....C|      [52]: "2005-10-29T23:00:00Z" (1130626800) transition_time 0x3bb-0x3c3 (8)
0x3c0|63 fe f0                                       |c..             |
0x3c0|         00 00 00 00 44 25 cb 70               |   ....D%.p     |      [53]: "2006-03-25T23:00:00Z" (1143327600) transition_time 0x3c3-0x3cb (8)
0x3c0|                                 00 00 00 00 45|           ....E|      [54]: "2006-10-28T23:00:00Z" (1162076400) transition_time 0x3cb-0x3d3 (8)
0x3d0|43 e0 f0                                       |C..             |
0x3d0|         00 00 00 00 46 05 ad 70               |   ....F..p     |      [55]: "2007-03-24T23:00:00Z" (1174777200) transition_time 0x3d3-0x3db (8)
0x3d0|                                 00 00 00 00 47|           ....G|      [56]: "2007-10-27T23:00:00Z" (1193526000) transition_time 0x3db-0x3e3 (8)
0x3e0|23 c2 f0                                       |#..             |
0x3e0|         00 00 00 00 47 ee c9 f0               |   ....G...     |      [57]: "2008-03-29T23:00:00Z" (1206831600) transition_time 0x3e3-0x3eb (8)
0x3e0|                                 00 00 00 00 49|           ....I|      [58]: "2008-10-25T23:00:00Z" (1224975600) transition_time 0x3eb-0x3f3 (8)
0x3f0|03 a4 f0                                       |...             |
0x3f0|         00 00 00 00 49 ce ab f0               |   ....I...     |      [59]: "2009-03-28T23:00:00Z" (1238281200) transition_time 0x3f3-0x3fb (8)
0x3f0|                                 00 00 00 00 4a|           ....J|      [60]: "2009-10-24T23:00:00Z" (1256425200) transition_time 0x3fb-0x403 (8)
0x400|e3 86 f0                                       |...             |
0x400|         00 00 00 00 4b ae 8d f0               |   ....K...     |      [61]: "2010-03-27T23:00:00Z" (1269730800) transition_time 0x403-0x40b (8)
0x400|                                 00 00 00 00 4c|           ....L|      [62]: "2010-10-30T23:00:00Z" (1288479600) transition_time 0x40b-0x413 (8)
0x410|cc a3 70                                       |..p             |
0x410|         00 00 00 00 4d 8e 6f f0               |   ....M.o.     |      [63]: "2011-03-26T23:00:00Z" (1301180400) transition_time 0x413-0x41b (8)
0x410|                                 00 00 00 00 54|           ....T|      [64]: "2014-10-25T22:00:00Z" (1414274400) transition_time 0x41b-0x423 (8)
0x420|4c 1d 60                                       |L.`             |
0x420|         00 00 00 00 56 f7 14 70               |   ....V..p     |      [65]: "2016-03-26T23:00:00Z" (1459033200) transition_time 0x423-0x42b (8)
0x420|                                 00 00 00 00 7f|           .....|      [66]: "2038-01-19T03:14:07Z" (2147483647) transition_time 0x42b-0x433 (8)
0x430|ff ff ff                                       |...             |
     |                                               |                |    transition_types[0:67]: 0x433-0x476 (67)
0x430|         01                                    |   .            |      [0]: 1 transition_type 0x433-0x434 (1)
0x430|            03                                 |    .           |      [1]: 3 transition_type 0x434-0x435 (1)
0x430|               02                              |     .          |      [2]: 2 transition_type 0x435-0x436 (1)
0x430|                  03                           |      .         |      [3]: 3 transition_type 0x436-0x437 (1)
0x430|                     02                        |       .        |      [4]: 2 transition_type 0x437-0x438 (1)
0x430|                        03                     |        .       |      [5]: 3 transition_type 0x438-0x439 (1)
0x430|                           02                  |         .      |      [6]: 2 transition_type 0x439-0x43a (1)
0x430|                              03               |          .     |      [7]: 3 transition_type 0x43a-0x43b (1)
0x430|                                 02            |           .    |      [8]: 2 transition_type 0x43b-0x43c (1)
0x430|                                    04         |            .   |      [9]: 4 transition_type 0x43c-0x43d (1)
0x430|                                       05      |             .  |      [10]: 5 transition_type 0x43d-0x43e (1)
0x430|                                          04   |              . |      [11]: 4 transition_type 0x43e-0x43f (1)
0x430|                                             05|               .|      [12]: 5 transition_type 0x43f-0x440 (1)
0x440|04                                             |.               |      [13]: 4 transition_type 0x440-0x441 (1)
0x440|   05                                          | .              |      [14]: 5 transition_type 0x441-0x442 (1)
0x440|      04                                       |  .             |      [15]: 4 transition_type 0x442-0x443 (1)
0x440|         05                                    |   .            |      [16]: 5 transition_type 0x443-0x444 (1)
0x440|            04                                 |    .           |      [17]: 4 transition_type 0x444-0x445 (1)
0x440|               06                              |     .          |      [18]: 6 transition_type 0x445-0x446 (1)
0x440|                  07                           |      .         |      [19]: 7 transition_type 0x446-0x447 (1)
0x440|                     06                        |       .        |      [20]: 6 transition_type 0x447-0x448 (1)
0x440|                        07                     |        .       |      [21]: 7 transition_type 0x448-0x449 (1)
0x440|                           08                  |         .      |      [22]: 8 transition_type 0x449-0x44a (1)
0x440|                              09               |          .     |      [23]: 9 transition_type 0x44a-0x44b (1)
0x440|                                 07            |           .    |      [24]: 7 transition_type 0x44b-0x44c (1)
0x440|                                    06         |            .   |      [25]: 6 transition_type 0x44c-0x44d (1)
0x440|                                       07      |             .  |      [26]: 7 transition_type 0x44d-0x44e (1)
0x440|                                          06   |              . |      [27]: 6 transition_type 0x44e-0x44f (1)
0x440|                                             07|               .|      [28]: 7 transition_type 0x44f-0x450 (1)
0x450|06                                             |.               |      [29]: 6 transition_type 0x450-0x451 (1)
0x450|   07                                          | .              |      [30]: 7 transition_type 0x451-0x452 (1)
0x450|      06                                       |  .             |      [31]: 6 transition_type 0x452-0x453 (1)
0x450|         07                                    |   .            |      [32]: 7 transition_type 0x453-0x454 (1)
0x450|            06                                 |    .           |      [33]: 6 transition_type 0x454-0x455 (1)
0x450|               07                              |     .          |      [34]: 7 transition_type 0x455-0x456 (1)
0x450|                  06                           |      .         |      [35]: 6 transition_type 0x456-0x457 (1)
0x450|                     07                        |       .        |      [36]: 7 transition_type 0x457-0x458 (1)
0x450|                        06                     |        .       |      [37]: 6 transition_type 0x458-0x459 (1)
0x450|                           07                  |         .      |      [38]: 7 transition_type 0x459-0x45a (1)
0x450|                              06               |          .     |      [39]: 6 transition_type 0x45a-0x45b (1)
0x450|                                 07            |           .    |      [40]: 7 transition_type 0x45b-0x45c (1)
0x450|                                    06         |            .   |      [41]: 6 transition_type 0x45c-0x45d (1)
0x450|                                       07      |             .  |      [42]: 7 transition_type 0x45d-0x45e (1)
0x450|                                          06   |              . |      [43]: 6 transition_type 0x45e-0x45f (1)
0x450|                                             07|               .|      [44]: 7 transition_type 0x45f-0x460 (1)
0x460|06                                             |.               |      [45]: 6 transition_type 0x460-0x461 (1)
0x460|   07                                          | .              |      [46]: 7 transition_type 0x461-0x462 (1)
0x460|      06                                       |  .             |      [47]: 6 transition_type 0x462-0x463 (1)
0x460|         07                                    |   .            |      [48]: 7 transition_type 0x463-0x464 (1)
0x460|            06                                 |    .           |      [49]: 6 transition_type 0x464-0x465 (1)
0x460|               07                              |     .          |      [50]: 7 transition_type 0x465-0x466 (1)
0x460|                  06                           |      .         |      [51]: 6 transition_type 0x466-0x467 (1)
0x460|                     07                        |       .        |      [52]: 7 transition_type 0x467-0x468 (1)
0x460|                        06                     |        .       |      [53]: 6 transition_type 0x468-0x469 (1)
0x460|                           07                  |         .      |      [54]: 7 transition_type 0x469-0x46a (1)
0x460|                              06               |          .     |      [55]: 6 transition_type 0x46a-0x46b (1)
0x460|                                 07            |           .    |      [56]: 7 transition_type 0x46b-0x46c (1)
0x460|                                    06         |            .   |      [57]: 6 transition_type 0x46c-0x46d (1)
0x460|                                       07      |             .  |      [58]: 7 transition_type 0x46d-0x46e (1)
0x460|                                          06   |              . |      [59]: 6 transition_type 0x46e-0x46f (1)
0x460|                                             07|               .|      [60]: 7 transition_type 0x46f-0x470 (1)
0x470|06                                             |.               |      [61]: 6 transition_type 0x470-0x471 (1)
0x470|   07                                          | .              |      [62]: 7 transition_type 0x471-0x472 (1)
0x470|      04                                       |  .             |      [63]: 4 transition_type 0x472-0x473 (1)
0x470|         07                                    |   .            |      [64]: 7 transition_type 0x473-0x474 (1)
0x470|            04                                 |    .           |      [65]: 4 transition_type 0x474-0x475 (1)
0x470|               04                              |     .          |      [66]: 4 transition_type 0x475-0x476 (1)
     |                                               |                |    local_time_type_records[0:12]: 0x476-0x4be (72)
     |                                               |                |      [0]{}: local_time_type 0x476-0x47c (6)
0x470|                  00 00 2d 60                  |      ..-`      |        utoff: 11616 (valid) 0x476-0x47a (4)
0x470|                              00               |          .     |        dst: 0 (valid) 0x47a-0x47b (1)
0x470|                                 00            |           .    |        idx: 0 (valid) 0x47b-0x47c (1)
     |                                               |                |      [1]{}: local_time_type 0x47c-0x482 (6)
0x470|                                    00 00 2a 30|            ..*0|        utoff: 10800 (valid) 0x47c-0x480 (4)
0x480|00                                             |.               |        dst: 0 (valid) 0x480-0x481 (1)
0x480|   04                                          | .              |        idx: 4 (valid) 0x481-0x482 (1)
     |                                               |                |      [2]{}: local_time_type 0x482-0x488 (6)
0x480|      00 00 46 50                              |  ..FP          |        utoff: 18000 (valid) 0x482-0x486 (4)
0x480|                  01                           |      .         |        dst: 1 (valid) 0x486-0x487 (1)
0x480|                     08                        |       .        |        idx: 8 (valid) 0x487-0x488 (1)
     |                                               |                |      [3]{}: local_time_type 0x488-0x48e (6)
0x480|                        00 00 38 40            |        ..8@    |        utoff: 14400 (valid) 0x488-0x48c (4)
0x480|                                    00         |            .   |        dst: 0 (valid) 0x48c-0x48d (1)
0x480|                                       0c      |             .  |        idx: 12 (valid) 0x48d-0x48e (1)
     |                                               |                |      [4]{}: local_time_type 0x48e-0x494 (6)
0x480|                                          00 00|              ..|        utoff: 14400 (valid) 0x48e-0x492 (4)
0x490|38 40                                          |8@              |
0x490|      00                                       |  .             |        dst: 0 (valid) 0x492-0x493 (1)
0x490|         0c                                    |   .            |        idx: 12 (valid) 0x493-0x494 (1)
     |                                               |                |      [5]{}: local_time_type 0x494-0x49a (6)
0x490|            00 00 46 50                        |    ..FP        |        utoff: 18000 (valid) 0x494-0x498 (4)
0x490|                        01                     |        .       |        dst: 1 (valid) 0x498-0x499 (1)
0x490|                           08                  |         .      |        idx: 8 (valid) 0x499-0x49a (1)
     |                                               |                |      [6]{}: local_time_type 0x49a-0x4a0 (6)
0x490|                              00 00 38 40      |          ..8@  |        utoff: 14400 (valid) 0x49a-0x49e (4)
0x490|                                          01   |              . |        dst: 1 (valid) 0x49e-0x49f (1)
0x490|                                             0c|               .|        idx: 12 (valid) 0x49f-0x4a0 (1)
     |                                               |                |      [7]{}: local_time_type 0x4a0-0x4a6 (6)
0x4a0|00 00 2a 30                                    |..*0            |        utoff: 10800 (valid) 0x4a0-0x4a4 (4)
0x4a0|            00                                 |    .           |        dst: 0 (valid) 0x4a4-0x4a5 (1)
0x4a0|               04                              |     .          |        idx: 4 (valid) 0x4a5-0x4a6 (1)
     |                                               |                |      [8]{}: local_time_type 0x4a6-0x4ac (6)
0x4a0|                  00 00 2a 30                  |      ..*0      |        utoff: 10800 (valid) 0x4a6-0x4aa (4)
0x4a0|                              01               |          .     |        dst: 1 (valid) 0x4aa-0x4ab (1)
0x4a0|                                 04            |           .    |        idx: 4 (valid) 0x4ab-0x4ac (1)
     |                                               |                |      [9]{}: local_time_type 0x4ac-0x4b2 (6)
0x4a0|                                    00 00 1c 20|            ... |        utoff: 7200 (valid) 0x4ac-0x4b0 (4)
0x4b0|00                                             |.               |        dst: 0 (valid) 0x4b0-0x4b1 (1)
0x4b0|   10                                          | .              |        idx: 16 (valid) 0x4b1-0x4b2 (1)
     |                                               |                |      [10]{}: local_time_type 0x4b2-0x4b8 (6)
0x4b0|      00 00 38 40                              |  ..8@          |        utoff: 14400 (valid) 0x4b2-0x4b6 (4)
0x4b0|                  01                           |      .         |        dst: 1 (valid) 0x4b6-0x4b7 (1)
0x4b0|                     0c                        |       .        |        idx: 12 (valid) 0x4b7-0x4b8 (1)
     |                                               |                |      [11]{}: local_time_type 0x4b8-0x4be (6)
0x4b0|                        00 00 38 40            |        ..8@    |        utoff: 14400 (valid) 0x4b8-0x4bc (4)
0x4b0|                                    00         |            .   |        dst: 0 (valid) 0x4bc-0x4bd (1)
0x4b0|                                       0c      |             .  |        idx: 12 (valid) 0x4bd-0x4be (1)
     |                                               |                |    time_zone_designations[0:5]: 0x4be-0x4d2 (20)
0x4b0|                                          4c 4d|              LM|      [0]: "LMT" time_zone_designation 0x4be-0x4c2 (4)
0x4c0|54 00                                          |T.              |
0x4c0|      2b 30 33 00                              |  +03.          |      [1]: "+03" time_zone_designation 0x4c2-0x4c6 (4)
0x4c0|                  2b 30 35 00                  |      +05.      |      [2]: "+05" time_zone_designation 0x4c6-0x4ca (4)
0x4c0|                              2b 30 34 00      |          +04.  |      [3]: "+04" time_zone_designation 0x4ca-0x4ce (4)
0x4c0|                                          2b 30|              +0|      [4]: "+02" time_zone_designation 0x4ce-0x4d2 (4)
0x4d0|32 00                                          |2.              |
     |                                               |                |    leap_second_records[0:0]: 0x4d2-0x4d2 (0)
     |                                               |                |    standard_wall_indicators[0:12]: 0x4d2-0x4de (12)
0x4d0|      00                                       |  .             |      [0]: 0 standard_wall_indicator (valid) 0x4d2-0x4d3 (1)
0x4d0|         01                                    |   .            |      [1]: 1 standard_wall_indicator (valid) 0x4d3-0x4d4 (1)
0x4d0|            00                                 |    .           |      [2]: 0 standard_wall_indicator (valid) 0x4d4-0x4d5 (1)
0x4d0|               00                              |     .          |      [3]: 0 standard_wall_indicator (valid) 0x4d5-0x4d6 (1)
0x4d0|                  01                           |      .         |      [4]: 1 standard_wall_indicator (valid) 0x4d6-0x4d7 (1)
0x4d0|                     01                        |       .        |      [5]: 1 standard_wall_indicator (valid) 0x4d7-0x4d8 (1)
0x4d0|                        01                     |        .       |      [6]: 1 standard_wall_indicator (valid) 0x4d8-0x4d9 (1)
0x4d0|                           01                  |         .      |      [7]: 1 standard_wall_indicator (valid) 0x4d9-0x4da (1)
0x4d0|                              01               |          .     |      [8]: 1 standard_wall_indicator (valid) 0x4da-0x4db (1)
0x4d0|                                 01            |           .    |      [9]: 1 standard_wall_indicator (valid) 0x4db-0x4dc (1)
0x4d0|                                    01         |            .   |      [10]: 1 standard_wall_indicator (valid) 0x4dc-0x4dd (1)
0x4d0|                                       01      |             .  |      [11]: 1 standard_wall_indicator (valid) 0x4dd-0x4de (1)
     |                                               |                |    ut_local_indicators[0:12]: 0x4de-0x4ea (12)
0x4d0|                                          00   |              . |      [0]: 0 ut_local_indicator (valid) 0x4de-0x4df (1)
0x4d0|                                             01|               .|      [1]: 1 ut_local_indicator (valid) 0x4df-0x4e0 (1)
0x4e0|00                                             |.               |      [2]: 0 ut_local_indicator (valid) 0x4e0-0x4e1 (1)
0x4e0|   00                                          | .              |      [3]: 0 ut_local_indicator (valid) 0x4e1-0x4e2 (1)
0x4e0|      00                                       |  .             |      [4]: 0 ut_local_indicator (valid) 0x4e2-0x4e3 (1)
0x4e0|         00                                    |   .            |      [5]: 0 ut_local_indicator (valid) 0x4e3-0x4e4 (1)
0x4e0|            00                                 |    .           |      [6]: 0 ut_local_indicator (valid) 0x4e4-0x4e5 (1)
0x4e0|               00                              |     .          |      [7]: 0 ut_local_indicator (valid) 0x4e5-0x4e6 (1)
0x4e0|                  00                           |      .         |      [8]: 0 ut_local_indicator (valid) 0x4e6-0x4e7 (1)
0x4e0|                     00                        |       .        |      [9]: 0 ut_local_indicator (valid) 0x4e7-0x4e8 (1)
0x4e0|                        00                     |        .       |      [10]: 0 ut_local_indicator (valid) 0x4e8-0x4e9 (1)
0x4e0|                           00                  |         .      |      [11]: 0 ut_local_indicator (valid) 0x4e9-0x4ea (1)
     |                                               |                |  footer{}: 0x4ea-0x4f3 (9)
0x4e0|                              0a               |          .     |    nl1: 10 (valid) 0x4ea-0x4eb (1)
0x4e0|                                 3c 2b 30 34 3e|           <+04>|    tz_string: "<+04>-4" 0x4eb-0x4f2 (7)
0x4f0|2d 34                                          |-4              |
0x4f0|      0a|                                      |  .|            |    nl2: 10 (valid) 0x4f2-0x4f3 (1)
