$ fq -d tzif dv Urumqi
     |00 01 02 03 04 05 06 07 08 09 0a 0b 0c 0d 0e 0f|0123456789abcdef|.{}: Urumqi (tzif) 0x0-0x2ba (698)
     |                                               |                |  v1header{}: 0x0-0x2c (44)
0x000|54 5a 69 66                                    |TZif            |    magic: 0x545a6966 (valid) 0x0-0x4 (4)
0x000|            32                                 |    2           |    ver: "2" (0x32) (valid) 0x4-0x5 (1)
0x000|               00 00 00 00 00 00 00 00 00 00 00|     ...........|    reserved: raw bits 0x5-0x14 (15)
0x010|00 00 00 00                                    |....            |
0x010|            00 00 00 00                        |    ....        |    isutcnt: 0 0x14-0x18 (4)
0x010|                        00 00 00 00            |        ....    |    isstdcnt: 0 0x18-0x1c (4)
0x010|                                    00 00 00 1b|            ....|    leapcnt: 27 0x1c-0x20 (4)
0x020|00 00 00 02                                    |....            |    timecnt: 2 0x20-0x24 (4)
0x020|            00 00 00 02                        |    ....        |    typecnt: 2 0x24-0x28 (4)
0x020|                        00 00 00 08            |        ....    |    charcnt: 8 0x28-0x2c (4)
     |                                               |                |  v1datablock{}: 0x2c-0x122 (246)
     |                                               |                |    transition_times[0:2]: 0x2c-0x34 (8)
0x020|                                    b0 fe ba 64|            ...d|      [0]: "1927-12-31T18:09:40Z" (-1325483420) transition_time 0x2c-0x30 (4)
0x030|64 9b 78 1b                                    |d.x.            |      [1]: "2023-06-28T00:00:27Z" (1687910427) transition_time 0x30-0x34 (4)
     |                                               |                |    transition_types[0:2]: 0x34-0x36 (2)
0x030|            01                                 |    .           |      [0]: 1 transition_type 0x34-0x35 (1)
0x030|               01                              |     .          |      [1]: 1 transition_type 0x35-0x36 (1)
     |                                               |                |    local_time_type_records[0:2]: 0x36-0x42 (12)
     |                                               |                |      [0]{}: local_time_type 0x36-0x3c (6)
0x030|                  00 00 52 1c                  |      ..R.      |        utoff: 21020 (valid) 0x36-0x3a (4)
0x030|                              00               |          .     |        dst: 0 (valid) 0x3a-0x3b (1)
0x030|                                 00            |           .    |        idx: 0 (valid) 0x3b-0x3c (1)
     |                                               |                |      [1]{}: local_time_type 0x3c-0x42 (6)
0x030|                                    00 00 54 60|            ..T`|        utoff: 21600 (valid) 0x3c-0x40 (4)
0x040|00                                             |.               |        dst: 0 (valid) 0x40-0x41 (1)
0x040|   04                                          | .              |        idx: 4 (valid) 0x41-0x42 (1)
     |                                               |                |    time_zone_designations[0:2]: 0x42-0x4a (8)
0x040|      4c 4d 54 00                              |  LMT.          |      [0]: "LMT" time_zone_designation 0x42-0x46 (4)
0x040|                  2b 30 36 00                  |      +06.      |      [1]: "+06" time_zone_designation 0x46-0x4a (4)
     |                                               |                |    leap_second_records[0:27]: 0x4a-0x122 (216)
     |                                               |                |      [0]{}: leap_second_record 0x4a-0x52 (8)
0x040|                              04 b2 58 00      |          ..X.  |        occur: "1972-07-01T00:00:00Z" (78796800) 0x4a-0x4e (4)
0x040|                                          00 00|              ..|        corr: 1 0x4e-0x52 (4)
0x050|00 01                                          |..              |
     |                                               |                |      [1]{}: leap_second_record 0x52-0x5a (8)
0x050|      05 a4 ec 01                              |  ....          |        occur: "1973-01-01T00:00:01Z" (94694401) 0x52-0x56 (4)
0x050|                  00 00 00 02                  |      ....      |        corr: 2 0x56-0x5a (4)
     |                                               |                |      [2]{}: leap_second_record 0x5a-0x62 (8)
0x050|                              07 86 1f 82      |          ....  |        occur: "1974-01-01T00:00:02Z" (126230402) 0x5a-0x5e (4)
0x050|                                          00 00|              ..|        corr: 3 0x5e-0x62 (4)
0x060|00 03                                          |..              |
     |                                               |                |      [3]{}: leap_second_record 0x62-0x6a (8)
0x060|      09 67 53 03                              |  .gS.          |        occur: "1975-01-01T00:00:03Z" (157766403) 0x62-0x66 (4)
0x060|                  00 00 00 04                  |      ....      |        corr: 4 0x66-0x6a (4)
     |                                               |                |      [4]{}: leap_second_record 0x6a-0x72 (8)
0x060|                              0b 48 86 84      |          .H..  |        occur: "1976-01-01T00:00:04Z" (189302404) 0x6a-0x6e (4)
0x060|                                          00 00|              ..|        corr: 5 0x6e-0x72 (4)
0x070|00 05                                          |..              |
     |                                               |                |      [5]{}: leap_second_record 0x72-0x7a (8)
0x070|      0d 2b 0b 85                              |  .+..          |        occur: "1977-01-01T00:00:05Z" (220924805) 0x72-0x76 (4)
0x070|                  00 00 00 06                  |      ....      |        corr: 6 0x76-0x7a (4)
     |                                               |                |      [6]{}: leap_second_record 0x7a-0x82 (8)
0x070|                              0f 0c 3f 06      |          ..?.  |        occur: "1978-01-01T00:00:06Z" (252460806) 0x7a-0x7e (4)
0x070|                                          00 00|              ..|        corr: 7 0x7e-0x82 (4)
0x080|00 07                                          |..              |
     |                                               |                |      [7]{}: leap_second_record 0x82-0x8a (8)
0x080|      10 ed 72 87                              |  ..r.          |        occur: "1979-01-01T00:00:07Z" (283996807) 0x82-0x86 (4)
0x080|                  00 00 00 08                  |      ....      |        corr: 8 0x86-0x8a (4)
     |                                               |                |      [8]{}: leap_second_record 0x8a-0x92 (8)
0x080|                              12 ce a6 08      |          ....  |        occur: "1980-01-01T00:00:08Z" (315532808) 0x8a-0x8e (4)
0x080|                                          00 00|              ..|        corr: 9 0x8e-0x92 (4)
0x090|00 09                                          |..              |
     |                                               |                |      [9]{}: leap_second_record 0x92-0x9a (8)
0x090|      15 9f ca 89                              |  ....          |        occur: "1981-07-01T00:00:09Z" (362793609) 0x92-0x96 (4)
0x090|                  00 00 00 0a                  |      ....      |        corr: 10 0x96-0x9a (4)
     |                                               |                |      [10]{}: leap_second_record 0x9a-0xa2 (8)
0x090|                              17 80 fe 0a      |          ....  |        occur: "1982-07-01T00:00:10Z" (394329610) 0x9a-0x9e (4)
0x090|                                          00 00|              ..|        corr: 11 0x9e-0xa2 (4)
0x0a0|00 0b                                          |..              |
     |                                               |                |      [11]{}: leap_second_record 0xa2-0xaa (8)
0x0a0|      19 62 31 8b                              |  .b1.          |        occur: "1983-07-01T00:00:11Z" (425865611) 0xa2-0xa6 (4)
0x0a0|                  00 00 00 0c                  |      ....      |        corr: 12 0xa6-0xaa (4)
     |                                               |                |      [12]{}: leap_second_record 0xaa-0xb2 (8)
0x0a0|                              1d 25 ea 0c      |          .%..  |        occur: "1985-07-01T00:00:12Z" (489024012) 0xaa-0xae (4)
0x0a0|                                          00 00|              ..|        corr: 13 0xae-0xb2 (4)
0x0b0|00 0d                                          |..              |
     |                                               |                |      [13]{}: leap_second_record 0xb2-0xba (8)
0x0b0|      21 da e5 0d                              |  !...          |        occur: "1988-01-01T00:00:13Z" (567993613) 0xb2-0xb6 (4)
0x0b0|                  00 00 00 0e                  |      ....      |        corr: 14 0xb6-0xba (4)
     |                                               |                |      [14]{}: leap_second_record 0xba-0xc2 (8)
0x0b0|                              25 9e 9d 8e      |          %...  |        occur: "1990-01-01T00:00:14Z" (631152014) 0xba-0xbe (4)
0x0b0|                                          00 00|              ..|        corr: 15 0xbe-0xc2 (4)
0x0c0|00 0f                                          |..              |
     |                                               |                |      [15]{}: leap_second_record 0xc2-0xca (8)
0x0c0|      27 7f d1 0f                              |  '...          |        occur: "1991-01-01T00:00:15Z" (662688015) 0xc2-0xc6 (4)
0x0c0|                  00 00 00 10                  |      ....      |        corr: 16 0xc6-0xca (4)
     |                                               |                |      [16]{}: leap_second_record 0xca-0xd2 (8)
0x0c0|                              2a 50 f5 90      |          *P..  |        occur: "1992-07-01T00:00:16Z" (709948816) 0xca-0xce (4)
0x0c0|                                          00 00|              ..|        corr: 17 0xce-0xd2 (4)
0x0d0|00 11                                          |..              |
     |                                               |                |      [17]{}: leap_second_record 0xd2-0xda (8)
0x0d0|      2c 32 29 11                              |  ,2).          |        occur: "1993-07-01T00:00:17Z" (741484817) 0xd2-0xd6 (4)
0x0d0|                  00 00 00 12                  |      ....      |        corr: 18 0xd6-0xda (4)
     |                                               |                |      [18]{}: leap_second_record 0xda-0xe2 (8)
0x0d0|                              2e 13 5c 92      |          ..\.  |        occur: "1994-07-01T00:00:18Z" (773020818) 0xda-0xde (4)
0x0d0|                                          00 00|              ..|        corr: 19 0xde-0xe2 (4)
0x0e0|00 13                                          |..              |
     |                                               |                |      [19]{}: leap_second_record 0xe2-0xea (8)
0x0e0|      30 e7 24 13                              |  0.$.          |        occur: "1996-01-01T00:00:19Z" (820454419) 0xe2-0xe6 (4)
0x0e0|                  00 00 00 14                  |      ....      |        corr: 20 0xe6-0xea (4)
     |                                               |                |      [20]{}: leap_second_record 0xea-0xf2 (8)
0x0e0|                              33 b8 48 94      |          3.H.  |        occur: "1997-07-01T00:00:20Z" (867715220) 0xea-0xee (4)
0x0e0|                                          00 00|              ..|        corr: 21 0xee-0xf2 (4)
0x0f0|00 15                                          |..              |
     |                                               |                |      [21]{}: leap_second_record 0xf2-0xfa (8)
0x0f0|      36 8c 10 15                              |  6...          |        occur: "1999-01-01T00:00:21Z" (915148821) 0xf2-0xf6 (4)
0x0f0|                  00 00 00 16                  |      ....      |        corr: 22 0xf6-0xfa (4)
     |                                               |                |      [22]{}: leap_second_record 0xfa-0x102 (8)
0x0f0|                              43 b7 1b 96      |          C...  |        occur: "2006-01-01T00:00:22Z" (1136073622) 0xfa-0xfe (4)
0x0f0|                                          00 00|              ..|        corr: 23 0xfe-0x102 (4)
0x100|00 17                                          |..              |
     |                                               |                |      [23]{}: leap_second_record 0x102-0x10a (8)
0x100|      49 5c 07 97                              |  I\..          |        occur: "2009-01-01T00:00:23Z" (1230768023) 0x102-0x106 (4)
0x100|                  00 00 00 18                  |      ....      |        corr: 24 0x106-0x10a (4)
     |                                               |                |      [24]{}: leap_second_record 0x10a-0x112 (8)
0x100|                              4f ef 93 18      |          O...  |        occur: "2012-07-01T00:00:24Z" (1341100824) 0x10a-0x10e (4)
0x100|                                          00 00|              ..|        corr: 25 0x10e-0x112 (4)
0x110|00 19                                          |..              |
     |                                               |                |      [25]{}: leap_second_record 0x112-0x11a (8)
0x110|      55 93 2d 99                              |  U.-.          |        occur: "2015-07-01T00:00:25Z" (1435708825) 0x112-0x116 (4)
0x110|                  00 00 00 1a                  |      ....      |        corr: 26 0x116-0x11a (4)
     |                                               |                |      [26]{}: leap_second_record 0x11a-0x122 (8)
0x110|                              58 68 46 9a      |          XhF.  |        occur: "2017-01-01T00:00:26Z" (1483228826) 0x11a-0x11e (4)
0x110|                                          00 00|              ..|        corr: 27 0x11e-0x122 (4)
0x120|00 1b                                          |..              |
     |                                               |                |    standard_wall_indicators[0:0]: 0x122-0x122 (0)
     |                                               |                |    ut_local_indicators[0:0]: 0x122-0x122 (0)
     |                                               |                |  v2plusheader{}: 0x122-0x14e (44)
0x120|      54 5a 69 66                              |  TZif          |    magic: 0x545a6966 (valid) 0x122-0x126 (4)
0x120|                  32                           |      2         |    ver: "2" (0x32) (valid) 0x126-0x127 (1)
0x120|                     00 00 00 00 00 00 00 00 00|       .........|    reserved: raw bits 0x127-0x136 (15)
0x130|00 00 00 00 00 00                              |......          |
0x130|                  00 00 00 00                  |      ....      |    isutcnt: 0 0x136-0x13a (4)
0x130|                              00 00 00 00      |          ....  |    isstdcnt: 0 0x13a-0x13e (4)
0x130|                                          00 00|              ..|    leapcnt: 27 0x13e-0x142 (4)
0x140|00 1b                                          |..              |
0x140|      00 00 00 02                              |  ....          |    timecnt: 2 0x142-0x146 (4)
0x140|                  00 00 00 02                  |      ....      |    typecnt: 2 0x146-0x14a (4)
0x140|                              00 00 00 08      |          ....  |    charcnt: 8 0x14a-0x14e (4)
     |                                               |                |  v2plusdatablock{}: 0x14e-0x2b8 (362)
     |                                               |                |    transition_times[0:2]: 0x14e-0x15e (16)
0x140|                                          ff ff|              ..|      [0]: "1927-12-31T18:09:40Z" (-1325483420) transition_time 0x14e-0x156 (8)
0x150|ff ff b0 fe ba 64                              |.....d          |
0x150|                  00 00 00 00 64 9b 78 1b      |      ....d.x.  |      [1]: "2023-06-28T00:00:27Z" (1687910427) transition_time 0x156-0x15e (8)
     |                                               |                |    transition_types[0:2]: 0x15e-0x160 (2)
0x150|                                          01   |              . |      [0]: 1 transition_type 0x15e-0x15f (1)
0x150|                                             01|               .|      [1]: 1 transition_type 0x15f-0x160 (1)
     |                                               |                |    local_time_type_records[0:2]: 0x160-0x16c (12)
     |                                               |                |      [0]{}: local_time_type 0x160-0x166 (6)
0x160|00 00 52 1c                                    |..R.            |        utoff: 21020 (valid) 0x160-0x164 (4)
0x160|            00                                 |    .           |        dst: 0 (valid) 0x164-0x165 (1)
0x160|               00                              |     .          |        idx: 0 (valid) 0x165-0x166 (1)
     |                                               |                |      [1]{}: local_time_type 0x166-0x16c (6)
0x160|                  00 00 54 60                  |      ..T`      |        utoff: 21600 (valid) 0x166-0x16a (4)
0x160|                              00               |          .     |        dst: 0 (valid) 0x16a-0x16b (1)
0x160|                                 04            |           .    |        idx: 4 (valid) 0x16b-0x16c (1)
     |                                               |                |    time_zone_designations[0:2]: 0x16c-0x174 (8)
0x160|                                    4c 4d 54 00|            LMT.|      [0]: "LMT" time_zone_designation 0x16c-0x170 (4)
0x170|2b 30 36 00                                    |+06.            |      [1]: "+06" time_zone_designation 0x170-0x174 (4)
     |                                               |                |    leap_second_records[0:27]: 0x174-0x2b8 (324)
     |                                               |                |      [0]{}: leap_second_record 0x174-0x180 (12)
0x170|            00 00 00 00 04 b2 58 00            |    ......X.    |        occur: "1972-07-01T00:00:00Z" (78796800) 0x174-0x17c (8)
0x170|                                    00 00 00 01|            ....|        corr: 1 0x17c-0x180 (4)
     |                                               |                |      [1]{}: leap_second_record 0x180-0x18c (12)
0x180|00 00 00 00 05 a4 ec 01                        |........        |        occur: "1973-01-01T00:00:01Z" (94694401) 0x180-0x188 (8)
0x180|                        00 00 00 02            |        ....    |        corr: 2 0x188-0x18c (4)
     |                                               |                |      [2]{}: leap_second_record 0x18c-0x198 (12)
0x180|                                    00 00 00 00|            ....|        occur: "1974-01-01T00:00:02Z" (126230402) 0x18c-0x194 (8)
0x190|07 86 1f 82                                    |....            |
0x190|            00 00 00 03                        |    ....        |        corr: 3 0x194-0x198 (4)
     |                                               |                |      [3]{}: leap_second_record 0x198-0x1a4 (12)
0x190|                        00 00 00 00 09 67 53 03|        .....gS.|        occur: "1975-01-01T00:00:03Z" (157766403) 0x198-0x1a0 (8)
0x1a0|00 00 00 04                                    |....            |        corr: 4 0x1a0-0x1a4 (4)
     |                                               |                |      [4]{}: leap_second_record 0x1a4-0x1b0 (12)
0x1a0|            00 00 00 00 0b 48 86 84            |    .....H..    |        occur: "1976-01-01T00:00:04Z" (189302404) 0x1a4-0x1ac (8)
0x1a0|                                    00 00 00 05|            ....|        corr: 5 0x1ac-0x1b0 (4)
     |                                               |                |      [5]{}: leap_second_record 0x1b0-0x1bc (12)
0x1b0|00 00 00 00 0d 2b 0b 85                        |.....+..        |        occur: "1977-01-01T00:00:05Z" (220924805) 0x1b0-0x1b8 (8)
0x1b0|                        00 00 00 06            |        ....    |        corr: 6 0x1b8-0x1bc (4)
     |                                               |                |      [6]{}: leap_second_record 0x1bc-0x1c8 (12)
0x1b0|                                    00 00 00 00|            ....|        occur: "1978-01-01T00:00:06Z" (252460806) 0x1bc-0x1c4 (8)
0x1c0|0f 0c 3f 06                                    |..?.            |
0x1c0|            00 00 00 07                        |    ....        |        corr: 7 0x1c4-0x1c8 (4)
     |                                               |                |      [7]{}: leap_second_record 0x1c8-0x1d4 (12)
0x1c0|                        00 00 00 00 10 ed 72 87|        ......r.|        occur: "1979-01-01T00:00:07Z" (283996807) 0x1c8-0x1d0 (8)
0x1d0|00 00 00 08                                    |....            |        corr: 8 0x1d0-0x1d4 (4)
     |                                               |                |      [8]{}: leap_second_record 0x1d4-0x1e0 (12)
0x1d0|            00 00 00 00 12 ce a6 08            |    ........    |        occur: "1980-01-01T00:00:08Z" (315532808) 0x1d4-0x1dc (8)
0x1d0|                                    00 00 00 09|            ....|        corr: 9 0x1dc-0x1e0 (4)
     |                                               |                |      [9]{}: leap_second_record 0x1e0-0x1ec (12)
0x1e0|00 00 00 00 15 9f ca 89                        |........        |        occur: "1981-07-01T00:00:09Z" (362793609) 0x1e0-0x1e8 (8)
0x1e0|                        00 00 00 0a            |        ....    |        corr: 10 0x1e8-0x1ec (4)
     |                                               |                |      [10]{}: leap_second_record 0x1ec-0x1f8 (12)
0x1e0|                                    00 00 00 00|            ....|        occur: "1982-07-01T00:00:10Z" (394329610) 0x1ec-0x1f4 (8)
0x1f0|17 80 fe 0a                                    |....            |
0x1f0|            00 00 00 0b                        |    ....        |        corr: 11 0x1f4-0x1f8 (4)
     |                                               |                |      [11]{}: leap_second_record 0x1f8-0x204 (12)
0x1f0|                        00 00 00 00 19 62 31 8b|        .....b1.|        occur: "1983-07-01T00:00:11Z" (425865611) 0x1f8-0x200 (8)
0x200|00 00 00 0c                                    |....            |        corr: 12 0x200-0x204 (4)
     |                                               |                |      [12]{}: leap_second_record 0x204-0x210 (12)
0x200|            00 00 00 00 1d 25 ea 0c            |    .....%..    |        occur: "1985-07-01T00:00:12Z" (489024012) 0x204-0x20c (8)
0x200|                                    00 00 00 0d|            ....|        corr: 13 0x20c-0x210 (4)
     |                                               |                |      [13]{}: leap_second_record 0x210-0x21c (12)
0x210|00 00 00 00 21 da e5 0d                        |....!...        |        occur: "1988-01-01T00:00:13Z" (567993613) 0x210-0x218 (8)
0x210|                        00 00 00 0e            |        ....    |        corr: 14 0x218-0x21c (4)
     |                                               |                |      [14]{}: leap_second_record 0x21c-0x228 (12)
0x210|                                    00 00 00 00|            ....|        occur: "1990-01-01T00:00:14Z" (631152014) 0x21c-0x224 (8)
0x220|25 9e 9d 8e                                    |%...            |
0x220|            00 00 00 0f                        |    ....        |        corr: 15 0x224-0x228 (4)
     |                                               |                |      [15]{}: leap_second_record 0x228-0x234 (12)
0x220|                        00 00 00 00 27 7f d1 0f|        ....'...|        occur: "1991-01-01T00:00:15Z" (662688015) 0x228-0x230 (8)
0x230|00 00 00 10                                    |....            |        corr: 16 0x230-0x234 (4)
     |                                               |                |      [16]{}: leap_second_record 0x234-0x240 (12)
0x230|            00 00 00 00 2a 50 f5 90            |    ....*P..    |        occur: "1992-07-01T00:00:16Z" (709948816) 0x234-0x23c (8)
0x230|                                    00 00 00 11|            ....|        corr: 17 0x23c-0x240 (4)
     |                                               |                |      [17]{}: leap_second_record 0x240-0x24c (12)
0x240|00 00 00 00 2c 32 29 11                        |....,2).        |        occur: "1993-07-01T00:00:17Z" (741484817) 0x240-0x248 (8)
0x240|                        00 00 00 12            |        ....    |        corr: 18 0x248-0x24c (4)
     |                                               |                |      [18]{}: leap_second_record 0x24c-0x258 (12)
0x240|                                    00 00 00 00|            ....|        occur: "1994-07-01T00:00:18Z" (773020818) 0x24c-0x254 (8)
0x250|2e 13 5c 92                                    |..\.            |
0x250|            00 00 00 13                        |    ....        |        corr: 19 0x254-0x258 (4)
     |                                               |                |      [19]{}: leap_second_record 0x258-0x264 (12)
0x250|                        00 00 00 00 30 e7 24 13|        ....0.$.|        occur: "1996-01-01T00:00:19Z" (820454419) 0x258-0x260 (8)
0x260|00 00 00 14                                    |....            |        corr: 20 0x260-0x264 (4)
     |                                               |                |      [20]{}: leap_second_record 0x264-0x270 (12)
0x260|            00 00 00 00 33 b8 48 94            |    ....3.H.    |        occur: "1997-07-01T00:00:20Z" (867715220) 0x264-0x26c (8)
0x260|                                    00 00 00 15|            ....|        corr: 21 0x26c-0x270 (4)
     |                                               |                |      [21]{}: leap_second_record 0x270-0x27c (12)
0x270|00 00 00 00 36 8c 10 15                        |....6...        |        occur: "1999-01-01T00:00:21Z" (915148821) 0x270-0x278 (8)
0x270|                        00 00 00 16            |        ....    |        corr: 22 0x278-0x27c (4)
     |                                               |                |      [22]{}: leap_second_record 0x27c-0x288 (12)
0x270|                                    00 00 00 00|            ....|        occur: "2006-01-01T00:00:22Z" (1136073622) 0x27c-0x284 (8)
0x280|43 b7 1b 96                                    |C...            |
0x280|            00 00 00 17                        |    ....        |        corr: 23 0x284-0x288 (4)
     |                                               |                |      [23]{}: leap_second_record 0x288-0x294 (12)
0x280|                        00 00 00 00 49 5c 07 97|        ....I\..|        occur: "2009-01-01T00:00:23Z" (1230768023) 0x288-0x290 (8)
0x290|00 00 00 18                                    |....            |        corr: 24 0x290-0x294 (4)
     |                                               |                |      [24]{}: leap_second_record 0x294-0x2a0 (12)
0x290|            00 00 00 00 4f ef 93 18            |    ....O...    |        occur: "2012-07-01T00:00:24Z" (1341100824) 0x294-0x29c (8)
0x290|                                    00 00 00 19|            ....|        corr: 25 0x29c-0x2a0 (4)
     |                                               |                |      [25]{}: leap_second_record 0x2a0-0x2ac (12)
0x2a0|00 00 00 00 55 93 2d 99                        |....U.-.        |        occur: "2015-07-01T00:00:25Z" (1435708825) 0x2a0-0x2a8 (8)
0x2a0|                        00 00 00 1a            |        ....    |        corr: 26 0x2a8-0x2ac (4)
     |                                               |                |      [26]{}: leap_second_record 0x2ac-0x2b8 (12)
0x2a0|                                    00 00 00 00|            ....|        occur: "2017-01-01T00:00:26Z" (1483228826) 0x2ac-0x2b4 (8)
0x2b0|58 68 46 9a                                    |XhF.            |
0x2b0|            00 00 00 1b                        |    ....        |        corr: 27 0x2b4-0x2b8 (4)
     |                                               |                |    standard_wall_indicators[0:0]: 0x2b8-0x2b8 (0)
     |                                               |                |    ut_local_indicators[0:0]: 0x2b8-0x2b8 (0)
     |                                               |                |  footer{}: 0x2b8-0x2ba (2)
0x2b0|                        0a                     |        .       |    nl1: 10 (valid) 0x2b8-0x2b9 (1)
     |                                               |                |    tz_string: "" 0x2b9-0x2b9 (0)
0x2b0|                           0a|                 |         .|     |    nl2: 10 (valid) 0x2b9-0x2ba (1)
