$ fq -d tzif dv Ust-Nera
     |00 01 02 03 04 05 06 07 08 09 0a 0b 0c 0d 0e 0f|0123456789abcdef|.{}: Ust-Nera (tzif) 0x0-0x6f7.7 (1784)
     |                                               |                |  v1header{}: 0x0-0x2b.7 (44)
0x000|54 5a 69 66                                    |TZif            |    magic: 0x545a6966 (valid) 0x0-0x3.7 (4)
0x000|            32                                 |    2           |    ver: "2" (0x32) (valid) 0x4-0x4.7 (1)
0x000|               00 00 00 00 00 00 00 00 00 00 00|     ...........|    reserved: raw bits 0x5-0x13.7 (15)
0x010|00 00 00 00                                    |....            |
0x010|            00 00 00 00                        |    ....        |    isutcnt: 0 0x14-0x17.7 (4)
0x010|                        00 00 00 0c            |        ....    |    isstdcnt: 12 0x18-0x1b.7 (4)
0x010|                                    00 00 00 1b|            ....|    leapcnt: 27 0x1c-0x1f.7 (4)
0x020|00 00 00 43                                    |...C            |    timecnt: 67 0x20-0x23.7 (4)
0x020|            00 00 00 0c                        |    ....        |    typecnt: 12 0x24-0x27.7 (4)
0x020|                        00 00 00 18            |        ....    |    charcnt: 24 0x28-0x2b.7 (4)
     |                                               |                |  v1datablock{}: 0x2c-0x2be.7 (659)
     |                                               |                |    transition_times[0:67]: 0x2c-0x137.7 (268)
0x020|                                    a1 db dd ba|            ....|      [0]: "1919-12-14T14:27:06Z" (-1579426374) transition_time 0x2c-0x2f.7 (4)
0x030|b5 a3 c5 00                                    |....            |      [1]: "1930-06-20T16:00:00Z" (-1247558400) transition_time 0x30-0x33.7 (4)
0x030|            15 27 53 79                        |    .'Sy        |      [2]: "1981-03-31T15:00:09Z" (354898809) transition_time 0x34-0x37.7 (4)
0x030|                        16 18 6b ca            |        ..k.    |      [3]: "1981-09-30T12:00:10Z" (370699210) transition_time 0x38-0x3b.7 (4)
0x030|                                    17 08 6a da|            ..j.|      [4]: "1982-03-31T13:00:10Z" (386427610) transition_time 0x3c-0x3f.7 (4)
0x040|17 f9 9f 4b                                    |...K            |      [5]: "1982-09-30T12:00:11Z" (402235211) transition_time 0x40-0x43.7 (4)
0x040|            18 e9 9e 5b                        |    ...[        |      [6]: "1983-03-31T13:00:11Z" (417963611) transition_time 0x44-0x47.7 (4)
0x040|                        19 da d2 cc            |        ....    |      [7]: "1983-09-30T12:00:12Z" (433771212) transition_time 0x48-0x4b.7 (4)
0x040|                                    1a cc 23 5c|            ..#\|      [8]: "1984-03-31T13:00:12Z" (449586012) transition_time 0x4c-0x4f.7 (4)
0x050|1b bc 30 7c                                    |..0|            |      [9]: "1984-09-29T15:00:12Z" (465318012) transition_time 0x50-0x53.7 (4)
0x050|            1c ac 21 7c                        |    ..!|        |      [10]: "1985-03-30T15:00:12Z" (481042812) transition_time 0x54-0x57.7 (4)
0x050|                        1d 9c 12 7d            |        ...}    |      [11]: "1985-09-28T15:00:13Z" (496767613) transition_time 0x58-0x5b.7 (4)
0x050|                                    1e 8c 03 7d|            ...}|      [12]: "1986-03-29T15:00:13Z" (512492413) transition_time 0x5c-0x5f.7 (4)
0x060|1f 7b f4 7d                                    |.{.}            |      [13]: "1986-09-27T15:00:13Z" (528217213) transition_time 0x60-0x63.7 (4)
0x060|            20 6b e5 7d                        |     k.}        |      [14]: "1987-03-28T15:00:13Z" (543942013) transition_time 0x64-0x67.7 (4)
0x060|                        21 5b d6 7d            |        ![.}    |      [15]: "1987-09-26T15:00:13Z" (559666813) transition_time 0x68-0x6b.7 (4)
0x060|                                    22 4b c7 7e|            "K.~|      [16]: "1988-03-26T15:00:14Z" (575391614) transition_time 0x6c-0x6f.7 (4)
0x070|23 3b b8 7e                                    |#;.~            |      [17]: "1988-09-24T15:00:14Z" (591116414) transition_time 0x70-0x73.7 (4)
0x070|            24 2b a9 7e                        |    $+.~        |      [18]: "1989-03-25T15:00:14Z" (606841214) transition_time 0x74-0x77.7 (4)
0x070|                        25 1b 9a 7e            |        %..~    |      [19]: "1989-09-23T15:00:14Z" (622566014) transition_time 0x78-0x7b.7 (4)
0x070|                                    26 0b 8b 7f|            &...|      [20]: "1990-03-24T15:00:15Z" (638290815) transition_time 0x7c-0x7f.7 (4)
0x080|27 04 b6 ff                                    |'...            |      [21]: "1990-09-29T15:00:15Z" (654620415) transition_time 0x80-0x83.7 (4)
0x080|            27 f4 a8 00                        |    '...        |      [22]: "1991-03-30T15:00:16Z" (670345216) transition_time 0x84-0x87.7 (4)
0x080|                        28 e4 a7 10            |        (...    |      [23]: "1991-09-28T16:00:16Z" (686073616) transition_time 0x88-0x8b.7 (4)
0x080|                                    29 78 4f 10|            )xO.|      [24]: "1992-01-18T16:00:16Z" (695750416) transition_time 0x8c-0x8f.7 (4)
0x090|29 d4 8a 00                                    |)...            |      [25]: "1992-03-28T15:00:16Z" (701794816) transition_time 0x90-0x93.7 (4)
0x090|            2a c4 7b 01                        |    *.{.        |      [26]: "1992-09-26T15:00:17Z" (717519617) transition_time 0x94-0x97.7 (4)
0x090|                        2b b4 6c 01            |        +.l.    |      [27]: "1993-03-27T15:00:17Z" (733244417) transition_time 0x98-0x9b.7 (4)
0x090|                                    2c a4 5d 02|            ,.].|      [28]: "1993-09-25T15:00:18Z" (748969218) transition_time 0x9c-0x9f.7 (4)
0x0a0|2d 94 4e 02                                    |-.N.            |      [29]: "1994-03-26T15:00:18Z" (764694018) transition_time 0xa0-0xa3.7 (4)
0x0a0|            2e 84 3f 03                        |    ..?.        |      [30]: "1994-09-24T15:00:19Z" (780418819) transition_time 0xa4-0xa7.7 (4)
0x0a0|                        2f 74 30 03            |        /t0.    |      [31]: "1995-03-25T15:00:19Z" (796143619) transition_time 0xa8-0xab.7 (4)
0x0a0|                                    30 64 21 03|            0d!.|      [32]: "1995-09-23T15:00:19Z" (811868419) transition_time 0xac-0xaf.7 (4)
0x0b0|31 5d 4c 84                                    |1]L.            |      [33]: "1996-03-30T15:00:20Z" (828198020) transition_time 0xb0-0xb3.7 (4)
0x0b0|            32 72 27 84                        |    2r'.        |      [34]: "1996-10-26T15:00:20Z" (846342020) transition_time 0xb4-0xb7.7 (4)
0x0b0|                        33 3d 2e 84            |        3=..    |      [35]: "1997-03-29T15:00:20Z" (859647620) transition_time 0xb8-0xbb.7 (4)
0x0b0|                                    34 52 09 85|            4R..|      [36]: "1997-10-25T15:00:21Z" (877791621) transition_time 0xbc-0xbf.7 (4)
0x0c0|35 1d 10 85                                    |5...            |      [37]: "1998-03-28T15:00:21Z" (891097221) transition_time 0xc0-0xc3.7 (4)
0x0c0|            36 31 eb 85                        |    61..        |      [38]: "1998-10-24T15:00:21Z" (909241221) transition_time 0xc4-0xc7.7 (4)
0x0c0|                        36 fc f2 86            |        6...    |      [39]: "1999-03-27T15:00:22Z" (922546822) transition_time 0xc8-0xcb.7 (4)
0x0c0|                                    38 1b 08 06|            8...|      [40]: "1999-10-30T15:00:22Z" (941295622) transition_time 0xcc-0xcf.7 (4)
0x0d0|38 dc d4 86                                    |8...            |      [41]: "2000-03-25T15:00:22Z" (953996422) transition_time 0xd0-0xd3.7 (4)
0x0d0|            39 fa ea 06                        |    9...        |      [42]: "2000-10-28T15:00:22Z" (972745222) transition_time 0xd4-0xd7.7 (4)
0x0d0|                        3a bc b6 86            |        :...    |      [43]: "2001-03-24T15:00:22Z" (985446022) transition_time 0xd8-0xdb.7 (4)
0x0d0|                                    3b da cc 06|            ;...|      [44]: "2001-10-27T15:00:22Z" (1004194822) transition_time 0xdc-0xdf.7 (4)
0x0e0|3c a5 d3 06                                    |<...            |      [45]: "2002-03-30T15:00:22Z" (1017500422) transition_time 0xe0-0xe3.7 (4)
0x0e0|            3d ba ae 06                        |    =...        |      [46]: "2002-10-26T15:00:22Z" (1035644422) transition_time 0xe4-0xe7.7 (4)
0x0e0|                        3e 85 b5 06            |        >...    |      [47]: "2003-03-29T15:00:22Z" (1048950022) transition_time 0xe8-0xeb.7 (4)
0x0e0|                                    3f 9a 90 06|            ?...|      [48]: "2003-10-25T15:00:22Z" (1067094022) transition_time 0xec-0xef.7 (4)
0x0f0|40 65 97 06                                    |@e..            |      [49]: "2004-03-27T15:00:22Z" (1080399622) transition_time 0xf0-0xf3.7 (4)
0x0f0|            41 83 ac 86                        |    A...        |      [50]: "2004-10-30T15:00:22Z" (1099148422) transition_time 0xf4-0xf7.7 (4)
0x0f0|                        42 45 79 06            |        BEy.    |      [51]: "2005-03-26T15:00:22Z" (1111849222) transition_time 0xf8-0xfb.7 (4)
0x0f0|                                    43 63 8e 86|            Cc..|      [52]: "2005-10-29T15:00:22Z" (1130598022) transition_time 0xfc-0xff.7 (4)
0x100|44 25 5b 07                                    |D%[.            |      [53]: "2006-03-25T15:00:23Z" (1143298823) transition_time 0x100-0x103.7 (4)
0x100|            45 43 70 87                        |    ECp.        |      [54]: "2006-10-28T15:00:23Z" (1162047623) transition_time 0x104-0x107.7 (4)
0x100|                        46 05 3d 07            |        F.=.    |      [55]: "2007-03-24T15:00:23Z" (1174748423) transition_time 0x108-0x10b.7 (4)
0x100|                                    47 23 52 87|            G#R.|      [56]: "2007-10-27T15:00:23Z" (1193497223) transition_time 0x10c-0x10f.7 (4)
0x110|47 ee 59 87                                    |G.Y.            |      [57]: "2008-03-29T15:00:23Z" (1206802823) transition_time 0x110-0x113.7 (4)
0x110|            49 03 34 87                        |    I.4.        |      [58]: "2008-10-25T15:00:23Z" (1224946823) transition_time 0x114-0x117.7 (4)
0x110|                        49 ce 3b 88            |        I.;.    |      [59]: "2009-03-28T15:00:24Z" (1238252424) transition_time 0x118-0x11b.7 (4)
0x110|                                    4a e3 16 88|            J...|      [60]: "2009-10-24T15:00:24Z" (1256396424) transition_time 0x11c-0x11f.7 (4)
0x120|4b ae 1d 88                                    |K...            |      [61]: "2010-03-27T15:00:24Z" (1269702024) transition_time 0x120-0x123.7 (4)
0x120|            4c cc 33 08                        |    L.3.        |      [62]: "2010-10-30T15:00:24Z" (1288450824) transition_time 0x124-0x127.7 (4)
0x120|                        4d 8d ff 88            |        M...    |      [63]: "2011-03-26T15:00:24Z" (1301151624) transition_time 0x128-0x12b.7 (4)
0x120|                                    4e 6d f4 58|            Nm.X|      [64]: "2011-09-12T12:00:24Z" (1315828824) transition_time 0x12c-0x12f.7 (4)
0x130|54 4b bb 09                                    |TK..            |      [65]: "2014-10-25T15:00:25Z" (1414249225) transition_time 0x130-0x133.7 (4)
0x130|            64 9b 78 1b                        |    d.x.        |      [66]: "2023-06-28T00:00:27Z" (1687910427) transition_time 0x134-0x137.7 (4)
     |                                               |                |    transition_types[0:67]: 0x138-0x17a.7 (67)
0x130|                        01                     |        .       |      [0]: 1 transition_type 0x138-0x138.7 (1)
0x130|                           02                  |         .      |      [1]: 2 transition_type 0x139-0x139.7 (1)
0x130|                              04               |          .     |      [2]: 4 transition_type 0x13a-0x13a.7 (1)
0x130|                                 03            |           .    |      [3]: 3 transition_type 0x13b-0x13b.7 (1)
0x130|                                    04         |            .   |      [4]: 4 transition_type 0x13c-0x13c.7 (1)
0x130|                                       03      |             .  |      [5]: 3 transition_type 0x13d-0x13d.7 (1)
0x130|                                          04   |              . |      [6]: 4 transition_type 0x13e-0x13e.7 (1)
0x130|                                             03|               .|      [7]: 3 transition_type 0x13f-0x13f.7 (1)
0x140|04                                             |.               |      [8]: 4 transition_type 0x140-0x140.7 (1)
0x140|   05                                          | .              |      [9]: 5 transition_type 0x141-0x141.7 (1)
0x140|      06                                       |  .             |      [10]: 6 transition_type 0x142-0x142.7 (1)
0x140|         05                                    |   .            |      [11]: 5 transition_type 0x143-0x143.7 (1)
0x140|            06                                 |    .           |      [12]: 6 transition_type 0x144-0x144.7 (1)
0x140|               05                              |     .          |      [13]: 5 transition_type 0x145-0x145.7 (1)
0x140|                  06                           |      .         |      [14]: 6 transition_type 0x146-0x146.7 (1)
0x140|                     05                        |       .        |      [15]: 5 transition_type 0x147-0x147.7 (1)
0x140|                        06                     |        .       |      [16]: 6 transition_type 0x148-0x148.7 (1)
0x140|                           05                  |         .      |      [17]: 5 transition_type 0x149-0x149.7 (1)
0x140|                              06               |          .     |      [18]: 6 transition_type 0x14a-0x14a.7 (1)
0x140|                                 05            |           .    |      [19]: 5 transition_type 0x14b-0x14b.7 (1)
0x140|                                    06         |            .   |      [20]: 6 transition_type 0x14c-0x14c.7 (1)
0x140|                                       05      |             .  |      [21]: 5 transition_type 0x14d-0x14d.7 (1)
0x140|                                          07   |              . |      [22]: 7 transition_type 0x14e-0x14e.7 (1)
0x140|                                             08|               .|      [23]: 8 transition_type 0x14f-0x14f.7 (1)
0x150|05                                             |.               |      [24]: 5 transition_type 0x150-0x150.7 (1)
0x150|   06                                          | .              |      [25]: 6 transition_type 0x151-0x151.7 (1)
0x150|      05                                       |  .             |      [26]: 5 transition_type 0x152-0x152.7 (1)
0x150|         06                                    |   .            |      [27]: 6 transition_type 0x153-0x153.7 (1)
0x150|            05                                 |    .           |      [28]: 5 transition_type 0x154-0x154.7 (1)
0x150|               06                              |     .          |      [29]: 6 transition_type 0x155-0x155.7 (1)
0x150|                  05                           |      .         |      [30]: 5 transition_type 0x156-0x156.7 (1)
0x150|                     06                        |       .        |      [31]: 6 transition_type 0x157-0x157.7 (1)
0x150|                        05                     |        .       |      [32]: 5 transition_type 0x158-0x158.7 (1)
0x150|                           06                  |         .      |      [33]: 6 transition_type 0x159-0x159.7 (1)
0x150|                              05               |          .     |      [34]: 5 transition_type 0x15a-0x15a.7 (1)
0x150|                                 06            |           .    |      [35]: 6 transition_type 0x15b-0x15b.7 (1)
0x150|                                    05         |            .   |      [36]: 5 transition_type 0x15c-0x15c.7 (1)
0x150|                                       06      |             .  |      [37]: 6 transition_type 0x15d-0x15d.7 (1)
0x150|                                          05   |              . |      [38]: 5 transition_type 0x15e-0x15e.7 (1)
0x150|                                             06|               .|      [39]: 6 transition_type 0x15f-0x15f.7 (1)
0x160|05                                             |.               |      [40]: 5 transition_type 0x160-0x160.7 (1)
0x160|   06                                          | .              |      [41]: 6 transition_type 0x161-0x161.7 (1)
0x160|      05                                       |  .             |      [42]: 5 transition_type 0x162-0x162.7 (1)
0x160|         06                                    |   .            |      [43]: 6 transition_type 0x163-0x163.7 (1)
0x160|            05                                 |    .           |      [44]: 5 transition_type 0x164-0x164.7 (1)
0x160|               06                              |     .          |      [45]: 6 transition_type 0x165-0x165.7 (1)
0x160|                  05                           |      .         |      [46]: 5 transition_type 0x166-0x166.7 (1)
0x160|                     06                        |       .        |      [47]: 6 transition_type 0x167-0x167.7 (1)
0x160|                        05                     |        .       |      [48]: 5 transition_type 0x168-0x168.7 (1)
0x160|                           06                  |         .      |      [49]: 6 transition_type 0x169-0x169.7 (1)
0x160|                              05               |          .     |      [50]: 5 transition_type 0x16a-0x16a.7 (1)
0x160|                                 06            |           .    |      [51]: 6 transition_type 0x16b-0x16b.7 (1)
0x160|                                    05         |            .   |      [52]: 5 transition_type 0x16c-0x16c.7 (1)
0x160|                                       06      |             .  |      [53]: 6 transition_type 0x16d-0x16d.7 (1)
0x160|                                          05   |              . |      [54]: 5 transition_type 0x16e-0x16e.7 (1)
0x160|                                             06|               .|      [55]: 6 transition_type 0x16f-0x16f.7 (1)
0x170|05                                             |.               |      [56]: 5 transition_type 0x170-0x170.7 (1)
0x170|   06                                          | .              |      [57]: 6 transition_type 0x171-0x171.7 (1)
0x170|      05                                       |  .             |      [58]: 5 transition_type 0x172-0x172.7 (1)
0x170|         06                                    |   .            |      [59]: 6 transition_type 0x173-0x173.7 (1)
0x170|            05                                 |    .           |      [60]: 5 transition_type 0x174-0x174.7 (1)
0x170|               06                              |     .          |      [61]: 6 transition_type 0x175-0x175.7 (1)
0x170|                  05                           |      .         |      [62]: 5 transition_type 0x176-0x176.7 (1)
0x170|                     09                        |       .        |      [63]: 9 transition_type 0x177-0x177.7 (1)
0x170|                        05                     |        .       |      [64]: 5 transition_type 0x178-0x178.7 (1)
0x170|                           08                  |         .      |      [65]: 8 transition_type 0x179-0x179.7 (1)
0x170|                              08               |          .     |      [66]: 8 transition_type 0x17a-0x17a.7 (1)
     |                                               |                |    local_time_type_records[0:12]: 0x17b-0x1c2.7 (72)
     |                                               |                |      [0]{}: local_time_type 0x17b-0x180.7 (6)
0x170|                                 00 00 86 46   |           ...F |        utoff: 34374 (valid) 0x17b-0x17e.7 (4)
0x170|                                             00|               .|        dst: 0 (valid) 0x17f-0x17f.7 (1)
0x180|00                                             |.               |        idx: 0 (valid) 0x180-0x180.7 (1)
     |                                               |                |      [1]{}: local_time_type 0x181-0x186.7 (6)
0x180|   00 00 70 80                                 | ..p.           |        utoff: 28800 (valid) 0x181-0x184.7 (4)
0x180|               00                              |     .          |        dst: 0 (valid) 0x185-0x185.7 (1)
0x180|                  04                           |      .         |        idx: 4 (valid) 0x186-0x186.7 (1)
     |                                               |                |      [2]{}: local_time_type 0x187-0x18c.7 (6)
0x180|                     00 00 7e 90               |       ..~.     |        utoff: 32400 (valid) 0x187-0x18a.7 (4)
0x180|                                 00            |           .    |        dst: 0 (valid) 0x18b-0x18b.7 (1)
0x180|                                    08         |            .   |        idx: 8 (valid) 0x18c-0x18c.7 (1)
     |                                               |                |      [3]{}: local_time_type 0x18d-0x192.7 (6)
0x180|                                       00 00 9a|             ...|        utoff: 39600 (valid) 0x18d-0x190.7 (4)
0x190|b0                                             |.               |
0x190|   00                                          | .              |        dst: 0 (valid) 0x191-0x191.7 (1)
0x190|      0c                                       |  .             |        idx: 12 (valid) 0x192-0x192.7 (1)
     |                                               |                |      [4]{}: local_time_type 0x193-0x198.7 (6)
0x190|         00 00 a8 c0                           |   ....         |        utoff: 43200 (valid) 0x193-0x196.7 (4)
0x190|                     01                        |       .        |        dst: 1 (valid) 0x197-0x197.7 (1)
0x190|                        10                     |        .       |        idx: 16 (valid) 0x198-0x198.7 (1)
     |                                               |                |      [5]{}: local_time_type 0x199-0x19e.7 (6)
0x190|                           00 00 9a b0         |         ....   |        utoff: 39600 (valid) 0x199-0x19c.7 (4)
0x190|                                       00      |             .  |        dst: 0 (valid) 0x19d-0x19d.7 (1)
0x190|                                          0c   |              . |        idx: 12 (valid) 0x19e-0x19e.7 (1)
     |                                               |                |      [6]{}: local_time_type 0x19f-0x1a4.7 (6)
0x190|                                             00|               .|        utoff: 43200 (valid) 0x19f-0x1a2.7 (4)
0x1a0|00 a8 c0                                       |...             |
0x1a0|         01                                    |   .            |        dst: 1 (valid) 0x1a3-0x1a3.7 (1)
0x1a0|            10                                 |    .           |        idx: 16 (valid) 0x1a4-0x1a4.7 (1)
     |                                               |                |      [7]{}: local_time_type 0x1a5-0x1aa.7 (6)
0x1a0|               00 00 9a b0                     |     ....       |        utoff: 39600 (valid) 0x1a5-0x1a8.7 (4)
0x1a0|                           01                  |         .      |        dst: 1 (valid) 0x1a9-0x1a9.7 (1)
0x1a0|                              0c               |          .     |        idx: 12 (valid) 0x1aa-0x1aa.7 (1)
     |                                               |                |      [8]{}: local_time_type 0x1ab-0x1b0.7 (6)
0x1a0|                                 00 00 8c a0   |           .... |        utoff: 36000 (valid) 0x1ab-0x1ae.7 (4)
0x1a0|                                             00|               .|        dst: 0 (valid) 0x1af-0x1af.7 (1)
0x1b0|14                                             |.               |        idx: 20 (valid) 0x1b0-0x1b0.7 (1)
     |                                               |                |      [9]{}: local_time_type 0x1b1-0x1b6.7 (6)
0x1b0|   00 00 a8 c0                                 | ....           |        utoff: 43200 (valid) 0x1b1-0x1b4.7 (4)
0x1b0|               00                              |     .          |        dst: 0 (valid) 0x1b5-0x1b5.7 (1)
0x1b0|                  10                           |      .         |        idx: 16 (valid) 0x1b6-0x1b6.7 (1)
     |                                               |                |      [10]{}: local_time_type 0x1b7-0x1bc.7 (6)
0x1b0|                     00 00 a8 c0               |       ....     |        utoff: 43200 (valid) 0x1b7-0x1ba.7 (4)
0x1b0|                                 01            |           .    |        dst: 1 (valid) 0x1bb-0x1bb.7 (1)
0x1b0|                                    10         |            .   |        idx: 16 (valid) 0x1bc-0x1bc.7 (1)
     |                                               |                |      [11]{}: local_time_type 0x1bd-0x1c2.7 (6)
0x1b0|                                       00 00 8c|             ...|        utoff: 36000 (valid) 0x1bd-0x1c0.7 (4)
0x1c0|a0                                             |.               |
0x1c0|   00                                          | .              |        dst: 0 (valid) 0x1c1-0x1c1.7 (1)
0x1c0|      14                                       |  .             |        idx: 20 (valid) 0x1c2-0x1c2.7 (1)
     |                                               |                |    time_zone_designations[0:6]: 0x1c3-0x1da.7 (24)
0x1c0|         4c 4d 54 00                           |   LMT.         |      [0]: "LMT" time_zone_designation 0x1c3-0x1c6.7 (4)
0x1c0|                     2b 30 38 00               |       +08.     |      [1]: "+08" time_zone_designation 0x1c7-0x1ca.7 (4)
0x1c0|                                 2b 30 39 00   |           +09. |      [2]: "+09" time_zone_designation 0x1cb-0x1ce.7 (4)
0x1c0|                                             2b|               +|      [3]: "+11" time_zone_designation 0x1cf-0x1d2.7 (4)
0x1d0|31 31 00                                       |11.             |
0x1d0|         2b 31 32 00                           |   +12.         |      [4]: "+12" time_zone_designation 0x1d3-0x1d6.7 (4)
0x1d0|                     2b 31 30 00               |       +10.     |      [5]: "+10" time_zone_designation 0x1d7-0x1da.7 (4)
     |                                               |                |    leap_second_records[0:27]: 0x1db-0x2b2.7 (216)
     |                                               |                |      [0]{}: leap_second_record 0x1db-0x1e2.7 (8)
0x1d0|                                 04 b2 58 00   |           ..X. |        occur: "1972-07-01T00:00:00Z" (78796800) 0x1db-0x1de.7 (4)
0x1d0|                                             00|               .|        corr: 1 0x1df-0x1e2.7 (4)
0x1e0|00 00 01                                       |...             |
     |                                               |                |      [1]{}: leap_second_record 0x1e3-0x1ea.7 (8)
0x1e0|         05 a4 ec 01                           |   ....         |        occur: "1973-01-01T00:00:01Z" (94694401) 0x1e3-0x1e6.7 (4)
0x1e0|                     00 00 00 02               |       ....     |        corr: 2 0x1e7-0x1ea.7 (4)
     |                                               |                |      [2]{}: leap_second_record 0x1eb-0x1f2.7 (8)
0x1e0|                                 07 86 1f 82   |           .... |        occur: "1974-01-01T00:00:02Z" (126230402) 0x1eb-0x1ee.7 (4)
0x1e0|                                             00|               .|        corr: 3 0x1ef-0x1f2.7 (4)
0x1f0|00 00 03                                       |...             |
     |                                               |                |      [3]{}: leap_second_record 0x1f3-0x1fa.7 (8)
0x1f0|         09 67 53 03                           |   .gS.         |        occur: "1975-01-01T00:00:03Z" (157766403) 0x1f3-0x1f6.7 (4)
0x1f0|                     00 00 00 04               |       ....     |        corr: 4 0x1f7-0x1fa.7 (4)
     |                                               |                |      [4]{}: leap_second_record 0x1fb-0x202.7 (8)
0x1f0|                                 0b 48 86 84   |           .H.. |        occur: "1976-01-01T00:00:04Z" (189302404) 0x1fb-0x1fe.7 (4)
0x1f0|                                             00|               .|        corr: 5 0x1ff-0x202.7 (4)
0x200|00 00 05                                       |...             |
     |                                               |                |      [5]{}: leap_second_record 0x203-0x20a.7 (8)
0x200|         0d 2b 0b 85                           |   .+..         |        occur: "1977-01-01T00:00:05Z" (220924805) 0x203-0x206.7 (4)
0x200|                     00 00 00 06               |       ....     |        corr: 6 0x207-0x20a.7 (4)
     |                                               |                |      [6]{}: leap_second_record 0x20b-0x212.7 (8)
0x200|                                 0f 0c 3f 06   |           ..?. |        occur: "1978-01-01T00:00:06Z" (252460806) 0x20b-0x20e.7 (4)
0x200|                                             00|               .|        corr: 7 0x20f-0x212.7 (4)
0x210|00 00 07                                       |...             |
     |                                               |                |      [7]{}: leap_second_record 0x213-0x21a.7 (8)
0x210|         10 ed 72 87                           |   ..r.         |        occur: "1979-01-01T00:00:07Z" (283996807) 0x213-0x216.7 (4)
0x210|                     00 00 00 08               |       ....     |        corr: 8 0x217-0x21a.7 (4)
     |                                               |                |      [8]{}: leap_second_record 0x21b-0x222.7 (8)
0x210|                                 12 ce a6 08   |           .... |        occur: "1980-01-01T00:00:08Z" (315532808) 0x21b-0x21e.7 (4)
0x210|                                             00|               .|        corr: 9 0x21f-0x222.7 (4)
0x220|00 00 09                                       |...             |
     |                                               |                |      [9]{}: leap_second_record 0x223-0x22a.7 (8)
0x220|         15 9f ca 89                           |   ....         |        occur: "1981-07-01T00:00:09Z" (362793609) 0x223-0x226.7 (4)
0x220|                     00 00 00 0a               |       ....     |        corr: 10 0x227-0x22a.7 (4)
     |                                               |                |      [10]{}: leap_second_record 0x22b-0x232.7 (8)
0x220|                                 17 80 fe 0a   |           .... |        occur: "1982-07-01T00:00:10Z" (394329610) 0x22b-0x22e.7 (4)
0x220|                                             00|               .|        corr: 11 0x22f-0x232.7 (4)
0x230|00 00 0b                                       |...             |
     |                                               |                |      [11]{}: leap_second_record 0x233-0x23a.7 (8)
0x230|         19 62 31 8b                           |   .b1.         |        occur: "1983-07-01T00:00:11Z" (425865611) 0x233-0x236.7 (4)
0x230|                     00 00 00 0c               |       ....     |        corr: 12 0x237-0x23a.7 (4)
     |                                               |                |      [12]{}: leap_second_record 0x23b-0x242.7 (8)
0x230|                                 1d 25 ea 0c   |           .%.. |        occur: "1985-07-01T00:00:12Z" (489024012) 0x23b-0x23e.7 (4)
0x230|                                             00|               .|        corr: 13 0x23f-0x242.7 (4)
0x240|00 00 0d                                       |...             |
     |                                               |                |      [13]{}: leap_second_record 0x243-0x24a.7 (8)
0x240|         21 da e5 0d                           |   !...         |        occur: "1988-01-01T00:00:13Z" (567993613) 0x243-0x246.7 (4)
0x240|                     00 00 00 0e               |       ....     |        corr: 14 0x247-0x24a.7 (4)
     |                                               |                |      [14]{}: leap_second_record 0x24b-0x252.7 (8)
0x240|                                 25 9e 9d 8e   |           %... |        occur: "1990-01-01T00:00:14Z" (631152014) 0x24b-0x24e.7 (4)
0x240|                                             00|               .|        corr: 15 0x24f-0x252.7 (4)
0x250|00 00 0f                                       |...             |
     |                                               |                |      [15]{}: leap_second_record 0x253-0x25a.7 (8)
0x250|         27 7f d1 0f                           |   '...         |        occur: "1991-01-01T00:00:15Z" (662688015) 0x253-0x256.7 (4)
0x250|                     00 00 00 10               |       ....     |        corr: 16 0x257-0x25a.7 (4)
     |                                               |                |      [16]{}: leap_second_record 0x25b-0x262.7 (8)
0x250|                                 2a 50 f5 90   |           *P.. |        occur: "1992-07-01T00:00:16Z" (709948816) 0x25b-0x25e.7 (4)
0x250|                                             00|               .|        corr: 17 0x25f-0x262.7 (4)
0x260|00 00 11                                       |...             |
     |                                               |                |      [17]{}: leap_second_record 0x263-0x26a.7 (8)
0x260|         2c 32 29 11                           |   ,2).         |        occur: "1993-07-01T00:00:17Z" (741484817) 0x263-0x266.7 (4)
0x260|                     00 00 00 12               |       ....     |        corr: 18 0x267-0x26a.7 (4)
     |                                               |                |      [18]{}: leap_second_record 0x26b-0x272.7 (8)
0x260|                                 2e 13 5c 92   |           ..\. |        occur: "1994-07-01T00:00:18Z" (773020818) 0x26b-0x26e.7 (4)
0x260|                                             00|               .|        corr: 19 0x26f-0x272.7 (4)
0x270|00 00 13                                       |...             |
     |                                               |                |      [19]{}: leap_second_record 0x273-0x27a.7 (8)
0x270|         30 e7 24 13                           |   0.$.         |        occur: "1996-01-01T00:00:19Z" (820454419) 0x273-0x276.7 (4)
0x270|                     00 00 00 14               |       ....     |        corr: 20 0x277-0x27a.7 (4)
     |                                               |                |      [20]{}: leap_second_record 0x27b-0x282.7 (8)
0x270|                                 33 b8 48 94   |           3.H. |        occur: "1997-07-01T00:00:20Z" (867715220) 0x27b-0x27e.7 (4)
0x270|                                             00|               .|        corr: 21 0x27f-0x282.7 (4)
0x280|00 00 15                                       |...             |
     |                                               |                |      [21]{}: leap_second_record 0x283-0x28a.7 (8)
0x280|         36 8c 10 15                           |   6...         |        occur: "1999-01-01T00:00:21Z" (915148821) 0x283-0x286.7 (4)
0x280|                     00 00 00 16               |       ....     |        corr: 22 0x287-0x28a.7 (4)
     |                                               |                |      [22]{}: leap_second_record 0x28b-0x292.7 (8)
0x280|                                 43 b7 1b 96   |           C... |        occur: "2006-01-01T00:00:22Z" (1136073622) 0x28b-0x28e.7 (4)
0x280|                                             00|               .|        corr: 23 0x28f-0x292.7 (4)
0x290|00 00 17                                       |...             |
     |                                               |                |      [23]{}: leap_second_record 0x293-0x29a.7 (8)
0x290|         49 5c 07 97                           |   I\..         |        occur: "2009-01-01T00:00:23Z" (1230768023) 0x293-0x296.7 (4)
0x290|                     00 00 00 18               |       ....     |        corr: 24 0x297-0x29a.7 (4)
     |                                               |                |      [24]{}: leap_second_record 0x29b-0x2a2.7 (8)
0x290|                                 4f ef 93 18   |           O... |        occur: "2012-07-01T00:00:24Z" (1341100824) 0x29b-0x29e.7 (4)
0x290|                                             00|               .|        corr: 25 0x29f-0x2a2.7 (4)
0x2a0|00 00 19                                       |...             |
     |                                               |                |      [25]{}: leap_second_record 0x2a3-0x2aa.7 (8)
0x2a0|         55 93 2d 99                           |   U.-.         |        occur: "2015-07-01T00:00:25Z" (1435708825) 0x2a3-0x2a6.7 (4)
0x2a0|                     00 00 00 1a               |       ....     |        corr: 26 0x2a7-0x2aa.7 (4)
     |                                               |                |      [26]{}: leap_second_record 0x2ab-0x2b2.7 (8)
0x2a0|                                 58 68 46 9a   |           XhF. |        occur: "2017-01-01T00:00:26Z" (1483228826) 0x2ab-0x2ae.7 (4)
0x2a0|                                             00|               .|        corr: 27 0x2af-0x2b2.7 (4)
0x2b0|00 00 1b                                       |...             |
     |                                               |                |    standard_wall_indicators[0:12]: 0x2b3-0x2be.7 (12)
0x2b0|         00                                    |   .            |      [0]: 0 standard_wall_indicator (valid) 0x2b3-0x2b3.7 (1)
0x2b0|            00                                 |    .           |      [1]: 0 standard_wall_indicator (valid) 0x2b4-0x2b4.7 (1)
0x2b0|               00                              |     .          |      [2]: 0 standard_wall_indicator (valid) 0x2b5-0x2b5.7 (1)
0x2b0|                  00                           |      .         |      [3]: 0 standard_wall_indicator (valid) 0x2b6-0x2b6.7 (1)
0x2b0|                     00                        |       .        |      [4]: 0 standard_wall_indicator (valid) 0x2b7-0x2b7.7 (1)
0x2b0|                        01                     |        .       |      [5]: 1 standard_wall_indicator (valid) 0x2b8-0x2b8.7 (1)
0x2b0|                           01                  |         .      |      [6]: 1 standard_wall_indicator (valid) 0x2b9-0x2b9.7 (1)
0x2b0|                              01               |          .     |      [7]: 1 standard_wall_indicator (valid) 0x2ba-0x2ba.7 (1)
0x2b0|                                 01            |           .    |      [8]: 1 standard_wall_indicator (valid) 0x2bb-0x2bb.7 (1)
0x2b0|                                    01         |            .   |      [9]: 1 standard_wall_indicator (valid) 0x2bc-0x2bc.7 (1)
0x2b0|                                       01      |             .  |      [10]: 1 standard_wall_indicator (valid) 0x2bd-0x2bd.7 (1)
0x2b0|                                          01   |              . |      [11]: 1 standard_wall_indicator (valid) 0x2be-0x2be.7 (1)
     |                                               |                |    ut_local_indicators[0:0]: 0x2bf-NA (0)
     |                                               |                |  v2plusheader{}: 0x2bf-0x2ea.7 (44)
0x2b0|                                             54|               T|    magic: 0x545a6966 (valid) 0x2bf-0x2c2.7 (4)
0x2c0|5a 69 66                                       |Zif             |
0x2c0|         32                                    |   2            |    ver: "2" (0x32) (valid) 0x2c3-0x2c3.7 (1)
0x2c0|            00 00 00 00 00 00 00 00 00 00 00 00|    ............|    reserved: raw bits 0x2c4-0x2d2.7 (15)
0x2d0|00 00 00                                       |...             |
0x2d0|         00 00 00 00                           |   ....         |    isutcnt: 0 0x2d3-0x2d6.7 (4)
0x2d0|                     00 00 00 0c               |       ....     |    isstdcnt: 12 0x2d7-0x2da.7 (4)
0x2d0|                                 00 00 00 1b   |           .... |    leapcnt: 27 0x2db-0x2de.7 (4)
0x2d0|                                             00|               .|    timecnt: 67 0x2df-0x2e2.7 (4)
0x2e0|00 00 43                                       |..C             |
0x2e0|         00 00 00 0c                           |   ....         |    typecnt: 12 0x2e3-0x2e6.7 (4)
0x2e0|                     00 00 00 18               |       ....     |    charcnt: 24 0x2e7-0x2ea.7 (4)
     |                                               |                |  v2plusdatablock{}: 0x2eb-0x6f5.7 (1035)
     |                                               |                |    transition_times[0:67]: 0x2eb-0x502.7 (536)
0x2e0|                                 ff ff ff ff a1|           .....|      [0]: "1919-12-14T14:27:06Z" (-1579426374) transition_time 0x2eb-0x2f2.7 (8)
0x2f0|db dd ba                                       |...             |
0x2f0|         ff ff ff ff b5 a3 c5 00               |   ........     |      [1]: "1930-06-20T16:00:00Z" (-1247558400) transition_time 0x2f3-0x2fa.7 (8)
0x2f0|                                 00 00 00 00 15|           .....|      [2]: "1981-03-31T15:00:09Z" (354898809) transition_time 0x2fb-0x302.7 (8)
0x300|27 53 79                                       |'Sy             |
0x300|         00 00 00 00 16 18 6b ca               |   ......k.     |      [3]: "1981-09-30T12:00:10Z" (370699210) transition_time 0x303-0x30a.7 (8)
0x300|                                 00 00 00 00 17|           .....|      [4]: "1982-03-31T13:00:10Z" (386427610) transition_time 0x30b-0x312.7 (8)
0x310|08 6a da                                       |.j.             |
0x310|         00 00 00 00 17 f9 9f 4b               |   .......K     |      [5]: "1982-09-30T12:00:11Z" (402235211) transition_time 0x313-0x31a.7 (8)
0x310|                                 00 00 00 00 18|           .....|      [6]: "1983-03-31T13:00:11Z" (417963611) transition_time 0x31b-0x322.7 (8)
0x320|e9 9e 5b                                       |..[             |
0x320|         00 00 00 00 19 da d2 cc               |   ........     |      [7]: "1983-09-30T12:00:12Z" (433771212) transition_time 0x323-0x32a.7 (8)
0x320|                                 00 00 00 00 1a|           .....|      [8]: "1984-03-31T13:00:12Z" (449586012) transition_time 0x32b-0x332.7 (8)
0x330|cc 23 5c                                       |.#\             |
0x330|         00 00 00 00 1b bc 30 7c               |   ......0|     |      [9]: "1984-09-29T15:00:12Z" (465318012) transition_time 0x333-0x33a.7 (8)
0x330|                                 00 00 00 00 1c|           .....|      [10]: "1985-03-30T15:00:12Z" (481042812) transition_time 0x33b-0x342.7 (8)
0x340|ac 21 7c                                       |.!|             |
0x340|         00 00 00 00 1d 9c 12 7d               |   .......}     |      [11]: "1985-09-28T15:00:13Z" (496767613) transition_time 0x343-0x34a.7 (8)
0x340|                                 00 00 00 00 1e|           .....|      [12]: "1986-03-29T15:00:13Z" (512492413) transition_time 0x34b-0x352.7 (8)
0x350|8c 03 7d                                       |..}             |
0x350|         00 00 00 00 1f 7b f4 7d               |   .....{.}     |      [13]: "1986-09-27T15:00:13Z" (528217213) transition_time 0x353-0x35a.7 (8)
0x350|                                 00 00 00 00 20|           .... |      [14]: "1987-03-28T15:00:13Z" (543942013) transition_time 0x35b-0x362.7 (8)
0x360|6b e5 7d                                       |k.}             |
0x360|         00 00 00 00 21 5b d6 7d               |   ....![.}     |      [15]: "1987-09-26T15:00:13Z" (559666813) transition_time 0x363-0x36a.7 (8)
0x360|                                 00 00 00 00 22|           ...."|      [16]: "1988-03-26T15:00:14Z" (575391614) transition_time 0x36b-0x372.7 (8)
0x370|4b c7 7e                                       |K.~             |
0x370|         00 00 00 00 23 3b b8 7e               |   ....#;.~     |      [17]: "1988-09-24T15:00:14Z" (591116414) transition_time 0x373-0x37a.7 (8)
0x370|                                 00 00 00 00 24|           ....$|      [18]: "1989-03-25T15:00:14Z" (606841214) transition_time 0x37b-0x382.7 (8)
0x380|2b a9 7e                                       |+.~             |
0x380|         00 00 00 00 25 1b 9a 7e               |   ....%..~     |      [19]: "1989-09-23T15:00:14Z" (622566014) transition_time 0x383-0x38a.7 (8)
0x380|                                 00 00 00 00 26|           ....&|      [20]: "1990-03-24T15:00:15Z" (638290815) transition_time 0x38b-0x392.7 (8)
0x390|0b 8b 7f                                       |...             |
0x390|         00 00 00 00 27 04 b6 ff               |   ....'...     |      [21]: "1990-09-29T15:00:15Z" (654620415) transition_time 0x393-0x39a.7 (8)
0x390|                                 00 00 00 00 27|           ....'|      [22]: "1991-03-30T15:00:16Z" (670345216) transition_time 0x39b-0x3a2.7 (8)
0x3a0|f4 a8 00                                       |...             |
0x3a0|         00 00 00 00 28 e4 a7 10               |   ....(...     |      [23]: "1991-09-28T16:00:16Z" (686073616) transition_time 0x3a3-0x3aa.7 (8)
0x3a0|                                 00 00 00 00 29|           ....)|      [24]: "1992-01-18T16:00:16Z" (695750416) transition_time 0x3ab-0x3b2.7 (8)
0x3b0|78 4f 10                                       |xO.             |
0x3b0|         00 00 00 00 29 d4 8a 00               |   ....)...     |      [25]: "1992-03-28T15:00:16Z" (701794816) transition_time 0x3b3-0x3ba.7 (8)
0x3b0|                                 00 00 00 00 2a|           ....*|      [26]: "1992-09-26T15:00:17Z" (717519617) transition_time 0x3bb-0x3c2.7 (8)
0x3c0|c4 7b 01                                       |.{.             |
0x3c0|         00 00 00 00 2b b4 6c 01               |   ....+.l.     |      [27]: "1993-03-27T15:00:17Z" (733244417) transition_time 0x3c3-0x3ca.7 (8)
0x3c0|                                 00 00 00 00 2c|           ....,|      [28]: "1993-09-25T15:00:18Z" (748969218) transition_time 0x3cb-0x3d2.7 (8)
0x3d0|a4 5d 02                                       |.].             |
0x3d0|         00 00 00 00 2d 94 4e 02               |   ....-.N.     |      [29]: "1994-03-26T15:00:18Z" (764694018) transition_time 0x3d3-0x3da.7 (8)
0x3d0|                                 00 00 00 00 2e|           .....|      [30]: "1994-09-24T15:00:19Z" (780418819) transition_time 0x3db-0x3e2.7 (8)
0x3e0|84 3f 03                                       |.?.             |
0x3e0|         00 00 00 00 2f 74 30 03               |   ..../t0.     |      [31]: "1995-03-25T15:00:19Z" (796143619) transition_time 0x3e3-0x3ea.7 (8)
0x3e0|                                 00 00 00 00 30|           ....0|      [32]: "1995-09-23T15:00:19Z" (811868419) transition_time 0x3eb-0x3f2.7 (8)
0x3f0|64 21 03                                       |d!.             |
0x3f0|         00 00 00 00 31 5d 4c 84               |   ....1]L.     |      [33]: "1996-03-30T15:00:20Z" (828198020) transition_time 0x3f3-0x3fa.7 (8)
0x3f0|                                 00 00 00 00 32|           ....2|      [34]: "1996-10-26T15:00:20Z" (846342020) transition_time 0x3fb-0x402.7 (8)
0x400|72 27 84                                       |r'.             |
0x400|         00 00 00 00 33 3d 2e 84               |   ....3=..     |      [35]: "1997-03-29T15:00:20Z" (859647620) transition_time 0x403-0x40a.7 (8)
0x400|                                 00 00 00 00 34|           ....4|      [36]: "1997-10-25T15:00:21Z" (877791621) transition_time 0x40b-0x412.7 (8)
0x410|52 09 85                                       |R..             |
0x410|         00 00 00 00 35 1d 10 85               |   ....5...     |      [37]: "1998-03-28T15:00:21Z" (891097221) transition_time 0x413-0x41a.7 (8)
0x410|                                 00 00 00 00 36|           ....6|      [38]: "1998-10-24T15:00:21Z" (909241221) transition_time 0x41b-0x422.7 (8)
0x420|31 eb 85                                       |1..             |
0x420|         00 00 00 00 36 fc f2 86               |   ....6...     |      [39]: "1999-03-27T15:00:22Z" (922546822) transition_time 0x423-0x42a.7 (8)
0x420|                                 00 00 00 00 38|           ....8|      [40]: "1999-10-30T15:00:22Z" (941295622) transition_time 0x42b-0x432.7 (8)
0x430|1b 08 06                                       |...             |
0x430|         00 00 00 00 38 dc d4 86               |   ....8...     |      [41]: "2000-03-25T15:00:22Z" (953996422) transition_time 0x433-0x43a.7 (8)
0x430|                                 00 00 00 00 39|           ....9|      [42]: "2000-10-28T15:00:22Z" (972745222) transition_time 0x43b-0x442.7 (8)
0x440|fa ea 06                                       |...             |
0x440|         00 00 00 00 3a bc b6 86               |   ....:...     |      [43]: "2001-03-24T15:00:22Z" (985446022) transition_time 0x443-0x44a.7 (8)
0x440|                                 00 00 00 00 3b|           ....;|      [44]: "2001-10-27T15:00:22Z" (1004194822) transition_time 0x44b-0x452.7 (8)
0x450|da cc 06                                       |...             |
0x450|         00 00 00 00 3c a5 d3 06               |   ....<...     |      [45]: "2002-03-30T15:00:22Z" (1017500422) transition_time 0x453-0x45a.7 (8)
0x450|                                 00 00 00 00 3d|           ....=|      [46]: "2002-10-26T15:00:22Z" (1035644422) transition_time 0x45b-0x462.7 (8)
0x460|ba ae 06                                       |...             |
0x460|         00 00 00 00 3e 85 b5 06               |   ....>...     |      [47]: "2003-03-29T15:00:22Z" (1048950022) transition_time 0x463-0x46a.7 (8)
0x460|                                 00 00 00 00 3f|           ....?|      [48]: "2003-10-25T15:00:22Z" (1067094022) transition_time 0x46b-0x472.7 (8)
0x470|9a 90 06                                       |...             |
0x470|         00 00 00 00 40 65 97 06               |   ....@e..     |      [49]: "2004-03-27T15:00:22Z" (1080399622) transition_time 0x473-0x47a.7 (8)
0x470|                                 00 00 00 00 41|           ....A|      [50]: "2004-10-30T15:00:22Z" (1099148422) transition_time 0x47b-0x482.7 (8)
0x480|83 ac 86                                       |...             |
0x480|         00 00 00 00 42 45 79 06               |   ....BEy.     |      [51]: "2005-03-26T15:00:22Z" (1111849222) transition_time 0x483-0x48a.7 (8)
0x480|                                 00 00 00 00 43|           ....C|      [52]: "2005-10-29T15:00:22Z" (1130598022) transition_time 0x48b-0x492.7 (8)
0x490|63 8e 86                                       |c..             |
0x490|         00 00 00 00 44 25 5b 07               |   ....D%[.     |      [53]: "2006-03-25T15:00:23Z" (1143298823) transition_time 0x493-0x49a.7 (8)
0x490|                                 00 00 00 00 45|           ....E|      [54]: "2006-10-28T15:00:23Z" (1162047623) transition_time 0x49b-0x4a2.7 (8)
0x4a0|43 70 87                                       |Cp.             |
0x4a0|         00 00 00 00 46 05 3d 07               |   ....F.=.     |      [55]: "2007-03-24T15:00:23Z" (1174748423) transition_time 0x4a3-0x4aa.7 (8)
0x4a0|                                 00 00 00 00 47|           ....G|      [56]: "2007-10-27T15:00:23Z" (1193497223) transition_time 0x4ab-0x4b2.7 (8)
0x4b0|23 52 87                                       |#R.             |
0x4b0|         00 00 00 00 47 ee 59 87               |   ....G.Y.     |      [57]: "2008-03-29T15:00:23Z" (1206802823) transition_time 0x4b3-0x4ba.7 (8)
0x4b0|                                 00 00 00 00 49|           ....I|      [58]: "2008-10-25T15:00:23Z" (1224946823) transition_time 0x4bb-0x4c2.7 (8)
0x4c0|03 34 87                                       |.4.             |
0x4c0|         00 00 00 00 49 ce 3b 88               |   ....I.;.     |      [59]: "2009-03-28T15:00:24Z" (1238252424) transition_time 0x4c3-0x4ca.7 (8)
0x4c0|                                 00 00 00 00 4a|           ....J|      [60]: "2009-10-24T15:00:24Z" (1256396424) transition_time 0x4cb-0x4d2.7 (8)
0x4d0|e3 16 88                                       |...             |
0x4d0|         00 00 00 00 4b ae 1d 88               |   ....K...     |      [61]: "2010-03-27T15:00:24Z" (1269702024) transition_time 0x4d3-0x4da.7 (8)
0x4d0|                                 00 00 00 00 4c|           ....L|      [62]: "2010-10-30T15:00:24Z" (1288450824) transition_time 0x4db-0x4e2.7 (8)
0x4e0|cc 33 08                                       |.3.             |
0x4e0|         00 00 00 00 4d 8d ff 88               |   ....M...     |      [63]: "2011-03-26T15:00:24Z" (1301151624) transition_time 0x4e3-0x4ea.7 (8)
0x4e0|                                 00 00 00 00 4e|           ....N|      [64]: "2011-09-12T12:00:24Z" (1315828824) transition_time 0x4eb-0x4f2.7 (8)
0x4f0|6d f4 58                                       |m.X             |
0x4f0|         00 00 00 00 54 4b bb 09               |   ....TK..     |      [65]: "2014-10-25T15:00:25Z" (1414249225) transition_time 0x4f3-0x4fa.7 (8)
0x4f0|                                 00 00 00 00 64|           ....d|      [66]: "2023-06-28T00:00:27Z" (1687910427) transition_time 0x4fb-0x502.7 (8)
0x500|9b 78 1b                                       |.x.             |
     |                                               |                |    transition_types[0:67]: 0x503-0x545.7 (67)
0x500|         01                                    |   .            |      [0]: 1 transition_type 0x503-0x503.7 (1)
0x500|            02                                 |    .           |      [1]: 2 transition_type 0x504-0x504.7 (1)
0x500|               04                              |     .          |      [2]: 4 transition_type 0x505-0x505.7 (1)
0x500|                  03                           |      .         |      [3]: 3 transition_type 0x506-0x506.7 (1)
0x500|                     04                        |       .        |      [4]: 4 transition_type 0x507-0x507.7 (1)
0x500|                        03                     |        .       |      [5]: 3 transition_type 0x508-0x508.7 (1)
0x500|                           04                  |         .      |      [6]: 4 transition_type 0x509-0x509.7 (1)
0x500|                              03               |          .     |      [7]: 3 transition_type 0x50a-0x50a.7 (1)
0x500|                                 04            |           .    |      [8]: 4 transition_type 0x50b-0x50b.7 (1)
0x500|                                    05         |            .   |      [9]: 5 transition_type 0x50c-0x50c.7 (1)
0x500|                                       06      |             .  |      [10]: 6 transition_type 0x50d-0x50d.7 (1)
0x500|                                          05   |              . |      [11]: 5 transition_type 0x50e-0x50e.7 (1)
0x500|                                             06|               .|      [12]: 6 transition_type 0x50f-0x50f.7 (1)
0x510|05                                             |.               |      [13]: 5 transition_type 0x510-0x510.7 (1)
0x510|   06                                          | .              |      [14]: 6 transition_type 0x511-0x511.7 (1)
0x510|      05                                       |  .             |      [15]: 5 transition_type 0x512-0x512.7 (1)
0x510|         06                                    |   .            |      [16]: 6 transition_type 0x513-0x513.7 (1)
0x510|            05                                 |    .           |      [17]: 5 transition_type 0x514-0x514.7 (1)
0x510|               06                              |     .          |      [18]: 6 transition_type 0x515-0x515.7 (1)
0x510|                  05                           |      .         |      [19]: 5 transition_type 0x516-0x516.7 (1)
0x510|                     06                        |       .        |      [20]: 6 transition_type 0x517-0x517.7 (1)
0x510|                        05                     |        .       |      [21]: 5 transition_type 0x518-0x518.7 (1)
0x510|                           07                  |         .      |      [22]: 7 transition_type 0x519-0x519.7 (1)
0x510|                              08               |          .     |      [23]: 8 transition_type 0x51a-0x51a.7 (1)
0x510|                                 05            |           .    |      [24]: 5 transition_type 0x51b-0x51b.7 (1)
0x510|                                    06         |            .   |      [25]: 6 transition_type 0x51c-0x51c.7 (1)
0x510|                                       05      |             .  |      [26]: 5 transition_type 0x51d-0x51d.7 (1)
0x510|                                          06   |              . |      [27]: 6 transition_type 0x51e-0x51e.7 (1)
0x510|                                             05|               .|      [28]: 5 transition_type 0x51f-0x51f.7 (1)
0x520|06                                             |.               |      [29]: 6 transition_type 0x520-0x520.7 (1)
0x520|   05                                          | .              |      [30]: 5 transition_type 0x521-0x521.7 (1)
0x520|      06                                       |  .             |      [31]: 6 transition_type 0x522-0x522.7 (1)
0x520|         05                                    |   .            |      [32]: 5 transition_type 0x523-0x523.7 (1)
0x520|            06                                 |    .           |      [33]: 6 transition_type 0x524-0x524.7 (1)
0x520|               05                              |     .          |      [34]: 5 transition_type 0x525-0x525.7 (1)
0x520|                  06                           |      .         |      [35]: 6 transition_type 0x526-0x526.7 (1)
0x520|                     05                        |       .        |      [36]: 5 transition_type 0x527-0x527.7 (1)
0x520|                        06                     |        .       |      [37]: 6 transition_type 0x528-0x528.7 (1)
0x520|                           05                  |         .      |      [38]: 5 transition_type 0x529-0x529.7 (1)
0x520|                              06               |          .     |      [39]: 6 transition_type 0x52a-0x52a.7 (1)
0x520|                                 05            |           .    |      [40]: 5 transition_type 0x52b-0x52b.7 (1)
0x520|                                    06         |            .   |      [41]: 6 transition_type 0x52c-0x52c.7 (1)
0x520|                                       05      |             .  |      [42]: 5 transition_type 0x52d-0x52d.7 (1)
0x520|                                          06   |              . |      [43]: 6 transition_type 0x52e-0x52e.7 (1)
0x520|                                             05|               .|      [44]: 5 transition_type 0x52f-0x52f.7 (1)
0x530|06                                             |.               |      [45]: 6 transition_type 0x530-0x530.7 (1)
0x530|   05                                          | .              |      [46]: 5 transition_type 0x531-0x531.7 (1)
0x530|      06                                       |  .             |      [47]: 6 transition_type 0x532-0x532.7 (1)
0x530|         05                                    |   .            |      [48]: 5 transition_type 0x533-0x533.7 (1)
0x530|            06                                 |    .           |      [49]: 6 transition_type 0x534-0x534.7 (1)
0x530|               05                              |     .          |      [50]: 5 transition_type 0x535-0x535.7 (1)
0x530|                  06                           |      .         |      [51]: 6 transition_type 0x536-0x536.7 (1)
0x530|                     05                        |       .        |      [52]: 5 transition_type 0x537-0x537.7 (1)
0x530|                        06                     |        .       |      [53]: 6 transition_type 0x538-0x538.7 (1)
0x530|                           05                  |         .      |      [54]: 5 transition_type 0x539-0x539.7 (1)
0x530|                              06               |          .     |      [55]: 6 transition_type 0x53a-0x53a.7 (1)
0x530|                                 05            |           .    |      [56]: 5 transition_type 0x53b-0x53b.7 (1)
0x530|                                    06         |            .   |      [57]: 6 transition_type 0x53c-0x53c.7 (1)
0x530|                                       05      |             .  |      [58]: 5 transition_type 0x53d-0x53d.7 (1)
0x530|                                          06   |              . |      [59]: 6 transition_type 0x53e-0x53e.7 (1)
0x530|                                             05|               .|      [60]: 5 transition_type 0x53f-0x53f.7 (1)
0x540|06                                             |.               |      [61]: 6 transition_type 0x540-0x540.7 (1)
0x540|   05                                          | .              |      [62]: 5 transition_type 0x541-0x541.7 (1)
0x540|      09                                       |  .             |      [63]: 9 transition_type 0x542-0x542.7 (1)
0x540|         05                                    |   .            |      [64]: 5 transition_type 0x543-0x543.7 (1)
0x540|            08                                 |    .           |      [65]: 8 transition_type 0x544-0x544.7 (1)
0x540|               08                              |     .          |      [66]: 8 transition_type 0x545-0x545.7 (1)
     |                                               |                |    local_time_type_records[0:12]: 0x546-0x58d.7 (72)
     |                                               |                |      [0]{}: local_time_type 0x546-0x54b.7 (6)
0x540|                  00 00 86 46                  |      ...F      |        utoff: 34374 (valid) 0x546-0x549.7 (4)
0x540|                              00               |          .     |        dst: 0 (valid) 0x54a-0x54a.7 (1)
0x540|                                 00            |           .    |        idx: 0 (valid) 0x54b-0x54b.7 (1)
     |                                               |                |      [1]{}: local_time_type 0x54c-0x551.7 (6)
0x540|                                    00 00 70 80|            ..p.|        utoff: 28800 (valid) 0x54c-0x54f.7 (4)
0x550|00                                             |.               |        dst: 0 (valid) 0x550-0x550.7 (1)
0x550|   04                                          | .              |        idx: 4 (valid) 0x551-0x551.7 (1)
     |                                               |                |      [2]{}: local_time_type 0x552-0x557.7 (6)
0x550|      00 00 7e 90                              |  ..~.          |        utoff: 32400 (valid) 0x552-0x555.7 (4)
0x550|                  00                           |      .         |        dst: 0 (valid) 0x556-0x556.7 (1)
0x550|                     08                        |       .        |        idx: 8 (valid) 0x557-0x557.7 (1)
     |                                               |                |      [3]{}: local_time_type 0x558-0x55d.7 (6)
0x550|                        00 00 9a b0            |        ....    |        utoff: 39600 (valid) 0x558-0x55b.7 (4)
0x550|                                    00         |            .   |        dst: 0 (valid) 0x55c-0x55c.7 (1)
0x550|                                       0c      |             .  |        idx: 12 (valid) 0x55d-0x55d.7 (1)
     |                                               |                |      [4]{}: local_time_type 0x55e-0x563.7 (6)
0x550|                                          00 00|              ..|        utoff: 43200 (valid) 0x55e-0x561.7 (4)
0x560|a8 c0                                          |..              |
0x560|      01                                       |  .             |        dst: 1 (valid) 0x562-0x562.7 (1)
0x560|         10                                    |   .            |        idx: 16 (valid) 0x563-0x563.7 (1)
     |                                               |                |      [5]{}: local_time_type 0x564-0x569.7 (6)
0x560|            00 00 9a b0                        |    ....        |        utoff: 39600 (valid) 0x564-0x567.7 (4)
0x560|                        00                     |        .       |        dst: 0 (valid) 0x568-0x568.7 (1)
0x560|                           0c                  |         .      |        idx: 12 (valid) 0x569-0x569.7 (1)
     |                                               |                |      [6]{}: local_time_type 0x56a-0x56f.7 (6)
0x560|                              00 00 a8 c0      |          ....  |        utoff: 43200 (valid) 0x56a-0x56d.7 (4)
0x560|                                          01   |              . |        dst: 1 (valid) 0x56e-0x56e.7 (1)
0x560|                                             10|               .|        idx: 16 (valid) 0x56f-0x56f.7 (1)
     |                                               |                |      [7]{}: local_time_type 0x570-0x575.7 (6)
0x570|00 00 9a b0                                    |....            |        utoff: 39600 (valid) 0x570-0x573.7 (4)
0x570|            01                                 |    .           |        dst: 1 (valid) 0x574-0x574.7 (1)
0x570|               0c                              |     .          |        idx: 12 (valid) 0x575-0x575.7 (1)
     |                                               |                |      [8]{}: local_time_type 0x576-0x57b.7 (6)
0x570|                  00 00 8c a0                  |      ....      |        utoff: 36000 (valid) 0x576-0x579.7 (4)
0x570|                              00               |          .     |        dst: 0 (valid) 0x57a-0x57a.7 (1)
0x570|                                 14            |           .    |        idx: 20 (valid) 0x57b-0x57b.7 (1)
     |                                               |                |      [9]{}: local_time_type 0x57c-0x581.7 (6)
0x570|                                    00 00 a8 c0|            ....|        utoff: 43200 (valid) 0x57c-0x57f.7 (4)
0x580|00                                             |.               |        dst: 0 (valid) 0x580-0x580.7 (1)
0x580|   10                                          | .              |        idx: 16 (valid) 0x581-0x581.7 (1)
     |                                               |                |      [10]{}: local_time_type 0x582-0x587.7 (6)
0x580|      00 00 a8 c0                              |  ....          |        utoff: 43200 (valid) 0x582-0x585.7 (4)
0x580|                  01                           |      .         |        dst: 1 (valid) 0x586-0x586.7 (1)
0x580|                     10                        |       .        |        idx: 16 (valid) 0x587-0x587.7 (1)
     |                                               |                |      [11]{}: local_time_type 0x588-0x58d.7 (6)
0x580|                        00 00 8c a0            |        ....    |        utoff: 36000 (valid) 0x588-0x58b.7 (4)
0x580|                                    00         |            .   |        dst: 0 (valid) 0x58c-0x58c.7 (1)
0x580|                                       14      |             .  |        idx: 20 (valid) 0x58d-0x58d.7 (1)
     |                                               |                |    time_zone_designations[0:6]: 0x58e-0x5a5.7 (24)
0x580|                                          4c 4d|              LM|      [0]: "LMT" time_zone_designation 0x58e-0x591.7 (4)
0x590|54 00                                          |T.              |
0x590|      2b 30 38 00                              |  +08.          |      [1]: "+08" time_zone_designation 0x592-0x595.7 (4)
0x590|                  2b 30 39 00                  |      +09.      |      [2]: "+09" time_zone_designation 0x596-0x599.7 (4)
0x590|                              2b 31 31 00      |          +11.  |      [3]: "+11" time_zone_designation 0x59a-0x59d.7 (4)
0x590|                                          2b 31|              +1|      [4]: "+12" time_zone_designation 0x59e-0x5a1.7 (4)
0x5a0|32 00                                          |2.              |
0x5a0|      2b 31 30 00                              |  +10.          |      [5]: "+10" time_zone_designation 0x5a2-0x5a5.7 (4)
     |                                               |                |    leap_second_records[0:27]: 0x5a6-0x6e9.7 (324)
     |                                               |                |      [0]{}: leap_second_record 0x5a6-0x5b1.7 (12)
0x5a0|                  00 00 00 00 04 b2 58 00      |      ......X.  |        occur: "1972-07-01T00:00:00Z" (78796800) 0x5a6-0x5ad.7 (8)
0x5a0|                                          00 00|              ..|        corr: 1 0x5ae-0x5b1.7 (4)
0x5b0|00 01                                          |..              |
     |                                               |                |      [1]{}: leap_second_record 0x5b2-0x5bd.7 (12)
0x5b0|      00 00 00 00 05 a4 ec 01                  |  ........      |        occur: "1973-01-01T00:00:01Z" (94694401) 0x5b2-0x5b9.7 (8)
0x5b0|                              00 00 00 02      |          ....  |        corr: 2 0x5ba-0x5bd.7 (4)
     |                                               |                |      [2]{}: leap_second_record 0x5be-0x5c9.7 (12)
0x5b0|                                          00 00|              ..|        occur: "1974-01-01T00:00:02Z" (126230402) 0x5be-0x5c5.7 (8)
0x5c0|00 00 07 86 1f 82                              |......          |
0x5c0|                  00 00 00 03                  |      ....      |        corr: 3 0x5c6-0x5c9.7 (4)
     |                                               |                |      [3]{}: leap_second_record 0x5ca-0x5d5.7 (12)
0x5c0|                              00 00 00 00 09 67|          .....g|        occur: "1975-01-01T00:00:03Z" (157766403) 0x5ca-0x5d1.7 (8)
0x5d0|53 03                                          |S.              |
0x5d0|      00 00 00 04                              |  ....          |        corr: 4 0x5d2-0x5d5.7 (4)
     |                                               |                |      [4]{}: leap_second_record 0x5d6-0x5e1.7 (12)
0x5d0|                  00 00 00 00 0b 48 86 84      |      .....H..  |        occur: "1976-01-01T00:00:04Z" (189302404) 0x5d6-0x5dd.7 (8)
0x5d0|                                          00 00|              ..|        corr: 5 0x5de-0x5e1.7 (4)
0x5e0|00 05                                          |..              |
     |                                               |                |      [5]{}: leap_second_record 0x5e2-0x5ed.7 (12)
0x5e0|      00 00 00 00 0d 2b 0b 85                  |  .....+..      |        occur: "1977-01-01T00:00:05Z" (220924805) 0x5e2-0x5e9.7 (8)
0x5e0|                              00 00 00 06      |          ....  |        corr: 6 0x5ea-0x5ed.7 (4)
     |                                               |                |      [6]{}: leap_second_record 0x5ee-0x5f9.7 (12)
0x5e0|                                          00 00|              ..|        occur: "1978-01-01T00:00:06Z" (252460806) 0x5ee-0x5f5.7 (8)
0x5f0|00 00 0f 0c 3f 06                              |....?.          |
0x5f0|                  00 00 00 07                  |      ....      |        corr: 7 0x5f6-0x5f9.7 (4)
     |                                               |                |      [7]{}: leap_second_record 0x5fa-0x605.7 (12)
0x5f0|                              00 00 00 00 10 ed|          ......|        occur: "1979-01-01T00:00:07Z" (283996807) 0x5fa-0x601.7 (8)
0x600|72 87                                          |r.              |
0x600|      00 00 00 08                              |  ....          |        corr: 8 0x602-0x605.7 (4)
     |                                               |                |      [8]{}: leap_second_record 0x606-0x611.7 (12)
0x600|                  00 00 00 00 12 ce a6 08      |      ........  |        occur: "1980-01-01T00:00:08Z" (315532808) 0x606-0x60d.7 (8)
0x600|                                          00 00|              ..|        corr: 9 0x60e-0x611.7 (4)
0x610|00 09                                          |..              |
     |                                               |                |      [9]{}: leap_second_record 0x612-0x61d.7 (12)
0x610|      00 00 00 00 15 9f ca 89                  |  ........      |        occur: "1981-07-01T00:00:09Z" (362793609) 0x612-0x619.7 (8)
0x610|                              00 00 00 0a      |          ....  |        corr: 10 0x61a-0x61d.7 (4)
     |                                               |                |      [10]{}: leap_second_record 0x61e-0x629.7 (12)
0x610|                                          00 00|              ..|        occur: "1982-07-01T00:00:10Z" (394329610) 0x61e-0x625.7 (8)
0x620|00 00 17 80 fe 0a                              |......          |
0x620|                  00 00 00 0b                  |      ....      |        corr: 11 0x626-0x629.7 (4)
     |                                               |                |      [11]{}: leap_second_record 0x62a-0x635.7 (12)
0x620|                              00 00 00 00 19 62|          .....b|        occur: "1983-07-01T00:00:11Z" (425865611) 0x62a-0x631.7 (8)
0x630|31 8b                                          |1.              |
0x630|      00 00 00 0c                              |  ....          |        corr: 12 0x632-0x635.7 (4)
     |                                               |                |      [12]{}: leap_second_record 0x636-0x641.7 (12)
0x630|                  00 00 00 00 1d 25 ea 0c      |      .....%..  |        occur: "1985-07-01T00:00:12Z" (489024012) 0x636-0x63d.7 (8)
0x630|                                          00 00|              ..|        corr: 13 0x63e-0x641.7 (4)
0x640|00 0d                                          |..              |
     |                                               |                |      [13]{}: leap_second_record 0x642-0x64d.7 (12)
0x640|      00 00 00 00 21 da e5 0d                  |  ....!...      |        occur: "1988-01-01T00:00:13Z" (567993613) 0x642-0x649.7 (8)
0x640|                              00 00 00 0e      |          ....  |        corr: 14 0x64a-0x64d.7 (4)
     |                                               |                |      [14]{}: leap_second_record 0x64e-0x659.7 (12)
0x640|                                          00 00|              ..|        occur: "1990-01-01T00:00:14Z" (631152014) 0x64e-0x655.7 (8)
0x650|00 00 25 9e 9d 8e                              |..%...          |
0x650|                  00 00 00 0f                  |      ....      |        corr: 15 0x656-0x659.7 (4)
     |                                               |                |      [15]{}: leap_second_record 0x65a-0x665.7 (12)
0x650|                              00 00 00 00 27 7f|          ....'.|        occur: "1991-01-01T00:00:15Z" (662688015) 0x65a-0x661.7 (8)
0x660|d1 0f                                          |..              |
0x660|      00 00 00 10                              |  ....          |        corr: 16 0x662-0x665.7 (4)
     |                                               |                |      [16]{}: leap_second_record 0x666-0x671.7 (12)
0x660|                  00 00 00 00 2a 50 f5 90      |      ....*P..  |        occur: "1992-07-01T00:00:16Z" (709948816) 0x666-0x66d.7 (8)
0x660|                                          00 00|              ..|        corr: 17 0x66e-0x671.7 (4)
0x670|00 11                                          |..              |
     |                                               |                |      [17]{}: leap_second_record 0x672-0x67d.7 (12)
0x670|      00 00 00 00 2c 32 29 11                  |  ....,2).      |        occur: "1993-07-01T00:00:17Z" (741484817) 0x672-0x679.7 (8)
0x670|                              00 00 00 12      |          ....  |        corr: 18 0x67a-0x67d.7 (4)
     |                                               |                |      [18]{}: leap_second_record 0x67e-0x689.7 (12)
0x670|                                          00 00|              ..|        occur: "1994-07-01T00:00:18Z" (773020818) 0x67e-0x685.7 (8)
0x680|00 00 2e 13 5c 92                              |....\.          |
0x680|                  00 00 00 13                  |      ....      |        corr: 19 0x686-0x689.7 (4)
     |                                               |                |      [19]{}: leap_second_record 0x68a-0x695.7 (12)
0x680|                              00 00 00 00 30 e7|          ....0.|        occur: "1996-01-01T00:00:19Z" (820454419) 0x68a-0x691.7 (8)
0x690|24 13                                          |$.              |
0x690|      00 00 00 14                              |  ....          |        corr: 20 0x692-0x695.7 (4)
     |                                               |                |      [20]{}: leap_second_record 0x696-0x6a1.7 (12)
0x690|                  00 00 00 00 33 b8 48 94      |      ....3.H.  |        occur: "1997-07-01T00:00:20Z" (867715220) 0x696-0x69d.7 (8)
0x690|                                          00 00|              ..|        corr: 21 0x69e-0x6a1.7 (4)
0x6a0|00 15                                          |..              |
     |                                               |                |      [21]{}: leap_second_record 0x6a2-0x6ad.7 (12)
0x6a0|      00 00 00 00 36 8c 10 15                  |  ....6...      |        occur: "1999-01-01T00:00:21Z" (915148821) 0x6a2-0x6a9.7 (8)
0x6a0|                              00 00 00 16      |          ....  |        corr: 22 0x6aa-0x6ad.7 (4)
     |                                               |                |      [22]{}: leap_second_record 0x6ae-0x6b9.7 (12)
0x6a0|                                          00 00|              ..|        occur: "2006-01-01T00:00:22Z" (1136073622) 0x6ae-0x6b5.7 (8)
0x6b0|00 00 43 b7 1b 96                              |..C...          |
0x6b0|                  00 00 00 17                  |      ....      |        corr: 23 0x6b6-0x6b9.7 (4)
     |                                               |                |      [23]{}: leap_second_record 0x6ba-0x6c5.7 (12)
0x6b0|                              00 00 00 00 49 5c|          ....I\|        occur: "2009-01-01T00:00:23Z" (1230768023) 0x6ba-0x6c1.7 (8)
0x6c0|07 97                                          |..              |
0x6c0|      00 00 00 18                              |  ....          |        corr: 24 0x6c2-0x6c5.7 (4)
     |                                               |                |      [24]{}: leap_second_record 0x6c6-0x6d1.7 (12)
0x6c0|                  00 00 00 00 4f ef 93 18      |      ....O...  |        occur: "2012-07-01T00:00:24Z" (1341100824) 0x6c6-0x6cd.7 (8)
0x6c0|                                          00 00|              ..|        corr: 25 0x6ce-0x6d1.7 (4)
0x6d0|00 19                                          |..              |
     |                                               |                |      [25]{}: leap_second_record 0x6d2-0x6dd.7 (12)
0x6d0|      00 00 00 00 55 93 2d 99                  |  ....U.-.      |        occur: "2015-07-01T00:00:25Z" (1435708825) 0x6d2-0x6d9.7 (8)
0x6d0|                              00 00 00 1a      |          ....  |        corr: 26 0x6da-0x6dd.7 (4)
     |                                               |                |      [26]{}: leap_second_record 0x6de-0x6e9.7 (12)
0x6d0|                                          00 00|              ..|        occur: "2017-01-01T00:00:26Z" (1483228826) 0x6de-0x6e5.7 (8)
0x6e0|00 00 58 68 46 9a                              |..XhF.          |
0x6e0|                  00 00 00 1b                  |      ....      |        corr: 27 0x6e6-0x6e9.7 (4)
     |                                               |                |    standard_wall_indicators[0:12]: 0x6ea-0x6f5.7 (12)
0x6e0|                              00               |          .     |      [0]: 0 standard_wall_indicator (valid) 0x6ea-0x6ea.7 (1)
0x6e0|                                 00            |           .    |      [1]: 0 standard_wall_indicator (valid) 0x6eb-0x6eb.7 (1)
0x6e0|                                    00         |            .   |      [2]: 0 standard_wall_indicator (valid) 0x6ec-0x6ec.7 (1)
0x6e0|                                       00      |             .  |      [3]: 0 standard_wall_indicator (valid) 0x6ed-0x6ed.7 (1)
0x6e0|                                          00   |              . |      [4]: 0 standard_wall_indicator (valid) 0x6ee-0x6ee.7 (1)
0x6e0|                                             01|               .|      [5]: 1 standard_wall_indicator (valid) 0x6ef-0x6ef.7 (1)
0x6f0|01                                             |.               |      [6]: 1 standard_wall_indicator (valid) 0x6f0-0x6f0.7 (1)
0x6f0|   01                                          | .              |      [7]: 1 standard_wall_indicator (valid) 0x6f1-0x6f1.7 (1)
0x6f0|      01                                       |  .             |      [8]: 1 standard_wall_indicator (valid) 0x6f2-0x6f2.7 (1)
0x6f0|         01                                    |   .            |      [9]: 1 standard_wall_indicator (valid) 0x6f3-0x6f3.7 (1)
0x6f0|            01                                 |    .           |      [10]: 1 standard_wall_indicator (valid) 0x6f4-0x6f4.7 (1)
0x6f0|               01                              |     .          |      [11]: 1 standard_wall_indicator (valid) 0x6f5-0x6f5.7 (1)
     |                                               |                |    ut_local_indicators[0:0]: 0x6f6-NA (0)
     |                                               |                |  footer{}: 0x6f6-0x6f7.7 (2)
0x6f0|                  0a                           |      .         |    nl1: 10 (valid) 0x6f6-0x6f6.7 (1)
     |                                               |                |    tz_string: "" 0x6f7-NA (0)
0x6f0|                     0a|                       |       .|       |    nl2: 10 (valid) 0x6f7-0x6f7.7 (1)
