$ fq -d tzif dv Vancouver
     |00 01 02 03 04 05 06 07 08 09 0a 0b 0c 0d 0e 0f|0123456789abcdef|.{}: Vancouver (tzif) 0x0-0xbca (3018)
     |                                               |                |  v1header{}: 0x0-0x2c (44)
0x000|54 5a 69 66                                    |TZif            |    magic: 0x545a6966 (valid) 0x0-0x4 (4)
0x000|            32                                 |    2           |    ver: "2" (0x32) (valid) 0x4-0x5 (1)
0x000|               00 00 00 00 00 00 00 00 00 00 00|     ...........|    reserved: raw bits 0x5-0x14 (15)
0x010|00 00 00 00                                    |....            |
0x010|            00 00 00 05                        |    ....        |    isutcnt: 5 0x14-0x18 (4)
0x010|                        00 00 00 05            |        ....    |    isstdcnt: 5 0x18-0x1c (4)
0x010|                                    00 00 00 1b|            ....|    leapcnt: 27 0x1c-0x20 (4)
0x020|00 00 00 a2                                    |....            |    timecnt: 162 0x20-0x24 (4)
0x020|            00 00 00 05                        |    ....        |    typecnt: 5 0x24-0x28 (4)
0x020|                        00 00 00 14            |        ....    |    charcnt: 20 0x28-0x2c (4)
     |                                               |                |  v1datablock{}: 0x2c-0x46a (1086)
     |                                               |                |    transition_times[0:162]: 0x2c-0x2b4 (648)
0x020|                                    80 00 00 00|            ....|      [0]: "1901-12-13T20:45:52Z" (-2147483648) transition_time 0x2c-0x30 (4)
0x030|9e b8 bd a0                                    |....            |      [1]: "1918-04-14T10:00:00Z" (-1632060000) transition_time 0x30-0x34 (4)
0x030|            9f bb 15 90                        |    ....        |      [2]: "1918-10-27T09:00:00Z" (-1615129200) transition_time 0x34-0x38 (4)
0x030|                        cb 89 1a a0            |        ....    |      [3]: "1942-02-09T10:00:00Z" (-880207200) transition_time 0x38-0x3c (4)
0x030|                                    d2 23 f4 70|            .#.p|      [4]: "1945-08-14T23:00:00Z" (-769395600) transition_time 0x3c-0x40 (4)
0x040|d2 61 26 10                                    |.a&.            |      [5]: "1945-09-30T09:00:00Z" (-765385200) transition_time 0x40-0x44 (4)
0x040|            d3 76 0f 20                        |    .v.         |      [6]: "1946-04-28T10:00:00Z" (-747237600) transition_time 0x44-0x48 (4)
0x040|                        d4 41 08 10            |        .A..    |      [7]: "1946-09-29T09:00:00Z" (-733935600) transition_time 0x48-0x4c (4)
0x040|                                    d5 55 f1 20|            .U. |      [8]: "1947-04-27T10:00:00Z" (-715788000) transition_time 0x4c-0x50 (4)
0x050|d6 20 ea 10                                    |. ..            |      [9]: "1947-09-28T09:00:00Z" (-702486000) transition_time 0x50-0x54 (4)
0x050|            d7 35 d3 20                        |    .5.         |      [10]: "1948-04-25T10:00:00Z" (-684338400) transition_time 0x54-0x58 (4)
0x050|                        d8 00 cc 10            |        ....    |      [11]: "1948-09-26T09:00:00Z" (-671036400) transition_time 0x58-0x5c (4)
0x050|                                    d9 15 b5 20|            ... |      [12]: "1949-04-24T10:00:00Z" (-652888800) transition_time 0x5c-0x60 (4)
0x060|d9 e0 ae 10                                    |....            |      [13]: "1949-09-25T09:00:00Z" (-639586800) transition_time 0x60-0x64 (4)
0x060|            da fe d1 a0                        |    ....        |      [14]: "1950-04-30T10:00:00Z" (-620834400) transition_time 0x64-0x68 (4)
0x060|                        db c0 90 10            |        ....    |      [15]: "1950-09-24T09:00:00Z" (-608137200) transition_time 0x68-0x6c (4)
0x060|                                    dc de b3 a0|            ....|      [16]: "1951-04-29T10:00:00Z" (-589384800) transition_time 0x6c-0x70 (4)
0x070|dd a9 ac 90                                    |....            |      [17]: "1951-09-30T09:00:00Z" (-576082800) transition_time 0x70-0x74 (4)
0x070|            de be 95 a0                        |    ....        |      [18]: "1952-04-27T10:00:00Z" (-557935200) transition_time 0x74-0x78 (4)
0x070|                        df 89 8e 90            |        ....    |      [19]: "1952-09-28T09:00:00Z" (-544633200) transition_time 0x78-0x7c (4)
0x070|                                    e0 9e 77 a0|            ..w.|      [20]: "1953-04-26T10:00:00Z" (-526485600) transition_time 0x7c-0x80 (4)
0x080|e1 69 70 90                                    |.ip.            |      [21]: "1953-09-27T09:00:00Z" (-513183600) transition_time 0x80-0x84 (4)
0x080|            e2 7e 59 a0                        |    .~Y.        |      [22]: "1954-04-25T10:00:00Z" (-495036000) transition_time 0x84-0x88 (4)
0x080|                        e3 49 52 90            |        .IR.    |      [23]: "1954-09-26T09:00:00Z" (-481734000) transition_time 0x88-0x8c (4)
0x080|                                    e4 5e 3b a0|            .^;.|      [24]: "1955-04-24T10:00:00Z" (-463586400) transition_time 0x8c-0x90 (4)
0x090|e5 29 34 90                                    |.)4.            |      [25]: "1955-09-25T09:00:00Z" (-450284400) transition_time 0x90-0x94 (4)
0x090|            e6 47 58 20                        |    .GX         |      [26]: "1956-04-29T10:00:00Z" (-431532000) transition_time 0x94-0x98 (4)
0x090|                        e7 12 51 10            |        ..Q.    |      [27]: "1956-09-30T09:00:00Z" (-418230000) transition_time 0x98-0x9c (4)
0x090|                                    e8 27 3a 20|            .': |      [28]: "1957-04-28T10:00:00Z" (-400082400) transition_time 0x9c-0xa0 (4)
0x0a0|e8 f2 33 10                                    |..3.            |      [29]: "1957-09-29T09:00:00Z" (-386780400) transition_time 0xa0-0xa4 (4)
0x0a0|            ea 07 1c 20                        |    ...         |      [30]: "1958-04-27T10:00:00Z" (-368632800) transition_time 0xa4-0xa8 (4)
0x0a0|                        ea d2 15 10            |        ....    |      [31]: "1958-09-28T09:00:00Z" (-355330800) transition_time 0xa8-0xac (4)
0x0a0|                                    eb e6 fe 20|            ... |      [32]: "1959-04-26T10:00:00Z" (-337183200) transition_time 0xac-0xb0 (4)
0x0b0|ec b1 f7 10                                    |....            |      [33]: "1959-09-27T09:00:00Z" (-323881200) transition_time 0xb0-0xb4 (4)
0x0b0|            ed c6 e0 20                        |    ...         |      [34]: "1960-04-24T10:00:00Z" (-305733600) transition_time 0xb4-0xb8 (4)
0x0b0|                        ee 91 d9 10            |        ....    |      [35]: "1960-09-25T09:00:00Z" (-292431600) transition_time 0xb8-0xbc (4)
0x0b0|                                    ef af fc a0|            ....|      [36]: "1961-04-30T10:00:00Z" (-273679200) transition_time 0xbc-0xc0 (4)
0x0c0|f0 71 bb 10                                    |.q..            |      [37]: "1961-09-24T09:00:00Z" (-260982000) transition_time 0xc0-0xc4 (4)
0x0c0|            f1 8f de a0                        |    ....        |      [38]: "1962-04-29T10:00:00Z" (-242229600) transition_time 0xc4-0xc8 (4)
0x0c0|                        f2 7f c1 90            |        ....    |      [39]: "1962-10-28T09:00:00Z" (-226508400) transition_time 0xc8-0xcc (4)
0x0c0|                                    f3 6f c0 a0|            .o..|      [40]: "1963-04-28T10:00:00Z" (-210780000) transition_time 0xcc-0xd0 (4)
0x0d0|f4 5f a3 90                                    |._..            |      [41]: "1963-10-27T09:00:00Z" (-195058800) transition_time 0xd0-0xd4 (4)
0x0d0|            f5 4f a2 a0                        |    .O..        |      [42]: "1964-04-26T10:00:00Z" (-179330400) transition_time 0xd4-0xd8 (4)
0x0d0|                        f6 3f 85 90            |        .?..    |      [43]: "1964-10-25T09:00:00Z" (-163609200) transition_time 0xd8-0xdc (4)
0x0d0|                                    f7 2f 84 a0|            ./..|      [44]: "1965-04-25T10:00:00Z" (-147880800) transition_time 0xdc-0xe0 (4)
0x0e0|f8 28 a2 10                                    |.(..            |      [45]: "1965-10-31T09:00:00Z" (-131554800) transition_time 0xe0-0xe4 (4)
0x0e0|            f9 0f 66 a0                        |    ..f.        |      [46]: "1966-04-24T10:00:00Z" (-116431200) transition_time 0xe4-0xe8 (4)
0x0e0|                        fa 08 84 10            |        ....    |      [47]: "1966-10-30T09:00:00Z" (-100105200) transition_time 0xe8-0xec (4)
0x0e0|                                    fa f8 83 20|            ... |      [48]: "1967-04-30T10:00:00Z" (-84376800) transition_time 0xec-0xf0 (4)
0x0f0|fb e8 66 10                                    |..f.            |      [49]: "1967-10-29T09:00:00Z" (-68655600) transition_time 0xf0-0xf4 (4)
0x0f0|            fc d8 65 20                        |    ..e         |      [50]: "1968-04-28T10:00:00Z" (-52927200) transition_time 0xf4-0xf8 (4)
0x0f0|                        fd c8 48 10            |        ..H.    |      [51]: "1968-10-27T09:00:00Z" (-37206000) transition_time 0xf8-0xfc (4)
0x0f0|                                    fe b8 47 20|            ..G |      [52]: "1969-04-27T10:00:00Z" (-21477600) transition_time 0xfc-0x100 (4)
0x100|ff a8 2a 10                                    |..*.            |      [53]: "1969-10-26T09:00:00Z" (-5756400) transition_time 0x100-0x104 (4)
0x100|            00 98 29 20                        |    ..)         |      [54]: "1970-04-26T10:00:00Z" (9972000) transition_time 0x104-0x108 (4)
0x100|                        01 88 0c 10            |        ....    |      [55]: "1970-10-25T09:00:00Z" (25693200) transition_time 0x108-0x10c (4)
0x100|                                    02 78 0b 20|            .x. |      [56]: "1971-04-25T10:00:00Z" (41421600) transition_time 0x10c-0x110 (4)
0x110|03 71 28 90                                    |.q(.            |      [57]: "1971-10-31T09:00:00Z" (57747600) transition_time 0x110-0x114 (4)
0x110|            04 61 27 a0                        |    .a'.        |      [58]: "1972-04-30T10:00:00Z" (73476000) transition_time 0x114-0x118 (4)
0x110|                        05 51 0a 91            |        .Q..    |      [59]: "1972-10-29T09:00:01Z" (89197201) transition_time 0x118-0x11c (4)
0x110|                                    06 41 09 a2|            .A..|      [60]: "1973-04-29T10:00:02Z" (104925602) transition_time 0x11c-0x120 (4)
0x120|07 30 ec 92                                    |.0..            |      [61]: "1973-10-28T09:00:02Z" (120646802) transition_time 0x120-0x124 (4)
0x120|            08 20 eb a3                        |    . ..        |      [62]: "1974-04-28T10:00:03Z" (136375203) transition_time 0x124-0x128 (4)
0x120|                        09 10 ce 93            |        ....    |      [63]: "1974-10-27T09:00:03Z" (152096403) transition_time 0x128-0x12c (4)
0x120|                                    0a 00 cd a4|            ....|      [64]: "1975-04-27T10:00:04Z" (167824804) transition_time 0x12c-0x130 (4)
0x130|0a f0 b0 94                                    |....            |      [65]: "1975-10-26T09:00:04Z" (183546004) transition_time 0x130-0x134 (4)
0x130|            0b e0 af a5                        |    ....        |      [66]: "1976-04-25T10:00:05Z" (199274405) transition_time 0x134-0x138 (4)
0x130|                        0c d9 cd 15            |        ....    |      [67]: "1976-10-31T09:00:05Z" (215600405) transition_time 0x138-0x13c (4)
0x130|                                    0d c0 91 a6|            ....|      [68]: "1977-04-24T10:00:06Z" (230724006) transition_time 0x13c-0x140 (4)
0x140|0e b9 af 16                                    |....            |      [69]: "1977-10-30T09:00:06Z" (247050006) transition_time 0x140-0x144 (4)
0x140|            0f a9 ae 27                        |    ...'        |      [70]: "1978-04-30T10:00:07Z" (262778407) transition_time 0x144-0x148 (4)
0x140|                        10 99 91 17            |        ....    |      [71]: "1978-10-29T09:00:07Z" (278499607) transition_time 0x148-0x14c (4)
0x140|                                    11 89 90 28|            ...(|      [72]: "1979-04-29T10:00:08Z" (294228008) transition_time 0x14c-0x150 (4)
0x150|12 79 73 18                                    |.ys.            |      [73]: "1979-10-28T09:00:08Z" (309949208) transition_time 0x150-0x154 (4)
0x150|            13 69 72 29                        |    .ir)        |      [74]: "1980-04-27T10:00:09Z" (325677609) transition_time 0x154-0x158 (4)
0x150|                        14 59 55 19            |        .YU.    |      [75]: "1980-10-26T09:00:09Z" (341398809) transition_time 0x158-0x15c (4)
0x150|                                    15 49 54 29|            .IT)|      [76]: "1981-04-26T10:00:09Z" (357127209) transition_time 0x15c-0x160 (4)
0x160|16 39 37 1a                                    |.97.            |      [77]: "1981-10-25T09:00:10Z" (372848410) transition_time 0x160-0x164 (4)
0x160|            17 29 36 2a                        |    .)6*        |      [78]: "1982-04-25T10:00:10Z" (388576810) transition_time 0x164-0x168 (4)
0x160|                        18 22 53 9b            |        ."S.    |      [79]: "1982-10-31T09:00:11Z" (404902811) transition_time 0x168-0x16c (4)
0x160|                                    19 09 18 2b|            ...+|      [80]: "1983-04-24T10:00:11Z" (420026411) transition_time 0x16c-0x170 (4)
0x170|1a 02 35 9c                                    |..5.            |      [81]: "1983-10-30T09:00:12Z" (436352412) transition_time 0x170-0x174 (4)
0x170|            1a f2 34 ac                        |    ..4.        |      [82]: "1984-04-29T10:00:12Z" (452080812) transition_time 0x174-0x178 (4)
0x170|                        1b e2 17 9c            |        ....    |      [83]: "1984-10-28T09:00:12Z" (467802012) transition_time 0x178-0x17c (4)
0x170|                                    1c d2 16 ac|            ....|      [84]: "1985-04-28T10:00:12Z" (483530412) transition_time 0x17c-0x180 (4)
0x180|1d c1 f9 9d                                    |....            |      [85]: "1985-10-27T09:00:13Z" (499251613) transition_time 0x180-0x184 (4)
0x180|            1e b1 f8 ad                        |    ....        |      [86]: "1986-04-27T10:00:13Z" (514980013) transition_time 0x184-0x188 (4)
0x180|                        1f a1 db 9d            |        ....    |      [87]: "1986-10-26T09:00:13Z" (530701213) transition_time 0x188-0x18c (4)
0x180|                                    20 76 2b 2d|             v+-|      [88]: "1987-04-05T10:00:13Z" (544615213) transition_time 0x18c-0x190 (4)
0x190|21 81 bd 9d                                    |!...            |      [89]: "1987-10-25T09:00:13Z" (562150813) transition_time 0x190-0x194 (4)
0x190|            22 56 0d 2e                        |    "V..        |      [90]: "1988-04-03T10:00:14Z" (576064814) transition_time 0x194-0x198 (4)
0x190|                        23 6a da 1e            |        #j..    |      [91]: "1988-10-30T09:00:14Z" (594205214) transition_time 0x198-0x19c (4)
0x190|                                    24 35 ef 2e|            $5..|      [92]: "1989-04-02T10:00:14Z" (607514414) transition_time 0x19c-0x1a0 (4)
0x1a0|25 4a bc 1e                                    |%J..            |      [93]: "1989-10-29T09:00:14Z" (625654814) transition_time 0x1a0-0x1a4 (4)
0x1a0|            26 15 d1 2f                        |    &../        |      [94]: "1990-04-01T10:00:15Z" (638964015) transition_time 0x1a4-0x1a8 (4)
0x1a0|                        27 2a 9e 1f            |        '*..    |      [95]: "1990-10-28T09:00:15Z" (657104415) transition_time 0x1a8-0x1ac (4)
0x1a0|                                    27 fe ed b0|            '...|      [96]: "1991-04-07T10:00:16Z" (671018416) transition_time 0x1ac-0x1b0 (4)
0x1b0|29 0a 80 20                                    |)..             |      [97]: "1991-10-27T09:00:16Z" (688554016) transition_time 0x1b0-0x1b4 (4)
0x1b0|            29 de cf b0                        |    )...        |      [98]: "1992-04-05T10:00:16Z" (702468016) transition_time 0x1b4-0x1b8 (4)
0x1b0|                        2a ea 62 21            |        *.b!    |      [99]: "1992-10-25T09:00:17Z" (720003617) transition_time 0x1b8-0x1bc (4)
0x1b0|                                    2b be b1 b1|            +...|      [100]: "1993-04-04T10:00:17Z" (733917617) transition_time 0x1bc-0x1c0 (4)
0x1c0|2c d3 7e a2                                    |,.~.            |      [101]: "1993-10-31T09:00:18Z" (752058018) transition_time 0x1c0-0x1c4 (4)
0x1c0|            2d 9e 93 b2                        |    -...        |      [102]: "1994-04-03T10:00:18Z" (765367218) transition_time 0x1c4-0x1c8 (4)
0x1c0|                        2e b3 60 a3            |        ..`.    |      [103]: "1994-10-30T09:00:19Z" (783507619) transition_time 0x1c8-0x1cc (4)
0x1c0|                                    2f 7e 75 b3|            /~u.|      [104]: "1995-04-02T10:00:19Z" (796816819) transition_time 0x1cc-0x1d0 (4)
0x1d0|30 93 42 a3                                    |0.B.            |      [105]: "1995-10-29T09:00:19Z" (814957219) transition_time 0x1d0-0x1d4 (4)
0x1d0|            31 67 92 34                        |    1g.4        |      [106]: "1996-04-07T10:00:20Z" (828871220) transition_time 0x1d4-0x1d8 (4)
0x1d0|                        32 73 24 a4            |        2s$.    |      [107]: "1996-10-27T09:00:20Z" (846406820) transition_time 0x1d8-0x1dc (4)
0x1d0|                                    33 47 74 34|            3Gt4|      [108]: "1997-04-06T10:00:20Z" (860320820) transition_time 0x1dc-0x1e0 (4)
0x1e0|34 53 06 a5                                    |4S..            |      [109]: "1997-10-26T09:00:21Z" (877856421) transition_time 0x1e0-0x1e4 (4)
0x1e0|            35 27 56 35                        |    5'V5        |      [110]: "1998-04-05T10:00:21Z" (891770421) transition_time 0x1e4-0x1e8 (4)
0x1e0|                        36 32 e8 a5            |        62..    |      [111]: "1998-10-25T09:00:21Z" (909306021) transition_time 0x1e8-0x1ec (4)
0x1e0|                                    37 07 38 36|            7.86|      [112]: "1999-04-04T10:00:22Z" (923220022) transition_time 0x1ec-0x1f0 (4)
0x1f0|38 1c 05 26                                    |8..&            |      [113]: "1999-10-31T09:00:22Z" (941360422) transition_time 0x1f0-0x1f4 (4)
0x1f0|            38 e7 1a 36                        |    8..6        |      [114]: "2000-04-02T10:00:22Z" (954669622) transition_time 0x1f4-0x1f8 (4)
0x1f0|                        39 fb e7 26            |        9..&    |      [115]: "2000-10-29T09:00:22Z" (972810022) transition_time 0x1f8-0x1fc (4)
0x1f0|                                    3a c6 fc 36|            :..6|      [116]: "2001-04-01T10:00:22Z" (986119222) transition_time 0x1fc-0x200 (4)
0x200|3b db c9 26                                    |;..&            |      [117]: "2001-10-28T09:00:22Z" (1004259622) transition_time 0x200-0x204 (4)
0x200|            3c b0 18 b6                        |    <...        |      [118]: "2002-04-07T10:00:22Z" (1018173622) transition_time 0x204-0x208 (4)
0x200|                        3d bb ab 26            |        =..&    |      [119]: "2002-10-27T09:00:22Z" (1035709222) transition_time 0x208-0x20c (4)
0x200|                                    3e 8f fa b6|            >...|      [120]: "2003-04-06T10:00:22Z" (1049623222) transition_time 0x20c-0x210 (4)
0x210|3f 9b 8d 26                                    |?..&            |      [121]: "2003-10-26T09:00:22Z" (1067158822) transition_time 0x210-0x214 (4)
0x210|            40 6f dc b6                        |    @o..        |      [122]: "2004-04-04T10:00:22Z" (1081072822) transition_time 0x214-0x218 (4)
0x210|                        41 84 a9 a6            |        A...    |      [123]: "2004-10-31T09:00:22Z" (1099213222) transition_time 0x218-0x21c (4)
0x210|                                    42 4f be b6|            BO..|      [124]: "2005-04-03T10:00:22Z" (1112522422) transition_time 0x21c-0x220 (4)
0x220|43 64 8b a6                                    |Cd..            |      [125]: "2005-10-30T09:00:22Z" (1130662822) transition_time 0x220-0x224 (4)
0x220|            44 2f a0 b7                        |    D/..        |      [126]: "2006-04-02T10:00:23Z" (1143972023) transition_time 0x224-0x228 (4)
0x220|                        45 44 6d a7            |        EDm.    |      [127]: "2006-10-29T09:00:23Z" (1162112423) transition_time 0x228-0x22c (4)
0x220|                                    45 f3 d3 37|            E..7|      [128]: "2007-03-11T10:00:23Z" (1173607223) transition_time 0x22c-0x230 (4)
0x230|47 2d 8a 27                                    |G-.'            |      [129]: "2007-11-04T09:00:23Z" (1194166823) transition_time 0x230-0x234 (4)
0x230|            47 d3 b5 37                        |    G..7        |      [130]: "2008-03-09T10:00:23Z" (1205056823) transition_time 0x234-0x238 (4)
0x230|                        49 0d 6c 27            |        I.l'    |      [131]: "2008-11-02T09:00:23Z" (1225616423) transition_time 0x238-0x23c (4)
0x230|                                    49 b3 97 38|            I..8|      [132]: "2009-03-08T10:00:24Z" (1236506424) transition_time 0x23c-0x240 (4)
0x240|4a ed 4e 28                                    |J.N(            |      [133]: "2009-11-01T09:00:24Z" (1257066024) transition_time 0x240-0x244 (4)
0x240|            4b 9c b3 b8                        |    K...        |      [134]: "2010-03-14T10:00:24Z" (1268560824) transition_time 0x244-0x248 (4)
0x240|                        4c d6 6a a8            |        L.j.    |      [135]: "2010-11-07T09:00:24Z" (1289120424) transition_time 0x248-0x24c (4)
0x240|                                    4d 7c 95 b8|            M|..|      [136]: "2011-03-13T10:00:24Z" (1300010424) transition_time 0x24c-0x250 (4)
0x250|4e b6 4c a8                                    |N.L.            |      [137]: "2011-11-06T09:00:24Z" (1320570024) transition_time 0x250-0x254 (4)
0x250|            4f 5c 77 b8                        |    O\w.        |      [138]: "2012-03-11T10:00:24Z" (1331460024) transition_time 0x254-0x258 (4)
0x250|                        50 96 2e a9            |        P...    |      [139]: "2012-11-04T09:00:25Z" (1352019625) transition_time 0x258-0x25c (4)
0x250|                                    51 3c 59 b9|            Q<Y.|      [140]: "2013-03-10T10:00:25Z" (1362909625) transition_time 0x25c-0x260 (4)
0x260|52 76 10 a9                                    |Rv..            |      [141]: "2013-11-03T09:00:25Z" (1383469225) transition_time 0x260-0x264 (4)
0x260|            53 1c 3b b9                        |    S.;.        |      [142]: "2014-03-09T10:00:25Z" (1394359225) transition_time 0x264-0x268 (4)
0x260|                        54 55 f2 a9            |        TU..    |      [143]: "2014-11-02T09:00:25Z" (1414918825) transition_time 0x268-0x26c (4)
0x260|                                    54 fc 1d b9|            T...|      [144]: "2015-03-08T10:00:25Z" (1425808825) transition_time 0x26c-0x270 (4)
0x270|56 35 d4 aa                                    |V5..            |      [145]: "2015-11-01T09:00:26Z" (1446368426) transition_time 0x270-0x274 (4)
0x270|            56 e5 3a 3a                        |    V.::        |      [146]: "2016-03-13T10:00:26Z" (1457863226) transition_time 0x274-0x278 (4)
0x270|                        58 1e f1 2a            |        X..*    |      [147]: "2016-11-06T09:00:26Z" (1478422826) transition_time 0x278-0x27c (4)
0x270|                                    58 c5 1c 3b|            X..;|      [148]: "2017-03-12T10:00:27Z" (1489312827) transition_time 0x27c-0x280 (4)
0x280|59 fe d3 2b                                    |Y..+            |      [149]: "2017-11-05T09:00:27Z" (1509872427) transition_time 0x280-0x284 (4)
0x280|            5a a4 fe 3b                        |    Z..;        |      [150]: "2018-03-11T10:00:27Z" (1520762427) transition_time 0x284-0x288 (4)
0x280|                        5b de b5 2b            |        [..+    |      [151]: "2018-11-04T09:00:27Z" (1541322027) transition_time 0x288-0x28c (4)
0x280|                                    5c 84 e0 3b|            \..;|      [152]: "2019-03-10T10:00:27Z" (1552212027) transition_time 0x28c-0x290 (4)
0x290|5d be 97 2b                                    |]..+            |      [153]: "2019-11-03T09:00:27Z" (1572771627) transition_time 0x290-0x294 (4)
0x290|            5e 64 c2 3b                        |    ^d.;        |      [154]: "2020-03-08T10:00:27Z" (1583661627) transition_time 0x294-0x298 (4)
0x290|                        5f 9e 79 2b            |        _.y+    |      [155]: "2020-11-01T09:00:27Z" (1604221227) transition_time 0x298-0x29c (4)
0x290|                                    60 4d de bb|            `M..|      [156]: "2021-03-14T10:00:27Z" (1615716027) transition_time 0x29c-0x2a0 (4)
0x2a0|61 87 95 ab                                    |a...            |      [157]: "2021-11-07T09:00:27Z" (1636275627) transition_time 0x2a0-0x2a4 (4)
0x2a0|            62 2d c0 bb                        |    b-..        |      [158]: "2022-03-13T10:00:27Z" (1647165627) transition_time 0x2a4-0x2a8 (4)
0x2a0|                        63 67 77 ab            |        cgw.    |      [159]: "2022-11-06T09:00:27Z" (1667725227) transition_time 0x2a8-0x2ac (4)
0x2a0|                                    64 0d a2 bb|            d...|      [160]: "2023-03-12T10:00:27Z" (1678615227) transition_time 0x2ac-0x2b0 (4)
0x2b0|64 9b 78 1b                                    |d.x.            |      [161]: "2023-06-28T00:00:27Z" (1687910427) transition_time 0x2b0-0x2b4 (4)
     |                                               |                |    transition_types[0:162]: 0x2b4-0x356 (162)
0x2b0|            02                                 |    .           |      [0]: 2 transition_type 0x2b4-0x2b5 (1)
0x2b0|               01                              |     .          |      [1]: 1 transition_type 0x2b5-0x2b6 (1)
0x2b0|                  02                           |      .         |      [2]: 2 transition_type 0x2b6-0x2b7 (1)
0x2b0|                     03                        |       .        |      [3]: 3 transition_type 0x2b7-0x2b8 (1)
0x2b0|                        04                     |        .       |      [4]: 4 transition_type 0x2b8-0x2b9 (1)
0x2b0|                           02                  |         .      |      [5]: 2 transition_type 0x2b9-0x2ba (1)
0x2b0|                              01               |          .     |      [6]: 1 transition_type 0x2ba-0x2bb (1)
0x2b0|                                 02            |           .    |      [7]: 2 transition_type 0x2bb-0x2bc (1)
0x2b0|                                    01         |            .   |      [8]: 1 transition_type 0x2bc-0x2bd (1)
0x2b0|                                       02      |             .  |      [9]: 2 transition_type 0x2bd-0x2be (1)
0x2b0|                                          01   |              . |      [10]: 1 transition_type 0x2be-0x2bf (1)
0x2b0|                                             02|               .|      [11]: 2 transition_type 0x2bf-0x2c0 (1)
0x2c0|01                                             |.               |      [12]: 1 transition_type 0x2c0-0x2c1 (1)
0x2c0|   02                                          | .              |      [13]: 2 transition_type 0x2c1-0x2c2 (1)
0x2c0|      01                                       |  .             |      [14]: 1 transition_type 0x2c2-0x2c3 (1)
0x2c0|         02                                    |   .            |      [15]: 2 transition_type 0x2c3-0x2c4 (1)
0x2c0|            01                                 |    .           |      [16]: 1 transition_type 0x2c4-0x2c5 (1)
0x2c0|               02                              |     .          |      [17]: 2 transition_type 0x2c5-0x2c6 (1)
0x2c0|                  01                           |      .         |      [18]: 1 transition_type 0x2c6-0x2c7 (1)
0x2c0|                     02                        |       .        |      [19]: 2 transition_type 0x2c7-0x2c8 (1)
0x2c0|                        01                     |        .       |      [20]: 1 transition_type 0x2c8-0x2c9 (1)
0x2c0|                           02                  |         .      |      [21]: 2 transition_type 0x2c9-0x2ca (1)
0x2c0|                              01               |          .     |      [22]: 1 transition_type 0x2ca-0x2cb (1)
0x2c0|                                 02            |           .    |      [23]: 2 transition_type 0x2cb-0x2cc (1)
0x2c0|                                    01         |            .   |      [24]: 1 transition_type 0x2cc-0x2cd (1)
0x2c0|                                       02      |             .  |      [25]: 2 transition_type 0x2cd-0x2ce (1)
0x2c0|                                          01   |              . |      [26]: 1 transition_type 0x2ce-0x2cf (1)
0x2c0|                                             02|               .|      [27]: 2 transition_type 0x2cf-0x2d0 (1)
0x2d0|01                                             |.               |      [28]: 1 transition_type 0x2d0-0x2d1 (1)
0x2d0|   02                                          | .              |      [29]: 2 transition_type 0x2d1-0x2d2 (1)
0x2d0|      01                                       |  .             |      [30]: 1 transition_type 0x2d2-0x2d3 (1)
0x2d0|         02                                    |   .            |      [31]: 2 transition_type 0x2d3-0x2d4 (1)
0x2d0|            01                                 |    .           |      [32]: 1 transition_type 0x2d4-0x2d5 (1)
0x2d0|               02                              |     .          |      [33]: 2 transition_type 0x2d5-0x2d6 (1)
0x2d0|                  01                           |      .         |      [34]: 1 transition_type 0x2d6-0x2d7 (1)
0x2d0|                     02                        |       .        |      [35]: 2 transition_type 0x2d7-0x2d8 (1)
0x2d0|                        01                     |        .       |      [36]: 1 transition_type 0x2d8-0x2d9 (1)
0x2d0|                           02                  |         .      |      [37]: 2 transition_type 0x2d9-0x2da (1)
0x2d0|                              01               |          .     |      [38]: 1 transition_type 0x2da-0x2db (1)
0x2d0|                                 02            |           .    |      [39]: 2 transition_type 0x2db-0x2dc (1)
0x2d0|                                    01         |            .   |      [40]: 1 transition_type 0x2dc-0x2dd (1)
0x2d0|                                       02      |             .  |      [41]: 2 transition_type 0x2dd-0x2de (1)
0x2d0|                                          01   |              . |      [42]: 1 transition_type 0x2de-0x2df (1)
0x2d0|                                             02|               .|      [43]: 2 transition_type 0x2df-0x2e0 (1)
0x2e0|01                                             |.               |      [44]: 1 transition_type 0x2e0-0x2e1 (1)
0x2e0|   02                                          | .              |      [45]: 2 transition_type 0x2e1-0x2e2 (1)
0x2e0|      01                                       |  .             |      [46]: 1 transition_type 0x2e2-0x2e3 (1)
0x2e0|         02                                    |   .            |      [47]: 2 transition_type 0x2e3-0x2e4 (1)
0x2e0|            01                                 |    .           |      [48]: 1 transition_type 0x2e4-0x2e5 (1)
0x2e0|               02                              |     .          |      [49]: 2 transition_type 0x2e5-0x2e6 (1)
0x2e0|                  01                           |      .         |      [50]: 1 transition_type 0x2e6-0x2e7 (1)
0x2e0|                     02                        |       .        |      [51]: 2 transition_type 0x2e7-0x2e8 (1)
0x2e0|                        01                     |        .       |      [52]: 1 transition_type 0x2e8-0x2e9 (1)
0x2e0|                           02                  |         .      |      [53]: 2 transition_type 0x2e9-0x2ea (1)
0x2e0|                              01               |          .     |      [54]: 1 transition_type 0x2ea-0x2eb (1)
0x2e0|                                 02            |           .    |      [55]: 2 transition_type 0x2eb-0x2ec (1)
0x2e0|                                    01         |            .   |      [56]: 1 transition_type 0x2ec-0x2ed (1)
0x2e0|                                       02      |             .  |      [57]: 2 transition_type 0x2ed-0x2ee (1)
0x2e0|                                          01   |              . |      [58]: 1 transition_type 0x2ee-0x2ef (1)
0x2e0|                                             02|               .|      [59]: 2 transition_type 0x2ef-0x2f0 (1)
0x2f0|01                                             |.               |      [60]: 1 transition_type 0x2f0-0x2f1 (1)
0x2f0|   02                                          | .              |      [61]: 2 transition_type 0x2f1-0x2f2 (1)
0x2f0|      01                                       |  .             |      [62]: 1 transition_type 0x2f2-0x2f3 (1)
0x2f0|         02                                    |   .            |      [63]: 2 transition_type 0x2f3-0x2f4 (1)
0x2f0|            01                                 |    .           |      [64]: 1 transition_type 0x2f4-0x2f5 (1)
0x2f0|               02                              |     .          |      [65]: 2 transition_type 0x2f5-0x2f6 (1)
0x2f0|                  01                           |      .         |      [66]: 1 transition_type 0x2f6-0x2f7 (1)
0x2f0|                     02                        |       .        |      [67]: 2 transition_type 0x2f7-0x2f8 (1)
0x2f0|                        01                     |        .       |      [68]: 1 transition_type 0x2f8-0x2f9 (1)
0x2f0|                           02                  |         .      |      [69]: 2 transition_type 0x2f9-0x2fa (1)
0x2f0|                              01               |          .     |      [70]: 1 transition_type 0x2fa-0x2fb (1)
0x2f0|                                 02            |           .    |      [71]: 2 transition_type 0x2fb-0x2fc (1)
0x2f0|                                    01         |            .   |      [72]: 1 transition_type 0x2fc-0x2fd (1)
0x2f0|                                       02      |             .  |      [73]: 2 transition_type 0x2fd-0x2fe (1)
0x2f0|                                          01   |              . |      [74]: 1 transition_type 0x2fe-0x2ff (1)
0x2f0|                                             02|               .|      [75]: 2 transition_type 0x2ff-0x300 (1)
0x300|01                                             |.               |      [76]: 1 transition_type 0x300-0x301 (1)
0x300|   02                                          | .              |      [77]: 2 transition_type 0x301-0x302 (1)
0x300|      01                                       |  .             |      [78]: 1 transition_type 0x302-0x303 (1)
0x300|         02                                    |   .            |      [79]: 2 transition_type 0x303-0x304 (1)
0x300|            01                                 |    .           |      [80]: 1 transition_type 0x304-0x305 (1)
0x300|               02                              |     .          |      [81]: 2 transition_type 0x305-0x306 (1)
0x300|                  01                           |      .         |      [82]: 1 transition_type 0x306-0x307 (1)
0x300|                     02                        |       .        |      [83]: 2 transition_type 0x307-0x308 (1)
0x300|                        01                     |        .       |      [84]: 1 transition_type 0x308-0x309 (1)
0x300|                           02                  |         .      |      [85]: 2 transition_type 0x309-0x30a (1)
0x300|                              01               |          .     |      [86]: 1 transition_type 0x30a-0x30b (1)
0x300|                                 02            |           .    |      [87]: 2 transition_type 0x30b-0x30c (1)
0x300|                                    01         |            .   |      [88]: 1 transition_type 0x30c-0x30d (1)
0x300|                                       02      |             .  |      [89]: 2 transition_type 0x30d-0x30e (1)
0x300|                                          01   |              . |      [90]: 1 transition_type 0x30e-0x30f (1)
0x300|                                             02|               .|      [91]: 2 transition_type 0x30f-0x310 (1)
0x310|01                                             |.               |      [92]: 1 transition_type 0x310-0x311 (1)
0x310|   02                                          | .              |      [93]: 2 transition_type 0x311-0x312 (1)
0x310|      01                                       |  .             |      [94]: 1 transition_type 0x312-0x313 (1)
0x310|         02                                    |   .            |      [95]: 2 transition_type 0x313-0x314 (1)
0x310|            01                                 |    .           |      [96]: 1 transition_type 0x314-0x315 (1)
0x310|               02                              |     .          |      [97]: 2 transition_type 0x315-0x316 (1)
0x310|                  01                           |      .         |      [98]: 1 transition_type 0x316-0x317 (1)
0x310|                     02                        |       .        |      [99]: 2 transition_type 0x317-0x318 (1)
0x310|                        01                     |        .       |      [100]: 1 transition_type 0x318-0x319 (1)
0x310|                           02                  |         .      |      [101]: 2 transition_type 0x319-0x31a (1)
0x310|                              01               |          .     |      [102]: 1 transition_type 0x31a-0x31b (1)
0x310|                                 02            |           .    |      [103]: 2 transition_type 0x31b-0x31c (1)
0x310|                                    01         |            .   |      [104]: 1 transition_type 0x31c-0x31d (1)
0x310|                                       02      |             .  |      [105]: 2 transition_type 0x31d-0x31e (1)
0x310|                                          01   |              . |      [106]: 1 transition_type 0x31e-0x31f (1)
0x310|                                             02|               .|      [107]: 2 transition_type 0x31f-0x320 (1)
0x320|01                                             |.               |      [108]: 1 transition_type 0x320-0x321 (1)
0x320|   02                                          | .              |      [109]: 2 transition_type 0x321-0x322 (1)
0x320|      01                                       |  .             |      [110]: 1 transition_type 0x322-0x323 (1)
0x320|         02                                    |   .            |      [111]: 2 transition_type 0x323-0x324 (1)
0x320|            01                                 |    .           |      [112]: 1 transition_type 0x324-0x325 (1)
0x320|               02                              |     .          |      [113]: 2 transition_type 0x325-0x326 (1)
0x320|                  01                           |      .         |      [114]: 1 transition_type 0x326-0x327 (1)
0x320|                     02                        |       .        |      [115]: 2 transition_type 0x327-0x328 (1)
0x320|                        01                     |        .       |      [116]: 1 transition_type 0x328-0x329 (1)
0x320|                           02                  |         .      |      [117]: 2 transition_type 0x329-0x32a (1)
0x320|                              01               |          .     |      [118]: 1 transition_type 0x32a-0x32b (1)
0x320|                                 02            |           .    |      [119]: 2 transition_type 0x32b-0x32c (1)
0x320|                                    01         |            .   |      [120]: 1 transition_type 0x32c-0x32d (1)
0x320|                                       02      |             .  |      [121]: 2 transition_type 0x32d-0x32e (1)
0x320|                                          01   |              . |      [122]: 1 transition_type 0x32e-0x32f (1)
0x320|                                             02|               .|      [123]: 2 transition_type 0x32f-0x330 (1)
0x330|01                                             |.               |      [124]: 1 transition_type 0x330-0x331 (1)
0x330|   02                                          | .              |      [125]: 2 transition_type 0x331-0x332 (1)
0x330|      01                                       |  .             |      [126]: 1 transition_type 0x332-0x333 (1)
0x330|         02                                    |   .            |      [127]: 2 transition_type 0x333-0x334 (1)
0x330|            01                                 |    .           |      [128]: 1 transition_type 0x334-0x335 (1)
0x330|               02                              |     .          |      [129]: 2 transition_type 0x335-0x336 (1)
0x330|                  01                           |      .         |      [130]: 1 transition_type 0x336-0x337 (1)
0x330|                     02                        |       .        |      [131]: 2 transition_type 0x337-0x338 (1)
0x330|                        01                     |        .       |      [132]: 1 transition_type 0x338-0x339 (1)
0x330|                           02                  |         .      |      [133]: 2 transition_type 0x339-0x33a (1)
0x330|                              01               |          .     |      [134]: 1 transition_type 0x33a-0x33b (1)
0x330|                                 02            |           .    |      [135]: 2 transition_type 0x33b-0x33c (1)
0x330|                                    01         |            .   |      [136]: 1 transition_type 0x33c-0x33d (1)
0x330|                                       02      |             .  |      [137]: 2 transition_type 0x33d-0x33e (1)
0x330|                                          01   |              . |      [138]: 1 transition_type 0x33e-0x33f (1)
0x330|                                             02|               .|      [139]: 2 transition_type 0x33f-0x340 (1)
0x340|01                                             |.               |      [140]: 1 transition_type 0x340-0x341 (1)
0x340|   02                                          | .              |      [141]: 2 transition_type 0x341-0x342 (1)
0x340|      01                                       |  .             |      [142]: 1 transition_type 0x342-0x343 (1)
0x340|         02                                    |   .            |      [143]: 2 transition_type 0x343-0x344 (1)
0x340|            01                                 |    .           |      [144]: 1 transition_type 0x344-0x345 (1)
0x340|               02                              |     .          |      [145]: 2 transition_type 0x345-0x346 (1)
0x340|                  01                           |      .         |      [146]: 1 transition_type 0x346-0x347 (1)
0x340|                     02                        |       .        |      [147]: 2 transition_type 0x347-0x348 (1)
0x340|                        01                     |        .       |      [148]: 1 transition_type 0x348-0x349 (1)
0x340|                           02                  |         .      |      [149]: 2 transition_type 0x349-0x34a (1)
0x340|                              01               |          .     |      [150]: 1 transition_type 0x34a-0x34b (1)
0x340|                                 02            |           .    |      [151]: 2 transition_type 0x34b-0x34c (1)
0x340|                                    01         |            .   |      [152]: 1 transition_type 0x34c-0x34d (1)
0x340|                                       02      |             .  |      [153]: 2 transition_type 0x34d-0x34e (1)
0x340|                                          01   |              . |      [154]: 1 transition_type 0x34e-0x34f (1)
0x340|                                             02|               .|      [155]: 2 transition_type 0x34f-0x350 (1)
0x350|01                                             |.               |      [156]: 1 transition_type 0x350-0x351 (1)
0x350|   02                                          | .              |      [157]: 2 transition_type 0x351-0x352 (1)
0x350|      01                                       |  .             |      [158]: 1 transition_type 0x352-0x353 (1)
0x350|         02                                    |   .            |      [159]: 2 transition_type 0x353-0x354 (1)
0x350|            01                                 |    .           |      [160]: 1 transition_type 0x354-0x355 (1)
0x350|               01                              |     .          |      [161]: 1 transition_type 0x355-0x356 (1)
     |                                               |                |    local_time_type_records[0:5]: 0x356-0x374 (30)
     |                                               |                |      [0]{}: local_time_type 0x356-0x35c (6)
0x350|                  ff ff 8c 94                  |      ....      |        utoff: -29548 (valid) 0x356-0x35a (4)
0x350|                              00               |          .     |        dst: 0 (valid) 0x35a-0x35b (1)
0x350|                                 00            |           .    |        idx: 0 (valid) 0x35b-0x35c (1)
     |                                               |                |      [1]{}: local_time_type 0x35c-0x362 (6)
0x350|                                    ff ff 9d 90|            ....|        utoff: -25200 (valid) 0x35c-0x360 (4)
0x360|01                                             |.               |        dst: 1 (valid) 0x360-0x361 (1)
0x360|   04                                          | .              |        idx: 4 (valid) 0x361-0x362 (1)
     |                                               |                |      [2]{}: local_time_type 0x362-0x368 (6)
0x360|      ff ff 8f 80                              |  ....          |        utoff: -28800 (valid) 0x362-0x366 (4)
0x360|                  00                           |      .         |        dst: 0 (valid) 0x366-0x367 (1)
0x360|                     08                        |       .        |        idx: 8 (valid) 0x367-0x368 (1)
     |                                               |                |      [3]{}: local_time_type 0x368-0x36e (6)
0x360|                        ff ff 9d 90            |        ....    |        utoff: -25200 (valid) 0x368-0x36c (4)
0x360|                                    01         |            .   |        dst: 1 (valid) 0x36c-0x36d (1)
0x360|                                       0c      |             .  |        idx: 12 (valid) 0x36d-0x36e (1)
     |                                               |                |      [4]{}: local_time_type 0x36e-0x374 (6)
0x360|                                          ff ff|              ..|        utoff: -25200 (valid) 0x36e-0x372 (4)
0x370|9d 90                                          |..              |
0x370|      01                                       |  .             |        dst: 1 (valid) 0x372-0x373 (1)
0x370|         10                                    |   .            |        idx: 16 (valid) 0x373-0x374 (1)
     |                                               |                |    time_zone_designations[0:5]: 0x374-0x388 (20)
0x370|            4c 4d 54 00                        |    LMT.        |      [0]: "LMT" time_zone_designation 0x374-0x378 (4)
0x370|                        50 44 54 00            |        PDT.    |      [1]: "PDT" time_zone_designation 0x378-0x37c (4)
0x370|                                    50 53 54 00|            PST.|      [2]: "PST" time_zone_designation 0x37c-0x380 (4)
0x380|50 57 54 00                                    |PWT.            |      [3]: "PWT" time_zone_designation 0x380-0x384 (4)
0x380|            50 50 54 00                        |    PPT.        |      [4]: "PPT" time_zone_designation 0x384-0x388 (4)
     |                                               |                |    leap_second_records[0:27]: 0x388-0x460 (216)
     |                                               |                |      [0]{}: leap_second_record 0x388-0x390 (8)
0x380|                        04 b2 58 00            |        ..X.    |        occur: "1972-07-01T00:00:00Z" (78796800) 0x388-0x38c (4)
0x380|                                    00 00 00 01|            ....|        corr: 1 0x38c-0x390 (4)
     |                                               |                |      [1]{}: leap_second_record 0x390-0x398 (8)
0x390|05 a4 ec 01                                    |....            |        occur: "1973-01-01T00:00:01Z" (94694401) 0x390-0x394 (4)
0x390|            00 00 00 02                        |    ....        |        corr: 2 0x394-0x398 (4)
     |                                               |                |      [2]{}: leap_second_record 0x398-0x3a0 (8)
0x390|                        07 86 1f 82            |        ....    |        occur: "1974-01-01T00:00:02Z" (126230402) 0x398-0x39c (4)
0x390|                                    00 00 00 03|            ....|        corr: 3 0x39c-0x3a0 (4)
     |                                               |                |      [3]{}: leap_second_record 0x3a0-0x3a8 (8)
0x3a0|09 67 53 03                                    |.gS.            |        occur: "1975-01-01T00:00:03Z" (157766403) 0x3a0-0x3a4 (4)
0x3a0|            00 00 00 04                        |    ....        |        corr: 4 0x3a4-0x3a8 (4)
     |                                               |                |      [4]{}: leap_second_record 0x3a8-0x3b0 (8)
0x3a0|                        0b 48 86 84            |        .H..    |        occur: "1976-01-01T00:00:04Z" (189302404) 0x3a8-0x3ac (4)
0x3a0|                                    00 00 00 05|            ....|        corr: 5 0x3ac-0x3b0 (4)
     |                                               |                |      [5]{}: leap_second_record 0x3b0-0x3b8 (8)
0x3b0|0d 2b 0b 85                                    |.+..            |        occur: "1977-01-01T00:00:05Z" (220924805) 0x3b0-0x3b4 (4)
0x3b0|            00 00 00 06                        |    ....        |        corr: 6 0x3b4-0x3b8 (4)
     |                                               |                |      [6]{}: leap_second_record 0x3b8-0x3c0 (8)
0x3b0|                        0f 0c 3f 06            |        ..?.    |        occur: "1978-01-01T00:00:06Z" (252460806) 0x3b8-0x3bc (4)
0x3b0|                                    00 00 00 07|            ....|        corr: 7 0x3bc-0x3c0 (4)
     |                                               |                |      [7]{}: leap_second_record 0x3c0-0x3c8 (8)
0x3c0|10 ed 72 87                                    |..r.            |        occur: "1979-01-01T00:00:07Z" (283996807) 0x3c0-0x3c4 (4)
0x3c0|            00 00 00 08                        |    ....        |        corr: 8 0x3c4-0x3c8 (4)
     |                                               |                |      [8]{}: leap_second_record 0x3c8-0x3d0 (8)
0x3c0|                        12 ce a6 08            |        ....    |        occur: "1980-01-01T00:00:08Z" (315532808) 0x3c8-0x3cc (4)
0x3c0|                                    00 00 00 09|            ....|        corr: 9 0x3cc-0x3d0 (4)
     |                                               |                |      [9]{}: leap_second_record 0x3d0-0x3d8 (8)
0x3d0|15 9f ca 89                                    |....            |        occur: "1981-07-01T00:00:09Z" (362793609) 0x3d0-0x3d4 (4)
0x3d0|            00 00 00 0a                        |    ....        |        corr: 10 0x3d4-0x3d8 (4)
     |                                               |                |      [10]{}: leap_second_record 0x3d8-0x3e0 (8)
0x3d0|                        17 80 fe 0a            |        ....    |        occur: "1982-07-01T00:00:10Z" (394329610) 0x3d8-0x3dc (4)
0x3d0|                                    00 00 00 0b|            ....|        corr: 11 0x3dc-0x3e0 (4)
     |                                               |                |      [11]{}: leap_second_record 0x3e0-0x3e8 (8)
0x3e0|19 62 31 8b                                    |.b1.            |        occur: "1983-07-01T00:00:11Z" (425865611) 0x3e0-0x3e4 (4)
0x3e0|            00 00 00 0c                        |    ....        |        corr: 12 0x3e4-0x3e8 (4)
     |                                               |                |      [12]{}: leap_second_record 0x3e8-0x3f0 (8)
0x3e0|                        1d 25 ea 0c            |        .%..    |        occur: "1985-07-01T00:00:12Z" (489024012) 0x3e8-0x3ec (4)
0x3e0|                                    00 00 00 0d|            ....|        corr: 13 0x3ec-0x3f0 (4)
     |                                               |                |      [13]{}: leap_second_record 0x3f0-0x3f8 (8)
0x3f0|21 da e5 0d                                    |!...            |        occur: "1988-01-01T00:00:13Z" (567993613) 0x3f0-0x3f4 (4)
0x3f0|            00 00 00 0e                        |    ....        |        corr: 14 0x3f4-0x3f8 (4)
     |                                               |                |      [14]{}: leap_second_record 0x3f8-0x400 (8)
0x3f0|                        25 9e 9d 8e            |        %...    |        occur: "1990-01-01T00:00:14Z" (631152014) 0x3f8-0x3fc (4)
0x3f0|                                    00 00 00 0f|            ....|        corr: 15 0x3fc-0x400 (4)
     |                                               |                |      [15]{}: leap_second_record 0x400-0x408 (8)
0x400|27 7f d1 0f                                    |'...            |        occur: "1991-01-01T00:00:15Z" (662688015) 0x400-0x404 (4)
0x400|            00 00 00 10                        |    ....        |        corr: 16 0x404-0x408 (4)
     |                                               |                |      [16]{}: leap_second_record 0x408-0x410 (8)
0x400|                        2a 50 f5 90            |        *P..    |        occur: "1992-07-01T00:00:16Z" (709948816) 0x408-0x40c (4)
0x400|                                    00 00 00 11|            ....|        corr: 17 0x40c-0x410 (4)
     |                                               |                |      [17]{}: leap_second_record 0x410-0x418 (8)
0x410|2c 32 29 11                                    |,2).            |        occur: "1993-07-01T00:00:17Z" (741484817) 0x410-0x414 (4)
0x410|            00 00 00 12                        |    ....        |        corr: 18 0x414-0x418 (4)
     |                                               |                |      [18]{}: leap_second_record 0x418-0x420 (8)
0x410|                        2e 13 5c 92            |        ..\.    |        occur: "1994-07-01T00:00:18Z" (773020818) 0x418-0x41c (4)
0x410|                                    00 00 00 13|            ....|        corr: 19 0x41c-0x420 (4)
     |                                               |                |      [19]{}: leap_second_record 0x420-0x428 (8)
0x420|30 e7 24 13                                    |0.$.            |        occur: "1996-01-01T00:00:19Z" (820454419) 0x420-0x424 (4)
0x420|            00 00 00 14                        |    ....        |        corr: 20 0x424-0x428 (4)
     |                                               |                |      [20]{}: leap_second_record 0x428-0x430 (8)
0x420|                        33 b8 48 94            |        3.H.    |        occur: "1997-07-01T00:00:20Z" (867715220) 0x428-0x42c (4)
0x420|                                    00 00 00 15|            ....|        corr: 21 0x42c-0x430 (4)
     |                                               |                |      [21]{}: leap_second_record 0x430-0x438 (8)
0x430|36 8c 10 15                                    |6...            |        occur: "1999-01-01T00:00:21Z" (915148821) 0x430-0x434 (4)
0x430|            00 00 00 16                        |    ....        |        corr: 22 0x434-0x438 (4)
     |                                               |                |      [22]{}: leap_second_record 0x438-0x440 (8)
0x430|                        43 b7 1b 96            |        C...    |        occur: "2006-01-01T00:00:22Z" (1136073622) 0x438-0x43c (4)
0x430|                                    00 00 00 17|            ....|        corr: 23 0x43c-0x440 (4)
     |                                               |                |      [23]{}: leap_second_record 0x440-0x448 (8)
0x440|49 5c 07 97                                    |I\..            |        occur: "2009-01-01T00:00:23Z" (1230768023) 0x440-0x444 (4)
0x440|            00 00 00 18                        |    ....        |        corr: 24 0x444-0x448 (4)
     |                                               |                |      [24]{}: leap_second_record 0x448-0x450 (8)
0x440|                        4f ef 93 18            |        O...    |        occur: "2012-07-01T00:00:24Z" (1341100824) 0x448-0x44c (4)
0x440|                                    00 00 00 19|            ....|        corr: 25 0x44c-0x450 (4)
     |                                               |                |      [25]{}: leap_second_record 0x450-0x458 (8)
0x450|55 93 2d 99                                    |U.-.            |        occur: "2015-07-01T00:00:25Z" (1435708825) 0x450-0x454 (4)
0x450|            00 00 00 1a                        |    ....        |        corr: 26 0x454-0x458 (4)
     |                                               |                |      [26]{}: leap_second_record 0x458-0x460 (8)
0x450|                        58 68 46 9a            |        XhF.    |        occur: "2017-01-01T00:00:26Z" (1483228826) 0x458-0x45c (4)
0x450|                                    00 00 00 1b|            ....|        corr: 27 0x45c-0x460 (4)
     |                                               |                |    standard_wall_indicators[0:5]: 0x460-0x465 (5)
0x460|00                                             |.               |      [0]: 0 standard_wall_indicator (valid) 0x460-0x461 (1)
0x460|   00                                          | .              |      [1]: 0 standard_wall_indicator (valid) 0x461-0x462 (1)
0x460|      00                                       |  .             |      [2]: 0 standard_wall_indicator (valid) 0x462-0x463 (1)
0x460|         00                                    |   .            |      [3]: 0 standard_wall_indicator (valid) 0x463-0x464 (1)
0x460|            01                                 |    .           |      [4]: 1 standard_wall_indicator (valid) 0x464-0x465 (1)
     |                                               |                |    ut_local_indicators[0:5]: 0x465-0x46a (5)
0x460|               00                              |     .          |      [0]: 0 ut_local_indicator (valid) 0x465-0x466 (1)
0x460|                  00                           |      .         |      [1]: 0 ut_local_indicator (valid) 0x466-0x467 (1)
0x460|                     00                        |       .        |      [2]: 0 ut_local_indicator (valid) 0x467-0x468 (1)
0x460|                        00                     |        .       |      [3]: 0 ut_local_indicator (valid) 0x468-0x469 (1)
0x460|                           01                  |         .      |      [4]: 1 ut_local_indicator (valid) 0x469-0x46a (1)
     |                                               |                |  v2plusheader{}: 0x46a-0x496 (44)
0x460|                              54 5a 69 66      |          TZif  |    magic: 0x545a6966 (valid) 0x46a-0x46e (4)
0x460|                                          32   |              2 |    ver: "2" (0x32) (valid) 0x46e-0x46f (1)
0x460|                                             00|               .|    reserved: raw bits 0x46f-0x47e (15)
0x470|00 00 00 00 00 00 00 00 00 00 00 00 00 00      |..............  |
0x470|                                          00 00|              ..|    isutcnt: 5 0x47e-0x482 (4)
0x480|00 05                                          |..              |
0x480|      00 00 00 05                              |  ....          |    isstdcnt: 5 0x482-0x486 (4)
0x480|                  00 00 00 1b                  |      ....      |    leapcnt: 27 0x486-0x48a (4)
0x480|                              00 00 00 a2      |          ....  |    timecnt: 162 0x48a-0x48e (4)
0x480|                                          00 00|              ..|    typecnt: 5 0x48e-0x492 (4)
0x490|00 05                                          |..              |
0x490|      00 00 00 14                              |  ....          |    charcnt: 20 0x492-0x496 (4)
     |                                               |                |  v2plusdatablock{}: 0x496-0xbc8 (1842)
     |                                               |                |    transition_times[0:162]: 0x496-0x9a6 (1296)
0x490|                  ff ff ff ff 5e 3d 76 ec      |      ....^=v.  |      [0]: "1884-01-01T08:12:28Z" (-2713880852) transition_time 0x496-0x49e (8)
0x490|                                          ff ff|              ..|      [1]: "1918-04-14T10:00:00Z" (-1632060000) transition_time 0x49e-0x4a6 (8)
0x4a0|ff ff 9e b8 bd a0                              |......          |
0x4a0|                  ff ff ff ff 9f bb 15 90      |      ........  |      [2]: "1918-10-27T09:00:00Z" (-1615129200) transition_time 0x4a6-0x4ae (8)
0x4a0|                                          ff ff|              ..|      [3]: "1942-02-09T10:00:00Z" (-880207200) transition_time 0x4ae-0x4b6 (8)
0x4b0|ff ff cb 89 1a a0                              |......          |
0x4b0|                  ff ff ff ff d2 23 f4 70      |      .....#.p  |      [4]: "1945-08-14T23:00:00Z" (-769395600) transition_time 0x4b6-0x4be (8)
0x4b0|                                          ff ff|              ..|      [5]: "1945-09-30T09:00:00Z" (-765385200) transition_time 0x4be-0x4c6 (8)
0x4c0|ff ff d2 61 26 10                              |...a&.          |
0x4c0|                  ff ff ff ff d3 76 0f 20      |      .....v.   |      [6]: "1946-04-28T10:00:00Z" (-747237600) transition_time 0x4c6-0x4ce (8)
0x4c0|                                          ff ff|              ..|      [7]: "1946-09-29T09:00:00Z" (-733935600) transition_time 0x4ce-0x4d6 (8)
0x4d0|ff ff d4 41 08 10                              |...A..          |
0x4d0|                  ff ff ff ff d5 55 f1 20      |      .....U.   |      [8]: "1947-04-27T10:00:00Z" (-715788000) transition_time 0x4d6-0x4de (8)
0x4d0|                                          ff ff|              ..|      [9]: "1947-09-28T09:00:00Z" (-702486000) transition_time 0x4de-0x4e6 (8)
0x4e0|ff ff d6 20 ea 10                              |... ..          |
0x4e0|                  ff ff ff ff d7 35 d3 20      |      .....5.   |      [10]: "1948-04-25T10:00:00Z" (-684338400) transition_time 0x4e6-0x4ee (8)
0x4e0|                                          ff ff|              ..|      [11]: "1948-09-26T09:00:00Z" (-671036400) transition_time 0x4ee-0x4f6 (8)
0x4f0|ff ff d8 00 cc 10                              |......          |
0x4f0|                  ff ff ff ff d9 15 b5 20      |      .......   |      [12]: "1949-04-24T10:00:00Z" (-652888800) transition_time 0x4f6-0x4fe (8)
0x4f0|                                          ff ff|              ..|      [13]: "1949-09-25T09:00:00Z" (-639586800) transition_time 0x4fe-0x506 (8)
0x500|ff ff d9 e0 ae 10                              |......          |
0x500|                  ff ff ff ff da fe d1 a0      |      ........  |      [14]: "1950-04-30T10:00:00Z" (-620834400) transition_time 0x506-0x50e (8)
0x500|                                          ff ff|              ..|      [15]: "1950-09-24T09:00:00Z" (-608137200) transition_time 0x50e-0x516 (8)
0x510|ff ff db c0 90 10                              |......          |
0x510|                  ff ff ff ff dc de b3 a0      |      ........  |      [16]: "1951-04-29T10:00:00Z" (-589384800) transition_time 0x516-0x51e (8)
0x510|                                          ff ff|              ..|      [17]: "1951-09-30T09:00:00Z" (-576082800) transition_time 0x51e-0x526 (8)
0x520|ff ff dd a9 ac 90                              |......          |
0x520|                  ff ff ff ff de be 95 a0      |      ........  |      [18]: "1952-04-27T10:00:00Z" (-557935200) transition_time 0x526-0x52e (8)
0x520|                                          ff ff|              ..|      [19]: "1952-09-28T09:00:00Z" (-544633200) transition_time 0x52e-0x536 (8)
0x530|ff ff df 89 8e 90                              |......          |
0x530|                  ff ff ff ff e0 9e 77 a0      |      ......w.  |      [20]: "1953-04-26T10:00:00Z" (-526485600) transition_time 0x536-0x53e (8)
0x530|                                          ff ff|              ..|      [21]: "1953-09-27T09:00:00Z" (-513183600) transition_time 0x53e-0x546 (8)
0x540|ff ff e1 69 70 90                              |...ip.          |
0x540|                  ff ff ff ff e2 7e 59 a0      |      .....~Y.  |      [22]: "1954-04-25T10:00:00Z" (-495036000) transition_time 0x546-0x54e (8)
0x540|                                          ff ff|              ..|      [23]: "1954-09-26T09:00:00Z" (-481734000) transition_time 0x54e-0x556 (8)
0x550|ff ff e3 49 52 90                              |...IR.          |
0x550|                  ff ff ff ff e4 5e 3b a0      |      .....^;.  |      [24]: "1955-04-24T10:00:00Z" (-463586400) transition_time 0x556-0x55e (8)
0x550|                                          ff ff|              ..|      [25]: "1955-09-25T09:00:00Z" (-450284400) transition_time 0x55e-0x566 (8)
0x560|ff ff e5 29 34 90                              |...)4.          |
0x560|                  ff ff ff ff e6 47 58 20      |      .....GX   |      [26]: "1956-04-29T10:00:00Z" (-431532000) transition_time 0x566-0x56e (8)
0x560|                                          ff ff|              ..|      [27]: "1956-09-30T09:00:00Z" (-418230000) transition_time 0x56e-0x576 (8)
0x570|ff ff e7 12 51 10                              |....Q.          |
0x570|                  ff ff ff ff e8 27 3a 20      |      .....':   |      [28]: "1957-04-28T10:00:00Z" (-400082400) transition_time 0x576-0x57e (8)
0x570|                                          ff ff|              ..|      [29]: "1957-09-29T09:00:00Z" (-386780400) transition_time 0x57e-0x586 (8)
0x580|ff ff e8 f2 33 10                              |....3.          |
0x580|                  ff ff ff ff ea 07 1c 20      |      .......   |      [30]: "1958-04-27T10:00:00Z" (-368632800) transition_time 0x586-0x58e (8)
0x580|                                          ff ff|              ..|      [31]: "1958-09-28T09:00:00Z" (-355330800) transition_time 0x58e-0x596 (8)
0x590|ff ff ea d2 15 10                              |......          |
0x590|                  ff ff ff ff eb e6 fe 20      |      .......   |      [32]: "1959-04-26T10:00:00Z" (-337183200) transition_time 0x596-0x59e (8)
0x590|                                          ff ff|              ..|      [33]: "1959-09-27T09:00:00Z" (-323881200) transition_time 0x59e-0x5a6 (8)
0x5a0|ff ff ec b1 f7 10                              |......          |
0x5a0|                  ff ff ff ff ed c6 e0 20      |      .......   |      [34]: "1960-04-24T10:00:00Z" (-305733600) transition_time 0x5a6-0x5ae (8)
0x5a0|                                          ff ff|              ..|      [35]: "1960-09-25T09:00:00Z" (-292431600) transition_time 0x5ae-0x5b6 (8)
0x5b0|ff ff ee 91 d9 10                              |......          |
0x5b0|                  ff ff ff ff ef af fc a0      |      ........  |      [36]: "1961-04-30T10:00:00Z" (-273679200) transition_time 0x5b6-0x5be (8)
0x5b0|                                          ff ff|              ..|      [37]: "1961-09-24T09:00:00Z" (-260982000) transition_time 0x5be-0x5c6 (8)
0x5c0|ff ff f0 71 bb 10                              |...q..          |
0x5c0|                  ff ff ff ff f1 8f de a0      |      ........  |      [38]: "1962-04-29T10:00:00Z" (-242229600) transition_time 0x5c6-0x5ce (8)
0x5c0|                                          ff ff|              ..|      [39]: "1962-10-28T09:00:00Z" (-226508400) transition_time 0x5ce-0x5d6 (8)
0x5d0|ff ff f2 7f c1 90                              |......          |
0x5d0|                  ff ff ff ff f3 6f c0 a0      |      .....o..  |      [40]: "1963-04-28T10:00:00Z" (-210780000) transition_time 0x5d6-0x5de (8)
0x5d0|                                          ff ff|              ..|      [41]: "1963-10-27T09:00:00Z" (-195058800) transition_time 0x5de-0x5e6 (8)
0x5e0|ff ff f4 5f a3 90                              |..._..          |
0x5e0|                  ff ff ff ff f5 4f a2 a0      |      .....O..  |      [42]: "1964-04-26T10:00:00Z" (-179330400) transition_time 0x5e6-0x5ee (8)
0x5e0|                                          ff ff|              ..|      [43]: "1964-10-25T09:00:00Z" (-163609200) transition_time 0x5ee-0x5f6 (8)
0x5f0|ff ff f6 3f 85 90                              |...?..          |
0x5f0|                  ff ff ff ff f7 2f 84 a0      |      ...../..  |      [44]: "1965-04-25T10:00:00Z" (-147880800) transition_time 0x5f6-0x5fe (8)
0x5f0|                                          ff ff|              ..|      [45]: "1965-10-31T09:00:00Z" (-131554800) transition_time 0x5fe-0x606 (8)
0x600|ff ff f8 28 a2 10                              |...(..          |
0x600|                  ff ff ff ff f9 0f 66 a0      |      ......f.  |      [46]: "1966-04-24T10:00:00Z" (-116431200) transition_time 0x606-0x60e (8)
0x600|                                          ff ff|              ..|      [47]: "1966-10-30T09:00:00Z" (-100105200) transition_time 0x60e-0x616 (8)
0x610|ff ff fa 08 84 10                              |......          |
0x610|                  ff ff ff ff fa f8 83 20      |      .......   |      [48]: "1967-04-30T10:00:00Z" (-84376800) transition_time 0x616-0x61e (8)
0x610|                                          ff ff|              ..|      [49]: "1967-10-29T09:00:00Z" (-68655600) transition_time 0x61e-0x626 (8)
0x620|ff ff fb e8 66 10                              |....f.          |
0x620|                  ff ff ff ff fc d8 65 20      |      ......e   |      [50]: "1968-04-28T10:00:00Z" (-52927200) transition_time 0x626-0x62e (8)
0x620|                                          ff ff|              ..|      [51]: "1968-10-27T09:00:00Z" (-37206000) transition_time 0x62e-0x636 (8)
0x630|ff ff fd c8 48 10                              |....H.          |
0x630|                  ff ff ff ff fe b8 47 20      |      ......G   |      [52]: "1969-04-27T10:00:00Z" (-21477600) transition_time 0x636-0x63e (8)
0x630|                                          ff ff|              ..|      [53]: "1969-10-26T09:00:00Z" (-5756400) transition_time 0x63e-0x646 (8)
0x640|ff ff ff a8 2a 10                              |....*.          |
0x640|                  00 00 00 00 00 98 29 20      |      ......)   |      [54]: "1970-04-26T10:00:00Z" (9972000) transition_time 0x646-0x64e (8)
0x640|                                          00 00|              ..|      [55]: "1970-10-25T09:00:00Z" (25693200) transition_time 0x64e-0x656 (8)
0x650|00 00 01 88 0c 10                              |......          |
0x650|                  00 00 00 00 02 78 0b 20      |      .....x.   |      [56]: "1971-04-25T10:00:00Z" (41421600) transition_time 0x656-0x65e (8)
0x650|                                          00 00|              ..|      [57]: "1971-10-31T09:00:00Z" (57747600) transition_time 0x65e-0x666 (8)
0x660|00 00 03 71 28 90                              |...q(.          |
0x660|                  00 00 00 00 04 61 27 a0      |      .....a'.  |      [58]: "1972-04-30T10:00:00Z" (73476000) transition_time 0x666-0x66e (8)
0x660|                                          00 00|              ..|      [59]: "1972-10-29T09:00:01Z" (89197201) transition_time 0x66e-0x676 (8)
0x670|00 00 05 51 0a 91                              |...Q..          |
0x670|                  00 00 00 00 06 41 09 a2      |      .....A..  |      [60]: "1973-04-29T10:00:02Z" (104925602) transition_time 0x676-0x67e (8)
0x670|                                          00 00|              ..|      [61]: "1973-10-28T09:00:02Z" (120646802) transition_time 0x67e-0x686 (8)
0x680|00 00 07 30 ec 92                              |...0..          |
0x680|                  00 00 00 00 08 20 eb a3      |      ..... ..  |      [62]: "1974-04-28T10:00:03Z" (136375203) transition_time 0x686-0x68e (8)
0x680|                                          00 00|              ..|      [63]: "1974-10-27T09:00:03Z" (152096403) transition_time 0x68e-0x696 (8)
0x690|00 00 09 10 ce 93                              |......          |
0x690|                  00 00 00 00 0a 00 cd a4      |      ........  |      [64]: "1975-04-27T10:00:04Z" (167824804) transition_time 0x696-0x69e (8)
0x690|                                          00 00|              ..|      [65]: "1975-10-26T09:00:04Z" (183546004) transition_time 0x69e-0x6a6 (8)
0x6a0|00 00 0a f0 b0 94                              |......          |
0x6a0|                  00 00 00 00 0b e0 af a5      |      ........  |      [66]: "1976-04-25T10:00:05Z" (199274405) transition_time 0x6a6-0x6ae (8)
0x6a0|                                          00 00|              ..|      [67]: "1976-10-31T09:00:05Z" (215600405) transition_time 0x6ae-0x6b6 (8)
0x6b0|00 00 0c d9 cd 15                              |......          |
0x6b0|                  00 00 00 00 0d c0 91 a6      |      ........  |      [68]: "1977-04-24T10:00:06Z" (230724006) transition_time 0x6b6-0x6be (8)
0x6b0|                                          00 00|              ..|      [69]: "1977-10-30T09:00:06Z" (247050006) transition_time 0x6be-0x6c6 (8)
0x6c0|00 00 0e b9 af 16                              |......          |
0x6c0|                  00 00 00 00 0f a9 ae 27      |      .......'  |      [70]: "1978-04-30T10:00:07Z" (262778407) transition_time 0x6c6-0x6ce (8)
0x6c0|                                          00 00|              ..|      [71]: "1978-10-29T09:00:07Z" (278499607) transition_time 0x6ce-0x6d6 (8)
0x6d0|00 00 10 99 91 17                              |......          |
0x6d0|                  00 00 00 00 11 89 90 28      |      .......(  |      [72]: "1979-04-29T10:00:08Z" (294228008) transition_time 0x6d6-0x6de (8)
0x6d0|                                          00 00|              ..|      [73]: "1979-10-28T09:00:08Z" (309949208) transition_time 0x6de-0x6e6 (8)
0x6e0|00 00 12 79 73 18                              |...ys.          |
0x6e0|                  00 00 00 00 13 69 72 29      |      .....ir)  |      [74]: "1980-04-27T10:00:09Z" (325677609) transition_time 0x6e6-0x6ee (8)
0x6e0|                                          00 00|              ..|      [75]: "1980-10-26T09:00:09Z" (341398809) transition_time 0x6ee-0x6f6 (8)
0x6f0|00 00 14 59 55 19                              |...YU.          |
0x6f0|                  00 00 00 00 15 49 54 29      |      .....IT)  |      [76]: "1981-04-26T10:00:09Z" (357127209) transition_time 0x6f6-0x6fe (8)
0x6f0|                                          00 00|              ..|      [77]: "1981-10-25T09:00:10Z" (372848410) transition_time 0x6fe-0x706 (8)
0x700|00 00 16 39 37 1a                              |...97.          |
0x700|                  00 00 00 00 17 29 36 2a      |      .....)6*  |      [78]: "1982-04-25T10:00:10Z" (388576810) transition_time 0x706-0x70e (8)
0x700|                                          00 00|              ..|      [79]: "1982-10-31T09:00:11Z" (404902811) transition_time 0x70e-0x716 (8)
0x710|00 00 18 22 53 9b                              |..."S.          |
0x710|                  00 00 00 00 19 09 18 2b      |      .......+  |      [80]: "1983-04-24T10:00:11Z" (420026411) transition_time 0x716-0x71e (8)
0x710|                                          00 00|              ..|      [81]: "1983-10-30T09:00:12Z" (436352412) transition_time 0x71e-0x726 (8)
0x720|00 00 1a 02 35 9c                              |....5.          |
0x720|                  00 00 00 00 1a f2 34 ac      |      ......4.  |      [82]: "1984-04-29T10:00:12Z" (452080812) transition_time 0x726-0x72e (8)
0x720|                                          00 00|              ..|      [83]: "1984-10-28T09:00:12Z" (467802012) transition_time 0x72e-0x736 (8)
0x730|00 00 1b e2 17 9c                              |......          |
0x730|                  00 00 00 00 1c d2 16 ac      |      ........  |      [84]: "1985-04-28T10:00:12Z" (483530412) transition_time 0x736-0x73e (8)
0x730|                                          00 00|              ..|      [85]: "1985-10-27T09:00:13Z" (499251613) transition_time 0x73e-0x746 (8)
0x740|00 00 1d c1 f9 9d                              |......          |
0x740|                  00 00 00 00 1e b1 f8 ad      |      ........  |      [86]: "1986-04-27T10:00:13Z" (514980013) transition_time 0x746-0x74e (8)
0x740|                                          00 00|              ..|      [87]: "1986-10-26T09:00:13Z" (530701213) transition_time 0x74e-0x756 (8)
0x750|00 00 1f a1 db 9d                              |......          |
0x750|                  00 00 00 00 20 76 2b 2d      |      .... v+-  |      [88]: "1987-04-05T10:00:13Z" (544615213) transition_time 0x756-0x75e (8)
0x750|                                          00 00|              ..|      [89]: "1987-10-25T09:00:13Z" (562150813) transition_time 0x75e-0x766 (8)
0x760|00 00 21 81 bd 9d                              |..!...          |
0x760|                  00 00 00 00 22 56 0d 2e      |      ...."V..  |      [90]: "1988-04-03T10:00:14Z" (576064814) transition_time 0x766-0x76e (8)
0x760|                                          00 00|              ..|      [91]: "1988-10-30T09:00:14Z" (594205214) transition_time 0x76e-0x776 (8)
0x770|00 00 23 6a da 1e                              |..#j..          |
0x770|                  00 00 00 00 24 35 ef 2e      |      ....$5..  |      [92]: "1989-04-02T10:00:14Z" (607514414) transition_time 0x776-0x77e (8)
0x770|                                          00 00|              ..|      [93]: "1989-10-29T09:00:14Z" (625654814) transition_time 0x77e-0x786 (8)
0x780|00 00 25 4a bc 1e                              |..%J..          |
0x780|                  00 00 00 00 26 15 d1 2f      |      ....&../  |      [94]: "1990-04-01T10:00:15Z" (638964015) transition_time 0x786-0x78e (8)
0x780|                                          00 00|              ..|      [95]: "1990-10-28T09:00:15Z" (657104415) transition_time 0x78e-0x796 (8)
0x790|00 00 27 2a 9e 1f                              |..'*..          |
0x790|                  00 00 00 00 27 fe ed b0      |      ....'...  |      [96]: "1991-04-07T10:00:16Z" (671018416) transition_time 0x796-0x79e (8)
0x790|                                          00 00|              ..|      [97]: "1991-10-27T09:00:16Z" (688554016) transition_time 0x79e-0x7a6 (8)
0x7a0|00 00 29 0a 80 20                              |..)..           |
0x7a0|                  00 00 00 00 29 de cf b0      |      ....)...  |      [98]: "1992-04-05T10:00:16Z" (702468016) transition_time 0x7a6-0x7ae (8)
0x7a0|                                          00 00|              ..|      [99]: "1992-10-25T09:00:17Z" (720003617) transition_time 0x7ae-0x7b6 (8)
0x7b0|00 00 2a ea 62 21                              |..*.b!          |
0x7b0|                  00 00 00 00 2b be b1 b1      |      ....+...  |      [100]: "1993-04-04T10:00:17Z" (733917617) transition_time 0x7b6-0x7be (8)
0x7b0|                                          00 00|              ..|      [101]: "1993-10-31T09:00:18Z" (752058018) transition_time 0x7be-0x7c6 (8)
0x7c0|00 00 2c d3 7e a2                              |..,.~.          |
0x7c0|                  00 00 00 00 2d 9e 93 b2      |      ....-...  |      [102]: "1994-04-03T10:00:18Z" (765367218) transition_time 0x7c6-0x7ce (8)
0x7c0|                                          00 00|              ..|      [103]: "1994-10-30T09:00:19Z" (783507619) transition_time 0x7ce-0x7d6 (8)
0x7d0|00 00 2e b3 60 a3                              |....`.          |
0x7d0|                  00 00 00 00 2f 7e 75 b3      |      ..../~u.  |      [104]: "1995-04-02T10:00:19Z" (796816819) transition_time 0x7d6-0x7de (8)
0x7d0|                                          00 00|              ..|      [105]: "1995-10-29T09:00:19Z" (814957219) transition_time 0x7de-0x7e6 (8)
0x7e0|00 00 30 93 42 a3                              |..0.B.          |
0x7e0|                  00 00 00 00 31 67 92 34      |      ....1g.4  |      [106]: "1996-04-07T10:00:20Z" (828871220) transition_time 0x7e6-0x7ee (8)
0x7e0|                                          00 00|              ..|      [107]: "1996-10-27T09:00:20Z" (846406820) transition_time 0x7ee-0x7f6 (8)
0x7f0|00 00 32 73 24 a4                              |..2s$.          |
0x7f0|                  00 00 00 00 33 47 74 34      |      ....3Gt4  |      [108]: "1997-04-06T10:00:20Z" (860320820) transition_time 0x7f6-0x7fe (8)
0x7f0|                                          00 00|              ..|      [109]: "1997-10-26T09:00:21Z" (877856421) transition_time 0x7fe-0x806 (8)
0x800|00 00 34 53 06 a5                              |..4S..          |
0x800|                  00 00 00 00 35 27 56 35      |      ....5'V5  |      [110]: "1998-04-05T10:00:21Z" (891770421) transition_time 0x806-0x80e (8)
0x800|                                          00 00|              ..|      [111]: "1998-10-25T09:00:21Z" (909306021) transition_time 0x80e-0x816 (8)
0x810|00 00 36 32 e8 a5                              |..62..          |
0x810|                  00 00 00 00 37 07 38 36      |      ....7.86  |      [112]: "1999-04-04T10:00:22Z" (923220022) transition_time 0x816-0x81e (8)
0x810|                                          00 00|              ..|      [113]: "1999-10-31T09:00:22Z" (941360422) transition_time 0x81e-0x826 (8)
0x820|00 00 38 1c 05 26                              |..8..&          |
0x820|                  00 00 00 00 38 e7 1a 36      |      ....8..6  |      [114]: "2000-04-02T10:00:22Z" (954669622) transition_time 0x826-0x82e (8)
0x820|                                          00 00|              ..|      [115]: "2000-10-29T09:00:22Z" (972810022) transition_time 0x82e-0x836 (8)
0x830|00 00 39 fb e7 26                              |..9..&          |
0x830|                  00 00 00 00 3a c6 fc 36      |      ....:..6  |      [116]: "2001-04-01T10:00:22Z" (986119222) transition_time 0x836-0x83e (8)
0x830|                                          00 00|              ..|      [117]: "2001-10-28T09:00:22Z" (1004259622) transition_time 0x83e-0x846 (8)
0x840|00 00 3b db c9 26                              |..;..&          |
0x840|                  00 00 00 00 3c b0 18 b6      |      ....<...  |      [118]: "2002-04-07T10:00:22Z" (1018173622) transition_time 0x846-0x84e (8)
0x840|                                          00 00|              ..|      [119]: "2002-10-27T09:00:22Z" (1035709222) transition_time 0x84e-0x856 (8)
0x850|00 00 3d bb ab 26                              |..=..&          |
0x850|                  00 00 00 00 3e 8f fa b6      |      ....>...  |      [120]: "2003-04-06T10:00:22Z" (1049623222) transition_time 0x856-0x85e (8)
0x850|                                          00 00|              ..|      [121]: "2003-10-26T09:00:22Z" (1067158822) transition_time 0x85e-0x866 (8)
0x860|00 00 3f 9b 8d 26                              |..?..&          |
0x860|                  00 00 00 00 40 6f dc b6      |      ....@o..  |      [122]: "2004-04-04T10:00:22Z" (1081072822) transition_time 0x866-0x86e (8)
0x860|                                          00 00|              ..|      [123]: "2004-10-31T09:00:22Z" (1099213222) transition_time 0x86e-0x876 (8)
0x870|00 00 41 84 a9 a6                              |..A...          |
0x870|                  00 00 00 00 42 4f be b6      |      ....BO..  |      [124]: "2005-04-03T10:00:22Z" (1112522422) transition_time 0x876-0x87e (8)
0x870|                                          00 00|              ..|      [125]: "2005-10-30T09:00:22Z" (1130662822) transition_time 0x87e-0x886 (8)
0x880|00 00 43 64 8b a6                              |..Cd..          |
0x880|                  00 00 00 00 44 2f a0 b7      |      ....D/..  |      [126]: "2006-04-02T10:00:23Z" (1143972023) transition_time 0x886-0x88e (8)
0x880|                                          00 00|              ..|      [127]: "2006-10-29T09:00:23Z" (1162112423) transition_time 0x88e-0x896 (8)
0x890|00 00 45 44 6d a7                              |..EDm.          |
0x890|                  00 00 00 00 45 f3 d3 37      |      ....E..7  |      [128]: "2007-03-11T10:00:23Z" (1173607223) transition_time 0x896-0x89e (8)
0x890|                                          00 00|              ..|      [129]: "2007-11-04T09:00:23Z" (1194166823) transition_time 0x89e-0x8a6 (8)
0x8a0|00 00 47 2d 8a 27                              |..G-.'          |
0x8a0|                  00 00 00 00 47 d3 b5 37      |      ....G..7  |      [130]: "2008-03-09T10:00:23Z" (1205056823) transition_time 0x8a6-0x8ae (8)
0x8a0|                                          00 00|              ..|      [131]: "2008-11-02T09:00:23Z" (1225616423) transition_time 0x8ae-0x8b6 (8)
0x8b0|00 00 49 0d 6c 27                              |..I.l'          |
0x8b0|                  00 00 00 00 49 b3 97 38      |      ....I..8  |      [132]: "2009-03-08T10:00:24Z" (1236506424) transition_time 0x8b6-0x8be (8)
0x8b0|                                          00 00|              ..|      [133]: "2009-11-01T09:00:24Z" (1257066024) transition_time 0x8be-0x8c6 (8)
0x8c0|00 00 4a ed 4e 28                              |..J.N(          |
0x8c0|                  00 00 00 00 4b 9c b3 b8      |      ....K...  |      [134]: "2010-03-14T10:00:24Z" (1268560824) transition_time 0x8c6-0x8ce (8)
0x8c0|                                          00 00|              ..|      [135]: "2010-11-07T09:00:24Z" (1289120424) transition_time 0x8ce-0x8d6 (8)
0x8d0|00 00 4c d6 6a a8                              |..L.j.          |
0x8d0|                  00 00 00 00 4d 7c 95 b8      |      ....M|..  |      [136]: "2011-03-13T10:00:24Z" (1300010424) transition_time 0x8d6-0x8de (8)
0x8d0|                                          00 00|              ..|      [137]: "2011-11-06T09:00:24Z" (1320570024) transition_time 0x8de-0x8e6 (8)
0x8e0|00 00 4e b6 4c a8                              |..N.L.          |
0x8e0|                  00 00 00 00 4f 5c 77 b8      |      ....O\w.  |      [138]: "2012-03-11T10:00:24Z" (1331460024) transition_time 0x8e6-0x8ee (8)
0x8e0|                                          00 00|              ..|      [139]: "2012-11-04T09:00:25Z" (1352019625) transition_time 0x8ee-0x8f6 (8)
0x8f0|00 00 50 96 2e a9                              |..P...          |
0x8f0|                  00 00 00 00 51 3c 59 b9      |      ....Q<Y.  |      [140]: "2013-03-10T10:00:25Z" (1362909625) transition_time 0x8f6-0x8fe (8)
0x8f0|                                          00 00|              ..|      [141]: "2013-11-03T09:00:25Z" (1383469225) transition_time 0x8fe-0x906 (8)
0x900|00 00 52 76 10 a9                              |..Rv..          |
0x900|                  00 00 00 00 53 1c 3b b9      |      ....S.;.  |      [142]: "2014-03-09T10:00:25Z" (1394359225) transition_time 0x906-0x90e (8)
0x900|                                          00 00|              ..|      [143]: "2014-11-02T09:00:25Z" (1414918825) transition_time 0x90e-0x916 (8)
0x910|00 00 54 55 f2 a9                              |..TU..          |
0x910|                  00 00 00 00 54 fc 1d b9      |      ....T...  |      [144]: "2015-03-08T10:00:25Z" (1425808825) transition_time 0x916-0x91e (8)
0x910|                                          00 00|              ..|      [145]: "2015-11-01T09:00:26Z" (1446368426) transition_time 0x91e-0x926 (8)
0x920|00 00 56 35 d4 aa                              |..V5..          |
0x920|                  00 00 00 00 56 e5 3a 3a      |      ....V.::  |      [146]: "2016-03-13T10:00:26Z" (1457863226) transition_time 0x926-0x92e (8)
0x920|                                          00 00|              ..|      [147]: "2016-11-06T09:00:26Z" (1478422826) transition_time 0x92e-0x936 (8)
0x930|00 00 58 1e f1 2a                              |..X..*          |
0x930|                  00 00 00 00 58 c5 1c 3b      |      ....X..;  |      [148]: "2017-03-12T10:00:27Z" (1489312827) transition_time 0x936-0x93e (8)
0x930|                                          00 00|              ..|      [149]: "2017-11-05T09:00:27Z" (1509872427) transition_time 0x93e-0x946 (8)
0x940|00 00 59 fe d3 2b                              |..Y..+          |
0x940|                  00 00 00 00 5a a4 fe 3b      |      ....Z..;  |      [150]: "2018-03-11T10:00:27Z" (1520762427) transition_time 0x946-0x94e (8)
0x940|                                          00 00|              ..|      [151]: "2018-11-04T09:00:27Z" (1541322027) transition_time 0x94e-0x956 (8)
0x950|00 00 5b de b5 2b                              |..[..+          |
0x950|                  00 00 00 00 5c 84 e0 3b      |      ....\..;  |      [152]: "2019-03-10T10:00:27Z" (1552212027) transition_time 0x956-0x95e (8)
0x950|                                          00 00|              ..|      [153]: "2019-11-03T09:00:27Z" (1572771627) transition_time 0x95e-0x966 (8)
0x960|00 00 5d be 97 2b                              |..]..+          |
0x960|                  00 00 00 00 5e 64 c2 3b      |      ....^d.;  |      [154]: "2020-03-08T10:00:27Z" (1583661627) transition_time 0x966-0x96e (8)
0x960|                                          00 00|              ..|      [155]: "2020-11-01T09:00:27Z" (1604221227) transition_time 0x96e-0x976 (8)
0x970|00 00 5f 9e 79 2b                              |.._.y+          |
0x970|                  00 00 00 00 60 4d de bb      |      ....`M..  |      [156]: "2021-03-14T10:00:27Z" (1615716027) transition_time 0x976-0x97e (8)
0x970|                                          00 00|              ..|      [157]: "2021-11-07T09:00:27Z" (1636275627) transition_time 0x97e-0x986 (8)
0x980|00 00 61 87 95 ab                              |..a...          |
0x980|                  00 00 00 00 62 2d c0 bb      |      ....b-..  |      [158]: "2022-03-13T10:00:27Z" (1647165627) transition_time 0x986-0x98e (8)
0x980|                                          00 00|              ..|      [159]: "2022-11-06T09:00:27Z" (1667725227) transition_time 0x98e-0x996 (8)
0x990|00 00 63 67 77 ab                              |..cgw.          |
0x990|                  00 00 00 00 64 0d a2 bb      |      ....d...  |      [160]: "2023-03-12T10:00:27Z" (1678615227) transition_time 0x996-0x99e (8)
0x990|                                          00 00|              ..|      [161]: "2023-06-28T00:00:27Z" (1687910427) transition_time 0x99e-0x9a6 (8)
0x9a0|00 00 64 9b 78 1b                              |..d.x.          |
     |                                               |                |    transition_types[0:162]: 0x9a6-0xa48 (162)
0x9a0|                  02                           |      .         |      [0]: 2 transition_type 0x9a6-0x9a7 (1)
0x9a0|                     01                        |       .        |      [1]: 1 transition_type 0x9a7-0x9a8 (1)
0x9a0|                        02                     |        .       |      [2]: 2 transition_type 0x9a8-0x9a9 (1)
0x9a0|                           03                  |         .      |      [3]: 3 transition_type 0x9a9-0x9aa (1)
0x9a0|                              04               |          .     |      [4]: 4 transition_type 0x9aa-0x9ab (1)
0x9a0|                                 02            |           .    |      [5]: 2 transition_type 0x9ab-0x9ac (1)
0x9a0|                                    01         |            .   |      [6]: 1 transition_type 0x9ac-0x9ad (1)
0x9a0|                                       02      |             .  |      [7]: 2 transition_type 0x9ad-0x9ae (1)
0x9a0|                                          01   |              . |      [8]: 1 transition_type 0x9ae-0x9af (1)
0x9a0|                                             02|               .|      [9]: 2 transition_type 0x9af-0x9b0 (1)
0x9b0|01                                             |.               |      [10]: 1 transition_type 0x9b0-0x9b1 (1)
0x9b0|   02                                          | .              |      [11]: 2 transition_type 0x9b1-0x9b2 (1)
0x9b0|      01                                       |  .             |      [12]: 1 transition_type 0x9b2-0x9b3 (1)
0x9b0|         02                                    |   .            |      [13]: 2 transition_type 0x9b3-0x9b4 (1)
0x9b0|            01                                 |    .           |      [14]: 1 transition_type 0x9b4-0x9b5 (1)
0x9b0|               02                              |     .          |      [15]: 2 transition_type 0x9b5-0x9b6 (1)
0x9b0|                  01                           |      .         |      [16]: 1 transition_type 0x9b6-0x9b7 (1)
0x9b0|                     02                        |       .        |      [17]: 2 transition_type 0x9b7-0x9b8 (1)
0x9b0|                        01                     |        .       |      [18]: 1 transition_type 0x9b8-0x9b9 (1)
0x9b0|                           02                  |         .      |      [19]: 2 transition_type 0x9b9-0x9ba (1)
0x9b0|                              01               |          .     |      [20]: 1 transition_type 0x9ba-0x9bb (1)
0x9b0|                                 02            |           .    |      [21]: 2 transition_type 0x9bb-0x9bc (1)
0x9b0|                                    01         |            .   |      [22]: 1 transition_type 0x9bc-0x9bd (1)
0x9b0|                                       02      |             .  |      [23]: 2 transition_type 0x9bd-0x9be (1)
0x9b0|                                          01   |              . |      [24]: 1 transition_type 0x9be-0x9bf (1)
0x9b0|                                             02|               .|      [25]: 2 transition_type 0x9bf-0x9c0 (1)
0x9c0|01                                             |.               |      [26]: 1 transition_type 0x9c0-0x9c1 (1)
0x9c0|   02                                          | .              |      [27]: 2 transition_type 0x9c1-0x9c2 (1)
0x9c0|      01                                       |  .             |      [28]: 1 transition_type 0x9c2-0x9c3 (1)
0x9c0|         02                                    |   .            |      [29]: 2 transition_type 0x9c3-0x9c4 (1)
0x9c0|            01                                 |    .           |      [30]: 1 transition_type 0x9c4-0x9c5 (1)
0x9c0|               02                              |     .          |      [31]: 2 transition_type 0x9c5-0x9c6 (1)
0x9c0|                  01                           |      .         |      [32]: 1 transition_type 0x9c6-0x9c7 (1)
0x9c0|                     02                        |       .        |      [33]: 2 transition_type 0x9c7-0x9c8 (1)
0x9c0|                        01                     |        .       |      [34]: 1 transition_type 0x9c8-0x9c9 (1)
0x9c0|                           02                  |         .      |      [35]: 2 transition_type 0x9c9-0x9ca (1)
0x9c0|                              01               |          .     |      [36]: 1 transition_type 0x9ca-0x9cb (1)
0x9c0|                                 02            |           .    |      [37]: 2 transition_type 0x9cb-0x9cc (1)
0x9c0|                                    01         |            .   |      [38]: 1 transition_type 0x9cc-0x9cd (1)
0x9c0|                                       02      |             .  |      [39]: 2 transition_type 0x9cd-0x9ce (1)
0x9c0|                                          01   |              . |      [40]: 1 transition_type 0x9ce-0x9cf (1)
0x9c0|                                             02|               .|      [41]: 2 transition_type 0x9cf-0x9d0 (1)
0x9d0|01                                             |.               |      [42]: 1 transition_type 0x9d0-0x9d1 (1)
0x9d0|   02                                          | .              |      [43]: 2 transition_type 0x9d1-0x9d2 (1)
0x9d0|      01                                       |  .             |      [44]: 1 transition_type 0x9d2-0x9d3 (1)
0x9d0|         02                                    |   .            |      [45]: 2 transition_type 0x9d3-0x9d4 (1)
0x9d0|            01                                 |    .           |      [46]: 1 transition_type 0x9d4-0x9d5 (1)
0x9d0|               02                              |     .          |      [47]: 2 transition_type 0x9d5-0x9d6 (1)
0x9d0|                  01                           |      .         |      [48]: 1 transition_type 0x9d6-0x9d7 (1)
0x9d0|                     02                        |       .        |      [49]: 2 transition_type 0x9d7-0x9d8 (1)
0x9d0|                        01                     |        .       |      [50]: 1 transition_type 0x9d8-0x9d9 (1)
0x9d0|                           02                  |         .      |      [51]: 2 transition_type 0x9d9-0x9da (1)
0x9d0|                              01               |          .     |      [52]: 1 transition_type 0x9da-0x9db (1)
0x9d0|                                 02            |           .    |      [53]: 2 transition_type 0x9db-0x9dc (1)
0x9d0|                                    01         |            .   |      [54]: 1 transition_type 0x9dc-0x9dd (1)
0x9d0|                                       02      |             .  |      [55]: 2 transition_type 0x9dd-0x9de (1)
0x9d0|                                          01   |              . |      [56]: 1 transition_type 0x9de-0x9df (1)
0x9d0|                                             02|               .|      [57]: 2 transition_type 0x9df-0x9e0 (1)
0x9e0|01                                             |.               |      [58]: 1 transition_type 0x9e0-0x9e1 (1)
0x9e0|   02                                          | .              |      [59]: 2 transition_type 0x9e1-0x9e2 (1)
0x9e0|      01                                       |  .             |      [60]: 1 transition_type 0x9e2-0x9e3 (1)
0x9e0|         02                                    |   .            |      [61]: 2 transition_type 0x9e3-0x9e4 (1)
0x9e0|            01                                 |    .           |      [62]: 1 transition_type 0x9e4-0x9e5 (1)
0x9e0|               02                              |     .          |      [63]: 2 transition_type 0x9e5-0x9e6 (1)
0x9e0|                  01                           |      .         |      [64]: 1 transition_type 0x9e6-0x9e7 (1)
0x9e0|                     02                        |       .        |      [65]: 2 transition_type 0x9e7-0x9e8 (1)
0x9e0|                        01                     |        .       |      [66]: 1 transition_type 0x9e8-0x9e9 (1)
0x9e0|                           02                  |         .      |      [67]: 2 transition_type 0x9e9-0x9ea (1)
0x9e0|                              01               |          .     |      [68]: 1 transition_type 0x9ea-0x9eb (1)
0x9e0|                                 02            |           .    |      [69]: 2 transition_type 0x9eb-0x9ec (1)
0x9e0|                                    01         |            .   |      [70]: 1 transition_type 0x9ec-0x9ed (1)
0x9e0|                                       02      |             .  |      [71]: 2 transition_type 0x9ed-0x9ee (1)
0x9e0|                                          01   |              . |      [72]: 1 transition_type 0x9ee-0x9ef (1)
0x9e0|                                             02|               .|      [73]: 2 transition_type 0x9ef-0x9f0 (1)
0x9f0|01                                             |.               |      [74]: 1 transition_type 0x9f0-0x9f1 (1)
0x9f0|   02                                          | .              |      [75]: 2 transition_type 0x9f1-0x9f2 (1)
0x9f0|      01                                       |  .             |      [76]: 1 transition_type 0x9f2-0x9f3 (1)
0x9f0|         02                                    |   .            |      [77]: 2 transition_type 0x9f3-0x9f4 (1)
0x9f0|            01                                 |    .           |      [78]: 1 transition_type 0x9f4-0x9f5 (1)
0x9f0|               02                              |     .          |      [79]: 2 transition_type 0x9f5-0x9f6 (1)
0x9f0|                  01                           |      .         |      [80]: 1 transition_type 0x9f6-0x9f7 (1)
0x9f0|                     02                        |       .        |      [81]: 2 transition_type 0x9f7-0x9f8 (1)
0x9f0|                        01                     |        .       |      [82]: 1 transition_type 0x9f8-0x9f9 (1)
0x9f0|                           02                  |         .      |      [83]: 2 transition_type 0x9f9-0x9fa (1)
0x9f0|                              01               |          .     |      [84]: 1 transition_type 0x9fa-0x9fb (1)
0x9f0|                                 02            |           .    |      [85]: 2 transition_type 0x9fb-0x9fc (1)
0x9f0|                                    01         |            .   |      [86]: 1 transition_type 0x9fc-0x9fd (1)
0x9f0|                                       02      |             .  |      [87]: 2 transition_type 0x9fd-0x9fe (1)
0x9f0|                                          01   |              . |      [88]: 1 transition_type 0x9fe-0x9ff (1)
0x9f0|                                             02|               .|      [89]: 2 transition_type 0x9ff-0xa00 (1)
0xa00|01                                             |.               |      [90]: 1 transition_type 0xa00-0xa01 (1)
0xa00|   02                                          | .              |      [91]: 2 transition_type 0xa01-0xa02 (1)
0xa00|      01                                       |  .             |      [92]: 1 transition_type 0xa02-0xa03 (1)
0xa00|         02                                    |   .            |      [93]: 2 transition_type 0xa03-0xa04 (1)
0xa00|            01                                 |    .           |      [94]: 1 transition_type 0xa04-0xa05 (1)
0xa00|               02                              |     .          |      [95]: 2 transition_type 0xa05-0xa06 (1)
0xa00|                  01                           |      .         |      [96]: 1 transition_type 0xa06-0xa07 (1)
0xa00|                     02                        |       .        |      [97]: 2 transition_type 0xa07-0xa08 (1)
0xa00|                        01                     |        .       |      [98]: 1 transition_type 0xa08-0xa09 (1)
0xa00|                           02                  |         .      |      [99]: 2 transition_type 0xa09-0xa0a (1)
0xa00|                              01               |          .     |      [100]: 1 transition_type 0xa0a-0xa0b (1)
0xa00|                                 02            |           .    |      [101]: 2 transition_type 0xa0b-0xa0c (1)
0xa00|                                    01         |            .   |      [102]: 1 transition_type 0xa0c-0xa0d (1)
0xa00|                                       02      |             .  |      [103]: 2 transition_type 0xa0d-0xa0e (1)
0xa00|                                          01   |              . |      [104]: 1 transition_type 0xa0e-0xa0f (1)
0xa00|                                             02|               .|      [105]: 2 transition_type 0xa0f-0xa10 (1)
0xa10|01                                             |.               |      [106]: 1 transition_type 0xa10-0xa11 (1)
0xa10|   02                                          | .              |      [107]: 2 transition_type 0xa11-0xa12 (1)
0xa10|      01                                       |  .             |      [108]: 1 transition_type 0xa12-0xa13 (1)
0xa10|         02                                    |   .            |      [109]: 2 transition_type 0xa13-0xa14 (1)
0xa10|            01                                 |    .           |      [110]: 1 transition_type 0xa14-0xa15 (1)
0xa10|               02                              |     .          |      [111]: 2 transition_type 0xa15-0xa16 (1)
0xa10|                  01                           |      .         |      [112]: 1 transition_type 0xa16-0xa17 (1)
0xa10|                     02                        |       .        |      [113]: 2 transition_type 0xa17-0xa18 (1)
0xa10|                        01                     |        .       |      [114]: 1 transition_type 0xa18-0xa19 (1)
0xa10|                           02                  |         .      |      [115]: 2 transition_type 0xa19-0xa1a (1)
0xa10|                              01               |          .     |      [116]: 1 transition_type 0xa1a-0xa1b (1)
0xa10|                                 02            |           .    |      [117]: 2 transition_type 0xa1b-0xa1c (1)
0xa10|                                    01         |            .   |      [118]: 1 transition_type 0xa1c-0xa1d (1)
0xa10|                                       02      |             .  |      [119]: 2 transition_type 0xa1d-0xa1e (1)
0xa10|                                          01   |              . |      [120]: 1 transition_type 0xa1e-0xa1f (1)
0xa10|                                             02|               .|      [121]: 2 transition_type 0xa1f-0xa20 (1)
0xa20|01                                             |.               |      [122]: 1 transition_type 0xa20-0xa21 (1)
0xa20|   02                                          | .              |      [123]: 2 transition_type 0xa21-0xa22 (1)
0xa20|      01                                       |  .             |      [124]: 1 transition_type 0xa22-0xa23 (1)
0xa20|         02                                    |   .            |      [125]: 2 transition_type 0xa23-0xa24 (1)
0xa20|            01                                 |    .           |      [126]: 1 transition_type 0xa24-0xa25 (1)
0xa20|               02                              |     .          |      [127]: 2 transition_type 0xa25-0xa26 (1)
0xa20|                  01                           |      .         |      [128]: 1 transition_type 0xa26-0xa27 (1)
0xa20|                     02                        |       .        |      [129]: 2 transition_type 0xa27-0xa28 (1)
0xa20|                        01                     |        .       |      [130]: 1 transition_type 0xa28-0xa29 (1)
0xa20|                           02                  |         .      |      [131]: 2 transition_type 0xa29-0xa2a (1)
0xa20|                              01               |          .     |      [132]: 1 transition_type 0xa2a-0xa2b (1)
0xa20|                                 02            |           .    |      [133]: 2 transition_type 0xa2b-0xa2c (1)
0xa20|                                    01         |            .   |      [134]: 1 transition_type 0xa2c-0xa2d (1)
0xa20|                                       02      |             .  |      [135]: 2 transition_type 0xa2d-0xa2e (1)
0xa20|                                          01   |              . |      [136]: 1 transition_type 0xa2e-0xa2f (1)
0xa20|                                             02|               .|      [137]: 2 transition_type 0xa2f-0xa30 (1)
0xa30|01                                             |.               |      [138]: 1 transition_type 0xa30-0xa31 (1)
0xa30|   02                                          | .              |      [139]: 2 transition_type 0xa31-0xa32 (1)
0xa30|      01                                       |  .             |      [140]: 1 transition_type 0xa32-0xa33 (1)
0xa30|         02                                    |   .            |      [141]: 2 transition_type 0xa33-0xa34 (1)
0xa30|            01                                 |    .           |      [142]: 1 transition_type 0xa34-0xa35 (1)
0xa30|               02                              |     .          |      [143]: 2 transition_type 0xa35-0xa36 (1)
0xa30|                  01                           |      .         |      [144]: 1 transition_type 0xa36-0xa37 (1)
0xa30|                     02                        |       .        |      [145]: 2 transition_type 0xa37-0xa38 (1)
0xa30|                        01                     |        .       |      [146]: 1 transition_type 0xa38-0xa39 (1)
0xa30|                           02                  |         .      |      [147]: 2 transition_type 0xa39-0xa3a (1)
0xa30|                              01               |          .     |      [148]: 1 transition_type 0xa3a-0xa3b (1)
0xa30|                                 02            |           .    |      [149]: 2 transition_type 0xa3b-0xa3c (1)
0xa30|                                    01         |            .   |      [150]: 1 transition_type 0xa3c-0xa3d (1)
0xa30|                                       02      |             .  |      [151]: 2 transition_type 0xa3d-0xa3e (1)
0xa30|                                          01   |              . |      [152]: 1 transition_type 0xa3e-0xa3f (1)
0xa30|                                             02|               .|      [153]: 2 transition_type 0xa3f-0xa40 (1)
0xa40|01                                             |.               |      [154]: 1 transition_type 0xa40-0xa41 (1)
0xa40|   02                                          | .              |      [155]: 2 transition_type 0xa41-0xa42 (1)
0xa40|      01                                       |  .             |      [156]: 1 transition_type 0xa42-0xa43 (1)
0xa40|         02                                    |   .            |      [157]: 2 transition_type 0xa43-0xa44 (1)
0xa40|            01                                 |    .           |      [158]: 1 transition_type 0xa44-0xa45 (1)
0xa40|               02                              |     .          |      [159]: 2 transition_type 0xa45-0xa46 (1)
0xa40|                  01                           |      .         |      [160]: 1 transition_type 0xa46-0xa47 (1)
0xa40|                     01                        |       .        |      [161]: 1 transition_type 0xa47-0xa48 (1)
     |                                               |                |    local_time_type_records[0:5]: 0xa48-0xa66 (30)
     |                                               |                |      [0]{}: local_time_type 0xa48-0xa4e (6)
0xa40|                        ff ff 8c 94            |        ....    |        utoff: -29548 (valid) 0xa48-0xa4c (4)
0xa40|                                    00         |            .   |        dst: 0 (valid) 0xa4c-0xa4d (1)
0xa40|                                       00      |             .  |        idx: 0 (valid) 0xa4d-0xa4e (1)
     |                                               |                |      [1]{}: local_time_type 0xa4e-0xa54 (6)
0xa40|                                          ff ff|              ..|        utoff: -25200 (valid) 0xa4e-0xa52 (4)
0xa50|9d 90                                          |..              |
0xa50|      01                                       |  .             |        dst: 1 (valid) 0xa52-0xa53 (1)
0xa50|         04                                    |   .            |        idx: 4 (valid) 0xa53-0xa54 (1)
     |                                               |                |      [2]{}: local_time_type 0xa54-0xa5a (6)
0xa50|            ff ff 8f 80                        |    ....        |        utoff: -28800 (valid) 0xa54-0xa58 (4)
0xa50|                        00                     |        .       |        dst: 0 (valid) 0xa58-0xa59 (1)
0xa50|                           08                  |         .      |        idx: 8 (valid) 0xa59-0xa5a (1)
     |                                               |                |      [3]{}: local_time_type 0xa5a-0xa60 (6)
0xa50|                              ff ff 9d 90      |          ....  |        utoff: -25200 (valid) 0xa5a-0xa5e (4)
0xa50|                                          01   |              . |        dst: 1 (valid) 0xa5e-0xa5f (1)
0xa50|                                             0c|               .|        idx: 12 (valid) 0xa5f-0xa60 (1)
     |                                               |                |      [4]{}: local_time_type 0xa60-0xa66 (6)
0xa60|ff ff 9d 90                                    |....            |        utoff: -25200 (valid) 0xa60-0xa64 (4)
0xa60|            01                                 |    .           |        dst: 1 (valid) 0xa64-0xa65 (1)
0xa60|               10                              |     .          |        idx: 16 (valid) 0xa65-0xa66 (1)
     |                                               |                |    time_zone_designations[0:5]: 0xa66-0xa7a (20)
0xa60|                  4c 4d 54 00                  |      LMT.      |      [0]: "LMT" time_zone_designation 0xa66-0xa6a (4)
0xa60|                              50 44 54 00      |          PDT.  |      [1]: "PDT" time_zone_designation 0xa6a-0xa6e (4)
0xa60|                                          50 53|              PS|      [2]: "PST" time_zone_designation 0xa6e-0xa72 (4)
0xa70|54 00                                          |T.              |
0xa70|      50 57 54 00                              |  PWT.          |      [3]: "PWT" time_zone_designation 0xa72-0xa76 (4)
0xa70|                  50 50 54 00                  |      PPT.      |      [4]: "PPT" time_zone_designation 0xa76-0xa7a (4)
     |                                               |                |    leap_second_records[0:27]: 0xa7a-0xbbe (324)
     |                                               |                |      [0]{}: leap_second_record 0xa7a-0xa86 (12)
0xa70|                              00 00 00 00 04 b2|          ......|        occur: "1972-07-01T00:00:00Z" (78796800) 0xa7a-0xa82 (8)
0xa80|58 00                                          |X.              |
0xa80|      00 00 00 01                              |  ....          |        corr: 1 0xa82-0xa86 (4)
     |                                               |                |      [1]{}: leap_second_record 0xa86-0xa92 (12)
0xa80|                  00 00 00 00 05 a4 ec 01      |      ........  |        occur: "1973-01-01T00:00:01Z" (94694401) 0xa86-0xa8e (8)
0xa80|                                          00 00|              ..|        corr: 2 0xa8e-0xa92 (4)
0xa90|00 02                                          |..              |
     |                                               |                |      [2]{}: leap_second_record 0xa92-0xa9e (12)
0xa90|      00 00 00 00 07 86 1f 82                  |  ........      |        occur: "1974-01-01T00:00:02Z" (126230402) 0xa92-0xa9a (8)
0xa90|                              00 00 00 03      |          ....  |        corr: 3 0xa9a-0xa9e (4)
     |                                               |                |      [3]{}: leap_second_record 0xa9e-0xaaa (12)
0xa90|                                          00 00|              ..|        occur: "1975-01-01T00:00:03Z" (157766403) 0xa9e-0xaa6 (8)
0xaa0|00 00 09 67 53 03                              |...gS.          |
0xaa0|                  00 00 00 04                  |      ....      |        corr: 4 0xaa6-0xaaa (4)
     |                                               |                |      [4]{}: leap_second_record 0xaaa-0xab6 (12)
0xaa0|                              00 00 00 00 0b 48|          .....H|        occur: "1976-01-01T00:00:04Z" (189302404) 0xaaa-0xab2 (8)
0xab0|86 84                                          |..              |
0xab0|      00 00 00 05                              |  ....          |        corr: 5 0xab2-0xab6 (4)
     |                                               |                |      [5]{}: leap_second_record 0xab6-0xac2 (12)
0xab0|                  00 00 00 00 0d 2b 0b 85      |      .....+..  |        occur: "1977-01-01T00:00:05Z" (220924805) 0xab6-0xabe (8)
0xab0|                                          00 00|              ..|        corr: 6 0xabe-0xac2 (4)
0xac0|00 06                                          |..              |
     |                                               |                |      [6]{}: leap_second_record 0xac2-0xace (12)
0xac0|      00 00 00 00 0f 0c 3f 06                  |  ......?.      |        occur: "1978-01-01T00:00:06Z" (252460806) 0xac2-0xaca (8)
0xac0|                              00 00 00 07      |          ....  |        corr: 7 0xaca-0xace (4)
     |                                               |                |      [7]{}: leap_second_record 0xace-0xada (12)
0xac0|                                          00 00|              ..|        occur: "1979-01-01T00:00:07Z" (283996807) 0xace-0xad6 (8)
0xad0|00 00 10 ed 72 87                              |....r.          |
0xad0|                  00 00 00 08                  |      ....      |        corr: 8 0xad6-0xada (4)
     |                                               |                |      [8]{}: leap_second_record 0xada-0xae6 (12)
0xad0|                              00 00 00 00 12 ce|          ......|        occur: "1980-01-01T00:00:08Z" (315532808) 0xada-0xae2 (8)
0xae0|a6 08                                          |..              |
0xae0|      00 00 00 09                              |  ....          |        corr: 9 0xae2-0xae6 (4)
     |                                               |                |      [9]{}: leap_second_record 0xae6-0xaf2 (12)
0xae0|                  00 00 00 00 15 9f ca 89      |      ........  |        occur: "1981-07-01T00:00:09Z" (362793609) 0xae6-0xaee (8)
0xae0|                                          00 00|              ..|        corr: 10 0xaee-0xaf2 (4)
0xaf0|00 0a                                          |..              |
     |                                               |                |      [10]{}: leap_second_record 0xaf2-0xafe (12)
0xaf0|      00 00 00 00 17 80 fe 0a                  |  ........      |        occur: "1982-07-01T00:00:10Z" (394329610) 0xaf2-0xafa (8)
0xaf0|                              00 00 00 0b      |          ....  |        corr: 11 0xafa-0xafe (4)
     |                                               |                |      [11]{}: leap_second_record 0xafe-0xb0a (12)
0xaf0|                                          00 00|              ..|        occur: "1983-07-01T00:00:11Z" (425865611) 0xafe-0xb06 (8)
0xb00|00 00 19 62 31 8b                              |...b1.          |
0xb00|                  00 00 00 0c                  |      ....      |        corr: 12 0xb06-0xb0a (4)
     |                                               |                |      [12]{}: leap_second_record 0xb0a-0xb16 (12)
0xb00|                              00 00 00 00 1d 25|          .....%|        occur: "1985-07-01T00:00:12Z" (489024012) 0xb0a-0xb12 (8)
0xb10|ea 0c                                          |..              |
0xb10|      00 00 00 0d                              |  ....          |        corr: 13 0xb12-0xb16 (4)
     |                                               |                |      [13]{}: leap_second_record 0xb16-0xb22 (12)
0xb10|                  00 00 00 00 21 da e5 0d      |      ....!...  |        occur: "1988-01-01T00:00:13Z" (567993613) 0xb16-0xb1e (8)
0xb10|                                          00 00|              ..|        corr: 14 0xb1e-0xb22 (4)
0xb20|00 0e                                          |..              |
     |                                               |                |      [14]{}: leap_second_record 0xb22-0xb2e (12)
0xb20|      00 00 00 00 25 9e 9d 8e                  |  ....%...      |        occur: "1990-01-01T00:00:14Z" (631152014) 0xb22-0xb2a (8)
0xb20|                              00 00 00 0f      |          ....  |        corr: 15 0xb2a-0xb2e (4)
     |                                               |                |      [15]{}: leap_second_record 0xb2e-0xb3a (12)
0xb20|                                          00 00|              ..|        occur: "1991-01-01T00:00:15Z" (662688015) 0xb2e-0xb36 (8)
0xb30|00 00 27 7f d1 0f                              |..'...          |
0xb30|                  00 00 00 10                  |      ....      |        corr: 16 0xb36-0xb3a (4)
     |                                               |                |      [16]{}: leap_second_record 0xb3a-0xb46 (12)
0xb30|                              00 00 00 00 2a 50|          ....*P|        occur: "1992-07-01T00:00:16Z" (709948816) 0xb3a-0xb42 (8)
0xb40|f5 90                                          |..              |
0xb40|      00 00 00 11                              |  ....          |        corr: 17 0xb42-0xb46 (4)
     |                                               |                |      [17]{}: leap_second_record 0xb46-0xb52 (12)
0xb40|                  00 00 00 00 2c 32 29 11      |      ....,2).  |        occur: "1993-07-01T00:00:17Z" (741484817) 0xb46-0xb4e (8)
0xb40|                                          00 00|              ..|        corr: 18 0xb4e-0xb52 (4)
0xb50|00 12                                          |..              |
     |                                               |                |      [18]{}: leap_second_record 0xb52-0xb5e (12)
0xb50|      00 00 00 00 2e 13 5c 92                  |  ......\.      |        occur: "1994-07-01T00:00:18Z" (773020818) 0xb52-0xb5a (8)
0xb50|                              00 00 00 13      |          ....  |        corr: 19 0xb5a-0xb5e (4)
     |                                               |                |      [19]{}: leap_second_record 0xb5e-0xb6a (12)
0xb50|                                          00 00|              ..|        occur: "1996-01-01T00:00:19Z" (820454419) 0xb5e-0xb66 (8)
0xb60|00 00 30 e7 24 13                              |..0.$.          |
0xb60|                  00 00 00 14                  |      ....      |        corr: 20 0xb66-0xb6a (4)
     |                                               |                |      [20]{}: leap_second_record 0xb6a-0xb76 (12)
0xb60|                              00 00 00 00 33 b8|          ....3.|        occur: "1997-07-01T00:00:20Z" (867715220) 0xb6a-0xb72 (8)
0xb70|48 94                                          |H.              |
0xb70|      00 00 00 15                              |  ....          |        corr: 21 0xb72-0xb76 (4)
     |                                               |                |      [21]{}: leap_second_record 0xb76-0xb82 (12)
0xb70|                  00 00 00 00 36 8c 10 15      |      ....6...  |        occur: "1999-01-01T00:00:21Z" (915148821) 0xb76-0xb7e (8)
0xb70|                                          00 00|              ..|        corr: 22 0xb7e-0xb82 (4)
0xb80|00 16                                          |..              |
     |                                               |                |      [22]{}: leap_second_record 0xb82-0xb8e (12)
0xb80|      00 00 00 00 43 b7 1b 96                  |  ....C...      |        occur: "2006-01-01T00:00:22Z" (1136073622) 0xb82-0xb8a (8)
0xb80|                              00 00 00 17      |          ....  |        corr: 23 0xb8a-0xb8e (4)
     |                                               |                |      [23]{}: leap_second_record 0xb8e-0xb9a (12)
0xb80|                                          00 00|              ..|        occur: "2009-01-01T00:00:23Z" (1230768023) 0xb8e-0xb96 (8)
0xb90|00 00 49 5c 07 97                              |..I\..          |
0xb90|                  00 00 00 18                  |      ....      |        corr: 24 0xb96-0xb9a (4)
     |                                               |                |      [24]{}: leap_second_record 0xb9a-0xba6 (12)
0xb90|                              00 00 00 00 4f ef|          ....O.|        occur: "2012-07-01T00:00:24Z" (1341100824) 0xb9a-0xba2 (8)
0xba0|93 18                                          |..              |
0xba0|      00 00 00 19                              |  ....          |        corr: 25 0xba2-0xba6 (4)
     |                                               |                |      [25]{}: leap_second_record 0xba6-0xbb2 (12)
0xba0|                  00 00 00 00 55 93 2d 99      |      ....U.-.  |        occur: "2015-07-01T00:00:25Z" (1435708825) 0xba6-0xbae (8)
0xba0|                                          00 00|              ..|        corr: 26 0xbae-0xbb2 (4)
0xbb0|00 1a                                          |..              |
     |                                               |                |      [26]{}: leap_second_record 0xbb2-0xbbe (12)
0xbb0|      00 00 00 00 58 68 46 9a                  |  ....XhF.      |        occur: "2017-01-01T00:00:26Z" (1483228826) 0xbb2-0xbba (8)
0xbb0|                              00 00 00 1b      |          ....  |        corr: 27 0xbba-0xbbe (4)
     |                                               |                |    standard_wall_indicators[0:5]: 0xbbe-0xbc3 (5)
0xbb0|                                          00   |              . |      [0]: 0 standard_wall_indicator (valid) 0xbbe-0xbbf (1)
0xbb0|                                             00|               .|      [1]: 0 standard_wall_indicator (valid) 0xbbf-0xbc0 (1)
0xbc0|00                                             |.               |      [2]: 0 standard_wall_indicator (valid) 0xbc0-0xbc1 (1)
0xbc0|   00                                          | .              |      [3]: 0 standard_wall_indicator (valid) 0xbc1-0xbc2 (1)
0xbc0|      01                                       |  .             |      [4]: 1 standard_wall_indicator (valid) 0xbc2-0xbc3 (1)
     |                                               |                |    ut_local_indicators[0:5]: 0xbc3-0xbc8 (5)
0xbc0|         00                                    |   .            |      [0]: 0 ut_local_indicator (valid) 0xbc3-0xbc4 (1)
0xbc0|            00                                 |    .           |      [1]: 0 ut_local_indicator (valid) 0xbc4-0xbc5 (1)
0xbc0|               00                              |     .          |      [2]: 0 ut_local_indicator (valid) 0xbc5-0xbc6 (1)
0xbc0|                  00                           |      .         |      [3]: 0 ut_local_indicator (valid) 0xbc6-0xbc7 (1)
0xbc0|                     01                        |       .        |      [4]: 1 ut_local_indicator (valid) 0xbc7-0xbc8 (1)
     |                                               |                |  footer{}: 0xbc8-0xbca (2)
0xbc0|                        0a                     |        .       |    nl1: 10 (valid) 0xbc8-0xbc9 (1)
     |                                               |                |    tz_string: "" 0xbc9-0xbc9 (0)
0xbc0|                           0a|                 |         .|     |    nl2: 10 (valid) 0xbc9-0xbca (1)
