$ fq -d tzif dv Vevay
     |00 01 02 03 04 05 06 07 08 09 0a 0b 0c 0d 0e 0f|0123456789abcdef|.{}: Vevay (tzif) 0x0-0x614 (1556)
     |                                               |                |  v1header{}: 0x0-0x2c (44)
0x000|54 5a 69 66                                    |TZif            |    magic: 0x545a6966 (valid) 0x0-0x4 (4)
0x000|            32                                 |    2           |    ver: "2" (0x32) (valid) 0x4-0x5 (1)
0x000|               00 00 00 00 00 00 00 00 00 00 00|     ...........|    reserved: raw bits 0x5-0x14 (15)
0x010|00 00 00 00                                    |....            |
0x010|            00 00 00 08                        |    ....        |    isutcnt: 8 0x14-0x18 (4)
0x010|                        00 00 00 08            |        ....    |    isstdcnt: 8 0x18-0x1c (4)
0x010|                                    00 00 00 1b|            ....|    leapcnt: 27 0x1c-0x20 (4)
0x020|00 00 00 35                                    |...5            |    timecnt: 53 0x20-0x24 (4)
0x020|            00 00 00 08                        |    ....        |    typecnt: 8 0x24-0x28 (4)
0x020|                        00 00 00 1c            |        ....    |    charcnt: 28 0x28-0x2c (4)
     |                                               |                |  v1datablock{}: 0x2c-0x269 (573)
     |                                               |                |    transition_times[0:53]: 0x2c-0x100 (212)
0x020|                                    80 00 00 00|            ....|      [0]: "1901-12-13T20:45:52Z" (-2147483648) transition_time 0x2c-0x30 (4)
0x030|9e a6 2c 80                                    |..,.            |      [1]: "1918-03-31T08:00:00Z" (-1633276800) transition_time 0x30-0x34 (4)
0x030|            9f ba f9 70                        |    ...p        |      [2]: "1918-10-27T07:00:00Z" (-1615136400) transition_time 0x34-0x38 (4)
0x030|                        a0 86 0e 80            |        ....    |      [3]: "1919-03-30T08:00:00Z" (-1601827200) transition_time 0x38-0x3c (4)
0x030|                                    a1 9a db 70|            ...p|      [4]: "1919-10-26T07:00:00Z" (-1583686800) transition_time 0x3c-0x40 (4)
0x040|cb 88 fe 80                                    |....            |      [5]: "1942-02-09T08:00:00Z" (-880214400) transition_time 0x40-0x44 (4)
0x040|            d2 23 f4 70                        |    .#.p        |      [6]: "1945-08-14T23:00:00Z" (-769395600) transition_time 0x44-0x48 (4)
0x040|                        d2 61 09 f0            |        .a..    |      [7]: "1945-09-30T07:00:00Z" (-765392400) transition_time 0x48-0x4c (4)
0x040|                                    e2 7e 3d 80|            .~=.|      [8]: "1954-04-25T08:00:00Z" (-495043200) transition_time 0x4c-0x50 (4)
0x050|fe b8 1c f0                                    |....            |      [9]: "1969-04-27T07:00:00Z" (-21488400) transition_time 0x50-0x54 (4)
0x050|            ff a7 ff e0                        |    ....        |      [10]: "1969-10-26T06:00:00Z" (-5767200) transition_time 0x54-0x58 (4)
0x050|                        00 97 fe f0            |        ....    |      [11]: "1970-04-26T07:00:00Z" (9961200) transition_time 0x58-0x5c (4)
0x050|                                    01 87 e1 e0|            ....|      [12]: "1970-10-25T06:00:00Z" (25682400) transition_time 0x5c-0x60 (4)
0x060|02 77 e0 f0                                    |.w..            |      [13]: "1971-04-25T07:00:00Z" (41410800) transition_time 0x60-0x64 (4)
0x060|            03 70 fe 60                        |    .p.`        |      [14]: "1971-10-31T06:00:00Z" (57736800) transition_time 0x64-0x68 (4)
0x060|                        04 60 fd 70            |        .`.p    |      [15]: "1972-04-30T07:00:00Z" (73465200) transition_time 0x68-0x6c (4)
0x060|                                    05 50 e0 61|            .P.a|      [16]: "1972-10-29T06:00:01Z" (89186401) transition_time 0x6c-0x70 (4)
0x070|44 2f 76 87                                    |D/v.            |      [17]: "2006-04-02T07:00:23Z" (1143961223) transition_time 0x70-0x74 (4)
0x070|            45 44 43 77                        |    EDCw        |      [18]: "2006-10-29T06:00:23Z" (1162101623) transition_time 0x74-0x78 (4)
0x070|                        45 f3 a9 07            |        E...    |      [19]: "2007-03-11T07:00:23Z" (1173596423) transition_time 0x78-0x7c (4)
0x070|                                    47 2d 5f f7|            G-_.|      [20]: "2007-11-04T06:00:23Z" (1194156023) transition_time 0x7c-0x80 (4)
0x080|47 d3 8b 07                                    |G...            |      [21]: "2008-03-09T07:00:23Z" (1205046023) transition_time 0x80-0x84 (4)
0x080|            49 0d 41 f7                        |    I.A.        |      [22]: "2008-11-02T06:00:23Z" (1225605623) transition_time 0x84-0x88 (4)
0x080|                        49 b3 6d 08            |        I.m.    |      [23]: "2009-03-08T07:00:24Z" (1236495624) transition_time 0x88-0x8c (4)
0x080|                                    4a ed 23 f8|            J.#.|      [24]: "2009-11-01T06:00:24Z" (1257055224) transition_time 0x8c-0x90 (4)
0x090|4b 9c 89 88                                    |K...            |      [25]: "2010-03-14T07:00:24Z" (1268550024) transition_time 0x90-0x94 (4)
0x090|            4c d6 40 78                        |    L.@x        |      [26]: "2010-11-07T06:00:24Z" (1289109624) transition_time 0x94-0x98 (4)
0x090|                        4d 7c 6b 88            |        M|k.    |      [27]: "2011-03-13T07:00:24Z" (1299999624) transition_time 0x98-0x9c (4)
0x090|                                    4e b6 22 78|            N."x|      [28]: "2011-11-06T06:00:24Z" (1320559224) transition_time 0x9c-0xa0 (4)
0x0a0|4f 5c 4d 88                                    |O\M.            |      [29]: "2012-03-11T07:00:24Z" (1331449224) transition_time 0xa0-0xa4 (4)
0x0a0|            50 96 04 79                        |    P..y        |      [30]: "2012-11-04T06:00:25Z" (1352008825) transition_time 0xa4-0xa8 (4)
0x0a0|                        51 3c 2f 89            |        Q</.    |      [31]: "2013-03-10T07:00:25Z" (1362898825) transition_time 0xa8-0xac (4)
0x0a0|                                    52 75 e6 79|            Ru.y|      [32]: "2013-11-03T06:00:25Z" (1383458425) transition_time 0xac-0xb0 (4)
0x0b0|53 1c 11 89                                    |S...            |      [33]: "2014-03-09T07:00:25Z" (1394348425) transition_time 0xb0-0xb4 (4)
0x0b0|            54 55 c8 79                        |    TU.y        |      [34]: "2014-11-02T06:00:25Z" (1414908025) transition_time 0xb4-0xb8 (4)
0x0b0|                        54 fb f3 89            |        T...    |      [35]: "2015-03-08T07:00:25Z" (1425798025) transition_time 0xb8-0xbc (4)
0x0b0|                                    56 35 aa 7a|            V5.z|      [36]: "2015-11-01T06:00:26Z" (1446357626) transition_time 0xbc-0xc0 (4)
0x0c0|56 e5 10 0a                                    |V...            |      [37]: "2016-03-13T07:00:26Z" (1457852426) transition_time 0xc0-0xc4 (4)
0x0c0|            58 1e c6 fa                        |    X...        |      [38]: "2016-11-06T06:00:26Z" (1478412026) transition_time 0xc4-0xc8 (4)
0x0c0|                        58 c4 f2 0b            |        X...    |      [39]: "2017-03-12T07:00:27Z" (1489302027) transition_time 0xc8-0xcc (4)
0x0c0|                                    59 fe a8 fb|            Y...|      [40]: "2017-11-05T06:00:27Z" (1509861627) transition_time 0xcc-0xd0 (4)
0x0d0|5a a4 d4 0b                                    |Z...            |      [41]: "2018-03-11T07:00:27Z" (1520751627) transition_time 0xd0-0xd4 (4)
0x0d0|            5b de 8a fb                        |    [...        |      [42]: "2018-11-04T06:00:27Z" (1541311227) transition_time 0xd4-0xd8 (4)
0x0d0|                        5c 84 b6 0b            |        \...    |      [43]: "2019-03-10T07:00:27Z" (1552201227) transition_time 0xd8-0xdc (4)
0x0d0|                                    5d be 6c fb|            ].l.|      [44]: "2019-11-03T06:00:27Z" (1572760827) transition_time 0xdc-0xe0 (4)
0x0e0|5e 64 98 0b                                    |^d..            |      [45]: "2020-03-08T07:00:27Z" (1583650827) transition_time 0xe0-0xe4 (4)
0x0e0|            5f 9e 4e fb                        |    _.N.        |      [46]: "2020-11-01T06:00:27Z" (1604210427) transition_time 0xe4-0xe8 (4)
0x0e0|                        60 4d b4 8b            |        `M..    |      [47]: "2021-03-14T07:00:27Z" (1615705227) transition_time 0xe8-0xec (4)
0x0e0|                                    61 87 6b 7b|            a.k{|      [48]: "2021-11-07T06:00:27Z" (1636264827) transition_time 0xec-0xf0 (4)
0x0f0|62 2d 96 8b                                    |b-..            |      [49]: "2022-03-13T07:00:27Z" (1647154827) transition_time 0xf0-0xf4 (4)
0x0f0|            63 67 4d 7b                        |    cgM{        |      [50]: "2022-11-06T06:00:27Z" (1667714427) transition_time 0xf4-0xf8 (4)
0x0f0|                        64 0d 78 8b            |        d.x.    |      [51]: "2023-03-12T07:00:27Z" (1678604427) transition_time 0xf8-0xfc (4)
0x0f0|                                    64 9b 78 1b|            d.x.|      [52]: "2023-06-28T00:00:27Z" (1687910427) transition_time 0xfc-0x100 (4)
     |                                               |                |    transition_types[0:53]: 0x100-0x135 (53)
0x100|05                                             |.               |      [0]: 5 transition_type 0x100-0x101 (1)
0x100|   01                                          | .              |      [1]: 1 transition_type 0x101-0x102 (1)
0x100|      02                                       |  .             |      [2]: 2 transition_type 0x102-0x103 (1)
0x100|         01                                    |   .            |      [3]: 1 transition_type 0x103-0x104 (1)
0x100|            02                                 |    .           |      [4]: 2 transition_type 0x104-0x105 (1)
0x100|               03                              |     .          |      [5]: 3 transition_type 0x105-0x106 (1)
0x100|                  04                           |      .         |      [6]: 4 transition_type 0x106-0x107 (1)
0x100|                     02                        |       .        |      [7]: 2 transition_type 0x107-0x108 (1)
0x100|                        06                     |        .       |      [8]: 6 transition_type 0x108-0x109 (1)
0x100|                           07                  |         .      |      [9]: 7 transition_type 0x109-0x10a (1)
0x100|                              06               |          .     |      [10]: 6 transition_type 0x10a-0x10b (1)
0x100|                                 07            |           .    |      [11]: 7 transition_type 0x10b-0x10c (1)
0x100|                                    06         |            .   |      [12]: 6 transition_type 0x10c-0x10d (1)
0x100|                                       07      |             .  |      [13]: 7 transition_type 0x10d-0x10e (1)
0x100|                                          06   |              . |      [14]: 6 transition_type 0x10e-0x10f (1)
0x100|                                             07|               .|      [15]: 7 transition_type 0x10f-0x110 (1)
0x110|06                                             |.               |      [16]: 6 transition_type 0x110-0x111 (1)
0x110|   07                                          | .              |      [17]: 7 transition_type 0x111-0x112 (1)
0x110|      06                                       |  .             |      [18]: 6 transition_type 0x112-0x113 (1)
0x110|         07                                    |   .            |      [19]: 7 transition_type 0x113-0x114 (1)
0x110|            06                                 |    .           |      [20]: 6 transition_type 0x114-0x115 (1)
0x110|               07                              |     .          |      [21]: 7 transition_type 0x115-0x116 (1)
0x110|                  06                           |      .         |      [22]: 6 transition_type 0x116-0x117 (1)
0x110|                     07                        |       .        |      [23]: 7 transition_type 0x117-0x118 (1)
0x110|                        06                     |        .       |      [24]: 6 transition_type 0x118-0x119 (1)
0x110|                           07                  |         .      |      [25]: 7 transition_type 0x119-0x11a (1)
0x110|                              06               |          .     |      [26]: 6 transition_type 0x11a-0x11b (1)
0x110|                                 07            |           .    |      [27]: 7 transition_type 0x11b-0x11c (1)
0x110|                                    06         |            .   |      [28]: 6 transition_type 0x11c-0x11d (1)
0x110|                                       07      |             .  |      [29]: 7 transition_type 0x11d-0x11e (1)
0x110|                                          06   |              . |      [30]: 6 transition_type 0x11e-0x11f (1)
0x110|                                             07|               .|      [31]: 7 transition_type 0x11f-0x120 (1)
0x120|06                                             |.               |      [32]: 6 transition_type 0x120-0x121 (1)
0x120|   07                                          | .              |      [33]: 7 transition_type 0x121-0x122 (1)
0x120|      06                                       |  .             |      [34]: 6 transition_type 0x122-0x123 (1)
0x120|         07                                    |   .            |      [35]: 7 transition_type 0x123-0x124 (1)
0x120|            06                                 |    .           |      [36]: 6 transition_type 0x124-0x125 (1)
0x120|               07                              |     .          |      [37]: 7 transition_type 0x125-0x126 (1)
0x120|                  06                           |      .         |      [38]: 6 transition_type 0x126-0x127 (1)
0x120|                     07                        |       .        |      [39]: 7 transition_type 0x127-0x128 (1)
0x120|                        06                     |        .       |      [40]: 6 transition_type 0x128-0x129 (1)
0x120|                           07                  |         .      |      [41]: 7 transition_type 0x129-0x12a (1)
0x120|                              06               |          .     |      [42]: 6 transition_type 0x12a-0x12b (1)
0x120|                                 07            |           .    |      [43]: 7 transition_type 0x12b-0x12c (1)
0x120|                                    06         |            .   |      [44]: 6 transition_type 0x12c-0x12d (1)
0x120|                                       07      |             .  |      [45]: 7 transition_type 0x12d-0x12e (1)
0x120|                                          06   |              . |      [46]: 6 transition_type 0x12e-0x12f (1)
0x120|                                             07|               .|      [47]: 7 transition_type 0x12f-0x130 (1)
0x130|06                                             |.               |      [48]: 6 transition_type 0x130-0x131 (1)
0x130|   07                                          | .              |      [49]: 7 transition_type 0x131-0x132 (1)
0x130|      06                                       |  .             |      [50]: 6 transition_type 0x132-0x133 (1)
0x130|         07                                    |   .            |      [51]: 7 transition_type 0x133-0x134 (1)
0x130|            07                                 |    .           |      [52]: 7 transition_type 0x134-0x135 (1)
     |                                               |                |    local_time_type_records[0:8]: 0x135-0x165 (48)
     |                                               |                |      [0]{}: local_time_type 0x135-0x13b (6)
0x130|               ff ff b0 40                     |     ...@       |        utoff: -20416 (valid) 0x135-0x139 (4)
0x130|                           00                  |         .      |        dst: 0 (valid) 0x139-0x13a (1)
0x130|                              00               |          .     |        idx: 0 (valid) 0x13a-0x13b (1)
     |                                               |                |      [1]{}: local_time_type 0x13b-0x141 (6)
0x130|                                 ff ff b9 b0   |           .... |        utoff: -18000 (valid) 0x13b-0x13f (4)
0x130|                                             01|               .|        dst: 1 (valid) 0x13f-0x140 (1)
0x140|04                                             |.               |        idx: 4 (valid) 0x140-0x141 (1)
     |                                               |                |      [2]{}: local_time_type 0x141-0x147 (6)
0x140|   ff ff ab a0                                 | ....           |        utoff: -21600 (valid) 0x141-0x145 (4)
0x140|               00                              |     .          |        dst: 0 (valid) 0x145-0x146 (1)
0x140|                  08                           |      .         |        idx: 8 (valid) 0x146-0x147 (1)
     |                                               |                |      [3]{}: local_time_type 0x147-0x14d (6)
0x140|                     ff ff b9 b0               |       ....     |        utoff: -18000 (valid) 0x147-0x14b (4)
0x140|                                 01            |           .    |        dst: 1 (valid) 0x14b-0x14c (1)
0x140|                                    0c         |            .   |        idx: 12 (valid) 0x14c-0x14d (1)
     |                                               |                |      [4]{}: local_time_type 0x14d-0x153 (6)
0x140|                                       ff ff b9|             ...|        utoff: -18000 (valid) 0x14d-0x151 (4)
0x150|b0                                             |.               |
0x150|   01                                          | .              |        dst: 1 (valid) 0x151-0x152 (1)
0x150|      10                                       |  .             |        idx: 16 (valid) 0x152-0x153 (1)
     |                                               |                |      [5]{}: local_time_type 0x153-0x159 (6)
0x150|         ff ff ab a0                           |   ....         |        utoff: -21600 (valid) 0x153-0x157 (4)
0x150|                     00                        |       .        |        dst: 0 (valid) 0x157-0x158 (1)
0x150|                        08                     |        .       |        idx: 8 (valid) 0x158-0x159 (1)
     |                                               |                |      [6]{}: local_time_type 0x159-0x15f (6)
0x150|                           ff ff b9 b0         |         ....   |        utoff: -18000 (valid) 0x159-0x15d (4)
0x150|                                       00      |             .  |        dst: 0 (valid) 0x15d-0x15e (1)
0x150|                                          14   |              . |        idx: 20 (valid) 0x15e-0x15f (1)
     |                                               |                |      [7]{}: local_time_type 0x15f-0x165 (6)
0x150|                                             ff|               .|        utoff: -14400 (valid) 0x15f-0x163 (4)
0x160|ff c7 c0                                       |...             |
0x160|         01                                    |   .            |        dst: 1 (valid) 0x163-0x164 (1)
0x160|            18                                 |    .           |        idx: 24 (valid) 0x164-0x165 (1)
     |                                               |                |    time_zone_designations[0:7]: 0x165-0x181 (28)
0x160|               4c 4d 54 00                     |     LMT.       |      [0]: "LMT" time_zone_designation 0x165-0x169 (4)
0x160|                           43 44 54 00         |         CDT.   |      [1]: "CDT" time_zone_designation 0x169-0x16d (4)
0x160|                                       43 53 54|             CST|      [2]: "CST" time_zone_designation 0x16d-0x171 (4)
0x170|00                                             |.               |
0x170|   43 57 54 00                                 | CWT.           |      [3]: "CWT" time_zone_designation 0x171-0x175 (4)
0x170|               43 50 54 00                     |     CPT.       |      [4]: "CPT" time_zone_designation 0x175-0x179 (4)
0x170|                           45 53 54 00         |         EST.   |      [5]: "EST" time_zone_designation 0x179-0x17d (4)
0x170|                                       45 44 54|             EDT|      [6]: "EDT" time_zone_designation 0x17d-0x181 (4)
0x180|00                                             |.               |
     |                                               |                |    leap_second_records[0:27]: 0x181-0x259 (216)
     |                                               |                |      [0]{}: leap_second_record 0x181-0x189 (8)
0x180|   04 b2 58 00                                 | ..X.           |        occur: "1972-07-01T00:00:00Z" (78796800) 0x181-0x185 (4)
0x180|               00 00 00 01                     |     ....       |        corr: 1 0x185-0x189 (4)
     |                                               |                |      [1]{}: leap_second_record 0x189-0x191 (8)
0x180|                           05 a4 ec 01         |         ....   |        occur: "1973-01-01T00:00:01Z" (94694401) 0x189-0x18d (4)
0x180|                                       00 00 00|             ...|        corr: 2 0x18d-0x191 (4)
0x190|02                                             |.               |
     |                                               |                |      [2]{}: leap_second_record 0x191-0x199 (8)
0x190|   07 86 1f 82                                 | ....           |        occur: "1974-01-01T00:00:02Z" (126230402) 0x191-0x195 (4)
0x190|               00 00 00 03                     |     ....       |        corr: 3 0x195-0x199 (4)
     |                                               |                |      [3]{}: leap_second_record 0x199-0x1a1 (8)
0x190|                           09 67 53 03         |         .gS.   |        occur: "1975-01-01T00:00:03Z" (157766403) 0x199-0x19d (4)
0x190|                                       00 00 00|             ...|        corr: 4 0x19d-0x1a1 (4)
0x1a0|04                                             |.               |
     |                                               |                |      [4]{}: leap_second_record 0x1a1-0x1a9 (8)
0x1a0|   0b 48 86 84                                 | .H..           |        occur: "1976-01-01T00:00:04Z" (189302404) 0x1a1-0x1a5 (4)
0x1a0|               00 00 00 05                     |     ....       |        corr: 5 0x1a5-0x1a9 (4)
     |                                               |                |      [5]{}: leap_second_record 0x1a9-0x1b1 (8)
0x1a0|                           0d 2b 0b 85         |         .+..   |        occur: "1977-01-01T00:00:05Z" (220924805) 0x1a9-0x1ad (4)
0x1a0|                                       00 00 00|             ...|        corr: 6 0x1ad-0x1b1 (4)
0x1b0|06                                             |.               |
     |                                               |                |      [6]{}: leap_second_record 0x1b1-0x1b9 (8)
0x1b0|   0f 0c 3f 06                                 | ..?.           |        occur: "1978-01-01T00:00:06Z" (252460806) 0x1b1-0x1b5 (4)
0x1b0|               00 00 00 07                     |     ....       |        corr: 7 0x1b5-0x1b9 (4)
     |                                               |                |      [7]{}: leap_second_record 0x1b9-0x1c1 (8)
0x1b0|                           10 ed 72 87         |         ..r.   |        occur: "1979-01-01T00:00:07Z" (283996807) 0x1b9-0x1bd (4)
0x1b0|                                       00 00 00|             ...|        corr: 8 0x1bd-0x1c1 (4)
0x1c0|08                                             |.               |
     |                                               |                |      [8]{}: leap_second_record 0x1c1-0x1c9 (8)
0x1c0|   12 ce a6 08                                 | ....           |        occur: "1980-01-01T00:00:08Z" (315532808) 0x1c1-0x1c5 (4)
0x1c0|               00 00 00 09                     |     ....       |        corr: 9 0x1c5-0x1c9 (4)
     |                                               |                |      [9]{}: leap_second_record 0x1c9-0x1d1 (8)
0x1c0|                           15 9f ca 89         |         ....   |        occur: "1981-07-01T00:00:09Z" (362793609) 0x1c9-0x1cd (4)
0x1c0|                                       00 00 00|             ...|        corr: 10 0x1cd-0x1d1 (4)
0x1d0|0a                                             |.               |
     |                                               |                |      [10]{}: leap_second_record 0x1d1-0x1d9 (8)
0x1d0|   17 80 fe 0a                                 | ....           |        occur: "1982-07-01T00:00:10Z" (394329610) 0x1d1-0x1d5 (4)
0x1d0|               00 00 00 0b                     |     ....       |        corr: 11 0x1d5-0x1d9 (4)
     |                                               |                |      [11]{}: leap_second_record 0x1d9-0x1e1 (8)
0x1d0|                           19 62 31 8b         |         .b1.   |        occur: "1983-07-01T00:00:11Z" (425865611) 0x1d9-0x1dd (4)
0x1d0|                                       00 00 00|             ...|        corr: 12 0x1dd-0x1e1 (4)
0x1e0|0c                                             |.               |
     |                                               |                |      [12]{}: leap_second_record 0x1e1-0x1e9 (8)
0x1e0|   1d 25 ea 0c                                 | .%..           |        occur: "1985-07-01T00:00:12Z" (489024012) 0x1e1-0x1e5 (4)
0x1e0|               00 00 00 0d                     |     ....       |        corr: 13 0x1e5-0x1e9 (4)
     |                                               |                |      [13]{}: leap_second_record 0x1e9-0x1f1 (8)
0x1e0|                           21 da e5 0d         |         !...   |        occur: "1988-01-01T00:00:13Z" (567993613) 0x1e9-0x1ed (4)
0x1e0|                                       00 00 00|             ...|        corr: 14 0x1ed-0x1f1 (4)
0x1f0|0e                                             |.               |
     |                                               |                |      [14]{}: leap_second_record 0x1f1-0x1f9 (8)
0x1f0|   25 9e 9d 8e                                 | %...           |        occur: "1990-01-01T00:00:14Z" (631152014) 0x1f1-0x1f5 (4)
0x1f0|               00 00 00 0f                     |     ....       |        corr: 15 0x1f5-0x1f9 (4)
     |                                               |                |      [15]{}: leap_second_record 0x1f9-0x201 (8)
0x1f0|                           27 7f d1 0f         |         '...   |        occur: "1991-01-01T00:00:15Z" (662688015) 0x1f9-0x1fd (4)
0x1f0|                                       00 00 00|             ...|        corr: 16 0x1fd-0x201 (4)
0x200|10                                             |.               |
     |                                               |                |      [16]{}: leap_second_record 0x201-0x209 (8)
0x200|   2a 50 f5 90                                 | *P..           |        occur: "1992-07-01T00:00:16Z" (709948816) 0x201-0x205 (4)
0x200|               00 00 00 11                     |     ....       |        corr: 17 0x205-0x209 (4)
     |                                               |                |      [17]{}: leap_second_record 0x209-0x211 (8)
0x200|                           2c 32 29 11         |         ,2).   |        occur: "1993-07-01T00:00:17Z" (741484817) 0x209-0x20d (4)
0x200|                                       00 00 00|             ...|        corr: 18 0x20d-0x211 (4)
0x210|12                                             |.               |
     |                                               |                |      [18]{}: leap_second_record 0x211-0x219 (8)
0x210|   2e 13 5c 92                                 | ..\.           |        occur: "1994-07-01T00:00:18Z" (773020818) 0x211-0x215 (4)
0x210|               00 00 00 13                     |     ....       |        corr: 19 0x215-0x219 (4)
     |                                               |                |      [19]{}: leap_second_record 0x219-0x221 (8)
0x210|                           30 e7 24 13         |         0.$.   |        occur: "1996-01-01T00:00:19Z" (820454419) 0x219-0x21d (4)
0x210|                                       00 00 00|             ...|        corr: 20 0x21d-0x221 (4)
0x220|14                                             |.               |
     |                                               |                |      [20]{}: leap_second_record 0x221-0x229 (8)
0x220|   33 b8 48 94                                 | 3.H.           |        occur: "1997-07-01T00:00:20Z" (867715220) 0x221-0x225 (4)
0x220|               00 00 00 15                     |     ....       |        corr: 21 0x225-0x229 (4)
     |                                               |                |      [21]{}: leap_second_record 0x229-0x231 (8)
0x220|                           36 8c 10 15         |         6...   |        occur: "1999-01-01T00:00:21Z" (915148821) 0x229-0x22d (4)
0x220|                                       00 00 00|             ...|        corr: 22 0x22d-0x231 (4)
0x230|16                                             |.               |
     |                                               |                |      [22]{}: leap_second_record 0x231-0x239 (8)
0x230|   43 b7 1b 96                                 | C...           |        occur: "2006-01-01T00:00:22Z" (1136073622) 0x231-0x235 (4)
0x230|               00 00 00 17                     |     ....       |        corr: 23 0x235-0x239 (4)
     |                                               |                |      [23]{}: leap_second_record 0x239-0x241 (8)
0x230|                           49 5c 07 97         |         I\..   |        occur: "2009-01-01T00:00:23Z" (1230768023) 0x239-0x23d (4)
0x230|                                       00 00 00|             ...|        corr: 24 0x23d-0x241 (4)
0x240|18                                             |.               |
     |                                               |                |      [24]{}: leap_second_record 0x241-0x249 (8)
0x240|   4f ef 93 18                                 | O...           |        occur: "2012-07-01T00:00:24Z" (1341100824) 0x241-0x245 (4)
0x240|               00 00 00 19                     |     ....       |        corr: 25 0x245-0x249 (4)
     |                                               |                |      [25]{}: leap_second_record 0x249-0x251 (8)
0x240|                           55 93 2d 99         |         U.-.   |        occur: "2015-07-01T00:00:25Z" (1435708825) 0x249-0x24d (4)
0x240|                                       00 00 00|             ...|        corr: 26 0x24d-0x251 (4)
0x250|1a                                             |.               |
     |                                               |                |      [26]{}: leap_second_record 0x251-0x259 (8)
0x250|   58 68 46 9a                                 | XhF.           |        occur: "2017-01-01T00:00:26Z" (1483228826) 0x251-0x255 (4)
0x250|               00 00 00 1b                     |     ....       |        corr: 27 0x255-0x259 (4)
     |                                               |                |    standard_wall_indicators[0:8]: 0x259-0x261 (8)
0x250|                           00                  |         .      |      [0]: 0 standard_wall_indicator (valid) 0x259-0x25a (1)
0x250|                              00               |          .     |      [1]: 0 standard_wall_indicator (valid) 0x25a-0x25b (1)
0x250|                                 00            |           .    |      [2]: 0 standard_wall_indicator (valid) 0x25b-0x25c (1)
0x250|                                    00         |            .   |      [3]: 0 standard_wall_indicator (valid) 0x25c-0x25d (1)
0x250|                                       01      |             .  |      [4]: 1 standard_wall_indicator (valid) 0x25d-0x25e (1)
0x250|                                          01   |              . |      [5]: 1 standard_wall_indicator (valid) 0x25e-0x25f (1)
0x250|                                             00|               .|      [6]: 0 standard_wall_indicator (valid) 0x25f-0x260 (1)
0x260|00                                             |.               |      [7]: 0 standard_wall_indicator (valid) 0x260-0x261 (1)
     |                                               |                |    ut_local_indicators[0:8]: 0x261-0x269 (8)
0x260|   00                                          | .              |      [0]: 0 ut_local_indicator (valid) 0x261-0x262 (1)
0x260|      00                                       |  .             |      [1]: 0 ut_local_indicator (valid) 0x262-0x263 (1)
0x260|         00                                    |   .            |      [2]: 0 ut_local_indicator (valid) 0x263-0x264 (1)
0x260|            00                                 |    .           |      [3]: 0 ut_local_indicator (valid) 0x264-0x265 (1)
0x260|               01                              |     .          |      [4]: 1 ut_local_indicator (valid) 0x265-0x266 (1)
0x260|                  01                           |      .         |      [5]: 1 ut_local_indicator (valid) 0x266-0x267 (1)
0x260|                     00                        |       .        |      [6]: 0 ut_local_indicator (valid) 0x267-0x268 (1)
0x260|                        00                     |        .       |      [7]: 0 ut_local_indicator (valid) 0x268-0x269 (1)
     |                                               |                |  v2plusheader{}: 0x269-0x295 (44)
0x260|                           54 5a 69 66         |         TZif   |    magic: 0x545a6966 (valid) 0x269-0x26d (4)
0x260|                                       32      |             2  |    ver: "2" (0x32) (valid) 0x26d-0x26e (1)
0x260|                                          00 00|              ..|    reserved: raw bits 0x26e-0x27d (15)
0x270|00 00 00 00 00 00 00 00 00 00 00 00 00         |.............   |
0x270|                                       00 00 00|             ...|    isutcnt: 8 0x27d-0x281 (4)
0x280|08                                             |.               |
0x280|   00 00 00 08                                 | ....           |    isstdcnt: 8 0x281-0x285 (4)
0x280|               00 00 00 1b                     |     ....       |    leapcnt: 27 0x285-0x289 (4)
0x280|                           00 00 00 35         |         ...5   |    timecnt: 53 0x289-0x28d (4)
0x280|                                       00 00 00|             ...|    typecnt: 8 0x28d-0x291 (4)
0x290|08                                             |.               |
0x290|   00 00 00 1c                                 | ....           |    charcnt: 28 0x291-0x295 (4)
     |                                               |                |  v2plusdatablock{}: 0x295-0x612 (893)
     |                                               |                |    transition_times[0:53]: 0x295-0x43d (424)
0x290|               ff ff ff ff 5e 03 fe a0         |     ....^...   |      [0]: "1883-11-18T18:00:00Z" (-2717647200) transition_time 0x295-0x29d (8)
0x290|                                       ff ff ff|             ...|      [1]: "1918-03-31T08:00:00Z" (-1633276800) transition_time 0x29d-0x2a5 (8)
0x2a0|ff 9e a6 2c 80                                 |...,.           |
0x2a0|               ff ff ff ff 9f ba f9 70         |     .......p   |      [2]: "1918-10-27T07:00:00Z" (-1615136400) transition_time 0x2a5-0x2ad (8)
0x2a0|                                       ff ff ff|             ...|      [3]: "1919-03-30T08:00:00Z" (-1601827200) transition_time 0x2ad-0x2b5 (8)
0x2b0|ff a0 86 0e 80                                 |.....           |
0x2b0|               ff ff ff ff a1 9a db 70         |     .......p   |      [4]: "1919-10-26T07:00:00Z" (-1583686800) transition_time 0x2b5-0x2bd (8)
0x2b0|                                       ff ff ff|             ...|      [5]: "1942-02-09T08:00:00Z" (-880214400) transition_time 0x2bd-0x2c5 (8)
0x2c0|ff cb 88 fe 80                                 |.....           |
0x2c0|               ff ff ff ff d2 23 f4 70         |     .....#.p   |      [6]: "1945-08-14T23:00:00Z" (-769395600) transition_time 0x2c5-0x2cd (8)
0x2c0|                                       ff ff ff|             ...|      [7]: "1945-09-30T07:00:00Z" (-765392400) transition_time 0x2cd-0x2d5 (8)
0x2d0|ff d2 61 09 f0                                 |..a..           |
0x2d0|               ff ff ff ff e2 7e 3d 80         |     .....~=.   |      [8]: "1954-04-25T08:00:00Z" (-495043200) transition_time 0x2d5-0x2dd (8)
0x2d0|                                       ff ff ff|             ...|      [9]: "1969-04-27T07:00:00Z" (-21488400) transition_time 0x2dd-0x2e5 (8)
0x2e0|ff fe b8 1c f0                                 |.....           |
0x2e0|               ff ff ff ff ff a7 ff e0         |     ........   |      [10]: "1969-10-26T06:00:00Z" (-5767200) transition_time 0x2e5-0x2ed (8)
0x2e0|                                       00 00 00|             ...|      [11]: "1970-04-26T07:00:00Z" (9961200) transition_time 0x2ed-0x2f5 (8)
0x2f0|00 00 97 fe f0                                 |.....           |
0x2f0|               00 00 00 00 01 87 e1 e0         |     ........   |      [12]: "1970-10-25T06:00:00Z" (25682400) transition_time 0x2f5-0x2fd (8)
0x2f0|                                       00 00 00|             ...|      [13]: "1971-04-25T07:00:00Z" (41410800) transition_time 0x2fd-0x305 (8)
0x300|00 02 77 e0 f0                                 |..w..           |
0x300|               00 00 00 00 03 70 fe 60         |     .....p.`   |      [14]: "1971-10-31T06:00:00Z" (57736800) transition_time 0x305-0x30d (8)
0x300|                                       00 00 00|             ...|      [15]: "1972-04-30T07:00:00Z" (73465200) transition_time 0x30d-0x315 (8)
0x310|00 04 60 fd 70                                 |..`.p           |
0x310|               00 00 00 00 05 50 e0 61         |     .....P.a   |      [16]: "1972-10-29T06:00:01Z" (89186401) transition_time 0x315-0x31d (8)
0x310|                                       00 00 00|             ...|      [17]: "2006-04-02T07:00:23Z" (1143961223) transition_time 0x31d-0x325 (8)
0x320|00 44 2f 76 87                                 |.D/v.           |
0x320|               00 00 00 00 45 44 43 77         |     ....EDCw   |      [18]: "2006-10-29T06:00:23Z" (1162101623) transition_time 0x325-0x32d (8)
0x320|                                       00 00 00|             ...|      [19]: "2007-03-11T07:00:23Z" (1173596423) transition_time 0x32d-0x335 (8)
0x330|00 45 f3 a9 07                                 |.E...           |
0x330|               00 00 00 00 47 2d 5f f7         |     ....G-_.   |      [20]: "2007-11-04T06:00:23Z" (1194156023) transition_time 0x335-0x33d (8)
0x330|                                       00 00 00|             ...|      [21]: "2008-03-09T07:00:23Z" (1205046023) transition_time 0x33d-0x345 (8)
0x340|00 47 d3 8b 07                                 |.G...           |
0x340|               00 00 00 00 49 0d 41 f7         |     ....I.A.   |      [22]: "2008-11-02T06:00:23Z" (1225605623) transition_time 0x345-0x34d (8)
0x340|                                       00 00 00|             ...|      [23]: "2009-03-08T07:00:24Z" (1236495624) transition_time 0x34d-0x355 (8)
0x350|00 49 b3 6d 08                                 |.I.m.           |
0x350|               00 00 00 00 4a ed 23 f8         |     ....J.#.   |      [24]: "2009-11-01T06:00:24Z" (1257055224) transition_time 0x355-0x35d (8)
0x350|                                       00 00 00|             ...|      [25]: "2010-03-14T07:00:24Z" (1268550024) transition_time 0x35d-0x365 (8)
0x360|00 4b 9c 89 88                                 |.K...           |
0x360|               00 00 00 00 4c d6 40 78         |     ....L.@x   |      [26]: "2010-11-07T06:00:24Z" (1289109624) transition_time 0x365-0x36d (8)
0x360|                                       00 00 00|             ...|      [27]: "2011-03-13T07:00:24Z" (1299999624) transition_time 0x36d-0x375 (8)
0x370|00 4d 7c 6b 88                                 |.M|k.           |
0x370|               00 00 00 00 4e b6 22 78         |     ....N."x   |      [28]: "2011-11-06T06:00:24Z" (1320559224) transition_time 0x375-0x37d (8)
0x370|                                       00 00 00|             ...|      [29]: "2012-03-11T07:00:24Z" (1331449224) transition_time 0x37d-0x385 (8)
0x380|00 4f 5c 4d 88                                 |.O\M.           |
0x380|               00 00 00 00 50 96 04 79         |     ....P..y   |      [30]: "2012-11-04T06:00:25Z" (1352008825) transition_time 0x385-0x38d (8)
0x380|                                       00 00 00|             ...|      [31]: "2013-03-10T07:00:25Z" (1362898825) transition_time 0x38d-0x395 (8)
0x390|00 51 3c 2f 89                                 |.Q</.           |
0x390|               00 00 00 00 52 75 e6 79         |     ....Ru.y   |      [32]: "2013-11-03T06:00:25Z" (1383458425) transition_time 0x395-0x39d (8)
0x390|                                       00 00 00|             ...|      [33]: "2014-03-09T07:00:25Z" (1394348425) transition_time 0x39d-0x3a5 (8)
0x3a0|00 53 1c 11 89                                 |.S...           |
0x3a0|               00 00 00 00 54 55 c8 79         |     ....TU.y   |      [34]: "2014-11-02T06:00:25Z" (1414908025) transition_time 0x3a5-0x3ad (8)
0x3a0|                                       00 00 00|             ...|      [35]: "2015-03-08T07:00:25Z" (1425798025) transition_time 0x3ad-0x3b5 (8)
0x3b0|00 54 fb f3 89                                 |.T...           |
0x3b0|               00 00 00 00 56 35 aa 7a         |     ....V5.z   |      [36]: "2015-11-01T06:00:26Z" (1446357626) transition_time 0x3b5-0x3bd (8)
0x3b0|                                       00 00 00|             ...|      [37]: "2016-03-13T07:00:26Z" (1457852426) transition_time 0x3bd-0x3c5 (8)
0x3c0|00 56 e5 10 0a                                 |.V...           |
0x3c0|               00 00 00 00 58 1e c6 fa         |     ....X...   |      [38]: "2016-11-06T06:00:26Z" (1478412026) transition_time 0x3c5-0x3cd (8)
0x3c0|                                       00 00 00|             ...|      [39]: "2017-03-12T07:00:27Z" (1489302027) transition_time 0x3cd-0x3d5 (8)
0x3d0|00 58 c4 f2 0b                                 |.X...           |
0x3d0|               00 00 00 00 59 fe a8 fb         |     ....Y...   |      [40]: "2017-11-05T06:00:27Z" (1509861627) transition_time 0x3d5-0x3dd (8)
0x3d0|                                       00 00 00|             ...|      [41]: "2018-03-11T07:00:27Z" (1520751627) transition_time 0x3dd-0x3e5 (8)
0x3e0|00 5a a4 d4 0b                                 |.Z...           |
0x3e0|               00 00 00 00 5b de 8a fb         |     ....[...   |      [42]: "2018-11-04T06:00:27Z" (1541311227) transition_time 0x3e5-0x3ed (8)
0x3e0|                                       00 00 00|             ...|      [43]: "2019-03-10T07:00:27Z" (1552201227) transition_time 0x3ed-0x3f5 (8)
0x3f0|00 5c 84 b6 0b                                 |.\...           |
0x3f0|               00 00 00 00 5d be 6c fb         |     ....].l.   |      [44]: "2019-11-03T06:00:27Z" (1572760827) transition_time 0x3f5-0x3fd (8)
0x3f0|                                       00 00 00|             ...|      [45]: "2020-03-08T07:00:27Z" (1583650827) transition_time 0x3fd-0x405 (8)
0x400|00 5e 64 98 0b                                 |.^d..           |
0x400|               00 00 00 00 5f 9e 4e fb         |     ...._.N.   |      [46]: "2020-11-01T06:00:27Z" (1604210427) transition_time 0x405-0x40d (8)
0x400|                                       00 00 00|             ...|      [47]: "2021-03-14T07:00:27Z" (1615705227) transition_time 0x40d-0x415 (8)
0x410|00 60 4d b4 8b                                 |.`M..           |
0x410|               00 00 00 00 61 87 6b 7b         |     ....a.k{   |      [48]: "2021-11-07T06:00:27Z" (1636264827) transition_time 0x415-0x41d (8)
0x410|                                       00 00 00|             ...|      [49]: "2022-03-13T07:00:27Z" (1647154827) transition_time 0x41d-0x425 (8)
0x420|00 62 2d 96 8b                                 |.b-..           |
0x420|               00 00 00 00 63 67 4d 7b         |     ....cgM{   |      [50]: "2022-11-06T06:00:27Z" (1667714427) transition_time 0x425-0x42d (8)
0x420|                                       00 00 00|             ...|      [51]: "2023-03-12T07:00:27Z" (1678604427) transition_time 0x42d-0x435 (8)
0x430|00 64 0d 78 8b                                 |.d.x.           |
0x430|               00 00 00 00 64 9b 78 1b         |     ....d.x.   |      [52]: "2023-06-28T00:00:27Z" (1687910427) transition_time 0x435-0x43d (8)
     |                                               |                |    transition_types[0:53]: 0x43d-0x472 (53)
0x430|                                       05      |             .  |      [0]: 5 transition_type 0x43d-0x43e (1)
0x430|                                          01   |              . |      [1]: 1 transition_type 0x43e-0x43f (1)
0x430|                                             02|               .|      [2]: 2 transition_type 0x43f-0x440 (1)
0x440|01                                             |.               |      [3]: 1 transition_type 0x440-0x441 (1)
0x440|   02                                          | .              |      [4]: 2 transition_type 0x441-0x442 (1)
0x440|      03                                       |  .             |      [5]: 3 transition_type 0x442-0x443 (1)
0x440|         04                                    |   .            |      [6]: 4 transition_type 0x443-0x444 (1)
0x440|            02                                 |    .           |      [7]: 2 transition_type 0x444-0x445 (1)
0x440|               06                              |     .          |      [8]: 6 transition_type 0x445-0x446 (1)
0x440|                  07                           |      .         |      [9]: 7 transition_type 0x446-0x447 (1)
0x440|                     06                        |       .        |      [10]: 6 transition_type 0x447-0x448 (1)
0x440|                        07                     |        .       |      [11]: 7 transition_type 0x448-0x449 (1)
0x440|                           06                  |         .      |      [12]: 6 transition_type 0x449-0x44a (1)
0x440|                              07               |          .     |      [13]: 7 transition_type 0x44a-0x44b (1)
0x440|                                 06            |           .    |      [14]: 6 transition_type 0x44b-0x44c (1)
0x440|                                    07         |            .   |      [15]: 7 transition_type 0x44c-0x44d (1)
0x440|                                       06      |             .  |      [16]: 6 transition_type 0x44d-0x44e (1)
0x440|                                          07   |              . |      [17]: 7 transition_type 0x44e-0x44f (1)
0x440|                                             06|               .|      [18]: 6 transition_type 0x44f-0x450 (1)
0x450|07                                             |.               |      [19]: 7 transition_type 0x450-0x451 (1)
0x450|   06                                          | .              |      [20]: 6 transition_type 0x451-0x452 (1)
0x450|      07                                       |  .             |      [21]: 7 transition_type 0x452-0x453 (1)
0x450|         06                                    |   .            |      [22]: 6 transition_type 0x453-0x454 (1)
0x450|            07                                 |    .           |      [23]: 7 transition_type 0x454-0x455 (1)
0x450|               06                              |     .          |      [24]: 6 transition_type 0x455-0x456 (1)
0x450|                  07                           |      .         |      [25]: 7 transition_type 0x456-0x457 (1)
0x450|                     06                        |       .        |      [26]: 6 transition_type 0x457-0x458 (1)
0x450|                        07                     |        .       |      [27]: 7 transition_type 0x458-0x459 (1)
0x450|                           06                  |         .      |      [28]: 6 transition_type 0x459-0x45a (1)
0x450|                              07               |          .     |      [29]: 7 transition_type 0x45a-0x45b (1)
0x450|                                 06            |           .    |      [30]: 6 transition_type 0x45b-0x45c (1)
0x450|                                    07         |            .   |      [31]: 7 transition_type 0x45c-0x45d (1)
0x450|                                       06      |             .  |      [32]: 6 transition_type 0x45d-0x45e (1)
0x450|                                          07   |              . |      [33]: 7 transition_type 0x45e-0x45f (1)
0x450|                                             06|               .|      [34]: 6 transition_type 0x45f-0x460 (1)
0x460|07                                             |.               |      [35]: 7 transition_type 0x460-0x461 (1)
0x460|   06                                          | .              |      [36]: 6 transition_type 0x461-0x462 (1)
0x460|      07                                       |  .             |      [37]: 7 transition_type 0x462-0x463 (1)
0x460|         06                                    |   .            |      [38]: 6 transition_type 0x463-0x464 (1)
0x460|            07                                 |    .           |      [39]: 7 transition_type 0x464-0x465 (1)
0x460|               06                              |     .          |      [40]: 6 transition_type 0x465-0x466 (1)
0x460|                  07                           |      .         |      [41]: 7 transition_type 0x466-0x467 (1)
0x460|                     06                        |       .        |      [42]: 6 transition_type 0x467-0x468 (1)
0x460|                        07                     |        .       |      [43]: 7 transition_type 0x468-0x469 (1)
0x460|                           06                  |         .      |      [44]: 6 transition_type 0x469-0x46a (1)
0x460|                              07               |          .     |      [45]: 7 transition_type 0x46a-0x46b (1)
0x460|                                 06            |           .    |      [46]: 6 transition_type 0x46b-0x46c (1)
0x460|                                    07         |            .   |      [47]: 7 transition_type 0x46c-0x46d (1)
0x460|                                       06      |             .  |      [48]: 6 transition_type 0x46d-0x46e (1)
0x460|                                          07   |              . |      [49]: 7 transition_type 0x46e-0x46f (1)
0x460|                                             06|               .|      [50]: 6 transition_type 0x46f-0x470 (1)
0x470|07                                             |.               |      [51]: 7 transition_type 0x470-0x471 (1)
0x470|   07                                          | .              |      [52]: 7 transition_type 0x471-0x472 (1)
     |                                               |                |    local_time_type_records[0:8]: 0x472-0x4a2 (48)
     |                                               |                |      [0]{}: local_time_type 0x472-0x478 (6)
0x470|      ff ff b0 40                              |  ...@          |        utoff: -20416 (valid) 0x472-0x476 (4)
0x470|                  00                           |      .         |        dst: 0 (valid) 0x476-0x477 (1)
0x470|                     00                        |       .        |        idx: 0 (valid) 0x477-0x478 (1)
     |                                               |                |      [1]{}: local_time_type 0x478-0x47e (6)
0x470|                        ff ff b9 b0            |        ....    |        utoff: -18000 (valid) 0x478-0x47c (4)
0x470|                                    01         |            .   |        dst: 1 (valid) 0x47c-0x47d (1)
0x470|                                       04      |             .  |        idx: 4 (valid) 0x47d-0x47e (1)
     |                                               |                |      [2]{}: local_time_type 0x47e-0x484 (6)
0x470|                                          ff ff|              ..|        utoff: -21600 (valid) 0x47e-0x482 (4)
0x480|ab a0                                          |..              |
0x480|      00                                       |  .             |        dst: 0 (valid) 0x482-0x483 (1)
0x480|         08                                    |   .            |        idx: 8 (valid) 0x483-0x484 (1)
     |                                               |                |      [3]{}: local_time_type 0x484-0x48a (6)
0x480|            ff ff b9 b0                        |    ....        |        utoff: -18000 (valid) 0x484-0x488 (4)
0x480|                        01                     |        .       |        dst: 1 (valid) 0x488-0x489 (1)
0x480|                           0c                  |         .      |        idx: 12 (valid) 0x489-0x48a (1)
     |                                               |                |      [4]{}: local_time_type 0x48a-0x490 (6)
0x480|                              ff ff b9 b0      |          ....  |        utoff: -18000 (valid) 0x48a-0x48e (4)
0x480|                                          01   |              . |        dst: 1 (valid) 0x48e-0x48f (1)
0x480|                                             10|               .|        idx: 16 (valid) 0x48f-0x490 (1)
     |                                               |                |      [5]{}: local_time_type 0x490-0x496 (6)
0x490|ff ff ab a0                                    |....            |        utoff: -21600 (valid) 0x490-0x494 (4)
0x490|            00                                 |    .           |        dst: 0 (valid) 0x494-0x495 (1)
0x490|               08                              |     .          |        idx: 8 (valid) 0x495-0x496 (1)
     |                                               |                |      [6]{}: local_time_type 0x496-0x49c (6)
0x490|                  ff ff b9 b0                  |      ....      |        utoff: -18000 (valid) 0x496-0x49a (4)
0x490|                              00               |          .     |        dst: 0 (valid) 0x49a-0x49b (1)
0x490|                                 14            |           .    |        idx: 20 (valid) 0x49b-0x49c (1)
     |                                               |                |      [7]{}: local_time_type 0x49c-0x4a2 (6)
0x490|                                    ff ff c7 c0|            ....|        utoff: -14400 (valid) 0x49c-0x4a0 (4)
0x4a0|01                                             |.               |        dst: 1 (valid) 0x4a0-0x4a1 (1)
0x4a0|   18                                          | .              |        idx: 24 (valid) 0x4a1-0x4a2 (1)
     |                                               |                |    time_zone_designations[0:7]: 0x4a2-0x4be (28)
0x4a0|      4c 4d 54 00                              |  LMT.          |      [0]: "LMT" time_zone_designation 0x4a2-0x4a6 (4)
0x4a0|                  43 44 54 00                  |      CDT.      |      [1]: "CDT" time_zone_designation 0x4a6-0x4aa (4)
0x4a0|                              43 53 54 00      |          CST.  |      [2]: "CST" time_zone_designation 0x4aa-0x4ae (4)
0x4a0|                                          43 57|              CW|      [3]: "CWT" time_zone_designation 0x4ae-0x4b2 (4)
0x4b0|54 00                                          |T.              |
0x4b0|      43 50 54 00                              |  CPT.          |      [4]: "CPT" time_zone_designation 0x4b2-0x4b6 (4)
0x4b0|                  45 53 54 00                  |      EST.      |      [5]: "EST" time_zone_designation 0x4b6-0x4ba (4)
0x4b0|                              45 44 54 00      |          EDT.  |      [6]: "EDT" time_zone_designation 0x4ba-0x4be (4)
     |                                               |                |    leap_second_records[0:27]: 0x4be-0x602 (324)
     |                                               |                |      [0]{}: leap_second_record 0x4be-0x4ca (12)
0x4b0|                                          00 00|              ..|        occur: "1972-07-01T00:00:00Z" (78796800) 0x4be-0x4c6 (8)
0x4c0|00 00 04 b2 58 00                              |....X.          |
0x4c0|                  00 00 00 01                  |      ....      |        corr: 1 0x4c6-0x4ca (4)
     |                                               |                |      [1]{}: leap_second_record 0x4ca-0x4d6 (12)
0x4c0|                              00 00 00 00 05 a4|          ......|        occur: "1973-01-01T00:00:01Z" (94694401) 0x4ca-0x4d2 (8)
0x4d0|ec 01                                          |..              |
0x4d0|      00 00 00 02                              |  ....          |        corr: 2 0x4d2-0x4d6 (4)
     |                                               |                |      [2]{}: leap_second_record 0x4d6-0x4e2 (12)
0x4d0|                  00 00 00 00 07 86 1f 82      |      ........  |        occur: "1974-01-01T00:00:02Z" (126230402) 0x4d6-0x4de (8)
0x4d0|                                          00 00|              ..|        corr: 3 0x4de-0x4e2 (4)
0x4e0|00 03                                          |..              |
     |                                               |                |      [3]{}: leap_second_record 0x4e2-0x4ee (12)
0x4e0|      00 00 00 00 09 67 53 03                  |  .....gS.      |        occur: "1975-01-01T00:00:03Z" (157766403) 0x4e2-0x4ea (8)
0x4e0|                              00 00 00 04      |          ....  |        corr: 4 0x4ea-0x4ee (4)
     |                                               |                |      [4]{}: leap_second_record 0x4ee-0x4fa (12)
0x4e0|                                          00 00|              ..|        occur: "1976-01-01T00:00:04Z" (189302404) 0x4ee-0x4f6 (8)
0x4f0|00 00 0b 48 86 84                              |...H..          |
0x4f0|                  00 00 00 05                  |      ....      |        corr: 5 0x4f6-0x4fa (4)
     |                                               |                |      [5]{}: leap_second_record 0x4fa-0x506 (12)
0x4f0|                              00 00 00 00 0d 2b|          .....+|        occur: "1977-01-01T00:00:05Z" (220924805) 0x4fa-0x502 (8)
0x500|0b 85                                          |..              |
0x500|      00 00 00 06                              |  ....          |        corr: 6 0x502-0x506 (4)
     |                                               |                |      [6]{}: leap_second_record 0x506-0x512 (12)
0x500|                  00 00 00 00 0f 0c 3f 06      |      ......?.  |        occur: "1978-01-01T00:00:06Z" (252460806) 0x506-0x50e (8)
0x500|                                          00 00|              ..|        corr: 7 0x50e-0x512 (4)
0x510|00 07                                          |..              |
     |                                               |                |      [7]{}: leap_second_record 0x512-0x51e (12)
0x510|      00 00 00 00 10 ed 72 87                  |  ......r.      |        occur: "1979-01-01T00:00:07Z" (283996807) 0x512-0x51a (8)
0x510|                              00 00 00 08      |          ....  |        corr: 8 0x51a-0x51e (4)
     |                                               |                |      [8]{}: leap_second_record 0x51e-0x52a (12)
0x510|                                          00 00|              ..|        occur: "1980-01-01T00:00:08Z" (315532808) 0x51e-0x526 (8)
0x520|00 00 12 ce a6 08                              |......          |
0x520|                  00 00 00 09                  |      ....      |        corr: 9 0x526-0x52a (4)
     |                                               |                |      [9]{}: leap_second_record 0x52a-0x536 (12)
0x520|                              00 00 00 00 15 9f|          ......|        occur: "1981-07-01T00:00:09Z" (362793609) 0x52a-0x532 (8)
0x530|ca 89                                          |..              |
0x530|      00 00 00 0a                              |  ....          |        corr: 10 0x532-0x536 (4)
     |                                               |                |      [10]{}: leap_second_record 0x536-0x542 (12)
0x530|                  00 00 00 00 17 80 fe 0a      |      ........  |        occur: "1982-07-01T00:00:10Z" (394329610) 0x536-0x53e (8)
0x530|                                          00 00|              ..|        corr: 11 0x53e-0x542 (4)
0x540|00 0b                                          |..              |
     |                                               |                |      [11]{}: leap_second_record 0x542-0x54e (12)
0x540|      00 00 00 00 19 62 31 8b                  |  .....b1.      |        occur: "1983-07-01T00:00:11Z" (425865611) 0x542-0x54a (8)
0x540|                              00 00 00 0c      |          ....  |        corr: 12 0x54a-0x54e (4)
     |                                               |                |      [12]{}: leap_second_record 0x54e-0x55a (12)
0x540|                                          00 00|              ..|        occur: "1985-07-01T00:00:12Z" (489024012) 0x54e-0x556 (8)
0x550|00 00 1d 25 ea 0c                              |...%..          |
0x550|                  00 00 00 0d                  |      ....      |        corr: 13 0x556-0x55a (4)
     |                                               |                |      [13]{}: leap_second_record 0x55a-0x566 (12)
0x550|                              00 00 00 00 21 da|          ....!.|        occur: "1988-01-01T00:00:13Z" (567993613) 0x55a-0x562 (8)
0x560|e5 0d                                          |..              |
0x560|      00 00 00 0e                              |  ....          |        corr: 14 0x562-0x566 (4)
     |                                               |                |      [14]{}: leap_second_record 0x566-0x572 (12)
0x560|                  00 00 00 00 25 9e 9d 8e      |      ....%...  |        occur: "1990-01-01T00:00:14Z" (631152014) 0x566-0x56e (8)
0x560|                                          00 00|              ..|        corr: 15 0x56e-0x572 (4)
0x570|00 0f                                          |..              |
     |                                               |                |      [15]{}: leap_second_record 0x572-0x57e (12)
0x570|      00 00 00 00 27 7f d1 0f                  |  ....'...      |        occur: "1991-01-01T00:00:15Z" (662688015) 0x572-0x57a (8)
0x570|                              00 00 00 10      |          ....  |        corr: 16 0x57a-0x57e (4)
     |                                               |                |      [16]{}: leap_second_record 0x57e-0x58a (12)
0x570|                                          00 00|              ..|        occur: "1992-07-01T00:00:16Z" (709948816) 0x57e-0x586 (8)
0x580|00 00 2a 50 f5 90                              |..*P..          |
0x580|                  00 00 00 11                  |      ....      |        corr: 17 0x586-0x58a (4)
     |                                               |                |      [17]{}: leap_second_record 0x58a-0x596 (12)
0x580|                              00 00 00 00 2c 32|          ....,2|        occur: "1993-07-01T00:00:17Z" (741484817) 0x58a-0x592 (8)
0x590|29 11                                          |).              |
0x590|      00 00 00 12                              |  ....          |        corr: 18 0x592-0x596 (4)
     |                                               |                |      [18]{}: leap_second_record 0x596-0x5a2 (12)
0x590|                  00 00 00 00 2e 13 5c 92      |      ......\.  |        occur: "1994-07-01T00:00:18Z" (773020818) 0x596-0x59e (8)
0x590|                                          00 00|              ..|        corr: 19 0x59e-0x5a2 (4)
0x5a0|00 13                                          |..              |
     |                                               |                |      [19]{}: leap_second_record 0x5a2-0x5ae (12)
0x5a0|      00 00 00 00 30 e7 24 13                  |  ....0.$.      |        occur: "1996-01-01T00:00:19Z" (820454419) 0x5a2-0x5aa (8)
0x5a0|                              00 00 00 14      |          ....  |        corr: 20 0x5aa-0x5ae (4)
     |                                               |                |      [20]{}: leap_second_record 0x5ae-0x5ba (12)
0x5a0|                                          00 00|              ..|        occur: "1997-07-01T00:00:20Z" (867715220) 0x5ae-0x5b6 (8)
0x5b0|00 00 33 b8 48 94                              |..3.H.          |
0x5b0|                  00 00 00 15                  |      ....      |        corr: 21 0x5b6-0x5ba (4)
     |                                               |                |      [21]{}: leap_second_record 0x5ba-0x5c6 (12)
0x5b0|                              00 00 00 00 36 8c|          ....6.|        occur: "1999-01-01T00:00:21Z" (915148821) 0x5ba-0x5c2 (8)
0x5c0|10 15                                          |..              |
0x5c0|      00 00 00 16                              |  ....          |        corr: 22 0x5c2-0x5c6 (4)
     |                                               |                |      [22]{}: leap_second_record 0x5c6-0x5d2 (12)
0x5c0|                  00 00 00 00 43 b7 1b 96      |      ....C...  |        occur: "2006-01-01T00:00:22Z" (1136073622) 0x5c6-0x5ce (8)
0x5c0|                                          00 00|              ..|        corr: 23 0x5ce-0x5d2 (4)
0x5d0|00 17                                          |..              |
     |                                               |                |      [23]{}: leap_second_record 0x5d2-0x5de (12)
0x5d0|      00 00 00 00 49 5c 07 97                  |  ....I\..      |        occur: "2009-01-01T00:00:23Z" (1230768023) 0x5d2-0x5da (8)
0x5d0|                              00 00 00 18      |          ....  |        corr: 24 0x5da-0x5de (4)
     |                                               |                |      [24]{}: leap_second_record 0x5de-0x5ea (12)
0x5d0|                                          00 00|              ..|        occur: "2012-07-01T00:00:24Z" (1341100824) 0x5de-0x5e6 (8)
0x5e0|00 00 4f ef 93 18                              |..O...          |
0x5e0|                  00 00 00 19                  |      ....      |        corr: 25 0x5e6-0x5ea (4)
     |                                               |                |      [25]{}: leap_second_record 0x5ea-0x5f6 (12)
0x5e0|                              00 00 00 00 55 93|          ....U.|        occur: "2015-07-01T00:00:25Z" (1435708825) 0x5ea-0x5f2 (8)
0x5f0|2d 99                                          |-.              |
0x5f0|      00 00 00 1a                              |  ....          |        corr: 26 0x5f2-0x5f6 (4)
     |                                               |                |      [26]{}: leap_second_record 0x5f6-0x602 (12)
0x5f0|                  00 00 00 00 58 68 46 9a      |      ....XhF.  |        occur: "2017-01-01T00:00:26Z" (1483228826) 0x5f6-0x5fe (8)
0x5f0|                                          00 00|              ..|        corr: 27 0x5fe-0x602 (4)
0x600|00 1b                                          |..              |
     |                                               |                |    standard_wall_indicators[0:8]: 0x602-0x60a (8)
0x600|      00                                       |  .             |      [0]: 0 standard_wall_indicator (valid) 0x602-0x603 (1)
0x600|         00                                    |   .            |      [1]: 0 standard_wall_indicator (valid) 0x603-0x604 (1)
0x600|            00                                 |    .           |      [2]: 0 standard_wall_indicator (valid) 0x604-0x605 (1)
0x600|               00                              |     .          |      [3]: 0 standard_wall_indicator (valid) 0x605-0x606 (1)
0x600|                  01                           |      .         |      [4]: 1 standard_wall_indicator (valid) 0x606-0x607 (1)
0x600|                     01                        |       .        |      [5]: 1 standard_wall_indicator (valid) 0x607-0x608 (1)
0x600|                        00                     |        .       |      [6]: 0 standard_wall_indicator (valid) 0x608-0x609 (1)
0x600|                           00                  |         .      |      [7]: 0 standard_wall_indicator (valid) 0x609-0x60a (1)
     |                                               |                |    ut_local_indicators[0:8]: 0x60a-0x612 (8)
0x600|                              00               |          .     |      [0]: 0 ut_local_indicator (valid) 0x60a-0x60b (1)
0x600|                                 00            |           .    |      [1]: 0 ut_local_indicator (valid) 0x60b-0x60c (1)
0x600|                                    00         |            .   |      [2]: 0 ut_local_indicator (valid) 0x60c-0x60d (1)
0x600|                                       00      |             .  |      [3]: 0 ut_local_indicator (valid) 0x60d-0x60e (1)
0x600|                                          01   |              . |      [4]: 1 ut_local_indicator (valid) 0x60e-0x60f (1)
0x600|                                             01|               .|      [5]: 1 ut_local_indicator (valid) 0x60f-0x610 (1)
0x610|00                                             |.               |      [6]: 0 ut_local_indicator (valid) 0x610-0x611 (1)
0x610|   00                                          | .              |      [7]: 0 ut_local_indicator (valid) 0x611-0x612 (1)
     |                                               |                |  footer{}: 0x612-0x614 (2)
0x610|      0a                                       |  .             |    nl1: 10 (valid) 0x612-0x613 (1)
     |                                               |                |    tz_string: "" 0x613-0x613 (0)
0x610|         0a|                                   |   .|           |    nl2: 10 (valid) 0x613-0x614 (1)
