$ fq -d tzif dv Vienna
     |00 01 02 03 04 05 06 07 08 09 0a 0b 0c 0d 0e 0f|0123456789abcdef|.{}: Vienna (tzif) 0x0-0x898 (2200)
     |                                               |                |  v1header{}: 0x0-0x2c (44)
0x000|54 5a 69 66                                    |TZif            |    magic: 0x545a6966 (valid) 0x0-0x4 (4)
0x000|            32                                 |    2           |    ver: "2" (0x32) (valid) 0x4-0x5 (1)
0x000|               00 00 00 00 00 00 00 00 00 00 00|     ...........|    reserved: raw bits 0x5-0x14 (15)
0x010|00 00 00 00                                    |....            |
0x010|            00 00 00 07                        |    ....        |    isutcnt: 7 0x14-0x18 (4)
0x010|                        00 00 00 07            |        ....    |    isstdcnt: 7 0x18-0x1c (4)
0x010|                                    00 00 00 00|            ....|    leapcnt: 0 0x1c-0x20 (4)
0x020|00 00 00 8b                                    |....            |    timecnt: 139 0x20-0x24 (4)
0x020|            00 00 00 07                        |    ....        |    typecnt: 7 0x24-0x28 (4)
0x020|                        00 00 00 0d            |        ....    |    charcnt: 13 0x28-0x2c (4)
     |                                               |                |  v1datablock{}: 0x2c-0x328 (764)
     |                                               |                |    transition_times[0:139]: 0x2c-0x258 (556)
0x020|                                    80 00 00 00|            ....|      [0]: "1901-12-13T20:45:52Z" (-2147483648) transition_time 0x2c-0x30 (4)
0x030|9b 0c 17 60                                    |...`            |      [1]: "1916-04-30T22:00:00Z" (-1693706400) transition_time 0x30-0x34 (4)
0x030|            9b d5 da f0                        |    ....        |      [2]: "1916-09-30T23:00:00Z" (-1680483600) transition_time 0x34-0x38 (4)
0x030|                        9c d9 ae 90            |        ....    |      [3]: "1917-04-16T01:00:00Z" (-1663455600) transition_time 0x38-0x3c (4)
0x030|                                    9d a4 b5 90|            ....|      [4]: "1917-09-17T01:00:00Z" (-1650150000) transition_time 0x3c-0x40 (4)
0x040|9e b9 90 90                                    |....            |      [5]: "1918-04-15T01:00:00Z" (-1632006000) transition_time 0x40-0x44 (4)
0x040|            9f 84 97 90                        |    ....        |      [6]: "1918-09-16T01:00:00Z" (-1618700400) transition_time 0x44-0x48 (4)
0x040|                        a2 70 1a 10            |        .p..    |      [7]: "1920-04-05T01:00:00Z" (-1569711600) transition_time 0x48-0x4c (4)
0x040|                                    a3 44 5b 90|            .D[.|      [8]: "1920-09-13T01:00:00Z" (-1555801200) transition_time 0x4c-0x50 (4)
0x050|c8 09 71 90                                    |..q.            |      [9]: "1940-04-01T01:00:00Z" (-938905200) transition_time 0x50-0x54 (4)
0x050|            cc e7 4b 10                        |    ..K.        |      [10]: "1942-11-02T01:00:00Z" (-857257200) transition_time 0x54-0x58 (4)
0x050|                        cd a9 17 90            |        ....    |      [11]: "1943-03-29T01:00:00Z" (-844556400) transition_time 0x58-0x5c (4)
0x050|                                    ce a2 43 10|            ..C.|      [12]: "1943-10-04T01:00:00Z" (-828226800) transition_time 0x5c-0x60 (4)
0x060|cf 92 34 10                                    |..4.            |      [13]: "1944-04-03T01:00:00Z" (-812502000) transition_time 0x60-0x64 (4)
0x060|            d0 82 25 10                        |    ..%.        |      [14]: "1944-10-02T01:00:00Z" (-796777200) transition_time 0x64-0x68 (4)
0x060|                        d1 72 16 10            |        .r..    |      [15]: "1945-04-02T01:00:00Z" (-781052400) transition_time 0x68-0x6c (4)
0x060|                                    d1 7f 45 10|            ..E.|      [16]: "1945-04-12T01:00:00Z" (-780188400) transition_time 0x6c-0x70 (4)
0x070|d3 63 1b 90                                    |.c..            |      [17]: "1946-04-14T01:00:00Z" (-748479600) transition_time 0x70-0x74 (4)
0x070|            d4 4b 23 90                        |    .K#.        |      [18]: "1946-10-07T01:00:00Z" (-733273200) transition_time 0x74-0x78 (4)
0x070|                        d5 39 c3 10            |        .9..    |      [19]: "1947-04-06T01:00:00Z" (-717634800) transition_time 0x78-0x7c (4)
0x070|                                    d6 29 b4 10|            .)..|      [20]: "1947-10-05T01:00:00Z" (-701910000) transition_time 0x7c-0x80 (4)
0x080|d7 2c 1a 10                                    |.,..            |      [21]: "1948-04-18T01:00:00Z" (-684975600) transition_time 0x80-0x84 (4)
0x080|            d8 09 96 10                        |    ....        |      [22]: "1948-10-03T01:00:00Z" (-670460400) transition_time 0x84-0x88 (4)
0x080|                        13 4d 27 f0            |        .M'.    |      [23]: "1980-04-05T23:00:00Z" (323823600) transition_time 0x88-0x8c (4)
0x080|                                    14 33 d0 60|            .3.`|      [24]: "1980-09-27T22:00:00Z" (338940000) transition_time 0x8c-0x90 (4)
0x090|15 23 eb 90                                    |.#..            |      [25]: "1981-03-29T01:00:00Z" (354675600) transition_time 0x90-0x94 (4)
0x090|            16 13 dc 90                        |    ....        |      [26]: "1981-09-27T01:00:00Z" (370400400) transition_time 0x94-0x98 (4)
0x090|                        17 03 cd 90            |        ....    |      [27]: "1982-03-28T01:00:00Z" (386125200) transition_time 0x98-0x9c (4)
0x090|                                    17 f3 be 90|            ....|      [28]: "1982-09-26T01:00:00Z" (401850000) transition_time 0x9c-0xa0 (4)
0x0a0|18 e3 af 90                                    |....            |      [29]: "1983-03-27T01:00:00Z" (417574800) transition_time 0xa0-0xa4 (4)
0x0a0|            19 d3 a0 90                        |    ....        |      [30]: "1983-09-25T01:00:00Z" (433299600) transition_time 0xa4-0xa8 (4)
0x0a0|                        1a c3 91 90            |        ....    |      [31]: "1984-03-25T01:00:00Z" (449024400) transition_time 0xa8-0xac (4)
0x0a0|                                    1b bc bd 10|            ....|      [32]: "1984-09-30T01:00:00Z" (465354000) transition_time 0xac-0xb0 (4)
0x0b0|1c ac ae 10                                    |....            |      [33]: "1985-03-31T01:00:00Z" (481078800) transition_time 0xb0-0xb4 (4)
0x0b0|            1d 9c 9f 10                        |    ....        |      [34]: "1985-09-29T01:00:00Z" (496803600) transition_time 0xb4-0xb8 (4)
0x0b0|                        1e 8c 90 10            |        ....    |      [35]: "1986-03-30T01:00:00Z" (512528400) transition_time 0xb8-0xbc (4)
0x0b0|                                    1f 7c 81 10|            .|..|      [36]: "1986-09-28T01:00:00Z" (528253200) transition_time 0xbc-0xc0 (4)
0x0c0|20 6c 72 10                                    | lr.            |      [37]: "1987-03-29T01:00:00Z" (543978000) transition_time 0xc0-0xc4 (4)
0x0c0|            21 5c 63 10                        |    !\c.        |      [38]: "1987-09-27T01:00:00Z" (559702800) transition_time 0xc4-0xc8 (4)
0x0c0|                        22 4c 54 10            |        "LT.    |      [39]: "1988-03-27T01:00:00Z" (575427600) transition_time 0xc8-0xcc (4)
0x0c0|                                    23 3c 45 10|            #<E.|      [40]: "1988-09-25T01:00:00Z" (591152400) transition_time 0xcc-0xd0 (4)
0x0d0|24 2c 36 10                                    |$,6.            |      [41]: "1989-03-26T01:00:00Z" (606877200) transition_time 0xd0-0xd4 (4)
0x0d0|            25 1c 27 10                        |    %.'.        |      [42]: "1989-09-24T01:00:00Z" (622602000) transition_time 0xd4-0xd8 (4)
0x0d0|                        26 0c 18 10            |        &...    |      [43]: "1990-03-25T01:00:00Z" (638326800) transition_time 0xd8-0xdc (4)
0x0d0|                                    27 05 43 90|            '.C.|      [44]: "1990-09-30T01:00:00Z" (654656400) transition_time 0xdc-0xe0 (4)
0x0e0|27 f5 34 90                                    |'.4.            |      [45]: "1991-03-31T01:00:00Z" (670381200) transition_time 0xe0-0xe4 (4)
0x0e0|            28 e5 25 90                        |    (.%.        |      [46]: "1991-09-29T01:00:00Z" (686106000) transition_time 0xe4-0xe8 (4)
0x0e0|                        29 d5 16 90            |        )...    |      [47]: "1992-03-29T01:00:00Z" (701830800) transition_time 0xe8-0xec (4)
0x0e0|                                    2a c5 07 90|            *...|      [48]: "1992-09-27T01:00:00Z" (717555600) transition_time 0xec-0xf0 (4)
0x0f0|2b b4 f8 90                                    |+...            |      [49]: "1993-03-28T01:00:00Z" (733280400) transition_time 0xf0-0xf4 (4)
0x0f0|            2c a4 e9 90                        |    ,...        |      [50]: "1993-09-26T01:00:00Z" (749005200) transition_time 0xf4-0xf8 (4)
0x0f0|                        2d 94 da 90            |        -...    |      [51]: "1994-03-27T01:00:00Z" (764730000) transition_time 0xf8-0xfc (4)
0x0f0|                                    2e 84 cb 90|            ....|      [52]: "1994-09-25T01:00:00Z" (780454800) transition_time 0xfc-0x100 (4)
0x100|2f 74 bc 90                                    |/t..            |      [53]: "1995-03-26T01:00:00Z" (796179600) transition_time 0x100-0x104 (4)
0x100|            30 64 ad 90                        |    0d..        |      [54]: "1995-09-24T01:00:00Z" (811904400) transition_time 0x104-0x108 (4)
0x100|                        31 5d d9 10            |        1]..    |      [55]: "1996-03-31T01:00:00Z" (828234000) transition_time 0x108-0x10c (4)
0x100|                                    32 72 b4 10|            2r..|      [56]: "1996-10-27T01:00:00Z" (846378000) transition_time 0x10c-0x110 (4)
0x110|33 3d bb 10                                    |3=..            |      [57]: "1997-03-30T01:00:00Z" (859683600) transition_time 0x110-0x114 (4)
0x110|            34 52 96 10                        |    4R..        |      [58]: "1997-10-26T01:00:00Z" (877827600) transition_time 0x114-0x118 (4)
0x110|                        35 1d 9d 10            |        5...    |      [59]: "1998-03-29T01:00:00Z" (891133200) transition_time 0x118-0x11c (4)
0x110|                                    36 32 78 10|            62x.|      [60]: "1998-10-25T01:00:00Z" (909277200) transition_time 0x11c-0x120 (4)
0x120|36 fd 7f 10                                    |6...            |      [61]: "1999-03-28T01:00:00Z" (922582800) transition_time 0x120-0x124 (4)
0x120|            38 1b 94 90                        |    8...        |      [62]: "1999-10-31T01:00:00Z" (941331600) transition_time 0x124-0x128 (4)
0x120|                        38 dd 61 10            |        8.a.    |      [63]: "2000-03-26T01:00:00Z" (954032400) transition_time 0x128-0x12c (4)
0x120|                                    39 fb 76 90|            9.v.|      [64]: "2000-10-29T01:00:00Z" (972781200) transition_time 0x12c-0x130 (4)
0x130|3a bd 43 10                                    |:.C.            |      [65]: "2001-03-25T01:00:00Z" (985482000) transition_time 0x130-0x134 (4)
0x130|            3b db 58 90                        |    ;.X.        |      [66]: "2001-10-28T01:00:00Z" (1004230800) transition_time 0x134-0x138 (4)
0x130|                        3c a6 5f 90            |        <._.    |      [67]: "2002-03-31T01:00:00Z" (1017536400) transition_time 0x138-0x13c (4)
0x130|                                    3d bb 3a 90|            =.:.|      [68]: "2002-10-27T01:00:00Z" (1035680400) transition_time 0x13c-0x140 (4)
0x140|3e 86 41 90                                    |>.A.            |      [69]: "2003-03-30T01:00:00Z" (1048986000) transition_time 0x140-0x144 (4)
0x140|            3f 9b 1c 90                        |    ?...        |      [70]: "2003-10-26T01:00:00Z" (1067130000) transition_time 0x144-0x148 (4)
0x140|                        40 66 23 90            |        @f#.    |      [71]: "2004-03-28T01:00:00Z" (1080435600) transition_time 0x148-0x14c (4)
0x140|                                    41 84 39 10|            A.9.|      [72]: "2004-10-31T01:00:00Z" (1099184400) transition_time 0x14c-0x150 (4)
0x150|42 46 05 90                                    |BF..            |      [73]: "2005-03-27T01:00:00Z" (1111885200) transition_time 0x150-0x154 (4)
0x150|            43 64 1b 10                        |    Cd..        |      [74]: "2005-10-30T01:00:00Z" (1130634000) transition_time 0x154-0x158 (4)
0x150|                        44 25 e7 90            |        D%..    |      [75]: "2006-03-26T01:00:00Z" (1143334800) transition_time 0x158-0x15c (4)
0x150|                                    45 43 fd 10|            EC..|      [76]: "2006-10-29T01:00:00Z" (1162083600) transition_time 0x15c-0x160 (4)
0x160|46 05 c9 90                                    |F...            |      [77]: "2007-03-25T01:00:00Z" (1174784400) transition_time 0x160-0x164 (4)
0x160|            47 23 df 10                        |    G#..        |      [78]: "2007-10-28T01:00:00Z" (1193533200) transition_time 0x164-0x168 (4)
0x160|                        47 ee e6 10            |        G...    |      [79]: "2008-03-30T01:00:00Z" (1206838800) transition_time 0x168-0x16c (4)
0x160|                                    49 03 c1 10|            I...|      [80]: "2008-10-26T01:00:00Z" (1224982800) transition_time 0x16c-0x170 (4)
0x170|49 ce c8 10                                    |I...            |      [81]: "2009-03-29T01:00:00Z" (1238288400) transition_time 0x170-0x174 (4)
0x170|            4a e3 a3 10                        |    J...        |      [82]: "2009-10-25T01:00:00Z" (1256432400) transition_time 0x174-0x178 (4)
0x170|                        4b ae aa 10            |        K...    |      [83]: "2010-03-28T01:00:00Z" (1269738000) transition_time 0x178-0x17c (4)
0x170|                                    4c cc bf 90|            L...|      [84]: "2010-10-31T01:00:00Z" (1288486800) transition_time 0x17c-0x180 (4)
0x180|4d 8e 8c 10                                    |M...            |      [85]: "2011-03-27T01:00:00Z" (1301187600) transition_time 0x180-0x184 (4)
0x180|            4e ac a1 90                        |    N...        |      [86]: "2011-10-30T01:00:00Z" (1319936400) transition_time 0x184-0x188 (4)
0x180|                        4f 6e 6e 10            |        Onn.    |      [87]: "2012-03-25T01:00:00Z" (1332637200) transition_time 0x188-0x18c (4)
0x180|                                    50 8c 83 90|            P...|      [88]: "2012-10-28T01:00:00Z" (1351386000) transition_time 0x18c-0x190 (4)
0x190|51 57 8a 90                                    |QW..            |      [89]: "2013-03-31T01:00:00Z" (1364691600) transition_time 0x190-0x194 (4)
0x190|            52 6c 65 90                        |    Rle.        |      [90]: "2013-10-27T01:00:00Z" (1382835600) transition_time 0x194-0x198 (4)
0x190|                        53 37 6c 90            |        S7l.    |      [91]: "2014-03-30T01:00:00Z" (1396141200) transition_time 0x198-0x19c (4)
0x190|                                    54 4c 47 90|            TLG.|      [92]: "2014-10-26T01:00:00Z" (1414285200) transition_time 0x19c-0x1a0 (4)
0x1a0|55 17 4e 90                                    |U.N.            |      [93]: "2015-03-29T01:00:00Z" (1427590800) transition_time 0x1a0-0x1a4 (4)
0x1a0|            56 2c 29 90                        |    V,).        |      [94]: "2015-10-25T01:00:00Z" (1445734800) transition_time 0x1a4-0x1a8 (4)
0x1a0|                        56 f7 30 90            |        V.0.    |      [95]: "2016-03-27T01:00:00Z" (1459040400) transition_time 0x1a8-0x1ac (4)
0x1a0|                                    58 15 46 10|            X.F.|      [96]: "2016-10-30T01:00:00Z" (1477789200) transition_time 0x1ac-0x1b0 (4)
0x1b0|58 d7 12 90                                    |X...            |      [97]: "2017-03-26T01:00:00Z" (1490490000) transition_time 0x1b0-0x1b4 (4)
0x1b0|            59 f5 28 10                        |    Y.(.        |      [98]: "2017-10-29T01:00:00Z" (1509238800) transition_time 0x1b4-0x1b8 (4)
0x1b0|                        5a b6 f4 90            |        Z...    |      [99]: "2018-03-25T01:00:00Z" (1521939600) transition_time 0x1b8-0x1bc (4)
0x1b0|                                    5b d5 0a 10|            [...|      [100]: "2018-10-28T01:00:00Z" (1540688400) transition_time 0x1bc-0x1c0 (4)
0x1c0|5c a0 11 10                                    |\...            |      [101]: "2019-03-31T01:00:00Z" (1553994000) transition_time 0x1c0-0x1c4 (4)
0x1c0|            5d b4 ec 10                        |    ]...        |      [102]: "2019-10-27T01:00:00Z" (1572138000) transition_time 0x1c4-0x1c8 (4)
0x1c0|                        5e 7f f3 10            |        ^...    |      [103]: "2020-03-29T01:00:00Z" (1585443600) transition_time 0x1c8-0x1cc (4)
0x1c0|                                    5f 94 ce 10|            _...|      [104]: "2020-10-25T01:00:00Z" (1603587600) transition_time 0x1cc-0x1d0 (4)
0x1d0|60 5f d5 10                                    |`_..            |      [105]: "2021-03-28T01:00:00Z" (1616893200) transition_time 0x1d0-0x1d4 (4)
0x1d0|            61 7d ea 90                        |    a}..        |      [106]: "2021-10-31T01:00:00Z" (1635642000) transition_time 0x1d4-0x1d8 (4)
0x1d0|                        62 3f b7 10            |        b?..    |      [107]: "2022-03-27T01:00:00Z" (1648342800) transition_time 0x1d8-0x1dc (4)
0x1d0|                                    63 5d cc 90|            c]..|      [108]: "2022-10-30T01:00:00Z" (1667091600) transition_time 0x1dc-0x1e0 (4)
0x1e0|64 1f 99 10                                    |d...            |      [109]: "2023-03-26T01:00:00Z" (1679792400) transition_time 0x1e0-0x1e4 (4)
0x1e0|            65 3d ae 90                        |    e=..        |      [110]: "2023-10-29T01:00:00Z" (1698541200) transition_time 0x1e4-0x1e8 (4)
0x1e0|                        66 08 b5 90            |        f...    |      [111]: "2024-03-31T01:00:00Z" (1711846800) transition_time 0x1e8-0x1ec (4)
0x1e0|                                    67 1d 90 90|            g...|      [112]: "2024-10-27T01:00:00Z" (1729990800) transition_time 0x1ec-0x1f0 (4)
0x1f0|67 e8 97 90                                    |g...            |      [113]: "2025-03-30T01:00:00Z" (1743296400) transition_time 0x1f0-0x1f4 (4)
0x1f0|            68 fd 72 90                        |    h.r.        |      [114]: "2025-10-26T01:00:00Z" (1761440400) transition_time 0x1f4-0x1f8 (4)
0x1f0|                        69 c8 79 90            |        i.y.    |      [115]: "2026-03-29T01:00:00Z" (1774746000) transition_time 0x1f8-0x1fc (4)
0x1f0|                                    6a dd 54 90|            j.T.|      [116]: "2026-10-25T01:00:00Z" (1792890000) transition_time 0x1fc-0x200 (4)
0x200|6b a8 5b 90                                    |k.[.            |      [117]: "2027-03-28T01:00:00Z" (1806195600) transition_time 0x200-0x204 (4)
0x200|            6c c6 71 10                        |    l.q.        |      [118]: "2027-10-31T01:00:00Z" (1824944400) transition_time 0x204-0x208 (4)
0x200|                        6d 88 3d 90            |        m.=.    |      [119]: "2028-03-26T01:00:00Z" (1837645200) transition_time 0x208-0x20c (4)
0x200|                                    6e a6 53 10|            n.S.|      [120]: "2028-10-29T01:00:00Z" (1856394000) transition_time 0x20c-0x210 (4)
0x210|6f 68 1f 90                                    |oh..            |      [121]: "2029-03-25T01:00:00Z" (1869094800) transition_time 0x210-0x214 (4)
0x210|            70 86 35 10                        |    p.5.        |      [122]: "2029-10-28T01:00:00Z" (1887843600) transition_time 0x214-0x218 (4)
0x210|                        71 51 3c 10            |        qQ<.    |      [123]: "2030-03-31T01:00:00Z" (1901149200) transition_time 0x218-0x21c (4)
0x210|                                    72 66 17 10|            rf..|      [124]: "2030-10-27T01:00:00Z" (1919293200) transition_time 0x21c-0x220 (4)
0x220|73 31 1e 10                                    |s1..            |      [125]: "2031-03-30T01:00:00Z" (1932598800) transition_time 0x220-0x224 (4)
0x220|            74 45 f9 10                        |    tE..        |      [126]: "2031-10-26T01:00:00Z" (1950742800) transition_time 0x224-0x228 (4)
0x220|                        75 11 00 10            |        u...    |      [127]: "2032-03-28T01:00:00Z" (1964048400) transition_time 0x228-0x22c (4)
0x220|                                    76 2f 15 90|            v/..|      [128]: "2032-10-31T01:00:00Z" (1982797200) transition_time 0x22c-0x230 (4)
0x230|76 f0 e2 10                                    |v...            |      [129]: "2033-03-27T01:00:00Z" (1995498000) transition_time 0x230-0x234 (4)
0x230|            78 0e f7 90                        |    x...        |      [130]: "2033-10-30T01:00:00Z" (2014246800) transition_time 0x234-0x238 (4)
0x230|                        78 d0 c4 10            |        x...    |      [131]: "2034-03-26T01:00:00Z" (2026947600) transition_time 0x238-0x23c (4)
0x230|                                    79 ee d9 90|            y...|      [132]: "2034-10-29T01:00:00Z" (2045696400) transition_time 0x23c-0x240 (4)
0x240|7a b0 a6 10                                    |z...            |      [133]: "2035-03-25T01:00:00Z" (2058397200) transition_time 0x240-0x244 (4)
0x240|            7b ce bb 90                        |    {...        |      [134]: "2035-10-28T01:00:00Z" (2077146000) transition_time 0x244-0x248 (4)
0x240|                        7c 99 c2 90            |        |...    |      [135]: "2036-03-30T01:00:00Z" (2090451600) transition_time 0x248-0x24c (4)
0x240|                                    7d ae 9d 90|            }...|      [136]: "2036-10-26T01:00:00Z" (2108595600) transition_time 0x24c-0x250 (4)
0x250|7e 79 a4 90                                    |~y..            |      [137]: "2037-03-29T01:00:00Z" (2121901200) transition_time 0x250-0x254 (4)
0x250|            7f 8e 7f 90                        |    ....        |      [138]: "2037-10-25T01:00:00Z" (2140045200) transition_time 0x254-0x258 (4)
     |                                               |                |    transition_types[0:139]: 0x258-0x2e3 (139)
0x250|                        02                     |        .       |      [0]: 2 transition_type 0x258-0x259 (1)
0x250|                           01                  |         .      |      [1]: 1 transition_type 0x259-0x25a (1)
0x250|                              02               |          .     |      [2]: 2 transition_type 0x25a-0x25b (1)
0x250|                                 03            |           .    |      [3]: 3 transition_type 0x25b-0x25c (1)
0x250|                                    04         |            .   |      [4]: 4 transition_type 0x25c-0x25d (1)
0x250|                                       03      |             .  |      [5]: 3 transition_type 0x25d-0x25e (1)
0x250|                                          04   |              . |      [6]: 4 transition_type 0x25e-0x25f (1)
0x250|                                             03|               .|      [7]: 3 transition_type 0x25f-0x260 (1)
0x260|04                                             |.               |      [8]: 4 transition_type 0x260-0x261 (1)
0x260|   03                                          | .              |      [9]: 3 transition_type 0x261-0x262 (1)
0x260|      04                                       |  .             |      [10]: 4 transition_type 0x262-0x263 (1)
0x260|         03                                    |   .            |      [11]: 3 transition_type 0x263-0x264 (1)
0x260|            04                                 |    .           |      [12]: 4 transition_type 0x264-0x265 (1)
0x260|               03                              |     .          |      [13]: 3 transition_type 0x265-0x266 (1)
0x260|                  04                           |      .         |      [14]: 4 transition_type 0x266-0x267 (1)
0x260|                     03                        |       .        |      [15]: 3 transition_type 0x267-0x268 (1)
0x260|                        04                     |        .       |      [16]: 4 transition_type 0x268-0x269 (1)
0x260|                           03                  |         .      |      [17]: 3 transition_type 0x269-0x26a (1)
0x260|                              04               |          .     |      [18]: 4 transition_type 0x26a-0x26b (1)
0x260|                                 03            |           .    |      [19]: 3 transition_type 0x26b-0x26c (1)
0x260|                                    04         |            .   |      [20]: 4 transition_type 0x26c-0x26d (1)
0x260|                                       03      |             .  |      [21]: 3 transition_type 0x26d-0x26e (1)
0x260|                                          04   |              . |      [22]: 4 transition_type 0x26e-0x26f (1)
0x260|                                             01|               .|      [23]: 1 transition_type 0x26f-0x270 (1)
0x270|02                                             |.               |      [24]: 2 transition_type 0x270-0x271 (1)
0x270|   05                                          | .              |      [25]: 5 transition_type 0x271-0x272 (1)
0x270|      06                                       |  .             |      [26]: 6 transition_type 0x272-0x273 (1)
0x270|         05                                    |   .            |      [27]: 5 transition_type 0x273-0x274 (1)
0x270|            06                                 |    .           |      [28]: 6 transition_type 0x274-0x275 (1)
0x270|               05                              |     .          |      [29]: 5 transition_type 0x275-0x276 (1)
0x270|                  06                           |      .         |      [30]: 6 transition_type 0x276-0x277 (1)
0x270|                     05                        |       .        |      [31]: 5 transition_type 0x277-0x278 (1)
0x270|                        06                     |        .       |      [32]: 6 transition_type 0x278-0x279 (1)
0x270|                           05                  |         .      |      [33]: 5 transition_type 0x279-0x27a (1)
0x270|                              06               |          .     |      [34]: 6 transition_type 0x27a-0x27b (1)
0x270|                                 05            |           .    |      [35]: 5 transition_type 0x27b-0x27c (1)
0x270|                                    06         |            .   |      [36]: 6 transition_type 0x27c-0x27d (1)
0x270|                                       05      |             .  |      [37]: 5 transition_type 0x27d-0x27e (1)
0x270|                                          06   |              . |      [38]: 6 transition_type 0x27e-0x27f (1)
0x270|                                             05|               .|      [39]: 5 transition_type 0x27f-0x280 (1)
0x280|06                                             |.               |      [40]: 6 transition_type 0x280-0x281 (1)
0x280|   05                                          | .              |      [41]: 5 transition_type 0x281-0x282 (1)
0x280|      06                                       |  .             |      [42]: 6 transition_type 0x282-0x283 (1)
0x280|         05                                    |   .            |      [43]: 5 transition_type 0x283-0x284 (1)
0x280|            06                                 |    .           |      [44]: 6 transition_type 0x284-0x285 (1)
0x280|               05                              |     .          |      [45]: 5 transition_type 0x285-0x286 (1)
0x280|                  06                           |      .         |      [46]: 6 transition_type 0x286-0x287 (1)
0x280|                     05                        |       .        |      [47]: 5 transition_type 0x287-0x288 (1)
0x280|                        06                     |        .       |      [48]: 6 transition_type 0x288-0x289 (1)
0x280|                           05                  |         .      |      [49]: 5 transition_type 0x289-0x28a (1)
0x280|                              06               |          .     |      [50]: 6 transition_type 0x28a-0x28b (1)
0x280|                                 05            |           .    |      [51]: 5 transition_type 0x28b-0x28c (1)
0x280|                                    06         |            .   |      [52]: 6 transition_type 0x28c-0x28d (1)
0x280|                                       05      |             .  |      [53]: 5 transition_type 0x28d-0x28e (1)
0x280|                                          06   |              . |      [54]: 6 transition_type 0x28e-0x28f (1)
0x280|                                             05|               .|      [55]: 5 transition_type 0x28f-0x290 (1)
0x290|06                                             |.               |      [56]: 6 transition_type 0x290-0x291 (1)
0x290|   05                                          | .              |      [57]: 5 transition_type 0x291-0x292 (1)
0x290|      06                                       |  .             |      [58]: 6 transition_type 0x292-0x293 (1)
0x290|         05                                    |   .            |      [59]: 5 transition_type 0x293-0x294 (1)
0x290|            06                                 |    .           |      [60]: 6 transition_type 0x294-0x295 (1)
0x290|               05                              |     .          |      [61]: 5 transition_type 0x295-0x296 (1)
0x290|                  06                           |      .         |      [62]: 6 transition_type 0x296-0x297 (1)
0x290|                     05                        |       .        |      [63]: 5 transition_type 0x297-0x298 (1)
0x290|                        06                     |        .       |      [64]: 6 transition_type 0x298-0x299 (1)
0x290|                           05                  |         .      |      [65]: 5 transition_type 0x299-0x29a (1)
0x290|                              06               |          .     |      [66]: 6 transition_type 0x29a-0x29b (1)
0x290|                                 05            |           .    |      [67]: 5 transition_type 0x29b-0x29c (1)
0x290|                                    06         |            .   |      [68]: 6 transition_type 0x29c-0x29d (1)
0x290|                                       05      |             .  |      [69]: 5 transition_type 0x29d-0x29e (1)
0x290|                                          06   |              . |      [70]: 6 transition_type 0x29e-0x29f (1)
0x290|                                             05|               .|      [71]: 5 transition_type 0x29f-0x2a0 (1)
0x2a0|06                                             |.               |      [72]: 6 transition_type 0x2a0-0x2a1 (1)
0x2a0|   05                                          | .              |      [73]: 5 transition_type 0x2a1-0x2a2 (1)
0x2a0|      06                                       |  .             |      [74]: 6 transition_type 0x2a2-0x2a3 (1)
0x2a0|         05                                    |   .            |      [75]: 5 transition_type 0x2a3-0x2a4 (1)
0x2a0|            06                                 |    .           |      [76]: 6 transition_type 0x2a4-0x2a5 (1)
0x2a0|               05                              |     .          |      [77]: 5 transition_type 0x2a5-0x2a6 (1)
0x2a0|                  06                           |      .         |      [78]: 6 transition_type 0x2a6-0x2a7 (1)
0x2a0|                     05                        |       .        |      [79]: 5 transition_type 0x2a7-0x2a8 (1)
0x2a0|                        06                     |        .       |      [80]: 6 transition_type 0x2a8-0x2a9 (1)
0x2a0|                           05                  |         .      |      [81]: 5 transition_type 0x2a9-0x2aa (1)
0x2a0|                              06               |          .     |      [82]: 6 transition_type 0x2aa-0x2ab (1)
0x2a0|                                 05            |           .    |      [83]: 5 transition_type 0x2ab-0x2ac (1)
0x2a0|                                    06         |            .   |      [84]: 6 transition_type 0x2ac-0x2ad (1)
0x2a0|                                       05      |             .  |      [85]: 5 transition_type 0x2ad-0x2ae (1)
0x2a0|                                          06   |              . |      [86]: 6 transition_type 0x2ae-0x2af (1)
0x2a0|                                             05|               .|      [87]: 5 transition_type 0x2af-0x2b0 (1)
0x2b0|06                                             |.               |      [88]: 6 transition_type 0x2b0-0x2b1 (1)
0x2b0|   05                                          | .              |      [89]: 5 transition_type 0x2b1-0x2b2 (1)
0x2b0|      06                                       |  .             |      [90]: 6 transition_type 0x2b2-0x2b3 (1)
0x2b0|         05                                    |   .            |      [91]: 5 transition_type 0x2b3-0x2b4 (1)
0x2b0|            06                                 |    .           |      [92]: 6 transition_type 0x2b4-0x2b5 (1)
0x2b0|               05                              |     .          |      [93]: 5 transition_type 0x2b5-0x2b6 (1)
0x2b0|                  06                           |      .         |      [94]: 6 transition_type 0x2b6-0x2b7 (1)
0x2b0|                     05                        |       .        |      [95]: 5 transition_type 0x2b7-0x2b8 (1)
0x2b0|                        06                     |        .       |      [96]: 6 transition_type 0x2b8-0x2b9 (1)
0x2b0|                           05                  |         .      |      [97]: 5 transition_type 0x2b9-0x2ba (1)
0x2b0|                              06               |          .     |      [98]: 6 transition_type 0x2ba-0x2bb (1)
0x2b0|                                 05            |           .    |      [99]: 5 transition_type 0x2bb-0x2bc (1)
0x2b0|                                    06         |            .   |      [100]: 6 transition_type 0x2bc-0x2bd (1)
0x2b0|                                       05      |             .  |      [101]: 5 transition_type 0x2bd-0x2be (1)
0x2b0|                                          06   |              . |      [102]: 6 transition_type 0x2be-0x2bf (1)
0x2b0|                                             05|               .|      [103]: 5 transition_type 0x2bf-0x2c0 (1)
0x2c0|06                                             |.               |      [104]: 6 transition_type 0x2c0-0x2c1 (1)
0x2c0|   05                                          | .              |      [105]: 5 transition_type 0x2c1-0x2c2 (1)
0x2c0|      06                                       |  .             |      [106]: 6 transition_type 0x2c2-0x2c3 (1)
0x2c0|         05                                    |   .            |      [107]: 5 transition_type 0x2c3-0x2c4 (1)
0x2c0|            06                                 |    .           |      [108]: 6 transition_type 0x2c4-0x2c5 (1)
0x2c0|               05                              |     .          |      [109]: 5 transition_type 0x2c5-0x2c6 (1)
0x2c0|                  06                           |      .         |      [110]: 6 transition_type 0x2c6-0x2c7 (1)
0x2c0|                     05                        |       .        |      [111]: 5 transition_type 0x2c7-0x2c8 (1)
0x2c0|                        06                     |        .       |      [112]: 6 transition_type 0x2c8-0x2c9 (1)
0x2c0|                           05                  |         .      |      [113]: 5 transition_type 0x2c9-0x2ca (1)
0x2c0|                              06               |          .     |      [114]: 6 transition_type 0x2ca-0x2cb (1)
0x2c0|                                 05            |           .    |      [115]: 5 transition_type 0x2cb-0x2cc (1)
0x2c0|                                    06         |            .   |      [116]: 6 transition_type 0x2cc-0x2cd (1)
0x2c0|                                       05      |             .  |      [117]: 5 transition_type 0x2cd-0x2ce (1)
0x2c0|                                          06   |              . |      [118]: 6 transition_type 0x2ce-0x2cf (1)
0x2c0|                                             05|               .|      [119]: 5 transition_type 0x2cf-0x2d0 (1)
0x2d0|06                                             |.               |      [120]: 6 transition_type 0x2d0-0x2d1 (1)
0x2d0|   05                                          | .              |      [121]: 5 transition_type 0x2d1-0x2d2 (1)
0x2d0|      06                                       |  .             |      [122]: 6 transition_type 0x2d2-0x2d3 (1)
0x2d0|         05                                    |   .            |      [123]: 5 transition_type 0x2d3-0x2d4 (1)
0x2d0|            06                                 |    .           |      [124]: 6 transition_type 0x2d4-0x2d5 (1)
0x2d0|               05                              |     .          |      [125]: 5 transition_type 0x2d5-0x2d6 (1)
0x2d0|                  06                           |      .         |      [126]: 6 transition_type 0x2d6-0x2d7 (1)
0x2d0|                     05                        |       .        |      [127]: 5 transition_type 0x2d7-0x2d8 (1)
0x2d0|                        06                     |        .       |      [128]: 6 transition_type 0x2d8-0x2d9 (1)
0x2d0|                           05                  |         .      |      [129]: 5 transition_type 0x2d9-0x2da (1)
0x2d0|                              06               |          .     |      [130]: 6 transition_type 0x2da-0x2db (1)
0x2d0|                                 05            |           .    |      [131]: 5 transition_type 0x2db-0x2dc (1)
0x2d0|                                    06         |            .   |      [132]: 6 transition_type 0x2dc-0x2dd (1)
0x2d0|                                       05      |             .  |      [133]: 5 transition_type 0x2dd-0x2de (1)
0x2d0|                                          06   |              . |      [134]: 6 transition_type 0x2de-0x2df (1)
0x2d0|                                             05|               .|      [135]: 5 transition_type 0x2df-0x2e0 (1)
0x2e0|06                                             |.               |      [136]: 6 transition_type 0x2e0-0x2e1 (1)
0x2e0|   05                                          | .              |      [137]: 5 transition_type 0x2e1-0x2e2 (1)
0x2e0|      06                                       |  .             |      [138]: 6 transition_type 0x2e2-0x2e3 (1)
     |                                               |                |    local_time_type_records[0:7]: 0x2e3-0x30d (42)
     |                                               |                |      [0]{}: local_time_type 0x2e3-0x2e9 (6)
0x2e0|         00 00 0f 51                           |   ...Q         |        utoff: 3921 (valid) 0x2e3-0x2e7 (4)
0x2e0|                     00                        |       .        |        dst: 0 (valid) 0x2e7-0x2e8 (1)
0x2e0|                        00                     |        .       |        idx: 0 (valid) 0x2e8-0x2e9 (1)
     |                                               |                |      [1]{}: local_time_type 0x2e9-0x2ef (6)
0x2e0|                           00 00 1c 20         |         ...    |        utoff: 7200 (valid) 0x2e9-0x2ed (4)
0x2e0|                                       01      |             .  |        dst: 1 (valid) 0x2ed-0x2ee (1)
0x2e0|                                          04   |              . |        idx: 4 (valid) 0x2ee-0x2ef (1)
     |                                               |                |      [2]{}: local_time_type 0x2ef-0x2f5 (6)
0x2e0|                                             00|               .|        utoff: 3600 (valid) 0x2ef-0x2f3 (4)
0x2f0|00 0e 10                                       |...             |
0x2f0|         00                                    |   .            |        dst: 0 (valid) 0x2f3-0x2f4 (1)
0x2f0|            09                                 |    .           |        idx: 9 (valid) 0x2f4-0x2f5 (1)
     |                                               |                |      [3]{}: local_time_type 0x2f5-0x2fb (6)
0x2f0|               00 00 1c 20                     |     ...        |        utoff: 7200 (valid) 0x2f5-0x2f9 (4)
0x2f0|                           01                  |         .      |        dst: 1 (valid) 0x2f9-0x2fa (1)
0x2f0|                              04               |          .     |        idx: 4 (valid) 0x2fa-0x2fb (1)
     |                                               |                |      [4]{}: local_time_type 0x2fb-0x301 (6)
0x2f0|                                 00 00 0e 10   |           .... |        utoff: 3600 (valid) 0x2fb-0x2ff (4)
0x2f0|                                             00|               .|        dst: 0 (valid) 0x2ff-0x300 (1)
0x300|09                                             |.               |        idx: 9 (valid) 0x300-0x301 (1)
     |                                               |                |      [5]{}: local_time_type 0x301-0x307 (6)
0x300|   00 00 1c 20                                 | ...            |        utoff: 7200 (valid) 0x301-0x305 (4)
0x300|               01                              |     .          |        dst: 1 (valid) 0x305-0x306 (1)
0x300|                  04                           |      .         |        idx: 4 (valid) 0x306-0x307 (1)
     |                                               |                |      [6]{}: local_time_type 0x307-0x30d (6)
0x300|                     00 00 0e 10               |       ....     |        utoff: 3600 (valid) 0x307-0x30b (4)
0x300|                                 00            |           .    |        dst: 0 (valid) 0x30b-0x30c (1)
0x300|                                    09         |            .   |        idx: 9 (valid) 0x30c-0x30d (1)
     |                                               |                |    time_zone_designations[0:3]: 0x30d-0x31a (13)
0x300|                                       4c 4d 54|             LMT|      [0]: "LMT" time_zone_designation 0x30d-0x311 (4)
0x310|00                                             |.               |
0x310|   43 45 53 54 00                              | CEST.          |      [1]: "CEST" time_zone_designation 0x311-0x316 (5)
0x310|                  43 45 54 00                  |      CET.      |      [2]: "CET" time_zone_designation 0x316-0x31a (4)
     |                                               |                |    leap_second_records[0:0]: 0x31a-0x31a (0)
     |                                               |                |    standard_wall_indicators[0:7]: 0x31a-0x321 (7)
0x310|                              00               |          .     |      [0]: 0 standard_wall_indicator (valid) 0x31a-0x31b (1)
0x310|                                 00            |           .    |      [1]: 0 standard_wall_indicator (valid) 0x31b-0x31c (1)
0x310|                                    00         |            .   |      [2]: 0 standard_wall_indicator (valid) 0x31c-0x31d (1)
0x310|                                       01      |             .  |      [3]: 1 standard_wall_indicator (valid) 0x31d-0x31e (1)
0x310|                                          01   |              . |      [4]: 1 standard_wall_indicator (valid) 0x31e-0x31f (1)
0x310|                                             01|               .|      [5]: 1 standard_wall_indicator (valid) 0x31f-0x320 (1)
0x320|01                                             |.               |      [6]: 1 standard_wall_indicator (valid) 0x320-0x321 (1)
     |                                               |                |    ut_local_indicators[0:7]: 0x321-0x328 (7)
0x320|   00                                          | .              |      [0]: 0 ut_local_indicator (valid) 0x321-0x322 (1)
0x320|      00                                       |  .             |      [1]: 0 ut_local_indicator (valid) 0x322-0x323 (1)
0x320|         00                                    |   .            |      [2]: 0 ut_local_indicator (valid) 0x323-0x324 (1)
0x320|            00                                 |    .           |      [3]: 0 ut_local_indicator (valid) 0x324-0x325 (1)
0x320|               00                              |     .          |      [4]: 0 ut_local_indicator (valid) 0x325-0x326 (1)
0x320|                  01                           |      .         |      [5]: 1 ut_local_indicator (valid) 0x326-0x327 (1)
0x320|                     01                        |       .        |      [6]: 1 ut_local_indicator (valid) 0x327-0x328 (1)
     |                                               |                |  v2plusheader{}: 0x328-0x354 (44)
0x320|                        54 5a 69 66            |        TZif    |    magic: 0x545a6966 (valid) 0x328-0x32c (4)
0x320|                                    32         |            2   |    ver: "2" (0x32) (valid) 0x32c-0x32d (1)
0x320|                                       00 00 00|             ...|    reserved: raw bits 0x32d-0x33c (15)
0x330|00 00 00 00 00 00 00 00 00 00 00 00            |............    |
0x330|                                    00 00 00 07|            ....|    isutcnt: 7 0x33c-0x340 (4)
0x340|00 00 00 07                                    |....            |    isstdcnt: 7 0x340-0x344 (4)
0x340|            00 00 00 00                        |    ....        |    leapcnt: 0 0x344-0x348 (4)
0x340|                        00 00 00 8b            |        ....    |    timecnt: 139 0x348-0x34c (4)
0x340|                                    00 00 00 07|            ....|    typecnt: 7 0x34c-0x350 (4)
0x350|00 00 00 0d                                    |....            |    charcnt: 13 0x350-0x354 (4)
     |                                               |                |  v2plusdatablock{}: 0x354-0x87c (1320)
     |                                               |                |    transition_times[0:139]: 0x354-0x7ac (1112)
0x350|            ff ff ff ff 6f a2 5f 2f            |    ....o._/    |      [0]: "1893-03-31T22:54:39Z" (-2422055121) transition_time 0x354-0x35c (8)
0x350|                                    ff ff ff ff|            ....|      [1]: "1916-04-30T22:00:00Z" (-1693706400) transition_time 0x35c-0x364 (8)
0x360|9b 0c 17 60                                    |...`            |
0x360|            ff ff ff ff 9b d5 da f0            |    ........    |      [2]: "1916-09-30T23:00:00Z" (-1680483600) transition_time 0x364-0x36c (8)
0x360|                                    ff ff ff ff|            ....|      [3]: "1917-04-16T01:00:00Z" (-1663455600) transition_time 0x36c-0x374 (8)
0x370|9c d9 ae 90                                    |....            |
0x370|            ff ff ff ff 9d a4 b5 90            |    ........    |      [4]: "1917-09-17T01:00:00Z" (-1650150000) transition_time 0x374-0x37c (8)
0x370|                                    ff ff ff ff|            ....|      [5]: "1918-04-15T01:00:00Z" (-1632006000) transition_time 0x37c-0x384 (8)
0x380|9e b9 90 90                                    |....            |
0x380|            ff ff ff ff 9f 84 97 90            |    ........    |      [6]: "1918-09-16T01:00:00Z" (-1618700400) transition_time 0x384-0x38c (8)
0x380|                                    ff ff ff ff|            ....|      [7]: "1920-04-05T01:00:00Z" (-1569711600) transition_time 0x38c-0x394 (8)
0x390|a2 70 1a 10                                    |.p..            |
0x390|            ff ff ff ff a3 44 5b 90            |    .....D[.    |      [8]: "1920-09-13T01:00:00Z" (-1555801200) transition_time 0x394-0x39c (8)
0x390|                                    ff ff ff ff|            ....|      [9]: "1940-04-01T01:00:00Z" (-938905200) transition_time 0x39c-0x3a4 (8)
0x3a0|c8 09 71 90                                    |..q.            |
0x3a0|            ff ff ff ff cc e7 4b 10            |    ......K.    |      [10]: "1942-11-02T01:00:00Z" (-857257200) transition_time 0x3a4-0x3ac (8)
0x3a0|                                    ff ff ff ff|            ....|      [11]: "1943-03-29T01:00:00Z" (-844556400) transition_time 0x3ac-0x3b4 (8)
0x3b0|cd a9 17 90                                    |....            |
0x3b0|            ff ff ff ff ce a2 43 10            |    ......C.    |      [12]: "1943-10-04T01:00:00Z" (-828226800) transition_time 0x3b4-0x3bc (8)
0x3b0|                                    ff ff ff ff|            ....|      [13]: "1944-04-03T01:00:00Z" (-812502000) transition_time 0x3bc-0x3c4 (8)
0x3c0|cf 92 34 10                                    |..4.            |
0x3c0|            ff ff ff ff d0 82 25 10            |    ......%.    |      [14]: "1944-10-02T01:00:00Z" (-796777200) transition_time 0x3c4-0x3cc (8)
0x3c0|                                    ff ff ff ff|            ....|      [15]: "1945-04-02T01:00:00Z" (-781052400) transition_time 0x3cc-0x3d4 (8)
0x3d0|d1 72 16 10                                    |.r..            |
0x3d0|            ff ff ff ff d1 7f 45 10            |    ......E.    |      [16]: "1945-04-12T01:00:00Z" (-780188400) transition_time 0x3d4-0x3dc (8)
0x3d0|                                    ff ff ff ff|            ....|      [17]: "1946-04-14T01:00:00Z" (-748479600) transition_time 0x3dc-0x3e4 (8)
0x3e0|d3 63 1b 90                                    |.c..            |
0x3e0|            ff ff ff ff d4 4b 23 90            |    .....K#.    |      [18]: "1946-10-07T01:00:00Z" (-733273200) transition_time 0x3e4-0x3ec (8)
0x3e0|                                    ff ff ff ff|            ....|      [19]: "1947-04-06T01:00:00Z" (-717634800) transition_time 0x3ec-0x3f4 (8)
0x3f0|d5 39 c3 10                                    |.9..            |
0x3f0|            ff ff ff ff d6 29 b4 10            |    .....)..    |      [20]: "1947-10-05T01:00:00Z" (-701910000) transition_time 0x3f4-0x3fc (8)
0x3f0|                                    ff ff ff ff|            ....|      [21]: "1948-04-18T01:00:00Z" (-684975600) transition_time 0x3fc-0x404 (8)
0x400|d7 2c 1a 10                                    |.,..            |
0x400|            ff ff ff ff d8 09 96 10            |    ........    |      [22]: "1948-10-03T01:00:00Z" (-670460400) transition_time 0x404-0x40c (8)
0x400|                                    00 00 00 00|            ....|      [23]: "1980-04-05T23:00:00Z" (323823600) transition_time 0x40c-0x414 (8)
0x410|13 4d 27 f0                                    |.M'.            |
0x410|            00 00 00 00 14 33 d0 60            |    .....3.`    |      [24]: "1980-09-27T22:00:00Z" (338940000) transition_time 0x414-0x41c (8)
0x410|                                    00 00 00 00|            ....|      [25]: "1981-03-29T01:00:00Z" (354675600) transition_time 0x41c-0x424 (8)
0x420|15 23 eb 90                                    |.#..            |
0x420|            00 00 00 00 16 13 dc 90            |    ........    |      [26]: "1981-09-27T01:00:00Z" (370400400) transition_time 0x424-0x42c (8)
0x420|                                    00 00 00 00|            ....|      [27]: "1982-03-28T01:00:00Z" (386125200) transition_time 0x42c-0x434 (8)
0x430|17 03 cd 90                                    |....            |
0x430|            00 00 00 00 17 f3 be 90            |    ........    |      [28]: "1982-09-26T01:00:00Z" (401850000) transition_time 0x434-0x43c (8)
0x430|                                    00 00 00 00|            ....|      [29]: "1983-03-27T01:00:00Z" (417574800) transition_time 0x43c-0x444 (8)
0x440|18 e3 af 90                                    |....            |
0x440|            00 00 00 00 19 d3 a0 90            |    ........    |      [30]: "1983-09-25T01:00:00Z" (433299600) transition_time 0x444-0x44c (8)
0x440|                                    00 00 00 00|            ....|      [31]: "1984-03-25T01:00:00Z" (449024400) transition_time 0x44c-0x454 (8)
0x450|1a c3 91 90                                    |....            |
0x450|            00 00 00 00 1b bc bd 10            |    ........    |      [32]: "1984-09-30T01:00:00Z" (465354000) transition_time 0x454-0x45c (8)
0x450|                                    00 00 00 00|            ....|      [33]: "1985-03-31T01:00:00Z" (481078800) transition_time 0x45c-0x464 (8)
0x460|1c ac ae 10                                    |....            |
0x460|            00 00 00 00 1d 9c 9f 10            |    ........    |      [34]: "1985-09-29T01:00:00Z" (496803600) transition_time 0x464-0x46c (8)
0x460|                                    00 00 00 00|            ....|      [35]: "1986-03-30T01:00:00Z" (512528400) transition_time 0x46c-0x474 (8)
0x470|1e 8c 90 10                                    |....            |
0x470|            00 00 00 00 1f 7c 81 10            |    .....|..    |      [36]: "1986-09-28T01:00:00Z" (528253200) transition_time 0x474-0x47c (8)
0x470|                                    00 00 00 00|            ....|      [37]: "1987-03-29T01:00:00Z" (543978000) transition_time 0x47c-0x484 (8)
0x480|20 6c 72 10                                    | lr.            |
0x480|            00 00 00 00 21 5c 63 10            |    ....!\c.    |      [38]: "1987-09-27T01:00:00Z" (559702800) transition_time 0x484-0x48c (8)
0x480|                                    00 00 00 00|            ....|      [39]: "1988-03-27T01:00:00Z" (575427600) transition_time 0x48c-0x494 (8)
0x490|22 4c 54 10                                    |"LT.            |
0x490|            00 00 00 00 23 3c 45 10            |    ....#<E.    |      [40]: "1988-09-25T01:00:00Z" (591152400) transition_time 0x494-0x49c (8)
0x490|                                    00 00 00 00|            ....|      [41]: "1989-03-26T01:00:00Z" (606877200) transition_time 0x49c-0x4a4 (8)
0x4a0|24 2c 36 10                                    |$,6.            |
0x4a0|            00 00 00 00 25 1c 27 10            |    ....%.'.    |      [42]: "1989-09-24T01:00:00Z" (622602000) transition_time 0x4a4-0x4ac (8)
0x4a0|                                    00 00 00 00|            ....|      [43]: "1990-03-25T01:00:00Z" (638326800) transition_time 0x4ac-0x4b4 (8)
0x4b0|26 0c 18 10                                    |&...            |
0x4b0|            00 00 00 00 27 05 43 90            |    ....'.C.    |      [44]: "1990-09-30T01:00:00Z" (654656400) transition_time 0x4b4-0x4bc (8)
0x4b0|                                    00 00 00 00|            ....|      [45]: "1991-03-31T01:00:00Z" (670381200) transition_time 0x4bc-0x4c4 (8)
0x4c0|27 f5 34 90                                    |'.4.            |
0x4c0|            00 00 00 00 28 e5 25 90            |    ....(.%.    |      [46]: "1991-09-29T01:00:00Z" (686106000) transition_time 0x4c4-0x4cc (8)
0x4c0|                                    00 00 00 00|            ....|      [47]: "1992-03-29T01:00:00Z" (701830800) transition_time 0x4cc-0x4d4 (8)
0x4d0|29 d5 16 90                                    |)...            |
0x4d0|            00 00 00 00 2a c5 07 90            |    ....*...    |      [48]: "1992-09-27T01:00:00Z" (717555600) transition_time 0x4d4-0x4dc (8)
0x4d0|                                    00 00 00 00|            ....|      [49]: "1993-03-28T01:00:00Z" (733280400) transition_time 0x4dc-0x4e4 (8)
0x4e0|2b b4 f8 90                                    |+...            |
0x4e0|            00 00 00 00 2c a4 e9 90            |    ....,...    |      [50]: "1993-09-26T01:00:00Z" (749005200) transition_time 0x4e4-0x4ec (8)
0x4e0|                                    00 00 00 00|            ....|      [51]: "1994-03-27T01:00:00Z" (764730000) transition_time 0x4ec-0x4f4 (8)
0x4f0|2d 94 da 90                                    |-...            |
0x4f0|            00 00 00 00 2e 84 cb 90            |    ........    |      [52]: "1994-09-25T01:00:00Z" (780454800) transition_time 0x4f4-0x4fc (8)
0x4f0|                                    00 00 00 00|            ....|      [53]: "1995-03-26T01:00:00Z" (796179600) transition_time 0x4fc-0x504 (8)
0x500|2f 74 bc 90                                    |/t..            |
0x500|            00 00 00 00 30 64 ad 90            |    ....0d..    |      [54]: "1995-09-24T01:00:00Z" (811904400) transition_time 0x504-0x50c (8)
0x500|                                    00 00 00 00|            ....|      [55]: "1996-03-31T01:00:00Z" (828234000) transition_time 0x50c-0x514 (8)
0x510|31 5d d9 10                                    |1]..            |
0x510|            00 00 00 00 32 72 b4 10            |    ....2r..    |      [56]: "1996-10-27T01:00:00Z" (846378000) transition_time 0x514-0x51c (8)
0x510|                                    00 00 00 00|            ....|      [57]: "1997-03-30T01:00:00Z" (859683600) transition_time 0x51c-0x524 (8)
0x520|33 3d bb 10                                    |3=..            |
0x520|            00 00 00 00 34 52 96 10            |    ....4R..    |      [58]: "1997-10-26T01:00:00Z" (877827600) transition_time 0x524-0x52c (8)
0x520|                                    00 00 00 00|            ....|      [59]: "1998-03-29T01:00:00Z" (891133200) transition_time 0x52c-0x534 (8)
0x530|35 1d 9d 10                                    |5...            |
0x530|            00 00 00 00 36 32 78 10            |    ....62x.    |      [60]: "1998-10-25T01:00:00Z" (909277200) transition_time 0x534-0x53c (8)
0x530|                                    00 00 00 00|            ....|      [61]: "1999-03-28T01:00:00Z" (922582800) transition_time 0x53c-0x544 (8)
0x540|36 fd 7f 10                                    |6...            |
0x540|            00 00 00 00 38 1b 94 90            |    ....8...    |      [62]: "1999-10-31T01:00:00Z" (941331600) transition_time 0x544-0x54c (8)
0x540|                                    00 00 00 00|            ....|      [63]: "2000-03-26T01:00:00Z" (954032400) transition_time 0x54c-0x554 (8)
0x550|38 dd 61 10                                    |8.a.            |
0x550|            00 00 00 00 39 fb 76 90            |    ....9.v.    |      [64]: "2000-10-29T01:00:00Z" (972781200) transition_time 0x554-0x55c (8)
0x550|                                    00 00 00 00|            ....|      [65]: "2001-03-25T01:00:00Z" (985482000) transition_time 0x55c-0x564 (8)
0x560|3a bd 43 10                                    |:.C.            |
0x560|            00 00 00 00 3b db 58 90            |    ....;.X.    |      [66]: "2001-10-28T01:00:00Z" (1004230800) transition_time 0x564-0x56c (8)
0x560|                                    00 00 00 00|            ....|      [67]: "2002-03-31T01:00:00Z" (1017536400) transition_time 0x56c-0x574 (8)
0x570|3c a6 5f 90                                    |<._.            |
0x570|            00 00 00 00 3d bb 3a 90            |    ....=.:.    |      [68]: "2002-10-27T01:00:00Z" (1035680400) transition_time 0x574-0x57c (8)
0x570|                                    00 00 00 00|            ....|      [69]: "2003-03-30T01:00:00Z" (1048986000) transition_time 0x57c-0x584 (8)
0x580|3e 86 41 90                                    |>.A.            |
0x580|            00 00 00 00 3f 9b 1c 90            |    ....?...    |      [70]: "2003-10-26T01:00:00Z" (1067130000) transition_time 0x584-0x58c (8)
0x580|                                    00 00 00 00|            ....|      [71]: "2004-03-28T01:00:00Z" (1080435600) transition_time 0x58c-0x594 (8)
0x590|40 66 23 90                                    |@f#.            |
0x590|            00 00 00 00 41 84 39 10            |    ....A.9.    |      [72]: "2004-10-31T01:00:00Z" (1099184400) transition_time 0x594-0x59c (8)
0x590|                                    00 00 00 00|            ....|      [73]: "2005-03-27T01:00:00Z" (1111885200) transition_time 0x59c-0x5a4 (8)
0x5a0|42 46 05 90                                    |BF..            |
0x5a0|            00 00 00 00 43 64 1b 10            |    ....Cd..    |      [74]: "2005-10-30T01:00:00Z" (1130634000) transition_time 0x5a4-0x5ac (8)
0x5a0|                                    00 00 00 00|            ....|      [75]: "2006-03-26T01:00:00Z" (1143334800) transition_time 0x5ac-0x5b4 (8)
0x5b0|44 25 e7 90                                    |D%..            |
0x5b0|            00 00 00 00 45 43 fd 10            |    ....EC..    |      [76]: "2006-10-29T01:00:00Z" (1162083600) transition_time 0x5b4-0x5bc (8)
0x5b0|                                    00 00 00 00|            ....|      [77]: "2007-03-25T01:00:00Z" (1174784400) transition_time 0x5bc-0x5c4 (8)
0x5c0|46 05 c9 90                                    |F...            |
0x5c0|            00 00 00 00 47 23 df 10            |    ....G#..    |      [78]: "2007-10-28T01:00:00Z" (1193533200) transition_time 0x5c4-0x5cc (8)
0x5c0|                                    00 00 00 00|            ....|      [79]: "2008-03-30T01:00:00Z" (1206838800) transition_time 0x5cc-0x5d4 (8)
0x5d0|47 ee e6 10                                    |G...            |
0x5d0|            00 00 00 00 49 03 c1 10            |    ....I...    |      [80]: "2008-10-26T01:00:00Z" (1224982800) transition_time 0x5d4-0x5dc (8)
0x5d0|                                    00 00 00 00|            ....|      [81]: "2009-03-29T01:00:00Z" (1238288400) transition_time 0x5dc-0x5e4 (8)
0x5e0|49 ce c8 10                                    |I...            |
0x5e0|            00 00 00 00 4a e3 a3 10            |    ....J...    |      [82]: "2009-10-25T01:00:00Z" (1256432400) transition_time 0x5e4-0x5ec (8)
0x5e0|                                    00 00 00 00|            ....|      [83]: "2010-03-28T01:00:00Z" (1269738000) transition_time 0x5ec-0x5f4 (8)
0x5f0|4b ae aa 10                                    |K...            |
0x5f0|            00 00 00 00 4c cc bf 90            |    ....L...    |      [84]: "2010-10-31T01:00:00Z" (1288486800) transition_time 0x5f4-0x5fc (8)
0x5f0|                                    00 00 00 00|            ....|      [85]: "2011-03-27T01:00:00Z" (1301187600) transition_time 0x5fc-0x604 (8)
0x600|4d 8e 8c 10                                    |M...            |
0x600|            00 00 00 00 4e ac a1 90            |    ....N...    |      [86]: "2011-10-30T01:00:00Z" (1319936400) transition_time 0x604-0x60c (8)
0x600|                                    00 00 00 00|            ....|      [87]: "2012-03-25T01:00:00Z" (1332637200) transition_time 0x60c-0x614 (8)
0x610|4f 6e 6e 10                                    |Onn.            |
0x610|            00 00 00 00 50 8c 83 90            |    ....P...    |      [88]: "2012-10-28T01:00:00Z" (1351386000) transition_time 0x614-0x61c (8)
0x610|                                    00 00 00 00|            ....|      [89]: "2013-03-31T01:00:00Z" (1364691600) transition_time 0x61c-0x624 (8)
0x620|51 57 8a 90                                    |QW..            |
0x620|            00 00 00 00 52 6c 65 90            |    ....Rle.    |      [90]: "2013-10-27T01:00:00Z" (1382835600) transition_time 0x624-0x62c (8)
0x620|                                    00 00 00 00|            ....|      [91]: "2014-03-30T01:00:00Z" (1396141200) transition_time 0x62c-0x634 (8)
0x630|53 37 6c 90                                    |S7l.            |
0x630|            00 00 00 00 54 4c 47 90            |    ....TLG.    |      [92]: "2014-10-26T01:00:00Z" (1414285200) transition_time 0x634-0x63c (8)
0x630|                                    00 00 00 00|            ....|      [93]: "2015-03-29T01:00:00Z" (1427590800) transition_time 0x63c-0x644 (8)
0x640|55 17 4e 90                                    |U.N.            |
0x640|            00 00 00 00 56 2c 29 90            |    ....V,).    |      [94]: "2015-10-25T01:00:00Z" (1445734800) transition_time 0x644-0x64c (8)
0x640|                                    00 00 00 00|            ....|      [95]: "2016-03-27T01:00:00Z" (1459040400) transition_time 0x64c-0x654 (8)
0x650|56 f7 30 90                                    |V.0.            |
0x650|            00 00 00 00 58 15 46 10            |    ....X.F.    |      [96]: "2016-10-30T01:00:00Z" (1477789200) transition_time 0x654-0x65c (8)
0x650|                                    00 00 00 00|            ....|      [97]: "2017-03-26T01:00:00Z" (1490490000) transition_time 0x65c-0x664 (8)
0x660|58 d7 12 90                                    |X...            |
0x660|            00 00 00 00 59 f5 28 10            |    ....Y.(.    |      [98]: "2017-10-29T01:00:00Z" (1509238800) transition_time 0x664-0x66c (8)
0x660|                                    00 00 00 00|            ....|      [99]: "2018-03-25T01:00:00Z" (1521939600) transition_time 0x66c-0x674 (8)
0x670|5a b6 f4 90                                    |Z...            |
0x670|            00 00 00 00 5b d5 0a 10            |    ....[...    |      [100]: "2018-10-28T01:00:00Z" (1540688400) transition_time 0x674-0x67c (8)
0x670|                                    00 00 00 00|            ....|      [101]: "2019-03-31T01:00:00Z" (1553994000) transition_time 0x67c-0x684 (8)
0x680|5c a0 11 10                                    |\...            |
0x680|            00 00 00 00 5d b4 ec 10            |    ....]...    |      [102]: "2019-10-27T01:00:00Z" (1572138000) transition_time 0x684-0x68c (8)
0x680|                                    00 00 00 00|            ....|      [103]: "2020-03-29T01:00:00Z" (1585443600) transition_time 0x68c-0x694 (8)
0x690|5e 7f f3 10                                    |^...            |
0x690|            00 00 00 00 5f 94 ce 10            |    ...._...    |      [104]: "2020-10-25T01:00:00Z" (1603587600) transition_time 0x694-0x69c (8)
0x690|                                    00 00 00 00|            ....|      [105]: "2021-03-28T01:00:00Z" (1616893200) transition_time 0x69c-0x6a4 (8)
0x6a0|60 5f d5 10                                    |`_..            |
0x6a0|            00 00 00 00 61 7d ea 90            |    ....a}..    |      [106]: "2021-10-31T01:00:00Z" (1635642000) transition_time 0x6a4-0x6ac (8)
0x6a0|                                    00 00 00 00|            ....|      [107]: "2022-03-27T01:00:00Z" (1648342800) transition_time 0x6ac-0x6b4 (8)
0x6b0|62 3f b7 10                                    |b?..            |
0x6b0|            00 00 00 00 63 5d cc 90            |    ....c]..    |      [108]: "2022-10-30T01:00:00Z" (1667091600) transition_time 0x6b4-0x6bc (8)
0x6b0|                                    00 00 00 00|            ....|      [109]: "2023-03-26T01:00:00Z" (1679792400) transition_time 0x6bc-0x6c4 (8)
0x6c0|64 1f 99 10                                    |d...            |
0x6c0|            00 00 00 00 65 3d ae 90            |    ....e=..    |      [110]: "2023-10-29T01:00:00Z" (1698541200) transition_time 0x6c4-0x6cc (8)
0x6c0|                                    00 00 00 00|            ....|      [111]: "2024-03-31T01:00:00Z" (1711846800) transition_time 0x6cc-0x6d4 (8)
0x6d0|66 08 b5 90                                    |f...            |
0x6d0|            00 00 00 00 67 1d 90 90            |    ....g...    |      [112]: "2024-10-27T01:00:00Z" (1729990800) transition_time 0x6d4-0x6dc (8)
0x6d0|                                    00 00 00 00|            ....|      [113]: "2025-03-30T01:00:00Z" (1743296400) transition_time 0x6dc-0x6e4 (8)
0x6e0|67 e8 97 90                                    |g...            |
0x6e0|            00 00 00 00 68 fd 72 90            |    ....h.r.    |      [114]: "2025-10-26T01:00:00Z" (1761440400) transition_time 0x6e4-0x6ec (8)
0x6e0|                                    00 00 00 00|            ....|      [115]: "2026-03-29T01:00:00Z" (1774746000) transition_time 0x6ec-0x6f4 (8)
0x6f0|69 c8 79 90                                    |i.y.            |
0x6f0|            00 00 00 00 6a dd 54 90            |    ....j.T.    |      [116]: "2026-10-25T01:00:00Z" (1792890000) transition_time 0x6f4-0x6fc (8)
0x6f0|                                    00 00 00 00|            ....|      [117]: "2027-03-28T01:00:00Z" (1806195600) transition_time 0x6fc-0x704 (8)
0x700|6b a8 5b 90                                    |k.[.            |
0x700|            00 00 00 00 6c c6 71 10            |    ....l.q.    |      [118]: "2027-10-31T01:00:00Z" (1824944400) transition_time 0x704-0x70c (8)
0x700|                                    00 00 00 00|            ....|      [119]: "2028-03-26T01:00:00Z" (1837645200) transition_time 0x70c-0x714 (8)
0x710|6d 88 3d 90                                    |m.=.            |
0x710|            00 00 00 00 6e a6 53 10            |    ....n.S.    |      [120]: "2028-10-29T01:00:00Z" (1856394000) transition_time 0x714-0x71c (8)
0x710|                                    00 00 00 00|            ....|      [121]: "2029-03-25T01:00:00Z" (1869094800) transition_time 0x71c-0x724 (8)
0x720|6f 68 1f 90                                    |oh..            |
0x720|            00 00 00 00 70 86 35 10            |    ....p.5.    |      [122]: "2029-10-28T01:00:00Z" (1887843600) transition_time 0x724-0x72c (8)
0x720|                                    00 00 00 00|            ....|      [123]: "2030-03-31T01:00:00Z" (1901149200) transition_time 0x72c-0x734 (8)
0x730|71 51 3c 10                                    |qQ<.            |
0x730|            00 00 00 00 72 66 17 10            |    ....rf..    |      [124]: "2030-10-27T01:00:00Z" (1919293200) transition_time 0x734-0x73c (8)
0x730|                                    00 00 00 00|            ....|      [125]: "2031-03-30T01:00:00Z" (1932598800) transition_time 0x73c-0x744 (8)
0x740|73 31 1e 10                                    |s1..            |
0x740|            00 00 00 00 74 45 f9 10            |    ....tE..    |      [126]: "2031-10-26T01:00:00Z" (1950742800) transition_time 0x744-0x74c (8)
0x740|                                    00 00 00 00|            ....|      [127]: "2032-03-28T01:00:00Z" (1964048400) transition_time 0x74c-0x754 (8)
0x750|75 11 00 10                                    |u...            |
0x750|            00 00 00 00 76 2f 15 90            |    ....v/..    |      [128]: "2032-10-31T01:00:00Z" (1982797200) transition_time 0x754-0x75c (8)
0x750|                                    00 00 00 00|            ....|      [129]: "2033-03-27T01:00:00Z" (1995498000) transition_time 0x75c-0x764 (8)
0x760|76 f0 e2 10                                    |v...            |
0x760|            00 00 00 00 78 0e f7 90            |    ....x...    |      [130]: "2033-10-30T01:00:00Z" (2014246800) transition_time 0x764-0x76c (8)
0x760|                                    00 00 00 00|            ....|      [131]: "2034-03-26T01:00:00Z" (2026947600) transition_time 0x76c-0x774 (8)
0x770|78 d0 c4 10                                    |x...            |
0x770|            00 00 00 00 79 ee d9 90            |    ....y...    |      [132]: "2034-10-29T01:00:00Z" (2045696400) transition_time 0x774-0x77c (8)
0x770|                                    00 00 00 00|            ....|      [133]: "2035-03-25T01:00:00Z" (2058397200) transition_time 0x77c-0x784 (8)
0x780|7a b0 a6 10                                    |z...            |
0x780|            00 00 00 00 7b ce bb 90            |    ....{...    |      [134]: "2035-10-28T01:00:00Z" (2077146000) transition_time 0x784-0x78c (8)
0x780|                                    00 00 00 00|            ....|      [135]: "2036-03-30T01:00:00Z" (2090451600) transition_time 0x78c-0x794 (8)
0x790|7c 99 c2 90                                    ||...            |
0x790|            00 00 00 00 7d ae 9d 90            |    ....}...    |      [136]: "2036-10-26T01:00:00Z" (2108595600) transition_time 0x794-0x79c (8)
0x790|                                    00 00 00 00|            ....|      [137]: "2037-03-29T01:00:00Z" (2121901200) transition_time 0x79c-0x7a4 (8)
0x7a0|7e 79 a4 90                                    |~y..            |
0x7a0|            00 00 00 00 7f 8e 7f 90            |    ........    |      [138]: "2037-10-25T01:00:00Z" (2140045200) transition_time 0x7a4-0x7ac (8)
     |                                               |                |    transition_types[0:139]: 0x7ac-0x837 (139)
0x7a0|                                    02         |            .   |      [0]: 2 transition_type 0x7ac-0x7ad (1)
0x7a0|                                       01      |             .  |      [1]: 1 transition_type 0x7ad-0x7ae (1)
0x7a0|                                          02   |              . |      [2]: 2 transition_type 0x7ae-0x7af (1)
0x7a0|                                             03|               .|      [3]: 3 transition_type 0x7af-0x7b0 (1)
0x7b0|04                                             |.               |      [4]: 4 transition_type 0x7b0-0x7b1 (1)
0x7b0|   03                                          | .              |      [5]: 3 transition_type 0x7b1-0x7b2 (1)
0x7b0|      04                                       |  .             |      [6]: 4 transition_type 0x7b2-0x7b3 (1)
0x7b0|         03                                    |   .            |      [7]: 3 transition_type 0x7b3-0x7b4 (1)
0x7b0|            04                                 |    .           |      [8]: 4 transition_type 0x7b4-0x7b5 (1)
0x7b0|               03                              |     .          |      [9]: 3 transition_type 0x7b5-0x7b6 (1)
0x7b0|                  04                           |      .         |      [10]: 4 transition_type 0x7b6-0x7b7 (1)
0x7b0|                     03                        |       .        |      [11]: 3 transition_type 0x7b7-0x7b8 (1)
0x7b0|                        04                     |        .       |      [12]: 4 transition_type 0x7b8-0x7b9 (1)
0x7b0|                           03                  |         .      |      [13]: 3 transition_type 0x7b9-0x7ba (1)
0x7b0|                              04               |          .     |      [14]: 4 transition_type 0x7ba-0x7bb (1)
0x7b0|                                 03            |           .    |      [15]: 3 transition_type 0x7bb-0x7bc (1)
0x7b0|                                    04         |            .   |      [16]: 4 transition_type 0x7bc-0x7bd (1)
0x7b0|                                       03      |             .  |      [17]: 3 transition_type 0x7bd-0x7be (1)
0x7b0|                                          04   |              . |      [18]: 4 transition_type 0x7be-0x7bf (1)
0x7b0|                                             03|               .|      [19]: 3 transition_type 0x7bf-0x7c0 (1)
0x7c0|04                                             |.               |      [20]: 4 transition_type 0x7c0-0x7c1 (1)
0x7c0|   03                                          | .              |      [21]: 3 transition_type 0x7c1-0x7c2 (1)
0x7c0|      04                                       |  .             |      [22]: 4 transition_type 0x7c2-0x7c3 (1)
0x7c0|         01                                    |   .            |      [23]: 1 transition_type 0x7c3-0x7c4 (1)
0x7c0|            02                                 |    .           |      [24]: 2 transition_type 0x7c4-0x7c5 (1)
0x7c0|               05                              |     .          |      [25]: 5 transition_type 0x7c5-0x7c6 (1)
0x7c0|                  06                           |      .         |      [26]: 6 transition_type 0x7c6-0x7c7 (1)
0x7c0|                     05                        |       .        |      [27]: 5 transition_type 0x7c7-0x7c8 (1)
0x7c0|                        06                     |        .       |      [28]: 6 transition_type 0x7c8-0x7c9 (1)
0x7c0|                           05                  |         .      |      [29]: 5 transition_type 0x7c9-0x7ca (1)
0x7c0|                              06               |          .     |      [30]: 6 transition_type 0x7ca-0x7cb (1)
0x7c0|                                 05            |           .    |      [31]: 5 transition_type 0x7cb-0x7cc (1)
0x7c0|                                    06         |            .   |      [32]: 6 transition_type 0x7cc-0x7cd (1)
0x7c0|                                       05      |             .  |      [33]: 5 transition_type 0x7cd-0x7ce (1)
0x7c0|                                          06   |              . |      [34]: 6 transition_type 0x7ce-0x7cf (1)
0x7c0|                                             05|               .|      [35]: 5 transition_type 0x7cf-0x7d0 (1)
0x7d0|06                                             |.               |      [36]: 6 transition_type 0x7d0-0x7d1 (1)
0x7d0|   05                                          | .              |      [37]: 5 transition_type 0x7d1-0x7d2 (1)
0x7d0|      06                                       |  .             |      [38]: 6 transition_type 0x7d2-0x7d3 (1)
0x7d0|         05                                    |   .            |      [39]: 5 transition_type 0x7d3-0x7d4 (1)
0x7d0|            06                                 |    .           |      [40]: 6 transition_type 0x7d4-0x7d5 (1)
0x7d0|               05                              |     .          |      [41]: 5 transition_type 0x7d5-0x7d6 (1)
0x7d0|                  06                           |      .         |      [42]: 6 transition_type 0x7d6-0x7d7 (1)
0x7d0|                     05                        |       .        |      [43]: 5 transition_type 0x7d7-0x7d8 (1)
0x7d0|                        06                     |        .       |      [44]: 6 transition_type 0x7d8-0x7d9 (1)
0x7d0|                           05                  |         .      |      [45]: 5 transition_type 0x7d9-0x7da (1)
0x7d0|                              06               |          .     |      [46]: 6 transition_type 0x7da-0x7db (1)
0x7d0|                                 05            |           .    |      [47]: 5 transition_type 0x7db-0x7dc (1)
0x7d0|                                    06         |            .   |      [48]: 6 transition_type 0x7dc-0x7dd (1)
0x7d0|                                       05      |             .  |      [49]: 5 transition_type 0x7dd-0x7de (1)
0x7d0|                                          06   |              . |      [50]: 6 transition_type 0x7de-0x7df (1)
0x7d0|                                             05|               .|      [51]: 5 transition_type 0x7df-0x7e0 (1)
0x7e0|06                                             |.               |      [52]: 6 transition_type 0x7e0-0x7e1 (1)
0x7e0|   05                                          | .              |      [53]: 5 transition_type 0x7e1-0x7e2 (1)
0x7e0|      06                                       |  .             |      [54]: 6 transition_type 0x7e2-0x7e3 (1)
0x7e0|         05                                    |   .            |      [55]: 5 transition_type 0x7e3-0x7e4 (1)
0x7e0|            06                                 |    .           |      [56]: 6 transition_type 0x7e4-0x7e5 (1)
0x7e0|               05                              |     .          |      [57]: 5 transition_type 0x7e5-0x7e6 (1)
0x7e0|                  06                           |      .         |      [58]: 6 transition_type 0x7e6-0x7e7 (1)
0x7e0|                     05                        |       .        |      [59]: 5 transition_type 0x7e7-0x7e8 (1)
0x7e0|                        06                     |        .       |      [60]: 6 transition_type 0x7e8-0x7e9 (1)
0x7e0|                           05                  |         .      |      [61]: 5 transition_type 0x7e9-0x7ea (1)
0x7e0|                              06               |          .     |      [62]: 6 transition_type 0x7ea-0x7eb (1)
0x7e0|                                 05            |           .    |      [63]: 5 transition_type 0x7eb-0x7ec (1)
0x7e0|                                    06         |            .   |      [64]: 6 transition_type 0x7ec-0x7ed (1)
0x7e0|                                       05      |             .  |      [65]: 5 transition_type 0x7ed-0x7ee (1)
0x7e0|                                          06   |              . |      [66]: 6 transition_type 0x7ee-0x7ef (1)
0x7e0|                                             05|               .|      [67]: 5 transition_type 0x7ef-0x7f0 (1)
0x7f0|06                                             |.               |      [68]: 6 transition_type 0x7f0-0x7f1 (1)
0x7f0|   05                                          | .              |      [69]: 5 transition_type 0x7f1-0x7f2 (1)
0x7f0|      06                                       |  .             |      [70]: 6 transition_type 0x7f2-0x7f3 (1)
0x7f0|         05                                    |   .            |      [71]: 5 transition_type 0x7f3-0x7f4 (1)
0x7f0|            06                                 |    .           |      [72]: 6 transition_type 0x7f4-0x7f5 (1)
0x7f0|               05                              |     .          |      [73]: 5 transition_type 0x7f5-0x7f6 (1)
0x7f0|                  06                           |      .         |      [74]: 6 transition_type 0x7f6-0x7f7 (1)
0x7f0|                     05                        |       .        |      [75]: 5 transition_type 0x7f7-0x7f8 (1)
0x7f0|                        06                     |        .       |      [76]: 6 transition_type 0x7f8-0x7f9 (1)
0x7f0|                           05                  |         .      |      [77]: 5 transition_type 0x7f9-0x7fa (1)
0x7f0|                              06               |          .     |      [78]: 6 transition_type 0x7fa-0x7fb (1)
0x7f0|                                 05            |           .    |      [79]: 5 transition_type 0x7fb-0x7fc (1)
0x7f0|                                    06         |            .   |      [80]: 6 transition_type 0x7fc-0x7fd (1)
0x7f0|                                       05      |             .  |      [81]: 5 transition_type 0x7fd-0x7fe (1)
0x7f0|                                          06   |              . |      [82]: 6 transition_type 0x7fe-0x7ff (1)
0x7f0|                                             05|               .|      [83]: 5 transition_type 0x7ff-0x800 (1)
0x800|06                                             |.               |      [84]: 6 transition_type 0x800-0x801 (1)
0x800|   05                                          | .              |      [85]: 5 transition_type 0x801-0x802 (1)
0x800|      06                                       |  .             |      [86]: 6 transition_type 0x802-0x803 (1)
0x800|         05                                    |   .            |      [87]: 5 transition_type 0x803-0x804 (1)
0x800|            06                                 |    .           |      [88]: 6 transition_type 0x804-0x805 (1)
0x800|               05                              |     .          |      [89]: 5 transition_type 0x805-0x806 (1)
0x800|                  06                           |      .         |      [90]: 6 transition_type 0x806-0x807 (1)
0x800|                     05                        |       .        |      [91]: 5 transition_type 0x807-0x808 (1)
0x800|                        06                     |        .       |      [92]: 6 transition_type 0x808-0x809 (1)
0x800|                           05                  |         .      |      [93]: 5 transition_type 0x809-0x80a (1)
0x800|                              06               |          .     |      [94]: 6 transition_type 0x80a-0x80b (1)
0x800|                                 05            |           .    |      [95]: 5 transition_type 0x80b-0x80c (1)
0x800|                                    06         |            .   |      [96]: 6 transition_type 0x80c-0x80d (1)
0x800|                                       05      |             .  |      [97]: 5 transition_type 0x80d-0x80e (1)
0x800|                                          06   |              . |      [98]: 6 transition_type 0x80e-0x80f (1)
0x800|                                             05|               .|      [99]: 5 transition_type 0x80f-0x810 (1)
0x810|06                                             |.               |      [100]: 6 transition_type 0x810-0x811 (1)
0x810|   05                                          | .              |      [101]: 5 transition_type 0x811-0x812 (1)
0x810|      06                                       |  .             |      [102]: 6 transition_type 0x812-0x813 (1)
0x810|         05                                    |   .            |      [103]: 5 transition_type 0x813-0x814 (1)
0x810|            06                                 |    .           |      [104]: 6 transition_type 0x814-0x815 (1)
0x810|               05                              |     .          |      [105]: 5 transition_type 0x815-0x816 (1)
0x810|                  06                           |      .         |      [106]: 6 transition_type 0x816-0x817 (1)
0x810|                     05                        |       .        |      [107]: 5 transition_type 0x817-0x818 (1)
0x810|                        06                     |        .       |      [108]: 6 transition_type 0x818-0x819 (1)
0x810|                           05                  |         .      |      [109]: 5 transition_type 0x819-0x81a (1)
0x810|                              06               |          .     |      [110]: 6 transition_type 0x81a-0x81b (1)
0x810|                                 05            |           .    |      [111]: 5 transition_type 0x81b-0x81c (1)
0x810|                                    06         |            .   |      [112]: 6 transition_type 0x81c-0x81d (1)
0x810|                                       05      |             .  |      [113]: 5 transition_type 0x81d-0x81e (1)
0x810|                                          06   |              . |      [114]: 6 transition_type 0x81e-0x81f (1)
0x810|                                             05|               .|      [115]: 5 transition_type 0x81f-0x820 (1)
0x820|06                                             |.               |      [116]: 6 transition_type 0x820-0x821 (1)
0x820|   05                                          | .              |      [117]: 5 transition_type 0x821-0x822 (1)
0x820|      06                                       |  .             |      [118]: 6 transition_type 0x822-0x823 (1)
0x820|         05                                    |   .            |      [119]: 5 transition_type 0x823-0x824 (1)
0x820|            06                                 |    .           |      [120]: 6 transition_type 0x824-0x825 (1)
0x820|               05                              |     .          |      [121]: 5 transition_type 0x825-0x826 (1)
0x820|                  06                           |      .         |      [122]: 6 transition_type 0x826-0x827 (1)
0x820|                     05                        |       .        |      [123]: 5 transition_type 0x827-0x828 (1)
0x820|                        06                     |        .       |      [124]: 6 transition_type 0x828-0x829 (1)
0x820|                           05                  |         .      |      [125]: 5 transition_type 0x829-0x82a (1)
0x820|                              06               |          .     |      [126]: 6 transition_type 0x82a-0x82b (1)
0x820|                                 05            |           .    |      [127]: 5 transition_type 0x82b-0x82c (1)
0x820|                                    06         |            .   |      [128]: 6 transition_type 0x82c-0x82d (1)
0x820|                                       05      |             .  |      [129]: 5 transition_type 0x82d-0x82e (1)
0x820|                                          06   |              . |      [130]: 6 transition_type 0x82e-0x82f (1)
0x820|                                             05|               .|      [131]: 5 transition_type 0x82f-0x830 (1)
0x830|06                                             |.               |      [132]: 6 transition_type 0x830-0x831 (1)
0x830|   05                                          | .              |      [133]: 5 transition_type 0x831-0x832 (1)
0x830|      06                                       |  .             |      [134]: 6 transition_type 0x832-0x833 (1)
0x830|         05                                    |   .            |      [135]: 5 transition_type 0x833-0x834 (1)
0x830|            06                                 |    .           |      [136]: 6 transition_type 0x834-0x835 (1)
0x830|               05                              |     .          |      [137]: 5 transition_type 0x835-0x836 (1)
0x830|                  06                           |      .         |      [138]: 6 transition_type 0x836-0x837 (1)
     |                                               |                |    local_time_type_records[0:7]: 0x837-0x861 (42)
     |                                               |                |      [0]{}: local_time_type 0x837-0x83d (6)
0x830|                     00 00 0f 51               |       ...Q     |        utoff: 3921 (valid) 0x837-0x83b (4)
0x830|                                 00            |           .    |        dst: 0 (valid) 0x83b-0x83c (1)
0x830|                                    00         |            .   |        idx: 0 (valid) 0x83c-0x83d (1)
     |                                               |                |      [1]{}: local_time_type 0x83d-0x843 (6)
0x830|                                       00 00 1c|             ...|        utoff: 7200 (valid) 0x83d-0x841 (4)
0x840|20                                             |                |
0x840|   01                                          | .              |        dst: 1 (valid) 0x841-0x842 (1)
0x840|      04                                       |  .             |        idx: 4 (valid) 0x842-0x843 (1)
     |                                               |                |      [2]{}: local_time_type 0x843-0x849 (6)
0x840|         00 00 0e 10                           |   ....         |        utoff: 3600 (valid) 0x843-0x847 (4)
0x840|                     00                        |       .        |        dst: 0 (valid) 0x847-0x848 (1)
0x840|                        09                     |        .       |        idx: 9 (valid) 0x848-0x849 (1)
     |                                               |                |      [3]{}: local_time_type 0x849-0x84f (6)
0x840|                           00 00 1c 20         |         ...    |        utoff: 7200 (valid) 0x849-0x84d (4)
0x840|                                       01      |             .  |        dst: 1 (valid) 0x84d-0x84e (1)
0x840|                                          04   |              . |        idx: 4 (valid) 0x84e-0x84f (1)
     |                                               |                |      [4]{}: local_time_type 0x84f-0x855 (6)
0x840|                                             00|               .|        utoff: 3600 (valid) 0x84f-0x853 (4)
0x850|00 0e 10                                       |...             |
0x850|         00                                    |   .            |        dst: 0 (valid) 0x853-0x854 (1)
0x850|            09                                 |    .           |        idx: 9 (valid) 0x854-0x855 (1)
     |                                               |                |      [5]{}: local_time_type 0x855-0x85b (6)
0x850|               00 00 1c 20                     |     ...        |        utoff: 7200 (valid) 0x855-0x859 (4)
0x850|                           01                  |         .      |        dst: 1 (valid) 0x859-0x85a (1)
0x850|                              04               |          .     |        idx: 4 (valid) 0x85a-0x85b (1)
     |                                               |                |      [6]{}: local_time_type 0x85b-0x861 (6)
0x850|                                 00 00 0e 10   |           .... |        utoff: 3600 (valid) 0x85b-0x85f (4)
0x850|                                             00|               .|        dst: 0 (valid) 0x85f-0x860 (1)
0x860|09                                             |.               |        idx: 9 (valid) 0x860-0x861 (1)
     |                                               |                |    time_zone_designations[0:3]: 0x861-0x86e (13)
0x860|   4c 4d 54 00                                 | LMT.           |      [0]: "LMT" time_zone_designation 0x861-0x865 (4)
0x860|               43 45 53 54 00                  |     CEST.      |      [1]: "CEST" time_zone_designation 0x865-0x86a (5)
0x860|                              43 45 54 00      |          CET.  |      [2]: "CET" time_zone_designation 0x86a-0x86e (4)
     |                                               |                |    leap_second_records[0:0]: 0x86e-0x86e (0)
     |                                               |                |    standard_wall_indicators[0:7]: 0x86e-0x875 (7)
0x860|                                          00   |              . |      [0]: 0 standard_wall_indicator (valid) 0x86e-0x86f (1)
0x860|                                             00|               .|      [1]: 0 standard_wall_indicator (valid) 0x86f-0x870 (1)
0x870|00                                             |.               |      [2]: 0 standard_wall_indicator (valid) 0x870-0x871 (1)
0x870|   01                                          | .              |      [3]: 1 standard_wall_indicator (valid) 0x871-0x872 (1)
0x870|      01                                       |  .             |      [4]: 1 standard_wall_indicator (valid) 0x872-0x873 (1)
0x870|         01                                    |   .            |      [5]: 1 standard_wall_indicator (valid) 0x873-0x874 (1)
0x870|            01                                 |    .           |      [6]: 1 standard_wall_indicator (valid) 0x874-0x875 (1)
     |                                               |                |    ut_local_indicators[0:7]: 0x875-0x87c (7)
0x870|               00                              |     .          |      [0]: 0 ut_local_indicator (valid) 0x875-0x876 (1)
0x870|                  00                           |      .         |      [1]: 0 ut_local_indicator (valid) 0x876-0x877 (1)
0x870|                     00                        |       .        |      [2]: 0 ut_local_indicator (valid) 0x877-0x878 (1)
0x870|                        00                     |        .       |      [3]: 0 ut_local_indicator (valid) 0x878-0x879 (1)
0x870|                           00                  |         .      |      [4]: 0 ut_local_indicator (valid) 0x879-0x87a (1)
0x870|                              01               |          .     |      [5]: 1 ut_local_indicator (valid) 0x87a-0x87b (1)
0x870|                                 01            |           .    |      [6]: 1 ut_local_indicator (valid) 0x87b-0x87c (1)
     |                                               |                |  footer{}: 0x87c-0x898 (28)
0x870|                                    0a         |            .   |    nl1: 10 (valid) 0x87c-0x87d (1)
0x870|                                       43 45 54|             CET|    tz_string: "CET-1CEST,M3.5.0,M10.5.0/3" 0x87d-0x897 (26)
0x880|2d 31 43 45 53 54 2c 4d 33 2e 35 2e 30 2c 4d 31|-1CEST,M3.5.0,M1|
0x890|30 2e 35 2e 30 2f 33                           |0.5.0/3         |
0x890|                     0a|                       |       .|       |    nl2: 10 (valid) 0x897-0x898 (1)
