$ fq -d tzif dv Vilnius
     |00 01 02 03 04 05 06 07 08 09 0a 0b 0c 0d 0e 0f|0123456789abcdef|.{}: Vilnius (tzif) 0x0-0x871.7 (2162)
     |                                               |                |  v1header{}: 0x0-0x2b.7 (44)
0x000|54 5a 69 66                                    |TZif            |    magic: 0x545a6966 (valid) 0x0-0x3.7 (4)
0x000|            32                                 |    2           |    ver: "2" (0x32) (valid) 0x4-0x4.7 (1)
0x000|               00 00 00 00 00 00 00 00 00 00 00|     ...........|    reserved: raw bits 0x5-0x13.7 (15)
0x010|00 00 00 00                                    |....            |
0x010|            00 00 00 12                        |    ....        |    isutcnt: 18 0x14-0x17.7 (4)
0x010|                        00 00 00 12            |        ....    |    isstdcnt: 18 0x18-0x1b.7 (4)
0x010|                                    00 00 00 00|            ....|    leapcnt: 0 0x1c-0x1f.7 (4)
0x020|00 00 00 78                                    |...x            |    timecnt: 120 0x20-0x23.7 (4)
0x020|            00 00 00 12                        |    ....        |    typecnt: 18 0x24-0x27.7 (4)
0x020|                        00 00 00 26            |        ...&    |    charcnt: 38 0x28-0x2b.7 (4)
     |                                               |                |  v1datablock{}: 0x2c-0x339.7 (782)
     |                                               |                |    transition_times[0:120]: 0x2c-0x20b.7 (480)
0x020|                                    80 00 00 00|            ....|      [0]: "1901-12-13T20:45:52Z" (-2147483648) transition_time 0x2c-0x2f.7 (4)
0x030|9c 4f 1f 50                                    |.O.P            |      [1]: "1916-12-31T22:36:00Z" (-1672536240) transition_time 0x30-0x33.7 (4)
0x030|            a1 85 4a 98                        |    ..J.        |      [2]: "1919-10-09T22:24:24Z" (-1585100136) transition_time 0x34-0x37.7 (4)
0x030|                        a2 f1 30 f0            |        ..0.    |      [3]: "1920-07-11T23:00:00Z" (-1561251600) transition_time 0x38-0x3b.7 (4)
0x030|                                    a3 66 78 60|            .fx`|      [4]: "1920-10-08T22:00:00Z" (-1553565600) transition_time 0x3c-0x3f.7 (4)
0x040|c8 ac cf 70                                    |...p            |      [5]: "1940-08-02T23:00:00Z" (-928198800) transition_time 0x40-0x43.7 (4)
0x040|            ca 59 2a d0                        |    .Y*.        |      [6]: "1941-06-23T21:00:00Z" (-900126000) transition_time 0x44-0x47.7 (4)
0x040|                        cc e7 4b 10            |        ..K.    |      [7]: "1942-11-02T01:00:00Z" (-857257200) transition_time 0x48-0x4b.7 (4)
0x040|                                    cd a9 17 90|            ....|      [8]: "1943-03-29T01:00:00Z" (-844556400) transition_time 0x4c-0x4f.7 (4)
0x050|ce a2 43 10                                    |..C.            |      [9]: "1943-10-04T01:00:00Z" (-828226800) transition_time 0x50-0x53.7 (4)
0x050|            cf 92 34 10                        |    ..4.        |      [10]: "1944-04-03T01:00:00Z" (-812502000) transition_time 0x54-0x57.7 (4)
0x050|                        d0 30 3d e0            |        .0=.    |      [11]: "1944-07-31T22:00:00Z" (-802144800) transition_time 0x58-0x5b.7 (4)
0x050|                                    15 27 a7 d0|            .'..|      [12]: "1981-03-31T21:00:00Z" (354920400) transition_time 0x5c-0x5f.7 (4)
0x060|16 18 dc 40                                    |...@            |      [13]: "1981-09-30T20:00:00Z" (370728000) transition_time 0x60-0x63.7 (4)
0x060|            17 08 db 50                        |    ...P        |      [14]: "1982-03-31T21:00:00Z" (386456400) transition_time 0x64-0x67.7 (4)
0x060|                        17 fa 0f c0            |        ....    |      [15]: "1982-09-30T20:00:00Z" (402264000) transition_time 0x68-0x6b.7 (4)
0x060|                                    18 ea 0e d0|            ....|      [16]: "1983-03-31T21:00:00Z" (417992400) transition_time 0x6c-0x6f.7 (4)
0x070|19 db 43 40                                    |..C@            |      [17]: "1983-09-30T20:00:00Z" (433800000) transition_time 0x70-0x73.7 (4)
0x070|            1a cc 93 d0                        |    ....        |      [18]: "1984-03-31T21:00:00Z" (449614800) transition_time 0x74-0x77.7 (4)
0x070|                        1b bc a0 f0            |        ....    |      [19]: "1984-09-29T23:00:00Z" (465346800) transition_time 0x78-0x7b.7 (4)
0x070|                                    1c ac 91 f0|            ....|      [20]: "1985-03-30T23:00:00Z" (481071600) transition_time 0x7c-0x7f.7 (4)
0x080|1d 9c 82 f0                                    |....            |      [21]: "1985-09-28T23:00:00Z" (496796400) transition_time 0x80-0x83.7 (4)
0x080|            1e 8c 73 f0                        |    ..s.        |      [22]: "1986-03-29T23:00:00Z" (512521200) transition_time 0x84-0x87.7 (4)
0x080|                        1f 7c 64 f0            |        .|d.    |      [23]: "1986-09-27T23:00:00Z" (528246000) transition_time 0x88-0x8b.7 (4)
0x080|                                    20 6c 55 f0|             lU.|      [24]: "1987-03-28T23:00:00Z" (543970800) transition_time 0x8c-0x8f.7 (4)
0x090|21 5c 46 f0                                    |!\F.            |      [25]: "1987-09-26T23:00:00Z" (559695600) transition_time 0x90-0x93.7 (4)
0x090|            22 4c 37 f0                        |    "L7.        |      [26]: "1988-03-26T23:00:00Z" (575420400) transition_time 0x94-0x97.7 (4)
0x090|                        23 3c 28 f0            |        #<(.    |      [27]: "1988-09-24T23:00:00Z" (591145200) transition_time 0x98-0x9b.7 (4)
0x090|                                    24 2c 19 f0|            $,..|      [28]: "1989-03-25T23:00:00Z" (606870000) transition_time 0x9c-0x9f.7 (4)
0x0a0|25 1c 19 00                                    |%...            |      [29]: "1989-09-24T00:00:00Z" (622598400) transition_time 0xa0-0xa3.7 (4)
0x0a0|            26 0c 0a 00                        |    &...        |      [30]: "1990-03-25T00:00:00Z" (638323200) transition_time 0xa4-0xa7.7 (4)
0x0a0|                        27 05 35 80            |        '.5.    |      [31]: "1990-09-30T00:00:00Z" (654652800) transition_time 0xa8-0xab.7 (4)
0x0a0|                                    27 f5 26 80|            '.&.|      [32]: "1991-03-31T00:00:00Z" (670377600) transition_time 0xac-0xaf.7 (4)
0x0b0|28 e5 17 80                                    |(...            |      [33]: "1991-09-29T00:00:00Z" (686102400) transition_time 0xb0-0xb3.7 (4)
0x0b0|            29 d5 08 80                        |    )...        |      [34]: "1992-03-29T00:00:00Z" (701827200) transition_time 0xb4-0xb7.7 (4)
0x0b0|                        2a c4 f9 80            |        *...    |      [35]: "1992-09-27T00:00:00Z" (717552000) transition_time 0xb8-0xbb.7 (4)
0x0b0|                                    2b b4 ea 80|            +...|      [36]: "1993-03-28T00:00:00Z" (733276800) transition_time 0xbc-0xbf.7 (4)
0x0c0|2c a4 db 80                                    |,...            |      [37]: "1993-09-26T00:00:00Z" (749001600) transition_time 0xc0-0xc3.7 (4)
0x0c0|            2d 94 cc 80                        |    -...        |      [38]: "1994-03-27T00:00:00Z" (764726400) transition_time 0xc4-0xc7.7 (4)
0x0c0|                        2e 84 bd 80            |        ....    |      [39]: "1994-09-25T00:00:00Z" (780451200) transition_time 0xc8-0xcb.7 (4)
0x0c0|                                    2f 74 ae 80|            /t..|      [40]: "1995-03-26T00:00:00Z" (796176000) transition_time 0xcc-0xcf.7 (4)
0x0d0|30 64 9f 80                                    |0d..            |      [41]: "1995-09-24T00:00:00Z" (811900800) transition_time 0xd0-0xd3.7 (4)
0x0d0|            31 5d cb 00                        |    1]..        |      [42]: "1996-03-31T00:00:00Z" (828230400) transition_time 0xd4-0xd7.7 (4)
0x0d0|                        32 72 a6 00            |        2r..    |      [43]: "1996-10-27T00:00:00Z" (846374400) transition_time 0xd8-0xdb.7 (4)
0x0d0|                                    33 3d ad 00|            3=..|      [44]: "1997-03-30T00:00:00Z" (859680000) transition_time 0xdc-0xdf.7 (4)
0x0e0|34 52 88 00                                    |4R..            |      [45]: "1997-10-26T00:00:00Z" (877824000) transition_time 0xe0-0xe3.7 (4)
0x0e0|            35 1d 9d 10                        |    5...        |      [46]: "1998-03-29T01:00:00Z" (891133200) transition_time 0xe4-0xe7.7 (4)
0x0e0|                        36 32 78 10            |        62x.    |      [47]: "1998-10-25T01:00:00Z" (909277200) transition_time 0xe8-0xeb.7 (4)
0x0e0|                                    36 fd 7f 10|            6...|      [48]: "1999-03-28T01:00:00Z" (922582800) transition_time 0xec-0xef.7 (4)
0x0f0|38 1b 94 90                                    |8...            |      [49]: "1999-10-31T01:00:00Z" (941331600) transition_time 0xf0-0xf3.7 (4)
0x0f0|            3e 86 41 90                        |    >.A.        |      [50]: "2003-03-30T01:00:00Z" (1048986000) transition_time 0xf4-0xf7.7 (4)
0x0f0|                        3f 9b 1c 90            |        ?...    |      [51]: "2003-10-26T01:00:00Z" (1067130000) transition_time 0xf8-0xfb.7 (4)
0x0f0|                                    40 66 23 90|            @f#.|      [52]: "2004-03-28T01:00:00Z" (1080435600) transition_time 0xfc-0xff.7 (4)
0x100|41 84 39 10                                    |A.9.            |      [53]: "2004-10-31T01:00:00Z" (1099184400) transition_time 0x100-0x103.7 (4)
0x100|            42 46 05 90                        |    BF..        |      [54]: "2005-03-27T01:00:00Z" (1111885200) transition_time 0x104-0x107.7 (4)
0x100|                        43 64 1b 10            |        Cd..    |      [55]: "2005-10-30T01:00:00Z" (1130634000) transition_time 0x108-0x10b.7 (4)
0x100|                                    44 25 e7 90|            D%..|      [56]: "2006-03-26T01:00:00Z" (1143334800) transition_time 0x10c-0x10f.7 (4)
0x110|45 43 fd 10                                    |EC..            |      [57]: "2006-10-29T01:00:00Z" (1162083600) transition_time 0x110-0x113.7 (4)
0x110|            46 05 c9 90                        |    F...        |      [58]: "2007-03-25T01:00:00Z" (1174784400) transition_time 0x114-0x117.7 (4)
0x110|                        47 23 df 10            |        G#..    |      [59]: "2007-10-28T01:00:00Z" (1193533200) transition_time 0x118-0x11b.7 (4)
0x110|                                    47 ee e6 10|            G...|      [60]: "2008-03-30T01:00:00Z" (1206838800) transition_time 0x11c-0x11f.7 (4)
0x120|49 03 c1 10                                    |I...            |      [61]: "2008-10-26T01:00:00Z" (1224982800) transition_time 0x120-0x123.7 (4)
0x120|            49 ce c8 10                        |    I...        |      [62]: "2009-03-29T01:00:00Z" (1238288400) transition_time 0x124-0x127.7 (4)
0x120|                        4a e3 a3 10            |        J...    |      [63]: "2009-10-25T01:00:00Z" (1256432400) transition_time 0x128-0x12b.7 (4)
0x120|                                    4b ae aa 10|            K...|      [64]: "2010-03-28T01:00:00Z" (1269738000) transition_time 0x12c-0x12f.7 (4)
0x130|4c cc bf 90                                    |L...            |      [65]: "2010-10-31T01:00:00Z" (1288486800) transition_time 0x130-0x133.7 (4)
0x130|            4d 8e 8c 10                        |    M...        |      [66]: "2011-03-27T01:00:00Z" (1301187600) transition_time 0x134-0x137.7 (4)
0x130|                        4e ac a1 90            |        N...    |      [67]: "2011-10-30T01:00:00Z" (1319936400) transition_time 0x138-0x13b.7 (4)
0x130|                                    4f 6e 6e 10|            Onn.|      [68]: "2012-03-25T01:00:00Z" (1332637200) transition_time 0x13c-0x13f.7 (4)
0x140|50 8c 83 90                                    |P...            |      [69]: "2012-10-28T01:00:00Z" (1351386000) transition_time 0x140-0x143.7 (4)
0x140|            51 57 8a 90                        |    QW..        |      [70]: "2013-03-31T01:00:00Z" (1364691600) transition_time 0x144-0x147.7 (4)
0x140|                        52 6c 65 90            |        Rle.    |      [71]: "2013-10-27T01:00:00Z" (1382835600) transition_time 0x148-0x14b.7 (4)
0x140|                                    53 37 6c 90|            S7l.|      [72]: "2014-03-30T01:00:00Z" (1396141200) transition_time 0x14c-0x14f.7 (4)
0x150|54 4c 47 90                                    |TLG.            |      [73]: "2014-10-26T01:00:00Z" (1414285200) transition_time 0x150-0x153.7 (4)
0x150|            55 17 4e 90                        |    U.N.        |      [74]: "2015-03-29T01:00:00Z" (1427590800) transition_time 0x154-0x157.7 (4)
0x150|                        56 2c 29 90            |        V,).    |      [75]: "2015-10-25T01:00:00Z" (1445734800) transition_time 0x158-0x15b.7 (4)
0x150|                                    56 f7 30 90|            V.0.|      [76]: "2016-03-27T01:00:00Z" (1459040400) transition_time 0x15c-0x15f.7 (4)
0x160|58 15 46 10                                    |X.F.            |      [77]: "2016-10-30T01:00:00Z" (1477789200) transition_time 0x160-0x163.7 (4)
0x160|            58 d7 12 90                        |    X...        |      [78]: "2017-03-26T01:00:00Z" (1490490000) transition_time 0x164-0x167.7 (4)
0x160|                        59 f5 28 10            |        Y.(.    |      [79]: "2017-10-29T01:00:00Z" (1509238800) transition_time 0x168-0x16b.7 (4)
0x160|                                    5a b6 f4 90|            Z...|      [80]: "2018-03-25T01:00:00Z" (1521939600) transition_time 0x16c-0x16f.7 (4)
0x170|5b d5 0a 10                                    |[...            |      [81]: "2018-10-28T01:00:00Z" (1540688400) transition_time 0x170-0x173.7 (4)
0x170|            5c a0 11 10                        |    \...        |      [82]: "2019-03-31T01:00:00Z" (1553994000) transition_time 0x174-0x177.7 (4)
0x170|                        5d b4 ec 10            |        ]...    |      [83]: "2019-10-27T01:00:00Z" (1572138000) transition_time 0x178-0x17b.7 (4)
0x170|                                    5e 7f f3 10|            ^...|      [84]: "2020-03-29T01:00:00Z" (1585443600) transition_time 0x17c-0x17f.7 (4)
0x180|5f 94 ce 10                                    |_...            |      [85]: "2020-10-25T01:00:00Z" (1603587600) transition_time 0x180-0x183.7 (4)
0x180|            60 5f d5 10                        |    `_..        |      [86]: "2021-03-28T01:00:00Z" (1616893200) transition_time 0x184-0x187.7 (4)
0x180|                        61 7d ea 90            |        a}..    |      [87]: "2021-10-31T01:00:00Z" (1635642000) transition_time 0x188-0x18b.7 (4)
0x180|                                    62 3f b7 10|            b?..|      [88]: "2022-03-27T01:00:00Z" (1648342800) transition_time 0x18c-0x18f.7 (4)
0x190|63 5d cc 90                                    |c]..            |      [89]: "2022-10-30T01:00:00Z" (1667091600) transition_time 0x190-0x193.7 (4)
0x190|            64 1f 99 10                        |    d...        |      [90]: "2023-03-26T01:00:00Z" (1679792400) transition_time 0x194-0x197.7 (4)
0x190|                        65 3d ae 90            |        e=..    |      [91]: "2023-10-29T01:00:00Z" (1698541200) transition_time 0x198-0x19b.7 (4)
0x190|                                    66 08 b5 90|            f...|      [92]: "2024-03-31T01:00:00Z" (1711846800) transition_time 0x19c-0x19f.7 (4)
0x1a0|67 1d 90 90                                    |g...            |      [93]: "2024-10-27T01:00:00Z" (1729990800) transition_time 0x1a0-0x1a3.7 (4)
0x1a0|            67 e8 97 90                        |    g...        |      [94]: "2025-03-30T01:00:00Z" (1743296400) transition_time 0x1a4-0x1a7.7 (4)
0x1a0|                        68 fd 72 90            |        h.r.    |      [95]: "2025-10-26T01:00:00Z" (1761440400) transition_time 0x1a8-0x1ab.7 (4)
0x1a0|                                    69 c8 79 90|            i.y.|      [96]: "2026-03-29T01:00:00Z" (1774746000) transition_time 0x1ac-0x1af.7 (4)
0x1b0|6a dd 54 90                                    |j.T.            |      [97]: "2026-10-25T01:00:00Z" (1792890000) transition_time 0x1b0-0x1b3.7 (4)
0x1b0|            6b a8 5b 90                        |    k.[.        |      [98]: "2027-03-28T01:00:00Z" (1806195600) transition_time 0x1b4-0x1b7.7 (4)
0x1b0|                        6c c6 71 10            |        l.q.    |      [99]: "2027-10-31T01:00:00Z" (1824944400) transition_time 0x1b8-0x1bb.7 (4)
0x1b0|                                    6d 88 3d 90|            m.=.|      [100]: "2028-03-26T01:00:00Z" (1837645200) transition_time 0x1bc-0x1bf.7 (4)
0x1c0|6e a6 53 10                                    |n.S.            |      [101]: "2028-10-29T01:00:00Z" (1856394000) transition_time 0x1c0-0x1c3.7 (4)
0x1c0|            6f 68 1f 90                        |    oh..        |      [102]: "2029-03-25T01:00:00Z" (1869094800) transition_time 0x1c4-0x1c7.7 (4)
0x1c0|                        70 86 35 10            |        p.5.    |      [103]: "2029-10-28T01:00:00Z" (1887843600) transition_time 0x1c8-0x1cb.7 (4)
0x1c0|                                    71 51 3c 10|            qQ<.|      [104]: "2030-03-31T01:00:00Z" (1901149200) transition_time 0x1cc-0x1cf.7 (4)
0x1d0|72 66 17 10                                    |rf..            |      [105]: "2030-10-27T01:00:00Z" (1919293200) transition_time 0x1d0-0x1d3.7 (4)
0x1d0|            73 31 1e 10                        |    s1..        |      [106]: "2031-03-30T01:00:00Z" (1932598800) transition_time 0x1d4-0x1d7.7 (4)
0x1d0|                        74 45 f9 10            |        tE..    |      [107]: "2031-10-26T01:00:00Z" (1950742800) transition_time 0x1d8-0x1db.7 (4)
0x1d0|                                    75 11 00 10|            u...|      [108]: "2032-03-28T01:00:00Z" (1964048400) transition_time 0x1dc-0x1df.7 (4)
0x1e0|76 2f 15 90                                    |v/..            |      [109]: "2032-10-31T01:00:00Z" (1982797200) transition_time 0x1e0-0x1e3.7 (4)
0x1e0|            76 f0 e2 10                        |    v...        |      [110]: "2033-03-27T01:00:00Z" (1995498000) transition_time 0x1e4-0x1e7.7 (4)
0x1e0|                        78 0e f7 90            |        x...    |      [111]: "2033-10-30T01:00:00Z" (2014246800) transition_time 0x1e8-0x1eb.7 (4)
0x1e0|                                    78 d0 c4 10|            x...|      [112]: "2034-03-26T01:00:00Z" (2026947600) transition_time 0x1ec-0x1ef.7 (4)
0x1f0|79 ee d9 90                                    |y...            |      [113]: "2034-10-29T01:00:00Z" (2045696400) transition_time 0x1f0-0x1f3.7 (4)
0x1f0|            7a b0 a6 10                        |    z...        |      [114]: "2035-03-25T01:00:00Z" (2058397200) transition_time 0x1f4-0x1f7.7 (4)
0x1f0|                        7b ce bb 90            |        {...    |      [115]: "2035-10-28T01:00:00Z" (2077146000) transition_time 0x1f8-0x1fb.7 (4)
0x1f0|                                    7c 99 c2 90|            |...|      [116]: "2036-03-30T01:00:00Z" (2090451600) transition_time 0x1fc-0x1ff.7 (4)
0x200|7d ae 9d 90                                    |}...            |      [117]: "2036-10-26T01:00:00Z" (2108595600) transition_time 0x200-0x203.7 (4)
0x200|            7e 79 a4 90                        |    ~y..        |      [118]: "2037-03-29T01:00:00Z" (2121901200) transition_time 0x204-0x207.7 (4)
0x200|                        7f 8e 7f 90            |        ....    |      [119]: "2037-10-25T01:00:00Z" (2140045200) transition_time 0x208-0x20b.7 (4)
     |                                               |                |    transition_types[0:120]: 0x20c-0x283.7 (120)
0x200|                                    01         |            .   |      [0]: 1 transition_type 0x20c-0x20c.7 (1)
0x200|                                       02      |             .  |      [1]: 2 transition_type 0x20d-0x20d.7 (1)
0x200|                                          03   |              . |      [2]: 3 transition_type 0x20e-0x20e.7 (1)
0x200|                                             04|               .|      [3]: 4 transition_type 0x20f-0x20f.7 (1)
0x210|03                                             |.               |      [4]: 3 transition_type 0x210-0x210.7 (1)
0x210|   05                                          | .              |      [5]: 5 transition_type 0x211-0x211.7 (1)
0x210|      08                                       |  .             |      [6]: 8 transition_type 0x212-0x212.7 (1)
0x210|         06                                    |   .            |      [7]: 6 transition_type 0x213-0x213.7 (1)
0x210|            07                                 |    .           |      [8]: 7 transition_type 0x214-0x214.7 (1)
0x210|               06                              |     .          |      [9]: 6 transition_type 0x215-0x215.7 (1)
0x210|                  07                           |      .         |      [10]: 7 transition_type 0x216-0x216.7 (1)
0x210|                     05                        |       .        |      [11]: 5 transition_type 0x217-0x217.7 (1)
0x210|                        09                     |        .       |      [12]: 9 transition_type 0x218-0x218.7 (1)
0x210|                           05                  |         .      |      [13]: 5 transition_type 0x219-0x219.7 (1)
0x210|                              09               |          .     |      [14]: 9 transition_type 0x21a-0x21a.7 (1)
0x210|                                 05            |           .    |      [15]: 5 transition_type 0x21b-0x21b.7 (1)
0x210|                                    09         |            .   |      [16]: 9 transition_type 0x21c-0x21c.7 (1)
0x210|                                       05      |             .  |      [17]: 5 transition_type 0x21d-0x21d.7 (1)
0x210|                                          09   |              . |      [18]: 9 transition_type 0x21e-0x21e.7 (1)
0x210|                                             0a|               .|      [19]: 10 transition_type 0x21f-0x21f.7 (1)
0x220|0b                                             |.               |      [20]: 11 transition_type 0x220-0x220.7 (1)
0x220|   0a                                          | .              |      [21]: 10 transition_type 0x221-0x221.7 (1)
0x220|      0b                                       |  .             |      [22]: 11 transition_type 0x222-0x222.7 (1)
0x220|         0a                                    |   .            |      [23]: 10 transition_type 0x223-0x223.7 (1)
0x220|            0b                                 |    .           |      [24]: 11 transition_type 0x224-0x224.7 (1)
0x220|               0a                              |     .          |      [25]: 10 transition_type 0x225-0x225.7 (1)
0x220|                  0b                           |      .         |      [26]: 11 transition_type 0x226-0x226.7 (1)
0x220|                     0a                        |       .        |      [27]: 10 transition_type 0x227-0x227.7 (1)
0x220|                        0c                     |        .       |      [28]: 12 transition_type 0x228-0x228.7 (1)
0x220|                           0d                  |         .      |      [29]: 13 transition_type 0x229-0x229.7 (1)
0x220|                              0c               |          .     |      [30]: 12 transition_type 0x22a-0x22a.7 (1)
0x220|                                 0d            |           .    |      [31]: 13 transition_type 0x22b-0x22b.7 (1)
0x220|                                    0c         |            .   |      [32]: 12 transition_type 0x22c-0x22c.7 (1)
0x220|                                       0d      |             .  |      [33]: 13 transition_type 0x22d-0x22d.7 (1)
0x220|                                          0c   |              . |      [34]: 12 transition_type 0x22e-0x22e.7 (1)
0x220|                                             0d|               .|      [35]: 13 transition_type 0x22f-0x22f.7 (1)
0x230|0c                                             |.               |      [36]: 12 transition_type 0x230-0x230.7 (1)
0x230|   0d                                          | .              |      [37]: 13 transition_type 0x231-0x231.7 (1)
0x230|      0c                                       |  .             |      [38]: 12 transition_type 0x232-0x232.7 (1)
0x230|         0d                                    |   .            |      [39]: 13 transition_type 0x233-0x233.7 (1)
0x230|            0c                                 |    .           |      [40]: 12 transition_type 0x234-0x234.7 (1)
0x230|               0d                              |     .          |      [41]: 13 transition_type 0x235-0x235.7 (1)
0x230|                  0c                           |      .         |      [42]: 12 transition_type 0x236-0x236.7 (1)
0x230|                     0d                        |       .        |      [43]: 13 transition_type 0x237-0x237.7 (1)
0x230|                        0c                     |        .       |      [44]: 12 transition_type 0x238-0x238.7 (1)
0x230|                           0d                  |         .      |      [45]: 13 transition_type 0x239-0x239.7 (1)
0x230|                              0e               |          .     |      [46]: 14 transition_type 0x23a-0x23a.7 (1)
0x230|                                 0f            |           .    |      [47]: 15 transition_type 0x23b-0x23b.7 (1)
0x230|                                    0e         |            .   |      [48]: 14 transition_type 0x23c-0x23c.7 (1)
0x230|                                       10      |             .  |      [49]: 16 transition_type 0x23d-0x23d.7 (1)
0x230|                                          11   |              . |      [50]: 17 transition_type 0x23e-0x23e.7 (1)
0x230|                                             10|               .|      [51]: 16 transition_type 0x23f-0x23f.7 (1)
0x240|11                                             |.               |      [52]: 17 transition_type 0x240-0x240.7 (1)
0x240|   10                                          | .              |      [53]: 16 transition_type 0x241-0x241.7 (1)
0x240|      11                                       |  .             |      [54]: 17 transition_type 0x242-0x242.7 (1)
0x240|         10                                    |   .            |      [55]: 16 transition_type 0x243-0x243.7 (1)
0x240|            11                                 |    .           |      [56]: 17 transition_type 0x244-0x244.7 (1)
0x240|               10                              |     .          |      [57]: 16 transition_type 0x245-0x245.7 (1)
0x240|                  11                           |      .         |      [58]: 17 transition_type 0x246-0x246.7 (1)
0x240|                     10                        |       .        |      [59]: 16 transition_type 0x247-0x247.7 (1)
0x240|                        11                     |        .       |      [60]: 17 transition_type 0x248-0x248.7 (1)
0x240|                           10                  |         .      |      [61]: 16 transition_type 0x249-0x249.7 (1)
0x240|                              11               |          .     |      [62]: 17 transition_type 0x24a-0x24a.7 (1)
0x240|                                 10            |           .    |      [63]: 16 transition_type 0x24b-0x24b.7 (1)
0x240|                                    11         |            .   |      [64]: 17 transition_type 0x24c-0x24c.7 (1)
0x240|                                       10      |             .  |      [65]: 16 transition_type 0x24d-0x24d.7 (1)
0x240|                                          11   |              . |      [66]: 17 transition_type 0x24e-0x24e.7 (1)
0x240|                                             10|               .|      [67]: 16 transition_type 0x24f-0x24f.7 (1)
0x250|11                                             |.               |      [68]: 17 transition_type 0x250-0x250.7 (1)
0x250|   10                                          | .              |      [69]: 16 transition_type 0x251-0x251.7 (1)
0x250|      11                                       |  .             |      [70]: 17 transition_type 0x252-0x252.7 (1)
0x250|         10                                    |   .            |      [71]: 16 transition_type 0x253-0x253.7 (1)
0x250|            11                                 |    .           |      [72]: 17 transition_type 0x254-0x254.7 (1)
0x250|               10                              |     .          |      [73]: 16 transition_type 0x255-0x255.7 (1)
0x250|                  11                           |      .         |      [74]: 17 transition_type 0x256-0x256.7 (1)
0x250|                     10                        |       .        |      [75]: 16 transition_type 0x257-0x257.7 (1)
0x250|                        11                     |        .       |      [76]: 17 transition_type 0x258-0x258.7 (1)
0x250|                           10                  |         .      |      [77]: 16 transition_type 0x259-0x259.7 (1)
0x250|                              11               |          .     |      [78]: 17 transition_type 0x25a-0x25a.7 (1)
0x250|                                 10            |           .    |      [79]: 16 transition_type 0x25b-0x25b.7 (1)
0x250|                                    11         |            .   |      [80]: 17 transition_type 0x25c-0x25c.7 (1)
0x250|                                       10      |             .  |      [81]: 16 transition_type 0x25d-0x25d.7 (1)
0x250|                                          11   |              . |      [82]: 17 transition_type 0x25e-0x25e.7 (1)
0x250|                                             10|               .|      [83]: 16 transition_type 0x25f-0x25f.7 (1)
0x260|11                                             |.               |      [84]: 17 transition_type 0x260-0x260.7 (1)
0x260|   10                                          | .              |      [85]: 16 transition_type 0x261-0x261.7 (1)
0x260|      11                                       |  .             |      [86]: 17 transition_type 0x262-0x262.7 (1)
0x260|         10                                    |   .            |      [87]: 16 transition_type 0x263-0x263.7 (1)
0x260|            11                                 |    .           |      [88]: 17 transition_type 0x264-0x264.7 (1)
0x260|               10                              |     .          |      [89]: 16 transition_type 0x265-0x265.7 (1)
0x260|                  11                           |      .         |      [90]: 17 transition_type 0x266-0x266.7 (1)
0x260|                     10                        |       .        |      [91]: 16 transition_type 0x267-0x267.7 (1)
0x260|                        11                     |        .       |      [92]: 17 transition_type 0x268-0x268.7 (1)
0x260|                           10                  |         .      |      [93]: 16 transition_type 0x269-0x269.7 (1)
0x260|                              11               |          .     |      [94]: 17 transition_type 0x26a-0x26a.7 (1)
0x260|                                 10            |           .    |      [95]: 16 transition_type 0x26b-0x26b.7 (1)
0x260|                                    11         |            .   |      [96]: 17 transition_type 0x26c-0x26c.7 (1)
0x260|                                       10      |             .  |      [97]: 16 transition_type 0x26d-0x26d.7 (1)
0x260|                                          11   |              . |      [98]: 17 transition_type 0x26e-0x26e.7 (1)
0x260|                                             10|               .|      [99]: 16 transition_type 0x26f-0x26f.7 (1)
0x270|11                                             |.               |      [100]: 17 transition_type 0x270-0x270.7 (1)
0x270|   10                                          | .              |      [101]: 16 transition_type 0x271-0x271.7 (1)
0x270|      11                                       |  .             |      [102]: 17 transition_type 0x272-0x272.7 (1)
0x270|         10                                    |   .            |      [103]: 16 transition_type 0x273-0x273.7 (1)
0x270|            11                                 |    .           |      [104]: 17 transition_type 0x274-0x274.7 (1)
0x270|               10                              |     .          |      [105]: 16 transition_type 0x275-0x275.7 (1)
0x270|                  11                           |      .         |      [106]: 17 transition_type 0x276-0x276.7 (1)
0x270|                     10                        |       .        |      [107]: 16 transition_type 0x277-0x277.7 (1)
0x270|                        11                     |        .       |      [108]: 17 transition_type 0x278-0x278.7 (1)
0x270|                           10                  |         .      |      [109]: 16 transition_type 0x279-0x279.7 (1)
0x270|                              11               |          .     |      [110]: 17 transition_type 0x27a-0x27a.7 (1)
0x270|                                 10            |           .    |      [111]: 16 transition_type 0x27b-0x27b.7 (1)
0x270|                                    11         |            .   |      [112]: 17 transition_type 0x27c-0x27c.7 (1)
0x270|                                       10      |             .  |      [113]: 16 transition_type 0x27d-0x27d.7 (1)
0x270|                                          11   |              . |      [114]: 17 transition_type 0x27e-0x27e.7 (1)
0x270|                                             10|               .|      [115]: 16 transition_type 0x27f-0x27f.7 (1)
0x280|11                                             |.               |      [116]: 17 transition_type 0x280-0x280.7 (1)
0x280|   10                                          | .              |      [117]: 16 transition_type 0x281-0x281.7 (1)
0x280|      11                                       |  .             |      [118]: 17 transition_type 0x282-0x282.7 (1)
0x280|         10                                    |   .            |      [119]: 16 transition_type 0x283-0x283.7 (1)
     |                                               |                |    local_time_type_records[0:18]: 0x284-0x2ef.7 (108)
     |                                               |                |      [0]{}: local_time_type 0x284-0x289.7 (6)
0x280|            00 00 17 bc                        |    ....        |        utoff: 6076 (valid) 0x284-0x287.7 (4)
0x280|                        00                     |        .       |        dst: 0 (valid) 0x288-0x288.7 (1)
0x280|                           00                  |         .      |        idx: 0 (valid) 0x289-0x289.7 (1)
     |                                               |                |      [1]{}: local_time_type 0x28a-0x28f.7 (6)
0x280|                              00 00 13 b0      |          ....  |        utoff: 5040 (valid) 0x28a-0x28d.7 (4)
0x280|                                          00   |              . |        dst: 0 (valid) 0x28e-0x28e.7 (1)
0x280|                                             04|               .|        idx: 4 (valid) 0x28f-0x28f.7 (1)
     |                                               |                |      [2]{}: local_time_type 0x290-0x295.7 (6)
0x290|00 00 16 68                                    |...h            |        utoff: 5736 (valid) 0x290-0x293.7 (4)
0x290|            00                                 |    .           |        dst: 0 (valid) 0x294-0x294.7 (1)
0x290|               08                              |     .          |        idx: 8 (valid) 0x295-0x295.7 (1)
     |                                               |                |      [3]{}: local_time_type 0x296-0x29b.7 (6)
0x290|                  00 00 0e 10                  |      ....      |        utoff: 3600 (valid) 0x296-0x299.7 (4)
0x290|                              00               |          .     |        dst: 0 (valid) 0x29a-0x29a.7 (1)
0x290|                                 0c            |           .    |        idx: 12 (valid) 0x29b-0x29b.7 (1)
     |                                               |                |      [4]{}: local_time_type 0x29c-0x2a1.7 (6)
0x290|                                    00 00 1c 20|            ... |        utoff: 7200 (valid) 0x29c-0x29f.7 (4)
0x2a0|00                                             |.               |        dst: 0 (valid) 0x2a0-0x2a0.7 (1)
0x2a0|   10                                          | .              |        idx: 16 (valid) 0x2a1-0x2a1.7 (1)
     |                                               |                |      [5]{}: local_time_type 0x2a2-0x2a7.7 (6)
0x2a0|      00 00 2a 30                              |  ..*0          |        utoff: 10800 (valid) 0x2a2-0x2a5.7 (4)
0x2a0|                  00                           |      .         |        dst: 0 (valid) 0x2a6-0x2a6.7 (1)
0x2a0|                     14                        |       .        |        idx: 20 (valid) 0x2a7-0x2a7.7 (1)
     |                                               |                |      [6]{}: local_time_type 0x2a8-0x2ad.7 (6)
0x2a0|                        00 00 0e 10            |        ....    |        utoff: 3600 (valid) 0x2a8-0x2ab.7 (4)
0x2a0|                                    00         |            .   |        dst: 0 (valid) 0x2ac-0x2ac.7 (1)
0x2a0|                                       0c      |             .  |        idx: 12 (valid) 0x2ad-0x2ad.7 (1)
     |                                               |                |      [7]{}: local_time_type 0x2ae-0x2b3.7 (6)
0x2a0|                                          00 00|              ..|        utoff: 7200 (valid) 0x2ae-0x2b1.7 (4)
0x2b0|1c 20                                          |.               |
0x2b0|      01                                       |  .             |        dst: 1 (valid) 0x2b2-0x2b2.7 (1)
0x2b0|         18                                    |   .            |        idx: 24 (valid) 0x2b3-0x2b3.7 (1)
     |                                               |                |      [8]{}: local_time_type 0x2b4-0x2b9.7 (6)
0x2b0|            00 00 1c 20                        |    ...         |        utoff: 7200 (valid) 0x2b4-0x2b7.7 (4)
0x2b0|                        01                     |        .       |        dst: 1 (valid) 0x2b8-0x2b8.7 (1)
0x2b0|                           18                  |         .      |        idx: 24 (valid) 0x2b9-0x2b9.7 (1)
     |                                               |                |      [9]{}: local_time_type 0x2ba-0x2bf.7 (6)
0x2b0|                              00 00 38 40      |          ..8@  |        utoff: 14400 (valid) 0x2ba-0x2bd.7 (4)
0x2b0|                                          01   |              . |        dst: 1 (valid) 0x2be-0x2be.7 (1)
0x2b0|                                             1d|               .|        idx: 29 (valid) 0x2bf-0x2bf.7 (1)
     |                                               |                |      [10]{}: local_time_type 0x2c0-0x2c5.7 (6)
0x2c0|00 00 2a 30                                    |..*0            |        utoff: 10800 (valid) 0x2c0-0x2c3.7 (4)
0x2c0|            00                                 |    .           |        dst: 0 (valid) 0x2c4-0x2c4.7 (1)
0x2c0|               14                              |     .          |        idx: 20 (valid) 0x2c5-0x2c5.7 (1)
     |                                               |                |      [11]{}: local_time_type 0x2c6-0x2cb.7 (6)
0x2c0|                  00 00 38 40                  |      ..8@      |        utoff: 14400 (valid) 0x2c6-0x2c9.7 (4)
0x2c0|                              01               |          .     |        dst: 1 (valid) 0x2ca-0x2ca.7 (1)
0x2c0|                                 1d            |           .    |        idx: 29 (valid) 0x2cb-0x2cb.7 (1)
     |                                               |                |      [12]{}: local_time_type 0x2cc-0x2d1.7 (6)
0x2c0|                                    00 00 2a 30|            ..*0|        utoff: 10800 (valid) 0x2cc-0x2cf.7 (4)
0x2d0|01                                             |.               |        dst: 1 (valid) 0x2d0-0x2d0.7 (1)
0x2d0|   21                                          | !              |        idx: 33 (valid) 0x2d1-0x2d1.7 (1)
     |                                               |                |      [13]{}: local_time_type 0x2d2-0x2d7.7 (6)
0x2d0|      00 00 1c 20                              |  ...           |        utoff: 7200 (valid) 0x2d2-0x2d5.7 (4)
0x2d0|                  00                           |      .         |        dst: 0 (valid) 0x2d6-0x2d6.7 (1)
0x2d0|                     10                        |       .        |        idx: 16 (valid) 0x2d7-0x2d7.7 (1)
     |                                               |                |      [14]{}: local_time_type 0x2d8-0x2dd.7 (6)
0x2d0|                        00 00 1c 20            |        ...     |        utoff: 7200 (valid) 0x2d8-0x2db.7 (4)
0x2d0|                                    01         |            .   |        dst: 1 (valid) 0x2dc-0x2dc.7 (1)
0x2d0|                                       18      |             .  |        idx: 24 (valid) 0x2dd-0x2dd.7 (1)
     |                                               |                |      [15]{}: local_time_type 0x2de-0x2e3.7 (6)
0x2d0|                                          00 00|              ..|        utoff: 3600 (valid) 0x2de-0x2e1.7 (4)
0x2e0|0e 10                                          |..              |
0x2e0|      00                                       |  .             |        dst: 0 (valid) 0x2e2-0x2e2.7 (1)
0x2e0|         0c                                    |   .            |        idx: 12 (valid) 0x2e3-0x2e3.7 (1)
     |                                               |                |      [16]{}: local_time_type 0x2e4-0x2e9.7 (6)
0x2e0|            00 00 1c 20                        |    ...         |        utoff: 7200 (valid) 0x2e4-0x2e7.7 (4)
0x2e0|                        00                     |        .       |        dst: 0 (valid) 0x2e8-0x2e8.7 (1)
0x2e0|                           10                  |         .      |        idx: 16 (valid) 0x2e9-0x2e9.7 (1)
     |                                               |                |      [17]{}: local_time_type 0x2ea-0x2ef.7 (6)
0x2e0|                              00 00 2a 30      |          ..*0  |        utoff: 10800 (valid) 0x2ea-0x2ed.7 (4)
0x2e0|                                          01   |              . |        dst: 1 (valid) 0x2ee-0x2ee.7 (1)
0x2e0|                                             21|               !|        idx: 33 (valid) 0x2ef-0x2ef.7 (1)
     |                                               |                |    time_zone_designations[0:9]: 0x2f0-0x315.7 (38)
0x2f0|4c 4d 54 00                                    |LMT.            |      [0]: "LMT" time_zone_designation 0x2f0-0x2f3.7 (4)
0x2f0|            57 4d 54 00                        |    WMT.        |      [1]: "WMT" time_zone_designation 0x2f4-0x2f7.7 (4)
0x2f0|                        4b 4d 54 00            |        KMT.    |      [2]: "KMT" time_zone_designation 0x2f8-0x2fb.7 (4)
0x2f0|                                    43 45 54 00|            CET.|      [3]: "CET" time_zone_designation 0x2fc-0x2ff.7 (4)
0x300|45 45 54 00                                    |EET.            |      [4]: "EET" time_zone_designation 0x300-0x303.7 (4)
0x300|            4d 53 4b 00                        |    MSK.        |      [5]: "MSK" time_zone_designation 0x304-0x307.7 (4)
0x300|                        43 45 53 54 00         |        CEST.   |      [6]: "CEST" time_zone_designation 0x308-0x30c.7 (5)
0x300|                                       4d 53 44|             MSD|      [7]: "MSD" time_zone_designation 0x30d-0x310.7 (4)
0x310|00                                             |.               |
0x310|   45 45 53 54 00                              | EEST.          |      [8]: "EEST" time_zone_designation 0x311-0x315.7 (5)
     |                                               |                |    leap_second_records[0:0]: 0x316-NA (0)
     |                                               |                |    standard_wall_indicators[0:18]: 0x316-0x327.7 (18)
0x310|                  00                           |      .         |      [0]: 0 standard_wall_indicator (valid) 0x316-0x316.7 (1)
0x310|                     00                        |       .        |      [1]: 0 standard_wall_indicator (valid) 0x317-0x317.7 (1)
0x310|                        00                     |        .       |      [2]: 0 standard_wall_indicator (valid) 0x318-0x318.7 (1)
0x310|                           00                  |         .      |      [3]: 0 standard_wall_indicator (valid) 0x319-0x319.7 (1)
0x310|                              00               |          .     |      [4]: 0 standard_wall_indicator (valid) 0x31a-0x31a.7 (1)
0x310|                                 00            |           .    |      [5]: 0 standard_wall_indicator (valid) 0x31b-0x31b.7 (1)
0x310|                                    01         |            .   |      [6]: 1 standard_wall_indicator (valid) 0x31c-0x31c.7 (1)
0x310|                                       01      |             .  |      [7]: 1 standard_wall_indicator (valid) 0x31d-0x31d.7 (1)
0x310|                                          00   |              . |      [8]: 0 standard_wall_indicator (valid) 0x31e-0x31e.7 (1)
0x310|                                             00|               .|      [9]: 0 standard_wall_indicator (valid) 0x31f-0x31f.7 (1)
0x320|01                                             |.               |      [10]: 1 standard_wall_indicator (valid) 0x320-0x320.7 (1)
0x320|   01                                          | .              |      [11]: 1 standard_wall_indicator (valid) 0x321-0x321.7 (1)
0x320|      01                                       |  .             |      [12]: 1 standard_wall_indicator (valid) 0x322-0x322.7 (1)
0x320|         01                                    |   .            |      [13]: 1 standard_wall_indicator (valid) 0x323-0x323.7 (1)
0x320|            01                                 |    .           |      [14]: 1 standard_wall_indicator (valid) 0x324-0x324.7 (1)
0x320|               01                              |     .          |      [15]: 1 standard_wall_indicator (valid) 0x325-0x325.7 (1)
0x320|                  01                           |      .         |      [16]: 1 standard_wall_indicator (valid) 0x326-0x326.7 (1)
0x320|                     01                        |       .        |      [17]: 1 standard_wall_indicator (valid) 0x327-0x327.7 (1)
     |                                               |                |    ut_local_indicators[0:18]: 0x328-0x339.7 (18)
0x320|                        00                     |        .       |      [0]: 0 ut_local_indicator (valid) 0x328-0x328.7 (1)
0x320|                           00                  |         .      |      [1]: 0 ut_local_indicator (valid) 0x329-0x329.7 (1)
0x320|                              00               |          .     |      [2]: 0 ut_local_indicator (valid) 0x32a-0x32a.7 (1)
0x320|                                 00            |           .    |      [3]: 0 ut_local_indicator (valid) 0x32b-0x32b.7 (1)
0x320|                                    00         |            .   |      [4]: 0 ut_local_indicator (valid) 0x32c-0x32c.7 (1)
0x320|                                       00      |             .  |      [5]: 0 ut_local_indicator (valid) 0x32d-0x32d.7 (1)
0x320|                                          00   |              . |      [6]: 0 ut_local_indicator (valid) 0x32e-0x32e.7 (1)
0x320|                                             00|               .|      [7]: 0 ut_local_indicator (valid) 0x32f-0x32f.7 (1)
0x330|00                                             |.               |      [8]: 0 ut_local_indicator (valid) 0x330-0x330.7 (1)
0x330|   00                                          | .              |      [9]: 0 ut_local_indicator (valid) 0x331-0x331.7 (1)
0x330|      00                                       |  .             |      [10]: 0 ut_local_indicator (valid) 0x332-0x332.7 (1)
0x330|         00                                    |   .            |      [11]: 0 ut_local_indicator (valid) 0x333-0x333.7 (1)
0x330|            00                                 |    .           |      [12]: 0 ut_local_indicator (valid) 0x334-0x334.7 (1)
0x330|               00                              |     .          |      [13]: 0 ut_local_indicator (valid) 0x335-0x335.7 (1)
0x330|                  01                           |      .         |      [14]: 1 ut_local_indicator (valid) 0x336-0x336.7 (1)
0x330|                     01                        |       .        |      [15]: 1 ut_local_indicator (valid) 0x337-0x337.7 (1)
0x330|                        01                     |        .       |      [16]: 1 ut_local_indicator (valid) 0x338-0x338.7 (1)
0x330|                           01                  |         .      |      [17]: 1 ut_local_indicator (valid) 0x339-0x339.7 (1)
     |                                               |                |  v2plusheader{}: 0x33a-0x365.7 (44)
0x330|                              54 5a 69 66      |          TZif  |    magic: 0x545a6966 (valid) 0x33a-0x33d.7 (4)
0x330|                                          32   |              2 |    ver: "2" (0x32) (valid) 0x33e-0x33e.7 (1)
0x330|                                             00|               .|    reserved: raw bits 0x33f-0x34d.7 (15)
0x340|00 00 00 00 00 00 00 00 00 00 00 00 00 00      |..............  |
0x340|                                          00 00|              ..|    isutcnt: 18 0x34e-0x351.7 (4)
0x350|00 12                                          |..              |
0x350|      00 00 00 12                              |  ....          |    isstdcnt: 18 0x352-0x355.7 (4)
0x350|                  00 00 00 00                  |      ....      |    leapcnt: 0 0x356-0x359.7 (4)
0x350|                              00 00 00 78      |          ...x  |    timecnt: 120 0x35a-0x35d.7 (4)
0x350|                                          00 00|              ..|    typecnt: 18 0x35e-0x361.7 (4)
0x360|00 12                                          |..              |
0x360|      00 00 00 26                              |  ...&          |    charcnt: 38 0x362-0x365.7 (4)
     |                                               |                |  v2plusdatablock{}: 0x366-0x853.7 (1262)
     |                                               |                |    transition_times[0:120]: 0x366-0x725.7 (960)
0x360|                  ff ff ff ff 56 b6 cc 44      |      ....V..D  |      [0]: "1879-12-31T22:18:44Z" (-2840146876) transition_time 0x366-0x36d.7 (8)
0x360|                                          ff ff|              ..|      [1]: "1916-12-31T22:36:00Z" (-1672536240) transition_time 0x36e-0x375.7 (8)
0x370|ff ff 9c 4f 1f 50                              |...O.P          |
0x370|                  ff ff ff ff a1 85 4a 98      |      ......J.  |      [2]: "1919-10-09T22:24:24Z" (-1585100136) transition_time 0x376-0x37d.7 (8)
0x370|                                          ff ff|              ..|      [3]: "1920-07-11T23:00:00Z" (-1561251600) transition_time 0x37e-0x385.7 (8)
0x380|ff ff a2 f1 30 f0                              |....0.          |
0x380|                  ff ff ff ff a3 66 78 60      |      .....fx`  |      [4]: "1920-10-08T22:00:00Z" (-1553565600) transition_time 0x386-0x38d.7 (8)
0x380|                                          ff ff|              ..|      [5]: "1940-08-02T23:00:00Z" (-928198800) transition_time 0x38e-0x395.7 (8)
0x390|ff ff c8 ac cf 70                              |.....p          |
0x390|                  ff ff ff ff ca 59 2a d0      |      .....Y*.  |      [6]: "1941-06-23T21:00:00Z" (-900126000) transition_time 0x396-0x39d.7 (8)
0x390|                                          ff ff|              ..|      [7]: "1942-11-02T01:00:00Z" (-857257200) transition_time 0x39e-0x3a5.7 (8)
0x3a0|ff ff cc e7 4b 10                              |....K.          |
0x3a0|                  ff ff ff ff cd a9 17 90      |      ........  |      [8]: "1943-03-29T01:00:00Z" (-844556400) transition_time 0x3a6-0x3ad.7 (8)
0x3a0|                                          ff ff|              ..|      [9]: "1943-10-04T01:00:00Z" (-828226800) transition_time 0x3ae-0x3b5.7 (8)
0x3b0|ff ff ce a2 43 10                              |....C.          |
0x3b0|                  ff ff ff ff cf 92 34 10      |      ......4.  |      [10]: "1944-04-03T01:00:00Z" (-812502000) transition_time 0x3b6-0x3bd.7 (8)
0x3b0|                                          ff ff|              ..|      [11]: "1944-07-31T22:00:00Z" (-802144800) transition_time 0x3be-0x3c5.7 (8)
0x3c0|ff ff d0 30 3d e0                              |...0=.          |
0x3c0|                  00 00 00 00 15 27 a7 d0      |      .....'..  |      [12]: "1981-03-31T21:00:00Z" (354920400) transition_time 0x3c6-0x3cd.7 (8)
0x3c0|                                          00 00|              ..|      [13]: "1981-09-30T20:00:00Z" (370728000) transition_time 0x3ce-0x3d5.7 (8)
0x3d0|00 00 16 18 dc 40                              |.....@          |
0x3d0|                  00 00 00 00 17 08 db 50      |      .......P  |      [14]: "1982-03-31T21:00:00Z" (386456400) transition_time 0x3d6-0x3dd.7 (8)
0x3d0|                                          00 00|              ..|      [15]: "1982-09-30T20:00:00Z" (402264000) transition_time 0x3de-0x3e5.7 (8)
0x3e0|00 00 17 fa 0f c0                              |......          |
0x3e0|                  00 00 00 00 18 ea 0e d0      |      ........  |      [16]: "1983-03-31T21:00:00Z" (417992400) transition_time 0x3e6-0x3ed.7 (8)
0x3e0|                                          00 00|              ..|      [17]: "1983-09-30T20:00:00Z" (433800000) transition_time 0x3ee-0x3f5.7 (8)
0x3f0|00 00 19 db 43 40                              |....C@          |
0x3f0|                  00 00 00 00 1a cc 93 d0      |      ........  |      [18]: "1984-03-31T21:00:00Z" (449614800) transition_time 0x3f6-0x3fd.7 (8)
0x3f0|                                          00 00|              ..|      [19]: "1984-09-29T23:00:00Z" (465346800) transition_time 0x3fe-0x405.7 (8)
0x400|00 00 1b bc a0 f0                              |......          |
0x400|                  00 00 00 00 1c ac 91 f0      |      ........  |      [20]: "1985-03-30T23:00:00Z" (481071600) transition_time 0x406-0x40d.7 (8)
0x400|                                          00 00|              ..|      [21]: "1985-09-28T23:00:00Z" (496796400) transition_time 0x40e-0x415.7 (8)
0x410|00 00 1d 9c 82 f0                              |......          |
0x410|                  00 00 00 00 1e 8c 73 f0      |      ......s.  |      [22]: "1986-03-29T23:00:00Z" (512521200) transition_time 0x416-0x41d.7 (8)
0x410|                                          00 00|              ..|      [23]: "1986-09-27T23:00:00Z" (528246000) transition_time 0x41e-0x425.7 (8)
0x420|00 00 1f 7c 64 f0                              |...|d.          |
0x420|                  00 00 00 00 20 6c 55 f0      |      .... lU.  |      [24]: "1987-03-28T23:00:00Z" (543970800) transition_time 0x426-0x42d.7 (8)
0x420|                                          00 00|              ..|      [25]: "1987-09-26T23:00:00Z" (559695600) transition_time 0x42e-0x435.7 (8)
0x430|00 00 21 5c 46 f0                              |..!\F.          |
0x430|                  00 00 00 00 22 4c 37 f0      |      ...."L7.  |      [26]: "1988-03-26T23:00:00Z" (575420400) transition_time 0x436-0x43d.7 (8)
0x430|                                          00 00|              ..|      [27]: "1988-09-24T23:00:00Z" (591145200) transition_time 0x43e-0x445.7 (8)
0x440|00 00 23 3c 28 f0                              |..#<(.          |
0x440|                  00 00 00 00 24 2c 19 f0      |      ....$,..  |      [28]: "1989-03-25T23:00:00Z" (606870000) transition_time 0x446-0x44d.7 (8)
0x440|                                          00 00|              ..|      [29]: "1989-09-24T00:00:00Z" (622598400) transition_time 0x44e-0x455.7 (8)
0x450|00 00 25 1c 19 00                              |..%...          |
0x450|                  00 00 00 00 26 0c 0a 00      |      ....&...  |      [30]: "1990-03-25T00:00:00Z" (638323200) transition_time 0x456-0x45d.7 (8)
0x450|                                          00 00|              ..|      [31]: "1990-09-30T00:00:00Z" (654652800) transition_time 0x45e-0x465.7 (8)
0x460|00 00 27 05 35 80                              |..'.5.          |
0x460|                  00 00 00 00 27 f5 26 80      |      ....'.&.  |      [32]: "1991-03-31T00:00:00Z" (670377600) transition_time 0x466-0x46d.7 (8)
0x460|                                          00 00|              ..|      [33]: "1991-09-29T00:00:00Z" (686102400) transition_time 0x46e-0x475.7 (8)
0x470|00 00 28 e5 17 80                              |..(...          |
0x470|                  00 00 00 00 29 d5 08 80      |      ....)...  |      [34]: "1992-03-29T00:00:00Z" (701827200) transition_time 0x476-0x47d.7 (8)
0x470|                                          00 00|              ..|      [35]: "1992-09-27T00:00:00Z" (717552000) transition_time 0x47e-0x485.7 (8)
0x480|00 00 2a c4 f9 80                              |..*...          |
0x480|                  00 00 00 00 2b b4 ea 80      |      ....+...  |      [36]: "1993-03-28T00:00:00Z" (733276800) transition_time 0x486-0x48d.7 (8)
0x480|                                          00 00|              ..|      [37]: "1993-09-26T00:00:00Z" (749001600) transition_time 0x48e-0x495.7 (8)
0x490|00 00 2c a4 db 80                              |..,...          |
0x490|                  00 00 00 00 2d 94 cc 80      |      ....-...  |      [38]: "1994-03-27T00:00:00Z" (764726400) transition_time 0x496-0x49d.7 (8)
0x490|                                          00 00|              ..|      [39]: "1994-09-25T00:00:00Z" (780451200) transition_time 0x49e-0x4a5.7 (8)
0x4a0|00 00 2e 84 bd 80                              |......          |
0x4a0|                  00 00 00 00 2f 74 ae 80      |      ..../t..  |      [40]: "1995-03-26T00:00:00Z" (796176000) transition_time 0x4a6-0x4ad.7 (8)
0x4a0|                                          00 00|              ..|      [41]: "1995-09-24T00:00:00Z" (811900800) transition_time 0x4ae-0x4b5.7 (8)
0x4b0|00 00 30 64 9f 80                              |..0d..          |
0x4b0|                  00 00 00 00 31 5d cb 00      |      ....1]..  |      [42]: "1996-03-31T00:00:00Z" (828230400) transition_time 0x4b6-0x4bd.7 (8)
0x4b0|                                          00 00|              ..|      [43]: "1996-10-27T00:00:00Z" (846374400) transition_time 0x4be-0x4c5.7 (8)
0x4c0|00 00 32 72 a6 00                              |..2r..          |
0x4c0|                  00 00 00 00 33 3d ad 00      |      ....3=..  |      [44]: "1997-03-30T00:00:00Z" (859680000) transition_time 0x4c6-0x4cd.7 (8)
0x4c0|                                          00 00|              ..|      [45]: "1997-10-26T00:00:00Z" (877824000) transition_time 0x4ce-0x4d5.7 (8)
0x4d0|00 00 34 52 88 00                              |..4R..          |
0x4d0|                  00 00 00 00 35 1d 9d 10      |      ....5...  |      [46]: "1998-03-29T01:00:00Z" (891133200) transition_time 0x4d6-0x4dd.7 (8)
0x4d0|                                          00 00|              ..|      [47]: "1998-10-25T01:00:00Z" (909277200) transition_time 0x4de-0x4e5.7 (8)
0x4e0|00 00 36 32 78 10                              |..62x.          |
0x4e0|                  00 00 00 00 36 fd 7f 10      |      ....6...  |      [48]: "1999-03-28T01:00:00Z" (922582800) transition_time 0x4e6-0x4ed.7 (8)
0x4e0|                                          00 00|              ..|      [49]: "1999-10-31T01:00:00Z" (941331600) transition_time 0x4ee-0x4f5.7 (8)
0x4f0|00 00 38 1b 94 90                              |..8...          |
0x4f0|                  00 00 00 00 3e 86 41 90      |      ....>.A.  |      [50]: "2003-03-30T01:00:00Z" (1048986000) transition_time 0x4f6-0x4fd.7 (8)
0x4f0|                                          00 00|              ..|      [51]: "2003-10-26T01:00:00Z" (1067130000) transition_time 0x4fe-0x505.7 (8)
0x500|00 00 3f 9b 1c 90                              |..?...          |
0x500|                  00 00 00 00 40 66 23 90      |      ....@f#.  |      [52]: "2004-03-28T01:00:00Z" (1080435600) transition_time 0x506-0x50d.7 (8)
0x500|                                          00 00|              ..|      [53]: "2004-10-31T01:00:00Z" (1099184400) transition_time 0x50e-0x515.7 (8)
0x510|00 00 41 84 39 10                              |..A.9.          |
0x510|                  00 00 00 00 42 46 05 90      |      ....BF..  |      [54]: "2005-03-27T01:00:00Z" (1111885200) transition_time 0x516-0x51d.7 (8)
0x510|                                          00 00|              ..|      [55]: "2005-10-30T01:00:00Z" (1130634000) transition_time 0x51e-0x525.7 (8)
0x520|00 00 43 64 1b 10                              |..Cd..          |
0x520|                  00 00 00 00 44 25 e7 90      |      ....D%..  |      [56]: "2006-03-26T01:00:00Z" (1143334800) transition_time 0x526-0x52d.7 (8)
0x520|                                          00 00|              ..|      [57]: "2006-10-29T01:00:00Z" (1162083600) transition_time 0x52e-0x535.7 (8)
0x530|00 00 45 43 fd 10                              |..EC..          |
0x530|                  00 00 00 00 46 05 c9 90      |      ....F...  |      [58]: "2007-03-25T01:00:00Z" (1174784400) transition_time 0x536-0x53d.7 (8)
0x530|                                          00 00|              ..|      [59]: "2007-10-28T01:00:00Z" (1193533200) transition_time 0x53e-0x545.7 (8)
0x540|00 00 47 23 df 10                              |..G#..          |
0x540|                  00 00 00 00 47 ee e6 10      |      ....G...  |      [60]: "2008-03-30T01:00:00Z" (1206838800) transition_time 0x546-0x54d.7 (8)
0x540|                                          00 00|              ..|      [61]: "2008-10-26T01:00:00Z" (1224982800) transition_time 0x54e-0x555.7 (8)
0x550|00 00 49 03 c1 10                              |..I...          |
0x550|                  00 00 00 00 49 ce c8 10      |      ....I...  |      [62]: "2009-03-29T01:00:00Z" (1238288400) transition_time 0x556-0x55d.7 (8)
0x550|                                          00 00|              ..|      [63]: "2009-10-25T01:00:00Z" (1256432400) transition_time 0x55e-0x565.7 (8)
0x560|00 00 4a e3 a3 10                              |..J...          |
0x560|                  00 00 00 00 4b ae aa 10      |      ....K...  |      [64]: "2010-03-28T01:00:00Z" (1269738000) transition_time 0x566-0x56d.7 (8)
0x560|                                          00 00|              ..|      [65]: "2010-10-31T01:00:00Z" (1288486800) transition_time 0x56e-0x575.7 (8)
0x570|00 00 4c cc bf 90                              |..L...          |
0x570|                  00 00 00 00 4d 8e 8c 10      |      ....M...  |      [66]: "2011-03-27T01:00:00Z" (1301187600) transition_time 0x576-0x57d.7 (8)
0x570|                                          00 00|              ..|      [67]: "2011-10-30T01:00:00Z" (1319936400) transition_time 0x57e-0x585.7 (8)
0x580|00 00 4e ac a1 90                              |..N...          |
0x580|                  00 00 00 00 4f 6e 6e 10      |      ....Onn.  |      [68]: "2012-03-25T01:00:00Z" (1332637200) transition_time 0x586-0x58d.7 (8)
0x580|                                          00 00|              ..|      [69]: "2012-10-28T01:00:00Z" (1351386000) transition_time 0x58e-0x595.7 (8)
0x590|00 00 50 8c 83 90                              |..P...          |
0x590|                  00 00 00 00 51 57 8a 90      |      ....QW..  |      [70]: "2013-03-31T01:00:00Z" (1364691600) transition_time 0x596-0x59d.7 (8)
0x590|                                          00 00|              ..|      [71]: "2013-10-27T01:00:00Z" (1382835600) transition_time 0x59e-0x5a5.7 (8)
0x5a0|00 00 52 6c 65 90                              |..Rle.          |
0x5a0|                  00 00 00 00 53 37 6c 90      |      ....S7l.  |      [72]: "2014-03-30T01:00:00Z" (1396141200) transition_time 0x5a6-0x5ad.7 (8)
0x5a0|                                          00 00|              ..|      [73]: "2014-10-26T01:00:00Z" (1414285200) transition_time 0x5ae-0x5b5.7 (8)
0x5b0|00 00 54 4c 47 90                              |..TLG.          |
0x5b0|                  00 00 00 00 55 17 4e 90      |      ....U.N.  |      [74]: "2015-03-29T01:00:00Z" (1427590800) transition_time 0x5b6-0x5bd.7 (8)
0x5b0|                                          00 00|              ..|      [75]: "2015-10-25T01:00:00Z" (1445734800) transition_time 0x5be-0x5c5.7 (8)
0x5c0|00 00 56 2c 29 90                              |..V,).          |
0x5c0|                  00 00 00 00 56 f7 30 90      |      ....V.0.  |      [76]: "2016-03-27T01:00:00Z" (1459040400) transition_time 0x5c6-0x5cd.7 (8)
0x5c0|                                          00 00|              ..|      [77]: "2016-10-30T01:00:00Z" (1477789200) transition_time 0x5ce-0x5d5.7 (8)
0x5d0|00 00 58 15 46 10                              |..X.F.          |
0x5d0|                  00 00 00 00 58 d7 12 90      |      ....X...  |      [78]: "2017-03-26T01:00:00Z" (1490490000) transition_time 0x5d6-0x5dd.7 (8)
0x5d0|                                          00 00|              ..|      [79]: "2017-10-29T01:00:00Z" (1509238800) transition_time 0x5de-0x5e5.7 (8)
0x5e0|00 00 59 f5 28 10                              |..Y.(.          |
0x5e0|                  00 00 00 00 5a b6 f4 90      |      ....Z...  |      [80]: "2018-03-25T01:00:00Z" (1521939600) transition_time 0x5e6-0x5ed.7 (8)
0x5e0|                                          00 00|              ..|      [81]: "2018-10-28T01:00:00Z" (1540688400) transition_time 0x5ee-0x5f5.7 (8)
0x5f0|00 00 5b d5 0a 10                              |..[...          |
0x5f0|                  00 00 00 00 5c a0 11 10      |      ....\...  |      [82]: "2019-03-31T01:00:00Z" (1553994000) transition_time 0x5f6-0x5fd.7 (8)
0x5f0|                                          00 00|              ..|      [83]: "2019-10-27T01:00:00Z" (1572138000) transition_time 0x5fe-0x605.7 (8)
0x600|00 00 5d b4 ec 10                              |..]...          |
0x600|                  00 00 00 00 5e 7f f3 10      |      ....^...  |      [84]: "2020-03-29T01:00:00Z" (1585443600) transition_time 0x606-0x60d.7 (8)
0x600|                                          00 00|              ..|      [85]: "2020-10-25T01:00:00Z" (1603587600) transition_time 0x60e-0x615.7 (8)
0x610|00 00 5f 94 ce 10                              |.._...          |
0x610|                  00 00 00 00 60 5f d5 10      |      ....`_..  |      [86]: "2021-03-28T01:00:00Z" (1616893200) transition_time 0x616-0x61d.7 (8)
0x610|                                          00 00|              ..|      [87]: "2021-10-31T01:00:00Z" (1635642000) transition_time 0x61e-0x625.7 (8)
0x620|00 00 61 7d ea 90                              |..a}..          |
0x620|                  00 00 00 00 62 3f b7 10      |      ....b?..  |      [88]: "2022-03-27T01:00:00Z" (1648342800) transition_time 0x626-0x62d.7 (8)
0x620|                                          00 00|              ..|      [89]: "2022-10-30T01:00:00Z" (1667091600) transition_time 0x62e-0x635.7 (8)
0x630|00 00 63 5d cc 90                              |..c]..          |
0x630|                  00 00 00 00 64 1f 99 10      |      ....d...  |      [90]: "2023-03-26T01:00:00Z" (1679792400) transition_time 0x636-0x63d.7 (8)
0x630|                                          00 00|              ..|      [91]: "2023-10-29T01:00:00Z" (1698541200) transition_time 0x63e-0x645.7 (8)
0x640|00 00 65 3d ae 90                              |..e=..          |
0x640|                  00 00 00 00 66 08 b5 90      |      ....f...  |      [92]: "2024-03-31T01:00:00Z" (1711846800) transition_time 0x646-0x64d.7 (8)
0x640|                                          00 00|              ..|      [93]: "2024-10-27T01:00:00Z" (1729990800) transition_time 0x64e-0x655.7 (8)
0x650|00 00 67 1d 90 90                              |..g...          |
0x650|                  00 00 00 00 67 e8 97 90      |      ....g...  |      [94]: "2025-03-30T01:00:00Z" (1743296400) transition_time 0x656-0x65d.7 (8)
0x650|                                          00 00|              ..|      [95]: "2025-10-26T01:00:00Z" (1761440400) transition_time 0x65e-0x665.7 (8)
0x660|00 00 68 fd 72 90                              |..h.r.          |
0x660|                  00 00 00 00 69 c8 79 90      |      ....i.y.  |      [96]: "2026-03-29T01:00:00Z" (1774746000) transition_time 0x666-0x66d.7 (8)
0x660|                                          00 00|              ..|      [97]: "2026-10-25T01:00:00Z" (1792890000) transition_time 0x66e-0x675.7 (8)
0x670|00 00 6a dd 54 90                              |..j.T.          |
0x670|                  00 00 00 00 6b a8 5b 90      |      ....k.[.  |      [98]: "2027-03-28T01:00:00Z" (1806195600) transition_time 0x676-0x67d.7 (8)
0x670|                                          00 00|              ..|      [99]: "2027-10-31T01:00:00Z" (1824944400) transition_time 0x67e-0x685.7 (8)
0x680|00 00 6c c6 71 10                              |..l.q.          |
0x680|                  00 00 00 00 6d 88 3d 90      |      ....m.=.  |      [100]: "2028-03-26T01:00:00Z" (1837645200) transition_time 0x686-0x68d.7 (8)
0x680|                                          00 00|              ..|      [101]: "2028-10-29T01:00:00Z" (1856394000) transition_time 0x68e-0x695.7 (8)
0x690|00 00 6e a6 53 10                              |..n.S.          |
0x690|                  00 00 00 00 6f 68 1f 90      |      ....oh..  |      [102]: "2029-03-25T01:00:00Z" (1869094800) transition_time 0x696-0x69d.7 (8)
0x690|                                          00 00|              ..|      [103]: "2029-10-28T01:00:00Z" (1887843600) transition_time 0x69e-0x6a5.7 (8)
0x6a0|00 00 70 86 35 10                              |..p.5.          |
0x6a0|                  00 00 00 00 71 51 3c 10      |      ....qQ<.  |      [104]: "2030-03-31T01:00:00Z" (1901149200) transition_time 0x6a6-0x6ad.7 (8)
0x6a0|                                          00 00|              ..|      [105]: "2030-10-27T01:00:00Z" (1919293200) transition_time 0x6ae-0x6b5.7 (8)
0x6b0|00 00 72 66 17 10                              |..rf..          |
0x6b0|                  00 00 00 00 73 31 1e 10      |      ....s1..  |      [106]: "2031-03-30T01:00:00Z" (1932598800) transition_time 0x6b6-0x6bd.7 (8)
0x6b0|                                          00 00|              ..|      [107]: "2031-10-26T01:00:00Z" (1950742800) transition_time 0x6be-0x6c5.7 (8)
0x6c0|00 00 74 45 f9 10                              |..tE..          |
0x6c0|                  00 00 00 00 75 11 00 10      |      ....u...  |      [108]: "2032-03-28T01:00:00Z" (1964048400) transition_time 0x6c6-0x6cd.7 (8)
0x6c0|                                          00 00|              ..|      [109]: "2032-10-31T01:00:00Z" (1982797200) transition_time 0x6ce-0x6d5.7 (8)
0x6d0|00 00 76 2f 15 90                              |..v/..          |
0x6d0|                  00 00 00 00 76 f0 e2 10      |      ....v...  |      [110]: "2033-03-27T01:00:00Z" (1995498000) transition_time 0x6d6-0x6dd.7 (8)
0x6d0|                                          00 00|              ..|      [111]: "2033-10-30T01:00:00Z" (2014246800) transition_time 0x6de-0x6e5.7 (8)
0x6e0|00 00 78 0e f7 90                              |..x...          |
0x6e0|                  00 00 00 00 78 d0 c4 10      |      ....x...  |      [112]: "2034-03-26T01:00:00Z" (2026947600) transition_time 0x6e6-0x6ed.7 (8)
0x6e0|                                          00 00|              ..|      [113]: "2034-10-29T01:00:00Z" (2045696400) transition_time 0x6ee-0x6f5.7 (8)
0x6f0|00 00 79 ee d9 90                              |..y...          |
0x6f0|                  00 00 00 00 7a b0 a6 10      |      ....z...  |      [114]: "2035-03-25T01:00:00Z" (2058397200) transition_time 0x6f6-0x6fd.7 (8)
0x6f0|                                          00 00|              ..|      [115]: "2035-10-28T01:00:00Z" (2077146000) transition_time 0x6fe-0x705.7 (8)
0x700|00 00 7b ce bb 90                              |..{...          |
0x700|                  00 00 00 00 7c 99 c2 90      |      ....|...  |      [116]: "2036-03-30T01:00:00Z" (2090451600) transition_time 0x706-0x70d.7 (8)
0x700|                                          00 00|              ..|      [117]: "2036-10-26T01:00:00Z" (2108595600) transition_time 0x70e-0x715.7 (8)
0x710|00 00 7d ae 9d 90                              |..}...          |
0x710|                  00 00 00 00 7e 79 a4 90      |      ....~y..  |      [118]: "2037-03-29T01:00:00Z" (2121901200) transition_time 0x716-0x71d.7 (8)
0x710|                                          00 00|              ..|      [119]: "2037-10-25T01:00:00Z" (2140045200) transition_time 0x71e-0x725.7 (8)
0x720|00 00 7f 8e 7f 90                              |......          |
     |                                               |                |    transition_types[0:120]: 0x726-0x79d.7 (120)
0x720|                  01                           |      .         |      [0]: 1 transition_type 0x726-0x726.7 (1)
0x720|                     02                        |       .        |      [1]: 2 transition_type 0x727-0x727.7 (1)
0x720|                        03                     |        .       |      [2]: 3 transition_type 0x728-0x728.7 (1)
0x720|                           04                  |         .      |      [3]: 4 transition_type 0x729-0x729.7 (1)
0x720|                              03               |          .     |      [4]: 3 transition_type 0x72a-0x72a.7 (1)
0x720|                                 05            |           .    |      [5]: 5 transition_type 0x72b-0x72b.7 (1)
0x720|                                    08         |            .   |      [6]: 8 transition_type 0x72c-0x72c.7 (1)
0x720|                                       06      |             .  |      [7]: 6 transition_type 0x72d-0x72d.7 (1)
0x720|                                          07   |              . |      [8]: 7 transition_type 0x72e-0x72e.7 (1)
0x720|                                             06|               .|      [9]: 6 transition_type 0x72f-0x72f.7 (1)
0x730|07                                             |.               |      [10]: 7 transition_type 0x730-0x730.7 (1)
0x730|   05                                          | .              |      [11]: 5 transition_type 0x731-0x731.7 (1)
0x730|      09                                       |  .             |      [12]: 9 transition_type 0x732-0x732.7 (1)
0x730|         05                                    |   .            |      [13]: 5 transition_type 0x733-0x733.7 (1)
0x730|            09                                 |    .           |      [14]: 9 transition_type 0x734-0x734.7 (1)
0x730|               05                              |     .          |      [15]: 5 transition_type 0x735-0x735.7 (1)
0x730|                  09                           |      .         |      [16]: 9 transition_type 0x736-0x736.7 (1)
0x730|                     05                        |       .        |      [17]: 5 transition_type 0x737-0x737.7 (1)
0x730|                        09                     |        .       |      [18]: 9 transition_type 0x738-0x738.7 (1)
0x730|                           0a                  |         .      |      [19]: 10 transition_type 0x739-0x739.7 (1)
0x730|                              0b               |          .     |      [20]: 11 transition_type 0x73a-0x73a.7 (1)
0x730|                                 0a            |           .    |      [21]: 10 transition_type 0x73b-0x73b.7 (1)
0x730|                                    0b         |            .   |      [22]: 11 transition_type 0x73c-0x73c.7 (1)
0x730|                                       0a      |             .  |      [23]: 10 transition_type 0x73d-0x73d.7 (1)
0x730|                                          0b   |              . |      [24]: 11 transition_type 0x73e-0x73e.7 (1)
0x730|                                             0a|               .|      [25]: 10 transition_type 0x73f-0x73f.7 (1)
0x740|0b                                             |.               |      [26]: 11 transition_type 0x740-0x740.7 (1)
0x740|   0a                                          | .              |      [27]: 10 transition_type 0x741-0x741.7 (1)
0x740|      0c                                       |  .             |      [28]: 12 transition_type 0x742-0x742.7 (1)
0x740|         0d                                    |   .            |      [29]: 13 transition_type 0x743-0x743.7 (1)
0x740|            0c                                 |    .           |      [30]: 12 transition_type 0x744-0x744.7 (1)
0x740|               0d                              |     .          |      [31]: 13 transition_type 0x745-0x745.7 (1)
0x740|                  0c                           |      .         |      [32]: 12 transition_type 0x746-0x746.7 (1)
0x740|                     0d                        |       .        |      [33]: 13 transition_type 0x747-0x747.7 (1)
0x740|                        0c                     |        .       |      [34]: 12 transition_type 0x748-0x748.7 (1)
0x740|                           0d                  |         .      |      [35]: 13 transition_type 0x749-0x749.7 (1)
0x740|                              0c               |          .     |      [36]: 12 transition_type 0x74a-0x74a.7 (1)
0x740|                                 0d            |           .    |      [37]: 13 transition_type 0x74b-0x74b.7 (1)
0x740|                                    0c         |            .   |      [38]: 12 transition_type 0x74c-0x74c.7 (1)
0x740|                                       0d      |             .  |      [39]: 13 transition_type 0x74d-0x74d.7 (1)
0x740|                                          0c   |              . |      [40]: 12 transition_type 0x74e-0x74e.7 (1)
0x740|                                             0d|               .|      [41]: 13 transition_type 0x74f-0x74f.7 (1)
0x750|0c                                             |.               |      [42]: 12 transition_type 0x750-0x750.7 (1)
0x750|   0d                                          | .              |      [43]: 13 transition_type 0x751-0x751.7 (1)
0x750|      0c                                       |  .             |      [44]: 12 transition_type 0x752-0x752.7 (1)
0x750|         0d                                    |   .            |      [45]: 13 transition_type 0x753-0x753.7 (1)
0x750|            0e                                 |    .           |      [46]: 14 transition_type 0x754-0x754.7 (1)
0x750|               0f                              |     .          |      [47]: 15 transition_type 0x755-0x755.7 (1)
0x750|                  0e                           |      .         |      [48]: 14 transition_type 0x756-0x756.7 (1)
0x750|                     10                        |       .        |      [49]: 16 transition_type 0x757-0x757.7 (1)
0x750|                        11                     |        .       |      [50]: 17 transition_type 0x758-0x758.7 (1)
0x750|                           10                  |         .      |      [51]: 16 transition_type 0x759-0x759.7 (1)
0x750|                              11               |          .     |      [52]: 17 transition_type 0x75a-0x75a.7 (1)
0x750|                                 10            |           .    |      [53]: 16 transition_type 0x75b-0x75b.7 (1)
0x750|                                    11         |            .   |      [54]: 17 transition_type 0x75c-0x75c.7 (1)
0x750|                                       10      |             .  |      [55]: 16 transition_type 0x75d-0x75d.7 (1)
0x750|                                          11   |              . |      [56]: 17 transition_type 0x75e-0x75e.7 (1)
0x750|                                             10|               .|      [57]: 16 transition_type 0x75f-0x75f.7 (1)
0x760|11                                             |.               |      [58]: 17 transition_type 0x760-0x760.7 (1)
0x760|   10                                          | .              |      [59]: 16 transition_type 0x761-0x761.7 (1)
0x760|      11                                       |  .             |      [60]: 17 transition_type 0x762-0x762.7 (1)
0x760|         10                                    |   .            |      [61]: 16 transition_type 0x763-0x763.7 (1)
0x760|            11                                 |    .           |      [62]: 17 transition_type 0x764-0x764.7 (1)
0x760|               10                              |     .          |      [63]: 16 transition_type 0x765-0x765.7 (1)
0x760|                  11                           |      .         |      [64]: 17 transition_type 0x766-0x766.7 (1)
0x760|                     10                        |       .        |      [65]: 16 transition_type 0x767-0x767.7 (1)
0x760|                        11                     |        .       |      [66]: 17 transition_type 0x768-0x768.7 (1)
0x760|                           10                  |         .      |      [67]: 16 transition_type 0x769-0x769.7 (1)
0x760|                              11               |          .     |      [68]: 17 transition_type 0x76a-0x76a.7 (1)
0x760|                                 10            |           .    |      [69]: 16 transition_type 0x76b-0x76b.7 (1)
0x760|                                    11         |            .   |      [70]: 17 transition_type 0x76c-0x76c.7 (1)
0x760|                                       10      |             .  |      [71]: 16 transition_type 0x76d-0x76d.7 (1)
0x760|                                          11   |              . |      [72]: 17 transition_type 0x76e-0x76e.7 (1)
0x760|                                             10|               .|      [73]: 16 transition_type 0x76f-0x76f.7 (1)
0x770|11                                             |.               |      [74]: 17 transition_type 0x770-0x770.7 (1)
0x770|   10                                          | .              |      [75]: 16 transition_type 0x771-0x771.7 (1)
0x770|      11                                       |  .             |      [76]: 17 transition_type 0x772-0x772.7 (1)
0x770|         10                                    |   .            |      [77]: 16 transition_type 0x773-0x773.7 (1)
0x770|            11                                 |    .           |      [78]: 17 transition_type 0x774-0x774.7 (1)
0x770|               10                              |     .          |      [79]: 16 transition_type 0x775-0x775.7 (1)
0x770|                  11                           |      .         |      [80]: 17 transition_type 0x776-0x776.7 (1)
0x770|                     10                        |       .        |      [81]: 16 transition_type 0x777-0x777.7 (1)
0x770|                        11                     |        .       |      [82]: 17 transition_type 0x778-0x778.7 (1)
0x770|                           10                  |         .      |      [83]: 16 transition_type 0x779-0x779.7 (1)
0x770|                              11               |          .     |      [84]: 17 transition_type 0x77a-0x77a.7 (1)
0x770|                                 10            |           .    |      [85]: 16 transition_type 0x77b-0x77b.7 (1)
0x770|                                    11         |            .   |      [86]: 17 transition_type 0x77c-0x77c.7 (1)
0x770|                                       10      |             .  |      [87]: 16 transition_type 0x77d-0x77d.7 (1)
0x770|                                          11   |              . |      [88]: 17 transition_type 0x77e-0x77e.7 (1)
0x770|                                             10|               .|      [89]: 16 transition_type 0x77f-0x77f.7 (1)
0x780|11                                             |.               |      [90]: 17 transition_type 0x780-0x780.7 (1)
0x780|   10                                          | .              |      [91]: 16 transition_type 0x781-0x781.7 (1)
0x780|      11                                       |  .             |      [92]: 17 transition_type 0x782-0x782.7 (1)
0x780|         10                                    |   .            |      [93]: 16 transition_type 0x783-0x783.7 (1)
0x780|            11                                 |    .           |      [94]: 17 transition_type 0x784-0x784.7 (1)
0x780|               10                              |     .          |      [95]: 16 transition_type 0x785-0x785.7 (1)
0x780|                  11                           |      .         |      [96]: 17 transition_type 0x786-0x786.7 (1)
0x780|                     10                        |       .        |      [97]: 16 transition_type 0x787-0x787.7 (1)
0x780|                        11                     |        .       |      [98]: 17 transition_type 0x788-0x788.7 (1)
0x780|                           10                  |         .      |      [99]: 16 transition_type 0x789-0x789.7 (1)
0x780|                              11               |          .     |      [100]: 17 transition_type 0x78a-0x78a.7 (1)
0x780|                                 10            |           .    |      [101]: 16 transition_type 0x78b-0x78b.7 (1)
0x780|                                    11         |            .   |      [102]: 17 transition_type 0x78c-0x78c.7 (1)
0x780|                                       10      |             .  |      [103]: 16 transition_type 0x78d-0x78d.7 (1)
0x780|                                          11   |              . |      [104]: 17 transition_type 0x78e-0x78e.7 (1)
0x780|                                             10|               .|      [105]: 16 transition_type 0x78f-0x78f.7 (1)
0x790|11                                             |.               |      [106]: 17 transition_type 0x790-0x790.7 (1)
0x790|   10                                          | .              |      [107]: 16 transition_type 0x791-0x791.7 (1)
0x790|      11                                       |  .             |      [108]: 17 transition_type 0x792-0x792.7 (1)
0x790|         10                                    |   .            |      [109]: 16 transition_type 0x793-0x793.7 (1)
0x790|            11                                 |    .           |      [110]: 17 transition_type 0x794-0x794.7 (1)
0x790|               10                              |     .          |      [111]: 16 transition_type 0x795-0x795.7 (1)
0x790|                  11                           |      .         |      [112]: 17 transition_type 0x796-0x796.7 (1)
0x790|                     10                        |       .        |      [113]: 16 transition_type 0x797-0x797.7 (1)
0x790|                        11                     |        .       |      [114]: 17 transition_type 0x798-0x798.7 (1)
0x790|                           10                  |         .      |      [115]: 16 transition_type 0x799-0x799.7 (1)
0x790|                              11               |          .     |      [116]: 17 transition_type 0x79a-0x79a.7 (1)
0x790|                                 10            |           .    |      [117]: 16 transition_type 0x79b-0x79b.7 (1)
0x790|                                    11         |            .   |      [118]: 17 transition_type 0x79c-0x79c.7 (1)
0x790|                                       10      |             .  |      [119]: 16 transition_type 0x79d-0x79d.7 (1)
     |                                               |                |    local_time_type_records[0:18]: 0x79e-0x809.7 (108)
     |                                               |                |      [0]{}: local_time_type 0x79e-0x7a3.7 (6)
0x790|                                          00 00|              ..|        utoff: 6076 (valid) 0x79e-0x7a1.7 (4)
0x7a0|17 bc                                          |..              |
0x7a0|      00                                       |  .             |        dst: 0 (valid) 0x7a2-0x7a2.7 (1)
0x7a0|         00                                    |   .            |        idx: 0 (valid) 0x7a3-0x7a3.7 (1)
     |                                               |                |      [1]{}: local_time_type 0x7a4-0x7a9.7 (6)
0x7a0|            00 00 13 b0                        |    ....        |        utoff: 5040 (valid) 0x7a4-0x7a7.7 (4)
0x7a0|                        00                     |        .       |        dst: 0 (valid) 0x7a8-0x7a8.7 (1)
0x7a0|                           04                  |         .      |        idx: 4 (valid) 0x7a9-0x7a9.7 (1)
     |                                               |                |      [2]{}: local_time_type 0x7aa-0x7af.7 (6)
0x7a0|                              00 00 16 68      |          ...h  |        utoff: 5736 (valid) 0x7aa-0x7ad.7 (4)
0x7a0|                                          00   |              . |        dst: 0 (valid) 0x7ae-0x7ae.7 (1)
0x7a0|                                             08|               .|        idx: 8 (valid) 0x7af-0x7af.7 (1)
     |                                               |                |      [3]{}: local_time_type 0x7b0-0x7b5.7 (6)
0x7b0|00 00 0e 10                                    |....            |        utoff: 3600 (valid) 0x7b0-0x7b3.7 (4)
0x7b0|            00                                 |    .           |        dst: 0 (valid) 0x7b4-0x7b4.7 (1)
0x7b0|               0c                              |     .          |        idx: 12 (valid) 0x7b5-0x7b5.7 (1)
     |                                               |                |      [4]{}: local_time_type 0x7b6-0x7bb.7 (6)
0x7b0|                  00 00 1c 20                  |      ...       |        utoff: 7200 (valid) 0x7b6-0x7b9.7 (4)
0x7b0|                              00               |          .     |        dst: 0 (valid) 0x7ba-0x7ba.7 (1)
0x7b0|                                 10            |           .    |        idx: 16 (valid) 0x7bb-0x7bb.7 (1)
     |                                               |                |      [5]{}: local_time_type 0x7bc-0x7c1.7 (6)
0x7b0|                                    00 00 2a 30|            ..*0|        utoff: 10800 (valid) 0x7bc-0x7bf.7 (4)
0x7c0|00                                             |.               |        dst: 0 (valid) 0x7c0-0x7c0.7 (1)
0x7c0|   14                                          | .              |        idx: 20 (valid) 0x7c1-0x7c1.7 (1)
     |                                               |                |      [6]{}: local_time_type 0x7c2-0x7c7.7 (6)
0x7c0|      00 00 0e 10                              |  ....          |        utoff: 3600 (valid) 0x7c2-0x7c5.7 (4)
0x7c0|                  00                           |      .         |        dst: 0 (valid) 0x7c6-0x7c6.7 (1)
0x7c0|                     0c                        |       .        |        idx: 12 (valid) 0x7c7-0x7c7.7 (1)
     |                                               |                |      [7]{}: local_time_type 0x7c8-0x7cd.7 (6)
0x7c0|                        00 00 1c 20            |        ...     |        utoff: 7200 (valid) 0x7c8-0x7cb.7 (4)
0x7c0|                                    01         |            .   |        dst: 1 (valid) 0x7cc-0x7cc.7 (1)
0x7c0|                                       18      |             .  |        idx: 24 (valid) 0x7cd-0x7cd.7 (1)
     |                                               |                |      [8]{}: local_time_type 0x7ce-0x7d3.7 (6)
0x7c0|                                          00 00|              ..|        utoff: 7200 (valid) 0x7ce-0x7d1.7 (4)
0x7d0|1c 20                                          |.               |
0x7d0|      01                                       |  .             |        dst: 1 (valid) 0x7d2-0x7d2.7 (1)
0x7d0|         18                                    |   .            |        idx: 24 (valid) 0x7d3-0x7d3.7 (1)
     |                                               |                |      [9]{}: local_time_type 0x7d4-0x7d9.7 (6)
0x7d0|            00 00 38 40                        |    ..8@        |        utoff: 14400 (valid) 0x7d4-0x7d7.7 (4)
0x7d0|                        01                     |        .       |        dst: 1 (valid) 0x7d8-0x7d8.7 (1)
0x7d0|                           1d                  |         .      |        idx: 29 (valid) 0x7d9-0x7d9.7 (1)
     |                                               |                |      [10]{}: local_time_type 0x7da-0x7df.7 (6)
0x7d0|                              00 00 2a 30      |          ..*0  |        utoff: 10800 (valid) 0x7da-0x7dd.7 (4)
0x7d0|                                          00   |              . |        dst: 0 (valid) 0x7de-0x7de.7 (1)
0x7d0|                                             14|               .|        idx: 20 (valid) 0x7df-0x7df.7 (1)
     |                                               |                |      [11]{}: local_time_type 0x7e0-0x7e5.7 (6)
0x7e0|00 00 38 40                                    |..8@            |        utoff: 14400 (valid) 0x7e0-0x7e3.7 (4)
0x7e0|            01                                 |    .           |        dst: 1 (valid) 0x7e4-0x7e4.7 (1)
0x7e0|               1d                              |     .          |        idx: 29 (valid) 0x7e5-0x7e5.7 (1)
     |                                               |                |      [12]{}: local_time_type 0x7e6-0x7eb.7 (6)
0x7e0|                  00 00 2a 30                  |      ..*0      |        utoff: 10800 (valid) 0x7e6-0x7e9.7 (4)
0x7e0|                              01               |          .     |        dst: 1 (valid) 0x7ea-0x7ea.7 (1)
0x7e0|                                 21            |           !    |        idx: 33 (valid) 0x7eb-0x7eb.7 (1)
     |                                               |                |      [13]{}: local_time_type 0x7ec-0x7f1.7 (6)
0x7e0|                                    00 00 1c 20|            ... |        utoff: 7200 (valid) 0x7ec-0x7ef.7 (4)
0x7f0|00                                             |.               |        dst: 0 (valid) 0x7f0-0x7f0.7 (1)
0x7f0|   10                                          | .              |        idx: 16 (valid) 0x7f1-0x7f1.7 (1)
     |                                               |                |      [14]{}: local_time_type 0x7f2-0x7f7.7 (6)
0x7f0|      00 00 1c 20                              |  ...           |        utoff: 7200 (valid) 0x7f2-0x7f5.7 (4)
0x7f0|                  01                           |      .         |        dst: 1 (valid) 0x7f6-0x7f6.7 (1)
0x7f0|                     18                        |       .        |        idx: 24 (valid) 0x7f7-0x7f7.7 (1)
     |                                               |                |      [15]{}: local_time_type 0x7f8-0x7fd.7 (6)
0x7f0|                        00 00 0e 10            |        ....    |        utoff: 3600 (valid) 0x7f8-0x7fb.7 (4)
0x7f0|                                    00         |            .   |        dst: 0 (valid) 0x7fc-0x7fc.7 (1)
0x7f0|                                       0c      |             .  |        idx: 12 (valid) 0x7fd-0x7fd.7 (1)
     |                                               |                |      [16]{}: local_time_type 0x7fe-0x803.7 (6)
0x7f0|                                          00 00|              ..|        utoff: 7200 (valid) 0x7fe-0x801.7 (4)
0x800|1c 20                                          |.               |
0x800|      00                                       |  .             |        dst: 0 (valid) 0x802-0x802.7 (1)
0x800|         10                                    |   .            |        idx: 16 (valid) 0x803-0x803.7 (1)
     |                                               |                |      [17]{}: local_time_type 0x804-0x809.7 (6)
0x800|            00 00 2a 30                        |    ..*0        |        utoff: 10800 (valid) 0x804-0x807.7 (4)
0x800|                        01                     |        .       |        dst: 1 (valid) 0x808-0x808.7 (1)
0x800|                           21                  |         !      |        idx: 33 (valid) 0x809-0x809.7 (1)
     |                                               |                |    time_zone_designations[0:9]: 0x80a-0x82f.7 (38)
0x800|                              4c 4d 54 00      |          LMT.  |      [0]: "LMT" time_zone_designation 0x80a-0x80d.7 (4)
0x800|                                          57 4d|              WM|      [1]: "WMT" time_zone_designation 0x80e-0x811.7 (4)
0x810|54 00                                          |T.              |
0x810|      4b 4d 54 00                              |  KMT.          |      [2]: "KMT" time_zone_designation 0x812-0x815.7 (4)
0x810|                  43 45 54 00                  |      CET.      |      [3]: "CET" time_zone_designation 0x816-0x819.7 (4)
0x810|                              45 45 54 00      |          EET.  |      [4]: "EET" time_zone_designation 0x81a-0x81d.7 (4)
0x810|                                          4d 53|              MS|      [5]: "MSK" time_zone_designation 0x81e-0x821.7 (4)
0x820|4b 00                                          |K.              |
0x820|      43 45 53 54 00                           |  CEST.         |      [6]: "CEST" time_zone_designation 0x822-0x826.7 (5)
0x820|                     4d 53 44 00               |       MSD.     |      [7]: "MSD" time_zone_designation 0x827-0x82a.7 (4)
0x820|                                 45 45 53 54 00|           EEST.|      [8]: "EEST" time_zone_designation 0x82b-0x82f.7 (5)
     |                                               |                |    leap_second_records[0:0]: 0x830-NA (0)
     |                                               |                |    standard_wall_indicators[0:18]: 0x830-0x841.7 (18)
0x830|00                                             |.               |      [0]: 0 standard_wall_indicator (valid) 0x830-0x830.7 (1)
0x830|   00                                          | .              |      [1]: 0 standard_wall_indicator (valid) 0x831-0x831.7 (1)
0x830|      00                                       |  .             |      [2]: 0 standard_wall_indicator (valid) 0x832-0x832.7 (1)
0x830|         00                                    |   .            |      [3]: 0 standard_wall_indicator (valid) 0x833-0x833.7 (1)
0x830|            00                                 |    .           |      [4]: 0 standard_wall_indicator (valid) 0x834-0x834.7 (1)
0x830|               00                              |     .          |      [5]: 0 standard_wall_indicator (valid) 0x835-0x835.7 (1)
0x830|                  01                           |      .         |      [6]: 1 standard_wall_indicator (valid) 0x836-0x836.7 (1)
0x830|                     01                        |       .        |      [7]: 1 standard_wall_indicator (valid) 0x837-0x837.7 (1)
0x830|                        00                     |        .       |      [8]: 0 standard_wall_indicator (valid) 0x838-0x838.7 (1)
0x830|                           00                  |         .      |      [9]: 0 standard_wall_indicator (valid) 0x839-0x839.7 (1)
0x830|                              01               |          .     |      [10]: 1 standard_wall_indicator (valid) 0x83a-0x83a.7 (1)
0x830|                                 01            |           .    |      [11]: 1 standard_wall_indicator (valid) 0x83b-0x83b.7 (1)
0x830|                                    01         |            .   |      [12]: 1 standard_wall_indicator (valid) 0x83c-0x83c.7 (1)
0x830|                                       01      |             .  |      [13]: 1 standard_wall_indicator (valid) 0x83d-0x83d.7 (1)
0x830|                                          01   |              . |      [14]: 1 standard_wall_indicator (valid) 0x83e-0x83e.7 (1)
0x830|                                             01|               .|      [15]: 1 standard_wall_indicator (valid) 0x83f-0x83f.7 (1)
0x840|01                                             |.               |      [16]: 1 standard_wall_indicator (valid) 0x840-0x840.7 (1)
0x840|   01                                          | .              |      [17]: 1 standard_wall_indicator (valid) 0x841-0x841.7 (1)
     |                                               |                |    ut_local_indicators[0:18]: 0x842-0x853.7 (18)
0x840|      00                                       |  .             |      [0]: 0 ut_local_indicator (valid) 0x842-0x842.7 (1)
0x840|         00                                    |   .            |      [1]: 0 ut_local_indicator (valid) 0x843-0x843.7 (1)
0x840|            00                                 |    .           |      [2]: 0 ut_local_indicator (valid) 0x844-0x844.7 (1)
0x840|               00                              |     .          |      [3]: 0 ut_local_indicator (valid) 0x845-0x845.7 (1)
0x840|                  00                           |      .         |      [4]: 0 ut_local_indicator (valid) 0x846-0x846.7 (1)
0x840|                     00                        |       .        |      [5]: 0 ut_local_indicator (valid) 0x847-0x847.7 (1)
0x840|                        00                     |        .       |      [6]: 0 ut_local_indicator (valid) 0x848-0x848.7 (1)
0x840|                           00                  |         .      |      [7]: 0 ut_local_indicator (valid) 0x849-0x849.7 (1)
0x840|                              00               |          .     |      [8]: 0 ut_local_indicator (valid) 0x84a-0x84a.7 (1)
0x840|                                 00            |           .    |      [9]: 0 ut_local_indicator (valid) 0x84b-0x84b.7 (1)
0x840|                                    00         |            .   |      [10]: 0 ut_local_indicator (valid) 0x84c-0x84c.7 (1)
0x840|                                       00      |             .  |      [11]: 0 ut_local_indicator (valid) 0x84d-0x84d.7 (1)
0x840|                                          00   |              . |      [12]: 0 ut_local_indicator (valid) 0x84e-0x84e.7 (1)
0x840|                                             00|               .|      [13]: 0 ut_local_indicator (valid) 0x84f-0x84f.7 (1)
0x850|01                                             |.               |      [14]: 1 ut_local_indicator (valid) 0x850-0x850.7 (1)
0x850|   01                                          | .              |      [15]: 1 ut_local_indicator (valid) 0x851-0x851.7 (1)
0x850|      01                                       |  .             |      [16]: 1 ut_local_indicator (valid) 0x852-0x852.7 (1)
0x850|         01                                    |   .            |      [17]: 1 ut_local_indicator (valid) 0x853-0x853.7 (1)
     |                                               |                |  footer{}: 0x854-0x871.7 (30)
0x850|            0a                                 |    .           |    nl1: 10 (valid) 0x854-0x854.7 (1)
0x850|               45 45 54 2d 32 45 45 53 54 2c 4d|     EET-2EEST,M|    tz_string: "EET-2EEST,M3.5.0/3,M10.5.0/4" 0x855-0x870.7 (28)
0x860|33 2e 35 2e 30 2f 33 2c 4d 31 30 2e 35 2e 30 2f|3.5.0/3,M10.5.0/|
0x870|34                                             |4               |
0x870|   0a|                                         | .|             |    nl2: 10 (valid) 0x871-0x871.7 (1)
