$ fq -d tzif dv Vincennes
     |00 01 02 03 04 05 06 07 08 09 0a 0b 0c 0d 0e 0f|0123456789abcdef|.{}: Vincennes (tzif) 0x0-0x72c (1836)
     |                                               |                |  v1header{}: 0x0-0x2c (44)
0x000|54 5a 69 66                                    |TZif            |    magic: 0x545a6966 (valid) 0x0-0x4 (4)
0x000|            32                                 |    2           |    ver: "2" (0x32) (valid) 0x4-0x5 (1)
0x000|               00 00 00 00 00 00 00 00 00 00 00|     ...........|    reserved: raw bits 0x5-0x14 (15)
0x010|00 00 00 00                                    |....            |
0x010|            00 00 00 08                        |    ....        |    isutcnt: 8 0x14-0x18 (4)
0x010|                        00 00 00 08            |        ....    |    isstdcnt: 8 0x18-0x1c (4)
0x010|                                    00 00 00 1b|            ....|    leapcnt: 27 0x1c-0x20 (4)
0x020|00 00 00 49                                    |...I            |    timecnt: 73 0x20-0x24 (4)
0x020|            00 00 00 08                        |    ....        |    typecnt: 8 0x24-0x28 (4)
0x020|                        00 00 00 1c            |        ....    |    charcnt: 28 0x28-0x2c (4)
     |                                               |                |  v1datablock{}: 0x2c-0x2cd (673)
     |                                               |                |    transition_times[0:73]: 0x2c-0x150 (292)
0x020|                                    80 00 00 00|            ....|      [0]: "1901-12-13T20:45:52Z" (-2147483648) transition_time 0x2c-0x30 (4)
0x030|9e a6 2c 80                                    |..,.            |      [1]: "1918-03-31T08:00:00Z" (-1633276800) transition_time 0x30-0x34 (4)
0x030|            9f ba f9 70                        |    ...p        |      [2]: "1918-10-27T07:00:00Z" (-1615136400) transition_time 0x34-0x38 (4)
0x030|                        a0 86 0e 80            |        ....    |      [3]: "1919-03-30T08:00:00Z" (-1601827200) transition_time 0x38-0x3c (4)
0x030|                                    a1 9a db 70|            ...p|      [4]: "1919-10-26T07:00:00Z" (-1583686800) transition_time 0x3c-0x40 (4)
0x040|cb 88 fe 80                                    |....            |      [5]: "1942-02-09T08:00:00Z" (-880214400) transition_time 0x40-0x44 (4)
0x040|            d2 23 f4 70                        |    .#.p        |      [6]: "1945-08-14T23:00:00Z" (-769395600) transition_time 0x44-0x48 (4)
0x040|                        d2 61 09 f0            |        .a..    |      [7]: "1945-09-30T07:00:00Z" (-765392400) transition_time 0x48-0x4c (4)
0x040|                                    d3 75 f3 00|            .u..|      [8]: "1946-04-28T08:00:00Z" (-747244800) transition_time 0x4c-0x50 (4)
0x050|d4 40 eb f0                                    |.@..            |      [9]: "1946-09-29T07:00:00Z" (-733942800) transition_time 0x50-0x54 (4)
0x050|            e0 9e 5b 80                        |    ..[.        |      [10]: "1953-04-26T08:00:00Z" (-526492800) transition_time 0x54-0x58 (4)
0x050|                        e1 69 54 70            |        .iTp    |      [11]: "1953-09-27T07:00:00Z" (-513190800) transition_time 0x58-0x5c (4)
0x050|                                    e2 7e 3d 80|            .~=.|      [12]: "1954-04-25T08:00:00Z" (-495043200) transition_time 0x5c-0x60 (4)
0x060|e3 49 36 70                                    |.I6p            |      [13]: "1954-09-26T07:00:00Z" (-481741200) transition_time 0x60-0x64 (4)
0x060|            e4 67 3d e0                        |    .g=.        |      [14]: "1955-05-01T06:00:00Z" (-462996000) transition_time 0x64-0x68 (4)
0x060|                        e5 29 18 70            |        .).p    |      [15]: "1955-09-25T07:00:00Z" (-450291600) transition_time 0x68-0x6c (4)
0x060|                                    e6 47 3c 00|            .G<.|      [16]: "1956-04-29T08:00:00Z" (-431539200) transition_time 0x6c-0x70 (4)
0x070|e7 12 34 f0                                    |..4.            |      [17]: "1956-09-30T07:00:00Z" (-418237200) transition_time 0x70-0x74 (4)
0x070|            e8 27 1e 00                        |    .'..        |      [18]: "1957-04-28T08:00:00Z" (-400089600) transition_time 0x74-0x78 (4)
0x070|                        e8 f2 16 f0            |        ....    |      [19]: "1957-09-29T07:00:00Z" (-386787600) transition_time 0x78-0x7c (4)
0x070|                                    ea 07 00 00|            ....|      [20]: "1958-04-27T08:00:00Z" (-368640000) transition_time 0x7c-0x80 (4)
0x080|ea d1 f8 f0                                    |....            |      [21]: "1958-09-28T07:00:00Z" (-355338000) transition_time 0x80-0x84 (4)
0x080|            eb e6 e2 00                        |    ....        |      [22]: "1959-04-26T08:00:00Z" (-337190400) transition_time 0x84-0x88 (4)
0x080|                        ec b1 da f0            |        ....    |      [23]: "1959-09-27T07:00:00Z" (-323888400) transition_time 0x88-0x8c (4)
0x080|                                    ed c6 c4 00|            ....|      [24]: "1960-04-24T08:00:00Z" (-305740800) transition_time 0x8c-0x90 (4)
0x090|ee bf e1 70                                    |...p            |      [25]: "1960-10-30T07:00:00Z" (-289414800) transition_time 0x90-0x94 (4)
0x090|            ef af e0 80                        |    ....        |      [26]: "1961-04-30T08:00:00Z" (-273686400) transition_time 0x94-0x98 (4)
0x090|                        f0 71 9e f0            |        .q..    |      [27]: "1961-09-24T07:00:00Z" (-260989200) transition_time 0x98-0x9c (4)
0x090|                                    f1 8f c2 80|            ....|      [28]: "1962-04-29T08:00:00Z" (-242236800) transition_time 0x9c-0xa0 (4)
0x0a0|f2 7f a5 70                                    |...p            |      [29]: "1962-10-28T07:00:00Z" (-226515600) transition_time 0xa0-0xa4 (4)
0x0a0|            f3 6f a4 80                        |    .o..        |      [30]: "1963-04-28T08:00:00Z" (-210787200) transition_time 0xa4-0xa8 (4)
0x0a0|                        f4 5f 87 70            |        ._.p    |      [31]: "1963-10-27T07:00:00Z" (-195066000) transition_time 0xa8-0xac (4)
0x0a0|                                    f5 4f 86 80|            .O..|      [32]: "1964-04-26T08:00:00Z" (-179337600) transition_time 0xac-0xb0 (4)
0x0b0|fe b8 1c f0                                    |....            |      [33]: "1969-04-27T07:00:00Z" (-21488400) transition_time 0xb0-0xb4 (4)
0x0b0|            ff a7 ff e0                        |    ....        |      [34]: "1969-10-26T06:00:00Z" (-5767200) transition_time 0xb4-0xb8 (4)
0x0b0|                        00 97 fe f0            |        ....    |      [35]: "1970-04-26T07:00:00Z" (9961200) transition_time 0xb8-0xbc (4)
0x0b0|                                    01 87 e1 e0|            ....|      [36]: "1970-10-25T06:00:00Z" (25682400) transition_time 0xbc-0xc0 (4)
0x0c0|44 2f 76 87                                    |D/v.            |      [37]: "2006-04-02T07:00:23Z" (1143961223) transition_time 0xc0-0xc4 (4)
0x0c0|            45 44 51 87                        |    EDQ.        |      [38]: "2006-10-29T07:00:23Z" (1162105223) transition_time 0xc4-0xc8 (4)
0x0c0|                        45 f3 b7 17            |        E...    |      [39]: "2007-03-11T08:00:23Z" (1173600023) transition_time 0xc8-0xcc (4)
0x0c0|                                    47 2d 6e 07|            G-n.|      [40]: "2007-11-04T07:00:23Z" (1194159623) transition_time 0xcc-0xd0 (4)
0x0d0|47 d3 8b 07                                    |G...            |      [41]: "2008-03-09T07:00:23Z" (1205046023) transition_time 0xd0-0xd4 (4)
0x0d0|            49 0d 41 f7                        |    I.A.        |      [42]: "2008-11-02T06:00:23Z" (1225605623) transition_time 0xd4-0xd8 (4)
0x0d0|                        49 b3 6d 08            |        I.m.    |      [43]: "2009-03-08T07:00:24Z" (1236495624) transition_time 0xd8-0xdc (4)
0x0d0|                                    4a ed 23 f8|            J.#.|      [44]: "2009-11-01T06:00:24Z" (1257055224) transition_time 0xdc-0xe0 (4)
0x0e0|4b 9c 89 88                                    |K...            |      [45]: "2010-03-14T07:00:24Z" (1268550024) transition_time 0xe0-0xe4 (4)
0x0e0|            4c d6 40 78                        |    L.@x        |      [46]: "2010-11-07T06:00:24Z" (1289109624) transition_time 0xe4-0xe8 (4)
0x0e0|                        4d 7c 6b 88            |        M|k.    |      [47]: "2011-03-13T07:00:24Z" (1299999624) transition_time 0xe8-0xec (4)
0x0e0|                                    4e b6 22 78|            N."x|      [48]: "2011-11-06T06:00:24Z" (1320559224) transition_time 0xec-0xf0 (4)
0x0f0|4f 5c 4d 88                                    |O\M.            |      [49]: "2012-03-11T07:00:24Z" (1331449224) transition_time 0xf0-0xf4 (4)
0x0f0|            50 96 04 79                        |    P..y        |      [50]: "2012-11-04T06:00:25Z" (1352008825) transition_time 0xf4-0xf8 (4)
0x0f0|                        51 3c 2f 89            |        Q</.    |      [51]: "2013-03-10T07:00:25Z" (1362898825) transition_time 0xf8-0xfc (4)
0x0f0|                                    52 75 e6 79|            Ru.y|      [52]: "2013-11-03T06:00:25Z" (1383458425) transition_time 0xfc-0x100 (4)
0x100|53 1c 11 89                                    |S...            |      [53]: "2014-03-09T07:00:25Z" (1394348425) transition_time 0x100-0x104 (4)
0x100|            54 55 c8 79                        |    TU.y        |      [54]: "2014-11-02T06:00:25Z" (1414908025) transition_time 0x104-0x108 (4)
0x100|                        54 fb f3 89            |        T...    |      [55]: "2015-03-08T07:00:25Z" (1425798025) transition_time 0x108-0x10c (4)
0x100|                                    56 35 aa 7a|            V5.z|      [56]: "2015-11-01T06:00:26Z" (1446357626) transition_time 0x10c-0x110 (4)
0x110|56 e5 10 0a                                    |V...            |      [57]: "2016-03-13T07:00:26Z" (1457852426) transition_time 0x110-0x114 (4)
0x110|            58 1e c6 fa                        |    X...        |      [58]: "2016-11-06T06:00:26Z" (1478412026) transition_time 0x114-0x118 (4)
0x110|                        58 c4 f2 0b            |        X...    |      [59]: "2017-03-12T07:00:27Z" (1489302027) transition_time 0x118-0x11c (4)
0x110|                                    59 fe a8 fb|            Y...|      [60]: "2017-11-05T06:00:27Z" (1509861627) transition_time 0x11c-0x120 (4)
0x120|5a a4 d4 0b                                    |Z...            |      [61]: "2018-03-11T07:00:27Z" (1520751627) transition_time 0x120-0x124 (4)
0x120|            5b de 8a fb                        |    [...        |      [62]: "2018-11-04T06:00:27Z" (1541311227) transition_time 0x124-0x128 (4)
0x120|                        5c 84 b6 0b            |        \...    |      [63]: "2019-03-10T07:00:27Z" (1552201227) transition_time 0x128-0x12c (4)
0x120|                                    5d be 6c fb|            ].l.|      [64]: "2019-11-03T06:00:27Z" (1572760827) transition_time 0x12c-0x130 (4)
0x130|5e 64 98 0b                                    |^d..            |      [65]: "2020-03-08T07:00:27Z" (1583650827) transition_time 0x130-0x134 (4)
0x130|            5f 9e 4e fb                        |    _.N.        |      [66]: "2020-11-01T06:00:27Z" (1604210427) transition_time 0x134-0x138 (4)
0x130|                        60 4d b4 8b            |        `M..    |      [67]: "2021-03-14T07:00:27Z" (1615705227) transition_time 0x138-0x13c (4)
0x130|                                    61 87 6b 7b|            a.k{|      [68]: "2021-11-07T06:00:27Z" (1636264827) transition_time 0x13c-0x140 (4)
0x140|62 2d 96 8b                                    |b-..            |      [69]: "2022-03-13T07:00:27Z" (1647154827) transition_time 0x140-0x144 (4)
0x140|            63 67 4d 7b                        |    cgM{        |      [70]: "2022-11-06T06:00:27Z" (1667714427) transition_time 0x144-0x148 (4)
0x140|                        64 0d 78 8b            |        d.x.    |      [71]: "2023-03-12T07:00:27Z" (1678604427) transition_time 0x148-0x14c (4)
0x140|                                    64 9b 78 1b|            d.x.|      [72]: "2023-06-28T00:00:27Z" (1687910427) transition_time 0x14c-0x150 (4)
     |                                               |                |    transition_types[0:73]: 0x150-0x199 (73)
0x150|05                                             |.               |      [0]: 5 transition_type 0x150-0x151 (1)
0x150|   01                                          | .              |      [1]: 1 transition_type 0x151-0x152 (1)
0x150|      02                                       |  .             |      [2]: 2 transition_type 0x152-0x153 (1)
0x150|         01                                    |   .            |      [3]: 1 transition_type 0x153-0x154 (1)
0x150|            02                                 |    .           |      [4]: 2 transition_type 0x154-0x155 (1)
0x150|               03                              |     .          |      [5]: 3 transition_type 0x155-0x156 (1)
0x150|                  04                           |      .         |      [6]: 4 transition_type 0x156-0x157 (1)
0x150|                     02                        |       .        |      [7]: 2 transition_type 0x157-0x158 (1)
0x150|                        01                     |        .       |      [8]: 1 transition_type 0x158-0x159 (1)
0x150|                           02                  |         .      |      [9]: 2 transition_type 0x159-0x15a (1)
0x150|                              01               |          .     |      [10]: 1 transition_type 0x15a-0x15b (1)
0x150|                                 02            |           .    |      [11]: 2 transition_type 0x15b-0x15c (1)
0x150|                                    01         |            .   |      [12]: 1 transition_type 0x15c-0x15d (1)
0x150|                                       02      |             .  |      [13]: 2 transition_type 0x15d-0x15e (1)
0x150|                                          01   |              . |      [14]: 1 transition_type 0x15e-0x15f (1)
0x150|                                             02|               .|      [15]: 2 transition_type 0x15f-0x160 (1)
0x160|01                                             |.               |      [16]: 1 transition_type 0x160-0x161 (1)
0x160|   02                                          | .              |      [17]: 2 transition_type 0x161-0x162 (1)
0x160|      01                                       |  .             |      [18]: 1 transition_type 0x162-0x163 (1)
0x160|         02                                    |   .            |      [19]: 2 transition_type 0x163-0x164 (1)
0x160|            01                                 |    .           |      [20]: 1 transition_type 0x164-0x165 (1)
0x160|               02                              |     .          |      [21]: 2 transition_type 0x165-0x166 (1)
0x160|                  01                           |      .         |      [22]: 1 transition_type 0x166-0x167 (1)
0x160|                     02                        |       .        |      [23]: 2 transition_type 0x167-0x168 (1)
0x160|                        01                     |        .       |      [24]: 1 transition_type 0x168-0x169 (1)
0x160|                           02                  |         .      |      [25]: 2 transition_type 0x169-0x16a (1)
0x160|                              01               |          .     |      [26]: 1 transition_type 0x16a-0x16b (1)
0x160|                                 02            |           .    |      [27]: 2 transition_type 0x16b-0x16c (1)
0x160|                                    01         |            .   |      [28]: 1 transition_type 0x16c-0x16d (1)
0x160|                                       02      |             .  |      [29]: 2 transition_type 0x16d-0x16e (1)
0x160|                                          01   |              . |      [30]: 1 transition_type 0x16e-0x16f (1)
0x160|                                             02|               .|      [31]: 2 transition_type 0x16f-0x170 (1)
0x170|06                                             |.               |      [32]: 6 transition_type 0x170-0x171 (1)
0x170|   07                                          | .              |      [33]: 7 transition_type 0x171-0x172 (1)
0x170|      06                                       |  .             |      [34]: 6 transition_type 0x172-0x173 (1)
0x170|         07                                    |   .            |      [35]: 7 transition_type 0x173-0x174 (1)
0x170|            06                                 |    .           |      [36]: 6 transition_type 0x174-0x175 (1)
0x170|               01                              |     .          |      [37]: 1 transition_type 0x175-0x176 (1)
0x170|                  02                           |      .         |      [38]: 2 transition_type 0x176-0x177 (1)
0x170|                     01                        |       .        |      [39]: 1 transition_type 0x177-0x178 (1)
0x170|                        06                     |        .       |      [40]: 6 transition_type 0x178-0x179 (1)
0x170|                           07                  |         .      |      [41]: 7 transition_type 0x179-0x17a (1)
0x170|                              06               |          .     |      [42]: 6 transition_type 0x17a-0x17b (1)
0x170|                                 07            |           .    |      [43]: 7 transition_type 0x17b-0x17c (1)
0x170|                                    06         |            .   |      [44]: 6 transition_type 0x17c-0x17d (1)
0x170|                                       07      |             .  |      [45]: 7 transition_type 0x17d-0x17e (1)
0x170|                                          06   |              . |      [46]: 6 transition_type 0x17e-0x17f (1)
0x170|                                             07|               .|      [47]: 7 transition_type 0x17f-0x180 (1)
0x180|06                                             |.               |      [48]: 6 transition_type 0x180-0x181 (1)
0x180|   07                                          | .              |      [49]: 7 transition_type 0x181-0x182 (1)
0x180|      06                                       |  .             |      [50]: 6 transition_type 0x182-0x183 (1)
0x180|         07                                    |   .            |      [51]: 7 transition_type 0x183-0x184 (1)
0x180|            06                                 |    .           |      [52]: 6 transition_type 0x184-0x185 (1)
0x180|               07                              |     .          |      [53]: 7 transition_type 0x185-0x186 (1)
0x180|                  06                           |      .         |      [54]: 6 transition_type 0x186-0x187 (1)
0x180|                     07                        |       .        |      [55]: 7 transition_type 0x187-0x188 (1)
0x180|                        06                     |        .       |      [56]: 6 transition_type 0x188-0x189 (1)
0x180|                           07                  |         .      |      [57]: 7 transition_type 0x189-0x18a (1)
0x180|                              06               |          .     |      [58]: 6 transition_type 0x18a-0x18b (1)
0x180|                                 07            |           .    |      [59]: 7 transition_type 0x18b-0x18c (1)
0x180|                                    06         |            .   |      [60]: 6 transition_type 0x18c-0x18d (1)
0x180|                                       07      |             .  |      [61]: 7 transition_type 0x18d-0x18e (1)
0x180|                                          06   |              . |      [62]: 6 transition_type 0x18e-0x18f (1)
0x180|                                             07|               .|      [63]: 7 transition_type 0x18f-0x190 (1)
0x190|06                                             |.               |      [64]: 6 transition_type 0x190-0x191 (1)
0x190|   07                                          | .              |      [65]: 7 transition_type 0x191-0x192 (1)
0x190|      06                                       |  .             |      [66]: 6 transition_type 0x192-0x193 (1)
0x190|         07                                    |   .            |      [67]: 7 transition_type 0x193-0x194 (1)
0x190|            06                                 |    .           |      [68]: 6 transition_type 0x194-0x195 (1)
0x190|               07                              |     .          |      [69]: 7 transition_type 0x195-0x196 (1)
0x190|                  06                           |      .         |      [70]: 6 transition_type 0x196-0x197 (1)
0x190|                     07                        |       .        |      [71]: 7 transition_type 0x197-0x198 (1)
0x190|                        07                     |        .       |      [72]: 7 transition_type 0x198-0x199 (1)
     |                                               |                |    local_time_type_records[0:8]: 0x199-0x1c9 (48)
     |                                               |                |      [0]{}: local_time_type 0x199-0x19f (6)
0x190|                           ff ff ad f1         |         ....   |        utoff: -21007 (valid) 0x199-0x19d (4)
0x190|                                       00      |             .  |        dst: 0 (valid) 0x19d-0x19e (1)
0x190|                                          00   |              . |        idx: 0 (valid) 0x19e-0x19f (1)
     |                                               |                |      [1]{}: local_time_type 0x19f-0x1a5 (6)
0x190|                                             ff|               .|        utoff: -18000 (valid) 0x19f-0x1a3 (4)
0x1a0|ff b9 b0                                       |...             |
0x1a0|         01                                    |   .            |        dst: 1 (valid) 0x1a3-0x1a4 (1)
0x1a0|            04                                 |    .           |        idx: 4 (valid) 0x1a4-0x1a5 (1)
     |                                               |                |      [2]{}: local_time_type 0x1a5-0x1ab (6)
0x1a0|               ff ff ab a0                     |     ....       |        utoff: -21600 (valid) 0x1a5-0x1a9 (4)
0x1a0|                           00                  |         .      |        dst: 0 (valid) 0x1a9-0x1aa (1)
0x1a0|                              08               |          .     |        idx: 8 (valid) 0x1aa-0x1ab (1)
     |                                               |                |      [3]{}: local_time_type 0x1ab-0x1b1 (6)
0x1a0|                                 ff ff b9 b0   |           .... |        utoff: -18000 (valid) 0x1ab-0x1af (4)
0x1a0|                                             01|               .|        dst: 1 (valid) 0x1af-0x1b0 (1)
0x1b0|0c                                             |.               |        idx: 12 (valid) 0x1b0-0x1b1 (1)
     |                                               |                |      [4]{}: local_time_type 0x1b1-0x1b7 (6)
0x1b0|   ff ff b9 b0                                 | ....           |        utoff: -18000 (valid) 0x1b1-0x1b5 (4)
0x1b0|               01                              |     .          |        dst: 1 (valid) 0x1b5-0x1b6 (1)
0x1b0|                  10                           |      .         |        idx: 16 (valid) 0x1b6-0x1b7 (1)
     |                                               |                |      [5]{}: local_time_type 0x1b7-0x1bd (6)
0x1b0|                     ff ff ab a0               |       ....     |        utoff: -21600 (valid) 0x1b7-0x1bb (4)
0x1b0|                                 00            |           .    |        dst: 0 (valid) 0x1bb-0x1bc (1)
0x1b0|                                    08         |            .   |        idx: 8 (valid) 0x1bc-0x1bd (1)
     |                                               |                |      [6]{}: local_time_type 0x1bd-0x1c3 (6)
0x1b0|                                       ff ff b9|             ...|        utoff: -18000 (valid) 0x1bd-0x1c1 (4)
0x1c0|b0                                             |.               |
0x1c0|   00                                          | .              |        dst: 0 (valid) 0x1c1-0x1c2 (1)
0x1c0|      14                                       |  .             |        idx: 20 (valid) 0x1c2-0x1c3 (1)
     |                                               |                |      [7]{}: local_time_type 0x1c3-0x1c9 (6)
0x1c0|         ff ff c7 c0                           |   ....         |        utoff: -14400 (valid) 0x1c3-0x1c7 (4)
0x1c0|                     01                        |       .        |        dst: 1 (valid) 0x1c7-0x1c8 (1)
0x1c0|                        18                     |        .       |        idx: 24 (valid) 0x1c8-0x1c9 (1)
     |                                               |                |    time_zone_designations[0:7]: 0x1c9-0x1e5 (28)
0x1c0|                           4c 4d 54 00         |         LMT.   |      [0]: "LMT" time_zone_designation 0x1c9-0x1cd (4)
0x1c0|                                       43 44 54|             CDT|      [1]: "CDT" time_zone_designation 0x1cd-0x1d1 (4)
0x1d0|00                                             |.               |
0x1d0|   43 53 54 00                                 | CST.           |      [2]: "CST" time_zone_designation 0x1d1-0x1d5 (4)
0x1d0|               43 57 54 00                     |     CWT.       |      [3]: "CWT" time_zone_designation 0x1d5-0x1d9 (4)
0x1d0|                           43 50 54 00         |         CPT.   |      [4]: "CPT" time_zone_designation 0x1d9-0x1dd (4)
0x1d0|                                       45 53 54|             EST|      [5]: "EST" time_zone_designation 0x1dd-0x1e1 (4)
0x1e0|00                                             |.               |
0x1e0|   45 44 54 00                                 | EDT.           |      [6]: "EDT" time_zone_designation 0x1e1-0x1e5 (4)
     |                                               |                |    leap_second_records[0:27]: 0x1e5-0x2bd (216)
     |                                               |                |      [0]{}: leap_second_record 0x1e5-0x1ed (8)
0x1e0|               04 b2 58 00                     |     ..X.       |        occur: "1972-07-01T00:00:00Z" (78796800) 0x1e5-0x1e9 (4)
0x1e0|                           00 00 00 01         |         ....   |        corr: 1 0x1e9-0x1ed (4)
     |                                               |                |      [1]{}: leap_second_record 0x1ed-0x1f5 (8)
0x1e0|                                       05 a4 ec|             ...|        occur: "1973-01-01T00:00:01Z" (94694401) 0x1ed-0x1f1 (4)
0x1f0|01                                             |.               |
0x1f0|   00 00 00 02                                 | ....           |        corr: 2 0x1f1-0x1f5 (4)
     |                                               |                |      [2]{}: leap_second_record 0x1f5-0x1fd (8)
0x1f0|               07 86 1f 82                     |     ....       |        occur: "1974-01-01T00:00:02Z" (126230402) 0x1f5-0x1f9 (4)
0x1f0|                           00 00 00 03         |         ....   |        corr: 3 0x1f9-0x1fd (4)
     |                                               |                |      [3]{}: leap_second_record 0x1fd-0x205 (8)
0x1f0|                                       09 67 53|             .gS|        occur: "1975-01-01T00:00:03Z" (157766403) 0x1fd-0x201 (4)
0x200|03                                             |.               |
0x200|   00 00 00 04                                 | ....           |        corr: 4 0x201-0x205 (4)
     |                                               |                |      [4]{}: leap_second_record 0x205-0x20d (8)
0x200|               0b 48 86 84                     |     .H..       |        occur: "1976-01-01T00:00:04Z" (189302404) 0x205-0x209 (4)
0x200|                           00 00 00 05         |         ....   |        corr: 5 0x209-0x20d (4)
     |                                               |                |      [5]{}: leap_second_record 0x20d-0x215 (8)
0x200|                                       0d 2b 0b|             .+.|        occur: "1977-01-01T00:00:05Z" (220924805) 0x20d-0x211 (4)
0x210|85                                             |.               |
0x210|   00 00 00 06                                 | ....           |        corr: 6 0x211-0x215 (4)
     |                                               |                |      [6]{}: leap_second_record 0x215-0x21d (8)
0x210|               0f 0c 3f 06                     |     ..?.       |        occur: "1978-01-01T00:00:06Z" (252460806) 0x215-0x219 (4)
0x210|                           00 00 00 07         |         ....   |        corr: 7 0x219-0x21d (4)
     |                                               |                |      [7]{}: leap_second_record 0x21d-0x225 (8)
0x210|                                       10 ed 72|             ..r|        occur: "1979-01-01T00:00:07Z" (283996807) 0x21d-0x221 (4)
0x220|87                                             |.               |
0x220|   00 00 00 08                                 | ....           |        corr: 8 0x221-0x225 (4)
     |                                               |                |      [8]{}: leap_second_record 0x225-0x22d (8)
0x220|               12 ce a6 08                     |     ....       |        occur: "1980-01-01T00:00:08Z" (315532808) 0x225-0x229 (4)
0x220|                           00 00 00 09         |         ....   |        corr: 9 0x229-0x22d (4)
     |                                               |                |      [9]{}: leap_second_record 0x22d-0x235 (8)
0x220|                                       15 9f ca|             ...|        occur: "1981-07-01T00:00:09Z" (362793609) 0x22d-0x231 (4)
0x230|89                                             |.               |
0x230|   00 00 00 0a                                 | ....           |        corr: 10 0x231-0x235 (4)
     |                                               |                |      [10]{}: leap_second_record 0x235-0x23d (8)
0x230|               17 80 fe 0a                     |     ....       |        occur: "1982-07-01T00:00:10Z" (394329610) 0x235-0x239 (4)
0x230|                           00 00 00 0b         |         ....   |        corr: 11 0x239-0x23d (4)
     |                                               |                |      [11]{}: leap_second_record 0x23d-0x245 (8)
0x230|                                       19 62 31|             .b1|        occur: "1983-07-01T00:00:11Z" (425865611) 0x23d-0x241 (4)
0x240|8b                                             |.               |
0x240|   00 00 00 0c                                 | ....           |        corr: 12 0x241-0x245 (4)
     |                                               |                |      [12]{}: leap_second_record 0x245-0x24d (8)
0x240|               1d 25 ea 0c                     |     .%..       |        occur: "1985-07-01T00:00:12Z" (489024012) 0x245-0x249 (4)
0x240|                           00 00 00 0d         |         ....   |        corr: 13 0x249-0x24d (4)
     |                                               |                |      [13]{}: leap_second_record 0x24d-0x255 (8)
0x240|                                       21 da e5|             !..|        occur: "1988-01-01T00:00:13Z" (567993613) 0x24d-0x251 (4)
0x250|0d                                             |.               |
0x250|   00 00 00 0e                                 | ....           |        corr: 14 0x251-0x255 (4)
     |                                               |                |      [14]{}: leap_second_record 0x255-0x25d (8)
0x250|               25 9e 9d 8e                     |     %...       |        occur: "1990-01-01T00:00:14Z" (631152014) 0x255-0x259 (4)
0x250|                           00 00 00 0f         |         ....   |        corr: 15 0x259-0x25d (4)
     |                                               |                |      [15]{}: leap_second_record 0x25d-0x265 (8)
0x250|                                       27 7f d1|             '..|        occur: "1991-01-01T00:00:15Z" (662688015) 0x25d-0x261 (4)
0x260|0f                                             |.               |
0x260|   00 00 00 10                                 | ....           |        corr: 16 0x261-0x265 (4)
     |                                               |                |      [16]{}: leap_second_record 0x265-0x26d (8)
0x260|               2a 50 f5 90                     |     *P..       |        occur: "1992-07-01T00:00:16Z" (709948816) 0x265-0x269 (4)
0x260|                           00 00 00 11         |         ....   |        corr: 17 0x269-0x26d (4)
     |                                               |                |      [17]{}: leap_second_record 0x26d-0x275 (8)
0x260|                                       2c 32 29|             ,2)|        occur: "1993-07-01T00:00:17Z" (741484817) 0x26d-0x271 (4)
0x270|11                                             |.               |
0x270|   00 00 00 12                                 | ....           |        corr: 18 0x271-0x275 (4)
     |                                               |                |      [18]{}: leap_second_record 0x275-0x27d (8)
0x270|               2e 13 5c 92                     |     ..\.       |        occur: "1994-07-01T00:00:18Z" (773020818) 0x275-0x279 (4)
0x270|                           00 00 00 13         |         ....   |        corr: 19 0x279-0x27d (4)
     |                                               |                |      [19]{}: leap_second_record 0x27d-0x285 (8)
0x270|                                       30 e7 24|             0.$|        occur: "1996-01-01T00:00:19Z" (820454419) 0x27d-0x281 (4)
0x280|13                                             |.               |
0x280|   00 00 00 14                                 | ....           |        corr: 20 0x281-0x285 (4)
     |                                               |                |      [20]{}: leap_second_record 0x285-0x28d (8)
0x280|               33 b8 48 94                     |     3.H.       |        occur: "1997-07-01T00:00:20Z" (867715220) 0x285-0x289 (4)
0x280|                           00 00 00 15         |         ....   |        corr: 21 0x289-0x28d (4)
     |                                               |                |      [21]{}: leap_second_record 0x28d-0x295 (8)
0x280|                                       36 8c 10|             6..|        occur: "1999-01-01T00:00:21Z" (915148821) 0x28d-0x291 (4)
0x290|15                                             |.               |
0x290|   00 00 00 16                                 | ....           |        corr: 22 0x291-0x295 (4)
     |                                               |                |      [22]{}: leap_second_record 0x295-0x29d (8)
0x290|               43 b7 1b 96                     |     C...       |        occur: "2006-01-01T00:00:22Z" (1136073622) 0x295-0x299 (4)
0x290|                           00 00 00 17         |         ....   |        corr: 23 0x299-0x29d (4)
     |                                               |                |      [23]{}: leap_second_record 0x29d-0x2a5 (8)
0x290|                                       49 5c 07|             I\.|        occur: "2009-01-01T00:00:23Z" (1230768023) 0x29d-0x2a1 (4)
0x2a0|97                                             |.               |
0x2a0|   00 00 00 18                                 | ....           |        corr: 24 0x2a1-0x2a5 (4)
     |                                               |                |      [24]{}: leap_second_record 0x2a5-0x2ad (8)
0x2a0|               4f ef 93 18                     |     O...       |        occur: "2012-07-01T00:00:24Z" (1341100824) 0x2a5-0x2a9 (4)
0x2a0|                           00 00 00 19         |         ....   |        corr: 25 0x2a9-0x2ad (4)
     |                                               |                |      [25]{}: leap_second_record 0x2ad-0x2b5 (8)
0x2a0|                                       55 93 2d|             U.-|        occur: "2015-07-01T00:00:25Z" (1435708825) 0x2ad-0x2b1 (4)
0x2b0|99                                             |.               |
0x2b0|   00 00 00 1a                                 | ....           |        corr: 26 0x2b1-0x2b5 (4)
     |                                               |                |      [26]{}: leap_second_record 0x2b5-0x2bd (8)
0x2b0|               58 68 46 9a                     |     XhF.       |        occur: "2017-01-01T00:00:26Z" (1483228826) 0x2b5-0x2b9 (4)
0x2b0|                           00 00 00 1b         |         ....   |        corr: 27 0x2b9-0x2bd (4)
     |                                               |                |    standard_wall_indicators[0:8]: 0x2bd-0x2c5 (8)
0x2b0|                                       00      |             .  |      [0]: 0 standard_wall_indicator (valid) 0x2bd-0x2be (1)
0x2b0|                                          00   |              . |      [1]: 0 standard_wall_indicator (valid) 0x2be-0x2bf (1)
0x2b0|                                             00|               .|      [2]: 0 standard_wall_indicator (valid) 0x2bf-0x2c0 (1)
0x2c0|00                                             |.               |      [3]: 0 standard_wall_indicator (valid) 0x2c0-0x2c1 (1)
0x2c0|   01                                          | .              |      [4]: 1 standard_wall_indicator (valid) 0x2c1-0x2c2 (1)
0x2c0|      01                                       |  .             |      [5]: 1 standard_wall_indicator (valid) 0x2c2-0x2c3 (1)
0x2c0|         00                                    |   .            |      [6]: 0 standard_wall_indicator (valid) 0x2c3-0x2c4 (1)
0x2c0|            00                                 |    .           |      [7]: 0 standard_wall_indicator (valid) 0x2c4-0x2c5 (1)
     |                                               |                |    ut_local_indicators[0:8]: 0x2c5-0x2cd (8)
0x2c0|               00                              |     .          |      [0]: 0 ut_local_indicator (valid) 0x2c5-0x2c6 (1)
0x2c0|                  00                           |      .         |      [1]: 0 ut_local_indicator (valid) 0x2c6-0x2c7 (1)
0x2c0|                     00                        |       .        |      [2]: 0 ut_local_indicator (valid) 0x2c7-0x2c8 (1)
0x2c0|                        00                     |        .       |      [3]: 0 ut_local_indicator (valid) 0x2c8-0x2c9 (1)
0x2c0|                           01                  |         .      |      [4]: 1 ut_local_indicator (valid) 0x2c9-0x2ca (1)
0x2c0|                              01               |          .     |      [5]: 1 ut_local_indicator (valid) 0x2ca-0x2cb (1)
0x2c0|                                 00            |           .    |      [6]: 0 ut_local_indicator (valid) 0x2cb-0x2cc (1)
0x2c0|                                    00         |            .   |      [7]: 0 ut_local_indicator (valid) 0x2cc-0x2cd (1)
     |                                               |                |  v2plusheader{}: 0x2cd-0x2f9 (44)
0x2c0|                                       54 5a 69|             TZi|    magic: 0x545a6966 (valid) 0x2cd-0x2d1 (4)
0x2d0|66                                             |f               |
0x2d0|   32                                          | 2              |    ver: "2" (0x32) (valid) 0x2d1-0x2d2 (1)
0x2d0|      00 00 00 00 00 00 00 00 00 00 00 00 00 00|  ..............|    reserved: raw bits 0x2d2-0x2e1 (15)
0x2e0|00                                             |.               |
0x2e0|   00 00 00 08                                 | ....           |    isutcnt: 8 0x2e1-0x2e5 (4)
0x2e0|               00 00 00 08                     |     ....       |    isstdcnt: 8 0x2e5-0x2e9 (4)
0x2e0|                           00 00 00 1b         |         ....   |    leapcnt: 27 0x2e9-0x2ed (4)
0x2e0|                                       00 00 00|             ...|    timecnt: 73 0x2ed-0x2f1 (4)
0x2f0|49                                             |I               |
0x2f0|   00 00 00 08                                 | ....           |    typecnt: 8 0x2f1-0x2f5 (4)
0x2f0|               00 00 00 1c                     |     ....       |    charcnt: 28 0x2f5-0x2f9 (4)
     |                                               |                |  v2plusdatablock{}: 0x2f9-0x72a (1073)
     |                                               |                |    transition_times[0:73]: 0x2f9-0x541 (584)
0x2f0|                           ff ff ff ff 5e 03 fe|         ....^..|      [0]: "1883-11-18T18:00:00Z" (-2717647200) transition_time 0x2f9-0x301 (8)
0x300|a0                                             |.               |
0x300|   ff ff ff ff 9e a6 2c 80                     | ......,.       |      [1]: "1918-03-31T08:00:00Z" (-1633276800) transition_time 0x301-0x309 (8)
0x300|                           ff ff ff ff 9f ba f9|         .......|      [2]: "1918-10-27T07:00:00Z" (-1615136400) transition_time 0x309-0x311 (8)
0x310|70                                             |p               |
0x310|   ff ff ff ff a0 86 0e 80                     | ........       |      [3]: "1919-03-30T08:00:00Z" (-1601827200) transition_time 0x311-0x319 (8)
0x310|                           ff ff ff ff a1 9a db|         .......|      [4]: "1919-10-26T07:00:00Z" (-1583686800) transition_time 0x319-0x321 (8)
0x320|70                                             |p               |
0x320|   ff ff ff ff cb 88 fe 80                     | ........       |      [5]: "1942-02-09T08:00:00Z" (-880214400) transition_time 0x321-0x329 (8)
0x320|                           ff ff ff ff d2 23 f4|         .....#.|      [6]: "1945-08-14T23:00:00Z" (-769395600) transition_time 0x329-0x331 (8)
0x330|70                                             |p               |
0x330|   ff ff ff ff d2 61 09 f0                     | .....a..       |      [7]: "1945-09-30T07:00:00Z" (-765392400) transition_time 0x331-0x339 (8)
0x330|                           ff ff ff ff d3 75 f3|         .....u.|      [8]: "1946-04-28T08:00:00Z" (-747244800) transition_time 0x339-0x341 (8)
0x340|00                                             |.               |
0x340|   ff ff ff ff d4 40 eb f0                     | .....@..       |      [9]: "1946-09-29T07:00:00Z" (-733942800) transition_time 0x341-0x349 (8)
0x340|                           ff ff ff ff e0 9e 5b|         ......[|      [10]: "1953-04-26T08:00:00Z" (-526492800) transition_time 0x349-0x351 (8)
0x350|80                                             |.               |
0x350|   ff ff ff ff e1 69 54 70                     | .....iTp       |      [11]: "1953-09-27T07:00:00Z" (-513190800) transition_time 0x351-0x359 (8)
0x350|                           ff ff ff ff e2 7e 3d|         .....~=|      [12]: "1954-04-25T08:00:00Z" (-495043200) transition_time 0x359-0x361 (8)
0x360|80                                             |.               |
0x360|   ff ff ff ff e3 49 36 70                     | .....I6p       |      [13]: "1954-09-26T07:00:00Z" (-481741200) transition_time 0x361-0x369 (8)
0x360|                           ff ff ff ff e4 67 3d|         .....g=|      [14]: "1955-05-01T06:00:00Z" (-462996000) transition_time 0x369-0x371 (8)
0x370|e0                                             |.               |
0x370|   ff ff ff ff e5 29 18 70                     | .....).p       |      [15]: "1955-09-25T07:00:00Z" (-450291600) transition_time 0x371-0x379 (8)
0x370|                           ff ff ff ff e6 47 3c|         .....G<|      [16]: "1956-04-29T08:00:00Z" (-431539200) transition_time 0x379-0x381 (8)
0x380|00                                             |.               |
0x380|   ff ff ff ff e7 12 34 f0                     | ......4.       |      [17]: "1956-09-30T07:00:00Z" (-418237200) transition_time 0x381-0x389 (8)
0x380|                           ff ff ff ff e8 27 1e|         .....'.|      [18]: "1957-04-28T08:00:00Z" (-400089600) transition_time 0x389-0x391 (8)
0x390|00                                             |.               |
0x390|   ff ff ff ff e8 f2 16 f0                     | ........       |      [19]: "1957-09-29T07:00:00Z" (-386787600) transition_time 0x391-0x399 (8)
0x390|                           ff ff ff ff ea 07 00|         .......|      [20]: "1958-04-27T08:00:00Z" (-368640000) transition_time 0x399-0x3a1 (8)
0x3a0|00                                             |.               |
0x3a0|   ff ff ff ff ea d1 f8 f0                     | ........       |      [21]: "1958-09-28T07:00:00Z" (-355338000) transition_time 0x3a1-0x3a9 (8)
0x3a0|                           ff ff ff ff eb e6 e2|         .......|      [22]: "1959-04-26T08:00:00Z" (-337190400) transition_time 0x3a9-0x3b1 (8)
0x3b0|00                                             |.               |
0x3b0|   ff ff ff ff ec b1 da f0                     | ........       |      [23]: "1959-09-27T07:00:00Z" (-323888400) transition_time 0x3b1-0x3b9 (8)
0x3b0|                           ff ff ff ff ed c6 c4|         .......|      [24]: "1960-04-24T08:00:00Z" (-305740800) transition_time 0x3b9-0x3c1 (8)
0x3c0|00                                             |.               |
0x3c0|   ff ff ff ff ee bf e1 70                     | .......p       |      [25]: "1960-10-30T07:00:00Z" (-289414800) transition_time 0x3c1-0x3c9 (8)
0x3c0|                           ff ff ff ff ef af e0|         .......|      [26]: "1961-04-30T08:00:00Z" (-273686400) transition_time 0x3c9-0x3d1 (8)
0x3d0|80                                             |.               |
0x3d0|   ff ff ff ff f0 71 9e f0                     | .....q..       |      [27]: "1961-09-24T07:00:00Z" (-260989200) transition_time 0x3d1-0x3d9 (8)
0x3d0|                           ff ff ff ff f1 8f c2|         .......|      [28]: "1962-04-29T08:00:00Z" (-242236800) transition_time 0x3d9-0x3e1 (8)
0x3e0|80                                             |.               |
0x3e0|   ff ff ff ff f2 7f a5 70                     | .......p       |      [29]: "1962-10-28T07:00:00Z" (-226515600) transition_time 0x3e1-0x3e9 (8)
0x3e0|                           ff ff ff ff f3 6f a4|         .....o.|      [30]: "1963-04-28T08:00:00Z" (-210787200) transition_time 0x3e9-0x3f1 (8)
0x3f0|80                                             |.               |
0x3f0|   ff ff ff ff f4 5f 87 70                     | ....._.p       |      [31]: "1963-10-27T07:00:00Z" (-195066000) transition_time 0x3f1-0x3f9 (8)
0x3f0|                           ff ff ff ff f5 4f 86|         .....O.|      [32]: "1964-04-26T08:00:00Z" (-179337600) transition_time 0x3f9-0x401 (8)
0x400|80                                             |.               |
0x400|   ff ff ff ff fe b8 1c f0                     | ........       |      [33]: "1969-04-27T07:00:00Z" (-21488400) transition_time 0x401-0x409 (8)
0x400|                           ff ff ff ff ff a7 ff|         .......|      [34]: "1969-10-26T06:00:00Z" (-5767200) transition_time 0x409-0x411 (8)
0x410|e0                                             |.               |
0x410|   00 00 00 00 00 97 fe f0                     | ........       |      [35]: "1970-04-26T07:00:00Z" (9961200) transition_time 0x411-0x419 (8)
0x410|                           00 00 00 00 01 87 e1|         .......|      [36]: "1970-10-25T06:00:00Z" (25682400) transition_time 0x419-0x421 (8)
0x420|e0                                             |.               |
0x420|   00 00 00 00 44 2f 76 87                     | ....D/v.       |      [37]: "2006-04-02T07:00:23Z" (1143961223) transition_time 0x421-0x429 (8)
0x420|                           00 00 00 00 45 44 51|         ....EDQ|      [38]: "2006-10-29T07:00:23Z" (1162105223) transition_time 0x429-0x431 (8)
0x430|87                                             |.               |
0x430|   00 00 00 00 45 f3 b7 17                     | ....E...       |      [39]: "2007-03-11T08:00:23Z" (1173600023) transition_time 0x431-0x439 (8)
0x430|                           00 00 00 00 47 2d 6e|         ....G-n|      [40]: "2007-11-04T07:00:23Z" (1194159623) transition_time 0x439-0x441 (8)
0x440|07                                             |.               |
0x440|   00 00 00 00 47 d3 8b 07                     | ....G...       |      [41]: "2008-03-09T07:00:23Z" (1205046023) transition_time 0x441-0x449 (8)
0x440|                           00 00 00 00 49 0d 41|         ....I.A|      [42]: "2008-11-02T06:00:23Z" (1225605623) transition_time 0x449-0x451 (8)
0x450|f7                                             |.               |
0x450|   00 00 00 00 49 b3 6d 08                     | ....I.m.       |      [43]: "2009-03-08T07:00:24Z" (1236495624) transition_time 0x451-0x459 (8)
0x450|                           00 00 00 00 4a ed 23|         ....J.#|      [44]: "2009-11-01T06:00:24Z" (1257055224) transition_time 0x459-0x461 (8)
0x460|f8                                             |.               |
0x460|   00 00 00 00 4b 9c 89 88                     | ....K...       |      [45]: "2010-03-14T07:00:24Z" (1268550024) transition_time 0x461-0x469 (8)
0x460|                           00 00 00 00 4c d6 40|         ....L.@|      [46]: "2010-11-07T06:00:24Z" (1289109624) transition_time 0x469-0x471 (8)
0x470|78                                             |x               |
0x470|   00 00 00 00 4d 7c 6b 88                     | ....M|k.       |      [47]: "2011-03-13T07:00:24Z" (1299999624) transition_time 0x471-0x479 (8)
0x470|                           00 00 00 00 4e b6 22|         ....N."|      [48]: "2011-11-06T06:00:24Z" (1320559224) transition_time 0x479-0x481 (8)
0x480|78                                             |x               |
0x480|   00 00 00 00 4f 5c 4d 88                     | ....O\M.       |      [49]: "2012-03-11T07:00:24Z" (1331449224) transition_time 0x481-0x489 (8)
0x480|                           00 00 00 00 50 96 04|         ....P..|      [50]: "2012-11-04T06:00:25Z" (1352008825) transition_time 0x489-0x491 (8)
0x490|79                                             |y               |
0x490|   00 00 00 00 51 3c 2f 89                     | ....Q</.       |      [51]: "2013-03-10T07:00:25Z" (1362898825) transition_time 0x491-0x499 (8)
0x490|                           00 00 00 00 52 75 e6|         ....Ru.|      [52]: "2013-11-03T06:00:25Z" (1383458425) transition_time 0x499-0x4a1 (8)
0x4a0|79                                             |y               |
0x4a0|   00 00 00 00 53 1c 11 89                     | ....S...       |      [53]: "2014-03-09T07:00:25Z" (1394348425) transition_time 0x4a1-0x4a9 (8)
0x4a0|                           00 00 00 00 54 55 c8|         ....TU.|      [54]: "2014-11-02T06:00:25Z" (1414908025) transition_time 0x4a9-0x4b1 (8)
0x4b0|79                                             |y               |
0x4b0|   00 00 00 00 54 fb f3 89                     | ....T...       |      [55]: "2015-03-08T07:00:25Z" (1425798025) transition_time 0x4b1-0x4b9 (8)
0x4b0|                           00 00 00 00 56 35 aa|         ....V5.|      [56]: "2015-11-01T06:00:26Z" (1446357626) transition_time 0x4b9-0x4c1 (8)
0x4c0|7a                                             |z               |
0x4c0|   00 00 00 00 56 e5 10 0a                     | ....V...       |      [57]: "2016-03-13T07:00:26Z" (1457852426) transition_time 0x4c1-0x4c9 (8)
0x4c0|                           00 00 00 00 58 1e c6|         ....X..|      [58]: "2016-11-06T06:00:26Z" (1478412026) transition_time 0x4c9-0x4d1 (8)
0x4d0|fa                                             |.               |
0x4d0|   00 00 00 00 58 c4 f2 0b                     | ....X...       |      [59]: "2017-03-12T07:00:27Z" (1489302027) transition_time 0x4d1-0x4d9 (8)
0x4d0|                           00 00 00 00 59 fe a8|         ....Y..|      [60]: "2017-11-05T06:00:27Z" (1509861627) transition_time 0x4d9-0x4e1 (8)
0x4e0|fb                                             |.               |
0x4e0|   00 00 00 00 5a a4 d4 0b                     | ....Z...       |      [61]: "2018-03-11T07:00:27Z" (1520751627) transition_time 0x4e1-0x4e9 (8)
0x4e0|                           00 00 00 00 5b de 8a|         ....[..|      [62]: "2018-11-04T06:00:27Z" (1541311227) transition_time 0x4e9-0x4f1 (8)
0x4f0|fb                                             |.               |
0x4f0|   00 00 00 00 5c 84 b6 0b                     | ....\...       |      [63]: "2019-03-10T07:00:27Z" (1552201227) transition_time 0x4f1-0x4f9 (8)
0x4f0|                           00 00 00 00 5d be 6c|         ....].l|      [64]: "2019-11-03T06:00:27Z" (1572760827) transition_time 0x4f9-0x501 (8)
0x500|fb                                             |.               |
0x500|   00 00 00 00 5e 64 98 0b                     | ....^d..       |      [65]: "2020-03-08T07:00:27Z" (1583650827) transition_time 0x501-0x509 (8)
0x500|                           00 00 00 00 5f 9e 4e|         ...._.N|      [66]: "2020-11-01T06:00:27Z" (1604210427) transition_time 0x509-0x511 (8)
0x510|fb                                             |.               |
0x510|   00 00 00 00 60 4d b4 8b                     | ....`M..       |      [67]: "2021-03-14T07:00:27Z" (1615705227) transition_time 0x511-0x519 (8)
0x510|                           00 00 00 00 61 87 6b|         ....a.k|      [68]: "2021-11-07T06:00:27Z" (1636264827) transition_time 0x519-0x521 (8)
0x520|7b                                             |{               |
0x520|   00 00 00 00 62 2d 96 8b                     | ....b-..       |      [69]: "2022-03-13T07:00:27Z" (1647154827) transition_time 0x521-0x529 (8)
0x520|                           00 00 00 00 63 67 4d|         ....cgM|      [70]: "2022-11-06T06:00:27Z" (1667714427) transition_time 0x529-0x531 (8)
0x530|7b                                             |{               |
0x530|   00 00 00 00 64 0d 78 8b                     | ....d.x.       |      [71]: "2023-03-12T07:00:27Z" (1678604427) transition_time 0x531-0x539 (8)
0x530|                           00 00 00 00 64 9b 78|         ....d.x|      [72]: "2023-06-28T00:00:27Z" (1687910427) transition_time 0x539-0x541 (8)
0x540|1b                                             |.               |
     |                                               |                |    transition_types[0:73]: 0x541-0x58a (73)
0x540|   05                                          | .              |      [0]: 5 transition_type 0x541-0x542 (1)
0x540|      01                                       |  .             |      [1]: 1 transition_type 0x542-0x543 (1)
0x540|         02                                    |   .            |      [2]: 2 transition_type 0x543-0x544 (1)
0x540|            01                                 |    .           |      [3]: 1 transition_type 0x544-0x545 (1)
0x540|               02                              |     .          |      [4]: 2 transition_type 0x545-0x546 (1)
0x540|                  03                           |      .         |      [5]: 3 transition_type 0x546-0x547 (1)
0x540|                     04                        |       .        |      [6]: 4 transition_type 0x547-0x548 (1)
0x540|                        02                     |        .       |      [7]: 2 transition_type 0x548-0x549 (1)
0x540|                           01                  |         .      |      [8]: 1 transition_type 0x549-0x54a (1)
0x540|                              02               |          .     |      [9]: 2 transition_type 0x54a-0x54b (1)
0x540|                                 01            |           .    |      [10]: 1 transition_type 0x54b-0x54c (1)
0x540|                                    02         |            .   |      [11]: 2 transition_type 0x54c-0x54d (1)
0x540|                                       01      |             .  |      [12]: 1 transition_type 0x54d-0x54e (1)
0x540|                                          02   |              . |      [13]: 2 transition_type 0x54e-0x54f (1)
0x540|                                             01|               .|      [14]: 1 transition_type 0x54f-0x550 (1)
0x550|02                                             |.               |      [15]: 2 transition_type 0x550-0x551 (1)
0x550|   01                                          | .              |      [16]: 1 transition_type 0x551-0x552 (1)
0x550|      02                                       |  .             |      [17]: 2 transition_type 0x552-0x553 (1)
0x550|         01                                    |   .            |      [18]: 1 transition_type 0x553-0x554 (1)
0x550|            02                                 |    .           |      [19]: 2 transition_type 0x554-0x555 (1)
0x550|               01                              |     .          |      [20]: 1 transition_type 0x555-0x556 (1)
0x550|                  02                           |      .         |      [21]: 2 transition_type 0x556-0x557 (1)
0x550|                     01                        |       .        |      [22]: 1 transition_type 0x557-0x558 (1)
0x550|                        02                     |        .       |      [23]: 2 transition_type 0x558-0x559 (1)
0x550|                           01                  |         .      |      [24]: 1 transition_type 0x559-0x55a (1)
0x550|                              02               |          .     |      [25]: 2 transition_type 0x55a-0x55b (1)
0x550|                                 01            |           .    |      [26]: 1 transition_type 0x55b-0x55c (1)
0x550|                                    02         |            .   |      [27]: 2 transition_type 0x55c-0x55d (1)
0x550|                                       01      |             .  |      [28]: 1 transition_type 0x55d-0x55e (1)
0x550|                                          02   |              . |      [29]: 2 transition_type 0x55e-0x55f (1)
0x550|                                             01|               .|      [30]: 1 transition_type 0x55f-0x560 (1)
0x560|02                                             |.               |      [31]: 2 transition_type 0x560-0x561 (1)
0x560|   06                                          | .              |      [32]: 6 transition_type 0x561-0x562 (1)
0x560|      07                                       |  .             |      [33]: 7 transition_type 0x562-0x563 (1)
0x560|         06                                    |   .            |      [34]: 6 transition_type 0x563-0x564 (1)
0x560|            07                                 |    .           |      [35]: 7 transition_type 0x564-0x565 (1)
0x560|               06                              |     .          |      [36]: 6 transition_type 0x565-0x566 (1)
0x560|                  01                           |      .         |      [37]: 1 transition_type 0x566-0x567 (1)
0x560|                     02                        |       .        |      [38]: 2 transition_type 0x567-0x568 (1)
0x560|                        01                     |        .       |      [39]: 1 transition_type 0x568-0x569 (1)
0x560|                           06                  |         .      |      [40]: 6 transition_type 0x569-0x56a (1)
0x560|                              07               |          .     |      [41]: 7 transition_type 0x56a-0x56b (1)
0x560|                                 06            |           .    |      [42]: 6 transition_type 0x56b-0x56c (1)
0x560|                                    07         |            .   |      [43]: 7 transition_type 0x56c-0x56d (1)
0x560|                                       06      |             .  |      [44]: 6 transition_type 0x56d-0x56e (1)
0x560|                                          07   |              . |      [45]: 7 transition_type 0x56e-0x56f (1)
0x560|                                             06|               .|      [46]: 6 transition_type 0x56f-0x570 (1)
0x570|07                                             |.               |      [47]: 7 transition_type 0x570-0x571 (1)
0x570|   06                                          | .              |      [48]: 6 transition_type 0x571-0x572 (1)
0x570|      07                                       |  .             |      [49]: 7 transition_type 0x572-0x573 (1)
0x570|         06                                    |   .            |      [50]: 6 transition_type 0x573-0x574 (1)
0x570|            07                                 |    .           |      [51]: 7 transition_type 0x574-0x575 (1)
0x570|               06                              |     .          |      [52]: 6 transition_type 0x575-0x576 (1)
0x570|                  07                           |      .         |      [53]: 7 transition_type 0x576-0x577 (1)
0x570|                     06                        |       .        |      [54]: 6 transition_type 0x577-0x578 (1)
0x570|                        07                     |        .       |      [55]: 7 transition_type 0x578-0x579 (1)
0x570|                           06                  |         .      |      [56]: 6 transition_type 0x579-0x57a (1)
0x570|                              07               |          .     |      [57]: 7 transition_type 0x57a-0x57b (1)
0x570|                                 06            |           .    |      [58]: 6 transition_type 0x57b-0x57c (1)
0x570|                                    07         |            .   |      [59]: 7 transition_type 0x57c-0x57d (1)
0x570|                                       06      |             .  |      [60]: 6 transition_type 0x57d-0x57e (1)
0x570|                                          07   |              . |      [61]: 7 transition_type 0x57e-0x57f (1)
0x570|                                             06|               .|      [62]: 6 transition_type 0x57f-0x580 (1)
0x580|07                                             |.               |      [63]: 7 transition_type 0x580-0x581 (1)
0x580|   06                                          | .              |      [64]: 6 transition_type 0x581-0x582 (1)
0x580|      07                                       |  .             |      [65]: 7 transition_type 0x582-0x583 (1)
0x580|         06                                    |   .            |      [66]: 6 transition_type 0x583-0x584 (1)
0x580|            07                                 |    .           |      [67]: 7 transition_type 0x584-0x585 (1)
0x580|               06                              |     .          |      [68]: 6 transition_type 0x585-0x586 (1)
0x580|                  07                           |      .         |      [69]: 7 transition_type 0x586-0x587 (1)
0x580|                     06                        |       .        |      [70]: 6 transition_type 0x587-0x588 (1)
0x580|                        07                     |        .       |      [71]: 7 transition_type 0x588-0x589 (1)
0x580|                           07                  |         .      |      [72]: 7 transition_type 0x589-0x58a (1)
     |                                               |                |    local_time_type_records[0:8]: 0x58a-0x5ba (48)
     |                                               |                |      [0]{}: local_time_type 0x58a-0x590 (6)
0x580|                              ff ff ad f1      |          ....  |        utoff: -21007 (valid) 0x58a-0x58e (4)
0x580|                                          00   |              . |        dst: 0 (valid) 0x58e-0x58f (1)
0x580|                                             00|               .|        idx: 0 (valid) 0x58f-0x590 (1)
     |                                               |                |      [1]{}: local_time_type 0x590-0x596 (6)
0x590|ff ff b9 b0                                    |....            |        utoff: -18000 (valid) 0x590-0x594 (4)
0x590|            01                                 |    .           |        dst: 1 (valid) 0x594-0x595 (1)
0x590|               04                              |     .          |        idx: 4 (valid) 0x595-0x596 (1)
     |                                               |                |      [2]{}: local_time_type 0x596-0x59c (6)
0x590|                  ff ff ab a0                  |      ....      |        utoff: -21600 (valid) 0x596-0x59a (4)
0x590|                              00               |          .     |        dst: 0 (valid) 0x59a-0x59b (1)
0x590|                                 08            |           .    |        idx: 8 (valid) 0x59b-0x59c (1)
     |                                               |                |      [3]{}: local_time_type 0x59c-0x5a2 (6)
0x590|                                    ff ff b9 b0|            ....|        utoff: -18000 (valid) 0x59c-0x5a0 (4)
0x5a0|01                                             |.               |        dst: 1 (valid) 0x5a0-0x5a1 (1)
0x5a0|   0c                                          | .              |        idx: 12 (valid) 0x5a1-0x5a2 (1)
     |                                               |                |      [4]{}: local_time_type 0x5a2-0x5a8 (6)
0x5a0|      ff ff b9 b0                              |  ....          |        utoff: -18000 (valid) 0x5a2-0x5a6 (4)
0x5a0|                  01                           |      .         |        dst: 1 (valid) 0x5a6-0x5a7 (1)
0x5a0|                     10                        |       .        |        idx: 16 (valid) 0x5a7-0x5a8 (1)
     |                                               |                |      [5]{}: local_time_type 0x5a8-0x5ae (6)
0x5a0|                        ff ff ab a0            |        ....    |        utoff: -21600 (valid) 0x5a8-0x5ac (4)
0x5a0|                                    00         |            .   |        dst: 0 (valid) 0x5ac-0x5ad (1)
0x5a0|                                       08      |             .  |        idx: 8 (valid) 0x5ad-0x5ae (1)
     |                                               |                |      [6]{}: local_time_type 0x5ae-0x5b4 (6)
0x5a0|                                          ff ff|              ..|        utoff: -18000 (valid) 0x5ae-0x5b2 (4)
0x5b0|b9 b0                                          |..              |
0x5b0|      00                                       |  .             |        dst: 0 (valid) 0x5b2-0x5b3 (1)
0x5b0|         14                                    |   .            |        idx: 20 (valid) 0x5b3-0x5b4 (1)
     |                                               |                |      [7]{}: local_time_type 0x5b4-0x5ba (6)
0x5b0|            ff ff c7 c0                        |    ....        |        utoff: -14400 (valid) 0x5b4-0x5b8 (4)
0x5b0|                        01                     |        .       |        dst: 1 (valid) 0x5b8-0x5b9 (1)
0x5b0|                           18                  |         .      |        idx: 24 (valid) 0x5b9-0x5ba (1)
     |                                               |                |    time_zone_designations[0:7]: 0x5ba-0x5d6 (28)
0x5b0|                              4c 4d 54 00      |          LMT.  |      [0]: "LMT" time_zone_designation 0x5ba-0x5be (4)
0x5b0|                                          43 44|              CD|      [1]: "CDT" time_zone_designation 0x5be-0x5c2 (4)
0x5c0|54 00                                          |T.              |
0x5c0|      43 53 54 00                              |  CST.          |      [2]: "CST" time_zone_designation 0x5c2-0x5c6 (4)
0x5c0|                  43 57 54 00                  |      CWT.      |      [3]: "CWT" time_zone_designation 0x5c6-0x5ca (4)
0x5c0|                              43 50 54 00      |          CPT.  |      [4]: "CPT" time_zone_designation 0x5ca-0x5ce (4)
0x5c0|                                          45 53|              ES|      [5]: "EST" time_zone_designation 0x5ce-0x5d2 (4)
0x5d0|54 00                                          |T.              |
0x5d0|      45 44 54 00                              |  EDT.          |      [6]: "EDT" time_zone_designation 0x5d2-0x5d6 (4)
     |                                               |                |    leap_second_records[0:27]: 0x5d6-0x71a (324)
     |                                               |                |      [0]{}: leap_second_record 0x5d6-0x5e2 (12)
0x5d0|                  00 00 00 00 04 b2 58 00      |      ......X.  |        occur: "1972-07-01T00:00:00Z" (78796800) 0x5d6-0x5de (8)
0x5d0|                                          00 00|              ..|        corr: 1 0x5de-0x5e2 (4)
0x5e0|00 01                                          |..              |
     |                                               |                |      [1]{}: leap_second_record 0x5e2-0x5ee (12)
0x5e0|      00 00 00 00 05 a4 ec 01                  |  ........      |        occur: "1973-01-01T00:00:01Z" (94694401) 0x5e2-0x5ea (8)
0x5e0|                              00 00 00 02      |          ....  |        corr: 2 0x5ea-0x5ee (4)
     |                                               |                |      [2]{}: leap_second_record 0x5ee-0x5fa (12)
0x5e0|                                          00 00|              ..|        occur: "1974-01-01T00:00:02Z" (126230402) 0x5ee-0x5f6 (8)
0x5f0|00 00 07 86 1f 82                              |......          |
0x5f0|                  00 00 00 03                  |      ....      |        corr: 3 0x5f6-0x5fa (4)
     |                                               |                |      [3]{}: leap_second_record 0x5fa-0x606 (12)
0x5f0|                              00 00 00 00 09 67|          .....g|        occur: "1975-01-01T00:00:03Z" (157766403) 0x5fa-0x602 (8)
0x600|53 03                                          |S.              |
0x600|      00 00 00 04                              |  ....          |        corr: 4 0x602-0x606 (4)
     |                                               |                |      [4]{}: leap_second_record 0x606-0x612 (12)
0x600|                  00 00 00 00 0b 48 86 84      |      .....H..  |        occur: "1976-01-01T00:00:04Z" (189302404) 0x606-0x60e (8)
0x600|                                          00 00|              ..|        corr: 5 0x60e-0x612 (4)
0x610|00 05                                          |..              |
     |                                               |                |      [5]{}: leap_second_record 0x612-0x61e (12)
0x610|      00 00 00 00 0d 2b 0b 85                  |  .....+..      |        occur: "1977-01-01T00:00:05Z" (220924805) 0x612-0x61a (8)
0x610|                              00 00 00 06      |          ....  |        corr: 6 0x61a-0x61e (4)
     |                                               |                |      [6]{}: leap_second_record 0x61e-0x62a (12)
0x610|                                          00 00|              ..|        occur: "1978-01-01T00:00:06Z" (252460806) 0x61e-0x626 (8)
0x620|00 00 0f 0c 3f 06                              |....?.          |
0x620|                  00 00 00 07                  |      ....      |        corr: 7 0x626-0x62a (4)
     |                                               |                |      [7]{}: leap_second_record 0x62a-0x636 (12)
0x620|                              00 00 00 00 10 ed|          ......|        occur: "1979-01-01T00:00:07Z" (283996807) 0x62a-0x632 (8)
0x630|72 87                                          |r.              |
0x630|      00 00 00 08                              |  ....          |        corr: 8 0x632-0x636 (4)
     |                                               |                |      [8]{}: leap_second_record 0x636-0x642 (12)
0x630|                  00 00 00 00 12 ce a6 08      |      ........  |        occur: "1980-01-01T00:00:08Z" (315532808) 0x636-0x63e (8)
0x630|                                          00 00|              ..|        corr: 9 0x63e-0x642 (4)
0x640|00 09                                          |..              |
     |                                               |                |      [9]{}: leap_second_record 0x642-0x64e (12)
0x640|      00 00 00 00 15 9f ca 89                  |  ........      |        occur: "1981-07-01T00:00:09Z" (362793609) 0x642-0x64a (8)
0x640|                              00 00 00 0a      |          ....  |        corr: 10 0x64a-0x64e (4)
     |                                               |                |      [10]{}: leap_second_record 0x64e-0x65a (12)
0x640|                                          00 00|              ..|        occur: "1982-07-01T00:00:10Z" (394329610) 0x64e-0x656 (8)
0x650|00 00 17 80 fe 0a                              |......          |
0x650|                  00 00 00 0b                  |      ....      |        corr: 11 0x656-0x65a (4)
     |                                               |                |      [11]{}: leap_second_record 0x65a-0x666 (12)
0x650|                              00 00 00 00 19 62|          .....b|        occur: "1983-07-01T00:00:11Z" (425865611) 0x65a-0x662 (8)
0x660|31 8b                                          |1.              |
0x660|      00 00 00 0c                              |  ....          |        corr: 12 0x662-0x666 (4)
     |                                               |                |      [12]{}: leap_second_record 0x666-0x672 (12)
0x660|                  00 00 00 00 1d 25 ea 0c      |      .....%..  |        occur: "1985-07-01T00:00:12Z" (489024012) 0x666-0x66e (8)
0x660|                                          00 00|              ..|        corr: 13 0x66e-0x672 (4)
0x670|00 0d                                          |..              |
     |                                               |                |      [13]{}: leap_second_record 0x672-0x67e (12)
0x670|      00 00 00 00 21 da e5 0d                  |  ....!...      |        occur: "1988-01-01T00:00:13Z" (567993613) 0x672-0x67a (8)
0x670|                              00 00 00 0e      |          ....  |        corr: 14 0x67a-0x67e (4)
     |                                               |                |      [14]{}: leap_second_record 0x67e-0x68a (12)
0x670|                                          00 00|              ..|        occur: "1990-01-01T00:00:14Z" (631152014) 0x67e-0x686 (8)
0x680|00 00 25 9e 9d 8e                              |..%...          |
0x680|                  00 00 00 0f                  |      ....      |        corr: 15 0x686-0x68a (4)
     |                                               |                |      [15]{}: leap_second_record 0x68a-0x696 (12)
0x680|                              00 00 00 00 27 7f|          ....'.|        occur: "1991-01-01T00:00:15Z" (662688015) 0x68a-0x692 (8)
0x690|d1 0f                                          |..              |
0x690|      00 00 00 10                              |  ....          |        corr: 16 0x692-0x696 (4)
     |                                               |                |      [16]{}: leap_second_record 0x696-0x6a2 (12)
0x690|                  00 00 00 00 2a 50 f5 90      |      ....*P..  |        occur: "1992-07-01T00:00:16Z" (709948816) 0x696-0x69e (8)
0x690|                                          00 00|              ..|        corr: 17 0x69e-0x6a2 (4)
0x6a0|00 11                                          |..              |
     |                                               |                |      [17]{}: leap_second_record 0x6a2-0x6ae (12)
0x6a0|      00 00 00 00 2c 32 29 11                  |  ....,2).      |        occur: "1993-07-01T00:00:17Z" (741484817) 0x6a2-0x6aa (8)
0x6a0|                              00 00 00 12      |          ....  |        corr: 18 0x6aa-0x6ae (4)
     |                                               |                |      [18]{}: leap_second_record 0x6ae-0x6ba (12)
0x6a0|                                          00 00|              ..|        occur: "1994-07-01T00:00:18Z" (773020818) 0x6ae-0x6b6 (8)
0x6b0|00 00 2e 13 5c 92                              |....\.          |
0x6b0|                  00 00 00 13                  |      ....      |        corr: 19 0x6b6-0x6ba (4)
     |                                               |                |      [19]{}: leap_second_record 0x6ba-0x6c6 (12)
0x6b0|                              00 00 00 00 30 e7|          ....0.|        occur: "1996-01-01T00:00:19Z" (820454419) 0x6ba-0x6c2 (8)
0x6c0|24 13                                          |$.              |
0x6c0|      00 00 00 14                              |  ....          |        corr: 20 0x6c2-0x6c6 (4)
     |                                               |                |      [20]{}: leap_second_record 0x6c6-0x6d2 (12)
0x6c0|                  00 00 00 00 33 b8 48 94      |      ....3.H.  |        occur: "1997-07-01T00:00:20Z" (867715220) 0x6c6-0x6ce (8)
0x6c0|                                          00 00|              ..|        corr: 21 0x6ce-0x6d2 (4)
0x6d0|00 15                                          |..              |
     |                                               |                |      [21]{}: leap_second_record 0x6d2-0x6de (12)
0x6d0|      00 00 00 00 36 8c 10 15                  |  ....6...      |        occur: "1999-01-01T00:00:21Z" (915148821) 0x6d2-0x6da (8)
0x6d0|                              00 00 00 16      |          ....  |        corr: 22 0x6da-0x6de (4)
     |                                               |                |      [22]{}: leap_second_record 0x6de-0x6ea (12)
0x6d0|                                          00 00|              ..|        occur: "2006-01-01T00:00:22Z" (1136073622) 0x6de-0x6e6 (8)
0x6e0|00 00 43 b7 1b 96                              |..C...          |
0x6e0|                  00 00 00 17                  |      ....      |        corr: 23 0x6e6-0x6ea (4)
     |                                               |                |      [23]{}: leap_second_record 0x6ea-0x6f6 (12)
0x6e0|                              00 00 00 00 49 5c|          ....I\|        occur: "2009-01-01T00:00:23Z" (1230768023) 0x6ea-0x6f2 (8)
0x6f0|07 97                                          |..              |
0x6f0|      00 00 00 18                              |  ....          |        corr: 24 0x6f2-0x6f6 (4)
     |                                               |                |      [24]{}: leap_second_record 0x6f6-0x702 (12)
0x6f0|                  00 00 00 00 4f ef 93 18      |      ....O...  |        occur: "2012-07-01T00:00:24Z" (1341100824) 0x6f6-0x6fe (8)
0x6f0|                                          00 00|              ..|        corr: 25 0x6fe-0x702 (4)
0x700|00 19                                          |..              |
     |                                               |                |      [25]{}: leap_second_record 0x702-0x70e (12)
0x700|      00 00 00 00 55 93 2d 99                  |  ....U.-.      |        occur: "2015-07-01T00:00:25Z" (1435708825) 0x702-0x70a (8)
0x700|                              00 00 00 1a      |          ....  |        corr: 26 0x70a-0x70e (4)
     |                                               |                |      [26]{}: leap_second_record 0x70e-0x71a (12)
0x700|                                          00 00|              ..|        occur: "2017-01-01T00:00:26Z" (1483228826) 0x70e-0x716 (8)
0x710|00 00 58 68 46 9a                              |..XhF.          |
0x710|                  00 00 00 1b                  |      ....      |        corr: 27 0x716-0x71a (4)
     |                                               |                |    standard_wall_indicators[0:8]: 0x71a-0x722 (8)
0x710|                              00               |          .     |      [0]: 0 standard_wall_indicator (valid) 0x71a-0x71b (1)
0x710|                                 00            |           .    |      [1]: 0 standard_wall_indicator (valid) 0x71b-0x71c (1)
0x710|                                    00         |            .   |      [2]: 0 standard_wall_indicator (valid) 0x71c-0x71d (1)
0x710|                                       00      |             .  |      [3]: 0 standard_wall_indicator (valid) 0x71d-0x71e (1)
0x710|                                          01   |              . |      [4]: 1 standard_wall_indicator (valid) 0x71e-0x71f (1)
0x710|                                             01|               .|      [5]: 1 standard_wall_indicator (valid) 0x71f-0x720 (1)
0x720|00                                             |.               |      [6]: 0 standard_wall_indicator (valid) 0x720-0x721 (1)
0x720|   00                                          | .              |      [7]: 0 standard_wall_indicator (valid) 0x721-0x722 (1)
     |                                               |                |    ut_local_indicators[0:8]: 0x722-0x72a (8)
0x720|      00                                       |  .             |      [0]: 0 ut_local_indicator (valid) 0x722-0x723 (1)
0x720|         00                                    |   .            |      [1]: 0 ut_local_indicator (valid) 0x723-0x724 (1)
0x720|            00                                 |    .           |      [2]: 0 ut_local_indicator (valid) 0x724-0x725 (1)
0x720|               00                              |     .          |      [3]: 0 ut_local_indicator (valid) 0x725-0x726 (1)
0x720|                  01                           |      .         |      [4]: 1 ut_local_indicator (valid) 0x726-0x727 (1)
0x720|                     01                        |       .        |      [5]: 1 ut_local_indicator (valid) 0x727-0x728 (1)
0x720|                        00                     |        .       |      [6]: 0 ut_local_indicator (valid) 0x728-0x729 (1)
0x720|                           00                  |         .      |      [7]: 0 ut_local_indicator (valid) 0x729-0x72a (1)
     |                                               |                |  footer{}: 0x72a-0x72c (2)
0x720|                              0a               |          .     |    nl1: 10 (valid) 0x72a-0x72b (1)
     |                                               |                |    tz_string: "" 0x72b-0x72b (0)
0x720|                                 0a|           |           .|   |    nl2: 10 (valid) 0x72b-0x72c (1)
