$ fq -d tzif dv Warsaw
     |00 01 02 03 04 05 06 07 08 09 0a 0b 0c 0d 0e 0f|0123456789abcdef|.{}: Warsaw (tzif) 0x0-0xa5d.7 (2654)
     |                                               |                |  v1header{}: 0x0-0x2b.7 (44)
0x000|54 5a 69 66                                    |TZif            |    magic: 0x545a6966 (valid) 0x0-0x3.7 (4)
0x000|            32                                 |    2           |    ver: "2" (0x32) (valid) 0x4-0x4.7 (1)
0x000|               00 00 00 00 00 00 00 00 00 00 00|     ...........|    reserved: raw bits 0x5-0x13.7 (15)
0x010|00 00 00 00                                    |....            |
0x010|            00 00 00 0b                        |    ....        |    isutcnt: 11 0x14-0x17.7 (4)
0x010|                        00 00 00 0b            |        ....    |    isstdcnt: 11 0x18-0x1b.7 (4)
0x010|                                    00 00 00 00|            ....|    leapcnt: 0 0x1c-0x1f.7 (4)
0x020|00 00 00 a5                                    |....            |    timecnt: 165 0x20-0x23.7 (4)
0x020|            00 00 00 0b                        |    ....        |    typecnt: 11 0x24-0x27.7 (4)
0x020|                        00 00 00 1a            |        ....    |    charcnt: 26 0x28-0x2b.7 (4)
     |                                               |                |  v1datablock{}: 0x2c-0x3d6.7 (939)
     |                                               |                |    transition_times[0:165]: 0x2c-0x2bf.7 (660)
0x020|                                    80 00 00 00|            ....|      [0]: "1901-12-13T20:45:52Z" (-2147483648) transition_time 0x2c-0x2f.7 (4)
0x030|99 a8 2a d0                                    |..*.            |      [1]: "1915-08-04T22:36:00Z" (-1717032240) transition_time 0x30-0x33.7 (4)
0x030|            9b 0c 17 60                        |    ...`        |      [2]: "1916-04-30T22:00:00Z" (-1693706400) transition_time 0x34-0x37.7 (4)
0x030|                        9b d5 da f0            |        ....    |      [3]: "1916-09-30T23:00:00Z" (-1680483600) transition_time 0x38-0x3b.7 (4)
0x030|                                    9c d9 ae 90|            ....|      [4]: "1917-04-16T01:00:00Z" (-1663455600) transition_time 0x3c-0x3f.7 (4)
0x040|9d a4 b5 90                                    |....            |      [5]: "1917-09-17T01:00:00Z" (-1650150000) transition_time 0x40-0x43.7 (4)
0x040|            9e b9 90 90                        |    ....        |      [6]: "1918-04-15T01:00:00Z" (-1632006000) transition_time 0x44-0x47.7 (4)
0x040|                        9f 84 97 90            |        ....    |      [7]: "1918-09-16T01:00:00Z" (-1618700400) transition_time 0x48-0x4b.7 (4)
0x040|                                    a0 9a b6 00|            ....|      [8]: "1919-04-15T00:00:00Z" (-1600473600) transition_time 0x4c-0x4f.7 (4)
0x050|a1 65 bd 00                                    |.e..            |      [9]: "1919-09-16T00:00:00Z" (-1587168000) transition_time 0x50-0x53.7 (4)
0x050|            a6 7d 7c 60                        |    .}|`        |      [10]: "1922-05-31T22:00:00Z" (-1501725600) transition_time 0x54-0x57.7 (4)
0x050|                        c8 76 de 10            |        .v..    |      [11]: "1940-06-23T01:00:00Z" (-931734000) transition_time 0x58-0x5b.7 (4)
0x050|                                    cc e7 4b 10|            ..K.|      [12]: "1942-11-02T01:00:00Z" (-857257200) transition_time 0x5c-0x5f.7 (4)
0x060|cd a9 17 90                                    |....            |      [13]: "1943-03-29T01:00:00Z" (-844556400) transition_time 0x60-0x63.7 (4)
0x060|            ce a2 43 10                        |    ..C.        |      [14]: "1943-10-04T01:00:00Z" (-828226800) transition_time 0x64-0x67.7 (4)
0x060|                        cf 92 34 10            |        ..4.    |      [15]: "1944-04-03T01:00:00Z" (-812502000) transition_time 0x68-0x6b.7 (4)
0x060|                                    d0 84 ba 00|            ....|      [16]: "1944-10-04T00:00:00Z" (-796608000) transition_time 0x6c-0x6f.7 (4)
0x070|d1 95 92 70                                    |...p            |      [17]: "1945-04-28T23:00:00Z" (-778726800) transition_time 0x70-0x73.7 (4)
0x070|            d2 8a bb 60                        |    ...`        |      [18]: "1945-10-31T22:00:00Z" (-762660000) transition_time 0x74-0x77.7 (4)
0x070|                        d3 62 ff 70            |        .b.p    |      [19]: "1946-04-13T23:00:00Z" (-748486800) transition_time 0x78-0x7b.7 (4)
0x070|                                    d4 4b 23 90|            .K#.|      [20]: "1946-10-07T01:00:00Z" (-733273200) transition_time 0x7c-0x7f.7 (4)
0x080|d5 5e ad 10                                    |.^..            |      [21]: "1947-05-04T01:00:00Z" (-715215600) transition_time 0x80-0x83.7 (4)
0x080|            d6 29 b4 10                        |    .)..        |      [22]: "1947-10-05T01:00:00Z" (-701910000) transition_time 0x84-0x87.7 (4)
0x080|                        d7 2c 1a 10            |        .,..    |      [23]: "1948-04-18T01:00:00Z" (-684975600) transition_time 0x88-0x8b.7 (4)
0x080|                                    d8 09 96 10|            ....|      [24]: "1948-10-03T01:00:00Z" (-670460400) transition_time 0x8c-0x8f.7 (4)
0x090|d9 02 c1 90                                    |....            |      [25]: "1949-04-10T01:00:00Z" (-654130800) transition_time 0x90-0x93.7 (4)
0x090|            d9 e9 78 10                        |    ..x.        |      [26]: "1949-10-02T01:00:00Z" (-639010800) transition_time 0x94-0x97.7 (4)
0x090|                        e8 54 d2 00            |        .T..    |      [27]: "1957-06-02T00:00:00Z" (-397094400) transition_time 0x98-0x9b.7 (4)
0x090|                                    e8 f1 b4 80|            ....|      [28]: "1957-09-29T00:00:00Z" (-386812800) transition_time 0x9c-0x9f.7 (4)
0x0a0|e9 e1 a5 80                                    |....            |      [29]: "1958-03-30T00:00:00Z" (-371088000) transition_time 0xa0-0xa3.7 (4)
0x0a0|            ea d1 96 80                        |    ....        |      [30]: "1958-09-28T00:00:00Z" (-355363200) transition_time 0xa4-0xa7.7 (4)
0x0a0|                        ec 14 96 00            |        ....    |      [31]: "1959-05-31T00:00:00Z" (-334195200) transition_time 0xa8-0xab.7 (4)
0x0a0|                                    ec ba b3 00|            ....|      [32]: "1959-10-04T00:00:00Z" (-323308800) transition_time 0xac-0xaf.7 (4)
0x0b0|ed aa a4 00                                    |....            |      [33]: "1960-04-03T00:00:00Z" (-307584000) transition_time 0xb0-0xb3.7 (4)
0x0b0|            ee 9a 95 00                        |    ....        |      [34]: "1960-10-02T00:00:00Z" (-291859200) transition_time 0xb4-0xb7.7 (4)
0x0b0|                        ef d4 5a 00            |        ..Z.    |      [35]: "1961-05-28T00:00:00Z" (-271296000) transition_time 0xb8-0xbb.7 (4)
0x0b0|                                    f0 7a 77 00|            .zw.|      [36]: "1961-10-01T00:00:00Z" (-260409600) transition_time 0xbc-0xbf.7 (4)
0x0c0|f1 b4 3c 00                                    |..<.            |      [37]: "1962-05-27T00:00:00Z" (-239846400) transition_time 0xc0-0xc3.7 (4)
0x0c0|            f2 5a 59 00                        |    .ZY.        |      [38]: "1962-09-30T00:00:00Z" (-228960000) transition_time 0xc4-0xc7.7 (4)
0x0c0|                        f3 94 1e 00            |        ....    |      [39]: "1963-05-26T00:00:00Z" (-208396800) transition_time 0xc8-0xcb.7 (4)
0x0c0|                                    f4 3a 3b 00|            .:;.|      [40]: "1963-09-29T00:00:00Z" (-197510400) transition_time 0xcc-0xcf.7 (4)
0x0d0|f5 7d 3a 80                                    |.}:.            |      [41]: "1964-05-31T00:00:00Z" (-176342400) transition_time 0xd0-0xd3.7 (4)
0x0d0|            f6 1a 1d 00                        |    ....        |      [42]: "1964-09-27T00:00:00Z" (-166060800) transition_time 0xd4-0xd7.7 (4)
0x0d0|                        0d a4 55 80            |        ..U.    |      [43]: "1977-04-03T00:00:00Z" (228873600) transition_time 0xd8-0xdb.7 (4)
0x0d0|                                    0e 8b 0c 00|            ....|      [44]: "1977-09-25T00:00:00Z" (243993600) transition_time 0xdc-0xdf.7 (4)
0x0e0|0f 84 37 80                                    |..7.            |      [45]: "1978-04-02T00:00:00Z" (260323200) transition_time 0xe0-0xe3.7 (4)
0x0e0|            10 74 28 80                        |    .t(.        |      [46]: "1978-10-01T00:00:00Z" (276048000) transition_time 0xe4-0xe7.7 (4)
0x0e0|                        11 64 19 80            |        .d..    |      [47]: "1979-04-01T00:00:00Z" (291772800) transition_time 0xe8-0xeb.7 (4)
0x0e0|                                    12 54 0a 80|            .T..|      [48]: "1979-09-30T00:00:00Z" (307497600) transition_time 0xec-0xef.7 (4)
0x0f0|13 4d 36 00                                    |.M6.            |      [49]: "1980-04-06T00:00:00Z" (323827200) transition_time 0xf0-0xf3.7 (4)
0x0f0|            14 33 ec 80                        |    .3..        |      [50]: "1980-09-28T00:00:00Z" (338947200) transition_time 0xf4-0xf7.7 (4)
0x0f0|                        15 23 dd 80            |        .#..    |      [51]: "1981-03-29T00:00:00Z" (354672000) transition_time 0xf8-0xfb.7 (4)
0x0f0|                                    16 13 ce 80|            ....|      [52]: "1981-09-27T00:00:00Z" (370396800) transition_time 0xfc-0xff.7 (4)
0x100|17 03 bf 80                                    |....            |      [53]: "1982-03-28T00:00:00Z" (386121600) transition_time 0x100-0x103.7 (4)
0x100|            17 f3 b0 80                        |    ....        |      [54]: "1982-09-26T00:00:00Z" (401846400) transition_time 0x104-0x107.7 (4)
0x100|                        18 e3 a1 80            |        ....    |      [55]: "1983-03-27T00:00:00Z" (417571200) transition_time 0x108-0x10b.7 (4)
0x100|                                    19 d3 92 80|            ....|      [56]: "1983-09-25T00:00:00Z" (433296000) transition_time 0x10c-0x10f.7 (4)
0x110|1a c3 83 80                                    |....            |      [57]: "1984-03-25T00:00:00Z" (449020800) transition_time 0x110-0x113.7 (4)
0x110|            1b bc af 00                        |    ....        |      [58]: "1984-09-30T00:00:00Z" (465350400) transition_time 0x114-0x117.7 (4)
0x110|                        1c ac a0 00            |        ....    |      [59]: "1985-03-31T00:00:00Z" (481075200) transition_time 0x118-0x11b.7 (4)
0x110|                                    1d 9c 91 00|            ....|      [60]: "1985-09-29T00:00:00Z" (496800000) transition_time 0x11c-0x11f.7 (4)
0x120|1e 8c 82 00                                    |....            |      [61]: "1986-03-30T00:00:00Z" (512524800) transition_time 0x120-0x123.7 (4)
0x120|            1f 7c 73 00                        |    .|s.        |      [62]: "1986-09-28T00:00:00Z" (528249600) transition_time 0x124-0x127.7 (4)
0x120|                        20 6c 64 00            |         ld.    |      [63]: "1987-03-29T00:00:00Z" (543974400) transition_time 0x128-0x12b.7 (4)
0x120|                                    21 5c 55 00|            !\U.|      [64]: "1987-09-27T00:00:00Z" (559699200) transition_time 0x12c-0x12f.7 (4)
0x130|22 4c 54 10                                    |"LT.            |      [65]: "1988-03-27T01:00:00Z" (575427600) transition_time 0x130-0x133.7 (4)
0x130|            23 3c 45 10                        |    #<E.        |      [66]: "1988-09-25T01:00:00Z" (591152400) transition_time 0x134-0x137.7 (4)
0x130|                        24 2c 36 10            |        $,6.    |      [67]: "1989-03-26T01:00:00Z" (606877200) transition_time 0x138-0x13b.7 (4)
0x130|                                    25 1c 27 10|            %.'.|      [68]: "1989-09-24T01:00:00Z" (622602000) transition_time 0x13c-0x13f.7 (4)
0x140|26 0c 18 10                                    |&...            |      [69]: "1990-03-25T01:00:00Z" (638326800) transition_time 0x140-0x143.7 (4)
0x140|            27 05 43 90                        |    '.C.        |      [70]: "1990-09-30T01:00:00Z" (654656400) transition_time 0x144-0x147.7 (4)
0x140|                        27 f5 34 90            |        '.4.    |      [71]: "1991-03-31T01:00:00Z" (670381200) transition_time 0x148-0x14b.7 (4)
0x140|                                    28 e5 25 90|            (.%.|      [72]: "1991-09-29T01:00:00Z" (686106000) transition_time 0x14c-0x14f.7 (4)
0x150|29 d5 16 90                                    |)...            |      [73]: "1992-03-29T01:00:00Z" (701830800) transition_time 0x150-0x153.7 (4)
0x150|            2a c5 07 90                        |    *...        |      [74]: "1992-09-27T01:00:00Z" (717555600) transition_time 0x154-0x157.7 (4)
0x150|                        2b b4 f8 90            |        +...    |      [75]: "1993-03-28T01:00:00Z" (733280400) transition_time 0x158-0x15b.7 (4)
0x150|                                    2c a4 e9 90|            ,...|      [76]: "1993-09-26T01:00:00Z" (749005200) transition_time 0x15c-0x15f.7 (4)
0x160|2d 94 da 90                                    |-...            |      [77]: "1994-03-27T01:00:00Z" (764730000) transition_time 0x160-0x163.7 (4)
0x160|            2e 84 cb 90                        |    ....        |      [78]: "1994-09-25T01:00:00Z" (780454800) transition_time 0x164-0x167.7 (4)
0x160|                        2f 74 bc 90            |        /t..    |      [79]: "1995-03-26T01:00:00Z" (796179600) transition_time 0x168-0x16b.7 (4)
0x160|                                    30 64 ad 90|            0d..|      [80]: "1995-09-24T01:00:00Z" (811904400) transition_time 0x16c-0x16f.7 (4)
0x170|31 5d d9 10                                    |1]..            |      [81]: "1996-03-31T01:00:00Z" (828234000) transition_time 0x170-0x173.7 (4)
0x170|            32 72 b4 10                        |    2r..        |      [82]: "1996-10-27T01:00:00Z" (846378000) transition_time 0x174-0x177.7 (4)
0x170|                        33 3d bb 10            |        3=..    |      [83]: "1997-03-30T01:00:00Z" (859683600) transition_time 0x178-0x17b.7 (4)
0x170|                                    34 52 96 10|            4R..|      [84]: "1997-10-26T01:00:00Z" (877827600) transition_time 0x17c-0x17f.7 (4)
0x180|35 1d 9d 10                                    |5...            |      [85]: "1998-03-29T01:00:00Z" (891133200) transition_time 0x180-0x183.7 (4)
0x180|            36 32 78 10                        |    62x.        |      [86]: "1998-10-25T01:00:00Z" (909277200) transition_time 0x184-0x187.7 (4)
0x180|                        36 fd 7f 10            |        6...    |      [87]: "1999-03-28T01:00:00Z" (922582800) transition_time 0x188-0x18b.7 (4)
0x180|                                    38 1b 94 90|            8...|      [88]: "1999-10-31T01:00:00Z" (941331600) transition_time 0x18c-0x18f.7 (4)
0x190|38 dd 61 10                                    |8.a.            |      [89]: "2000-03-26T01:00:00Z" (954032400) transition_time 0x190-0x193.7 (4)
0x190|            39 fb 76 90                        |    9.v.        |      [90]: "2000-10-29T01:00:00Z" (972781200) transition_time 0x194-0x197.7 (4)
0x190|                        3a bd 43 10            |        :.C.    |      [91]: "2001-03-25T01:00:00Z" (985482000) transition_time 0x198-0x19b.7 (4)
0x190|                                    3b db 58 90|            ;.X.|      [92]: "2001-10-28T01:00:00Z" (1004230800) transition_time 0x19c-0x19f.7 (4)
0x1a0|3c a6 5f 90                                    |<._.            |      [93]: "2002-03-31T01:00:00Z" (1017536400) transition_time 0x1a0-0x1a3.7 (4)
0x1a0|            3d bb 3a 90                        |    =.:.        |      [94]: "2002-10-27T01:00:00Z" (1035680400) transition_time 0x1a4-0x1a7.7 (4)
0x1a0|                        3e 86 41 90            |        >.A.    |      [95]: "2003-03-30T01:00:00Z" (1048986000) transition_time 0x1a8-0x1ab.7 (4)
0x1a0|                                    3f 9b 1c 90|            ?...|      [96]: "2003-10-26T01:00:00Z" (1067130000) transition_time 0x1ac-0x1af.7 (4)
0x1b0|40 66 23 90                                    |@f#.            |      [97]: "2004-03-28T01:00:00Z" (1080435600) transition_time 0x1b0-0x1b3.7 (4)
0x1b0|            41 84 39 10                        |    A.9.        |      [98]: "2004-10-31T01:00:00Z" (1099184400) transition_time 0x1b4-0x1b7.7 (4)
0x1b0|                        42 46 05 90            |        BF..    |      [99]: "2005-03-27T01:00:00Z" (1111885200) transition_time 0x1b8-0x1bb.7 (4)
0x1b0|                                    43 64 1b 10|            Cd..|      [100]: "2005-10-30T01:00:00Z" (1130634000) transition_time 0x1bc-0x1bf.7 (4)
0x1c0|44 25 e7 90                                    |D%..            |      [101]: "2006-03-26T01:00:00Z" (1143334800) transition_time 0x1c0-0x1c3.7 (4)
0x1c0|            45 43 fd 10                        |    EC..        |      [102]: "2006-10-29T01:00:00Z" (1162083600) transition_time 0x1c4-0x1c7.7 (4)
0x1c0|                        46 05 c9 90            |        F...    |      [103]: "2007-03-25T01:00:00Z" (1174784400) transition_time 0x1c8-0x1cb.7 (4)
0x1c0|                                    47 23 df 10|            G#..|      [104]: "2007-10-28T01:00:00Z" (1193533200) transition_time 0x1cc-0x1cf.7 (4)
0x1d0|47 ee e6 10                                    |G...            |      [105]: "2008-03-30T01:00:00Z" (1206838800) transition_time 0x1d0-0x1d3.7 (4)
0x1d0|            49 03 c1 10                        |    I...        |      [106]: "2008-10-26T01:00:00Z" (1224982800) transition_time 0x1d4-0x1d7.7 (4)
0x1d0|                        49 ce c8 10            |        I...    |      [107]: "2009-03-29T01:00:00Z" (1238288400) transition_time 0x1d8-0x1db.7 (4)
0x1d0|                                    4a e3 a3 10|            J...|      [108]: "2009-10-25T01:00:00Z" (1256432400) transition_time 0x1dc-0x1df.7 (4)
0x1e0|4b ae aa 10                                    |K...            |      [109]: "2010-03-28T01:00:00Z" (1269738000) transition_time 0x1e0-0x1e3.7 (4)
0x1e0|            4c cc bf 90                        |    L...        |      [110]: "2010-10-31T01:00:00Z" (1288486800) transition_time 0x1e4-0x1e7.7 (4)
0x1e0|                        4d 8e 8c 10            |        M...    |      [111]: "2011-03-27T01:00:00Z" (1301187600) transition_time 0x1e8-0x1eb.7 (4)
0x1e0|                                    4e ac a1 90|            N...|      [112]: "2011-10-30T01:00:00Z" (1319936400) transition_time 0x1ec-0x1ef.7 (4)
0x1f0|4f 6e 6e 10                                    |Onn.            |      [113]: "2012-03-25T01:00:00Z" (1332637200) transition_time 0x1f0-0x1f3.7 (4)
0x1f0|            50 8c 83 90                        |    P...        |      [114]: "2012-10-28T01:00:00Z" (1351386000) transition_time 0x1f4-0x1f7.7 (4)
0x1f0|                        51 57 8a 90            |        QW..    |      [115]: "2013-03-31T01:00:00Z" (1364691600) transition_time 0x1f8-0x1fb.7 (4)
0x1f0|                                    52 6c 65 90|            Rle.|      [116]: "2013-10-27T01:00:00Z" (1382835600) transition_time 0x1fc-0x1ff.7 (4)
0x200|53 37 6c 90                                    |S7l.            |      [117]: "2014-03-30T01:00:00Z" (1396141200) transition_time 0x200-0x203.7 (4)
0x200|            54 4c 47 90                        |    TLG.        |      [118]: "2014-10-26T01:00:00Z" (1414285200) transition_time 0x204-0x207.7 (4)
0x200|                        55 17 4e 90            |        U.N.    |      [119]: "2015-03-29T01:00:00Z" (1427590800) transition_time 0x208-0x20b.7 (4)
0x200|                                    56 2c 29 90|            V,).|      [120]: "2015-10-25T01:00:00Z" (1445734800) transition_time 0x20c-0x20f.7 (4)
0x210|56 f7 30 90                                    |V.0.            |      [121]: "2016-03-27T01:00:00Z" (1459040400) transition_time 0x210-0x213.7 (4)
0x210|            58 15 46 10                        |    X.F.        |      [122]: "2016-10-30T01:00:00Z" (1477789200) transition_time 0x214-0x217.7 (4)
0x210|                        58 d7 12 90            |        X...    |      [123]: "2017-03-26T01:00:00Z" (1490490000) transition_time 0x218-0x21b.7 (4)
0x210|                                    59 f5 28 10|            Y.(.|      [124]: "2017-10-29T01:00:00Z" (1509238800) transition_time 0x21c-0x21f.7 (4)
0x220|5a b6 f4 90                                    |Z...            |      [125]: "2018-03-25T01:00:00Z" (1521939600) transition_time 0x220-0x223.7 (4)
0x220|            5b d5 0a 10                        |    [...        |      [126]: "2018-10-28T01:00:00Z" (1540688400) transition_time 0x224-0x227.7 (4)
0x220|                        5c a0 11 10            |        \...    |      [127]: "2019-03-31T01:00:00Z" (1553994000) transition_time 0x228-0x22b.7 (4)
0x220|                                    5d b4 ec 10|            ]...|      [128]: "2019-10-27T01:00:00Z" (1572138000) transition_time 0x22c-0x22f.7 (4)
0x230|5e 7f f3 10                                    |^...            |      [129]: "2020-03-29T01:00:00Z" (1585443600) transition_time 0x230-0x233.7 (4)
0x230|            5f 94 ce 10                        |    _...        |      [130]: "2020-10-25T01:00:00Z" (1603587600) transition_time 0x234-0x237.7 (4)
0x230|                        60 5f d5 10            |        `_..    |      [131]: "2021-03-28T01:00:00Z" (1616893200) transition_time 0x238-0x23b.7 (4)
0x230|                                    61 7d ea 90|            a}..|      [132]: "2021-10-31T01:00:00Z" (1635642000) transition_time 0x23c-0x23f.7 (4)
0x240|62 3f b7 10                                    |b?..            |      [133]: "2022-03-27T01:00:00Z" (1648342800) transition_time 0x240-0x243.7 (4)
0x240|            63 5d cc 90                        |    c]..        |      [134]: "2022-10-30T01:00:00Z" (1667091600) transition_time 0x244-0x247.7 (4)
0x240|                        64 1f 99 10            |        d...    |      [135]: "2023-03-26T01:00:00Z" (1679792400) transition_time 0x248-0x24b.7 (4)
0x240|                                    65 3d ae 90|            e=..|      [136]: "2023-10-29T01:00:00Z" (1698541200) transition_time 0x24c-0x24f.7 (4)
0x250|66 08 b5 90                                    |f...            |      [137]: "2024-03-31T01:00:00Z" (1711846800) transition_time 0x250-0x253.7 (4)
0x250|            67 1d 90 90                        |    g...        |      [138]: "2024-10-27T01:00:00Z" (1729990800) transition_time 0x254-0x257.7 (4)
0x250|                        67 e8 97 90            |        g...    |      [139]: "2025-03-30T01:00:00Z" (1743296400) transition_time 0x258-0x25b.7 (4)
0x250|                                    68 fd 72 90|            h.r.|      [140]: "2025-10-26T01:00:00Z" (1761440400) transition_time 0x25c-0x25f.7 (4)
0x260|69 c8 79 90                                    |i.y.            |      [141]: "2026-03-29T01:00:00Z" (1774746000) transition_time 0x260-0x263.7 (4)
0x260|            6a dd 54 90                        |    j.T.        |      [142]: "2026-10-25T01:00:00Z" (1792890000) transition_time 0x264-0x267.7 (4)
0x260|                        6b a8 5b 90            |        k.[.    |      [143]: "2027-03-28T01:00:00Z" (1806195600) transition_time 0x268-0x26b.7 (4)
0x260|                                    6c c6 71 10|            l.q.|      [144]: "2027-10-31T01:00:00Z" (1824944400) transition_time 0x26c-0x26f.7 (4)
0x270|6d 88 3d 90                                    |m.=.            |      [145]: "2028-03-26T01:00:00Z" (1837645200) transition_time 0x270-0x273.7 (4)
0x270|            6e a6 53 10                        |    n.S.        |      [146]: "2028-10-29T01:00:00Z" (1856394000) transition_time 0x274-0x277.7 (4)
0x270|                        6f 68 1f 90            |        oh..    |      [147]: "2029-03-25T01:00:00Z" (1869094800) transition_time 0x278-0x27b.7 (4)
0x270|                                    70 86 35 10|            p.5.|      [148]: "2029-10-28T01:00:00Z" (1887843600) transition_time 0x27c-0x27f.7 (4)
0x280|71 51 3c 10                                    |qQ<.            |      [149]: "2030-03-31T01:00:00Z" (1901149200) transition_time 0x280-0x283.7 (4)
0x280|            72 66 17 10                        |    rf..        |      [150]: "2030-10-27T01:00:00Z" (1919293200) transition_time 0x284-0x287.7 (4)
0x280|                        73 31 1e 10            |        s1..    |      [151]: "2031-03-30T01:00:00Z" (1932598800) transition_time 0x288-0x28b.7 (4)
0x280|                                    74 45 f9 10|            tE..|      [152]: "2031-10-26T01:00:00Z" (1950742800) transition_time 0x28c-0x28f.7 (4)
0x290|75 11 00 10                                    |u...            |      [153]: "2032-03-28T01:00:00Z" (1964048400) transition_time 0x290-0x293.7 (4)
0x290|            76 2f 15 90                        |    v/..        |      [154]: "2032-10-31T01:00:00Z" (1982797200) transition_time 0x294-0x297.7 (4)
0x290|                        76 f0 e2 10            |        v...    |      [155]: "2033-03-27T01:00:00Z" (1995498000) transition_time 0x298-0x29b.7 (4)
0x290|                                    78 0e f7 90|            x...|      [156]: "2033-10-30T01:00:00Z" (2014246800) transition_time 0x29c-0x29f.7 (4)
0x2a0|78 d0 c4 10                                    |x...            |      [157]: "2034-03-26T01:00:00Z" (2026947600) transition_time 0x2a0-0x2a3.7 (4)
0x2a0|            79 ee d9 90                        |    y...        |      [158]: "2034-10-29T01:00:00Z" (2045696400) transition_time 0x2a4-0x2a7.7 (4)
0x2a0|                        7a b0 a6 10            |        z...    |      [159]: "2035-03-25T01:00:00Z" (2058397200) transition_time 0x2a8-0x2ab.7 (4)
0x2a0|                                    7b ce bb 90|            {...|      [160]: "2035-10-28T01:00:00Z" (2077146000) transition_time 0x2ac-0x2af.7 (4)
0x2b0|7c 99 c2 90                                    ||...            |      [161]: "2036-03-30T01:00:00Z" (2090451600) transition_time 0x2b0-0x2b3.7 (4)
0x2b0|            7d ae 9d 90                        |    }...        |      [162]: "2036-10-26T01:00:00Z" (2108595600) transition_time 0x2b4-0x2b7.7 (4)
0x2b0|                        7e 79 a4 90            |        ~y..    |      [163]: "2037-03-29T01:00:00Z" (2121901200) transition_time 0x2b8-0x2bb.7 (4)
0x2b0|                                    7f 8e 7f 90|            ....|      [164]: "2037-10-25T01:00:00Z" (2140045200) transition_time 0x2bc-0x2bf.7 (4)
     |                                               |                |    transition_types[0:165]: 0x2c0-0x364.7 (165)
0x2c0|01                                             |.               |      [0]: 1 transition_type 0x2c0-0x2c0.7 (1)
0x2c0|   03                                          | .              |      [1]: 3 transition_type 0x2c1-0x2c1.7 (1)
0x2c0|      02                                       |  .             |      [2]: 2 transition_type 0x2c2-0x2c2.7 (1)
0x2c0|         03                                    |   .            |      [3]: 3 transition_type 0x2c3-0x2c3.7 (1)
0x2c0|            04                                 |    .           |      [4]: 4 transition_type 0x2c4-0x2c4.7 (1)
0x2c0|               05                              |     .          |      [5]: 5 transition_type 0x2c5-0x2c5.7 (1)
0x2c0|                  04                           |      .         |      [6]: 4 transition_type 0x2c6-0x2c6.7 (1)
0x2c0|                     08                        |       .        |      [7]: 8 transition_type 0x2c7-0x2c7.7 (1)
0x2c0|                        06                     |        .       |      [8]: 6 transition_type 0x2c8-0x2c8.7 (1)
0x2c0|                           07                  |         .      |      [9]: 7 transition_type 0x2c9-0x2c9.7 (1)
0x2c0|                              03               |          .     |      [10]: 3 transition_type 0x2ca-0x2ca.7 (1)
0x2c0|                                 02            |           .    |      [11]: 2 transition_type 0x2cb-0x2cb.7 (1)
0x2c0|                                    05         |            .   |      [12]: 5 transition_type 0x2cc-0x2cc.7 (1)
0x2c0|                                       04      |             .  |      [13]: 4 transition_type 0x2cd-0x2cd.7 (1)
0x2c0|                                          05   |              . |      [14]: 5 transition_type 0x2ce-0x2ce.7 (1)
0x2c0|                                             04|               .|      [15]: 4 transition_type 0x2cf-0x2cf.7 (1)
0x2d0|03                                             |.               |      [16]: 3 transition_type 0x2d0-0x2d0.7 (1)
0x2d0|   02                                          | .              |      [17]: 2 transition_type 0x2d1-0x2d1.7 (1)
0x2d0|      03                                       |  .             |      [18]: 3 transition_type 0x2d2-0x2d2.7 (1)
0x2d0|         04                                    |   .            |      [19]: 4 transition_type 0x2d3-0x2d3.7 (1)
0x2d0|            05                                 |    .           |      [20]: 5 transition_type 0x2d4-0x2d4.7 (1)
0x2d0|               04                              |     .          |      [21]: 4 transition_type 0x2d5-0x2d5.7 (1)
0x2d0|                  05                           |      .         |      [22]: 5 transition_type 0x2d6-0x2d6.7 (1)
0x2d0|                     04                        |       .        |      [23]: 4 transition_type 0x2d7-0x2d7.7 (1)
0x2d0|                        05                     |        .       |      [24]: 5 transition_type 0x2d8-0x2d8.7 (1)
0x2d0|                           04                  |         .      |      [25]: 4 transition_type 0x2d9-0x2d9.7 (1)
0x2d0|                              05               |          .     |      [26]: 5 transition_type 0x2da-0x2da.7 (1)
0x2d0|                                 04            |           .    |      [27]: 4 transition_type 0x2db-0x2db.7 (1)
0x2d0|                                    05         |            .   |      [28]: 5 transition_type 0x2dc-0x2dc.7 (1)
0x2d0|                                       04      |             .  |      [29]: 4 transition_type 0x2dd-0x2dd.7 (1)
0x2d0|                                          05   |              . |      [30]: 5 transition_type 0x2de-0x2de.7 (1)
0x2d0|                                             04|               .|      [31]: 4 transition_type 0x2df-0x2df.7 (1)
0x2e0|05                                             |.               |      [32]: 5 transition_type 0x2e0-0x2e0.7 (1)
0x2e0|   04                                          | .              |      [33]: 4 transition_type 0x2e1-0x2e1.7 (1)
0x2e0|      05                                       |  .             |      [34]: 5 transition_type 0x2e2-0x2e2.7 (1)
0x2e0|         04                                    |   .            |      [35]: 4 transition_type 0x2e3-0x2e3.7 (1)
0x2e0|            05                                 |    .           |      [36]: 5 transition_type 0x2e4-0x2e4.7 (1)
0x2e0|               04                              |     .          |      [37]: 4 transition_type 0x2e5-0x2e5.7 (1)
0x2e0|                  05                           |      .         |      [38]: 5 transition_type 0x2e6-0x2e6.7 (1)
0x2e0|                     04                        |       .        |      [39]: 4 transition_type 0x2e7-0x2e7.7 (1)
0x2e0|                        05                     |        .       |      [40]: 5 transition_type 0x2e8-0x2e8.7 (1)
0x2e0|                           04                  |         .      |      [41]: 4 transition_type 0x2e9-0x2e9.7 (1)
0x2e0|                              05               |          .     |      [42]: 5 transition_type 0x2ea-0x2ea.7 (1)
0x2e0|                                 04            |           .    |      [43]: 4 transition_type 0x2eb-0x2eb.7 (1)
0x2e0|                                    05         |            .   |      [44]: 5 transition_type 0x2ec-0x2ec.7 (1)
0x2e0|                                       04      |             .  |      [45]: 4 transition_type 0x2ed-0x2ed.7 (1)
0x2e0|                                          05   |              . |      [46]: 5 transition_type 0x2ee-0x2ee.7 (1)
0x2e0|                                             04|               .|      [47]: 4 transition_type 0x2ef-0x2ef.7 (1)
0x2f0|05                                             |.               |      [48]: 5 transition_type 0x2f0-0x2f0.7 (1)
0x2f0|   04                                          | .              |      [49]: 4 transition_type 0x2f1-0x2f1.7 (1)
0x2f0|      05                                       |  .             |      [50]: 5 transition_type 0x2f2-0x2f2.7 (1)
0x2f0|         04                                    |   .            |      [51]: 4 transition_type 0x2f3-0x2f3.7 (1)
0x2f0|            05                                 |    .           |      [52]: 5 transition_type 0x2f4-0x2f4.7 (1)
0x2f0|               04                              |     .          |      [53]: 4 transition_type 0x2f5-0x2f5.7 (1)
0x2f0|                  05                           |      .         |      [54]: 5 transition_type 0x2f6-0x2f6.7 (1)
0x2f0|                     04                        |       .        |      [55]: 4 transition_type 0x2f7-0x2f7.7 (1)
0x2f0|                        05                     |        .       |      [56]: 5 transition_type 0x2f8-0x2f8.7 (1)
0x2f0|                           04                  |         .      |      [57]: 4 transition_type 0x2f9-0x2f9.7 (1)
0x2f0|                              05               |          .     |      [58]: 5 transition_type 0x2fa-0x2fa.7 (1)
0x2f0|                                 04            |           .    |      [59]: 4 transition_type 0x2fb-0x2fb.7 (1)
0x2f0|                                    05         |            .   |      [60]: 5 transition_type 0x2fc-0x2fc.7 (1)
0x2f0|                                       04      |             .  |      [61]: 4 transition_type 0x2fd-0x2fd.7 (1)
0x2f0|                                          05   |              . |      [62]: 5 transition_type 0x2fe-0x2fe.7 (1)
0x2f0|                                             04|               .|      [63]: 4 transition_type 0x2ff-0x2ff.7 (1)
0x300|05                                             |.               |      [64]: 5 transition_type 0x300-0x300.7 (1)
0x300|   09                                          | .              |      [65]: 9 transition_type 0x301-0x301.7 (1)
0x300|      0a                                       |  .             |      [66]: 10 transition_type 0x302-0x302.7 (1)
0x300|         09                                    |   .            |      [67]: 9 transition_type 0x303-0x303.7 (1)
0x300|            0a                                 |    .           |      [68]: 10 transition_type 0x304-0x304.7 (1)
0x300|               09                              |     .          |      [69]: 9 transition_type 0x305-0x305.7 (1)
0x300|                  0a                           |      .         |      [70]: 10 transition_type 0x306-0x306.7 (1)
0x300|                     09                        |       .        |      [71]: 9 transition_type 0x307-0x307.7 (1)
0x300|                        0a                     |        .       |      [72]: 10 transition_type 0x308-0x308.7 (1)
0x300|                           09                  |         .      |      [73]: 9 transition_type 0x309-0x309.7 (1)
0x300|                              0a               |          .     |      [74]: 10 transition_type 0x30a-0x30a.7 (1)
0x300|                                 09            |           .    |      [75]: 9 transition_type 0x30b-0x30b.7 (1)
0x300|                                    0a         |            .   |      [76]: 10 transition_type 0x30c-0x30c.7 (1)
0x300|                                       09      |             .  |      [77]: 9 transition_type 0x30d-0x30d.7 (1)
0x300|                                          0a   |              . |      [78]: 10 transition_type 0x30e-0x30e.7 (1)
0x300|                                             09|               .|      [79]: 9 transition_type 0x30f-0x30f.7 (1)
0x310|0a                                             |.               |      [80]: 10 transition_type 0x310-0x310.7 (1)
0x310|   09                                          | .              |      [81]: 9 transition_type 0x311-0x311.7 (1)
0x310|      0a                                       |  .             |      [82]: 10 transition_type 0x312-0x312.7 (1)
0x310|         09                                    |   .            |      [83]: 9 transition_type 0x313-0x313.7 (1)
0x310|            0a                                 |    .           |      [84]: 10 transition_type 0x314-0x314.7 (1)
0x310|               09                              |     .          |      [85]: 9 transition_type 0x315-0x315.7 (1)
0x310|                  0a                           |      .         |      [86]: 10 transition_type 0x316-0x316.7 (1)
0x310|                     09                        |       .        |      [87]: 9 transition_type 0x317-0x317.7 (1)
0x310|                        0a                     |        .       |      [88]: 10 transition_type 0x318-0x318.7 (1)
0x310|                           09                  |         .      |      [89]: 9 transition_type 0x319-0x319.7 (1)
0x310|                              0a               |          .     |      [90]: 10 transition_type 0x31a-0x31a.7 (1)
0x310|                                 09            |           .    |      [91]: 9 transition_type 0x31b-0x31b.7 (1)
0x310|                                    0a         |            .   |      [92]: 10 transition_type 0x31c-0x31c.7 (1)
0x310|                                       09      |             .  |      [93]: 9 transition_type 0x31d-0x31d.7 (1)
0x310|                                          0a   |              . |      [94]: 10 transition_type 0x31e-0x31e.7 (1)
0x310|                                             09|               .|      [95]: 9 transition_type 0x31f-0x31f.7 (1)
0x320|0a                                             |.               |      [96]: 10 transition_type 0x320-0x320.7 (1)
0x320|   09                                          | .              |      [97]: 9 transition_type 0x321-0x321.7 (1)
0x320|      0a                                       |  .             |      [98]: 10 transition_type 0x322-0x322.7 (1)
0x320|         09                                    |   .            |      [99]: 9 transition_type 0x323-0x323.7 (1)
0x320|            0a                                 |    .           |      [100]: 10 transition_type 0x324-0x324.7 (1)
0x320|               09                              |     .          |      [101]: 9 transition_type 0x325-0x325.7 (1)
0x320|                  0a                           |      .         |      [102]: 10 transition_type 0x326-0x326.7 (1)
0x320|                     09                        |       .        |      [103]: 9 transition_type 0x327-0x327.7 (1)
0x320|                        0a                     |        .       |      [104]: 10 transition_type 0x328-0x328.7 (1)
0x320|                           09                  |         .      |      [105]: 9 transition_type 0x329-0x329.7 (1)
0x320|                              0a               |          .     |      [106]: 10 transition_type 0x32a-0x32a.7 (1)
0x320|                                 09            |           .    |      [107]: 9 transition_type 0x32b-0x32b.7 (1)
0x320|                                    0a         |            .   |      [108]: 10 transition_type 0x32c-0x32c.7 (1)
0x320|                                       09      |             .  |      [109]: 9 transition_type 0x32d-0x32d.7 (1)
0x320|                                          0a   |              . |      [110]: 10 transition_type 0x32e-0x32e.7 (1)
0x320|                                             09|               .|      [111]: 9 transition_type 0x32f-0x32f.7 (1)
0x330|0a                                             |.               |      [112]: 10 transition_type 0x330-0x330.7 (1)
0x330|   09                                          | .              |      [113]: 9 transition_type 0x331-0x331.7 (1)
0x330|      0a                                       |  .             |      [114]: 10 transition_type 0x332-0x332.7 (1)
0x330|         09                                    |   .            |      [115]: 9 transition_type 0x333-0x333.7 (1)
0x330|            0a                                 |    .           |      [116]: 10 transition_type 0x334-0x334.7 (1)
0x330|               09                              |     .          |      [117]: 9 transition_type 0x335-0x335.7 (1)
0x330|                  0a                           |      .         |      [118]: 10 transition_type 0x336-0x336.7 (1)
0x330|                     09                        |       .        |      [119]: 9 transition_type 0x337-0x337.7 (1)
0x330|                        0a                     |        .       |      [120]: 10 transition_type 0x338-0x338.7 (1)
0x330|                           09                  |         .      |      [121]: 9 transition_type 0x339-0x339.7 (1)
0x330|                              0a               |          .     |      [122]: 10 transition_type 0x33a-0x33a.7 (1)
0x330|                                 09            |           .    |      [123]: 9 transition_type 0x33b-0x33b.7 (1)
0x330|                                    0a         |            .   |      [124]: 10 transition_type 0x33c-0x33c.7 (1)
0x330|                                       09      |             .  |      [125]: 9 transition_type 0x33d-0x33d.7 (1)
0x330|                                          0a   |              . |      [126]: 10 transition_type 0x33e-0x33e.7 (1)
0x330|                                             09|               .|      [127]: 9 transition_type 0x33f-0x33f.7 (1)
0x340|0a                                             |.               |      [128]: 10 transition_type 0x340-0x340.7 (1)
0x340|   09                                          | .              |      [129]: 9 transition_type 0x341-0x341.7 (1)
0x340|      0a                                       |  .             |      [130]: 10 transition_type 0x342-0x342.7 (1)
0x340|         09                                    |   .            |      [131]: 9 transition_type 0x343-0x343.7 (1)
0x340|            0a                                 |    .           |      [132]: 10 transition_type 0x344-0x344.7 (1)
0x340|               09                              |     .          |      [133]: 9 transition_type 0x345-0x345.7 (1)
0x340|                  0a                           |      .         |      [134]: 10 transition_type 0x346-0x346.7 (1)
0x340|                     09                        |       .        |      [135]: 9 transition_type 0x347-0x347.7 (1)
0x340|                        0a                     |        .       |      [136]: 10 transition_type 0x348-0x348.7 (1)
0x340|                           09                  |         .      |      [137]: 9 transition_type 0x349-0x349.7 (1)
0x340|                              0a               |          .     |      [138]: 10 transition_type 0x34a-0x34a.7 (1)
0x340|                                 09            |           .    |      [139]: 9 transition_type 0x34b-0x34b.7 (1)
0x340|                                    0a         |            .   |      [140]: 10 transition_type 0x34c-0x34c.7 (1)
0x340|                                       09      |             .  |      [141]: 9 transition_type 0x34d-0x34d.7 (1)
0x340|                                          0a   |              . |      [142]: 10 transition_type 0x34e-0x34e.7 (1)
0x340|                                             09|               .|      [143]: 9 transition_type 0x34f-0x34f.7 (1)
0x350|0a                                             |.               |      [144]: 10 transition_type 0x350-0x350.7 (1)
0x350|   09                                          | .              |      [145]: 9 transition_type 0x351-0x351.7 (1)
0x350|      0a                                       |  .             |      [146]: 10 transition_type 0x352-0x352.7 (1)
0x350|         09                                    |   .            |      [147]: 9 transition_type 0x353-0x353.7 (1)
0x350|            0a                                 |    .           |      [148]: 10 transition_type 0x354-0x354.7 (1)
0x350|               09                              |     .          |      [149]: 9 transition_type 0x355-0x355.7 (1)
0x350|                  0a                           |      .         |      [150]: 10 transition_type 0x356-0x356.7 (1)
0x350|                     09                        |       .        |      [151]: 9 transition_type 0x357-0x357.7 (1)
0x350|                        0a                     |        .       |      [152]: 10 transition_type 0x358-0x358.7 (1)
0x350|                           09                  |         .      |      [153]: 9 transition_type 0x359-0x359.7 (1)
0x350|                              0a               |          .     |      [154]: 10 transition_type 0x35a-0x35a.7 (1)
0x350|                                 09            |           .    |      [155]: 9 transition_type 0x35b-0x35b.7 (1)
0x350|                                    0a         |            .   |      [156]: 10 transition_type 0x35c-0x35c.7 (1)
0x350|                                       09      |             .  |      [157]: 9 transition_type 0x35d-0x35d.7 (1)
0x350|                                          0a   |              . |      [158]: 10 transition_type 0x35e-0x35e.7 (1)
0x350|                                             09|               .|      [159]: 9 transition_type 0x35f-0x35f.7 (1)
0x360|0a                                             |.               |      [160]: 10 transition_type 0x360-0x360.7 (1)
0x360|   09                                          | .              |      [161]: 9 transition_type 0x361-0x361.7 (1)
0x360|      0a                                       |  .             |      [162]: 10 transition_type 0x362-0x362.7 (1)
0x360|         09                                    |   .            |      [163]: 9 transition_type 0x363-0x363.7 (1)
0x360|            0a                                 |    .           |      [164]: 10 transition_type 0x364-0x364.7 (1)
     |                                               |                |    local_time_type_records[0:11]: 0x365-0x3a6.7 (66)
     |                                               |                |      [0]{}: local_time_type 0x365-0x36a.7 (6)
0x360|               00 00 13 b0                     |     ....       |        utoff: 5040 (valid) 0x365-0x368.7 (4)
0x360|                           00                  |         .      |        dst: 0 (valid) 0x369-0x369.7 (1)
0x360|                              00               |          .     |        idx: 0 (valid) 0x36a-0x36a.7 (1)
     |                                               |                |      [1]{}: local_time_type 0x36b-0x370.7 (6)
0x360|                                 00 00 13 b0   |           .... |        utoff: 5040 (valid) 0x36b-0x36e.7 (4)
0x360|                                             00|               .|        dst: 0 (valid) 0x36f-0x36f.7 (1)
0x370|04                                             |.               |        idx: 4 (valid) 0x370-0x370.7 (1)
     |                                               |                |      [2]{}: local_time_type 0x371-0x376.7 (6)
0x370|   00 00 1c 20                                 | ...            |        utoff: 7200 (valid) 0x371-0x374.7 (4)
0x370|               01                              |     .          |        dst: 1 (valid) 0x375-0x375.7 (1)
0x370|                  08                           |      .         |        idx: 8 (valid) 0x376-0x376.7 (1)
     |                                               |                |      [3]{}: local_time_type 0x377-0x37c.7 (6)
0x370|                     00 00 0e 10               |       ....     |        utoff: 3600 (valid) 0x377-0x37a.7 (4)
0x370|                                 00            |           .    |        dst: 0 (valid) 0x37b-0x37b.7 (1)
0x370|                                    0d         |            .   |        idx: 13 (valid) 0x37c-0x37c.7 (1)
     |                                               |                |      [4]{}: local_time_type 0x37d-0x382.7 (6)
0x370|                                       00 00 1c|             ...|        utoff: 7200 (valid) 0x37d-0x380.7 (4)
0x380|20                                             |                |
0x380|   01                                          | .              |        dst: 1 (valid) 0x381-0x381.7 (1)
0x380|      08                                       |  .             |        idx: 8 (valid) 0x382-0x382.7 (1)
     |                                               |                |      [5]{}: local_time_type 0x383-0x388.7 (6)
0x380|         00 00 0e 10                           |   ....         |        utoff: 3600 (valid) 0x383-0x386.7 (4)
0x380|                     00                        |       .        |        dst: 0 (valid) 0x387-0x387.7 (1)
0x380|                        0d                     |        .       |        idx: 13 (valid) 0x388-0x388.7 (1)
     |                                               |                |      [6]{}: local_time_type 0x389-0x38e.7 (6)
0x380|                           00 00 2a 30         |         ..*0   |        utoff: 10800 (valid) 0x389-0x38c.7 (4)
0x380|                                       01      |             .  |        dst: 1 (valid) 0x38d-0x38d.7 (1)
0x380|                                          11   |              . |        idx: 17 (valid) 0x38e-0x38e.7 (1)
     |                                               |                |      [7]{}: local_time_type 0x38f-0x394.7 (6)
0x380|                                             00|               .|        utoff: 7200 (valid) 0x38f-0x392.7 (4)
0x390|00 1c 20                                       |..              |
0x390|         00                                    |   .            |        dst: 0 (valid) 0x393-0x393.7 (1)
0x390|            16                                 |    .           |        idx: 22 (valid) 0x394-0x394.7 (1)
     |                                               |                |      [8]{}: local_time_type 0x395-0x39a.7 (6)
0x390|               00 00 1c 20                     |     ...        |        utoff: 7200 (valid) 0x395-0x398.7 (4)
0x390|                           00                  |         .      |        dst: 0 (valid) 0x399-0x399.7 (1)
0x390|                              16               |          .     |        idx: 22 (valid) 0x39a-0x39a.7 (1)
     |                                               |                |      [9]{}: local_time_type 0x39b-0x3a0.7 (6)
0x390|                                 00 00 1c 20   |           ...  |        utoff: 7200 (valid) 0x39b-0x39e.7 (4)
0x390|                                             01|               .|        dst: 1 (valid) 0x39f-0x39f.7 (1)
0x3a0|08                                             |.               |        idx: 8 (valid) 0x3a0-0x3a0.7 (1)
     |                                               |                |      [10]{}: local_time_type 0x3a1-0x3a6.7 (6)
0x3a0|   00 00 0e 10                                 | ....           |        utoff: 3600 (valid) 0x3a1-0x3a4.7 (4)
0x3a0|               00                              |     .          |        dst: 0 (valid) 0x3a5-0x3a5.7 (1)
0x3a0|                  0d                           |      .         |        idx: 13 (valid) 0x3a6-0x3a6.7 (1)
     |                                               |                |    time_zone_designations[0:6]: 0x3a7-0x3c0.7 (26)
0x3a0|                     4c 4d 54 00               |       LMT.     |      [0]: "LMT" time_zone_designation 0x3a7-0x3aa.7 (4)
0x3a0|                                 57 4d 54 00   |           WMT. |      [1]: "WMT" time_zone_designation 0x3ab-0x3ae.7 (4)
0x3a0|                                             43|               C|      [2]: "CEST" time_zone_designation 0x3af-0x3b3.7 (5)
0x3b0|45 53 54 00                                    |EST.            |
0x3b0|            43 45 54 00                        |    CET.        |      [3]: "CET" time_zone_designation 0x3b4-0x3b7.7 (4)
0x3b0|                        45 45 53 54 00         |        EEST.   |      [4]: "EEST" time_zone_designation 0x3b8-0x3bc.7 (5)
0x3b0|                                       45 45 54|             EET|      [5]: "EET" time_zone_designation 0x3bd-0x3c0.7 (4)
0x3c0|00                                             |.               |
     |                                               |                |    leap_second_records[0:0]: 0x3c1-NA (0)
     |                                               |                |    standard_wall_indicators[0:11]: 0x3c1-0x3cb.7 (11)
0x3c0|   00                                          | .              |      [0]: 0 standard_wall_indicator (valid) 0x3c1-0x3c1.7 (1)
0x3c0|      00                                       |  .             |      [1]: 0 standard_wall_indicator (valid) 0x3c2-0x3c2.7 (1)
0x3c0|         00                                    |   .            |      [2]: 0 standard_wall_indicator (valid) 0x3c3-0x3c3.7 (1)
0x3c0|            00                                 |    .           |      [3]: 0 standard_wall_indicator (valid) 0x3c4-0x3c4.7 (1)
0x3c0|               01                              |     .          |      [4]: 1 standard_wall_indicator (valid) 0x3c5-0x3c5.7 (1)
0x3c0|                  01                           |      .         |      [5]: 1 standard_wall_indicator (valid) 0x3c6-0x3c6.7 (1)
0x3c0|                     01                        |       .        |      [6]: 1 standard_wall_indicator (valid) 0x3c7-0x3c7.7 (1)
0x3c0|                        01                     |        .       |      [7]: 1 standard_wall_indicator (valid) 0x3c8-0x3c8.7 (1)
0x3c0|                           00                  |         .      |      [8]: 0 standard_wall_indicator (valid) 0x3c9-0x3c9.7 (1)
0x3c0|                              01               |          .     |      [9]: 1 standard_wall_indicator (valid) 0x3ca-0x3ca.7 (1)
0x3c0|                                 01            |           .    |      [10]: 1 standard_wall_indicator (valid) 0x3cb-0x3cb.7 (1)
     |                                               |                |    ut_local_indicators[0:11]: 0x3cc-0x3d6.7 (11)
0x3c0|                                    00         |            .   |      [0]: 0 ut_local_indicator (valid) 0x3cc-0x3cc.7 (1)
0x3c0|                                       00      |             .  |      [1]: 0 ut_local_indicator (valid) 0x3cd-0x3cd.7 (1)
0x3c0|                                          00   |              . |      [2]: 0 ut_local_indicator (valid) 0x3ce-0x3ce.7 (1)
0x3c0|                                             00|               .|      [3]: 0 ut_local_indicator (valid) 0x3cf-0x3cf.7 (1)
0x3d0|00                                             |.               |      [4]: 0 ut_local_indicator (valid) 0x3d0-0x3d0.7 (1)
0x3d0|   00                                          | .              |      [5]: 0 ut_local_indicator (valid) 0x3d1-0x3d1.7 (1)
0x3d0|      00                                       |  .             |      [6]: 0 ut_local_indicator (valid) 0x3d2-0x3d2.7 (1)
0x3d0|         00                                    |   .            |      [7]: 0 ut_local_indicator (valid) 0x3d3-0x3d3.7 (1)
0x3d0|            00                                 |    .           |      [8]: 0 ut_local_indicator (valid) 0x3d4-0x3d4.7 (1)
0x3d0|               01                              |     .          |      [9]: 1 ut_local_indicator (valid) 0x3d5-0x3d5.7 (1)
0x3d0|                  01                           |      .         |      [10]: 1 ut_local_indicator (valid) 0x3d6-0x3d6.7 (1)
     |                                               |                |  v2plusheader{}: 0x3d7-0x402.7 (44)
0x3d0|                     54 5a 69 66               |       TZif     |    magic: 0x545a6966 (valid) 0x3d7-0x3da.7 (4)
0x3d0|                                 32            |           2    |    ver: "2" (0x32) (valid) 0x3db-0x3db.7 (1)
0x3d0|                                    00 00 00 00|            ....|    reserved: raw bits 0x3dc-0x3ea.7 (15)
0x3e0|00 00 00 00 00 00 00 00 00 00 00               |...........     |
0x3e0|                                 00 00 00 0b   |           .... |    isutcnt: 11 0x3eb-0x3ee.7 (4)
0x3e0|                                             00|               .|    isstdcnt: 11 0x3ef-0x3f2.7 (4)
0x3f0|00 00 0b                                       |...             |
0x3f0|         00 00 00 00                           |   ....         |    leapcnt: 0 0x3f3-0x3f6.7 (4)
0x3f0|                     00 00 00 a5               |       ....     |    timecnt: 165 0x3f7-0x3fa.7 (4)
0x3f0|                                 00 00 00 0b   |           .... |    typecnt: 11 0x3fb-0x3fe.7 (4)
0x3f0|                                             00|               .|    charcnt: 26 0x3ff-0x402.7 (4)
0x400|00 00 1a                                       |...             |
     |                                               |                |  v2plusdatablock{}: 0x403-0xa41.7 (1599)
     |                                               |                |    transition_times[0:165]: 0x403-0x92a.7 (1320)
0x400|         ff ff ff ff 56 b6 d0 50               |   ....V..P     |      [0]: "1879-12-31T22:36:00Z" (-2840145840) transition_time 0x403-0x40a.7 (8)
0x400|                                 ff ff ff ff 99|           .....|      [1]: "1915-08-04T22:36:00Z" (-1717032240) transition_time 0x40b-0x412.7 (8)
0x410|a8 2a d0                                       |.*.             |
0x410|         ff ff ff ff 9b 0c 17 60               |   .......`     |      [2]: "1916-04-30T22:00:00Z" (-1693706400) transition_time 0x413-0x41a.7 (8)
0x410|                                 ff ff ff ff 9b|           .....|      [3]: "1916-09-30T23:00:00Z" (-1680483600) transition_time 0x41b-0x422.7 (8)
0x420|d5 da f0                                       |...             |
0x420|         ff ff ff ff 9c d9 ae 90               |   ........     |      [4]: "1917-04-16T01:00:00Z" (-1663455600) transition_time 0x423-0x42a.7 (8)
0x420|                                 ff ff ff ff 9d|           .....|      [5]: "1917-09-17T01:00:00Z" (-1650150000) transition_time 0x42b-0x432.7 (8)
0x430|a4 b5 90                                       |...             |
0x430|         ff ff ff ff 9e b9 90 90               |   ........     |      [6]: "1918-04-15T01:00:00Z" (-1632006000) transition_time 0x433-0x43a.7 (8)
0x430|                                 ff ff ff ff 9f|           .....|      [7]: "1918-09-16T01:00:00Z" (-1618700400) transition_time 0x43b-0x442.7 (8)
0x440|84 97 90                                       |...             |
0x440|         ff ff ff ff a0 9a b6 00               |   ........     |      [8]: "1919-04-15T00:00:00Z" (-1600473600) transition_time 0x443-0x44a.7 (8)
0x440|                                 ff ff ff ff a1|           .....|      [9]: "1919-09-16T00:00:00Z" (-1587168000) transition_time 0x44b-0x452.7 (8)
0x450|65 bd 00                                       |e..             |
0x450|         ff ff ff ff a6 7d 7c 60               |   .....}|`     |      [10]: "1922-05-31T22:00:00Z" (-1501725600) transition_time 0x453-0x45a.7 (8)
0x450|                                 ff ff ff ff c8|           .....|      [11]: "1940-06-23T01:00:00Z" (-931734000) transition_time 0x45b-0x462.7 (8)
0x460|76 de 10                                       |v..             |
0x460|         ff ff ff ff cc e7 4b 10               |   ......K.     |      [12]: "1942-11-02T01:00:00Z" (-857257200) transition_time 0x463-0x46a.7 (8)
0x460|                                 ff ff ff ff cd|           .....|      [13]: "1943-03-29T01:00:00Z" (-844556400) transition_time 0x46b-0x472.7 (8)
0x470|a9 17 90                                       |...             |
0x470|         ff ff ff ff ce a2 43 10               |   ......C.     |      [14]: "1943-10-04T01:00:00Z" (-828226800) transition_time 0x473-0x47a.7 (8)
0x470|                                 ff ff ff ff cf|           .....|      [15]: "1944-04-03T01:00:00Z" (-812502000) transition_time 0x47b-0x482.7 (8)
0x480|92 34 10                                       |.4.             |
0x480|         ff ff ff ff d0 84 ba 00               |   ........     |      [16]: "1944-10-04T00:00:00Z" (-796608000) transition_time 0x483-0x48a.7 (8)
0x480|                                 ff ff ff ff d1|           .....|      [17]: "1945-04-28T23:00:00Z" (-778726800) transition_time 0x48b-0x492.7 (8)
0x490|95 92 70                                       |..p             |
0x490|         ff ff ff ff d2 8a bb 60               |   .......`     |      [18]: "1945-10-31T22:00:00Z" (-762660000) transition_time 0x493-0x49a.7 (8)
0x490|                                 ff ff ff ff d3|           .....|      [19]: "1946-04-13T23:00:00Z" (-748486800) transition_time 0x49b-0x4a2.7 (8)
0x4a0|62 ff 70                                       |b.p             |
0x4a0|         ff ff ff ff d4 4b 23 90               |   .....K#.     |      [20]: "1946-10-07T01:00:00Z" (-733273200) transition_time 0x4a3-0x4aa.7 (8)
0x4a0|                                 ff ff ff ff d5|           .....|      [21]: "1947-05-04T01:00:00Z" (-715215600) transition_time 0x4ab-0x4b2.7 (8)
0x4b0|5e ad 10                                       |^..             |
0x4b0|         ff ff ff ff d6 29 b4 10               |   .....)..     |      [22]: "1947-10-05T01:00:00Z" (-701910000) transition_time 0x4b3-0x4ba.7 (8)
0x4b0|                                 ff ff ff ff d7|           .....|      [23]: "1948-04-18T01:00:00Z" (-684975600) transition_time 0x4bb-0x4c2.7 (8)
0x4c0|2c 1a 10                                       |,..             |
0x4c0|         ff ff ff ff d8 09 96 10               |   ........     |      [24]: "1948-10-03T01:00:00Z" (-670460400) transition_time 0x4c3-0x4ca.7 (8)
0x4c0|                                 ff ff ff ff d9|           .....|      [25]: "1949-04-10T01:00:00Z" (-654130800) transition_time 0x4cb-0x4d2.7 (8)
0x4d0|02 c1 90                                       |...             |
0x4d0|         ff ff ff ff d9 e9 78 10               |   ......x.     |      [26]: "1949-10-02T01:00:00Z" (-639010800) transition_time 0x4d3-0x4da.7 (8)
0x4d0|                                 ff ff ff ff e8|           .....|      [27]: "1957-06-02T00:00:00Z" (-397094400) transition_time 0x4db-0x4e2.7 (8)
0x4e0|54 d2 00                                       |T..             |
0x4e0|         ff ff ff ff e8 f1 b4 80               |   ........     |      [28]: "1957-09-29T00:00:00Z" (-386812800) transition_time 0x4e3-0x4ea.7 (8)
0x4e0|                                 ff ff ff ff e9|           .....|      [29]: "1958-03-30T00:00:00Z" (-371088000) transition_time 0x4eb-0x4f2.7 (8)
0x4f0|e1 a5 80                                       |...             |
0x4f0|         ff ff ff ff ea d1 96 80               |   ........     |      [30]: "1958-09-28T00:00:00Z" (-355363200) transition_time 0x4f3-0x4fa.7 (8)
0x4f0|                                 ff ff ff ff ec|           .....|      [31]: "1959-05-31T00:00:00Z" (-334195200) transition_time 0x4fb-0x502.7 (8)
0x500|14 96 00                                       |...             |
0x500|         ff ff ff ff ec ba b3 00               |   ........     |      [32]: "1959-10-04T00:00:00Z" (-323308800) transition_time 0x503-0x50a.7 (8)
0x500|                                 ff ff ff ff ed|           .....|      [33]: "1960-04-03T00:00:00Z" (-307584000) transition_time 0x50b-0x512.7 (8)
0x510|aa a4 00                                       |...             |
0x510|         ff ff ff ff ee 9a 95 00               |   ........     |      [34]: "1960-10-02T00:00:00Z" (-291859200) transition_time 0x513-0x51a.7 (8)
0x510|                                 ff ff ff ff ef|           .....|      [35]: "1961-05-28T00:00:00Z" (-271296000) transition_time 0x51b-0x522.7 (8)
0x520|d4 5a 00                                       |.Z.             |
0x520|         ff ff ff ff f0 7a 77 00               |   .....zw.     |      [36]: "1961-10-01T00:00:00Z" (-260409600) transition_time 0x523-0x52a.7 (8)
0x520|                                 ff ff ff ff f1|           .....|      [37]: "1962-05-27T00:00:00Z" (-239846400) transition_time 0x52b-0x532.7 (8)
0x530|b4 3c 00                                       |.<.             |
0x530|         ff ff ff ff f2 5a 59 00               |   .....ZY.     |      [38]: "1962-09-30T00:00:00Z" (-228960000) transition_time 0x533-0x53a.7 (8)
0x530|                                 ff ff ff ff f3|           .....|      [39]: "1963-05-26T00:00:00Z" (-208396800) transition_time 0x53b-0x542.7 (8)
0x540|94 1e 00                                       |...             |
0x540|         ff ff ff ff f4 3a 3b 00               |   .....:;.     |      [40]: "1963-09-29T00:00:00Z" (-197510400) transition_time 0x543-0x54a.7 (8)
0x540|                                 ff ff ff ff f5|           .....|      [41]: "1964-05-31T00:00:00Z" (-176342400) transition_time 0x54b-0x552.7 (8)
0x550|7d 3a 80                                       |}:.             |
0x550|         ff ff ff ff f6 1a 1d 00               |   ........     |      [42]: "1964-09-27T00:00:00Z" (-166060800) transition_time 0x553-0x55a.7 (8)
0x550|                                 00 00 00 00 0d|           .....|      [43]: "1977-04-03T00:00:00Z" (228873600) transition_time 0x55b-0x562.7 (8)
0x560|a4 55 80                                       |.U.             |
0x560|         00 00 00 00 0e 8b 0c 00               |   ........     |      [44]: "1977-09-25T00:00:00Z" (243993600) transition_time 0x563-0x56a.7 (8)
0x560|                                 00 00 00 00 0f|           .....|      [45]: "1978-04-02T00:00:00Z" (260323200) transition_time 0x56b-0x572.7 (8)
0x570|84 37 80                                       |.7.             |
0x570|         00 00 00 00 10 74 28 80               |   .....t(.     |      [46]: "1978-10-01T00:00:00Z" (276048000) transition_time 0x573-0x57a.7 (8)
0x570|                                 00 00 00 00 11|           .....|      [47]: "1979-04-01T00:00:00Z" (291772800) transition_time 0x57b-0x582.7 (8)
0x580|64 19 80                                       |d..             |
0x580|         00 00 00 00 12 54 0a 80               |   .....T..     |      [48]: "1979-09-30T00:00:00Z" (307497600) transition_time 0x583-0x58a.7 (8)
0x580|                                 00 00 00 00 13|           .....|      [49]: "1980-04-06T00:00:00Z" (323827200) transition_time 0x58b-0x592.7 (8)
0x590|4d 36 00                                       |M6.             |
0x590|         00 00 00 00 14 33 ec 80               |   .....3..     |      [50]: "1980-09-28T00:00:00Z" (338947200) transition_time 0x593-0x59a.7 (8)
0x590|                                 00 00 00 00 15|           .....|      [51]: "1981-03-29T00:00:00Z" (354672000) transition_time 0x59b-0x5a2.7 (8)
0x5a0|23 dd 80                                       |#..             |
0x5a0|         00 00 00 00 16 13 ce 80               |   ........     |      [52]: "1981-09-27T00:00:00Z" (370396800) transition_time 0x5a3-0x5aa.7 (8)
0x5a0|                                 00 00 00 00 17|           .....|      [53]: "1982-03-28T00:00:00Z" (386121600) transition_time 0x5ab-0x5b2.7 (8)
0x5b0|03 bf 80                                       |...             |
0x5b0|         00 00 00 00 17 f3 b0 80               |   ........     |      [54]: "1982-09-26T00:00:00Z" (401846400) transition_time 0x5b3-0x5ba.7 (8)
0x5b0|                                 00 00 00 00 18|           .....|      [55]: "1983-03-27T00:00:00Z" (417571200) transition_time 0x5bb-0x5c2.7 (8)
0x5c0|e3 a1 80                                       |...             |
0x5c0|         00 00 00 00 19 d3 92 80               |   ........     |      [56]: "1983-09-25T00:00:00Z" (433296000) transition_time 0x5c3-0x5ca.7 (8)
0x5c0|                                 00 00 00 00 1a|           .....|      [57]: "1984-03-25T00:00:00Z" (449020800) transition_time 0x5cb-0x5d2.7 (8)
0x5d0|c3 83 80                                       |...             |
0x5d0|         00 00 00 00 1b bc af 00               |   ........     |      [58]: "1984-09-30T00:00:00Z" (465350400) transition_time 0x5d3-0x5da.7 (8)
0x5d0|                                 00 00 00 00 1c|           .....|      [59]: "1985-03-31T00:00:00Z" (481075200) transition_time 0x5db-0x5e2.7 (8)
0x5e0|ac a0 00                                       |...             |
0x5e0|         00 00 00 00 1d 9c 91 00               |   ........     |      [60]: "1985-09-29T00:00:00Z" (496800000) transition_time 0x5e3-0x5ea.7 (8)
0x5e0|                                 00 00 00 00 1e|           .....|      [61]: "1986-03-30T00:00:00Z" (512524800) transition_time 0x5eb-0x5f2.7 (8)
0x5f0|8c 82 00                                       |...             |
0x5f0|         00 00 00 00 1f 7c 73 00               |   .....|s.     |      [62]: "1986-09-28T00:00:00Z" (528249600) transition_time 0x5f3-0x5fa.7 (8)
0x5f0|                                 00 00 00 00 20|           .... |      [63]: "1987-03-29T00:00:00Z" (543974400) transition_time 0x5fb-0x602.7 (8)
0x600|6c 64 00                                       |ld.             |
0x600|         00 00 00 00 21 5c 55 00               |   ....!\U.     |      [64]: "1987-09-27T00:00:00Z" (559699200) transition_time 0x603-0x60a.7 (8)
0x600|                                 00 00 00 00 22|           ...."|      [65]: "1988-03-27T01:00:00Z" (575427600) transition_time 0x60b-0x612.7 (8)
0x610|4c 54 10                                       |LT.             |
0x610|         00 00 00 00 23 3c 45 10               |   ....#<E.     |      [66]: "1988-09-25T01:00:00Z" (591152400) transition_time 0x613-0x61a.7 (8)
0x610|                                 00 00 00 00 24|           ....$|      [67]: "1989-03-26T01:00:00Z" (606877200) transition_time 0x61b-0x622.7 (8)
0x620|2c 36 10                                       |,6.             |
0x620|         00 00 00 00 25 1c 27 10               |   ....%.'.     |      [68]: "1989-09-24T01:00:00Z" (622602000) transition_time 0x623-0x62a.7 (8)
0x620|                                 00 00 00 00 26|           ....&|      [69]: "1990-03-25T01:00:00Z" (638326800) transition_time 0x62b-0x632.7 (8)
0x630|0c 18 10                                       |...             |
0x630|         00 00 00 00 27 05 43 90               |   ....'.C.     |      [70]: "1990-09-30T01:00:00Z" (654656400) transition_time 0x633-0x63a.7 (8)
0x630|                                 00 00 00 00 27|           ....'|      [71]: "1991-03-31T01:00:00Z" (670381200) transition_time 0x63b-0x642.7 (8)
0x640|f5 34 90                                       |.4.             |
0x640|         00 00 00 00 28 e5 25 90               |   ....(.%.     |      [72]: "1991-09-29T01:00:00Z" (686106000) transition_time 0x643-0x64a.7 (8)
0x640|                                 00 00 00 00 29|           ....)|      [73]: "1992-03-29T01:00:00Z" (701830800) transition_time 0x64b-0x652.7 (8)
0x650|d5 16 90                                       |...             |
0x650|         00 00 00 00 2a c5 07 90               |   ....*...     |      [74]: "1992-09-27T01:00:00Z" (717555600) transition_time 0x653-0x65a.7 (8)
0x650|                                 00 00 00 00 2b|           ....+|      [75]: "1993-03-28T01:00:00Z" (733280400) transition_time 0x65b-0x662.7 (8)
0x660|b4 f8 90                                       |...             |
0x660|         00 00 00 00 2c a4 e9 90               |   ....,...     |      [76]: "1993-09-26T01:00:00Z" (749005200) transition_time 0x663-0x66a.7 (8)
0x660|                                 00 00 00 00 2d|           ....-|      [77]: "1994-03-27T01:00:00Z" (764730000) transition_time 0x66b-0x672.7 (8)
0x670|94 da 90                                       |...             |
0x670|         00 00 00 00 2e 84 cb 90               |   ........     |      [78]: "1994-09-25T01:00:00Z" (780454800) transition_time 0x673-0x67a.7 (8)
0x670|                                 00 00 00 00 2f|           ..../|      [79]: "1995-03-26T01:00:00Z" (796179600) transition_time 0x67b-0x682.7 (8)
0x680|74 bc 90                                       |t..             |
0x680|         00 00 00 00 30 64 ad 90               |   ....0d..     |      [80]: "1995-09-24T01:00:00Z" (811904400) transition_time 0x683-0x68a.7 (8)
0x680|                                 00 00 00 00 31|           ....1|      [81]: "1996-03-31T01:00:00Z" (828234000) transition_time 0x68b-0x692.7 (8)
0x690|5d d9 10                                       |]..             |
0x690|         00 00 00 00 32 72 b4 10               |   ....2r..     |      [82]: "1996-10-27T01:00:00Z" (846378000) transition_time 0x693-0x69a.7 (8)
0x690|                                 00 00 00 00 33|           ....3|      [83]: "1997-03-30T01:00:00Z" (859683600) transition_time 0x69b-0x6a2.7 (8)
0x6a0|3d bb 10                                       |=..             |
0x6a0|         00 00 00 00 34 52 96 10               |   ....4R..     |      [84]: "1997-10-26T01:00:00Z" (877827600) transition_time 0x6a3-0x6aa.7 (8)
0x6a0|                                 00 00 00 00 35|           ....5|      [85]: "1998-03-29T01:00:00Z" (891133200) transition_time 0x6ab-0x6b2.7 (8)
0x6b0|1d 9d 10                                       |...             |
0x6b0|         00 00 00 00 36 32 78 10               |   ....62x.     |      [86]: "1998-10-25T01:00:00Z" (909277200) transition_time 0x6b3-0x6ba.7 (8)
0x6b0|                                 00 00 00 00 36|           ....6|      [87]: "1999-03-28T01:00:00Z" (922582800) transition_time 0x6bb-0x6c2.7 (8)
0x6c0|fd 7f 10                                       |...             |
0x6c0|         00 00 00 00 38 1b 94 90               |   ....8...     |      [88]: "1999-10-31T01:00:00Z" (941331600) transition_time 0x6c3-0x6ca.7 (8)
0x6c0|                                 00 00 00 00 38|           ....8|      [89]: "2000-03-26T01:00:00Z" (954032400) transition_time 0x6cb-0x6d2.7 (8)
0x6d0|dd 61 10                                       |.a.             |
0x6d0|         00 00 00 00 39 fb 76 90               |   ....9.v.     |      [90]: "2000-10-29T01:00:00Z" (972781200) transition_time 0x6d3-0x6da.7 (8)
0x6d0|                                 00 00 00 00 3a|           ....:|      [91]: "2001-03-25T01:00:00Z" (985482000) transition_time 0x6db-0x6e2.7 (8)
0x6e0|bd 43 10                                       |.C.             |
0x6e0|         00 00 00 00 3b db 58 90               |   ....;.X.     |      [92]: "2001-10-28T01:00:00Z" (1004230800) transition_time 0x6e3-0x6ea.7 (8)
0x6e0|                                 00 00 00 00 3c|           ....<|      [93]: "2002-03-31T01:00:00Z" (1017536400) transition_time 0x6eb-0x6f2.7 (8)
0x6f0|a6 5f 90                                       |._.             |
0x6f0|         00 00 00 00 3d bb 3a 90               |   ....=.:.     |      [94]: "2002-10-27T01:00:00Z" (1035680400) transition_time 0x6f3-0x6fa.7 (8)
0x6f0|                                 00 00 00 00 3e|           ....>|      [95]: "2003-03-30T01:00:00Z" (1048986000) transition_time 0x6fb-0x702.7 (8)
0x700|86 41 90                                       |.A.             |
0x700|         00 00 00 00 3f 9b 1c 90               |   ....?...     |      [96]: "2003-10-26T01:00:00Z" (1067130000) transition_time 0x703-0x70a.7 (8)
0x700|                                 00 00 00 00 40|           ....@|      [97]: "2004-03-28T01:00:00Z" (1080435600) transition_time 0x70b-0x712.7 (8)
0x710|66 23 90                                       |f#.             |
0x710|         00 00 00 00 41 84 39 10               |   ....A.9.     |      [98]: "2004-10-31T01:00:00Z" (1099184400) transition_time 0x713-0x71a.7 (8)
0x710|                                 00 00 00 00 42|           ....B|      [99]: "2005-03-27T01:00:00Z" (1111885200) transition_time 0x71b-0x722.7 (8)
0x720|46 05 90                                       |F..             |
0x720|         00 00 00 00 43 64 1b 10               |   ....Cd..     |      [100]: "2005-10-30T01:00:00Z" (1130634000) transition_time 0x723-0x72a.7 (8)
0x720|                                 00 00 00 00 44|           ....D|      [101]: "2006-03-26T01:00:00Z" (1143334800) transition_time 0x72b-0x732.7 (8)
0x730|25 e7 90                                       |%..             |
0x730|         00 00 00 00 45 43 fd 10               |   ....EC..     |      [102]: "2006-10-29T01:00:00Z" (1162083600) transition_time 0x733-0x73a.7 (8)
0x730|                                 00 00 00 00 46|           ....F|      [103]: "2007-03-25T01:00:00Z" (1174784400) transition_time 0x73b-0x742.7 (8)
0x740|05 c9 90                                       |...             |
0x740|         00 00 00 00 47 23 df 10               |   ....G#..     |      [104]: "2007-10-28T01:00:00Z" (1193533200) transition_time 0x743-0x74a.7 (8)
0x740|                                 00 00 00 00 47|           ....G|      [105]: "2008-03-30T01:00:00Z" (1206838800) transition_time 0x74b-0x752.7 (8)
0x750|ee e6 10                                       |...             |
0x750|         00 00 00 00 49 03 c1 10               |   ....I...     |      [106]: "2008-10-26T01:00:00Z" (1224982800) transition_time 0x753-0x75a.7 (8)
0x750|                                 00 00 00 00 49|           ....I|      [107]: "2009-03-29T01:00:00Z" (1238288400) transition_time 0x75b-0x762.7 (8)
0x760|ce c8 10                                       |...             |
0x760|         00 00 00 00 4a e3 a3 10               |   ....J...     |      [108]: "2009-10-25T01:00:00Z" (1256432400) transition_time 0x763-0x76a.7 (8)
0x760|                                 00 00 00 00 4b|           ....K|      [109]: "2010-03-28T01:00:00Z" (1269738000) transition_time 0x76b-0x772.7 (8)
0x770|ae aa 10                                       |...             |
0x770|         00 00 00 00 4c cc bf 90               |   ....L...     |      [110]: "2010-10-31T01:00:00Z" (1288486800) transition_time 0x773-0x77a.7 (8)
0x770|                                 00 00 00 00 4d|           ....M|      [111]: "2011-03-27T01:00:00Z" (1301187600) transition_time 0x77b-0x782.7 (8)
0x780|8e 8c 10                                       |...             |
0x780|         00 00 00 00 4e ac a1 90               |   ....N...     |      [112]: "2011-10-30T01:00:00Z" (1319936400) transition_time 0x783-0x78a.7 (8)
0x780|                                 00 00 00 00 4f|           ....O|      [113]: "2012-03-25T01:00:00Z" (1332637200) transition_time 0x78b-0x792.7 (8)
0x790|6e 6e 10                                       |nn.             |
0x790|         00 00 00 00 50 8c 83 90               |   ....P...     |      [114]: "2012-10-28T01:00:00Z" (1351386000) transition_time 0x793-0x79a.7 (8)
0x790|                                 00 00 00 00 51|           ....Q|      [115]: "2013-03-31T01:00:00Z" (1364691600) transition_time 0x79b-0x7a2.7 (8)
0x7a0|57 8a 90                                       |W..             |
0x7a0|         00 00 00 00 52 6c 65 90               |   ....Rle.     |      [116]: "2013-10-27T01:00:00Z" (1382835600) transition_time 0x7a3-0x7aa.7 (8)
0x7a0|                                 00 00 00 00 53|           ....S|      [117]: "2014-03-30T01:00:00Z" (1396141200) transition_time 0x7ab-0x7b2.7 (8)
0x7b0|37 6c 90                                       |7l.             |
0x7b0|         00 00 00 00 54 4c 47 90               |   ....TLG.     |      [118]: "2014-10-26T01:00:00Z" (1414285200) transition_time 0x7b3-0x7ba.7 (8)
0x7b0|                                 00 00 00 00 55|           ....U|      [119]: "2015-03-29T01:00:00Z" (1427590800) transition_time 0x7bb-0x7c2.7 (8)
0x7c0|17 4e 90                                       |.N.             |
0x7c0|         00 00 00 00 56 2c 29 90               |   ....V,).     |      [120]: "2015-10-25T01:00:00Z" (1445734800) transition_time 0x7c3-0x7ca.7 (8)
0x7c0|                                 00 00 00 00 56|           ....V|      [121]: "2016-03-27T01:00:00Z" (1459040400) transition_time 0x7cb-0x7d2.7 (8)
0x7d0|f7 30 90                                       |.0.             |
0x7d0|         00 00 00 00 58 15 46 10               |   ....X.F.     |      [122]: "2016-10-30T01:00:00Z" (1477789200) transition_time 0x7d3-0x7da.7 (8)
0x7d0|                                 00 00 00 00 58|           ....X|      [123]: "2017-03-26T01:00:00Z" (1490490000) transition_time 0x7db-0x7e2.7 (8)
0x7e0|d7 12 90                                       |...             |
0x7e0|         00 00 00 00 59 f5 28 10               |   ....Y.(.     |      [124]: "2017-10-29T01:00:00Z" (1509238800) transition_time 0x7e3-0x7ea.7 (8)
0x7e0|                                 00 00 00 00 5a|           ....Z|      [125]: "2018-03-25T01:00:00Z" (1521939600) transition_time 0x7eb-0x7f2.7 (8)
0x7f0|b6 f4 90                                       |...             |
0x7f0|         00 00 00 00 5b d5 0a 10               |   ....[...     |      [126]: "2018-10-28T01:00:00Z" (1540688400) transition_time 0x7f3-0x7fa.7 (8)
0x7f0|                                 00 00 00 00 5c|           ....\|      [127]: "2019-03-31T01:00:00Z" (1553994000) transition_time 0x7fb-0x802.7 (8)
0x800|a0 11 10                                       |...             |
0x800|         00 00 00 00 5d b4 ec 10               |   ....]...     |      [128]: "2019-10-27T01:00:00Z" (1572138000) transition_time 0x803-0x80a.7 (8)
0x800|                                 00 00 00 00 5e|           ....^|      [129]: "2020-03-29T01:00:00Z" (1585443600) transition_time 0x80b-0x812.7 (8)
0x810|7f f3 10                                       |...             |
0x810|         00 00 00 00 5f 94 ce 10               |   ...._...     |      [130]: "2020-10-25T01:00:00Z" (1603587600) transition_time 0x813-0x81a.7 (8)
0x810|                                 00 00 00 00 60|           ....`|      [131]: "2021-03-28T01:00:00Z" (1616893200) transition_time 0x81b-0x822.7 (8)
0x820|5f d5 10                                       |_..             |
0x820|         00 00 00 00 61 7d ea 90               |   ....a}..     |      [132]: "2021-10-31T01:00:00Z" (1635642000) transition_time 0x823-0x82a.7 (8)
0x820|                                 00 00 00 00 62|           ....b|      [133]: "2022-03-27T01:00:00Z" (1648342800) transition_time 0x82b-0x832.7 (8)
0x830|3f b7 10                                       |?..             |
0x830|         00 00 00 00 63 5d cc 90               |   ....c]..     |      [134]: "2022-10-30T01:00:00Z" (1667091600) transition_time 0x833-0x83a.7 (8)
0x830|                                 00 00 00 00 64|           ....d|      [135]: "2023-03-26T01:00:00Z" (1679792400) transition_time 0x83b-0x842.7 (8)
0x840|1f 99 10                                       |...             |
0x840|         00 00 00 00 65 3d ae 90               |   ....e=..     |      [136]: "2023-10-29T01:00:00Z" (1698541200) transition_time 0x843-0x84a.7 (8)
0x840|                                 00 00 00 00 66|           ....f|      [137]: "2024-03-31T01:00:00Z" (1711846800) transition_time 0x84b-0x852.7 (8)
0x850|08 b5 90                                       |...             |
0x850|         00 00 00 00 67 1d 90 90               |   ....g...     |      [138]: "2024-10-27T01:00:00Z" (1729990800) transition_time 0x853-0x85a.7 (8)
0x850|                                 00 00 00 00 67|           ....g|      [139]: "2025-03-30T01:00:00Z" (1743296400) transition_time 0x85b-0x862.7 (8)
0x860|e8 97 90                                       |...             |
0x860|         00 00 00 00 68 fd 72 90               |   ....h.r.     |      [140]: "2025-10-26T01:00:00Z" (1761440400) transition_time 0x863-0x86a.7 (8)
0x860|                                 00 00 00 00 69|           ....i|      [141]: "2026-03-29T01:00:00Z" (1774746000) transition_time 0x86b-0x872.7 (8)
0x870|c8 79 90                                       |.y.             |
0x870|         00 00 00 00 6a dd 54 90               |   ....j.T.     |      [142]: "2026-10-25T01:00:00Z" (1792890000) transition_time 0x873-0x87a.7 (8)
0x870|                                 00 00 00 00 6b|           ....k|      [143]: "2027-03-28T01:00:00Z" (1806195600) transition_time 0x87b-0x882.7 (8)
0x880|a8 5b 90                                       |.[.             |
0x880|         00 00 00 00 6c c6 71 10               |   ....l.q.     |      [144]: "2027-10-31T01:00:00Z" (1824944400) transition_time 0x883-0x88a.7 (8)
0x880|                                 00 00 00 00 6d|           ....m|      [145]: "2028-03-26T01:00:00Z" (1837645200) transition_time 0x88b-0x892.7 (8)
0x890|88 3d 90                                       |.=.             |
0x890|         00 00 00 00 6e a6 53 10               |   ....n.S.     |      [146]: "2028-10-29T01:00:00Z" (1856394000) transition_time 0x893-0x89a.7 (8)
0x890|                                 00 00 00 00 6f|           ....o|      [147]: "2029-03-25T01:00:00Z" (1869094800) transition_time 0x89b-0x8a2.7 (8)
0x8a0|68 1f 90                                       |h..             |
0x8a0|         00 00 00 00 70 86 35 10               |   ....p.5.     |      [148]: "2029-10-28T01:00:00Z" (1887843600) transition_time 0x8a3-0x8aa.7 (8)
0x8a0|                                 00 00 00 00 71|           ....q|      [149]: "2030-03-31T01:00:00Z" (1901149200) transition_time 0x8ab-0x8b2.7 (8)
0x8b0|51 3c 10                                       |Q<.             |
0x8b0|         00 00 00 00 72 66 17 10               |   ....rf..     |      [150]: "2030-10-27T01:00:00Z" (1919293200) transition_time 0x8b3-0x8ba.7 (8)
0x8b0|                                 00 00 00 00 73|           ....s|      [151]: "2031-03-30T01:00:00Z" (1932598800) transition_time 0x8bb-0x8c2.7 (8)
0x8c0|31 1e 10                                       |1..             |
0x8c0|         00 00 00 00 74 45 f9 10               |   ....tE..     |      [152]: "2031-10-26T01:00:00Z" (1950742800) transition_time 0x8c3-0x8ca.7 (8)
0x8c0|                                 00 00 00 00 75|           ....u|      [153]: "2032-03-28T01:00:00Z" (1964048400) transition_time 0x8cb-0x8d2.7 (8)
0x8d0|11 00 10                                       |...             |
0x8d0|         00 00 00 00 76 2f 15 90               |   ....v/..     |      [154]: "2032-10-31T01:00:00Z" (1982797200) transition_time 0x8d3-0x8da.7 (8)
0x8d0|                                 00 00 00 00 76|           ....v|      [155]: "2033-03-27T01:00:00Z" (1995498000) transition_time 0x8db-0x8e2.7 (8)
0x8e0|f0 e2 10                                       |...             |
0x8e0|         00 00 00 00 78 0e f7 90               |   ....x...     |      [156]: "2033-10-30T01:00:00Z" (2014246800) transition_time 0x8e3-0x8ea.7 (8)
0x8e0|                                 00 00 00 00 78|           ....x|      [157]: "2034-03-26T01:00:00Z" (2026947600) transition_time 0x8eb-0x8f2.7 (8)
0x8f0|d0 c4 10                                       |...             |
0x8f0|         00 00 00 00 79 ee d9 90               |   ....y...     |      [158]: "2034-10-29T01:00:00Z" (2045696400) transition_time 0x8f3-0x8fa.7 (8)
0x8f0|                                 00 00 00 00 7a|           ....z|      [159]: "2035-03-25T01:00:00Z" (2058397200) transition_time 0x8fb-0x902.7 (8)
0x900|b0 a6 10                                       |...             |
0x900|         00 00 00 00 7b ce bb 90               |   ....{...     |      [160]: "2035-10-28T01:00:00Z" (2077146000) transition_time 0x903-0x90a.7 (8)
0x900|                                 00 00 00 00 7c|           ....||      [161]: "2036-03-30T01:00:00Z" (2090451600) transition_time 0x90b-0x912.7 (8)
0x910|99 c2 90                                       |...             |
0x910|         00 00 00 00 7d ae 9d 90               |   ....}...     |      [162]: "2036-10-26T01:00:00Z" (2108595600) transition_time 0x913-0x91a.7 (8)
0x910|                                 00 00 00 00 7e|           ....~|      [163]: "2037-03-29T01:00:00Z" (2121901200) transition_time 0x91b-0x922.7 (8)
0x920|79 a4 90                                       |y..             |
0x920|         00 00 00 00 7f 8e 7f 90               |   ........     |      [164]: "2037-10-25T01:00:00Z" (2140045200) transition_time 0x923-0x92a.7 (8)
     |                                               |                |    transition_types[0:165]: 0x92b-0x9cf.7 (165)
0x920|                                 01            |           .    |      [0]: 1 transition_type 0x92b-0x92b.7 (1)
0x920|                                    03         |            .   |      [1]: 3 transition_type 0x92c-0x92c.7 (1)
0x920|                                       02      |             .  |      [2]: 2 transition_type 0x92d-0x92d.7 (1)
0x920|                                          03   |              . |      [3]: 3 transition_type 0x92e-0x92e.7 (1)
0x920|                                             04|               .|      [4]: 4 transition_type 0x92f-0x92f.7 (1)
0x930|05                                             |.               |      [5]: 5 transition_type 0x930-0x930.7 (1)
0x930|   04                                          | .              |      [6]: 4 transition_type 0x931-0x931.7 (1)
0x930|      08                                       |  .             |      [7]: 8 transition_type 0x932-0x932.7 (1)
0x930|         06                                    |   .            |      [8]: 6 transition_type 0x933-0x933.7 (1)
0x930|            07                                 |    .           |      [9]: 7 transition_type 0x934-0x934.7 (1)
0x930|               03                              |     .          |      [10]: 3 transition_type 0x935-0x935.7 (1)
0x930|                  02                           |      .         |      [11]: 2 transition_type 0x936-0x936.7 (1)
0x930|                     05                        |       .        |      [12]: 5 transition_type 0x937-0x937.7 (1)
0x930|                        04                     |        .       |      [13]: 4 transition_type 0x938-0x938.7 (1)
0x930|                           05                  |         .      |      [14]: 5 transition_type 0x939-0x939.7 (1)
0x930|                              04               |          .     |      [15]: 4 transition_type 0x93a-0x93a.7 (1)
0x930|                                 03            |           .    |      [16]: 3 transition_type 0x93b-0x93b.7 (1)
0x930|                                    02         |            .   |      [17]: 2 transition_type 0x93c-0x93c.7 (1)
0x930|                                       03      |             .  |      [18]: 3 transition_type 0x93d-0x93d.7 (1)
0x930|                                          04   |              . |      [19]: 4 transition_type 0x93e-0x93e.7 (1)
0x930|                                             05|               .|      [20]: 5 transition_type 0x93f-0x93f.7 (1)
0x940|04                                             |.               |      [21]: 4 transition_type 0x940-0x940.7 (1)
0x940|   05                                          | .              |      [22]: 5 transition_type 0x941-0x941.7 (1)
0x940|      04                                       |  .             |      [23]: 4 transition_type 0x942-0x942.7 (1)
0x940|         05                                    |   .            |      [24]: 5 transition_type 0x943-0x943.7 (1)
0x940|            04                                 |    .           |      [25]: 4 transition_type 0x944-0x944.7 (1)
0x940|               05                              |     .          |      [26]: 5 transition_type 0x945-0x945.7 (1)
0x940|                  04                           |      .         |      [27]: 4 transition_type 0x946-0x946.7 (1)
0x940|                     05                        |       .        |      [28]: 5 transition_type 0x947-0x947.7 (1)
0x940|                        04                     |        .       |      [29]: 4 transition_type 0x948-0x948.7 (1)
0x940|                           05                  |         .      |      [30]: 5 transition_type 0x949-0x949.7 (1)
0x940|                              04               |          .     |      [31]: 4 transition_type 0x94a-0x94a.7 (1)
0x940|                                 05            |           .    |      [32]: 5 transition_type 0x94b-0x94b.7 (1)
0x940|                                    04         |            .   |      [33]: 4 transition_type 0x94c-0x94c.7 (1)
0x940|                                       05      |             .  |      [34]: 5 transition_type 0x94d-0x94d.7 (1)
0x940|                                          04   |              . |      [35]: 4 transition_type 0x94e-0x94e.7 (1)
0x940|                                             05|               .|      [36]: 5 transition_type 0x94f-0x94f.7 (1)
0x950|04                                             |.               |      [37]: 4 transition_type 0x950-0x950.7 (1)
0x950|   05                                          | .              |      [38]: 5 transition_type 0x951-0x951.7 (1)
0x950|      04                                       |  .             |      [39]: 4 transition_type 0x952-0x952.7 (1)
0x950|         05                                    |   .            |      [40]: 5 transition_type 0x953-0x953.7 (1)
0x950|            04                                 |    .           |      [41]: 4 transition_type 0x954-0x954.7 (1)
0x950|               05                              |     .          |      [42]: 5 transition_type 0x955-0x955.7 (1)
0x950|                  04                           |      .         |      [43]: 4 transition_type 0x956-0x956.7 (1)
0x950|                     05                        |       .        |      [44]: 5 transition_type 0x957-0x957.7 (1)
0x950|                        04                     |        .       |      [45]: 4 transition_type 0x958-0x958.7 (1)
0x950|                           05                  |         .      |      [46]: 5 transition_type 0x959-0x959.7 (1)
0x950|                              04               |          .     |      [47]: 4 transition_type 0x95a-0x95a.7 (1)
0x950|                                 05            |           .    |      [48]: 5 transition_type 0x95b-0x95b.7 (1)
0x950|                                    04         |            .   |      [49]: 4 transition_type 0x95c-0x95c.7 (1)
0x950|                                       05      |             .  |      [50]: 5 transition_type 0x95d-0x95d.7 (1)
0x950|                                          04   |              . |      [51]: 4 transition_type 0x95e-0x95e.7 (1)
0x950|                                             05|               .|      [52]: 5 transition_type 0x95f-0x95f.7 (1)
0x960|04                                             |.               |      [53]: 4 transition_type 0x960-0x960.7 (1)
0x960|   05                                          | .              |      [54]: 5 transition_type 0x961-0x961.7 (1)
0x960|      04                                       |  .             |      [55]: 4 transition_type 0x962-0x962.7 (1)
0x960|         05                                    |   .            |      [56]: 5 transition_type 0x963-0x963.7 (1)
0x960|            04                                 |    .           |      [57]: 4 transition_type 0x964-0x964.7 (1)
0x960|               05                              |     .          |      [58]: 5 transition_type 0x965-0x965.7 (1)
0x960|                  04                           |      .         |      [59]: 4 transition_type 0x966-0x966.7 (1)
0x960|                     05                        |       .        |      [60]: 5 transition_type 0x967-0x967.7 (1)
0x960|                        04                     |        .       |      [61]: 4 transition_type 0x968-0x968.7 (1)
0x960|                           05                  |         .      |      [62]: 5 transition_type 0x969-0x969.7 (1)
0x960|                              04               |          .     |      [63]: 4 transition_type 0x96a-0x96a.7 (1)
0x960|                                 05            |           .    |      [64]: 5 transition_type 0x96b-0x96b.7 (1)
0x960|                                    09         |            .   |      [65]: 9 transition_type 0x96c-0x96c.7 (1)
0x960|                                       0a      |             .  |      [66]: 10 transition_type 0x96d-0x96d.7 (1)
0x960|                                          09   |              . |      [67]: 9 transition_type 0x96e-0x96e.7 (1)
0x960|                                             0a|               .|      [68]: 10 transition_type 0x96f-0x96f.7 (1)
0x970|09                                             |.               |      [69]: 9 transition_type 0x970-0x970.7 (1)
0x970|   0a                                          | .              |      [70]: 10 transition_type 0x971-0x971.7 (1)
0x970|      09                                       |  .             |      [71]: 9 transition_type 0x972-0x972.7 (1)
0x970|         0a                                    |   .            |      [72]: 10 transition_type 0x973-0x973.7 (1)
0x970|            09                                 |    .           |      [73]: 9 transition_type 0x974-0x974.7 (1)
0x970|               0a                              |     .          |      [74]: 10 transition_type 0x975-0x975.7 (1)
0x970|                  09                           |      .         |      [75]: 9 transition_type 0x976-0x976.7 (1)
0x970|                     0a                        |       .        |      [76]: 10 transition_type 0x977-0x977.7 (1)
0x970|                        09                     |        .       |      [77]: 9 transition_type 0x978-0x978.7 (1)
0x970|                           0a                  |         .      |      [78]: 10 transition_type 0x979-0x979.7 (1)
0x970|                              09               |          .     |      [79]: 9 transition_type 0x97a-0x97a.7 (1)
0x970|                                 0a            |           .    |      [80]: 10 transition_type 0x97b-0x97b.7 (1)
0x970|                                    09         |            .   |      [81]: 9 transition_type 0x97c-0x97c.7 (1)
0x970|                                       0a      |             .  |      [82]: 10 transition_type 0x97d-0x97d.7 (1)
0x970|                                          09   |              . |      [83]: 9 transition_type 0x97e-0x97e.7 (1)
0x970|                                             0a|               .|      [84]: 10 transition_type 0x97f-0x97f.7 (1)
0x980|09                                             |.               |      [85]: 9 transition_type 0x980-0x980.7 (1)
0x980|   0a                                          | .              |      [86]: 10 transition_type 0x981-0x981.7 (1)
0x980|      09                                       |  .             |      [87]: 9 transition_type 0x982-0x982.7 (1)
0x980|         0a                                    |   .            |      [88]: 10 transition_type 0x983-0x983.7 (1)
0x980|            09                                 |    .           |      [89]: 9 transition_type 0x984-0x984.7 (1)
0x980|               0a                              |     .          |      [90]: 10 transition_type 0x985-0x985.7 (1)
0x980|                  09                           |      .         |      [91]: 9 transition_type 0x986-0x986.7 (1)
0x980|                     0a                        |       .        |      [92]: 10 transition_type 0x987-0x987.7 (1)
0x980|                        09                     |        .       |      [93]: 9 transition_type 0x988-0x988.7 (1)
0x980|                           0a                  |         .      |      [94]: 10 transition_type 0x989-0x989.7 (1)
0x980|                              09               |          .     |      [95]: 9 transition_type 0x98a-0x98a.7 (1)
0x980|                                 0a            |           .    |      [96]: 10 transition_type 0x98b-0x98b.7 (1)
0x980|                                    09         |            .   |      [97]: 9 transition_type 0x98c-0x98c.7 (1)
0x980|                                       0a      |             .  |      [98]: 10 transition_type 0x98d-0x98d.7 (1)
0x980|                                          09   |              . |      [99]: 9 transition_type 0x98e-0x98e.7 (1)
0x980|                                             0a|               .|      [100]: 10 transition_type 0x98f-0x98f.7 (1)
0x990|09                                             |.               |      [101]: 9 transition_type 0x990-0x990.7 (1)
0x990|   0a                                          | .              |      [102]: 10 transition_type 0x991-0x991.7 (1)
0x990|      09                                       |  .             |      [103]: 9 transition_type 0x992-0x992.7 (1)
0x990|         0a                                    |   .            |      [104]: 10 transition_type 0x993-0x993.7 (1)
0x990|            09                                 |    .           |      [105]: 9 transition_type 0x994-0x994.7 (1)
0x990|               0a                              |     .          |      [106]: 10 transition_type 0x995-0x995.7 (1)
0x990|                  09                           |      .         |      [107]: 9 transition_type 0x996-0x996.7 (1)
0x990|                     0a                        |       .        |      [108]: 10 transition_type 0x997-0x997.7 (1)
0x990|                        09                     |        .       |      [109]: 9 transition_type 0x998-0x998.7 (1)
0x990|                           0a                  |         .      |      [110]: 10 transition_type 0x999-0x999.7 (1)
0x990|                              09               |          .     |      [111]: 9 transition_type 0x99a-0x99a.7 (1)
0x990|                                 0a            |           .    |      [112]: 10 transition_type 0x99b-0x99b.7 (1)
0x990|                                    09         |            .   |      [113]: 9 transition_type 0x99c-0x99c.7 (1)
0x990|                                       0a      |             .  |      [114]: 10 transition_type 0x99d-0x99d.7 (1)
0x990|                                          09   |              . |      [115]: 9 transition_type 0x99e-0x99e.7 (1)
0x990|                                             0a|               .|      [116]: 10 transition_type 0x99f-0x99f.7 (1)
0x9a0|09                                             |.               |      [117]: 9 transition_type 0x9a0-0x9a0.7 (1)
0x9a0|   0a                                          | .              |      [118]: 10 transition_type 0x9a1-0x9a1.7 (1)
0x9a0|      09                                       |  .             |      [119]: 9 transition_type 0x9a2-0x9a2.7 (1)
0x9a0|         0a                                    |   .            |      [120]: 10 transition_type 0x9a3-0x9a3.7 (1)
0x9a0|            09                                 |    .           |      [121]: 9 transition_type 0x9a4-0x9a4.7 (1)
0x9a0|               0a                              |     .          |      [122]: 10 transition_type 0x9a5-0x9a5.7 (1)
0x9a0|                  09                           |      .         |      [123]: 9 transition_type 0x9a6-0x9a6.7 (1)
0x9a0|                     0a                        |       .        |      [124]: 10 transition_type 0x9a7-0x9a7.7 (1)
0x9a0|                        09                     |        .       |      [125]: 9 transition_type 0x9a8-0x9a8.7 (1)
0x9a0|                           0a                  |         .      |      [126]: 10 transition_type 0x9a9-0x9a9.7 (1)
0x9a0|                              09               |          .     |      [127]: 9 transition_type 0x9aa-0x9aa.7 (1)
0x9a0|                                 0a            |           .    |      [128]: 10 transition_type 0x9ab-0x9ab.7 (1)
0x9a0|                                    09         |            .   |      [129]: 9 transition_type 0x9ac-0x9ac.7 (1)
0x9a0|                                       0a      |             .  |      [130]: 10 transition_type 0x9ad-0x9ad.7 (1)
0x9a0|                                          09   |              . |      [131]: 9 transition_type 0x9ae-0x9ae.7 (1)
0x9a0|                                             0a|               .|      [132]: 10 transition_type 0x9af-0x9af.7 (1)
0x9b0|09                                             |.               |      [133]: 9 transition_type 0x9b0-0x9b0.7 (1)
0x9b0|   0a                                          | .              |      [134]: 10 transition_type 0x9b1-0x9b1.7 (1)
0x9b0|      09                                       |  .             |      [135]: 9 transition_type 0x9b2-0x9b2.7 (1)
0x9b0|         0a                                    |   .            |      [136]: 10 transition_type 0x9b3-0x9b3.7 (1)
0x9b0|            09                                 |    .           |      [137]: 9 transition_type 0x9b4-0x9b4.7 (1)
0x9b0|               0a                              |     .          |      [138]: 10 transition_type 0x9b5-0x9b5.7 (1)
0x9b0|                  09                           |      .         |      [139]: 9 transition_type 0x9b6-0x9b6.7 (1)
0x9b0|                     0a                        |       .        |      [140]: 10 transition_type 0x9b7-0x9b7.7 (1)
0x9b0|                        09                     |        .       |      [141]: 9 transition_type 0x9b8-0x9b8.7 (1)
0x9b0|                           0a                  |         .      |      [142]: 10 transition_type 0x9b9-0x9b9.7 (1)
0x9b0|                              09               |          .     |      [143]: 9 transition_type 0x9ba-0x9ba.7 (1)
0x9b0|                                 0a            |           .    |      [144]: 10 transition_type 0x9bb-0x9bb.7 (1)
0x9b0|                                    09         |            .   |      [145]: 9 transition_type 0x9bc-0x9bc.7 (1)
0x9b0|                                       0a      |             .  |      [146]: 10 transition_type 0x9bd-0x9bd.7 (1)
0x9b0|                                          09   |              . |      [147]: 9 transition_type 0x9be-0x9be.7 (1)
0x9b0|                                             0a|               .|      [148]: 10 transition_type 0x9bf-0x9bf.7 (1)
0x9c0|09                                             |.               |      [149]: 9 transition_type 0x9c0-0x9c0.7 (1)
0x9c0|   0a                                          | .              |      [150]: 10 transition_type 0x9c1-0x9c1.7 (1)
0x9c0|      09                                       |  .             |      [151]: 9 transition_type 0x9c2-0x9c2.7 (1)
0x9c0|         0a                                    |   .            |      [152]: 10 transition_type 0x9c3-0x9c3.7 (1)
0x9c0|            09                                 |    .           |      [153]: 9 transition_type 0x9c4-0x9c4.7 (1)
0x9c0|               0a                              |     .          |      [154]: 10 transition_type 0x9c5-0x9c5.7 (1)
0x9c0|                  09                           |      .         |      [155]: 9 transition_type 0x9c6-0x9c6.7 (1)
0x9c0|                     0a                        |       .        |      [156]: 10 transition_type 0x9c7-0x9c7.7 (1)
0x9c0|                        09                     |        .       |      [157]: 9 transition_type 0x9c8-0x9c8.7 (1)
0x9c0|                           0a                  |         .      |      [158]: 10 transition_type 0x9c9-0x9c9.7 (1)
0x9c0|                              09               |          .     |      [159]: 9 transition_type 0x9ca-0x9ca.7 (1)
0x9c0|                                 0a            |           .    |      [160]: 10 transition_type 0x9cb-0x9cb.7 (1)
0x9c0|                                    09         |            .   |      [161]: 9 transition_type 0x9cc-0x9cc.7 (1)
0x9c0|                                       0a      |             .  |      [162]: 10 transition_type 0x9cd-0x9cd.7 (1)
0x9c0|                                          09   |              . |      [163]: 9 transition_type 0x9ce-0x9ce.7 (1)
0x9c0|                                             0a|               .|      [164]: 10 transition_type 0x9cf-0x9cf.7 (1)
     |                                               |                |    local_time_type_records[0:11]: 0x9d0-0xa11.7 (66)
     |                                               |                |      [0]{}: local_time_type 0x9d0-0x9d5.7 (6)
0x9d0|00 00 13 b0                                    |....            |        utoff: 5040 (valid) 0x9d0-0x9d3.7 (4)
0x9d0|            00                                 |    .           |        dst: 0 (valid) 0x9d4-0x9d4.7 (1)
0x9d0|               00                              |     .          |        idx: 0 (valid) 0x9d5-0x9d5.7 (1)
     |                                               |                |      [1]{}: local_time_type 0x9d6-0x9db.7 (6)
0x9d0|                  00 00 13 b0                  |      ....      |        utoff: 5040 (valid) 0x9d6-0x9d9.7 (4)
0x9d0|                              00               |          .     |        dst: 0 (valid) 0x9da-0x9da.7 (1)
0x9d0|                                 04            |           .    |        idx: 4 (valid) 0x9db-0x9db.7 (1)
     |                                               |                |      [2]{}: local_time_type 0x9dc-0x9e1.7 (6)
0x9d0|                                    00 00 1c 20|            ... |        utoff: 7200 (valid) 0x9dc-0x9df.7 (4)
0x9e0|01                                             |.               |        dst: 1 (valid) 0x9e0-0x9e0.7 (1)
0x9e0|   08                                          | .              |        idx: 8 (valid) 0x9e1-0x9e1.7 (1)
     |                                               |                |      [3]{}: local_time_type 0x9e2-0x9e7.7 (6)
0x9e0|      00 00 0e 10                              |  ....          |        utoff: 3600 (valid) 0x9e2-0x9e5.7 (4)
0x9e0|                  00                           |      .         |        dst: 0 (valid) 0x9e6-0x9e6.7 (1)
0x9e0|                     0d                        |       .        |        idx: 13 (valid) 0x9e7-0x9e7.7 (1)
     |                                               |                |      [4]{}: local_time_type 0x9e8-0x9ed.7 (6)
0x9e0|                        00 00 1c 20            |        ...     |        utoff: 7200 (valid) 0x9e8-0x9eb.7 (4)
0x9e0|                                    01         |            .   |        dst: 1 (valid) 0x9ec-0x9ec.7 (1)
0x9e0|                                       08      |             .  |        idx: 8 (valid) 0x9ed-0x9ed.7 (1)
     |                                               |                |      [5]{}: local_time_type 0x9ee-0x9f3.7 (6)
0x9e0|                                          00 00|              ..|        utoff: 3600 (valid) 0x9ee-0x9f1.7 (4)
0x9f0|0e 10                                          |..              |
0x9f0|      00                                       |  .             |        dst: 0 (valid) 0x9f2-0x9f2.7 (1)
0x9f0|         0d                                    |   .            |        idx: 13 (valid) 0x9f3-0x9f3.7 (1)
     |                                               |                |      [6]{}: local_time_type 0x9f4-0x9f9.7 (6)
0x9f0|            00 00 2a 30                        |    ..*0        |        utoff: 10800 (valid) 0x9f4-0x9f7.7 (4)
0x9f0|                        01                     |        .       |        dst: 1 (valid) 0x9f8-0x9f8.7 (1)
0x9f0|                           11                  |         .      |        idx: 17 (valid) 0x9f9-0x9f9.7 (1)
     |                                               |                |      [7]{}: local_time_type 0x9fa-0x9ff.7 (6)
0x9f0|                              00 00 1c 20      |          ...   |        utoff: 7200 (valid) 0x9fa-0x9fd.7 (4)
0x9f0|                                          00   |              . |        dst: 0 (valid) 0x9fe-0x9fe.7 (1)
0x9f0|                                             16|               .|        idx: 22 (valid) 0x9ff-0x9ff.7 (1)
     |                                               |                |      [8]{}: local_time_type 0xa00-0xa05.7 (6)
0xa00|00 00 1c 20                                    |...             |        utoff: 7200 (valid) 0xa00-0xa03.7 (4)
0xa00|            00                                 |    .           |        dst: 0 (valid) 0xa04-0xa04.7 (1)
0xa00|               16                              |     .          |        idx: 22 (valid) 0xa05-0xa05.7 (1)
     |                                               |                |      [9]{}: local_time_type 0xa06-0xa0b.7 (6)
0xa00|                  00 00 1c 20                  |      ...       |        utoff: 7200 (valid) 0xa06-0xa09.7 (4)
0xa00|                              01               |          .     |        dst: 1 (valid) 0xa0a-0xa0a.7 (1)
0xa00|                                 08            |           .    |        idx: 8 (valid) 0xa0b-0xa0b.7 (1)
     |                                               |                |      [10]{}: local_time_type 0xa0c-0xa11.7 (6)
0xa00|                                    00 00 0e 10|            ....|        utoff: 3600 (valid) 0xa0c-0xa0f.7 (4)
0xa10|00                                             |.               |        dst: 0 (valid) 0xa10-0xa10.7 (1)
0xa10|   0d                                          | .              |        idx: 13 (valid) 0xa11-0xa11.7 (1)
     |                                               |                |    time_zone_designations[0:6]: 0xa12-0xa2b.7 (26)
0xa10|      4c 4d 54 00                              |  LMT.          |      [0]: "LMT" time_zone_designation 0xa12-0xa15.7 (4)
0xa10|                  57 4d 54 00                  |      WMT.      |      [1]: "WMT" time_zone_designation 0xa16-0xa19.7 (4)
0xa10|                              43 45 53 54 00   |          CEST. |      [2]: "CEST" time_zone_designation 0xa1a-0xa1e.7 (5)
0xa10|                                             43|               C|      [3]: "CET" time_zone_designation 0xa1f-0xa22.7 (4)
0xa20|45 54 00                                       |ET.             |
0xa20|         45 45 53 54 00                        |   EEST.        |      [4]: "EEST" time_zone_designation 0xa23-0xa27.7 (5)
0xa20|                        45 45 54 00            |        EET.    |      [5]: "EET" time_zone_designation 0xa28-0xa2b.7 (4)
     |                                               |                |    leap_second_records[0:0]: 0xa2c-NA (0)
     |                                               |                |    standard_wall_indicators[0:11]: 0xa2c-0xa36.7 (11)
0xa20|                                    00         |            .   |      [0]: 0 standard_wall_indicator (valid) 0xa2c-0xa2c.7 (1)
0xa20|                                       00      |             .  |      [1]: 0 standard_wall_indicator (valid) 0xa2d-0xa2d.7 (1)
0xa20|                                          00   |              . |      [2]: 0 standard_wall_indicator (valid) 0xa2e-0xa2e.7 (1)
0xa20|                                             00|               .|      [3]: 0 standard_wall_indicator (valid) 0xa2f-0xa2f.7 (1)
0xa30|01                                             |.               |      [4]: 1 standard_wall_indicator (valid) 0xa30-0xa30.7 (1)
0xa30|   01                                          | .              |      [5]: 1 standard_wall_indicator (valid) 0xa31-0xa31.7 (1)
0xa30|      01                                       |  .             |      [6]: 1 standard_wall_indicator (valid) 0xa32-0xa32.7 (1)
0xa30|         01                                    |   .            |      [7]: 1 standard_wall_indicator (valid) 0xa33-0xa33.7 (1)
0xa30|            00                                 |    .           |      [8]: 0 standard_wall_indicator (valid) 0xa34-0xa34.7 (1)
0xa30|               01                              |     .          |      [9]: 1 standard_wall_indicator (valid) 0xa35-0xa35.7 (1)
0xa30|                  01                           |      .         |      [10]: 1 standard_wall_indicator (valid) 0xa36-0xa36.7 (1)
     |                                               |                |    ut_local_indicators[0:11]: 0xa37-0xa41.7 (11)
0xa30|                     00                        |       .        |      [0]: 0 ut_local_indicator (valid) 0xa37-0xa37.7 (1)
0xa30|                        00                     |        .       |      [1]: 0 ut_local_indicator (valid) 0xa38-0xa38.7 (1)
0xa30|                           00                  |         .      |      [2]: 0 ut_local_indicator (valid) 0xa39-0xa39.7 (1)
0xa30|                              00               |          .     |      [3]: 0 ut_local_indicator (valid) 0xa3a-0xa3a.7 (1)
0xa30|                                 00            |           .    |      [4]: 0 ut_local_indicator (valid) 0xa3b-0xa3b.7 (1)
0xa30|                                    00         |            .   |      [5]: 0 ut_local_indicator (valid) 0xa3c-0xa3c.7 (1)
0xa30|                                       00      |             .  |      [6]: 0 ut_local_indicator (valid) 0xa3d-0xa3d.7 (1)
0xa30|                                          00   |              . |      [7]: 0 ut_local_indicator (valid) 0xa3e-0xa3e.7 (1)
0xa30|                                             00|               .|      [8]: 0 ut_local_indicator (valid) 0xa3f-0xa3f.7 (1)
0xa40|01                                             |.               |      [9]: 1 ut_local_indicator (valid) 0xa40-0xa40.7 (1)
0xa40|   01                                          | .              |      [10]: 1 ut_local_indicator (valid) 0xa41-0xa41.7 (1)
     |                                               |                |  footer{}: 0xa42-0xa5d.7 (28)
0xa40|      0a                                       |  .             |    nl1: 10 (valid) 0xa42-0xa42.7 (1)
0xa40|         43 45 54 2d 31 43 45 53 54 2c 4d 33 2e|   CET-1CEST,M3.|    tz_string: "CET-1CEST,M3.5.0,M10.5.0/3" 0xa43-0xa5c.7 (26)
0xa50|35 2e 30 2c 4d 31 30 2e 35 2e 30 2f 33         |5.0,M10.5.0/3   |
0xa50|                                       0a|     |             .| |    nl2: 10 (valid) 0xa5d-0xa5d.7 (1)
