$ fq -d tzif dv WET
     |00 01 02 03 04 05 06 07 08 09 0a 0b 0c 0d 0e 0f|0123456789abcdef|.{}: WET (tzif) 0x0-0x770.7 (1905)
     |                                               |                |  v1header{}: 0x0-0x2b.7 (44)
0x000|54 5a 69 66                                    |TZif            |    magic: 0x545a6966 (valid) 0x0-0x3.7 (4)
0x000|            32                                 |    2           |    ver: "2" (0x32) (valid) 0x4-0x4.7 (1)
0x000|               00 00 00 00 00 00 00 00 00 00 00|     ...........|    reserved: raw bits 0x5-0x13.7 (15)
0x010|00 00 00 00                                    |....            |
0x010|            00 00 00 04                        |    ....        |    isutcnt: 4 0x14-0x17.7 (4)
0x010|                        00 00 00 04            |        ....    |    isstdcnt: 4 0x18-0x1b.7 (4)
0x010|                                    00 00 00 00|            ....|    leapcnt: 0 0x1c-0x1f.7 (4)
0x020|00 00 00 7a                                    |...z            |    timecnt: 122 0x20-0x23.7 (4)
0x020|            00 00 00 04                        |    ....        |    typecnt: 4 0x24-0x27.7 (4)
0x020|                        00 00 00 09            |        ....    |    charcnt: 9 0x28-0x2b.7 (4)
     |                                               |                |  v1datablock{}: 0x2c-0x2b6.7 (651)
     |                                               |                |    transition_times[0:122]: 0x2c-0x213.7 (488)
0x020|                                    0d a4 63 90|            ..c.|      [0]: "1977-04-03T01:00:00Z" (228877200) transition_time 0x2c-0x2f.7 (4)
0x030|0e 8b 1a 10                                    |....            |      [1]: "1977-09-25T01:00:00Z" (243997200) transition_time 0x30-0x33.7 (4)
0x030|            0f 84 45 90                        |    ..E.        |      [2]: "1978-04-02T01:00:00Z" (260326800) transition_time 0x34-0x37.7 (4)
0x030|                        10 74 36 90            |        .t6.    |      [3]: "1978-10-01T01:00:00Z" (276051600) transition_time 0x38-0x3b.7 (4)
0x030|                                    11 64 27 90|            .d'.|      [4]: "1979-04-01T01:00:00Z" (291776400) transition_time 0x3c-0x3f.7 (4)
0x040|12 54 18 90                                    |.T..            |      [5]: "1979-09-30T01:00:00Z" (307501200) transition_time 0x40-0x43.7 (4)
0x040|            13 4d 44 10                        |    .MD.        |      [6]: "1980-04-06T01:00:00Z" (323830800) transition_time 0x44-0x47.7 (4)
0x040|                        14 33 fa 90            |        .3..    |      [7]: "1980-09-28T01:00:00Z" (338950800) transition_time 0x48-0x4b.7 (4)
0x040|                                    15 23 eb 90|            .#..|      [8]: "1981-03-29T01:00:00Z" (354675600) transition_time 0x4c-0x4f.7 (4)
0x050|16 13 dc 90                                    |....            |      [9]: "1981-09-27T01:00:00Z" (370400400) transition_time 0x50-0x53.7 (4)
0x050|            17 03 cd 90                        |    ....        |      [10]: "1982-03-28T01:00:00Z" (386125200) transition_time 0x54-0x57.7 (4)
0x050|                        17 f3 be 90            |        ....    |      [11]: "1982-09-26T01:00:00Z" (401850000) transition_time 0x58-0x5b.7 (4)
0x050|                                    18 e3 af 90|            ....|      [12]: "1983-03-27T01:00:00Z" (417574800) transition_time 0x5c-0x5f.7 (4)
0x060|19 d3 a0 90                                    |....            |      [13]: "1983-09-25T01:00:00Z" (433299600) transition_time 0x60-0x63.7 (4)
0x060|            1a c3 91 90                        |    ....        |      [14]: "1984-03-25T01:00:00Z" (449024400) transition_time 0x64-0x67.7 (4)
0x060|                        1b bc bd 10            |        ....    |      [15]: "1984-09-30T01:00:00Z" (465354000) transition_time 0x68-0x6b.7 (4)
0x060|                                    1c ac ae 10|            ....|      [16]: "1985-03-31T01:00:00Z" (481078800) transition_time 0x6c-0x6f.7 (4)
0x070|1d 9c 9f 10                                    |....            |      [17]: "1985-09-29T01:00:00Z" (496803600) transition_time 0x70-0x73.7 (4)
0x070|            1e 8c 90 10                        |    ....        |      [18]: "1986-03-30T01:00:00Z" (512528400) transition_time 0x74-0x77.7 (4)
0x070|                        1f 7c 81 10            |        .|..    |      [19]: "1986-09-28T01:00:00Z" (528253200) transition_time 0x78-0x7b.7 (4)
0x070|                                    20 6c 72 10|             lr.|      [20]: "1987-03-29T01:00:00Z" (543978000) transition_time 0x7c-0x7f.7 (4)
0x080|21 5c 63 10                                    |!\c.            |      [21]: "1987-09-27T01:00:00Z" (559702800) transition_time 0x80-0x83.7 (4)
0x080|            22 4c 54 10                        |    "LT.        |      [22]: "1988-03-27T01:00:00Z" (575427600) transition_time 0x84-0x87.7 (4)
0x080|                        23 3c 45 10            |        #<E.    |      [23]: "1988-09-25T01:00:00Z" (591152400) transition_time 0x88-0x8b.7 (4)
0x080|                                    24 2c 36 10|            $,6.|      [24]: "1989-03-26T01:00:00Z" (606877200) transition_time 0x8c-0x8f.7 (4)
0x090|25 1c 27 10                                    |%.'.            |      [25]: "1989-09-24T01:00:00Z" (622602000) transition_time 0x90-0x93.7 (4)
0x090|            26 0c 18 10                        |    &...        |      [26]: "1990-03-25T01:00:00Z" (638326800) transition_time 0x94-0x97.7 (4)
0x090|                        27 05 43 90            |        '.C.    |      [27]: "1990-09-30T01:00:00Z" (654656400) transition_time 0x98-0x9b.7 (4)
0x090|                                    27 f5 34 90|            '.4.|      [28]: "1991-03-31T01:00:00Z" (670381200) transition_time 0x9c-0x9f.7 (4)
0x0a0|28 e5 25 90                                    |(.%.            |      [29]: "1991-09-29T01:00:00Z" (686106000) transition_time 0xa0-0xa3.7 (4)
0x0a0|            29 d5 16 90                        |    )...        |      [30]: "1992-03-29T01:00:00Z" (701830800) transition_time 0xa4-0xa7.7 (4)
0x0a0|                        2a c5 07 90            |        *...    |      [31]: "1992-09-27T01:00:00Z" (717555600) transition_time 0xa8-0xab.7 (4)
0x0a0|                                    2b b4 f8 90|            +...|      [32]: "1993-03-28T01:00:00Z" (733280400) transition_time 0xac-0xaf.7 (4)
0x0b0|2c a4 e9 90                                    |,...            |      [33]: "1993-09-26T01:00:00Z" (749005200) transition_time 0xb0-0xb3.7 (4)
0x0b0|            2d 94 da 90                        |    -...        |      [34]: "1994-03-27T01:00:00Z" (764730000) transition_time 0xb4-0xb7.7 (4)
0x0b0|                        2e 84 cb 90            |        ....    |      [35]: "1994-09-25T01:00:00Z" (780454800) transition_time 0xb8-0xbb.7 (4)
0x0b0|                                    2f 74 bc 90|            /t..|      [36]: "1995-03-26T01:00:00Z" (796179600) transition_time 0xbc-0xbf.7 (4)
0x0c0|30 64 ad 90                                    |0d..            |      [37]: "1995-09-24T01:00:00Z" (811904400) transition_time 0xc0-0xc3.7 (4)
0x0c0|            31 5d d9 10                        |    1]..        |      [38]: "1996-03-31T01:00:00Z" (828234000) transition_time 0xc4-0xc7.7 (4)
0x0c0|                        32 72 b4 10            |        2r..    |      [39]: "1996-10-27T01:00:00Z" (846378000) transition_time 0xc8-0xcb.7 (4)
0x0c0|                                    33 3d bb 10|            3=..|      [40]: "1997-03-30T01:00:00Z" (859683600) transition_time 0xcc-0xcf.7 (4)
0x0d0|34 52 96 10                                    |4R..            |      [41]: "1997-10-26T01:00:00Z" (877827600) transition_time 0xd0-0xd3.7 (4)
0x0d0|            35 1d 9d 10                        |    5...        |      [42]: "1998-03-29T01:00:00Z" (891133200) transition_time 0xd4-0xd7.7 (4)
0x0d0|                        36 32 78 10            |        62x.    |      [43]: "1998-10-25T01:00:00Z" (909277200) transition_time 0xd8-0xdb.7 (4)
0x0d0|                                    36 fd 7f 10|            6...|      [44]: "1999-03-28T01:00:00Z" (922582800) transition_time 0xdc-0xdf.7 (4)
0x0e0|38 1b 94 90                                    |8...            |      [45]: "1999-10-31T01:00:00Z" (941331600) transition_time 0xe0-0xe3.7 (4)
0x0e0|            38 dd 61 10                        |    8.a.        |      [46]: "2000-03-26T01:00:00Z" (954032400) transition_time 0xe4-0xe7.7 (4)
0x0e0|                        39 fb 76 90            |        9.v.    |      [47]: "2000-10-29T01:00:00Z" (972781200) transition_time 0xe8-0xeb.7 (4)
0x0e0|                                    3a bd 43 10|            :.C.|      [48]: "2001-03-25T01:00:00Z" (985482000) transition_time 0xec-0xef.7 (4)
0x0f0|3b db 58 90                                    |;.X.            |      [49]: "2001-10-28T01:00:00Z" (1004230800) transition_time 0xf0-0xf3.7 (4)
0x0f0|            3c a6 5f 90                        |    <._.        |      [50]: "2002-03-31T01:00:00Z" (1017536400) transition_time 0xf4-0xf7.7 (4)
0x0f0|                        3d bb 3a 90            |        =.:.    |      [51]: "2002-10-27T01:00:00Z" (1035680400) transition_time 0xf8-0xfb.7 (4)
0x0f0|                                    3e 86 41 90|            >.A.|      [52]: "2003-03-30T01:00:00Z" (1048986000) transition_time 0xfc-0xff.7 (4)
0x100|3f 9b 1c 90                                    |?...            |      [53]: "2003-10-26T01:00:00Z" (1067130000) transition_time 0x100-0x103.7 (4)
0x100|            40 66 23 90                        |    @f#.        |      [54]: "2004-03-28T01:00:00Z" (1080435600) transition_time 0x104-0x107.7 (4)
0x100|                        41 84 39 10            |        A.9.    |      [55]: "2004-10-31T01:00:00Z" (1099184400) transition_time 0x108-0x10b.7 (4)
0x100|                                    42 46 05 90|            BF..|      [56]: "2005-03-27T01:00:00Z" (1111885200) transition_time 0x10c-0x10f.7 (4)
0x110|43 64 1b 10                                    |Cd..            |      [57]: "2005-10-30T01:00:00Z" (1130634000) transition_time 0x110-0x113.7 (4)
0x110|            44 25 e7 90                        |    D%..        |      [58]: "2006-03-26T01:00:00Z" (1143334800) transition_time 0x114-0x117.7 (4)
0x110|                        45 43 fd 10            |        EC..    |      [59]: "2006-10-29T01:00:00Z" (1162083600) transition_time 0x118-0x11b.7 (4)
0x110|                                    46 05 c9 90|            F...|      [60]: "2007-03-25T01:00:00Z" (1174784400) transition_time 0x11c-0x11f.7 (4)
0x120|47 23 df 10                                    |G#..            |      [61]: "2007-10-28T01:00:00Z" (1193533200) transition_time 0x120-0x123.7 (4)
0x120|            47 ee e6 10                        |    G...        |      [62]: "2008-03-30T01:00:00Z" (1206838800) transition_time 0x124-0x127.7 (4)
0x120|                        49 03 c1 10            |        I...    |      [63]: "2008-10-26T01:00:00Z" (1224982800) transition_time 0x128-0x12b.7 (4)
0x120|                                    49 ce c8 10|            I...|      [64]: "2009-03-29T01:00:00Z" (1238288400) transition_time 0x12c-0x12f.7 (4)
0x130|4a e3 a3 10                                    |J...            |      [65]: "2009-10-25T01:00:00Z" (1256432400) transition_time 0x130-0x133.7 (4)
0x130|            4b ae aa 10                        |    K...        |      [66]: "2010-03-28T01:00:00Z" (1269738000) transition_time 0x134-0x137.7 (4)
0x130|                        4c cc bf 90            |        L...    |      [67]: "2010-10-31T01:00:00Z" (1288486800) transition_time 0x138-0x13b.7 (4)
0x130|                                    4d 8e 8c 10|            M...|      [68]: "2011-03-27T01:00:00Z" (1301187600) transition_time 0x13c-0x13f.7 (4)
0x140|4e ac a1 90                                    |N...            |      [69]: "2011-10-30T01:00:00Z" (1319936400) transition_time 0x140-0x143.7 (4)
0x140|            4f 6e 6e 10                        |    Onn.        |      [70]: "2012-03-25T01:00:00Z" (1332637200) transition_time 0x144-0x147.7 (4)
0x140|                        50 8c 83 90            |        P...    |      [71]: "2012-10-28T01:00:00Z" (1351386000) transition_time 0x148-0x14b.7 (4)
0x140|                                    51 57 8a 90|            QW..|      [72]: "2013-03-31T01:00:00Z" (1364691600) transition_time 0x14c-0x14f.7 (4)
0x150|52 6c 65 90                                    |Rle.            |      [73]: "2013-10-27T01:00:00Z" (1382835600) transition_time 0x150-0x153.7 (4)
0x150|            53 37 6c 90                        |    S7l.        |      [74]: "2014-03-30T01:00:00Z" (1396141200) transition_time 0x154-0x157.7 (4)
0x150|                        54 4c 47 90            |        TLG.    |      [75]: "2014-10-26T01:00:00Z" (1414285200) transition_time 0x158-0x15b.7 (4)
0x150|                                    55 17 4e 90|            U.N.|      [76]: "2015-03-29T01:00:00Z" (1427590800) transition_time 0x15c-0x15f.7 (4)
0x160|56 2c 29 90                                    |V,).            |      [77]: "2015-10-25T01:00:00Z" (1445734800) transition_time 0x160-0x163.7 (4)
0x160|            56 f7 30 90                        |    V.0.        |      [78]: "2016-03-27T01:00:00Z" (1459040400) transition_time 0x164-0x167.7 (4)
0x160|                        58 15 46 10            |        X.F.    |      [79]: "2016-10-30T01:00:00Z" (1477789200) transition_time 0x168-0x16b.7 (4)
0x160|                                    58 d7 12 90|            X...|      [80]: "2017-03-26T01:00:00Z" (1490490000) transition_time 0x16c-0x16f.7 (4)
0x170|59 f5 28 10                                    |Y.(.            |      [81]: "2017-10-29T01:00:00Z" (1509238800) transition_time 0x170-0x173.7 (4)
0x170|            5a b6 f4 90                        |    Z...        |      [82]: "2018-03-25T01:00:00Z" (1521939600) transition_time 0x174-0x177.7 (4)
0x170|                        5b d5 0a 10            |        [...    |      [83]: "2018-10-28T01:00:00Z" (1540688400) transition_time 0x178-0x17b.7 (4)
0x170|                                    5c a0 11 10|            \...|      [84]: "2019-03-31T01:00:00Z" (1553994000) transition_time 0x17c-0x17f.7 (4)
0x180|5d b4 ec 10                                    |]...            |      [85]: "2019-10-27T01:00:00Z" (1572138000) transition_time 0x180-0x183.7 (4)
0x180|            5e 7f f3 10                        |    ^...        |      [86]: "2020-03-29T01:00:00Z" (1585443600) transition_time 0x184-0x187.7 (4)
0x180|                        5f 94 ce 10            |        _...    |      [87]: "2020-10-25T01:00:00Z" (1603587600) transition_time 0x188-0x18b.7 (4)
0x180|                                    60 5f d5 10|            `_..|      [88]: "2021-03-28T01:00:00Z" (1616893200) transition_time 0x18c-0x18f.7 (4)
0x190|61 7d ea 90                                    |a}..            |      [89]: "2021-10-31T01:00:00Z" (1635642000) transition_time 0x190-0x193.7 (4)
0x190|            62 3f b7 10                        |    b?..        |      [90]: "2022-03-27T01:00:00Z" (1648342800) transition_time 0x194-0x197.7 (4)
0x190|                        63 5d cc 90            |        c]..    |      [91]: "2022-10-30T01:00:00Z" (1667091600) transition_time 0x198-0x19b.7 (4)
0x190|                                    64 1f 99 10|            d...|      [92]: "2023-03-26T01:00:00Z" (1679792400) transition_time 0x19c-0x19f.7 (4)
0x1a0|65 3d ae 90                                    |e=..            |      [93]: "2023-10-29T01:00:00Z" (1698541200) transition_time 0x1a0-0x1a3.7 (4)
0x1a0|            66 08 b5 90                        |    f...        |      [94]: "2024-03-31T01:00:00Z" (1711846800) transition_time 0x1a4-0x1a7.7 (4)
0x1a0|                        67 1d 90 90            |        g...    |      [95]: "2024-10-27T01:00:00Z" (1729990800) transition_time 0x1a8-0x1ab.7 (4)
0x1a0|                                    67 e8 97 90|            g...|      [96]: "2025-03-30T01:00:00Z" (1743296400) transition_time 0x1ac-0x1af.7 (4)
0x1b0|68 fd 72 90                                    |h.r.            |      [97]: "2025-10-26T01:00:00Z" (1761440400) transition_time 0x1b0-0x1b3.7 (4)
0x1b0|            69 c8 79 90                        |    i.y.        |      [98]: "2026-03-29T01:00:00Z" (1774746000) transition_time 0x1b4-0x1b7.7 (4)
0x1b0|                        6a dd 54 90            |        j.T.    |      [99]: "2026-10-25T01:00:00Z" (1792890000) transition_time 0x1b8-0x1bb.7 (4)
0x1b0|                                    6b a8 5b 90|            k.[.|      [100]: "2027-03-28T01:00:00Z" (1806195600) transition_time 0x1bc-0x1bf.7 (4)
0x1c0|6c c6 71 10                                    |l.q.            |      [101]: "2027-10-31T01:00:00Z" (1824944400) transition_time 0x1c0-0x1c3.7 (4)
0x1c0|            6d 88 3d 90                        |    m.=.        |      [102]: "2028-03-26T01:00:00Z" (1837645200) transition_time 0x1c4-0x1c7.7 (4)
0x1c0|                        6e a6 53 10            |        n.S.    |      [103]: "2028-10-29T01:00:00Z" (1856394000) transition_time 0x1c8-0x1cb.7 (4)
0x1c0|                                    6f 68 1f 90|            oh..|      [104]: "2029-03-25T01:00:00Z" (1869094800) transition_time 0x1cc-0x1cf.7 (4)
0x1d0|70 86 35 10                                    |p.5.            |      [105]: "2029-10-28T01:00:00Z" (1887843600) transition_time 0x1d0-0x1d3.7 (4)
0x1d0|            71 51 3c 10                        |    qQ<.        |      [106]: "2030-03-31T01:00:00Z" (1901149200) transition_time 0x1d4-0x1d7.7 (4)
0x1d0|                        72 66 17 10            |        rf..    |      [107]: "2030-10-27T01:00:00Z" (1919293200) transition_time 0x1d8-0x1db.7 (4)
0x1d0|                                    73 31 1e 10|            s1..|      [108]: "2031-03-30T01:00:00Z" (1932598800) transition_time 0x1dc-0x1df.7 (4)
0x1e0|74 45 f9 10                                    |tE..            |      [109]: "2031-10-26T01:00:00Z" (1950742800) transition_time 0x1e0-0x1e3.7 (4)
0x1e0|            75 11 00 10                        |    u...        |      [110]: "2032-03-28T01:00:00Z" (1964048400) transition_time 0x1e4-0x1e7.7 (4)
0x1e0|                        76 2f 15 90            |        v/..    |      [111]: "2032-10-31T01:00:00Z" (1982797200) transition_time 0x1e8-0x1eb.7 (4)
0x1e0|                                    76 f0 e2 10|            v...|      [112]: "2033-03-27T01:00:00Z" (1995498000) transition_time 0x1ec-0x1ef.7 (4)
0x1f0|78 0e f7 90                                    |x...            |      [113]: "2033-10-30T01:00:00Z" (2014246800) transition_time 0x1f0-0x1f3.7 (4)
0x1f0|            78 d0 c4 10                        |    x...        |      [114]: "2034-03-26T01:00:00Z" (2026947600) transition_time 0x1f4-0x1f7.7 (4)
0x1f0|                        79 ee d9 90            |        y...    |      [115]: "2034-10-29T01:00:00Z" (2045696400) transition_time 0x1f8-0x1fb.7 (4)
0x1f0|                                    7a b0 a6 10|            z...|      [116]: "2035-03-25T01:00:00Z" (2058397200) transition_time 0x1fc-0x1ff.7 (4)
0x200|7b ce bb 90                                    |{...            |      [117]: "2035-10-28T01:00:00Z" (2077146000) transition_time 0x200-0x203.7 (4)
0x200|            7c 99 c2 90                        |    |...        |      [118]: "2036-03-30T01:00:00Z" (2090451600) transition_time 0x204-0x207.7 (4)
0x200|                        7d ae 9d 90            |        }...    |      [119]: "2036-10-26T01:00:00Z" (2108595600) transition_time 0x208-0x20b.7 (4)
0x200|                                    7e 79 a4 90|            ~y..|      [120]: "2037-03-29T01:00:00Z" (2121901200) transition_time 0x20c-0x20f.7 (4)
0x210|7f 8e 7f 90                                    |....            |      [121]: "2037-10-25T01:00:00Z" (2140045200) transition_time 0x210-0x213.7 (4)
     |                                               |                |    transition_types[0:122]: 0x214-0x28d.7 (122)
0x210|            01                                 |    .           |      [0]: 1 transition_type 0x214-0x214.7 (1)
0x210|               00                              |     .          |      [1]: 0 transition_type 0x215-0x215.7 (1)
0x210|                  01                           |      .         |      [2]: 1 transition_type 0x216-0x216.7 (1)
0x210|                     00                        |       .        |      [3]: 0 transition_type 0x217-0x217.7 (1)
0x210|                        01                     |        .       |      [4]: 1 transition_type 0x218-0x218.7 (1)
0x210|                           00                  |         .      |      [5]: 0 transition_type 0x219-0x219.7 (1)
0x210|                              01               |          .     |      [6]: 1 transition_type 0x21a-0x21a.7 (1)
0x210|                                 00            |           .    |      [7]: 0 transition_type 0x21b-0x21b.7 (1)
0x210|                                    01         |            .   |      [8]: 1 transition_type 0x21c-0x21c.7 (1)
0x210|                                       00      |             .  |      [9]: 0 transition_type 0x21d-0x21d.7 (1)
0x210|                                          01   |              . |      [10]: 1 transition_type 0x21e-0x21e.7 (1)
0x210|                                             00|               .|      [11]: 0 transition_type 0x21f-0x21f.7 (1)
0x220|01                                             |.               |      [12]: 1 transition_type 0x220-0x220.7 (1)
0x220|   00                                          | .              |      [13]: 0 transition_type 0x221-0x221.7 (1)
0x220|      01                                       |  .             |      [14]: 1 transition_type 0x222-0x222.7 (1)
0x220|         00                                    |   .            |      [15]: 0 transition_type 0x223-0x223.7 (1)
0x220|            01                                 |    .           |      [16]: 1 transition_type 0x224-0x224.7 (1)
0x220|               00                              |     .          |      [17]: 0 transition_type 0x225-0x225.7 (1)
0x220|                  01                           |      .         |      [18]: 1 transition_type 0x226-0x226.7 (1)
0x220|                     00                        |       .        |      [19]: 0 transition_type 0x227-0x227.7 (1)
0x220|                        01                     |        .       |      [20]: 1 transition_type 0x228-0x228.7 (1)
0x220|                           00                  |         .      |      [21]: 0 transition_type 0x229-0x229.7 (1)
0x220|                              01               |          .     |      [22]: 1 transition_type 0x22a-0x22a.7 (1)
0x220|                                 00            |           .    |      [23]: 0 transition_type 0x22b-0x22b.7 (1)
0x220|                                    01         |            .   |      [24]: 1 transition_type 0x22c-0x22c.7 (1)
0x220|                                       00      |             .  |      [25]: 0 transition_type 0x22d-0x22d.7 (1)
0x220|                                          01   |              . |      [26]: 1 transition_type 0x22e-0x22e.7 (1)
0x220|                                             00|               .|      [27]: 0 transition_type 0x22f-0x22f.7 (1)
0x230|01                                             |.               |      [28]: 1 transition_type 0x230-0x230.7 (1)
0x230|   00                                          | .              |      [29]: 0 transition_type 0x231-0x231.7 (1)
0x230|      01                                       |  .             |      [30]: 1 transition_type 0x232-0x232.7 (1)
0x230|         00                                    |   .            |      [31]: 0 transition_type 0x233-0x233.7 (1)
0x230|            01                                 |    .           |      [32]: 1 transition_type 0x234-0x234.7 (1)
0x230|               00                              |     .          |      [33]: 0 transition_type 0x235-0x235.7 (1)
0x230|                  01                           |      .         |      [34]: 1 transition_type 0x236-0x236.7 (1)
0x230|                     00                        |       .        |      [35]: 0 transition_type 0x237-0x237.7 (1)
0x230|                        01                     |        .       |      [36]: 1 transition_type 0x238-0x238.7 (1)
0x230|                           00                  |         .      |      [37]: 0 transition_type 0x239-0x239.7 (1)
0x230|                              01               |          .     |      [38]: 1 transition_type 0x23a-0x23a.7 (1)
0x230|                                 00            |           .    |      [39]: 0 transition_type 0x23b-0x23b.7 (1)
0x230|                                    01         |            .   |      [40]: 1 transition_type 0x23c-0x23c.7 (1)
0x230|                                       00      |             .  |      [41]: 0 transition_type 0x23d-0x23d.7 (1)
0x230|                                          01   |              . |      [42]: 1 transition_type 0x23e-0x23e.7 (1)
0x230|                                             00|               .|      [43]: 0 transition_type 0x23f-0x23f.7 (1)
0x240|01                                             |.               |      [44]: 1 transition_type 0x240-0x240.7 (1)
0x240|   00                                          | .              |      [45]: 0 transition_type 0x241-0x241.7 (1)
0x240|      01                                       |  .             |      [46]: 1 transition_type 0x242-0x242.7 (1)
0x240|         00                                    |   .            |      [47]: 0 transition_type 0x243-0x243.7 (1)
0x240|            01                                 |    .           |      [48]: 1 transition_type 0x244-0x244.7 (1)
0x240|               00                              |     .          |      [49]: 0 transition_type 0x245-0x245.7 (1)
0x240|                  01                           |      .         |      [50]: 1 transition_type 0x246-0x246.7 (1)
0x240|                     00                        |       .        |      [51]: 0 transition_type 0x247-0x247.7 (1)
0x240|                        01                     |        .       |      [52]: 1 transition_type 0x248-0x248.7 (1)
0x240|                           00                  |         .      |      [53]: 0 transition_type 0x249-0x249.7 (1)
0x240|                              01               |          .     |      [54]: 1 transition_type 0x24a-0x24a.7 (1)
0x240|                                 00            |           .    |      [55]: 0 transition_type 0x24b-0x24b.7 (1)
0x240|                                    01         |            .   |      [56]: 1 transition_type 0x24c-0x24c.7 (1)
0x240|                                       00      |             .  |      [57]: 0 transition_type 0x24d-0x24d.7 (1)
0x240|                                          01   |              . |      [58]: 1 transition_type 0x24e-0x24e.7 (1)
0x240|                                             00|               .|      [59]: 0 transition_type 0x24f-0x24f.7 (1)
0x250|01                                             |.               |      [60]: 1 transition_type 0x250-0x250.7 (1)
0x250|   00                                          | .              |      [61]: 0 transition_type 0x251-0x251.7 (1)
0x250|      01                                       |  .             |      [62]: 1 transition_type 0x252-0x252.7 (1)
0x250|         00                                    |   .            |      [63]: 0 transition_type 0x253-0x253.7 (1)
0x250|            01                                 |    .           |      [64]: 1 transition_type 0x254-0x254.7 (1)
0x250|               00                              |     .          |      [65]: 0 transition_type 0x255-0x255.7 (1)
0x250|                  01                           |      .         |      [66]: 1 transition_type 0x256-0x256.7 (1)
0x250|                     00                        |       .        |      [67]: 0 transition_type 0x257-0x257.7 (1)
0x250|                        01                     |        .       |      [68]: 1 transition_type 0x258-0x258.7 (1)
0x250|                           00                  |         .      |      [69]: 0 transition_type 0x259-0x259.7 (1)
0x250|                              01               |          .     |      [70]: 1 transition_type 0x25a-0x25a.7 (1)
0x250|                                 00            |           .    |      [71]: 0 transition_type 0x25b-0x25b.7 (1)
0x250|                                    01         |            .   |      [72]: 1 transition_type 0x25c-0x25c.7 (1)
0x250|                                       00      |             .  |      [73]: 0 transition_type 0x25d-0x25d.7 (1)
0x250|                                          01   |              . |      [74]: 1 transition_type 0x25e-0x25e.7 (1)
0x250|                                             00|               .|      [75]: 0 transition_type 0x25f-0x25f.7 (1)
0x260|01                                             |.               |      [76]: 1 transition_type 0x260-0x260.7 (1)
0x260|   00                                          | .              |      [77]: 0 transition_type 0x261-0x261.7 (1)
0x260|      01                                       |  .             |      [78]: 1 transition_type 0x262-0x262.7 (1)
0x260|         00                                    |   .            |      [79]: 0 transition_type 0x263-0x263.7 (1)
0x260|            01                                 |    .           |      [80]: 1 transition_type 0x264-0x264.7 (1)
0x260|               00                              |     .          |      [81]: 0 transition_type 0x265-0x265.7 (1)
0x260|                  01                           |      .         |      [82]: 1 transition_type 0x266-0x266.7 (1)
0x260|                     00                        |       .        |      [83]: 0 transition_type 0x267-0x267.7 (1)
0x260|                        01                     |        .       |      [84]: 1 transition_type 0x268-0x268.7 (1)
0x260|                           00                  |         .      |      [85]: 0 transition_type 0x269-0x269.7 (1)
0x260|                              01               |          .     |      [86]: 1 transition_type 0x26a-0x26a.7 (1)
0x260|                                 00            |           .    |      [87]: 0 transition_type 0x26b-0x26b.7 (1)
0x260|                                    01         |            .   |      [88]: 1 transition_type 0x26c-0x26c.7 (1)
0x260|                                       00      |             .  |      [89]: 0 transition_type 0x26d-0x26d.7 (1)
0x260|                                          01   |              . |      [90]: 1 transition_type 0x26e-0x26e.7 (1)
0x260|                                             00|               .|      [91]: 0 transition_type 0x26f-0x26f.7 (1)
0x270|01                                             |.               |      [92]: 1 transition_type 0x270-0x270.7 (1)
0x270|   00                                          | .              |      [93]: 0 transition_type 0x271-0x271.7 (1)
0x270|      01                                       |  .             |      [94]: 1 transition_type 0x272-0x272.7 (1)
0x270|         00                                    |   .            |      [95]: 0 transition_type 0x273-0x273.7 (1)
0x270|            01                                 |    .           |      [96]: 1 transition_type 0x274-0x274.7 (1)
0x270|               00                              |     .          |      [97]: 0 transition_type 0x275-0x275.7 (1)
0x270|                  01                           |      .         |      [98]: 1 transition_type 0x276-0x276.7 (1)
0x270|                     00                        |       .        |      [99]: 0 transition_type 0x277-0x277.7 (1)
0x270|                        01                     |        .       |      [100]: 1 transition_type 0x278-0x278.7 (1)
0x270|                           00                  |         .      |      [101]: 0 transition_type 0x279-0x279.7 (1)
0x270|                              01               |          .     |      [102]: 1 transition_type 0x27a-0x27a.7 (1)
0x270|                                 00            |           .    |      [103]: 0 transition_type 0x27b-0x27b.7 (1)
0x270|                                    01         |            .   |      [104]: 1 transition_type 0x27c-0x27c.7 (1)
0x270|                                       00      |             .  |      [105]: 0 transition_type 0x27d-0x27d.7 (1)
0x270|                                          01   |              . |      [106]: 1 transition_type 0x27e-0x27e.7 (1)
0x270|                                             00|               .|      [107]: 0 transition_type 0x27f-0x27f.7 (1)
0x280|01                                             |.               |      [108]: 1 transition_type 0x280-0x280.7 (1)
0x280|   00                                          | .              |      [109]: 0 transition_type 0x281-0x281.7 (1)
0x280|      01                                       |  .             |      [110]: 1 transition_type 0x282-0x282.7 (1)
0x280|         00                                    |   .            |      [111]: 0 transition_type 0x283-0x283.7 (1)
0x280|            01                                 |    .           |      [112]: 1 transition_type 0x284-0x284.7 (1)
0x280|               00                              |     .          |      [113]: 0 transition_type 0x285-0x285.7 (1)
0x280|                  01                           |      .         |      [114]: 1 transition_type 0x286-0x286.7 (1)
0x280|                     00                        |       .        |      [115]: 0 transition_type 0x287-0x287.7 (1)
0x280|                        01                     |        .       |      [116]: 1 transition_type 0x288-0x288.7 (1)
0x280|                           00                  |         .      |      [117]: 0 transition_type 0x289-0x289.7 (1)
0x280|                              01               |          .     |      [118]: 1 transition_type 0x28a-0x28a.7 (1)
0x280|                                 00            |           .    |      [119]: 0 transition_type 0x28b-0x28b.7 (1)
0x280|                                    01         |            .   |      [120]: 1 transition_type 0x28c-0x28c.7 (1)
0x280|                                       00      |             .  |      [121]: 0 transition_type 0x28d-0x28d.7 (1)
     |                                               |                |    local_time_type_records[0:4]: 0x28e-0x2a5.7 (24)
     |                                               |                |      [0]{}: local_time_type 0x28e-0x293.7 (6)
0x280|                                          00 00|              ..|        utoff: 0 (valid) 0x28e-0x291.7 (4)
0x290|00 00                                          |..              |
0x290|      00                                       |  .             |        dst: 0 (valid) 0x292-0x292.7 (1)
0x290|         05                                    |   .            |        idx: 5 (valid) 0x293-0x293.7 (1)
     |                                               |                |      [1]{}: local_time_type 0x294-0x299.7 (6)
0x290|            00 00 0e 10                        |    ....        |        utoff: 3600 (valid) 0x294-0x297.7 (4)
0x290|                        01                     |        .       |        dst: 1 (valid) 0x298-0x298.7 (1)
0x290|                           00                  |         .      |        idx: 0 (valid) 0x299-0x299.7 (1)
     |                                               |                |      [2]{}: local_time_type 0x29a-0x29f.7 (6)
0x290|                              00 00 0e 10      |          ....  |        utoff: 3600 (valid) 0x29a-0x29d.7 (4)
0x290|                                          01   |              . |        dst: 1 (valid) 0x29e-0x29e.7 (1)
0x290|                                             00|               .|        idx: 0 (valid) 0x29f-0x29f.7 (1)
     |                                               |                |      [3]{}: local_time_type 0x2a0-0x2a5.7 (6)
0x2a0|00 00 00 00                                    |....            |        utoff: 0 (valid) 0x2a0-0x2a3.7 (4)
0x2a0|            00                                 |    .           |        dst: 0 (valid) 0x2a4-0x2a4.7 (1)
0x2a0|               05                              |     .          |        idx: 5 (valid) 0x2a5-0x2a5.7 (1)
     |                                               |                |    time_zone_designations[0:2]: 0x2a6-0x2ae.7 (9)
0x2a0|                  57 45 53 54 00               |      WEST.     |      [0]: "WEST" time_zone_designation 0x2a6-0x2aa.7 (5)
0x2a0|                                 57 45 54 00   |           WET. |      [1]: "WET" time_zone_designation 0x2ab-0x2ae.7 (4)
     |                                               |                |    leap_second_records[0:0]: 0x2af-NA (0)
     |                                               |                |    standard_wall_indicators[0:4]: 0x2af-0x2b2.7 (4)
0x2a0|                                             01|               .|      [0]: 1 standard_wall_indicator (valid) 0x2af-0x2af.7 (1)
0x2b0|01                                             |.               |      [1]: 1 standard_wall_indicator (valid) 0x2b0-0x2b0.7 (1)
0x2b0|   01                                          | .              |      [2]: 1 standard_wall_indicator (valid) 0x2b1-0x2b1.7 (1)
0x2b0|      01                                       |  .             |      [3]: 1 standard_wall_indicator (valid) 0x2b2-0x2b2.7 (1)
     |                                               |                |    ut_local_indicators[0:4]: 0x2b3-0x2b6.7 (4)
0x2b0|         01                                    |   .            |      [0]: 1 ut_local_indicator (valid) 0x2b3-0x2b3.7 (1)
0x2b0|            01                                 |    .           |      [1]: 1 ut_local_indicator (valid) 0x2b4-0x2b4.7 (1)
0x2b0|               01                              |     .          |      [2]: 1 ut_local_indicator (valid) 0x2b5-0x2b5.7 (1)
0x2b0|                  01                           |      .         |      [3]: 1 ut_local_indicator (valid) 0x2b6-0x2b6.7 (1)
     |                                               |                |  v2plusheader{}: 0x2b7-0x2e2.7 (44)
0x2b0|                     54 5a 69 66               |       TZif     |    magic: 0x545a6966 (valid) 0x2b7-0x2ba.7 (4)
0x2b0|                                 32            |           2    |    ver: "2" (0x32) (valid) 0x2bb-0x2bb.7 (1)
0x2b0|                                    00 00 00 00|            ....|    reserved: raw bits 0x2bc-0x2ca.7 (15)
0x2c0|00 00 00 00 00 00 00 00 00 00 00               |...........     |
0x2c0|                                 00 00 00 04   |           .... |    isutcnt: 4 0x2cb-0x2ce.7 (4)
0x2c0|                                             00|               .|    isstdcnt: 4 0x2cf-0x2d2.7 (4)
0x2d0|00 00 04                                       |...             |
0x2d0|         00 00 00 00                           |   ....         |    leapcnt: 0 0x2d3-0x2d6.7 (4)
0x2d0|                     00 00 00 7a               |       ...z     |    timecnt: 122 0x2d7-0x2da.7 (4)
0x2d0|                                 00 00 00 04   |           .... |    typecnt: 4 0x2db-0x2de.7 (4)
0x2d0|                                             00|               .|    charcnt: 9 0x2df-0x2e2.7 (4)
0x2e0|00 00 09                                       |...             |
     |                                               |                |  v2plusdatablock{}: 0x2e3-0x755.7 (1139)
     |                                               |                |    transition_times[0:122]: 0x2e3-0x6b2.7 (976)
0x2e0|         00 00 00 00 0d a4 63 90               |   ......c.     |      [0]: "1977-04-03T01:00:00Z" (228877200) transition_time 0x2e3-0x2ea.7 (8)
0x2e0|                                 00 00 00 00 0e|           .....|      [1]: "1977-09-25T01:00:00Z" (243997200) transition_time 0x2eb-0x2f2.7 (8)
0x2f0|8b 1a 10                                       |...             |
0x2f0|         00 00 00 00 0f 84 45 90               |   ......E.     |      [2]: "1978-04-02T01:00:00Z" (260326800) transition_time 0x2f3-0x2fa.7 (8)
0x2f0|                                 00 00 00 00 10|           .....|      [3]: "1978-10-01T01:00:00Z" (276051600) transition_time 0x2fb-0x302.7 (8)
0x300|74 36 90                                       |t6.             |
0x300|         00 00 00 00 11 64 27 90               |   .....d'.     |      [4]: "1979-04-01T01:00:00Z" (291776400) transition_time 0x303-0x30a.7 (8)
0x300|                                 00 00 00 00 12|           .....|      [5]: "1979-09-30T01:00:00Z" (307501200) transition_time 0x30b-0x312.7 (8)
0x310|54 18 90                                       |T..             |
0x310|         00 00 00 00 13 4d 44 10               |   .....MD.     |      [6]: "1980-04-06T01:00:00Z" (323830800) transition_time 0x313-0x31a.7 (8)
0x310|                                 00 00 00 00 14|           .....|      [7]: "1980-09-28T01:00:00Z" (338950800) transition_time 0x31b-0x322.7 (8)
0x320|33 fa 90                                       |3..             |
0x320|         00 00 00 00 15 23 eb 90               |   .....#..     |      [8]: "1981-03-29T01:00:00Z" (354675600) transition_time 0x323-0x32a.7 (8)
0x320|                                 00 00 00 00 16|           .....|      [9]: "1981-09-27T01:00:00Z" (370400400) transition_time 0x32b-0x332.7 (8)
0x330|13 dc 90                                       |...             |
0x330|         00 00 00 00 17 03 cd 90               |   ........     |      [10]: "1982-03-28T01:00:00Z" (386125200) transition_time 0x333-0x33a.7 (8)
0x330|                                 00 00 00 00 17|           .....|      [11]: "1982-09-26T01:00:00Z" (401850000) transition_time 0x33b-0x342.7 (8)
0x340|f3 be 90                                       |...             |
0x340|         00 00 00 00 18 e3 af 90               |   ........     |      [12]: "1983-03-27T01:00:00Z" (417574800) transition_time 0x343-0x34a.7 (8)
0x340|                                 00 00 00 00 19|           .....|      [13]: "1983-09-25T01:00:00Z" (433299600) transition_time 0x34b-0x352.7 (8)
0x350|d3 a0 90                                       |...             |
0x350|         00 00 00 00 1a c3 91 90               |   ........     |      [14]: "1984-03-25T01:00:00Z" (449024400) transition_time 0x353-0x35a.7 (8)
0x350|                                 00 00 00 00 1b|           .....|      [15]: "1984-09-30T01:00:00Z" (465354000) transition_time 0x35b-0x362.7 (8)
0x360|bc bd 10                                       |...             |
0x360|         00 00 00 00 1c ac ae 10               |   ........     |      [16]: "1985-03-31T01:00:00Z" (481078800) transition_time 0x363-0x36a.7 (8)
0x360|                                 00 00 00 00 1d|           .....|      [17]: "1985-09-29T01:00:00Z" (496803600) transition_time 0x36b-0x372.7 (8)
0x370|9c 9f 10                                       |...             |
0x370|         00 00 00 00 1e 8c 90 10               |   ........     |      [18]: "1986-03-30T01:00:00Z" (512528400) transition_time 0x373-0x37a.7 (8)
0x370|                                 00 00 00 00 1f|           .....|      [19]: "1986-09-28T01:00:00Z" (528253200) transition_time 0x37b-0x382.7 (8)
0x380|7c 81 10                                       ||..             |
0x380|         00 00 00 00 20 6c 72 10               |   .... lr.     |      [20]: "1987-03-29T01:00:00Z" (543978000) transition_time 0x383-0x38a.7 (8)
0x380|                                 00 00 00 00 21|           ....!|      [21]: "1987-09-27T01:00:00Z" (559702800) transition_time 0x38b-0x392.7 (8)
0x390|5c 63 10                                       |\c.             |
0x390|         00 00 00 00 22 4c 54 10               |   ...."LT.     |      [22]: "1988-03-27T01:00:00Z" (575427600) transition_time 0x393-0x39a.7 (8)
0x390|                                 00 00 00 00 23|           ....#|      [23]: "1988-09-25T01:00:00Z" (591152400) transition_time 0x39b-0x3a2.7 (8)
0x3a0|3c 45 10                                       |<E.             |
0x3a0|         00 00 00 00 24 2c 36 10               |   ....$,6.     |      [24]: "1989-03-26T01:00:00Z" (606877200) transition_time 0x3a3-0x3aa.7 (8)
0x3a0|                                 00 00 00 00 25|           ....%|      [25]: "1989-09-24T01:00:00Z" (622602000) transition_time 0x3ab-0x3b2.7 (8)
0x3b0|1c 27 10                                       |.'.             |
0x3b0|         00 00 00 00 26 0c 18 10               |   ....&...     |      [26]: "1990-03-25T01:00:00Z" (638326800) transition_time 0x3b3-0x3ba.7 (8)
0x3b0|                                 00 00 00 00 27|           ....'|      [27]: "1990-09-30T01:00:00Z" (654656400) transition_time 0x3bb-0x3c2.7 (8)
0x3c0|05 43 90                                       |.C.             |
0x3c0|         00 00 00 00 27 f5 34 90               |   ....'.4.     |      [28]: "1991-03-31T01:00:00Z" (670381200) transition_time 0x3c3-0x3ca.7 (8)
0x3c0|                                 00 00 00 00 28|           ....(|      [29]: "1991-09-29T01:00:00Z" (686106000) transition_time 0x3cb-0x3d2.7 (8)
0x3d0|e5 25 90                                       |.%.             |
0x3d0|         00 00 00 00 29 d5 16 90               |   ....)...     |      [30]: "1992-03-29T01:00:00Z" (701830800) transition_time 0x3d3-0x3da.7 (8)
0x3d0|                                 00 00 00 00 2a|           ....*|      [31]: "1992-09-27T01:00:00Z" (717555600) transition_time 0x3db-0x3e2.7 (8)
0x3e0|c5 07 90                                       |...             |
0x3e0|         00 00 00 00 2b b4 f8 90               |   ....+...     |      [32]: "1993-03-28T01:00:00Z" (733280400) transition_time 0x3e3-0x3ea.7 (8)
0x3e0|                                 00 00 00 00 2c|           ....,|      [33]: "1993-09-26T01:00:00Z" (749005200) transition_time 0x3eb-0x3f2.7 (8)
0x3f0|a4 e9 90                                       |...             |
0x3f0|         00 00 00 00 2d 94 da 90               |   ....-...     |      [34]: "1994-03-27T01:00:00Z" (764730000) transition_time 0x3f3-0x3fa.7 (8)
0x3f0|                                 00 00 00 00 2e|           .....|      [35]: "1994-09-25T01:00:00Z" (780454800) transition_time 0x3fb-0x402.7 (8)
0x400|84 cb 90                                       |...             |
0x400|         00 00 00 00 2f 74 bc 90               |   ..../t..     |      [36]: "1995-03-26T01:00:00Z" (796179600) transition_time 0x403-0x40a.7 (8)
0x400|                                 00 00 00 00 30|           ....0|      [37]: "1995-09-24T01:00:00Z" (811904400) transition_time 0x40b-0x412.7 (8)
0x410|64 ad 90                                       |d..             |
0x410|         00 00 00 00 31 5d d9 10               |   ....1]..     |      [38]: "1996-03-31T01:00:00Z" (828234000) transition_time 0x413-0x41a.7 (8)
0x410|                                 00 00 00 00 32|           ....2|      [39]: "1996-10-27T01:00:00Z" (846378000) transition_time 0x41b-0x422.7 (8)
0x420|72 b4 10                                       |r..             |
0x420|         00 00 00 00 33 3d bb 10               |   ....3=..     |      [40]: "1997-03-30T01:00:00Z" (859683600) transition_time 0x423-0x42a.7 (8)
0x420|                                 00 00 00 00 34|           ....4|      [41]: "1997-10-26T01:00:00Z" (877827600) transition_time 0x42b-0x432.7 (8)
0x430|52 96 10                                       |R..             |
0x430|         00 00 00 00 35 1d 9d 10               |   ....5...     |      [42]: "1998-03-29T01:00:00Z" (891133200) transition_time 0x433-0x43a.7 (8)
0x430|                                 00 00 00 00 36|           ....6|      [43]: "1998-10-25T01:00:00Z" (909277200) transition_time 0x43b-0x442.7 (8)
0x440|32 78 10                                       |2x.             |
0x440|         00 00 00 00 36 fd 7f 10               |   ....6...     |      [44]: "1999-03-28T01:00:00Z" (922582800) transition_time 0x443-0x44a.7 (8)
0x440|                                 00 00 00 00 38|           ....8|      [45]: "1999-10-31T01:00:00Z" (941331600) transition_time 0x44b-0x452.7 (8)
0x450|1b 94 90                                       |...             |
0x450|         00 00 00 00 38 dd 61 10               |   ....8.a.     |      [46]: "2000-03-26T01:00:00Z" (954032400) transition_time 0x453-0x45a.7 (8)
0x450|                                 00 00 00 00 39|           ....9|      [47]: "2000-10-29T01:00:00Z" (972781200) transition_time 0x45b-0x462.7 (8)
0x460|fb 76 90                                       |.v.             |
0x460|         00 00 00 00 3a bd 43 10               |   ....:.C.     |      [48]: "2001-03-25T01:00:00Z" (985482000) transition_time 0x463-0x46a.7 (8)
0x460|                                 00 00 00 00 3b|           ....;|      [49]: "2001-10-28T01:00:00Z" (1004230800) transition_time 0x46b-0x472.7 (8)
0x470|db 58 90                                       |.X.             |
0x470|         00 00 00 00 3c a6 5f 90               |   ....<._.     |      [50]: "2002-03-31T01:00:00Z" (1017536400) transition_time 0x473-0x47a.7 (8)
0x470|                                 00 00 00 00 3d|           ....=|      [51]: "2002-10-27T01:00:00Z" (1035680400) transition_time 0x47b-0x482.7 (8)
0x480|bb 3a 90                                       |.:.             |
0x480|         00 00 00 00 3e 86 41 90               |   ....>.A.     |      [52]: "2003-03-30T01:00:00Z" (1048986000) transition_time 0x483-0x48a.7 (8)
0x480|                                 00 00 00 00 3f|           ....?|      [53]: "2003-10-26T01:00:00Z" (1067130000) transition_time 0x48b-0x492.7 (8)
0x490|9b 1c 90                                       |...             |
0x490|         00 00 00 00 40 66 23 90               |   ....@f#.     |      [54]: "2004-03-28T01:00:00Z" (1080435600) transition_time 0x493-0x49a.7 (8)
0x490|                                 00 00 00 00 41|           ....A|      [55]: "2004-10-31T01:00:00Z" (1099184400) transition_time 0x49b-0x4a2.7 (8)
0x4a0|84 39 10                                       |.9.             |
0x4a0|         00 00 00 00 42 46 05 90               |   ....BF..     |      [56]: "2005-03-27T01:00:00Z" (1111885200) transition_time 0x4a3-0x4aa.7 (8)
0x4a0|                                 00 00 00 00 43|           ....C|      [57]: "2005-10-30T01:00:00Z" (1130634000) transition_time 0x4ab-0x4b2.7 (8)
0x4b0|64 1b 10                                       |d..             |
0x4b0|         00 00 00 00 44 25 e7 90               |   ....D%..     |      [58]: "2006-03-26T01:00:00Z" (1143334800) transition_time 0x4b3-0x4ba.7 (8)
0x4b0|                                 00 00 00 00 45|           ....E|      [59]: "2006-10-29T01:00:00Z" (1162083600) transition_time 0x4bb-0x4c2.7 (8)
0x4c0|43 fd 10                                       |C..             |
0x4c0|         00 00 00 00 46 05 c9 90               |   ....F...     |      [60]: "2007-03-25T01:00:00Z" (1174784400) transition_time 0x4c3-0x4ca.7 (8)
0x4c0|                                 00 00 00 00 47|           ....G|      [61]: "2007-10-28T01:00:00Z" (1193533200) transition_time 0x4cb-0x4d2.7 (8)
0x4d0|23 df 10                                       |#..             |
0x4d0|         00 00 00 00 47 ee e6 10               |   ....G...     |      [62]: "2008-03-30T01:00:00Z" (1206838800) transition_time 0x4d3-0x4da.7 (8)
0x4d0|                                 00 00 00 00 49|           ....I|      [63]: "2008-10-26T01:00:00Z" (1224982800) transition_time 0x4db-0x4e2.7 (8)
0x4e0|03 c1 10                                       |...             |
0x4e0|         00 00 00 00 49 ce c8 10               |   ....I...     |      [64]: "2009-03-29T01:00:00Z" (1238288400) transition_time 0x4e3-0x4ea.7 (8)
0x4e0|                                 00 00 00 00 4a|           ....J|      [65]: "2009-10-25T01:00:00Z" (1256432400) transition_time 0x4eb-0x4f2.7 (8)
0x4f0|e3 a3 10                                       |...             |
0x4f0|         00 00 00 00 4b ae aa 10               |   ....K...     |      [66]: "2010-03-28T01:00:00Z" (1269738000) transition_time 0x4f3-0x4fa.7 (8)
0x4f0|                                 00 00 00 00 4c|           ....L|      [67]: "2010-10-31T01:00:00Z" (1288486800) transition_time 0x4fb-0x502.7 (8)
0x500|cc bf 90                                       |...             |
0x500|         00 00 00 00 4d 8e 8c 10               |   ....M...     |      [68]: "2011-03-27T01:00:00Z" (1301187600) transition_time 0x503-0x50a.7 (8)
0x500|                                 00 00 00 00 4e|           ....N|      [69]: "2011-10-30T01:00:00Z" (1319936400) transition_time 0x50b-0x512.7 (8)
0x510|ac a1 90                                       |...             |
0x510|         00 00 00 00 4f 6e 6e 10               |   ....Onn.     |      [70]: "2012-03-25T01:00:00Z" (1332637200) transition_time 0x513-0x51a.7 (8)
0x510|                                 00 00 00 00 50|           ....P|      [71]: "2012-10-28T01:00:00Z" (1351386000) transition_time 0x51b-0x522.7 (8)
0x520|8c 83 90                                       |...             |
0x520|         00 00 00 00 51 57 8a 90               |   ....QW..     |      [72]: "2013-03-31T01:00:00Z" (1364691600) transition_time 0x523-0x52a.7 (8)
0x520|                                 00 00 00 00 52|           ....R|      [73]: "2013-10-27T01:00:00Z" (1382835600) transition_time 0x52b-0x532.7 (8)
0x530|6c 65 90                                       |le.             |
0x530|         00 00 00 00 53 37 6c 90               |   ....S7l.     |      [74]: "2014-03-30T01:00:00Z" (1396141200) transition_time 0x533-0x53a.7 (8)
0x530|                                 00 00 00 00 54|           ....T|      [75]: "2014-10-26T01:00:00Z" (1414285200) transition_time 0x53b-0x542.7 (8)
0x540|4c 47 90                                       |LG.             |
0x540|         00 00 00 00 55 17 4e 90               |   ....U.N.     |      [76]: "2015-03-29T01:00:00Z" (1427590800) transition_time 0x543-0x54a.7 (8)
0x540|                                 00 00 00 00 56|           ....V|      [77]: "2015-10-25T01:00:00Z" (1445734800) transition_time 0x54b-0x552.7 (8)
0x550|2c 29 90                                       |,).             |
0x550|         00 00 00 00 56 f7 30 90               |   ....V.0.     |      [78]: "2016-03-27T01:00:00Z" (1459040400) transition_time 0x553-0x55a.7 (8)
0x550|                                 00 00 00 00 58|           ....X|      [79]: "2016-10-30T01:00:00Z" (1477789200) transition_time 0x55b-0x562.7 (8)
0x560|15 46 10                                       |.F.             |
0x560|         00 00 00 00 58 d7 12 90               |   ....X...     |      [80]: "2017-03-26T01:00:00Z" (1490490000) transition_time 0x563-0x56a.7 (8)
0x560|                                 00 00 00 00 59|           ....Y|      [81]: "2017-10-29T01:00:00Z" (1509238800) transition_time 0x56b-0x572.7 (8)
0x570|f5 28 10                                       |.(.             |
0x570|         00 00 00 00 5a b6 f4 90               |   ....Z...     |      [82]: "2018-03-25T01:00:00Z" (1521939600) transition_time 0x573-0x57a.7 (8)
0x570|                                 00 00 00 00 5b|           ....[|      [83]: "2018-10-28T01:00:00Z" (1540688400) transition_time 0x57b-0x582.7 (8)
0x580|d5 0a 10                                       |...             |
0x580|         00 00 00 00 5c a0 11 10               |   ....\...     |      [84]: "2019-03-31T01:00:00Z" (1553994000) transition_time 0x583-0x58a.7 (8)
0x580|                                 00 00 00 00 5d|           ....]|      [85]: "2019-10-27T01:00:00Z" (1572138000) transition_time 0x58b-0x592.7 (8)
0x590|b4 ec 10                                       |...             |
0x590|         00 00 00 00 5e 7f f3 10               |   ....^...     |      [86]: "2020-03-29T01:00:00Z" (1585443600) transition_time 0x593-0x59a.7 (8)
0x590|                                 00 00 00 00 5f|           ...._|      [87]: "2020-10-25T01:00:00Z" (1603587600) transition_time 0x59b-0x5a2.7 (8)
0x5a0|94 ce 10                                       |...             |
0x5a0|         00 00 00 00 60 5f d5 10               |   ....`_..     |      [88]: "2021-03-28T01:00:00Z" (1616893200) transition_time 0x5a3-0x5aa.7 (8)
0x5a0|                                 00 00 00 00 61|           ....a|      [89]: "2021-10-31T01:00:00Z" (1635642000) transition_time 0x5ab-0x5b2.7 (8)
0x5b0|7d ea 90                                       |}..             |
0x5b0|         00 00 00 00 62 3f b7 10               |   ....b?..     |      [90]: "2022-03-27T01:00:00Z" (1648342800) transition_time 0x5b3-0x5ba.7 (8)
0x5b0|                                 00 00 00 00 63|           ....c|      [91]: "2022-10-30T01:00:00Z" (1667091600) transition_time 0x5bb-0x5c2.7 (8)
0x5c0|5d cc 90                                       |]..             |
0x5c0|         00 00 00 00 64 1f 99 10               |   ....d...     |      [92]: "2023-03-26T01:00:00Z" (1679792400) transition_time 0x5c3-0x5ca.7 (8)
0x5c0|                                 00 00 00 00 65|           ....e|      [93]: "2023-10-29T01:00:00Z" (1698541200) transition_time 0x5cb-0x5d2.7 (8)
0x5d0|3d ae 90                                       |=..             |
0x5d0|         00 00 00 00 66 08 b5 90               |   ....f...     |      [94]: "2024-03-31T01:00:00Z" (1711846800) transition_time 0x5d3-0x5da.7 (8)
0x5d0|                                 00 00 00 00 67|           ....g|      [95]: "2024-10-27T01:00:00Z" (1729990800) transition_time 0x5db-0x5e2.7 (8)
0x5e0|1d 90 90                                       |...             |
0x5e0|         00 00 00 00 67 e8 97 90               |   ....g...     |      [96]: "2025-03-30T01:00:00Z" (1743296400) transition_time 0x5e3-0x5ea.7 (8)
0x5e0|                                 00 00 00 00 68|           ....h|      [97]: "2025-10-26T01:00:00Z" (1761440400) transition_time 0x5eb-0x5f2.7 (8)
0x5f0|fd 72 90                                       |.r.             |
0x5f0|         00 00 00 00 69 c8 79 90               |   ....i.y.     |      [98]: "2026-03-29T01:00:00Z" (1774746000) transition_time 0x5f3-0x5fa.7 (8)
0x5f0|                                 00 00 00 00 6a|           ....j|      [99]: "2026-10-25T01:00:00Z" (1792890000) transition_time 0x5fb-0x602.7 (8)
0x600|dd 54 90                                       |.T.             |
0x600|         00 00 00 00 6b a8 5b 90               |   ....k.[.     |      [100]: "2027-03-28T01:00:00Z" (1806195600) transition_time 0x603-0x60a.7 (8)
0x600|                                 00 00 00 00 6c|           ....l|      [101]: "2027-10-31T01:00:00Z" (1824944400) transition_time 0x60b-0x612.7 (8)
0x610|c6 71 10                                       |.q.             |
0x610|         00 00 00 00 6d 88 3d 90               |   ....m.=.     |      [102]: "2028-03-26T01:00:00Z" (1837645200) transition_time 0x613-0x61a.7 (8)
0x610|                                 00 00 00 00 6e|           ....n|      [103]: "2028-10-29T01:00:00Z" (1856394000) transition_time 0x61b-0x622.7 (8)
0x620|a6 53 10                                       |.S.             |
0x620|         00 00 00 00 6f 68 1f 90               |   ....oh..     |      [104]: "2029-03-25T01:00:00Z" (1869094800) transition_time 0x623-0x62a.7 (8)
0x620|                                 00 00 00 00 70|           ....p|      [105]: "2029-10-28T01:00:00Z" (1887843600) transition_time 0x62b-0x632.7 (8)
0x630|86 35 10                                       |.5.             |
0x630|         00 00 00 00 71 51 3c 10               |   ....qQ<.     |      [106]: "2030-03-31T01:00:00Z" (1901149200) transition_time 0x633-0x63a.7 (8)
0x630|                                 00 00 00 00 72|           ....r|      [107]: "2030-10-27T01:00:00Z" (1919293200) transition_time 0x63b-0x642.7 (8)
0x640|66 17 10                                       |f..             |
0x640|         00 00 00 00 73 31 1e 10               |   ....s1..     |      [108]: "2031-03-30T01:00:00Z" (1932598800) transition_time 0x643-0x64a.7 (8)
0x640|                                 00 00 00 00 74|           ....t|      [109]: "2031-10-26T01:00:00Z" (1950742800) transition_time 0x64b-0x652.7 (8)
0x650|45 f9 10                                       |E..             |
0x650|         00 00 00 00 75 11 00 10               |   ....u...     |      [110]: "2032-03-28T01:00:00Z" (1964048400) transition_time 0x653-0x65a.7 (8)
0x650|                                 00 00 00 00 76|           ....v|      [111]: "2032-10-31T01:00:00Z" (1982797200) transition_time 0x65b-0x662.7 (8)
0x660|2f 15 90                                       |/..             |
0x660|         00 00 00 00 76 f0 e2 10               |   ....v...     |      [112]: "2033-03-27T01:00:00Z" (1995498000) transition_time 0x663-0x66a.7 (8)
0x660|                                 00 00 00 00 78|           ....x|      [113]: "2033-10-30T01:00:00Z" (2014246800) transition_time 0x66b-0x672.7 (8)
0x670|0e f7 90                                       |...             |
0x670|         00 00 00 00 78 d0 c4 10               |   ....x...     |      [114]: "2034-03-26T01:00:00Z" (2026947600) transition_time 0x673-0x67a.7 (8)
0x670|                                 00 00 00 00 79|           ....y|      [115]: "2034-10-29T01:00:00Z" (2045696400) transition_time 0x67b-0x682.7 (8)
0x680|ee d9 90                                       |...             |
0x680|         00 00 00 00 7a b0 a6 10               |   ....z...     |      [116]: "2035-03-25T01:00:00Z" (2058397200) transition_time 0x683-0x68a.7 (8)
0x680|                                 00 00 00 00 7b|           ....{|      [117]: "2035-10-28T01:00:00Z" (2077146000) transition_time 0x68b-0x692.7 (8)
0x690|ce bb 90                                       |...             |
0x690|         00 00 00 00 7c 99 c2 90               |   ....|...     |      [118]: "2036-03-30T01:00:00Z" (2090451600) transition_time 0x693-0x69a.7 (8)
0x690|                                 00 00 00 00 7d|           ....}|      [119]: "2036-10-26T01:00:00Z" (2108595600) transition_time 0x69b-0x6a2.7 (8)
0x6a0|ae 9d 90                                       |...             |
0x6a0|         00 00 00 00 7e 79 a4 90               |   ....~y..     |      [120]: "2037-03-29T01:00:00Z" (2121901200) transition_time 0x6a3-0x6aa.7 (8)
0x6a0|                                 00 00 00 00 7f|           .....|      [121]: "2037-10-25T01:00:00Z" (2140045200) transition_time 0x6ab-0x6b2.7 (8)
0x6b0|8e 7f 90                                       |...             |
     |                                               |                |    transition_types[0:122]: 0x6b3-0x72c.7 (122)
0x6b0|         01                                    |   .            |      [0]: 1 transition_type 0x6b3-0x6b3.7 (1)
0x6b0|            00                                 |    .           |      [1]: 0 transition_type 0x6b4-0x6b4.7 (1)
0x6b0|               01                              |     .          |      [2]: 1 transition_type 0x6b5-0x6b5.7 (1)
0x6b0|                  00                           |      .         |      [3]: 0 transition_type 0x6b6-0x6b6.7 (1)
0x6b0|                     01                        |       .        |      [4]: 1 transition_type 0x6b7-0x6b7.7 (1)
0x6b0|                        00                     |        .       |      [5]: 0 transition_type 0x6b8-0x6b8.7 (1)
0x6b0|                           01                  |         .      |      [6]: 1 transition_type 0x6b9-0x6b9.7 (1)
0x6b0|                              00               |          .     |      [7]: 0 transition_type 0x6ba-0x6ba.7 (1)
0x6b0|                                 01            |           .    |      [8]: 1 transition_type 0x6bb-0x6bb.7 (1)
0x6b0|                                    00         |            .   |      [9]: 0 transition_type 0x6bc-0x6bc.7 (1)
0x6b0|                                       01      |             .  |      [10]: 1 transition_type 0x6bd-0x6bd.7 (1)
0x6b0|                                          00   |              . |      [11]: 0 transition_type 0x6be-0x6be.7 (1)
0x6b0|                                             01|               .|      [12]: 1 transition_type 0x6bf-0x6bf.7 (1)
0x6c0|00                                             |.               |      [13]: 0 transition_type 0x6c0-0x6c0.7 (1)
0x6c0|   01                                          | .              |      [14]: 1 transition_type 0x6c1-0x6c1.7 (1)
0x6c0|      00                                       |  .             |      [15]: 0 transition_type 0x6c2-0x6c2.7 (1)
0x6c0|         01                                    |   .            |      [16]: 1 transition_type 0x6c3-0x6c3.7 (1)
0x6c0|            00                                 |    .           |      [17]: 0 transition_type 0x6c4-0x6c4.7 (1)
0x6c0|               01                              |     .          |      [18]: 1 transition_type 0x6c5-0x6c5.7 (1)
0x6c0|                  00                           |      .         |      [19]: 0 transition_type 0x6c6-0x6c6.7 (1)
0x6c0|                     01                        |       .        |      [20]: 1 transition_type 0x6c7-0x6c7.7 (1)
0x6c0|                        00                     |        .       |      [21]: 0 transition_type 0x6c8-0x6c8.7 (1)
0x6c0|                           01                  |         .      |      [22]: 1 transition_type 0x6c9-0x6c9.7 (1)
0x6c0|                              00               |          .     |      [23]: 0 transition_type 0x6ca-0x6ca.7 (1)
0x6c0|                                 01            |           .    |      [24]: 1 transition_type 0x6cb-0x6cb.7 (1)
0x6c0|                                    00         |            .   |      [25]: 0 transition_type 0x6cc-0x6cc.7 (1)
0x6c0|                                       01      |             .  |      [26]: 1 transition_type 0x6cd-0x6cd.7 (1)
0x6c0|                                          00   |              . |      [27]: 0 transition_type 0x6ce-0x6ce.7 (1)
0x6c0|                                             01|               .|      [28]: 1 transition_type 0x6cf-0x6cf.7 (1)
0x6d0|00                                             |.               |      [29]: 0 transition_type 0x6d0-0x6d0.7 (1)
0x6d0|   01                                          | .              |      [30]: 1 transition_type 0x6d1-0x6d1.7 (1)
0x6d0|      00                                       |  .             |      [31]: 0 transition_type 0x6d2-0x6d2.7 (1)
0x6d0|         01                                    |   .            |      [32]: 1 transition_type 0x6d3-0x6d3.7 (1)
0x6d0|            00                                 |    .           |      [33]: 0 transition_type 0x6d4-0x6d4.7 (1)
0x6d0|               01                              |     .          |      [34]: 1 transition_type 0x6d5-0x6d5.7 (1)
0x6d0|                  00                           |      .         |      [35]: 0 transition_type 0x6d6-0x6d6.7 (1)
0x6d0|                     01                        |       .        |      [36]: 1 transition_type 0x6d7-0x6d7.7 (1)
0x6d0|                        00                     |        .       |      [37]: 0 transition_type 0x6d8-0x6d8.7 (1)
0x6d0|                           01                  |         .      |      [38]: 1 transition_type 0x6d9-0x6d9.7 (1)
0x6d0|                              00               |          .     |      [39]: 0 transition_type 0x6da-0x6da.7 (1)
0x6d0|                                 01            |           .    |      [40]: 1 transition_type 0x6db-0x6db.7 (1)
0x6d0|                                    00         |            .   |      [41]: 0 transition_type 0x6dc-0x6dc.7 (1)
0x6d0|                                       01      |             .  |      [42]: 1 transition_type 0x6dd-0x6dd.7 (1)
0x6d0|                                          00   |              . |      [43]: 0 transition_type 0x6de-0x6de.7 (1)
0x6d0|                                             01|               .|      [44]: 1 transition_type 0x6df-0x6df.7 (1)
0x6e0|00                                             |.               |      [45]: 0 transition_type 0x6e0-0x6e0.7 (1)
0x6e0|   01                                          | .              |      [46]: 1 transition_type 0x6e1-0x6e1.7 (1)
0x6e0|      00                                       |  .             |      [47]: 0 transition_type 0x6e2-0x6e2.7 (1)
0x6e0|         01                                    |   .            |      [48]: 1 transition_type 0x6e3-0x6e3.7 (1)
0x6e0|            00                                 |    .           |      [49]: 0 transition_type 0x6e4-0x6e4.7 (1)
0x6e0|               01                              |     .          |      [50]: 1 transition_type 0x6e5-0x6e5.7 (1)
0x6e0|                  00                           |      .         |      [51]: 0 transition_type 0x6e6-0x6e6.7 (1)
0x6e0|                     01                        |       .        |      [52]: 1 transition_type 0x6e7-0x6e7.7 (1)
0x6e0|                        00                     |        .       |      [53]: 0 transition_type 0x6e8-0x6e8.7 (1)
0x6e0|                           01                  |         .      |      [54]: 1 transition_type 0x6e9-0x6e9.7 (1)
0x6e0|                              00               |          .     |      [55]: 0 transition_type 0x6ea-0x6ea.7 (1)
0x6e0|                                 01            |           .    |      [56]: 1 transition_type 0x6eb-0x6eb.7 (1)
0x6e0|                                    00         |            .   |      [57]: 0 transition_type 0x6ec-0x6ec.7 (1)
0x6e0|                                       01      |             .  |      [58]: 1 transition_type 0x6ed-0x6ed.7 (1)
0x6e0|                                          00   |              . |      [59]: 0 transition_type 0x6ee-0x6ee.7 (1)
0x6e0|                                             01|               .|      [60]: 1 transition_type 0x6ef-0x6ef.7 (1)
0x6f0|00                                             |.               |      [61]: 0 transition_type 0x6f0-0x6f0.7 (1)
0x6f0|   01                                          | .              |      [62]: 1 transition_type 0x6f1-0x6f1.7 (1)
0x6f0|      00                                       |  .             |      [63]: 0 transition_type 0x6f2-0x6f2.7 (1)
0x6f0|         01                                    |   .            |      [64]: 1 transition_type 0x6f3-0x6f3.7 (1)
0x6f0|            00                                 |    .           |      [65]: 0 transition_type 0x6f4-0x6f4.7 (1)
0x6f0|               01                              |     .          |      [66]: 1 transition_type 0x6f5-0x6f5.7 (1)
0x6f0|                  00                           |      .         |      [67]: 0 transition_type 0x6f6-0x6f6.7 (1)
0x6f0|                     01                        |       .        |      [68]: 1 transition_type 0x6f7-0x6f7.7 (1)
0x6f0|                        00                     |        .       |      [69]: 0 transition_type 0x6f8-0x6f8.7 (1)
0x6f0|                           01                  |         .      |      [70]: 1 transition_type 0x6f9-0x6f9.7 (1)
0x6f0|                              00               |          .     |      [71]: 0 transition_type 0x6fa-0x6fa.7 (1)
0x6f0|                                 01            |           .    |      [72]: 1 transition_type 0x6fb-0x6fb.7 (1)
0x6f0|                                    00         |            .   |      [73]: 0 transition_type 0x6fc-0x6fc.7 (1)
0x6f0|                                       01      |             .  |      [74]: 1 transition_type 0x6fd-0x6fd.7 (1)
0x6f0|                                          00   |              . |      [75]: 0 transition_type 0x6fe-0x6fe.7 (1)
0x6f0|                                             01|               .|      [76]: 1 transition_type 0x6ff-0x6ff.7 (1)
0x700|00                                             |.               |      [77]: 0 transition_type 0x700-0x700.7 (1)
0x700|   01                                          | .              |      [78]: 1 transition_type 0x701-0x701.7 (1)
0x700|      00                                       |  .             |      [79]: 0 transition_type 0x702-0x702.7 (1)
0x700|         01                                    |   .            |      [80]: 1 transition_type 0x703-0x703.7 (1)
0x700|            00                                 |    .           |      [81]: 0 transition_type 0x704-0x704.7 (1)
0x700|               01                              |     .          |      [82]: 1 transition_type 0x705-0x705.7 (1)
0x700|                  00                           |      .         |      [83]: 0 transition_type 0x706-0x706.7 (1)
0x700|                     01                        |       .        |      [84]: 1 transition_type 0x707-0x707.7 (1)
0x700|                        00                     |        .       |      [85]: 0 transition_type 0x708-0x708.7 (1)
0x700|                           01                  |         .      |      [86]: 1 transition_type 0x709-0x709.7 (1)
0x700|                              00               |          .     |      [87]: 0 transition_type 0x70a-0x70a.7 (1)
0x700|                                 01            |           .    |      [88]: 1 transition_type 0x70b-0x70b.7 (1)
0x700|                                    00         |            .   |      [89]: 0 transition_type 0x70c-0x70c.7 (1)
0x700|                                       01      |             .  |      [90]: 1 transition_type 0x70d-0x70d.7 (1)
0x700|                                          00   |              . |      [91]: 0 transition_type 0x70e-0x70e.7 (1)
0x700|                                             01|               .|      [92]: 1 transition_type 0x70f-0x70f.7 (1)
0x710|00                                             |.               |      [93]: 0 transition_type 0x710-0x710.7 (1)
0x710|   01                                          | .              |      [94]: 1 transition_type 0x711-0x711.7 (1)
0x710|      00                                       |  .             |      [95]: 0 transition_type 0x712-0x712.7 (1)
0x710|         01                                    |   .            |      [96]: 1 transition_type 0x713-0x713.7 (1)
0x710|            00                                 |    .           |      [97]: 0 transition_type 0x714-0x714.7 (1)
0x710|               01                              |     .          |      [98]: 1 transition_type 0x715-0x715.7 (1)
0x710|                  00                           |      .         |      [99]: 0 transition_type 0x716-0x716.7 (1)
0x710|                     01                        |       .        |      [100]: 1 transition_type 0x717-0x717.7 (1)
0x710|                        00                     |        .       |      [101]: 0 transition_type 0x718-0x718.7 (1)
0x710|                           01                  |         .      |      [102]: 1 transition_type 0x719-0x719.7 (1)
0x710|                              00               |          .     |      [103]: 0 transition_type 0x71a-0x71a.7 (1)
0x710|                                 01            |           .    |      [104]: 1 transition_type 0x71b-0x71b.7 (1)
0x710|                                    00         |            .   |      [105]: 0 transition_type 0x71c-0x71c.7 (1)
0x710|                                       01      |             .  |      [106]: 1 transition_type 0x71d-0x71d.7 (1)
0x710|                                          00   |              . |      [107]: 0 transition_type 0x71e-0x71e.7 (1)
0x710|                                             01|               .|      [108]: 1 transition_type 0x71f-0x71f.7 (1)
0x720|00                                             |.               |      [109]: 0 transition_type 0x720-0x720.7 (1)
0x720|   01                                          | .              |      [110]: 1 transition_type 0x721-0x721.7 (1)
0x720|      00                                       |  .             |      [111]: 0 transition_type 0x722-0x722.7 (1)
0x720|         01                                    |   .            |      [112]: 1 transition_type 0x723-0x723.7 (1)
0x720|            00                                 |    .           |      [113]: 0 transition_type 0x724-0x724.7 (1)
0x720|               01                              |     .          |      [114]: 1 transition_type 0x725-0x725.7 (1)
0x720|                  00                           |      .         |      [115]: 0 transition_type 0x726-0x726.7 (1)
0x720|                     01                        |       .        |      [116]: 1 transition_type 0x727-0x727.7 (1)
0x720|                        00                     |        .       |      [117]: 0 transition_type 0x728-0x728.7 (1)
0x720|                           01                  |         .      |      [118]: 1 transition_type 0x729-0x729.7 (1)
0x720|                              00               |          .     |      [119]: 0 transition_type 0x72a-0x72a.7 (1)
0x720|                                 01            |           .    |      [120]: 1 transition_type 0x72b-0x72b.7 (1)
0x720|                                    00         |            .   |      [121]: 0 transition_type 0x72c-0x72c.7 (1)
     |                                               |                |    local_time_type_records[0:4]: 0x72d-0x744.7 (24)
     |                                               |                |      [0]{}: local_time_type 0x72d-0x732.7 (6)
0x720|                                       00 00 00|             ...|        utoff: 0 (valid) 0x72d-0x730.7 (4)
0x730|00                                             |.               |
0x730|   00                                          | .              |        dst: 0 (valid) 0x731-0x731.7 (1)
0x730|      05                                       |  .             |        idx: 5 (valid) 0x732-0x732.7 (1)
     |                                               |                |      [1]{}: local_time_type 0x733-0x738.7 (6)
0x730|         00 00 0e 10                           |   ....         |        utoff: 3600 (valid) 0x733-0x736.7 (4)
0x730|                     01                        |       .        |        dst: 1 (valid) 0x737-0x737.7 (1)
0x730|                        00                     |        .       |        idx: 0 (valid) 0x738-0x738.7 (1)
     |                                               |                |      [2]{}: local_time_type 0x739-0x73e.7 (6)
0x730|                           00 00 0e 10         |         ....   |        utoff: 3600 (valid) 0x739-0x73c.7 (4)
0x730|                                       01      |             .  |        dst: 1 (valid) 0x73d-0x73d.7 (1)
0x730|                                          00   |              . |        idx: 0 (valid) 0x73e-0x73e.7 (1)
     |                                               |                |      [3]{}: local_time_type 0x73f-0x744.7 (6)
0x730|                                             00|               .|        utoff: 0 (valid) 0x73f-0x742.7 (4)
0x740|00 00 00                                       |...             |
0x740|         00                                    |   .            |        dst: 0 (valid) 0x743-0x743.7 (1)
0x740|            05                                 |    .           |        idx: 5 (valid) 0x744-0x744.7 (1)
     |                                               |                |    time_zone_designations[0:2]: 0x745-0x74d.7 (9)
0x740|               57 45 53 54 00                  |     WEST.      |      [0]: "WEST" time_zone_designation 0x745-0x749.7 (5)
0x740|                              57 45 54 00      |          WET.  |      [1]: "WET" time_zone_designation 0x74a-0x74d.7 (4)
     |                                               |                |    leap_second_records[0:0]: 0x74e-NA (0)
     |                                               |                |    standard_wall_indicators[0:4]: 0x74e-0x751.7 (4)
0x740|                                          01   |              . |      [0]: 1 standard_wall_indicator (valid) 0x74e-0x74e.7 (1)
0x740|                                             01|               .|      [1]: 1 standard_wall_indicator (valid) 0x74f-0x74f.7 (1)
0x750|01                                             |.               |      [2]: 1 standard_wall_indicator (valid) 0x750-0x750.7 (1)
0x750|   01                                          | .              |      [3]: 1 standard_wall_indicator (valid) 0x751-0x751.7 (1)
     |                                               |                |    ut_local_indicators[0:4]: 0x752-0x755.7 (4)
0x750|      01                                       |  .             |      [0]: 1 ut_local_indicator (valid) 0x752-0x752.7 (1)
0x750|         01                                    |   .            |      [1]: 1 ut_local_indicator (valid) 0x753-0x753.7 (1)
0x750|            01                                 |    .           |      [2]: 1 ut_local_indicator (valid) 0x754-0x754.7 (1)
0x750|               01                              |     .          |      [3]: 1 ut_local_indicator (valid) 0x755-0x755.7 (1)
     |                                               |                |  footer{}: 0x756-0x770.7 (27)
0x750|                  0a                           |      .         |    nl1: 10 (valid) 0x756-0x756.7 (1)
0x750|                     57 45 54 30 57 45 53 54 2c|       WET0WEST,|    tz_string: "WET0WEST,M3.5.0/1,M10.5.0" 0x757-0x76f.7 (25)
0x760|4d 33 2e 35 2e 30 2f 31 2c 4d 31 30 2e 35 2e 30|M3.5.0/1,M10.5.0|
0x770|0a|                                            |.|              |    nl2: 10 (valid) 0x770-0x770.7 (1)
