$ fq -d tzif dv Winamac
     |00 01 02 03 04 05 06 07 08 09 0a 0b 0c 0d 0e 0f|0123456789abcdef|.{}: Winamac (tzif) 0x0-0x77f.7 (1920)
     |                                               |                |  v1header{}: 0x0-0x2b.7 (44)
0x000|54 5a 69 66                                    |TZif            |    magic: 0x545a6966 (valid) 0x0-0x3.7 (4)
0x000|            32                                 |    2           |    ver: "2" (0x32) (valid) 0x4-0x4.7 (1)
0x000|               00 00 00 00 00 00 00 00 00 00 00|     ...........|    reserved: raw bits 0x5-0x13.7 (15)
0x010|00 00 00 00                                    |....            |
0x010|            00 00 00 08                        |    ....        |    isutcnt: 8 0x14-0x17.7 (4)
0x010|                        00 00 00 08            |        ....    |    isstdcnt: 8 0x18-0x1b.7 (4)
0x010|                                    00 00 00 1b|            ....|    leapcnt: 27 0x1c-0x1f.7 (4)
0x020|00 00 00 4f                                    |...O            |    timecnt: 79 0x20-0x23.7 (4)
0x020|            00 00 00 08                        |    ....        |    typecnt: 8 0x24-0x27.7 (4)
0x020|                        00 00 00 1c            |        ....    |    charcnt: 28 0x28-0x2b.7 (4)
     |                                               |                |  v1datablock{}: 0x2c-0x2ea.7 (703)
     |                                               |                |    transition_times[0:79]: 0x2c-0x167.7 (316)
0x020|                                    80 00 00 00|            ....|      [0]: "1901-12-13T20:45:52Z" (-2147483648) transition_time 0x2c-0x2f.7 (4)
0x030|9e a6 2c 80                                    |..,.            |      [1]: "1918-03-31T08:00:00Z" (-1633276800) transition_time 0x30-0x33.7 (4)
0x030|            9f ba f9 70                        |    ...p        |      [2]: "1918-10-27T07:00:00Z" (-1615136400) transition_time 0x34-0x37.7 (4)
0x030|                        a0 86 0e 80            |        ....    |      [3]: "1919-03-30T08:00:00Z" (-1601827200) transition_time 0x38-0x3b.7 (4)
0x030|                                    a1 9a db 70|            ...p|      [4]: "1919-10-26T07:00:00Z" (-1583686800) transition_time 0x3c-0x3f.7 (4)
0x040|cb 88 fe 80                                    |....            |      [5]: "1942-02-09T08:00:00Z" (-880214400) transition_time 0x40-0x43.7 (4)
0x040|            d2 23 f4 70                        |    .#.p        |      [6]: "1945-08-14T23:00:00Z" (-769395600) transition_time 0x44-0x47.7 (4)
0x040|                        d2 61 09 f0            |        .a..    |      [7]: "1945-09-30T07:00:00Z" (-765392400) transition_time 0x48-0x4b.7 (4)
0x040|                                    d3 75 f3 00|            .u..|      [8]: "1946-04-28T08:00:00Z" (-747244800) transition_time 0x4c-0x4f.7 (4)
0x050|d4 40 eb f0                                    |.@..            |      [9]: "1946-09-29T07:00:00Z" (-733942800) transition_time 0x50-0x53.7 (4)
0x050|            d5 55 d5 00                        |    .U..        |      [10]: "1947-04-27T08:00:00Z" (-715795200) transition_time 0x54-0x57.7 (4)
0x050|                        d6 20 cd f0            |        . ..    |      [11]: "1947-09-28T07:00:00Z" (-702493200) transition_time 0x58-0x5b.7 (4)
0x050|                                    d7 35 b7 00|            .5..|      [12]: "1948-04-25T08:00:00Z" (-684345600) transition_time 0x5c-0x5f.7 (4)
0x060|d8 00 af f0                                    |....            |      [13]: "1948-09-26T07:00:00Z" (-671043600) transition_time 0x60-0x63.7 (4)
0x060|            d9 15 99 00                        |    ....        |      [14]: "1949-04-24T08:00:00Z" (-652896000) transition_time 0x64-0x67.7 (4)
0x060|                        d9 e0 91 f0            |        ....    |      [15]: "1949-09-25T07:00:00Z" (-639594000) transition_time 0x68-0x6b.7 (4)
0x060|                                    da fe b5 80|            ....|      [16]: "1950-04-30T08:00:00Z" (-620841600) transition_time 0x6c-0x6f.7 (4)
0x070|db c0 73 f0                                    |..s.            |      [17]: "1950-09-24T07:00:00Z" (-608144400) transition_time 0x70-0x73.7 (4)
0x070|            dc de 97 80                        |    ....        |      [18]: "1951-04-29T08:00:00Z" (-589392000) transition_time 0x74-0x77.7 (4)
0x070|                        dd a9 90 70            |        ...p    |      [19]: "1951-09-30T07:00:00Z" (-576090000) transition_time 0x78-0x7b.7 (4)
0x070|                                    de be 79 80|            ..y.|      [20]: "1952-04-27T08:00:00Z" (-557942400) transition_time 0x7c-0x7f.7 (4)
0x080|df 89 72 70                                    |..rp            |      [21]: "1952-09-28T07:00:00Z" (-544640400) transition_time 0x80-0x83.7 (4)
0x080|            e0 9e 5b 80                        |    ..[.        |      [22]: "1953-04-26T08:00:00Z" (-526492800) transition_time 0x84-0x87.7 (4)
0x080|                        e1 69 54 70            |        .iTp    |      [23]: "1953-09-27T07:00:00Z" (-513190800) transition_time 0x88-0x8b.7 (4)
0x080|                                    e2 7e 3d 80|            .~=.|      [24]: "1954-04-25T08:00:00Z" (-495043200) transition_time 0x8c-0x8f.7 (4)
0x090|e3 49 36 70                                    |.I6p            |      [25]: "1954-09-26T07:00:00Z" (-481741200) transition_time 0x90-0x93.7 (4)
0x090|            e4 5e 1f 80                        |    .^..        |      [26]: "1955-04-24T08:00:00Z" (-463593600) transition_time 0x94-0x97.7 (4)
0x090|                        e5 57 3c f0            |        .W<.    |      [27]: "1955-10-30T07:00:00Z" (-447267600) transition_time 0x98-0x9b.7 (4)
0x090|                                    e6 47 3c 00|            .G<.|      [28]: "1956-04-29T08:00:00Z" (-431539200) transition_time 0x9c-0x9f.7 (4)
0x0a0|e7 37 1e f0                                    |.7..            |      [29]: "1956-10-28T07:00:00Z" (-415818000) transition_time 0xa0-0xa3.7 (4)
0x0a0|            e8 27 1e 00                        |    .'..        |      [30]: "1957-04-28T08:00:00Z" (-400089600) transition_time 0xa4-0xa7.7 (4)
0x0a0|                        e8 f2 16 f0            |        ....    |      [31]: "1957-09-29T07:00:00Z" (-386787600) transition_time 0xa8-0xab.7 (4)
0x0a0|                                    ea 07 00 00|            ....|      [32]: "1958-04-27T08:00:00Z" (-368640000) transition_time 0xac-0xaf.7 (4)
0x0b0|ea d1 f8 f0                                    |....            |      [33]: "1958-09-28T07:00:00Z" (-355338000) transition_time 0xb0-0xb3.7 (4)
0x0b0|            eb e6 e2 00                        |    ....        |      [34]: "1959-04-26T08:00:00Z" (-337190400) transition_time 0xb4-0xb7.7 (4)
0x0b0|                        ec b1 da f0            |        ....    |      [35]: "1959-09-27T07:00:00Z" (-323888400) transition_time 0xb8-0xbb.7 (4)
0x0b0|                                    ed c6 c4 00|            ....|      [36]: "1960-04-24T08:00:00Z" (-305740800) transition_time 0xbc-0xbf.7 (4)
0x0c0|ee 91 bc f0                                    |....            |      [37]: "1960-09-25T07:00:00Z" (-292438800) transition_time 0xc0-0xc3.7 (4)
0x0c0|            ef af e0 80                        |    ....        |      [38]: "1961-04-30T08:00:00Z" (-273686400) transition_time 0xc4-0xc7.7 (4)
0x0c0|                        fe b8 1c f0            |        ....    |      [39]: "1969-04-27T07:00:00Z" (-21488400) transition_time 0xc8-0xcb.7 (4)
0x0c0|                                    ff a7 ff e0|            ....|      [40]: "1969-10-26T06:00:00Z" (-5767200) transition_time 0xcc-0xcf.7 (4)
0x0d0|00 97 fe f0                                    |....            |      [41]: "1970-04-26T07:00:00Z" (9961200) transition_time 0xd0-0xd3.7 (4)
0x0d0|            01 87 e1 e0                        |    ....        |      [42]: "1970-10-25T06:00:00Z" (25682400) transition_time 0xd4-0xd7.7 (4)
0x0d0|                        44 2f 76 87            |        D/v.    |      [43]: "2006-04-02T07:00:23Z" (1143961223) transition_time 0xd8-0xdb.7 (4)
0x0d0|                                    45 44 51 87|            EDQ.|      [44]: "2006-10-29T07:00:23Z" (1162105223) transition_time 0xdc-0xdf.7 (4)
0x0e0|45 f3 b7 17                                    |E...            |      [45]: "2007-03-11T08:00:23Z" (1173600023) transition_time 0xe0-0xe3.7 (4)
0x0e0|            47 2d 5f f7                        |    G-_.        |      [46]: "2007-11-04T06:00:23Z" (1194156023) transition_time 0xe4-0xe7.7 (4)
0x0e0|                        47 d3 8b 07            |        G...    |      [47]: "2008-03-09T07:00:23Z" (1205046023) transition_time 0xe8-0xeb.7 (4)
0x0e0|                                    49 0d 41 f7|            I.A.|      [48]: "2008-11-02T06:00:23Z" (1225605623) transition_time 0xec-0xef.7 (4)
0x0f0|49 b3 6d 08                                    |I.m.            |      [49]: "2009-03-08T07:00:24Z" (1236495624) transition_time 0xf0-0xf3.7 (4)
0x0f0|            4a ed 23 f8                        |    J.#.        |      [50]: "2009-11-01T06:00:24Z" (1257055224) transition_time 0xf4-0xf7.7 (4)
0x0f0|                        4b 9c 89 88            |        K...    |      [51]: "2010-03-14T07:00:24Z" (1268550024) transition_time 0xf8-0xfb.7 (4)
0x0f0|                                    4c d6 40 78|            L.@x|      [52]: "2010-11-07T06:00:24Z" (1289109624) transition_time 0xfc-0xff.7 (4)
0x100|4d 7c 6b 88                                    |M|k.            |      [53]: "2011-03-13T07:00:24Z" (1299999624) transition_time 0x100-0x103.7 (4)
0x100|            4e b6 22 78                        |    N."x        |      [54]: "2011-11-06T06:00:24Z" (1320559224) transition_time 0x104-0x107.7 (4)
0x100|                        4f 5c 4d 88            |        O\M.    |      [55]: "2012-03-11T07:00:24Z" (1331449224) transition_time 0x108-0x10b.7 (4)
0x100|                                    50 96 04 79|            P..y|      [56]: "2012-11-04T06:00:25Z" (1352008825) transition_time 0x10c-0x10f.7 (4)
0x110|51 3c 2f 89                                    |Q</.            |      [57]: "2013-03-10T07:00:25Z" (1362898825) transition_time 0x110-0x113.7 (4)
0x110|            52 75 e6 79                        |    Ru.y        |      [58]: "2013-11-03T06:00:25Z" (1383458425) transition_time 0x114-0x117.7 (4)
0x110|                        53 1c 11 89            |        S...    |      [59]: "2014-03-09T07:00:25Z" (1394348425) transition_time 0x118-0x11b.7 (4)
0x110|                                    54 55 c8 79|            TU.y|      [60]: "2014-11-02T06:00:25Z" (1414908025) transition_time 0x11c-0x11f.7 (4)
0x120|54 fb f3 89                                    |T...            |      [61]: "2015-03-08T07:00:25Z" (1425798025) transition_time 0x120-0x123.7 (4)
0x120|            56 35 aa 7a                        |    V5.z        |      [62]: "2015-11-01T06:00:26Z" (1446357626) transition_time 0x124-0x127.7 (4)
0x120|                        56 e5 10 0a            |        V...    |      [63]: "2016-03-13T07:00:26Z" (1457852426) transition_time 0x128-0x12b.7 (4)
0x120|                                    58 1e c6 fa|            X...|      [64]: "2016-11-06T06:00:26Z" (1478412026) transition_time 0x12c-0x12f.7 (4)
0x130|58 c4 f2 0b                                    |X...            |      [65]: "2017-03-12T07:00:27Z" (1489302027) transition_time 0x130-0x133.7 (4)
0x130|            59 fe a8 fb                        |    Y...        |      [66]: "2017-11-05T06:00:27Z" (1509861627) transition_time 0x134-0x137.7 (4)
0x130|                        5a a4 d4 0b            |        Z...    |      [67]: "2018-03-11T07:00:27Z" (1520751627) transition_time 0x138-0x13b.7 (4)
0x130|                                    5b de 8a fb|            [...|      [68]: "2018-11-04T06:00:27Z" (1541311227) transition_time 0x13c-0x13f.7 (4)
0x140|5c 84 b6 0b                                    |\...            |      [69]: "2019-03-10T07:00:27Z" (1552201227) transition_time 0x140-0x143.7 (4)
0x140|            5d be 6c fb                        |    ].l.        |      [70]: "2019-11-03T06:00:27Z" (1572760827) transition_time 0x144-0x147.7 (4)
0x140|                        5e 64 98 0b            |        ^d..    |      [71]: "2020-03-08T07:00:27Z" (1583650827) transition_time 0x148-0x14b.7 (4)
0x140|                                    5f 9e 4e fb|            _.N.|      [72]: "2020-11-01T06:00:27Z" (1604210427) transition_time 0x14c-0x14f.7 (4)
0x150|60 4d b4 8b                                    |`M..            |      [73]: "2021-03-14T07:00:27Z" (1615705227) transition_time 0x150-0x153.7 (4)
0x150|            61 87 6b 7b                        |    a.k{        |      [74]: "2021-11-07T06:00:27Z" (1636264827) transition_time 0x154-0x157.7 (4)
0x150|                        62 2d 96 8b            |        b-..    |      [75]: "2022-03-13T07:00:27Z" (1647154827) transition_time 0x158-0x15b.7 (4)
0x150|                                    63 67 4d 7b|            cgM{|      [76]: "2022-11-06T06:00:27Z" (1667714427) transition_time 0x15c-0x15f.7 (4)
0x160|64 0d 78 8b                                    |d.x.            |      [77]: "2023-03-12T07:00:27Z" (1678604427) transition_time 0x160-0x163.7 (4)
0x160|            64 9b 78 1b                        |    d.x.        |      [78]: "2023-06-28T00:00:27Z" (1687910427) transition_time 0x164-0x167.7 (4)
     |                                               |                |    transition_types[0:79]: 0x168-0x1b6.7 (79)
0x160|                        05                     |        .       |      [0]: 5 transition_type 0x168-0x168.7 (1)
0x160|                           01                  |         .      |      [1]: 1 transition_type 0x169-0x169.7 (1)
0x160|                              02               |          .     |      [2]: 2 transition_type 0x16a-0x16a.7 (1)
0x160|                                 01            |           .    |      [3]: 1 transition_type 0x16b-0x16b.7 (1)
0x160|                                    02         |            .   |      [4]: 2 transition_type 0x16c-0x16c.7 (1)
0x160|                                       03      |             .  |      [5]: 3 transition_type 0x16d-0x16d.7 (1)
0x160|                                          04   |              . |      [6]: 4 transition_type 0x16e-0x16e.7 (1)
0x160|                                             02|               .|      [7]: 2 transition_type 0x16f-0x16f.7 (1)
0x170|01                                             |.               |      [8]: 1 transition_type 0x170-0x170.7 (1)
0x170|   02                                          | .              |      [9]: 2 transition_type 0x171-0x171.7 (1)
0x170|      01                                       |  .             |      [10]: 1 transition_type 0x172-0x172.7 (1)
0x170|         02                                    |   .            |      [11]: 2 transition_type 0x173-0x173.7 (1)
0x170|            01                                 |    .           |      [12]: 1 transition_type 0x174-0x174.7 (1)
0x170|               02                              |     .          |      [13]: 2 transition_type 0x175-0x175.7 (1)
0x170|                  01                           |      .         |      [14]: 1 transition_type 0x176-0x176.7 (1)
0x170|                     02                        |       .        |      [15]: 2 transition_type 0x177-0x177.7 (1)
0x170|                        01                     |        .       |      [16]: 1 transition_type 0x178-0x178.7 (1)
0x170|                           02                  |         .      |      [17]: 2 transition_type 0x179-0x179.7 (1)
0x170|                              01               |          .     |      [18]: 1 transition_type 0x17a-0x17a.7 (1)
0x170|                                 02            |           .    |      [19]: 2 transition_type 0x17b-0x17b.7 (1)
0x170|                                    01         |            .   |      [20]: 1 transition_type 0x17c-0x17c.7 (1)
0x170|                                       02      |             .  |      [21]: 2 transition_type 0x17d-0x17d.7 (1)
0x170|                                          01   |              . |      [22]: 1 transition_type 0x17e-0x17e.7 (1)
0x170|                                             02|               .|      [23]: 2 transition_type 0x17f-0x17f.7 (1)
0x180|01                                             |.               |      [24]: 1 transition_type 0x180-0x180.7 (1)
0x180|   02                                          | .              |      [25]: 2 transition_type 0x181-0x181.7 (1)
0x180|      01                                       |  .             |      [26]: 1 transition_type 0x182-0x182.7 (1)
0x180|         02                                    |   .            |      [27]: 2 transition_type 0x183-0x183.7 (1)
0x180|            01                                 |    .           |      [28]: 1 transition_type 0x184-0x184.7 (1)
0x180|               02                              |     .          |      [29]: 2 transition_type 0x185-0x185.7 (1)
0x180|                  01                           |      .         |      [30]: 1 transition_type 0x186-0x186.7 (1)
0x180|                     02                        |       .        |      [31]: 2 transition_type 0x187-0x187.7 (1)
0x180|                        01                     |        .       |      [32]: 1 transition_type 0x188-0x188.7 (1)
0x180|                           02                  |         .      |      [33]: 2 transition_type 0x189-0x189.7 (1)
0x180|                              01               |          .     |      [34]: 1 transition_type 0x18a-0x18a.7 (1)
0x180|                                 02            |           .    |      [35]: 2 transition_type 0x18b-0x18b.7 (1)
0x180|                                    01         |            .   |      [36]: 1 transition_type 0x18c-0x18c.7 (1)
0x180|                                       02      |             .  |      [37]: 2 transition_type 0x18d-0x18d.7 (1)
0x180|                                          06   |              . |      [38]: 6 transition_type 0x18e-0x18e.7 (1)
0x180|                                             07|               .|      [39]: 7 transition_type 0x18f-0x18f.7 (1)
0x190|06                                             |.               |      [40]: 6 transition_type 0x190-0x190.7 (1)
0x190|   07                                          | .              |      [41]: 7 transition_type 0x191-0x191.7 (1)
0x190|      06                                       |  .             |      [42]: 6 transition_type 0x192-0x192.7 (1)
0x190|         01                                    |   .            |      [43]: 1 transition_type 0x193-0x193.7 (1)
0x190|            02                                 |    .           |      [44]: 2 transition_type 0x194-0x194.7 (1)
0x190|               07                              |     .          |      [45]: 7 transition_type 0x195-0x195.7 (1)
0x190|                  06                           |      .         |      [46]: 6 transition_type 0x196-0x196.7 (1)
0x190|                     07                        |       .        |      [47]: 7 transition_type 0x197-0x197.7 (1)
0x190|                        06                     |        .       |      [48]: 6 transition_type 0x198-0x198.7 (1)
0x190|                           07                  |         .      |      [49]: 7 transition_type 0x199-0x199.7 (1)
0x190|                              06               |          .     |      [50]: 6 transition_type 0x19a-0x19a.7 (1)
0x190|                                 07            |           .    |      [51]: 7 transition_type 0x19b-0x19b.7 (1)
0x190|                                    06         |            .   |      [52]: 6 transition_type 0x19c-0x19c.7 (1)
0x190|                                       07      |             .  |      [53]: 7 transition_type 0x19d-0x19d.7 (1)
0x190|                                          06   |              . |      [54]: 6 transition_type 0x19e-0x19e.7 (1)
0x190|                                             07|               .|      [55]: 7 transition_type 0x19f-0x19f.7 (1)
0x1a0|06                                             |.               |      [56]: 6 transition_type 0x1a0-0x1a0.7 (1)
0x1a0|   07                                          | .              |      [57]: 7 transition_type 0x1a1-0x1a1.7 (1)
0x1a0|      06                                       |  .             |      [58]: 6 transition_type 0x1a2-0x1a2.7 (1)
0x1a0|         07                                    |   .            |      [59]: 7 transition_type 0x1a3-0x1a3.7 (1)
0x1a0|            06                                 |    .           |      [60]: 6 transition_type 0x1a4-0x1a4.7 (1)
0x1a0|               07                              |     .          |      [61]: 7 transition_type 0x1a5-0x1a5.7 (1)
0x1a0|                  06                           |      .         |      [62]: 6 transition_type 0x1a6-0x1a6.7 (1)
0x1a0|                     07                        |       .        |      [63]: 7 transition_type 0x1a7-0x1a7.7 (1)
0x1a0|                        06                     |        .       |      [64]: 6 transition_type 0x1a8-0x1a8.7 (1)
0x1a0|                           07                  |         .      |      [65]: 7 transition_type 0x1a9-0x1a9.7 (1)
0x1a0|                              06               |          .     |      [66]: 6 transition_type 0x1aa-0x1aa.7 (1)
0x1a0|                                 07            |           .    |      [67]: 7 transition_type 0x1ab-0x1ab.7 (1)
0x1a0|                                    06         |            .   |      [68]: 6 transition_type 0x1ac-0x1ac.7 (1)
0x1a0|                                       07      |             .  |      [69]: 7 transition_type 0x1ad-0x1ad.7 (1)
0x1a0|                                          06   |              . |      [70]: 6 transition_type 0x1ae-0x1ae.7 (1)
0x1a0|                                             07|               .|      [71]: 7 transition_type 0x1af-0x1af.7 (1)
0x1b0|06                                             |.               |      [72]: 6 transition_type 0x1b0-0x1b0.7 (1)
0x1b0|   07                                          | .              |      [73]: 7 transition_type 0x1b1-0x1b1.7 (1)
0x1b0|      06                                       |  .             |      [74]: 6 transition_type 0x1b2-0x1b2.7 (1)
0x1b0|         07                                    |   .            |      [75]: 7 transition_type 0x1b3-0x1b3.7 (1)
0x1b0|            06                                 |    .           |      [76]: 6 transition_type 0x1b4-0x1b4.7 (1)
0x1b0|               07                              |     .          |      [77]: 7 transition_type 0x1b5-0x1b5.7 (1)
0x1b0|                  07                           |      .         |      [78]: 7 transition_type 0x1b6-0x1b6.7 (1)
     |                                               |                |    local_time_type_records[0:8]: 0x1b7-0x1e6.7 (48)
     |                                               |                |      [0]{}: local_time_type 0x1b7-0x1bc.7 (6)
0x1b0|                     ff ff ae cf               |       ....     |        utoff: -20785 (valid) 0x1b7-0x1ba.7 (4)
0x1b0|                                 00            |           .    |        dst: 0 (valid) 0x1bb-0x1bb.7 (1)
0x1b0|                                    00         |            .   |        idx: 0 (valid) 0x1bc-0x1bc.7 (1)
     |                                               |                |      [1]{}: local_time_type 0x1bd-0x1c2.7 (6)
0x1b0|                                       ff ff b9|             ...|        utoff: -18000 (valid) 0x1bd-0x1c0.7 (4)
0x1c0|b0                                             |.               |
0x1c0|   01                                          | .              |        dst: 1 (valid) 0x1c1-0x1c1.7 (1)
0x1c0|      04                                       |  .             |        idx: 4 (valid) 0x1c2-0x1c2.7 (1)
     |                                               |                |      [2]{}: local_time_type 0x1c3-0x1c8.7 (6)
0x1c0|         ff ff ab a0                           |   ....         |        utoff: -21600 (valid) 0x1c3-0x1c6.7 (4)
0x1c0|                     00                        |       .        |        dst: 0 (valid) 0x1c7-0x1c7.7 (1)
0x1c0|                        08                     |        .       |        idx: 8 (valid) 0x1c8-0x1c8.7 (1)
     |                                               |                |      [3]{}: local_time_type 0x1c9-0x1ce.7 (6)
0x1c0|                           ff ff b9 b0         |         ....   |        utoff: -18000 (valid) 0x1c9-0x1cc.7 (4)
0x1c0|                                       01      |             .  |        dst: 1 (valid) 0x1cd-0x1cd.7 (1)
0x1c0|                                          0c   |              . |        idx: 12 (valid) 0x1ce-0x1ce.7 (1)
     |                                               |                |      [4]{}: local_time_type 0x1cf-0x1d4.7 (6)
0x1c0|                                             ff|               .|        utoff: -18000 (valid) 0x1cf-0x1d2.7 (4)
0x1d0|ff b9 b0                                       |...             |
0x1d0|         01                                    |   .            |        dst: 1 (valid) 0x1d3-0x1d3.7 (1)
0x1d0|            10                                 |    .           |        idx: 16 (valid) 0x1d4-0x1d4.7 (1)
     |                                               |                |      [5]{}: local_time_type 0x1d5-0x1da.7 (6)
0x1d0|               ff ff ab a0                     |     ....       |        utoff: -21600 (valid) 0x1d5-0x1d8.7 (4)
0x1d0|                           00                  |         .      |        dst: 0 (valid) 0x1d9-0x1d9.7 (1)
0x1d0|                              08               |          .     |        idx: 8 (valid) 0x1da-0x1da.7 (1)
     |                                               |                |      [6]{}: local_time_type 0x1db-0x1e0.7 (6)
0x1d0|                                 ff ff b9 b0   |           .... |        utoff: -18000 (valid) 0x1db-0x1de.7 (4)
0x1d0|                                             00|               .|        dst: 0 (valid) 0x1df-0x1df.7 (1)
0x1e0|14                                             |.               |        idx: 20 (valid) 0x1e0-0x1e0.7 (1)
     |                                               |                |      [7]{}: local_time_type 0x1e1-0x1e6.7 (6)
0x1e0|   ff ff c7 c0                                 | ....           |        utoff: -14400 (valid) 0x1e1-0x1e4.7 (4)
0x1e0|               01                              |     .          |        dst: 1 (valid) 0x1e5-0x1e5.7 (1)
0x1e0|                  18                           |      .         |        idx: 24 (valid) 0x1e6-0x1e6.7 (1)
     |                                               |                |    time_zone_designations[0:7]: 0x1e7-0x202.7 (28)
0x1e0|                     4c 4d 54 00               |       LMT.     |      [0]: "LMT" time_zone_designation 0x1e7-0x1ea.7 (4)
0x1e0|                                 43 44 54 00   |           CDT. |      [1]: "CDT" time_zone_designation 0x1eb-0x1ee.7 (4)
0x1e0|                                             43|               C|      [2]: "CST" time_zone_designation 0x1ef-0x1f2.7 (4)
0x1f0|53 54 00                                       |ST.             |
0x1f0|         43 57 54 00                           |   CWT.         |      [3]: "CWT" time_zone_designation 0x1f3-0x1f6.7 (4)
0x1f0|                     43 50 54 00               |       CPT.     |      [4]: "CPT" time_zone_designation 0x1f7-0x1fa.7 (4)
0x1f0|                                 45 53 54 00   |           EST. |      [5]: "EST" time_zone_designation 0x1fb-0x1fe.7 (4)
0x1f0|                                             45|               E|      [6]: "EDT" time_zone_designation 0x1ff-0x202.7 (4)
0x200|44 54 00                                       |DT.             |
     |                                               |                |    leap_second_records[0:27]: 0x203-0x2da.7 (216)
     |                                               |                |      [0]{}: leap_second_record 0x203-0x20a.7 (8)
0x200|         04 b2 58 00                           |   ..X.         |        occur: "1972-07-01T00:00:00Z" (78796800) 0x203-0x206.7 (4)
0x200|                     00 00 00 01               |       ....     |        corr: 1 0x207-0x20a.7 (4)
     |                                               |                |      [1]{}: leap_second_record 0x20b-0x212.7 (8)
0x200|                                 05 a4 ec 01   |           .... |        occur: "1973-01-01T00:00:01Z" (94694401) 0x20b-0x20e.7 (4)
0x200|                                             00|               .|        corr: 2 0x20f-0x212.7 (4)
0x210|00 00 02                                       |...             |
     |                                               |                |      [2]{}: leap_second_record 0x213-0x21a.7 (8)
0x210|         07 86 1f 82                           |   ....         |        occur: "1974-01-01T00:00:02Z" (126230402) 0x213-0x216.7 (4)
0x210|                     00 00 00 03               |       ....     |        corr: 3 0x217-0x21a.7 (4)
     |                                               |                |      [3]{}: leap_second_record 0x21b-0x222.7 (8)
0x210|                                 09 67 53 03   |           .gS. |        occur: "1975-01-01T00:00:03Z" (157766403) 0x21b-0x21e.7 (4)
0x210|                                             00|               .|        corr: 4 0x21f-0x222.7 (4)
0x220|00 00 04                                       |...             |
     |                                               |                |      [4]{}: leap_second_record 0x223-0x22a.7 (8)
0x220|         0b 48 86 84                           |   .H..         |        occur: "1976-01-01T00:00:04Z" (189302404) 0x223-0x226.7 (4)
0x220|                     00 00 00 05               |       ....     |        corr: 5 0x227-0x22a.7 (4)
     |                                               |                |      [5]{}: leap_second_record 0x22b-0x232.7 (8)
0x220|                                 0d 2b 0b 85   |           .+.. |        occur: "1977-01-01T00:00:05Z" (220924805) 0x22b-0x22e.7 (4)
0x220|                                             00|               .|        corr: 6 0x22f-0x232.7 (4)
0x230|00 00 06                                       |...             |
     |                                               |                |      [6]{}: leap_second_record 0x233-0x23a.7 (8)
0x230|         0f 0c 3f 06                           |   ..?.         |        occur: "1978-01-01T00:00:06Z" (252460806) 0x233-0x236.7 (4)
0x230|                     00 00 00 07               |       ....     |        corr: 7 0x237-0x23a.7 (4)
     |                                               |                |      [7]{}: leap_second_record 0x23b-0x242.7 (8)
0x230|                                 10 ed 72 87   |           ..r. |        occur: "1979-01-01T00:00:07Z" (283996807) 0x23b-0x23e.7 (4)
0x230|                                             00|               .|        corr: 8 0x23f-0x242.7 (4)
0x240|00 00 08                                       |...             |
     |                                               |                |      [8]{}: leap_second_record 0x243-0x24a.7 (8)
0x240|         12 ce a6 08                           |   ....         |        occur: "1980-01-01T00:00:08Z" (315532808) 0x243-0x246.7 (4)
0x240|                     00 00 00 09               |       ....     |        corr: 9 0x247-0x24a.7 (4)
     |                                               |                |      [9]{}: leap_second_record 0x24b-0x252.7 (8)
0x240|                                 15 9f ca 89   |           .... |        occur: "1981-07-01T00:00:09Z" (362793609) 0x24b-0x24e.7 (4)
0x240|                                             00|               .|        corr: 10 0x24f-0x252.7 (4)
0x250|00 00 0a                                       |...             |
     |                                               |                |      [10]{}: leap_second_record 0x253-0x25a.7 (8)
0x250|         17 80 fe 0a                           |   ....         |        occur: "1982-07-01T00:00:10Z" (394329610) 0x253-0x256.7 (4)
0x250|                     00 00 00 0b               |       ....     |        corr: 11 0x257-0x25a.7 (4)
     |                                               |                |      [11]{}: leap_second_record 0x25b-0x262.7 (8)
0x250|                                 19 62 31 8b   |           .b1. |        occur: "1983-07-01T00:00:11Z" (425865611) 0x25b-0x25e.7 (4)
0x250|                                             00|               .|        corr: 12 0x25f-0x262.7 (4)
0x260|00 00 0c                                       |...             |
     |                                               |                |      [12]{}: leap_second_record 0x263-0x26a.7 (8)
0x260|         1d 25 ea 0c                           |   .%..         |        occur: "1985-07-01T00:00:12Z" (489024012) 0x263-0x266.7 (4)
0x260|                     00 00 00 0d               |       ....     |        corr: 13 0x267-0x26a.7 (4)
     |                                               |                |      [13]{}: leap_second_record 0x26b-0x272.7 (8)
0x260|                                 21 da e5 0d   |           !... |        occur: "1988-01-01T00:00:13Z" (567993613) 0x26b-0x26e.7 (4)
0x260|                                             00|               .|        corr: 14 0x26f-0x272.7 (4)
0x270|00 00 0e                                       |...             |
     |                                               |                |      [14]{}: leap_second_record 0x273-0x27a.7 (8)
0x270|         25 9e 9d 8e                           |   %...         |        occur: "1990-01-01T00:00:14Z" (631152014) 0x273-0x276.7 (4)
0x270|                     00 00 00 0f               |       ....     |        corr: 15 0x277-0x27a.7 (4)
     |                                               |                |      [15]{}: leap_second_record 0x27b-0x282.7 (8)
0x270|                                 27 7f d1 0f   |           '... |        occur: "1991-01-01T00:00:15Z" (662688015) 0x27b-0x27e.7 (4)
0x270|                                             00|               .|        corr: 16 0x27f-0x282.7 (4)
0x280|00 00 10                                       |...             |
     |                                               |                |      [16]{}: leap_second_record 0x283-0x28a.7 (8)
0x280|         2a 50 f5 90                           |   *P..         |        occur: "1992-07-01T00:00:16Z" (709948816) 0x283-0x286.7 (4)
0x280|                     00 00 00 11               |       ....     |        corr: 17 0x287-0x28a.7 (4)
     |                                               |                |      [17]{}: leap_second_record 0x28b-0x292.7 (8)
0x280|                                 2c 32 29 11   |           ,2). |        occur: "1993-07-01T00:00:17Z" (741484817) 0x28b-0x28e.7 (4)
0x280|                                             00|               .|        corr: 18 0x28f-0x292.7 (4)
0x290|00 00 12                                       |...             |
     |                                               |                |      [18]{}: leap_second_record 0x293-0x29a.7 (8)
0x290|         2e 13 5c 92                           |   ..\.         |        occur: "1994-07-01T00:00:18Z" (773020818) 0x293-0x296.7 (4)
0x290|                     00 00 00 13               |       ....     |        corr: 19 0x297-0x29a.7 (4)
     |                                               |                |      [19]{}: leap_second_record 0x29b-0x2a2.7 (8)
0x290|                                 30 e7 24 13   |           0.$. |        occur: "1996-01-01T00:00:19Z" (820454419) 0x29b-0x29e.7 (4)
0x290|                                             00|               .|        corr: 20 0x29f-0x2a2.7 (4)
0x2a0|00 00 14                                       |...             |
     |                                               |                |      [20]{}: leap_second_record 0x2a3-0x2aa.7 (8)
0x2a0|         33 b8 48 94                           |   3.H.         |        occur: "1997-07-01T00:00:20Z" (867715220) 0x2a3-0x2a6.7 (4)
0x2a0|                     00 00 00 15               |       ....     |        corr: 21 0x2a7-0x2aa.7 (4)
     |                                               |                |      [21]{}: leap_second_record 0x2ab-0x2b2.7 (8)
0x2a0|                                 36 8c 10 15   |           6... |        occur: "1999-01-01T00:00:21Z" (915148821) 0x2ab-0x2ae.7 (4)
0x2a0|                                             00|               .|        corr: 22 0x2af-0x2b2.7 (4)
0x2b0|00 00 16                                       |...             |
     |                                               |                |      [22]{}: leap_second_record 0x2b3-0x2ba.7 (8)
0x2b0|         43 b7 1b 96                           |   C...         |        occur: "2006-01-01T00:00:22Z" (1136073622) 0x2b3-0x2b6.7 (4)
0x2b0|                     00 00 00 17               |       ....     |        corr: 23 0x2b7-0x2ba.7 (4)
     |                                               |                |      [23]{}: leap_second_record 0x2bb-0x2c2.7 (8)
0x2b0|                                 49 5c 07 97   |           I\.. |        occur: "2009-01-01T00:00:23Z" (1230768023) 0x2bb-0x2be.7 (4)
0x2b0|                                             00|               .|        corr: 24 0x2bf-0x2c2.7 (4)
0x2c0|00 00 18                                       |...             |
     |                                               |                |      [24]{}: leap_second_record 0x2c3-0x2ca.7 (8)
0x2c0|         4f ef 93 18                           |   O...         |        occur: "2012-07-01T00:00:24Z" (1341100824) 0x2c3-0x2c6.7 (4)
0x2c0|                     00 00 00 19               |       ....     |        corr: 25 0x2c7-0x2ca.7 (4)
     |                                               |                |      [25]{}: leap_second_record 0x2cb-0x2d2.7 (8)
0x2c0|                                 55 93 2d 99   |           U.-. |        occur: "2015-07-01T00:00:25Z" (1435708825) 0x2cb-0x2ce.7 (4)
0x2c0|                                             00|               .|        corr: 26 0x2cf-0x2d2.7 (4)
0x2d0|00 00 1a                                       |...             |
     |                                               |                |      [26]{}: leap_second_record 0x2d3-0x2da.7 (8)
0x2d0|         58 68 46 9a                           |   XhF.         |        occur: "2017-01-01T00:00:26Z" (1483228826) 0x2d3-0x2d6.7 (4)
0x2d0|                     00 00 00 1b               |       ....     |        corr: 27 0x2d7-0x2da.7 (4)
     |                                               |                |    standard_wall_indicators[0:8]: 0x2db-0x2e2.7 (8)
0x2d0|                                 00            |           .    |      [0]: 0 standard_wall_indicator (valid) 0x2db-0x2db.7 (1)
0x2d0|                                    00         |            .   |      [1]: 0 standard_wall_indicator (valid) 0x2dc-0x2dc.7 (1)
0x2d0|                                       00      |             .  |      [2]: 0 standard_wall_indicator (valid) 0x2dd-0x2dd.7 (1)
0x2d0|                                          00   |              . |      [3]: 0 standard_wall_indicator (valid) 0x2de-0x2de.7 (1)
0x2d0|                                             01|               .|      [4]: 1 standard_wall_indicator (valid) 0x2df-0x2df.7 (1)
0x2e0|01                                             |.               |      [5]: 1 standard_wall_indicator (valid) 0x2e0-0x2e0.7 (1)
0x2e0|   00                                          | .              |      [6]: 0 standard_wall_indicator (valid) 0x2e1-0x2e1.7 (1)
0x2e0|      00                                       |  .             |      [7]: 0 standard_wall_indicator (valid) 0x2e2-0x2e2.7 (1)
     |                                               |                |    ut_local_indicators[0:8]: 0x2e3-0x2ea.7 (8)
0x2e0|         00                                    |   .            |      [0]: 0 ut_local_indicator (valid) 0x2e3-0x2e3.7 (1)
0x2e0|            00                                 |    .           |      [1]: 0 ut_local_indicator (valid) 0x2e4-0x2e4.7 (1)
0x2e0|               00                              |     .          |      [2]: 0 ut_local_indicator (valid) 0x2e5-0x2e5.7 (1)
0x2e0|                  00                           |      .         |      [3]: 0 ut_local_indicator (valid) 0x2e6-0x2e6.7 (1)
0x2e0|                     01                        |       .        |      [4]: 1 ut_local_indicator (valid) 0x2e7-0x2e7.7 (1)
0x2e0|                        01                     |        .       |      [5]: 1 ut_local_indicator (valid) 0x2e8-0x2e8.7 (1)
0x2e0|                           00                  |         .      |      [6]: 0 ut_local_indicator (valid) 0x2e9-0x2e9.7 (1)
0x2e0|                              00               |          .     |      [7]: 0 ut_local_indicator (valid) 0x2ea-0x2ea.7 (1)
     |                                               |                |  v2plusheader{}: 0x2eb-0x316.7 (44)
0x2e0|                                 54 5a 69 66   |           TZif |    magic: 0x545a6966 (valid) 0x2eb-0x2ee.7 (4)
0x2e0|                                             32|               2|    ver: "2" (0x32) (valid) 0x2ef-0x2ef.7 (1)
0x2f0|00 00 00 00 00 00 00 00 00 00 00 00 00 00 00   |............... |    reserved: raw bits 0x2f0-0x2fe.7 (15)
0x2f0|                                             00|               .|    isutcnt: 8 0x2ff-0x302.7 (4)
0x300|00 00 08                                       |...             |
0x300|         00 00 00 08                           |   ....         |    isstdcnt: 8 0x303-0x306.7 (4)
0x300|                     00 00 00 1b               |       ....     |    leapcnt: 27 0x307-0x30a.7 (4)
0x300|                                 00 00 00 4f   |           ...O |    timecnt: 79 0x30b-0x30e.7 (4)
0x300|                                             00|               .|    typecnt: 8 0x30f-0x312.7 (4)
0x310|00 00 08                                       |...             |
0x310|         00 00 00 1c                           |   ....         |    charcnt: 28 0x313-0x316.7 (4)
     |                                               |                |  v2plusdatablock{}: 0x317-0x77d.7 (1127)
     |                                               |                |    transition_times[0:79]: 0x317-0x58e.7 (632)
0x310|                     ff ff ff ff 5e 03 fe a0   |       ....^... |      [0]: "1883-11-18T18:00:00Z" (-2717647200) transition_time 0x317-0x31e.7 (8)
0x310|                                             ff|               .|      [1]: "1918-03-31T08:00:00Z" (-1633276800) transition_time 0x31f-0x326.7 (8)
0x320|ff ff ff 9e a6 2c 80                           |.....,.         |
0x320|                     ff ff ff ff 9f ba f9 70   |       .......p |      [2]: "1918-10-27T07:00:00Z" (-1615136400) transition_time 0x327-0x32e.7 (8)
0x320|                                             ff|               .|      [3]: "1919-03-30T08:00:00Z" (-1601827200) transition_time 0x32f-0x336.7 (8)
0x330|ff ff ff a0 86 0e 80                           |.......         |
0x330|                     ff ff ff ff a1 9a db 70   |       .......p |      [4]: "1919-10-26T07:00:00Z" (-1583686800) transition_time 0x337-0x33e.7 (8)
0x330|                                             ff|               .|      [5]: "1942-02-09T08:00:00Z" (-880214400) transition_time 0x33f-0x346.7 (8)
0x340|ff ff ff cb 88 fe 80                           |.......         |
0x340|                     ff ff ff ff d2 23 f4 70   |       .....#.p |      [6]: "1945-08-14T23:00:00Z" (-769395600) transition_time 0x347-0x34e.7 (8)
0x340|                                             ff|               .|      [7]: "1945-09-30T07:00:00Z" (-765392400) transition_time 0x34f-0x356.7 (8)
0x350|ff ff ff d2 61 09 f0                           |....a..         |
0x350|                     ff ff ff ff d3 75 f3 00   |       .....u.. |      [8]: "1946-04-28T08:00:00Z" (-747244800) transition_time 0x357-0x35e.7 (8)
0x350|                                             ff|               .|      [9]: "1946-09-29T07:00:00Z" (-733942800) transition_time 0x35f-0x366.7 (8)
0x360|ff ff ff d4 40 eb f0                           |....@..         |
0x360|                     ff ff ff ff d5 55 d5 00   |       .....U.. |      [10]: "1947-04-27T08:00:00Z" (-715795200) transition_time 0x367-0x36e.7 (8)
0x360|                                             ff|               .|      [11]: "1947-09-28T07:00:00Z" (-702493200) transition_time 0x36f-0x376.7 (8)
0x370|ff ff ff d6 20 cd f0                           |.... ..         |
0x370|                     ff ff ff ff d7 35 b7 00   |       .....5.. |      [12]: "1948-04-25T08:00:00Z" (-684345600) transition_time 0x377-0x37e.7 (8)
0x370|                                             ff|               .|      [13]: "1948-09-26T07:00:00Z" (-671043600) transition_time 0x37f-0x386.7 (8)
0x380|ff ff ff d8 00 af f0                           |.......         |
0x380|                     ff ff ff ff d9 15 99 00   |       ........ |      [14]: "1949-04-24T08:00:00Z" (-652896000) transition_time 0x387-0x38e.7 (8)
0x380|                                             ff|               .|      [15]: "1949-09-25T07:00:00Z" (-639594000) transition_time 0x38f-0x396.7 (8)
0x390|ff ff ff d9 e0 91 f0                           |.......         |
0x390|                     ff ff ff ff da fe b5 80   |       ........ |      [16]: "1950-04-30T08:00:00Z" (-620841600) transition_time 0x397-0x39e.7 (8)
0x390|                                             ff|               .|      [17]: "1950-09-24T07:00:00Z" (-608144400) transition_time 0x39f-0x3a6.7 (8)
0x3a0|ff ff ff db c0 73 f0                           |.....s.         |
0x3a0|                     ff ff ff ff dc de 97 80   |       ........ |      [18]: "1951-04-29T08:00:00Z" (-589392000) transition_time 0x3a7-0x3ae.7 (8)
0x3a0|                                             ff|               .|      [19]: "1951-09-30T07:00:00Z" (-576090000) transition_time 0x3af-0x3b6.7 (8)
0x3b0|ff ff ff dd a9 90 70                           |......p         |
0x3b0|                     ff ff ff ff de be 79 80   |       ......y. |      [20]: "1952-04-27T08:00:00Z" (-557942400) transition_time 0x3b7-0x3be.7 (8)
0x3b0|                                             ff|               .|      [21]: "1952-09-28T07:00:00Z" (-544640400) transition_time 0x3bf-0x3c6.7 (8)
0x3c0|ff ff ff df 89 72 70                           |.....rp         |
0x3c0|                     ff ff ff ff e0 9e 5b 80   |       ......[. |      [22]: "1953-04-26T08:00:00Z" (-526492800) transition_time 0x3c7-0x3ce.7 (8)
0x3c0|                                             ff|               .|      [23]: "1953-09-27T07:00:00Z" (-513190800) transition_time 0x3cf-0x3d6.7 (8)
0x3d0|ff ff ff e1 69 54 70                           |....iTp         |
0x3d0|                     ff ff ff ff e2 7e 3d 80   |       .....~=. |      [24]: "1954-04-25T08:00:00Z" (-495043200) transition_time 0x3d7-0x3de.7 (8)
0x3d0|                                             ff|               .|      [25]: "1954-09-26T07:00:00Z" (-481741200) transition_time 0x3df-0x3e6.7 (8)
0x3e0|ff ff ff e3 49 36 70                           |....I6p         |
0x3e0|                     ff ff ff ff e4 5e 1f 80   |       .....^.. |      [26]: "1955-04-24T08:00:00Z" (-463593600) transition_time 0x3e7-0x3ee.7 (8)
0x3e0|                                             ff|               .|      [27]: "1955-10-30T07:00:00Z" (-447267600) transition_time 0x3ef-0x3f6.7 (8)
0x3f0|ff ff ff e5 57 3c f0                           |....W<.         |
0x3f0|                     ff ff ff ff e6 47 3c 00   |       .....G<. |      [28]: "1956-04-29T08:00:00Z" (-431539200) transition_time 0x3f7-0x3fe.7 (8)
0x3f0|                                             ff|               .|      [29]: "1956-10-28T07:00:00Z" (-415818000) transition_time 0x3ff-0x406.7 (8)
0x400|ff ff ff e7 37 1e f0                           |....7..         |
0x400|                     ff ff ff ff e8 27 1e 00   |       .....'.. |      [30]: "1957-04-28T08:00:00Z" (-400089600) transition_time 0x407-0x40e.7 (8)
0x400|                                             ff|               .|      [31]: "1957-09-29T07:00:00Z" (-386787600) transition_time 0x40f-0x416.7 (8)
0x410|ff ff ff e8 f2 16 f0                           |.......         |
0x410|                     ff ff ff ff ea 07 00 00   |       ........ |      [32]: "1958-04-27T08:00:00Z" (-368640000) transition_time 0x417-0x41e.7 (8)
0x410|                                             ff|               .|      [33]: "1958-09-28T07:00:00Z" (-355338000) transition_time 0x41f-0x426.7 (8)
0x420|ff ff ff ea d1 f8 f0                           |.......         |
0x420|                     ff ff ff ff eb e6 e2 00   |       ........ |      [34]: "1959-04-26T08:00:00Z" (-337190400) transition_time 0x427-0x42e.7 (8)
0x420|                                             ff|               .|      [35]: "1959-09-27T07:00:00Z" (-323888400) transition_time 0x42f-0x436.7 (8)
0x430|ff ff ff ec b1 da f0                           |.......         |
0x430|                     ff ff ff ff ed c6 c4 00   |       ........ |      [36]: "1960-04-24T08:00:00Z" (-305740800) transition_time 0x437-0x43e.7 (8)
0x430|                                             ff|               .|      [37]: "1960-09-25T07:00:00Z" (-292438800) transition_time 0x43f-0x446.7 (8)
0x440|ff ff ff ee 91 bc f0                           |.......         |
0x440|                     ff ff ff ff ef af e0 80   |       ........ |      [38]: "1961-04-30T08:00:00Z" (-273686400) transition_time 0x447-0x44e.7 (8)
0x440|                                             ff|               .|      [39]: "1969-04-27T07:00:00Z" (-21488400) transition_time 0x44f-0x456.7 (8)
0x450|ff ff ff fe b8 1c f0                           |.......         |
0x450|                     ff ff ff ff ff a7 ff e0   |       ........ |      [40]: "1969-10-26T06:00:00Z" (-5767200) transition_time 0x457-0x45e.7 (8)
0x450|                                             00|               .|      [41]: "1970-04-26T07:00:00Z" (9961200) transition_time 0x45f-0x466.7 (8)
0x460|00 00 00 00 97 fe f0                           |.......         |
0x460|                     00 00 00 00 01 87 e1 e0   |       ........ |      [42]: "1970-10-25T06:00:00Z" (25682400) transition_time 0x467-0x46e.7 (8)
0x460|                                             00|               .|      [43]: "2006-04-02T07:00:23Z" (1143961223) transition_time 0x46f-0x476.7 (8)
0x470|00 00 00 44 2f 76 87                           |...D/v.         |
0x470|                     00 00 00 00 45 44 51 87   |       ....EDQ. |      [44]: "2006-10-29T07:00:23Z" (1162105223) transition_time 0x477-0x47e.7 (8)
0x470|                                             00|               .|      [45]: "2007-03-11T08:00:23Z" (1173600023) transition_time 0x47f-0x486.7 (8)
0x480|00 00 00 45 f3 b7 17                           |...E...         |
0x480|                     00 00 00 00 47 2d 5f f7   |       ....G-_. |      [46]: "2007-11-04T06:00:23Z" (1194156023) transition_time 0x487-0x48e.7 (8)
0x480|                                             00|               .|      [47]: "2008-03-09T07:00:23Z" (1205046023) transition_time 0x48f-0x496.7 (8)
0x490|00 00 00 47 d3 8b 07                           |...G...         |
0x490|                     00 00 00 00 49 0d 41 f7   |       ....I.A. |      [48]: "2008-11-02T06:00:23Z" (1225605623) transition_time 0x497-0x49e.7 (8)
0x490|                                             00|               .|      [49]: "2009-03-08T07:00:24Z" (1236495624) transition_time 0x49f-0x4a6.7 (8)
0x4a0|00 00 00 49 b3 6d 08                           |...I.m.         |
0x4a0|                     00 00 00 00 4a ed 23 f8   |       ....J.#. |      [50]: "2009-11-01T06:00:24Z" (1257055224) transition_time 0x4a7-0x4ae.7 (8)
0x4a0|                                             00|               .|      [51]: "2010-03-14T07:00:24Z" (1268550024) transition_time 0x4af-0x4b6.7 (8)
0x4b0|00 00 00 4b 9c 89 88                           |...K...         |
0x4b0|                     00 00 00 00 4c d6 40 78   |       ....L.@x |      [52]: "2010-11-07T06:00:24Z" (1289109624) transition_time 0x4b7-0x4be.7 (8)
0x4b0|                                             00|               .|      [53]: "2011-03-13T07:00:24Z" (1299999624) transition_time 0x4bf-0x4c6.7 (8)
0x4c0|00 00 00 4d 7c 6b 88                           |...M|k.         |
0x4c0|                     00 00 00 00 4e b6 22 78   |       ....N."x |      [54]: "2011-11-06T06:00:24Z" (1320559224) transition_time 0x4c7-0x4ce.7 (8)
0x4c0|                                             00|               .|      [55]: "2012-03-11T07:00:24Z" (1331449224) transition_time 0x4cf-0x4d6.7 (8)
0x4d0|00 00 00 4f 5c 4d 88                           |...O\M.         |
0x4d0|                     00 00 00 00 50 96 04 79   |       ....P..y |      [56]: "2012-11-04T06:00:25Z" (1352008825) transition_time 0x4d7-0x4de.7 (8)
0x4d0|                                             00|               .|      [57]: "2013-03-10T07:00:25Z" (1362898825) transition_time 0x4df-0x4e6.7 (8)
0x4e0|00 00 00 51 3c 2f 89                           |...Q</.         |
0x4e0|                     00 00 00 00 52 75 e6 79   |       ....Ru.y |      [58]: "2013-11-03T06:00:25Z" (1383458425) transition_time 0x4e7-0x4ee.7 (8)
0x4e0|                                             00|               .|      [59]: "2014-03-09T07:00:25Z" (1394348425) transition_time 0x4ef-0x4f6.7 (8)
0x4f0|00 00 00 53 1c 11 89                           |...S...         |
0x4f0|                     00 00 00 00 54 55 c8 79   |       ....TU.y |      [60]: "2014-11-02T06:00:25Z" (1414908025) transition_time 0x4f7-0x4fe.7 (8)
0x4f0|                                             00|               .|      [61]: "2015-03-08T07:00:25Z" (1425798025) transition_time 0x4ff-0x506.7 (8)
0x500|00 00 00 54 fb f3 89                           |...T...         |
0x500|                     00 00 00 00 56 35 aa 7a   |       ....V5.z |      [62]: "2015-11-01T06:00:26Z" (1446357626) transition_time 0x507-0x50e.7 (8)
0x500|                                             00|               .|      [63]: "2016-03-13T07:00:26Z" (1457852426) transition_time 0x50f-0x516.7 (8)
0x510|00 00 00 56 e5 10 0a                           |...V...         |
0x510|                     00 00 00 00 58 1e c6 fa   |       ....X... |      [64]: "2016-11-06T06:00:26Z" (1478412026) transition_time 0x517-0x51e.7 (8)
0x510|                                             00|               .|      [65]: "2017-03-12T07:00:27Z" (1489302027) transition_time 0x51f-0x526.7 (8)
0x520|00 00 00 58 c4 f2 0b                           |...X...         |
0x520|                     00 00 00 00 59 fe a8 fb   |       ....Y... |      [66]: "2017-11-05T06:00:27Z" (1509861627) transition_time 0x527-0x52e.7 (8)
0x520|                                             00|               .|      [67]: "2018-03-11T07:00:27Z" (1520751627) transition_time 0x52f-0x536.7 (8)
0x530|00 00 00 5a a4 d4 0b                           |...Z...         |
0x530|                     00 00 00 00 5b de 8a fb   |       ....[... |      [68]: "2018-11-04T06:00:27Z" (1541311227) transition_time 0x537-0x53e.7 (8)
0x530|                                             00|               .|      [69]: "2019-03-10T07:00:27Z" (1552201227) transition_time 0x53f-0x546.7 (8)
0x540|00 00 00 5c 84 b6 0b                           |...\...         |
0x540|                     00 00 00 00 5d be 6c fb   |       ....].l. |      [70]: "2019-11-03T06:00:27Z" (1572760827) transition_time 0x547-0x54e.7 (8)
0x540|                                             00|               .|      [71]: "2020-03-08T07:00:27Z" (1583650827) transition_time 0x54f-0x556.7 (8)
0x550|00 00 00 5e 64 98 0b                           |...^d..         |
0x550|                     00 00 00 00 5f 9e 4e fb   |       ...._.N. |      [72]: "2020-11-01T06:00:27Z" (1604210427) transition_time 0x557-0x55e.7 (8)
0x550|                                             00|               .|      [73]: "2021-03-14T07:00:27Z" (1615705227) transition_time 0x55f-0x566.7 (8)
0x560|00 00 00 60 4d b4 8b                           |...`M..         |
0x560|                     00 00 00 00 61 87 6b 7b   |       ....a.k{ |      [74]: "2021-11-07T06:00:27Z" (1636264827) transition_time 0x567-0x56e.7 (8)
0x560|                                             00|               .|      [75]: "2022-03-13T07:00:27Z" (1647154827) transition_time 0x56f-0x576.7 (8)
0x570|00 00 00 62 2d 96 8b                           |...b-..         |
0x570|                     00 00 00 00 63 67 4d 7b   |       ....cgM{ |      [76]: "2022-11-06T06:00:27Z" (1667714427) transition_time 0x577-0x57e.7 (8)
0x570|                                             00|               .|      [77]: "2023-03-12T07:00:27Z" (1678604427) transition_time 0x57f-0x586.7 (8)
0x580|00 00 00 64 0d 78 8b                           |...d.x.         |
0x580|                     00 00 00 00 64 9b 78 1b   |       ....d.x. |      [78]: "2023-06-28T00:00:27Z" (1687910427) transition_time 0x587-0x58e.7 (8)
     |                                               |                |    transition_types[0:79]: 0x58f-0x5dd.7 (79)
0x580|                                             05|               .|      [0]: 5 transition_type 0x58f-0x58f.7 (1)
0x590|01                                             |.               |      [1]: 1 transition_type 0x590-0x590.7 (1)
0x590|   02                                          | .              |      [2]: 2 transition_type 0x591-0x591.7 (1)
0x590|      01                                       |  .             |      [3]: 1 transition_type 0x592-0x592.7 (1)
0x590|         02                                    |   .            |      [4]: 2 transition_type 0x593-0x593.7 (1)
0x590|            03                                 |    .           |      [5]: 3 transition_type 0x594-0x594.7 (1)
0x590|               04                              |     .          |      [6]: 4 transition_type 0x595-0x595.7 (1)
0x590|                  02                           |      .         |      [7]: 2 transition_type 0x596-0x596.7 (1)
0x590|                     01                        |       .        |      [8]: 1 transition_type 0x597-0x597.7 (1)
0x590|                        02                     |        .       |      [9]: 2 transition_type 0x598-0x598.7 (1)
0x590|                           01                  |         .      |      [10]: 1 transition_type 0x599-0x599.7 (1)
0x590|                              02               |          .     |      [11]: 2 transition_type 0x59a-0x59a.7 (1)
0x590|                                 01            |           .    |      [12]: 1 transition_type 0x59b-0x59b.7 (1)
0x590|                                    02         |            .   |      [13]: 2 transition_type 0x59c-0x59c.7 (1)
0x590|                                       01      |             .  |      [14]: 1 transition_type 0x59d-0x59d.7 (1)
0x590|                                          02   |              . |      [15]: 2 transition_type 0x59e-0x59e.7 (1)
0x590|                                             01|               .|      [16]: 1 transition_type 0x59f-0x59f.7 (1)
0x5a0|02                                             |.               |      [17]: 2 transition_type 0x5a0-0x5a0.7 (1)
0x5a0|   01                                          | .              |      [18]: 1 transition_type 0x5a1-0x5a1.7 (1)
0x5a0|      02                                       |  .             |      [19]: 2 transition_type 0x5a2-0x5a2.7 (1)
0x5a0|         01                                    |   .            |      [20]: 1 transition_type 0x5a3-0x5a3.7 (1)
0x5a0|            02                                 |    .           |      [21]: 2 transition_type 0x5a4-0x5a4.7 (1)
0x5a0|               01                              |     .          |      [22]: 1 transition_type 0x5a5-0x5a5.7 (1)
0x5a0|                  02                           |      .         |      [23]: 2 transition_type 0x5a6-0x5a6.7 (1)
0x5a0|                     01                        |       .        |      [24]: 1 transition_type 0x5a7-0x5a7.7 (1)
0x5a0|                        02                     |        .       |      [25]: 2 transition_type 0x5a8-0x5a8.7 (1)
0x5a0|                           01                  |         .      |      [26]: 1 transition_type 0x5a9-0x5a9.7 (1)
0x5a0|                              02               |          .     |      [27]: 2 transition_type 0x5aa-0x5aa.7 (1)
0x5a0|                                 01            |           .    |      [28]: 1 transition_type 0x5ab-0x5ab.7 (1)
0x5a0|                                    02         |            .   |      [29]: 2 transition_type 0x5ac-0x5ac.7 (1)
0x5a0|                                       01      |             .  |      [30]: 1 transition_type 0x5ad-0x5ad.7 (1)
0x5a0|                                          02   |              . |      [31]: 2 transition_type 0x5ae-0x5ae.7 (1)
0x5a0|                                             01|               .|      [32]: 1 transition_type 0x5af-0x5af.7 (1)
0x5b0|02                                             |.               |      [33]: 2 transition_type 0x5b0-0x5b0.7 (1)
0x5b0|   01                                          | .              |      [34]: 1 transition_type 0x5b1-0x5b1.7 (1)
0x5b0|      02                                       |  .             |      [35]: 2 transition_type 0x5b2-0x5b2.7 (1)
0x5b0|         01                                    |   .            |      [36]: 1 transition_type 0x5b3-0x5b3.7 (1)
0x5b0|            02                                 |    .           |      [37]: 2 transition_type 0x5b4-0x5b4.7 (1)
0x5b0|               06                              |     .          |      [38]: 6 transition_type 0x5b5-0x5b5.7 (1)
0x5b0|                  07                           |      .         |      [39]: 7 transition_type 0x5b6-0x5b6.7 (1)
0x5b0|                     06                        |       .        |      [40]: 6 transition_type 0x5b7-0x5b7.7 (1)
0x5b0|                        07                     |        .       |      [41]: 7 transition_type 0x5b8-0x5b8.7 (1)
0x5b0|                           06                  |         .      |      [42]: 6 transition_type 0x5b9-0x5b9.7 (1)
0x5b0|                              01               |          .     |      [43]: 1 transition_type 0x5ba-0x5ba.7 (1)
0x5b0|                                 02            |           .    |      [44]: 2 transition_type 0x5bb-0x5bb.7 (1)
0x5b0|                                    07         |            .   |      [45]: 7 transition_type 0x5bc-0x5bc.7 (1)
0x5b0|                                       06      |             .  |      [46]: 6 transition_type 0x5bd-0x5bd.7 (1)
0x5b0|                                          07   |              . |      [47]: 7 transition_type 0x5be-0x5be.7 (1)
0x5b0|                                             06|               .|      [48]: 6 transition_type 0x5bf-0x5bf.7 (1)
0x5c0|07                                             |.               |      [49]: 7 transition_type 0x5c0-0x5c0.7 (1)
0x5c0|   06                                          | .              |      [50]: 6 transition_type 0x5c1-0x5c1.7 (1)
0x5c0|      07                                       |  .             |      [51]: 7 transition_type 0x5c2-0x5c2.7 (1)
0x5c0|         06                                    |   .            |      [52]: 6 transition_type 0x5c3-0x5c3.7 (1)
0x5c0|            07                                 |    .           |      [53]: 7 transition_type 0x5c4-0x5c4.7 (1)
0x5c0|               06                              |     .          |      [54]: 6 transition_type 0x5c5-0x5c5.7 (1)
0x5c0|                  07                           |      .         |      [55]: 7 transition_type 0x5c6-0x5c6.7 (1)
0x5c0|                     06                        |       .        |      [56]: 6 transition_type 0x5c7-0x5c7.7 (1)
0x5c0|                        07                     |        .       |      [57]: 7 transition_type 0x5c8-0x5c8.7 (1)
0x5c0|                           06                  |         .      |      [58]: 6 transition_type 0x5c9-0x5c9.7 (1)
0x5c0|                              07               |          .     |      [59]: 7 transition_type 0x5ca-0x5ca.7 (1)
0x5c0|                                 06            |           .    |      [60]: 6 transition_type 0x5cb-0x5cb.7 (1)
0x5c0|                                    07         |            .   |      [61]: 7 transition_type 0x5cc-0x5cc.7 (1)
0x5c0|                                       06      |             .  |      [62]: 6 transition_type 0x5cd-0x5cd.7 (1)
0x5c0|                                          07   |              . |      [63]: 7 transition_type 0x5ce-0x5ce.7 (1)
0x5c0|                                             06|               .|      [64]: 6 transition_type 0x5cf-0x5cf.7 (1)
0x5d0|07                                             |.               |      [65]: 7 transition_type 0x5d0-0x5d0.7 (1)
0x5d0|   06                                          | .              |      [66]: 6 transition_type 0x5d1-0x5d1.7 (1)
0x5d0|      07                                       |  .             |      [67]: 7 transition_type 0x5d2-0x5d2.7 (1)
0x5d0|         06                                    |   .            |      [68]: 6 transition_type 0x5d3-0x5d3.7 (1)
0x5d0|            07                                 |    .           |      [69]: 7 transition_type 0x5d4-0x5d4.7 (1)
0x5d0|               06                              |     .          |      [70]: 6 transition_type 0x5d5-0x5d5.7 (1)
0x5d0|                  07                           |      .         |      [71]: 7 transition_type 0x5d6-0x5d6.7 (1)
0x5d0|                     06                        |       .        |      [72]: 6 transition_type 0x5d7-0x5d7.7 (1)
0x5d0|                        07                     |        .       |      [73]: 7 transition_type 0x5d8-0x5d8.7 (1)
0x5d0|                           06                  |         .      |      [74]: 6 transition_type 0x5d9-0x5d9.7 (1)
0x5d0|                              07               |          .     |      [75]: 7 transition_type 0x5da-0x5da.7 (1)
0x5d0|                                 06            |           .    |      [76]: 6 transition_type 0x5db-0x5db.7 (1)
0x5d0|                                    07         |            .   |      [77]: 7 transition_type 0x5dc-0x5dc.7 (1)
0x5d0|                                       07      |             .  |      [78]: 7 transition_type 0x5dd-0x5dd.7 (1)
     |                                               |                |    local_time_type_records[0:8]: 0x5de-0x60d.7 (48)
     |                                               |                |      [0]{}: local_time_type 0x5de-0x5e3.7 (6)
0x5d0|                                          ff ff|              ..|        utoff: -20785 (valid) 0x5de-0x5e1.7 (4)
0x5e0|ae cf                                          |..              |
0x5e0|      00                                       |  .             |        dst: 0 (valid) 0x5e2-0x5e2.7 (1)
0x5e0|         00                                    |   .            |        idx: 0 (valid) 0x5e3-0x5e3.7 (1)
     |                                               |                |      [1]{}: local_time_type 0x5e4-0x5e9.7 (6)
0x5e0|            ff ff b9 b0                        |    ....        |        utoff: -18000 (valid) 0x5e4-0x5e7.7 (4)
0x5e0|                        01                     |        .       |        dst: 1 (valid) 0x5e8-0x5e8.7 (1)
0x5e0|                           04                  |         .      |        idx: 4 (valid) 0x5e9-0x5e9.7 (1)
     |                                               |                |      [2]{}: local_time_type 0x5ea-0x5ef.7 (6)
0x5e0|                              ff ff ab a0      |          ....  |        utoff: -21600 (valid) 0x5ea-0x5ed.7 (4)
0x5e0|                                          00   |              . |        dst: 0 (valid) 0x5ee-0x5ee.7 (1)
0x5e0|                                             08|               .|        idx: 8 (valid) 0x5ef-0x5ef.7 (1)
     |                                               |                |      [3]{}: local_time_type 0x5f0-0x5f5.7 (6)
0x5f0|ff ff b9 b0                                    |....            |        utoff: -18000 (valid) 0x5f0-0x5f3.7 (4)
0x5f0|            01                                 |    .           |        dst: 1 (valid) 0x5f4-0x5f4.7 (1)
0x5f0|               0c                              |     .          |        idx: 12 (valid) 0x5f5-0x5f5.7 (1)
     |                                               |                |      [4]{}: local_time_type 0x5f6-0x5fb.7 (6)
0x5f0|                  ff ff b9 b0                  |      ....      |        utoff: -18000 (valid) 0x5f6-0x5f9.7 (4)
0x5f0|                              01               |          .     |        dst: 1 (valid) 0x5fa-0x5fa.7 (1)
0x5f0|                                 10            |           .    |        idx: 16 (valid) 0x5fb-0x5fb.7 (1)
     |                                               |                |      [5]{}: local_time_type 0x5fc-0x601.7 (6)
0x5f0|                                    ff ff ab a0|            ....|        utoff: -21600 (valid) 0x5fc-0x5ff.7 (4)
0x600|00                                             |.               |        dst: 0 (valid) 0x600-0x600.7 (1)
0x600|   08                                          | .              |        idx: 8 (valid) 0x601-0x601.7 (1)
     |                                               |                |      [6]{}: local_time_type 0x602-0x607.7 (6)
0x600|      ff ff b9 b0                              |  ....          |        utoff: -18000 (valid) 0x602-0x605.7 (4)
0x600|                  00                           |      .         |        dst: 0 (valid) 0x606-0x606.7 (1)
0x600|                     14                        |       .        |        idx: 20 (valid) 0x607-0x607.7 (1)
     |                                               |                |      [7]{}: local_time_type 0x608-0x60d.7 (6)
0x600|                        ff ff c7 c0            |        ....    |        utoff: -14400 (valid) 0x608-0x60b.7 (4)
0x600|                                    01         |            .   |        dst: 1 (valid) 0x60c-0x60c.7 (1)
0x600|                                       18      |             .  |        idx: 24 (valid) 0x60d-0x60d.7 (1)
     |                                               |                |    time_zone_designations[0:7]: 0x60e-0x629.7 (28)
0x600|                                          4c 4d|              LM|      [0]: "LMT" time_zone_designation 0x60e-0x611.7 (4)
0x610|54 00                                          |T.              |
0x610|      43 44 54 00                              |  CDT.          |      [1]: "CDT" time_zone_designation 0x612-0x615.7 (4)
0x610|                  43 53 54 00                  |      CST.      |      [2]: "CST" time_zone_designation 0x616-0x619.7 (4)
0x610|                              43 57 54 00      |          CWT.  |      [3]: "CWT" time_zone_designation 0x61a-0x61d.7 (4)
0x610|                                          43 50|              CP|      [4]: "CPT" time_zone_designation 0x61e-0x621.7 (4)
0x620|54 00                                          |T.              |
0x620|      45 53 54 00                              |  EST.          |      [5]: "EST" time_zone_designation 0x622-0x625.7 (4)
0x620|                  45 44 54 00                  |      EDT.      |      [6]: "EDT" time_zone_designation 0x626-0x629.7 (4)
     |                                               |                |    leap_second_records[0:27]: 0x62a-0x76d.7 (324)
     |                                               |                |      [0]{}: leap_second_record 0x62a-0x635.7 (12)
0x620|                              00 00 00 00 04 b2|          ......|        occur: "1972-07-01T00:00:00Z" (78796800) 0x62a-0x631.7 (8)
0x630|58 00                                          |X.              |
0x630|      00 00 00 01                              |  ....          |        corr: 1 0x632-0x635.7 (4)
     |                                               |                |      [1]{}: leap_second_record 0x636-0x641.7 (12)
0x630|                  00 00 00 00 05 a4 ec 01      |      ........  |        occur: "1973-01-01T00:00:01Z" (94694401) 0x636-0x63d.7 (8)
0x630|                                          00 00|              ..|        corr: 2 0x63e-0x641.7 (4)
0x640|00 02                                          |..              |
     |                                               |                |      [2]{}: leap_second_record 0x642-0x64d.7 (12)
0x640|      00 00 00 00 07 86 1f 82                  |  ........      |        occur: "1974-01-01T00:00:02Z" (126230402) 0x642-0x649.7 (8)
0x640|                              00 00 00 03      |          ....  |        corr: 3 0x64a-0x64d.7 (4)
     |                                               |                |      [3]{}: leap_second_record 0x64e-0x659.7 (12)
0x640|                                          00 00|              ..|        occur: "1975-01-01T00:00:03Z" (157766403) 0x64e-0x655.7 (8)
0x650|00 00 09 67 53 03                              |...gS.          |
0x650|                  00 00 00 04                  |      ....      |        corr: 4 0x656-0x659.7 (4)
     |                                               |                |      [4]{}: leap_second_record 0x65a-0x665.7 (12)
0x650|                              00 00 00 00 0b 48|          .....H|        occur: "1976-01-01T00:00:04Z" (189302404) 0x65a-0x661.7 (8)
0x660|86 84                                          |..              |
0x660|      00 00 00 05                              |  ....          |        corr: 5 0x662-0x665.7 (4)
     |                                               |                |      [5]{}: leap_second_record 0x666-0x671.7 (12)
0x660|                  00 00 00 00 0d 2b 0b 85      |      .....+..  |        occur: "1977-01-01T00:00:05Z" (220924805) 0x666-0x66d.7 (8)
0x660|                                          00 00|              ..|        corr: 6 0x66e-0x671.7 (4)
0x670|00 06                                          |..              |
     |                                               |                |      [6]{}: leap_second_record 0x672-0x67d.7 (12)
0x670|      00 00 00 00 0f 0c 3f 06                  |  ......?.      |        occur: "1978-01-01T00:00:06Z" (252460806) 0x672-0x679.7 (8)
0x670|                              00 00 00 07      |          ....  |        corr: 7 0x67a-0x67d.7 (4)
     |                                               |                |      [7]{}: leap_second_record 0x67e-0x689.7 (12)
0x670|                                          00 00|              ..|        occur: "1979-01-01T00:00:07Z" (283996807) 0x67e-0x685.7 (8)
0x680|00 00 10 ed 72 87                              |....r.          |
0x680|                  00 00 00 08                  |      ....      |        corr: 8 0x686-0x689.7 (4)
     |                                               |                |      [8]{}: leap_second_record 0x68a-0x695.7 (12)
0x680|                              00 00 00 00 12 ce|          ......|        occur: "1980-01-01T00:00:08Z" (315532808) 0x68a-0x691.7 (8)
0x690|a6 08                                          |..              |
0x690|      00 00 00 09                              |  ....          |        corr: 9 0x692-0x695.7 (4)
     |                                               |                |      [9]{}: leap_second_record 0x696-0x6a1.7 (12)
0x690|                  00 00 00 00 15 9f ca 89      |      ........  |        occur: "1981-07-01T00:00:09Z" (362793609) 0x696-0x69d.7 (8)
0x690|                                          00 00|              ..|        corr: 10 0x69e-0x6a1.7 (4)
0x6a0|00 0a                                          |..              |
     |                                               |                |      [10]{}: leap_second_record 0x6a2-0x6ad.7 (12)
0x6a0|      00 00 00 00 17 80 fe 0a                  |  ........      |        occur: "1982-07-01T00:00:10Z" (394329610) 0x6a2-0x6a9.7 (8)
0x6a0|                              00 00 00 0b      |          ....  |        corr: 11 0x6aa-0x6ad.7 (4)
     |                                               |                |      [11]{}: leap_second_record 0x6ae-0x6b9.7 (12)
0x6a0|                                          00 00|              ..|        occur: "1983-07-01T00:00:11Z" (425865611) 0x6ae-0x6b5.7 (8)
0x6b0|00 00 19 62 31 8b                              |...b1.          |
0x6b0|                  00 00 00 0c                  |      ....      |        corr: 12 0x6b6-0x6b9.7 (4)
     |                                               |                |      [12]{}: leap_second_record 0x6ba-0x6c5.7 (12)
0x6b0|                              00 00 00 00 1d 25|          .....%|        occur: "1985-07-01T00:00:12Z" (489024012) 0x6ba-0x6c1.7 (8)
0x6c0|ea 0c                                          |..              |
0x6c0|      00 00 00 0d                              |  ....          |        corr: 13 0x6c2-0x6c5.7 (4)
     |                                               |                |      [13]{}: leap_second_record 0x6c6-0x6d1.7 (12)
0x6c0|                  00 00 00 00 21 da e5 0d      |      ....!...  |        occur: "1988-01-01T00:00:13Z" (567993613) 0x6c6-0x6cd.7 (8)
0x6c0|                                          00 00|              ..|        corr: 14 0x6ce-0x6d1.7 (4)
0x6d0|00 0e                                          |..              |
     |                                               |                |      [14]{}: leap_second_record 0x6d2-0x6dd.7 (12)
0x6d0|      00 00 00 00 25 9e 9d 8e                  |  ....%...      |        occur: "1990-01-01T00:00:14Z" (631152014) 0x6d2-0x6d9.7 (8)
0x6d0|                              00 00 00 0f      |          ....  |        corr: 15 0x6da-0x6dd.7 (4)
     |                                               |                |      [15]{}: leap_second_record 0x6de-0x6e9.7 (12)
0x6d0|                                          00 00|              ..|        occur: "1991-01-01T00:00:15Z" (662688015) 0x6de-0x6e5.7 (8)
0x6e0|00 00 27 7f d1 0f                              |..'...          |
0x6e0|                  00 00 00 10                  |      ....      |        corr: 16 0x6e6-0x6e9.7 (4)
     |                                               |                |      [16]{}: leap_second_record 0x6ea-0x6f5.7 (12)
0x6e0|                              00 00 00 00 2a 50|          ....*P|        occur: "1992-07-01T00:00:16Z" (709948816) 0x6ea-0x6f1.7 (8)
0x6f0|f5 90                                          |..              |
0x6f0|      00 00 00 11                              |  ....          |        corr: 17 0x6f2-0x6f5.7 (4)
     |                                               |                |      [17]{}: leap_second_record 0x6f6-0x701.7 (12)
0x6f0|                  00 00 00 00 2c 32 29 11      |      ....,2).  |        occur: "1993-07-01T00:00:17Z" (741484817) 0x6f6-0x6fd.7 (8)
0x6f0|                                          00 00|              ..|        corr: 18 0x6fe-0x701.7 (4)
0x700|00 12                                          |..              |
     |                                               |                |      [18]{}: leap_second_record 0x702-0x70d.7 (12)
0x700|      00 00 00 00 2e 13 5c 92                  |  ......\.      |        occur: "1994-07-01T00:00:18Z" (773020818) 0x702-0x709.7 (8)
0x700|                              00 00 00 13      |          ....  |        corr: 19 0x70a-0x70d.7 (4)
     |                                               |                |      [19]{}: leap_second_record 0x70e-0x719.7 (12)
0x700|                                          00 00|              ..|        occur: "1996-01-01T00:00:19Z" (820454419) 0x70e-0x715.7 (8)
0x710|00 00 30 e7 24 13                              |..0.$.          |
0x710|                  00 00 00 14                  |      ....      |        corr: 20 0x716-0x719.7 (4)
     |                                               |                |      [20]{}: leap_second_record 0x71a-0x725.7 (12)
0x710|                              00 00 00 00 33 b8|          ....3.|        occur: "1997-07-01T00:00:20Z" (867715220) 0x71a-0x721.7 (8)
0x720|48 94                                          |H.              |
0x720|      00 00 00 15                              |  ....          |        corr: 21 0x722-0x725.7 (4)
     |                                               |                |      [21]{}: leap_second_record 0x726-0x731.7 (12)
0x720|                  00 00 00 00 36 8c 10 15      |      ....6...  |        occur: "1999-01-01T00:00:21Z" (915148821) 0x726-0x72d.7 (8)
0x720|                                          00 00|              ..|        corr: 22 0x72e-0x731.7 (4)
0x730|00 16                                          |..              |
     |                                               |                |      [22]{}: leap_second_record 0x732-0x73d.7 (12)
0x730|      00 00 00 00 43 b7 1b 96                  |  ....C...      |        occur: "2006-01-01T00:00:22Z" (1136073622) 0x732-0x739.7 (8)
0x730|                              00 00 00 17      |          ....  |        corr: 23 0x73a-0x73d.7 (4)
     |                                               |                |      [23]{}: leap_second_record 0x73e-0x749.7 (12)
0x730|                                          00 00|              ..|        occur: "2009-01-01T00:00:23Z" (1230768023) 0x73e-0x745.7 (8)
0x740|00 00 49 5c 07 97                              |..I\..          |
0x740|                  00 00 00 18                  |      ....      |        corr: 24 0x746-0x749.7 (4)
     |                                               |                |      [24]{}: leap_second_record 0x74a-0x755.7 (12)
0x740|                              00 00 00 00 4f ef|          ....O.|        occur: "2012-07-01T00:00:24Z" (1341100824) 0x74a-0x751.7 (8)
0x750|93 18                                          |..              |
0x750|      00 00 00 19                              |  ....          |        corr: 25 0x752-0x755.7 (4)
     |                                               |                |      [25]{}: leap_second_record 0x756-0x761.7 (12)
0x750|                  00 00 00 00 55 93 2d 99      |      ....U.-.  |        occur: "2015-07-01T00:00:25Z" (1435708825) 0x756-0x75d.7 (8)
0x750|                                          00 00|              ..|        corr: 26 0x75e-0x761.7 (4)
0x760|00 1a                                          |..              |
     |                                               |                |      [26]{}: leap_second_record 0x762-0x76d.7 (12)
0x760|      00 00 00 00 58 68 46 9a                  |  ....XhF.      |        occur: "2017-01-01T00:00:26Z" (1483228826) 0x762-0x769.7 (8)
0x760|                              00 00 00 1b      |          ....  |        corr: 27 0x76a-0x76d.7 (4)
     |                                               |                |    standard_wall_indicators[0:8]: 0x76e-0x775.7 (8)
0x760|                                          00   |              . |      [0]: 0 standard_wall_indicator (valid) 0x76e-0x76e.7 (1)
0x760|                                             00|               .|      [1]: 0 standard_wall_indicator (valid) 0x76f-0x76f.7 (1)
0x770|00                                             |.               |      [2]: 0 standard_wall_indicator (valid) 0x770-0x770.7 (1)
0x770|   00                                          | .              |      [3]: 0 standard_wall_indicator (valid) 0x771-0x771.7 (1)
0x770|      01                                       |  .             |      [4]: 1 standard_wall_indicator (valid) 0x772-0x772.7 (1)
0x770|         01                                    |   .            |      [5]: 1 standard_wall_indicator (valid) 0x773-0x773.7 (1)
0x770|            00                                 |    .           |      [6]: 0 standard_wall_indicator (valid) 0x774-0x774.7 (1)
0x770|               00                              |     .          |      [7]: 0 standard_wall_indicator (valid) 0x775-0x775.7 (1)
     |                                               |                |    ut_local_indicators[0:8]: 0x776-0x77d.7 (8)
0x770|                  00                           |      .         |      [0]: 0 ut_local_indicator (valid) 0x776-0x776.7 (1)
0x770|                     00                        |       .        |      [1]: 0 ut_local_indicator (valid) 0x777-0x777.7 (1)
0x770|                        00                     |        .       |      [2]: 0 ut_local_indicator (valid) 0x778-0x778.7 (1)
0x770|                           00                  |         .      |      [3]: 0 ut_local_indicator (valid) 0x779-0x779.7 (1)
0x770|                              01               |          .     |      [4]: 1 ut_local_indicator (valid) 0x77a-0x77a.7 (1)
0x770|                                 01            |           .    |      [5]: 1 ut_local_indicator (valid) 0x77b-0x77b.7 (1)
0x770|                                    00         |            .   |      [6]: 0 ut_local_indicator (valid) 0x77c-0x77c.7 (1)
0x770|                                       00      |             .  |      [7]: 0 ut_local_indicator (valid) 0x77d-0x77d.7 (1)
     |                                               |                |  footer{}: 0x77e-0x77f.7 (2)
0x770|                                          0a   |              . |    nl1: 10 (valid) 0x77e-0x77e.7 (1)
     |                                               |                |    tz_string: "" 0x77f-NA (0)
0x770|                                             0a|               .|    nl2: 10 (valid) 0x77f-0x77f.7 (1)
