$ fq -d tzif dv Winnipeg
     |00 01 02 03 04 05 06 07 08 09 0a 0b 0c 0d 0e 0f|0123456789abcdef|.{}: Winnipeg (tzif) 0x0-0xbb2 (2994)
     |                                               |                |  v1header{}: 0x0-0x2c (44)
0x000|54 5a 69 66                                    |TZif            |    magic: 0x545a6966 (valid) 0x0-0x4 (4)
0x000|            32                                 |    2           |    ver: "2" (0x32) (valid) 0x4-0x5 (1)
0x000|               00 00 00 00 00 00 00 00 00 00 00|     ...........|    reserved: raw bits 0x5-0x14 (15)
0x010|00 00 00 00                                    |....            |
0x010|            00 00 00 07                        |    ....        |    isutcnt: 7 0x14-0x18 (4)
0x010|                        00 00 00 07            |        ....    |    isstdcnt: 7 0x18-0x1c (4)
0x010|                                    00 00 00 1b|            ....|    leapcnt: 27 0x1c-0x20 (4)
0x020|00 00 00 9e                                    |....            |    timecnt: 158 0x20-0x24 (4)
0x020|            00 00 00 07                        |    ....        |    typecnt: 7 0x24-0x28 (4)
0x020|                        00 00 00 14            |        ....    |    charcnt: 20 0x28-0x2c (4)
     |                                               |                |  v1datablock{}: 0x2c-0x466 (1082)
     |                                               |                |    transition_times[0:158]: 0x2c-0x2a4 (632)
0x020|                                    80 00 00 00|            ....|      [0]: "1901-12-13T20:45:52Z" (-2147483648) transition_time 0x2c-0x30 (4)
0x030|9b 01 fb e0                                    |....            |      [1]: "1916-04-23T06:00:00Z" (-1694368800) transition_time 0x30-0x34 (4)
0x030|            9b c3 ba 50                        |    ...P        |      [2]: "1916-09-17T05:00:00Z" (-1681671600) transition_time 0x34-0x38 (4)
0x030|                        9e b8 a1 80            |        ....    |      [3]: "1918-04-14T08:00:00Z" (-1632067200) transition_time 0x38-0x3c (4)
0x030|                                    9f ba f9 70|            ...p|      [4]: "1918-10-27T07:00:00Z" (-1615136400) transition_time 0x3c-0x40 (4)
0x040|c2 a0 3b 80                                    |..;.            |      [5]: "1937-05-16T08:00:00Z" (-1029686400) transition_time 0x40-0x44 (4)
0x040|            c3 4f 84 f0                        |    .O..        |      [6]: "1937-09-26T07:00:00Z" (-1018198800) transition_time 0x44-0x48 (4)
0x040|                        cb 88 fe 80            |        ....    |      [7]: "1942-02-09T08:00:00Z" (-880214400) transition_time 0x48-0x4c (4)
0x040|                                    d2 23 f4 70|            .#.p|      [8]: "1945-08-14T23:00:00Z" (-769395600) transition_time 0x4c-0x50 (4)
0x050|d2 61 09 f0                                    |.a..            |      [9]: "1945-09-30T07:00:00Z" (-765392400) transition_time 0x50-0x54 (4)
0x050|            d3 88 68 00                        |    ..h.        |      [10]: "1946-05-12T08:00:00Z" (-746035200) transition_time 0x54-0x58 (4)
0x050|                        d4 53 60 f0            |        .S`.    |      [11]: "1946-10-13T07:00:00Z" (-732733200) transition_time 0x58-0x5c (4)
0x050|                                    d5 55 d5 00|            .U..|      [12]: "1947-04-27T08:00:00Z" (-715795200) transition_time 0x5c-0x60 (4)
0x060|d6 20 cd f0                                    |. ..            |      [13]: "1947-09-28T07:00:00Z" (-702493200) transition_time 0x60-0x64 (4)
0x060|            d7 35 b7 00                        |    .5..        |      [14]: "1948-04-25T08:00:00Z" (-684345600) transition_time 0x64-0x68 (4)
0x060|                        d8 00 af f0            |        ....    |      [15]: "1948-09-26T07:00:00Z" (-671043600) transition_time 0x68-0x6c (4)
0x060|                                    d9 15 99 00|            ....|      [16]: "1949-04-24T08:00:00Z" (-652896000) transition_time 0x6c-0x70 (4)
0x070|d9 e0 91 f0                                    |....            |      [17]: "1949-09-25T07:00:00Z" (-639594000) transition_time 0x70-0x74 (4)
0x070|            db 00 07 00                        |    ....        |      [18]: "1950-05-01T08:00:00Z" (-620755200) transition_time 0x74-0x78 (4)
0x070|                        db c8 5c f0            |        ..\.    |      [19]: "1950-09-30T07:00:00Z" (-607626000) transition_time 0x78-0x7c (4)
0x070|                                    dc de 97 80|            ....|      [20]: "1951-04-29T08:00:00Z" (-589392000) transition_time 0x7c-0x80 (4)
0x080|dd a9 90 70                                    |...p            |      [21]: "1951-09-30T07:00:00Z" (-576090000) transition_time 0x80-0x84 (4)
0x080|            de be 79 80                        |    ..y.        |      [22]: "1952-04-27T08:00:00Z" (-557942400) transition_time 0x84-0x88 (4)
0x080|                        df 89 72 70            |        ..rp    |      [23]: "1952-09-28T07:00:00Z" (-544640400) transition_time 0x88-0x8c (4)
0x080|                                    e0 9e 5b 80|            ..[.|      [24]: "1953-04-26T08:00:00Z" (-526492800) transition_time 0x8c-0x90 (4)
0x090|e1 69 54 70                                    |.iTp            |      [25]: "1953-09-27T07:00:00Z" (-513190800) transition_time 0x90-0x94 (4)
0x090|            e2 7e 3d 80                        |    .~=.        |      [26]: "1954-04-25T08:00:00Z" (-495043200) transition_time 0x94-0x98 (4)
0x090|                        e3 49 36 70            |        .I6p    |      [27]: "1954-09-26T07:00:00Z" (-481741200) transition_time 0x98-0x9c (4)
0x090|                                    e4 5e 1f 80|            .^..|      [28]: "1955-04-24T08:00:00Z" (-463593600) transition_time 0x9c-0xa0 (4)
0x0a0|e5 29 18 70                                    |.).p            |      [29]: "1955-09-25T07:00:00Z" (-450291600) transition_time 0xa0-0xa4 (4)
0x0a0|            e6 47 3c 00                        |    .G<.        |      [30]: "1956-04-29T08:00:00Z" (-431539200) transition_time 0xa4-0xa8 (4)
0x0a0|                        e7 12 34 f0            |        ..4.    |      [31]: "1956-09-30T07:00:00Z" (-418237200) transition_time 0xa8-0xac (4)
0x0a0|                                    e8 27 1e 00|            .'..|      [32]: "1957-04-28T08:00:00Z" (-400089600) transition_time 0xac-0xb0 (4)
0x0b0|e8 f2 16 f0                                    |....            |      [33]: "1957-09-29T07:00:00Z" (-386787600) transition_time 0xb0-0xb4 (4)
0x0b0|            ea 07 00 00                        |    ....        |      [34]: "1958-04-27T08:00:00Z" (-368640000) transition_time 0xb4-0xb8 (4)
0x0b0|                        ea d1 f8 f0            |        ....    |      [35]: "1958-09-28T07:00:00Z" (-355338000) transition_time 0xb8-0xbc (4)
0x0b0|                                    eb e6 e2 00|            ....|      [36]: "1959-04-26T08:00:00Z" (-337190400) transition_time 0xbc-0xc0 (4)
0x0c0|ec d6 c4 f0                                    |....            |      [37]: "1959-10-25T07:00:00Z" (-321469200) transition_time 0xc0-0xc4 (4)
0x0c0|            ed c6 c4 00                        |    ....        |      [38]: "1960-04-24T08:00:00Z" (-305740800) transition_time 0xc4-0xc8 (4)
0x0c0|                        ee 91 bc f0            |        ....    |      [39]: "1960-09-25T07:00:00Z" (-292438800) transition_time 0xc8-0xcc (4)
0x0c0|                                    f3 6f a4 80|            .o..|      [40]: "1963-04-28T08:00:00Z" (-210787200) transition_time 0xcc-0xd0 (4)
0x0d0|f4 31 62 f0                                    |.1b.            |      [41]: "1963-09-22T07:00:00Z" (-198090000) transition_time 0xd0-0xd4 (4)
0x0d0|            f9 0f 4a 80                        |    ..J.        |      [42]: "1966-04-24T08:00:00Z" (-116438400) transition_time 0xd4-0xd8 (4)
0x0d0|                        fa 08 76 00            |        ..v.    |      [43]: "1966-10-30T08:00:00Z" (-100108800) transition_time 0xd8-0xdc (4)
0x0d0|                                    fa f8 67 00|            ..g.|      [44]: "1967-04-30T08:00:00Z" (-84384000) transition_time 0xdc-0xe0 (4)
0x0e0|fb e8 58 00                                    |..X.            |      [45]: "1967-10-29T08:00:00Z" (-68659200) transition_time 0xe0-0xe4 (4)
0x0e0|            fc d8 49 00                        |    ..I.        |      [46]: "1968-04-28T08:00:00Z" (-52934400) transition_time 0xe4-0xe8 (4)
0x0e0|                        fd c8 3a 00            |        ..:.    |      [47]: "1968-10-27T08:00:00Z" (-37209600) transition_time 0xe8-0xec (4)
0x0e0|                                    fe b8 2b 00|            ..+.|      [48]: "1969-04-27T08:00:00Z" (-21484800) transition_time 0xec-0xf0 (4)
0x0f0|ff a8 1c 00                                    |....            |      [49]: "1969-10-26T08:00:00Z" (-5760000) transition_time 0xf0-0xf4 (4)
0x0f0|            00 98 0d 00                        |    ....        |      [50]: "1970-04-26T08:00:00Z" (9964800) transition_time 0xf4-0xf8 (4)
0x0f0|                        01 87 fe 00            |        ....    |      [51]: "1970-10-25T08:00:00Z" (25689600) transition_time 0xf8-0xfc (4)
0x0f0|                                    02 77 ef 00|            .w..|      [52]: "1971-04-25T08:00:00Z" (41414400) transition_time 0xfc-0x100 (4)
0x100|03 71 1a 80                                    |.q..            |      [53]: "1971-10-31T08:00:00Z" (57744000) transition_time 0x100-0x104 (4)
0x100|            04 61 0b 80                        |    .a..        |      [54]: "1972-04-30T08:00:00Z" (73468800) transition_time 0x104-0x108 (4)
0x100|                        05 50 fc 81            |        .P..    |      [55]: "1972-10-29T08:00:01Z" (89193601) transition_time 0x108-0x10c (4)
0x100|                                    06 40 ed 82|            .@..|      [56]: "1973-04-29T08:00:02Z" (104918402) transition_time 0x10c-0x110 (4)
0x110|07 30 de 82                                    |.0..            |      [57]: "1973-10-28T08:00:02Z" (120643202) transition_time 0x110-0x114 (4)
0x110|            08 20 cf 83                        |    . ..        |      [58]: "1974-04-28T08:00:03Z" (136368003) transition_time 0x114-0x118 (4)
0x110|                        09 10 c0 83            |        ....    |      [59]: "1974-10-27T08:00:03Z" (152092803) transition_time 0x118-0x11c (4)
0x110|                                    0a 00 b1 84|            ....|      [60]: "1975-04-27T08:00:04Z" (167817604) transition_time 0x11c-0x120 (4)
0x120|0a f0 a2 84                                    |....            |      [61]: "1975-10-26T08:00:04Z" (183542404) transition_time 0x120-0x124 (4)
0x120|            0b e0 93 85                        |    ....        |      [62]: "1976-04-25T08:00:05Z" (199267205) transition_time 0x124-0x128 (4)
0x120|                        0c d9 bf 05            |        ....    |      [63]: "1976-10-31T08:00:05Z" (215596805) transition_time 0x128-0x12c (4)
0x120|                                    0d c0 75 86|            ..u.|      [64]: "1977-04-24T08:00:06Z" (230716806) transition_time 0x12c-0x130 (4)
0x130|0e b9 a1 06                                    |....            |      [65]: "1977-10-30T08:00:06Z" (247046406) transition_time 0x130-0x134 (4)
0x130|            0f a9 92 07                        |    ....        |      [66]: "1978-04-30T08:00:07Z" (262771207) transition_time 0x134-0x138 (4)
0x130|                        10 99 83 07            |        ....    |      [67]: "1978-10-29T08:00:07Z" (278496007) transition_time 0x138-0x13c (4)
0x130|                                    11 89 74 08|            ..t.|      [68]: "1979-04-29T08:00:08Z" (294220808) transition_time 0x13c-0x140 (4)
0x140|12 79 65 08                                    |.ye.            |      [69]: "1979-10-28T08:00:08Z" (309945608) transition_time 0x140-0x144 (4)
0x140|            13 69 56 09                        |    .iV.        |      [70]: "1980-04-27T08:00:09Z" (325670409) transition_time 0x144-0x148 (4)
0x140|                        14 59 47 09            |        .YG.    |      [71]: "1980-10-26T08:00:09Z" (341395209) transition_time 0x148-0x14c (4)
0x140|                                    15 49 38 09|            .I8.|      [72]: "1981-04-26T08:00:09Z" (357120009) transition_time 0x14c-0x150 (4)
0x150|16 39 29 0a                                    |.9).            |      [73]: "1981-10-25T08:00:10Z" (372844810) transition_time 0x150-0x154 (4)
0x150|            17 29 1a 0a                        |    .)..        |      [74]: "1982-04-25T08:00:10Z" (388569610) transition_time 0x154-0x158 (4)
0x150|                        18 22 45 8b            |        ."E.    |      [75]: "1982-10-31T08:00:11Z" (404899211) transition_time 0x158-0x15c (4)
0x150|                                    19 08 fc 0b|            ....|      [76]: "1983-04-24T08:00:11Z" (420019211) transition_time 0x15c-0x160 (4)
0x160|1a 02 27 8c                                    |..'.            |      [77]: "1983-10-30T08:00:12Z" (436348812) transition_time 0x160-0x164 (4)
0x160|            1a f2 18 8c                        |    ....        |      [78]: "1984-04-29T08:00:12Z" (452073612) transition_time 0x164-0x168 (4)
0x160|                        1b e2 09 8c            |        ....    |      [79]: "1984-10-28T08:00:12Z" (467798412) transition_time 0x168-0x16c (4)
0x160|                                    1c d1 fa 8c|            ....|      [80]: "1985-04-28T08:00:12Z" (483523212) transition_time 0x16c-0x170 (4)
0x170|1d c1 eb 8d                                    |....            |      [81]: "1985-10-27T08:00:13Z" (499248013) transition_time 0x170-0x174 (4)
0x170|            1e b1 dc 8d                        |    ....        |      [82]: "1986-04-27T08:00:13Z" (514972813) transition_time 0x174-0x178 (4)
0x170|                        1f a1 cd 8d            |        ....    |      [83]: "1986-10-26T08:00:13Z" (530697613) transition_time 0x178-0x17c (4)
0x170|                                    20 76 0f 0d|             v..|      [84]: "1987-04-05T08:00:13Z" (544608013) transition_time 0x17c-0x180 (4)
0x180|21 81 af 8d                                    |!...            |      [85]: "1987-10-25T08:00:13Z" (562147213) transition_time 0x180-0x184 (4)
0x180|            22 55 f1 0e                        |    "U..        |      [86]: "1988-04-03T08:00:14Z" (576057614) transition_time 0x184-0x188 (4)
0x180|                        23 6a cc 0e            |        #j..    |      [87]: "1988-10-30T08:00:14Z" (594201614) transition_time 0x188-0x18c (4)
0x180|                                    24 35 d3 0e|            $5..|      [88]: "1989-04-02T08:00:14Z" (607507214) transition_time 0x18c-0x190 (4)
0x190|25 4a ae 0e                                    |%J..            |      [89]: "1989-10-29T08:00:14Z" (625651214) transition_time 0x190-0x194 (4)
0x190|            26 15 b5 0f                        |    &...        |      [90]: "1990-04-01T08:00:15Z" (638956815) transition_time 0x194-0x198 (4)
0x190|                        27 2a 90 0f            |        '*..    |      [91]: "1990-10-28T08:00:15Z" (657100815) transition_time 0x198-0x19c (4)
0x190|                                    27 fe d1 90|            '...|      [92]: "1991-04-07T08:00:16Z" (671011216) transition_time 0x19c-0x1a0 (4)
0x1a0|29 0a 72 10                                    |).r.            |      [93]: "1991-10-27T08:00:16Z" (688550416) transition_time 0x1a0-0x1a4 (4)
0x1a0|            29 de b3 90                        |    )...        |      [94]: "1992-04-05T08:00:16Z" (702460816) transition_time 0x1a4-0x1a8 (4)
0x1a0|                        2a ea 54 11            |        *.T.    |      [95]: "1992-10-25T08:00:17Z" (720000017) transition_time 0x1a8-0x1ac (4)
0x1a0|                                    2b be 95 91|            +...|      [96]: "1993-04-04T08:00:17Z" (733910417) transition_time 0x1ac-0x1b0 (4)
0x1b0|2c d3 70 92                                    |,.p.            |      [97]: "1993-10-31T08:00:18Z" (752054418) transition_time 0x1b0-0x1b4 (4)
0x1b0|            2d 9e 77 92                        |    -.w.        |      [98]: "1994-04-03T08:00:18Z" (765360018) transition_time 0x1b4-0x1b8 (4)
0x1b0|                        2e b3 52 93            |        ..R.    |      [99]: "1994-10-30T08:00:19Z" (783504019) transition_time 0x1b8-0x1bc (4)
0x1b0|                                    2f 7e 59 93|            /~Y.|      [100]: "1995-04-02T08:00:19Z" (796809619) transition_time 0x1bc-0x1c0 (4)
0x1c0|30 93 34 93                                    |0.4.            |      [101]: "1995-10-29T08:00:19Z" (814953619) transition_time 0x1c0-0x1c4 (4)
0x1c0|            31 67 76 14                        |    1gv.        |      [102]: "1996-04-07T08:00:20Z" (828864020) transition_time 0x1c4-0x1c8 (4)
0x1c0|                        32 73 16 94            |        2s..    |      [103]: "1996-10-27T08:00:20Z" (846403220) transition_time 0x1c8-0x1cc (4)
0x1c0|                                    33 47 58 14|            3GX.|      [104]: "1997-04-06T08:00:20Z" (860313620) transition_time 0x1cc-0x1d0 (4)
0x1d0|34 52 f8 95                                    |4R..            |      [105]: "1997-10-26T08:00:21Z" (877852821) transition_time 0x1d0-0x1d4 (4)
0x1d0|            35 27 3a 15                        |    5':.        |      [106]: "1998-04-05T08:00:21Z" (891763221) transition_time 0x1d4-0x1d8 (4)
0x1d0|                        36 32 da 95            |        62..    |      [107]: "1998-10-25T08:00:21Z" (909302421) transition_time 0x1d8-0x1dc (4)
0x1d0|                                    37 07 1c 16|            7...|      [108]: "1999-04-04T08:00:22Z" (923212822) transition_time 0x1dc-0x1e0 (4)
0x1e0|38 1b f7 16                                    |8...            |      [109]: "1999-10-31T08:00:22Z" (941356822) transition_time 0x1e0-0x1e4 (4)
0x1e0|            38 e6 fe 16                        |    8...        |      [110]: "2000-04-02T08:00:22Z" (954662422) transition_time 0x1e4-0x1e8 (4)
0x1e0|                        39 fb d9 16            |        9...    |      [111]: "2000-10-29T08:00:22Z" (972806422) transition_time 0x1e8-0x1ec (4)
0x1e0|                                    3a c6 e0 16|            :...|      [112]: "2001-04-01T08:00:22Z" (986112022) transition_time 0x1ec-0x1f0 (4)
0x1f0|3b db bb 16                                    |;...            |      [113]: "2001-10-28T08:00:22Z" (1004256022) transition_time 0x1f0-0x1f4 (4)
0x1f0|            3c af fc 96                        |    <...        |      [114]: "2002-04-07T08:00:22Z" (1018166422) transition_time 0x1f4-0x1f8 (4)
0x1f0|                        3d bb 9d 16            |        =...    |      [115]: "2002-10-27T08:00:22Z" (1035705622) transition_time 0x1f8-0x1fc (4)
0x1f0|                                    3e 8f de 96|            >...|      [116]: "2003-04-06T08:00:22Z" (1049616022) transition_time 0x1fc-0x200 (4)
0x200|3f 9b 7f 16                                    |?...            |      [117]: "2003-10-26T08:00:22Z" (1067155222) transition_time 0x200-0x204 (4)
0x200|            40 6f c0 96                        |    @o..        |      [118]: "2004-04-04T08:00:22Z" (1081065622) transition_time 0x204-0x208 (4)
0x200|                        41 84 9b 96            |        A...    |      [119]: "2004-10-31T08:00:22Z" (1099209622) transition_time 0x208-0x20c (4)
0x200|                                    42 4f a2 96|            BO..|      [120]: "2005-04-03T08:00:22Z" (1112515222) transition_time 0x20c-0x210 (4)
0x210|43 64 7d 96                                    |Cd}.            |      [121]: "2005-10-30T08:00:22Z" (1130659222) transition_time 0x210-0x214 (4)
0x210|            44 2f 84 97                        |    D/..        |      [122]: "2006-04-02T08:00:23Z" (1143964823) transition_time 0x214-0x218 (4)
0x210|                        45 44 51 87            |        EDQ.    |      [123]: "2006-10-29T07:00:23Z" (1162105223) transition_time 0x218-0x21c (4)
0x210|                                    45 f3 b7 17|            E...|      [124]: "2007-03-11T08:00:23Z" (1173600023) transition_time 0x21c-0x220 (4)
0x220|47 2d 6e 07                                    |G-n.            |      [125]: "2007-11-04T07:00:23Z" (1194159623) transition_time 0x220-0x224 (4)
0x220|            47 d3 99 17                        |    G...        |      [126]: "2008-03-09T08:00:23Z" (1205049623) transition_time 0x224-0x228 (4)
0x220|                        49 0d 50 07            |        I.P.    |      [127]: "2008-11-02T07:00:23Z" (1225609223) transition_time 0x228-0x22c (4)
0x220|                                    49 b3 7b 18|            I.{.|      [128]: "2009-03-08T08:00:24Z" (1236499224) transition_time 0x22c-0x230 (4)
0x230|4a ed 32 08                                    |J.2.            |      [129]: "2009-11-01T07:00:24Z" (1257058824) transition_time 0x230-0x234 (4)
0x230|            4b 9c 97 98                        |    K...        |      [130]: "2010-03-14T08:00:24Z" (1268553624) transition_time 0x234-0x238 (4)
0x230|                        4c d6 4e 88            |        L.N.    |      [131]: "2010-11-07T07:00:24Z" (1289113224) transition_time 0x238-0x23c (4)
0x230|                                    4d 7c 79 98|            M|y.|      [132]: "2011-03-13T08:00:24Z" (1300003224) transition_time 0x23c-0x240 (4)
0x240|4e b6 30 88                                    |N.0.            |      [133]: "2011-11-06T07:00:24Z" (1320562824) transition_time 0x240-0x244 (4)
0x240|            4f 5c 5b 98                        |    O\[.        |      [134]: "2012-03-11T08:00:24Z" (1331452824) transition_time 0x244-0x248 (4)
0x240|                        50 96 12 89            |        P...    |      [135]: "2012-11-04T07:00:25Z" (1352012425) transition_time 0x248-0x24c (4)
0x240|                                    51 3c 3d 99|            Q<=.|      [136]: "2013-03-10T08:00:25Z" (1362902425) transition_time 0x24c-0x250 (4)
0x250|52 75 f4 89                                    |Ru..            |      [137]: "2013-11-03T07:00:25Z" (1383462025) transition_time 0x250-0x254 (4)
0x250|            53 1c 1f 99                        |    S...        |      [138]: "2014-03-09T08:00:25Z" (1394352025) transition_time 0x254-0x258 (4)
0x250|                        54 55 d6 89            |        TU..    |      [139]: "2014-11-02T07:00:25Z" (1414911625) transition_time 0x258-0x25c (4)
0x250|                                    54 fc 01 99|            T...|      [140]: "2015-03-08T08:00:25Z" (1425801625) transition_time 0x25c-0x260 (4)
0x260|56 35 b8 8a                                    |V5..            |      [141]: "2015-11-01T07:00:26Z" (1446361226) transition_time 0x260-0x264 (4)
0x260|            56 e5 1e 1a                        |    V...        |      [142]: "2016-03-13T08:00:26Z" (1457856026) transition_time 0x264-0x268 (4)
0x260|                        58 1e d5 0a            |        X...    |      [143]: "2016-11-06T07:00:26Z" (1478415626) transition_time 0x268-0x26c (4)
0x260|                                    58 c5 00 1b|            X...|      [144]: "2017-03-12T08:00:27Z" (1489305627) transition_time 0x26c-0x270 (4)
0x270|59 fe b7 0b                                    |Y...            |      [145]: "2017-11-05T07:00:27Z" (1509865227) transition_time 0x270-0x274 (4)
0x270|            5a a4 e2 1b                        |    Z...        |      [146]: "2018-03-11T08:00:27Z" (1520755227) transition_time 0x274-0x278 (4)
0x270|                        5b de 99 0b            |        [...    |      [147]: "2018-11-04T07:00:27Z" (1541314827) transition_time 0x278-0x27c (4)
0x270|                                    5c 84 c4 1b|            \...|      [148]: "2019-03-10T08:00:27Z" (1552204827) transition_time 0x27c-0x280 (4)
0x280|5d be 7b 0b                                    |].{.            |      [149]: "2019-11-03T07:00:27Z" (1572764427) transition_time 0x280-0x284 (4)
0x280|            5e 64 a6 1b                        |    ^d..        |      [150]: "2020-03-08T08:00:27Z" (1583654427) transition_time 0x284-0x288 (4)
0x280|                        5f 9e 5d 0b            |        _.].    |      [151]: "2020-11-01T07:00:27Z" (1604214027) transition_time 0x288-0x28c (4)
0x280|                                    60 4d c2 9b|            `M..|      [152]: "2021-03-14T08:00:27Z" (1615708827) transition_time 0x28c-0x290 (4)
0x290|61 87 79 8b                                    |a.y.            |      [153]: "2021-11-07T07:00:27Z" (1636268427) transition_time 0x290-0x294 (4)
0x290|            62 2d a4 9b                        |    b-..        |      [154]: "2022-03-13T08:00:27Z" (1647158427) transition_time 0x294-0x298 (4)
0x290|                        63 67 5b 8b            |        cg[.    |      [155]: "2022-11-06T07:00:27Z" (1667718027) transition_time 0x298-0x29c (4)
0x290|                                    64 0d 86 9b|            d...|      [156]: "2023-03-12T08:00:27Z" (1678608027) transition_time 0x29c-0x2a0 (4)
0x2a0|64 9b 78 1b                                    |d.x.            |      [157]: "2023-06-28T00:00:27Z" (1687910427) transition_time 0x2a0-0x2a4 (4)
     |                                               |                |    transition_types[0:158]: 0x2a4-0x342 (158)
0x2a0|            02                                 |    .           |      [0]: 2 transition_type 0x2a4-0x2a5 (1)
0x2a0|               01                              |     .          |      [1]: 1 transition_type 0x2a5-0x2a6 (1)
0x2a0|                  02                           |      .         |      [2]: 2 transition_type 0x2a6-0x2a7 (1)
0x2a0|                     01                        |       .        |      [3]: 1 transition_type 0x2a7-0x2a8 (1)
0x2a0|                        02                     |        .       |      [4]: 2 transition_type 0x2a8-0x2a9 (1)
0x2a0|                           01                  |         .      |      [5]: 1 transition_type 0x2a9-0x2aa (1)
0x2a0|                              02               |          .     |      [6]: 2 transition_type 0x2aa-0x2ab (1)
0x2a0|                                 03            |           .    |      [7]: 3 transition_type 0x2ab-0x2ac (1)
0x2a0|                                    04         |            .   |      [8]: 4 transition_type 0x2ac-0x2ad (1)
0x2a0|                                       02      |             .  |      [9]: 2 transition_type 0x2ad-0x2ae (1)
0x2a0|                                          01   |              . |      [10]: 1 transition_type 0x2ae-0x2af (1)
0x2a0|                                             02|               .|      [11]: 2 transition_type 0x2af-0x2b0 (1)
0x2b0|01                                             |.               |      [12]: 1 transition_type 0x2b0-0x2b1 (1)
0x2b0|   02                                          | .              |      [13]: 2 transition_type 0x2b1-0x2b2 (1)
0x2b0|      01                                       |  .             |      [14]: 1 transition_type 0x2b2-0x2b3 (1)
0x2b0|         02                                    |   .            |      [15]: 2 transition_type 0x2b3-0x2b4 (1)
0x2b0|            01                                 |    .           |      [16]: 1 transition_type 0x2b4-0x2b5 (1)
0x2b0|               02                              |     .          |      [17]: 2 transition_type 0x2b5-0x2b6 (1)
0x2b0|                  01                           |      .         |      [18]: 1 transition_type 0x2b6-0x2b7 (1)
0x2b0|                     02                        |       .        |      [19]: 2 transition_type 0x2b7-0x2b8 (1)
0x2b0|                        01                     |        .       |      [20]: 1 transition_type 0x2b8-0x2b9 (1)
0x2b0|                           02                  |         .      |      [21]: 2 transition_type 0x2b9-0x2ba (1)
0x2b0|                              01               |          .     |      [22]: 1 transition_type 0x2ba-0x2bb (1)
0x2b0|                                 02            |           .    |      [23]: 2 transition_type 0x2bb-0x2bc (1)
0x2b0|                                    01         |            .   |      [24]: 1 transition_type 0x2bc-0x2bd (1)
0x2b0|                                       02      |             .  |      [25]: 2 transition_type 0x2bd-0x2be (1)
0x2b0|                                          01   |              . |      [26]: 1 transition_type 0x2be-0x2bf (1)
0x2b0|                                             02|               .|      [27]: 2 transition_type 0x2bf-0x2c0 (1)
0x2c0|01                                             |.               |      [28]: 1 transition_type 0x2c0-0x2c1 (1)
0x2c0|   02                                          | .              |      [29]: 2 transition_type 0x2c1-0x2c2 (1)
0x2c0|      01                                       |  .             |      [30]: 1 transition_type 0x2c2-0x2c3 (1)
0x2c0|         02                                    |   .            |      [31]: 2 transition_type 0x2c3-0x2c4 (1)
0x2c0|            01                                 |    .           |      [32]: 1 transition_type 0x2c4-0x2c5 (1)
0x2c0|               02                              |     .          |      [33]: 2 transition_type 0x2c5-0x2c6 (1)
0x2c0|                  01                           |      .         |      [34]: 1 transition_type 0x2c6-0x2c7 (1)
0x2c0|                     02                        |       .        |      [35]: 2 transition_type 0x2c7-0x2c8 (1)
0x2c0|                        01                     |        .       |      [36]: 1 transition_type 0x2c8-0x2c9 (1)
0x2c0|                           02                  |         .      |      [37]: 2 transition_type 0x2c9-0x2ca (1)
0x2c0|                              01               |          .     |      [38]: 1 transition_type 0x2ca-0x2cb (1)
0x2c0|                                 02            |           .    |      [39]: 2 transition_type 0x2cb-0x2cc (1)
0x2c0|                                    01         |            .   |      [40]: 1 transition_type 0x2cc-0x2cd (1)
0x2c0|                                       02      |             .  |      [41]: 2 transition_type 0x2cd-0x2ce (1)
0x2c0|                                          05   |              . |      [42]: 5 transition_type 0x2ce-0x2cf (1)
0x2c0|                                             06|               .|      [43]: 6 transition_type 0x2cf-0x2d0 (1)
0x2d0|05                                             |.               |      [44]: 5 transition_type 0x2d0-0x2d1 (1)
0x2d0|   06                                          | .              |      [45]: 6 transition_type 0x2d1-0x2d2 (1)
0x2d0|      05                                       |  .             |      [46]: 5 transition_type 0x2d2-0x2d3 (1)
0x2d0|         06                                    |   .            |      [47]: 6 transition_type 0x2d3-0x2d4 (1)
0x2d0|            05                                 |    .           |      [48]: 5 transition_type 0x2d4-0x2d5 (1)
0x2d0|               06                              |     .          |      [49]: 6 transition_type 0x2d5-0x2d6 (1)
0x2d0|                  05                           |      .         |      [50]: 5 transition_type 0x2d6-0x2d7 (1)
0x2d0|                     06                        |       .        |      [51]: 6 transition_type 0x2d7-0x2d8 (1)
0x2d0|                        05                     |        .       |      [52]: 5 transition_type 0x2d8-0x2d9 (1)
0x2d0|                           06                  |         .      |      [53]: 6 transition_type 0x2d9-0x2da (1)
0x2d0|                              05               |          .     |      [54]: 5 transition_type 0x2da-0x2db (1)
0x2d0|                                 06            |           .    |      [55]: 6 transition_type 0x2db-0x2dc (1)
0x2d0|                                    05         |            .   |      [56]: 5 transition_type 0x2dc-0x2dd (1)
0x2d0|                                       06      |             .  |      [57]: 6 transition_type 0x2dd-0x2de (1)
0x2d0|                                          05   |              . |      [58]: 5 transition_type 0x2de-0x2df (1)
0x2d0|                                             06|               .|      [59]: 6 transition_type 0x2df-0x2e0 (1)
0x2e0|05                                             |.               |      [60]: 5 transition_type 0x2e0-0x2e1 (1)
0x2e0|   06                                          | .              |      [61]: 6 transition_type 0x2e1-0x2e2 (1)
0x2e0|      05                                       |  .             |      [62]: 5 transition_type 0x2e2-0x2e3 (1)
0x2e0|         06                                    |   .            |      [63]: 6 transition_type 0x2e3-0x2e4 (1)
0x2e0|            05                                 |    .           |      [64]: 5 transition_type 0x2e4-0x2e5 (1)
0x2e0|               06                              |     .          |      [65]: 6 transition_type 0x2e5-0x2e6 (1)
0x2e0|                  05                           |      .         |      [66]: 5 transition_type 0x2e6-0x2e7 (1)
0x2e0|                     06                        |       .        |      [67]: 6 transition_type 0x2e7-0x2e8 (1)
0x2e0|                        05                     |        .       |      [68]: 5 transition_type 0x2e8-0x2e9 (1)
0x2e0|                           06                  |         .      |      [69]: 6 transition_type 0x2e9-0x2ea (1)
0x2e0|                              05               |          .     |      [70]: 5 transition_type 0x2ea-0x2eb (1)
0x2e0|                                 06            |           .    |      [71]: 6 transition_type 0x2eb-0x2ec (1)
0x2e0|                                    05         |            .   |      [72]: 5 transition_type 0x2ec-0x2ed (1)
0x2e0|                                       06      |             .  |      [73]: 6 transition_type 0x2ed-0x2ee (1)
0x2e0|                                          05   |              . |      [74]: 5 transition_type 0x2ee-0x2ef (1)
0x2e0|                                             06|               .|      [75]: 6 transition_type 0x2ef-0x2f0 (1)
0x2f0|05                                             |.               |      [76]: 5 transition_type 0x2f0-0x2f1 (1)
0x2f0|   06                                          | .              |      [77]: 6 transition_type 0x2f1-0x2f2 (1)
0x2f0|      05                                       |  .             |      [78]: 5 transition_type 0x2f2-0x2f3 (1)
0x2f0|         06                                    |   .            |      [79]: 6 transition_type 0x2f3-0x2f4 (1)
0x2f0|            05                                 |    .           |      [80]: 5 transition_type 0x2f4-0x2f5 (1)
0x2f0|               06                              |     .          |      [81]: 6 transition_type 0x2f5-0x2f6 (1)
0x2f0|                  05                           |      .         |      [82]: 5 transition_type 0x2f6-0x2f7 (1)
0x2f0|                     06                        |       .        |      [83]: 6 transition_type 0x2f7-0x2f8 (1)
0x2f0|                        05                     |        .       |      [84]: 5 transition_type 0x2f8-0x2f9 (1)
0x2f0|                           06                  |         .      |      [85]: 6 transition_type 0x2f9-0x2fa (1)
0x2f0|                              05               |          .     |      [86]: 5 transition_type 0x2fa-0x2fb (1)
0x2f0|                                 06            |           .    |      [87]: 6 transition_type 0x2fb-0x2fc (1)
0x2f0|                                    05         |            .   |      [88]: 5 transition_type 0x2fc-0x2fd (1)
0x2f0|                                       06      |             .  |      [89]: 6 transition_type 0x2fd-0x2fe (1)
0x2f0|                                          05   |              . |      [90]: 5 transition_type 0x2fe-0x2ff (1)
0x2f0|                                             06|               .|      [91]: 6 transition_type 0x2ff-0x300 (1)
0x300|05                                             |.               |      [92]: 5 transition_type 0x300-0x301 (1)
0x300|   06                                          | .              |      [93]: 6 transition_type 0x301-0x302 (1)
0x300|      05                                       |  .             |      [94]: 5 transition_type 0x302-0x303 (1)
0x300|         06                                    |   .            |      [95]: 6 transition_type 0x303-0x304 (1)
0x300|            05                                 |    .           |      [96]: 5 transition_type 0x304-0x305 (1)
0x300|               06                              |     .          |      [97]: 6 transition_type 0x305-0x306 (1)
0x300|                  05                           |      .         |      [98]: 5 transition_type 0x306-0x307 (1)
0x300|                     06                        |       .        |      [99]: 6 transition_type 0x307-0x308 (1)
0x300|                        05                     |        .       |      [100]: 5 transition_type 0x308-0x309 (1)
0x300|                           06                  |         .      |      [101]: 6 transition_type 0x309-0x30a (1)
0x300|                              05               |          .     |      [102]: 5 transition_type 0x30a-0x30b (1)
0x300|                                 06            |           .    |      [103]: 6 transition_type 0x30b-0x30c (1)
0x300|                                    05         |            .   |      [104]: 5 transition_type 0x30c-0x30d (1)
0x300|                                       06      |             .  |      [105]: 6 transition_type 0x30d-0x30e (1)
0x300|                                          05   |              . |      [106]: 5 transition_type 0x30e-0x30f (1)
0x300|                                             06|               .|      [107]: 6 transition_type 0x30f-0x310 (1)
0x310|05                                             |.               |      [108]: 5 transition_type 0x310-0x311 (1)
0x310|   06                                          | .              |      [109]: 6 transition_type 0x311-0x312 (1)
0x310|      05                                       |  .             |      [110]: 5 transition_type 0x312-0x313 (1)
0x310|         06                                    |   .            |      [111]: 6 transition_type 0x313-0x314 (1)
0x310|            05                                 |    .           |      [112]: 5 transition_type 0x314-0x315 (1)
0x310|               06                              |     .          |      [113]: 6 transition_type 0x315-0x316 (1)
0x310|                  05                           |      .         |      [114]: 5 transition_type 0x316-0x317 (1)
0x310|                     06                        |       .        |      [115]: 6 transition_type 0x317-0x318 (1)
0x310|                        05                     |        .       |      [116]: 5 transition_type 0x318-0x319 (1)
0x310|                           06                  |         .      |      [117]: 6 transition_type 0x319-0x31a (1)
0x310|                              05               |          .     |      [118]: 5 transition_type 0x31a-0x31b (1)
0x310|                                 06            |           .    |      [119]: 6 transition_type 0x31b-0x31c (1)
0x310|                                    05         |            .   |      [120]: 5 transition_type 0x31c-0x31d (1)
0x310|                                       06      |             .  |      [121]: 6 transition_type 0x31d-0x31e (1)
0x310|                                          01   |              . |      [122]: 1 transition_type 0x31e-0x31f (1)
0x310|                                             02|               .|      [123]: 2 transition_type 0x31f-0x320 (1)
0x320|01                                             |.               |      [124]: 1 transition_type 0x320-0x321 (1)
0x320|   02                                          | .              |      [125]: 2 transition_type 0x321-0x322 (1)
0x320|      01                                       |  .             |      [126]: 1 transition_type 0x322-0x323 (1)
0x320|         02                                    |   .            |      [127]: 2 transition_type 0x323-0x324 (1)
0x320|            01                                 |    .           |      [128]: 1 transition_type 0x324-0x325 (1)
0x320|               02                              |     .          |      [129]: 2 transition_type 0x325-0x326 (1)
0x320|                  01                           |      .         |      [130]: 1 transition_type 0x326-0x327 (1)
0x320|                     02                        |       .        |      [131]: 2 transition_type 0x327-0x328 (1)
0x320|                        01                     |        .       |      [132]: 1 transition_type 0x328-0x329 (1)
0x320|                           02                  |         .      |      [133]: 2 transition_type 0x329-0x32a (1)
0x320|                              01               |          .     |      [134]: 1 transition_type 0x32a-0x32b (1)
0x320|                                 02            |           .    |      [135]: 2 transition_type 0x32b-0x32c (1)
0x320|                                    01         |            .   |      [136]: 1 transition_type 0x32c-0x32d (1)
0x320|                                       02      |             .  |      [137]: 2 transition_type 0x32d-0x32e (1)
0x320|                                          01   |              . |      [138]: 1 transition_type 0x32e-0x32f (1)
0x320|                                             02|               .|      [139]: 2 transition_type 0x32f-0x330 (1)
0x330|01                                             |.               |      [140]: 1 transition_type 0x330-0x331 (1)
0x330|   02                                          | .              |      [141]: 2 transition_type 0x331-0x332 (1)
0x330|      01                                       |  .             |      [142]: 1 transition_type 0x332-0x333 (1)
0x330|         02                                    |   .            |      [143]: 2 transition_type 0x333-0x334 (1)
0x330|            01                                 |    .           |      [144]: 1 transition_type 0x334-0x335 (1)
0x330|               02                              |     .          |      [145]: 2 transition_type 0x335-0x336 (1)
0x330|                  01                           |      .         |      [146]: 1 transition_type 0x336-0x337 (1)
0x330|                     02                        |       .        |      [147]: 2 transition_type 0x337-0x338 (1)
0x330|                        01                     |        .       |      [148]: 1 transition_type 0x338-0x339 (1)
0x330|                           02                  |         .      |      [149]: 2 transition_type 0x339-0x33a (1)
0x330|                              01               |          .     |      [150]: 1 transition_type 0x33a-0x33b (1)
0x330|                                 02            |           .    |      [151]: 2 transition_type 0x33b-0x33c (1)
0x330|                                    01         |            .   |      [152]: 1 transition_type 0x33c-0x33d (1)
0x330|                                       02      |             .  |      [153]: 2 transition_type 0x33d-0x33e (1)
0x330|                                          01   |              . |      [154]: 1 transition_type 0x33e-0x33f (1)
0x330|                                             02|               .|      [155]: 2 transition_type 0x33f-0x340 (1)
0x340|01                                             |.               |      [156]: 1 transition_type 0x340-0x341 (1)
0x340|   01                                          | .              |      [157]: 1 transition_type 0x341-0x342 (1)
     |                                               |                |    local_time_type_records[0:7]: 0x342-0x36c (42)
     |                                               |                |      [0]{}: local_time_type 0x342-0x348 (6)
0x340|      ff ff a4 ec                              |  ....          |        utoff: -23316 (valid) 0x342-0x346 (4)
0x340|                  00                           |      .         |        dst: 0 (valid) 0x346-0x347 (1)
0x340|                     00                        |       .        |        idx: 0 (valid) 0x347-0x348 (1)
     |                                               |                |      [1]{}: local_time_type 0x348-0x34e (6)
0x340|                        ff ff b9 b0            |        ....    |        utoff: -18000 (valid) 0x348-0x34c (4)
0x340|                                    01         |            .   |        dst: 1 (valid) 0x34c-0x34d (1)
0x340|                                       04      |             .  |        idx: 4 (valid) 0x34d-0x34e (1)
     |                                               |                |      [2]{}: local_time_type 0x34e-0x354 (6)
0x340|                                          ff ff|              ..|        utoff: -21600 (valid) 0x34e-0x352 (4)
0x350|ab a0                                          |..              |
0x350|      00                                       |  .             |        dst: 0 (valid) 0x352-0x353 (1)
0x350|         08                                    |   .            |        idx: 8 (valid) 0x353-0x354 (1)
     |                                               |                |      [3]{}: local_time_type 0x354-0x35a (6)
0x350|            ff ff b9 b0                        |    ....        |        utoff: -18000 (valid) 0x354-0x358 (4)
0x350|                        01                     |        .       |        dst: 1 (valid) 0x358-0x359 (1)
0x350|                           0c                  |         .      |        idx: 12 (valid) 0x359-0x35a (1)
     |                                               |                |      [4]{}: local_time_type 0x35a-0x360 (6)
0x350|                              ff ff b9 b0      |          ....  |        utoff: -18000 (valid) 0x35a-0x35e (4)
0x350|                                          01   |              . |        dst: 1 (valid) 0x35e-0x35f (1)
0x350|                                             10|               .|        idx: 16 (valid) 0x35f-0x360 (1)
     |                                               |                |      [5]{}: local_time_type 0x360-0x366 (6)
0x360|ff ff b9 b0                                    |....            |        utoff: -18000 (valid) 0x360-0x364 (4)
0x360|            01                                 |    .           |        dst: 1 (valid) 0x364-0x365 (1)
0x360|               04                              |     .          |        idx: 4 (valid) 0x365-0x366 (1)
     |                                               |                |      [6]{}: local_time_type 0x366-0x36c (6)
0x360|                  ff ff ab a0                  |      ....      |        utoff: -21600 (valid) 0x366-0x36a (4)
0x360|                              00               |          .     |        dst: 0 (valid) 0x36a-0x36b (1)
0x360|                                 08            |           .    |        idx: 8 (valid) 0x36b-0x36c (1)
     |                                               |                |    time_zone_designations[0:5]: 0x36c-0x380 (20)
0x360|                                    4c 4d 54 00|            LMT.|      [0]: "LMT" time_zone_designation 0x36c-0x370 (4)
0x370|43 44 54 00                                    |CDT.            |      [1]: "CDT" time_zone_designation 0x370-0x374 (4)
0x370|            43 53 54 00                        |    CST.        |      [2]: "CST" time_zone_designation 0x374-0x378 (4)
0x370|                        43 57 54 00            |        CWT.    |      [3]: "CWT" time_zone_designation 0x378-0x37c (4)
0x370|                                    43 50 54 00|            CPT.|      [4]: "CPT" time_zone_designation 0x37c-0x380 (4)
     |                                               |                |    leap_second_records[0:27]: 0x380-0x458 (216)
     |                                               |                |      [0]{}: leap_second_record 0x380-0x388 (8)
0x380|04 b2 58 00                                    |..X.            |        occur: "1972-07-01T00:00:00Z" (78796800) 0x380-0x384 (4)
0x380|            00 00 00 01                        |    ....        |        corr: 1 0x384-0x388 (4)
     |                                               |                |      [1]{}: leap_second_record 0x388-0x390 (8)
0x380|                        05 a4 ec 01            |        ....    |        occur: "1973-01-01T00:00:01Z" (94694401) 0x388-0x38c (4)
0x380|                                    00 00 00 02|            ....|        corr: 2 0x38c-0x390 (4)
     |                                               |                |      [2]{}: leap_second_record 0x390-0x398 (8)
0x390|07 86 1f 82                                    |....            |        occur: "1974-01-01T00:00:02Z" (126230402) 0x390-0x394 (4)
0x390|            00 00 00 03                        |    ....        |        corr: 3 0x394-0x398 (4)
     |                                               |                |      [3]{}: leap_second_record 0x398-0x3a0 (8)
0x390|                        09 67 53 03            |        .gS.    |        occur: "1975-01-01T00:00:03Z" (157766403) 0x398-0x39c (4)
0x390|                                    00 00 00 04|            ....|        corr: 4 0x39c-0x3a0 (4)
     |                                               |                |      [4]{}: leap_second_record 0x3a0-0x3a8 (8)
0x3a0|0b 48 86 84                                    |.H..            |        occur: "1976-01-01T00:00:04Z" (189302404) 0x3a0-0x3a4 (4)
0x3a0|            00 00 00 05                        |    ....        |        corr: 5 0x3a4-0x3a8 (4)
     |                                               |                |      [5]{}: leap_second_record 0x3a8-0x3b0 (8)
0x3a0|                        0d 2b 0b 85            |        .+..    |        occur: "1977-01-01T00:00:05Z" (220924805) 0x3a8-0x3ac (4)
0x3a0|                                    00 00 00 06|            ....|        corr: 6 0x3ac-0x3b0 (4)
     |                                               |                |      [6]{}: leap_second_record 0x3b0-0x3b8 (8)
0x3b0|0f 0c 3f 06                                    |..?.            |        occur: "1978-01-01T00:00:06Z" (252460806) 0x3b0-0x3b4 (4)
0x3b0|            00 00 00 07                        |    ....        |        corr: 7 0x3b4-0x3b8 (4)
     |                                               |                |      [7]{}: leap_second_record 0x3b8-0x3c0 (8)
0x3b0|                        10 ed 72 87            |        ..r.    |        occur: "1979-01-01T00:00:07Z" (283996807) 0x3b8-0x3bc (4)
0x3b0|                                    00 00 00 08|            ....|        corr: 8 0x3bc-0x3c0 (4)
     |                                               |                |      [8]{}: leap_second_record 0x3c0-0x3c8 (8)
0x3c0|12 ce a6 08                                    |....            |        occur: "1980-01-01T00:00:08Z" (315532808) 0x3c0-0x3c4 (4)
0x3c0|            00 00 00 09                        |    ....        |        corr: 9 0x3c4-0x3c8 (4)
     |                                               |                |      [9]{}: leap_second_record 0x3c8-0x3d0 (8)
0x3c0|                        15 9f ca 89            |        ....    |        occur: "1981-07-01T00:00:09Z" (362793609) 0x3c8-0x3cc (4)
0x3c0|                                    00 00 00 0a|            ....|        corr: 10 0x3cc-0x3d0 (4)
     |                                               |                |      [10]{}: leap_second_record 0x3d0-0x3d8 (8)
0x3d0|17 80 fe 0a                                    |....            |        occur: "1982-07-01T00:00:10Z" (394329610) 0x3d0-0x3d4 (4)
0x3d0|            00 00 00 0b                        |    ....        |        corr: 11 0x3d4-0x3d8 (4)
     |                                               |                |      [11]{}: leap_second_record 0x3d8-0x3e0 (8)
0x3d0|                        19 62 31 8b            |        .b1.    |        occur: "1983-07-01T00:00:11Z" (425865611) 0x3d8-0x3dc (4)
0x3d0|                                    00 00 00 0c|            ....|        corr: 12 0x3dc-0x3e0 (4)
     |                                               |                |      [12]{}: leap_second_record 0x3e0-0x3e8 (8)
0x3e0|1d 25 ea 0c                                    |.%..            |        occur: "1985-07-01T00:00:12Z" (489024012) 0x3e0-0x3e4 (4)
0x3e0|            00 00 00 0d                        |    ....        |        corr: 13 0x3e4-0x3e8 (4)
     |                                               |                |      [13]{}: leap_second_record 0x3e8-0x3f0 (8)
0x3e0|                        21 da e5 0d            |        !...    |        occur: "1988-01-01T00:00:13Z" (567993613) 0x3e8-0x3ec (4)
0x3e0|                                    00 00 00 0e|            ....|        corr: 14 0x3ec-0x3f0 (4)
     |                                               |                |      [14]{}: leap_second_record 0x3f0-0x3f8 (8)
0x3f0|25 9e 9d 8e                                    |%...            |        occur: "1990-01-01T00:00:14Z" (631152014) 0x3f0-0x3f4 (4)
0x3f0|            00 00 00 0f                        |    ....        |        corr: 15 0x3f4-0x3f8 (4)
     |                                               |                |      [15]{}: leap_second_record 0x3f8-0x400 (8)
0x3f0|                        27 7f d1 0f            |        '...    |        occur: "1991-01-01T00:00:15Z" (662688015) 0x3f8-0x3fc (4)
0x3f0|                                    00 00 00 10|            ....|        corr: 16 0x3fc-0x400 (4)
     |                                               |                |      [16]{}: leap_second_record 0x400-0x408 (8)
0x400|2a 50 f5 90                                    |*P..            |        occur: "1992-07-01T00:00:16Z" (709948816) 0x400-0x404 (4)
0x400|            00 00 00 11                        |    ....        |        corr: 17 0x404-0x408 (4)
     |                                               |                |      [17]{}: leap_second_record 0x408-0x410 (8)
0x400|                        2c 32 29 11            |        ,2).    |        occur: "1993-07-01T00:00:17Z" (741484817) 0x408-0x40c (4)
0x400|                                    00 00 00 12|            ....|        corr: 18 0x40c-0x410 (4)
     |                                               |                |      [18]{}: leap_second_record 0x410-0x418 (8)
0x410|2e 13 5c 92                                    |..\.            |        occur: "1994-07-01T00:00:18Z" (773020818) 0x410-0x414 (4)
0x410|            00 00 00 13                        |    ....        |        corr: 19 0x414-0x418 (4)
     |                                               |                |      [19]{}: leap_second_record 0x418-0x420 (8)
0x410|                        30 e7 24 13            |        0.$.    |        occur: "1996-01-01T00:00:19Z" (820454419) 0x418-0x41c (4)
0x410|                                    00 00 00 14|            ....|        corr: 20 0x41c-0x420 (4)
     |                                               |                |      [20]{}: leap_second_record 0x420-0x428 (8)
0x420|33 b8 48 94                                    |3.H.            |        occur: "1997-07-01T00:00:20Z" (867715220) 0x420-0x424 (4)
0x420|            00 00 00 15                        |    ....        |        corr: 21 0x424-0x428 (4)
     |                                               |                |      [21]{}: leap_second_record 0x428-0x430 (8)
0x420|                        36 8c 10 15            |        6...    |        occur: "1999-01-01T00:00:21Z" (915148821) 0x428-0x42c (4)
0x420|                                    00 00 00 16|            ....|        corr: 22 0x42c-0x430 (4)
     |                                               |                |      [22]{}: leap_second_record 0x430-0x438 (8)
0x430|43 b7 1b 96                                    |C...            |        occur: "2006-01-01T00:00:22Z" (1136073622) 0x430-0x434 (4)
0x430|            00 00 00 17                        |    ....        |        corr: 23 0x434-0x438 (4)
     |                                               |                |      [23]{}: leap_second_record 0x438-0x440 (8)
0x430|                        49 5c 07 97            |        I\..    |        occur: "2009-01-01T00:00:23Z" (1230768023) 0x438-0x43c (4)
0x430|                                    00 00 00 18|            ....|        corr: 24 0x43c-0x440 (4)
     |                                               |                |      [24]{}: leap_second_record 0x440-0x448 (8)
0x440|4f ef 93 18                                    |O...            |        occur: "2012-07-01T00:00:24Z" (1341100824) 0x440-0x444 (4)
0x440|            00 00 00 19                        |    ....        |        corr: 25 0x444-0x448 (4)
     |                                               |                |      [25]{}: leap_second_record 0x448-0x450 (8)
0x440|                        55 93 2d 99            |        U.-.    |        occur: "2015-07-01T00:00:25Z" (1435708825) 0x448-0x44c (4)
0x440|                                    00 00 00 1a|            ....|        corr: 26 0x44c-0x450 (4)
     |                                               |                |      [26]{}: leap_second_record 0x450-0x458 (8)
0x450|58 68 46 9a                                    |XhF.            |        occur: "2017-01-01T00:00:26Z" (1483228826) 0x450-0x454 (4)
0x450|            00 00 00 1b                        |    ....        |        corr: 27 0x454-0x458 (4)
     |                                               |                |    standard_wall_indicators[0:7]: 0x458-0x45f (7)
0x450|                        00                     |        .       |      [0]: 0 standard_wall_indicator (valid) 0x458-0x459 (1)
0x450|                           00                  |         .      |      [1]: 0 standard_wall_indicator (valid) 0x459-0x45a (1)
0x450|                              00               |          .     |      [2]: 0 standard_wall_indicator (valid) 0x45a-0x45b (1)
0x450|                                 00            |           .    |      [3]: 0 standard_wall_indicator (valid) 0x45b-0x45c (1)
0x450|                                    01         |            .   |      [4]: 1 standard_wall_indicator (valid) 0x45c-0x45d (1)
0x450|                                       01      |             .  |      [5]: 1 standard_wall_indicator (valid) 0x45d-0x45e (1)
0x450|                                          01   |              . |      [6]: 1 standard_wall_indicator (valid) 0x45e-0x45f (1)
     |                                               |                |    ut_local_indicators[0:7]: 0x45f-0x466 (7)
0x450|                                             00|               .|      [0]: 0 ut_local_indicator (valid) 0x45f-0x460 (1)
0x460|00                                             |.               |      [1]: 0 ut_local_indicator (valid) 0x460-0x461 (1)
0x460|   00                                          | .              |      [2]: 0 ut_local_indicator (valid) 0x461-0x462 (1)
0x460|      00                                       |  .             |      [3]: 0 ut_local_indicator (valid) 0x462-0x463 (1)
0x460|         01                                    |   .            |      [4]: 1 ut_local_indicator (valid) 0x463-0x464 (1)
0x460|            00                                 |    .           |      [5]: 0 ut_local_indicator (valid) 0x464-0x465 (1)
0x460|               00                              |     .          |      [6]: 0 ut_local_indicator (valid) 0x465-0x466 (1)
     |                                               |                |  v2plusheader{}: 0x466-0x492 (44)
0x460|                  54 5a 69 66                  |      TZif      |    magic: 0x545a6966 (valid) 0x466-0x46a (4)
0x460|                              32               |          2     |    ver: "2" (0x32) (valid) 0x46a-0x46b (1)
0x460|                                 00 00 00 00 00|           .....|    reserved: raw bits 0x46b-0x47a (15)
0x470|00 00 00 00 00 00 00 00 00 00                  |..........      |
0x470|                              00 00 00 07      |          ....  |    isutcnt: 7 0x47a-0x47e (4)
0x470|                                          00 00|              ..|    isstdcnt: 7 0x47e-0x482 (4)
0x480|00 07                                          |..              |
0x480|      00 00 00 1b                              |  ....          |    leapcnt: 27 0x482-0x486 (4)
0x480|                  00 00 00 9e                  |      ....      |    timecnt: 158 0x486-0x48a (4)
0x480|                              00 00 00 07      |          ....  |    typecnt: 7 0x48a-0x48e (4)
0x480|                                          00 00|              ..|    charcnt: 20 0x48e-0x492 (4)
0x490|00 14                                          |..              |
     |                                               |                |  v2plusdatablock{}: 0x492-0xbb0 (1822)
     |                                               |                |    transition_times[0:158]: 0x492-0x982 (1264)
0x490|      ff ff ff ff 64 e4 b0 94                  |  ....d...      |      [0]: "1887-07-16T06:28:36Z" (-2602258284) transition_time 0x492-0x49a (8)
0x490|                              ff ff ff ff 9b 01|          ......|      [1]: "1916-04-23T06:00:00Z" (-1694368800) transition_time 0x49a-0x4a2 (8)
0x4a0|fb e0                                          |..              |
0x4a0|      ff ff ff ff 9b c3 ba 50                  |  .......P      |      [2]: "1916-09-17T05:00:00Z" (-1681671600) transition_time 0x4a2-0x4aa (8)
0x4a0|                              ff ff ff ff 9e b8|          ......|      [3]: "1918-04-14T08:00:00Z" (-1632067200) transition_time 0x4aa-0x4b2 (8)
0x4b0|a1 80                                          |..              |
0x4b0|      ff ff ff ff 9f ba f9 70                  |  .......p      |      [4]: "1918-10-27T07:00:00Z" (-1615136400) transition_time 0x4b2-0x4ba (8)
0x4b0|                              ff ff ff ff c2 a0|          ......|      [5]: "1937-05-16T08:00:00Z" (-1029686400) transition_time 0x4ba-0x4c2 (8)
0x4c0|3b 80                                          |;.              |
0x4c0|      ff ff ff ff c3 4f 84 f0                  |  .....O..      |      [6]: "1937-09-26T07:00:00Z" (-1018198800) transition_time 0x4c2-0x4ca (8)
0x4c0|                              ff ff ff ff cb 88|          ......|      [7]: "1942-02-09T08:00:00Z" (-880214400) transition_time 0x4ca-0x4d2 (8)
0x4d0|fe 80                                          |..              |
0x4d0|      ff ff ff ff d2 23 f4 70                  |  .....#.p      |      [8]: "1945-08-14T23:00:00Z" (-769395600) transition_time 0x4d2-0x4da (8)
0x4d0|                              ff ff ff ff d2 61|          .....a|      [9]: "1945-09-30T07:00:00Z" (-765392400) transition_time 0x4da-0x4e2 (8)
0x4e0|09 f0                                          |..              |
0x4e0|      ff ff ff ff d3 88 68 00                  |  ......h.      |      [10]: "1946-05-12T08:00:00Z" (-746035200) transition_time 0x4e2-0x4ea (8)
0x4e0|                              ff ff ff ff d4 53|          .....S|      [11]: "1946-10-13T07:00:00Z" (-732733200) transition_time 0x4ea-0x4f2 (8)
0x4f0|60 f0                                          |`.              |
0x4f0|      ff ff ff ff d5 55 d5 00                  |  .....U..      |      [12]: "1947-04-27T08:00:00Z" (-715795200) transition_time 0x4f2-0x4fa (8)
0x4f0|                              ff ff ff ff d6 20|          ..... |      [13]: "1947-09-28T07:00:00Z" (-702493200) transition_time 0x4fa-0x502 (8)
0x500|cd f0                                          |..              |
0x500|      ff ff ff ff d7 35 b7 00                  |  .....5..      |      [14]: "1948-04-25T08:00:00Z" (-684345600) transition_time 0x502-0x50a (8)
0x500|                              ff ff ff ff d8 00|          ......|      [15]: "1948-09-26T07:00:00Z" (-671043600) transition_time 0x50a-0x512 (8)
0x510|af f0                                          |..              |
0x510|      ff ff ff ff d9 15 99 00                  |  ........      |      [16]: "1949-04-24T08:00:00Z" (-652896000) transition_time 0x512-0x51a (8)
0x510|                              ff ff ff ff d9 e0|          ......|      [17]: "1949-09-25T07:00:00Z" (-639594000) transition_time 0x51a-0x522 (8)
0x520|91 f0                                          |..              |
0x520|      ff ff ff ff db 00 07 00                  |  ........      |      [18]: "1950-05-01T08:00:00Z" (-620755200) transition_time 0x522-0x52a (8)
0x520|                              ff ff ff ff db c8|          ......|      [19]: "1950-09-30T07:00:00Z" (-607626000) transition_time 0x52a-0x532 (8)
0x530|5c f0                                          |\.              |
0x530|      ff ff ff ff dc de 97 80                  |  ........      |      [20]: "1951-04-29T08:00:00Z" (-589392000) transition_time 0x532-0x53a (8)
0x530|                              ff ff ff ff dd a9|          ......|      [21]: "1951-09-30T07:00:00Z" (-576090000) transition_time 0x53a-0x542 (8)
0x540|90 70                                          |.p              |
0x540|      ff ff ff ff de be 79 80                  |  ......y.      |      [22]: "1952-04-27T08:00:00Z" (-557942400) transition_time 0x542-0x54a (8)
0x540|                              ff ff ff ff df 89|          ......|      [23]: "1952-09-28T07:00:00Z" (-544640400) transition_time 0x54a-0x552 (8)
0x550|72 70                                          |rp              |
0x550|      ff ff ff ff e0 9e 5b 80                  |  ......[.      |      [24]: "1953-04-26T08:00:00Z" (-526492800) transition_time 0x552-0x55a (8)
0x550|                              ff ff ff ff e1 69|          .....i|      [25]: "1953-09-27T07:00:00Z" (-513190800) transition_time 0x55a-0x562 (8)
0x560|54 70                                          |Tp              |
0x560|      ff ff ff ff e2 7e 3d 80                  |  .....~=.      |      [26]: "1954-04-25T08:00:00Z" (-495043200) transition_time 0x562-0x56a (8)
0x560|                              ff ff ff ff e3 49|          .....I|      [27]: "1954-09-26T07:00:00Z" (-481741200) transition_time 0x56a-0x572 (8)
0x570|36 70                                          |6p              |
0x570|      ff ff ff ff e4 5e 1f 80                  |  .....^..      |      [28]: "1955-04-24T08:00:00Z" (-463593600) transition_time 0x572-0x57a (8)
0x570|                              ff ff ff ff e5 29|          .....)|      [29]: "1955-09-25T07:00:00Z" (-450291600) transition_time 0x57a-0x582 (8)
0x580|18 70                                          |.p              |
0x580|      ff ff ff ff e6 47 3c 00                  |  .....G<.      |      [30]: "1956-04-29T08:00:00Z" (-431539200) transition_time 0x582-0x58a (8)
0x580|                              ff ff ff ff e7 12|          ......|      [31]: "1956-09-30T07:00:00Z" (-418237200) transition_time 0x58a-0x592 (8)
0x590|34 f0                                          |4.              |
0x590|      ff ff ff ff e8 27 1e 00                  |  .....'..      |      [32]: "1957-04-28T08:00:00Z" (-400089600) transition_time 0x592-0x59a (8)
0x590|                              ff ff ff ff e8 f2|          ......|      [33]: "1957-09-29T07:00:00Z" (-386787600) transition_time 0x59a-0x5a2 (8)
0x5a0|16 f0                                          |..              |
0x5a0|      ff ff ff ff ea 07 00 00                  |  ........      |      [34]: "1958-04-27T08:00:00Z" (-368640000) transition_time 0x5a2-0x5aa (8)
0x5a0|                              ff ff ff ff ea d1|          ......|      [35]: "1958-09-28T07:00:00Z" (-355338000) transition_time 0x5aa-0x5b2 (8)
0x5b0|f8 f0                                          |..              |
0x5b0|      ff ff ff ff eb e6 e2 00                  |  ........      |      [36]: "1959-04-26T08:00:00Z" (-337190400) transition_time 0x5b2-0x5ba (8)
0x5b0|                              ff ff ff ff ec d6|          ......|      [37]: "1959-10-25T07:00:00Z" (-321469200) transition_time 0x5ba-0x5c2 (8)
0x5c0|c4 f0                                          |..              |
0x5c0|      ff ff ff ff ed c6 c4 00                  |  ........      |      [38]: "1960-04-24T08:00:00Z" (-305740800) transition_time 0x5c2-0x5ca (8)
0x5c0|                              ff ff ff ff ee 91|          ......|      [39]: "1960-09-25T07:00:00Z" (-292438800) transition_time 0x5ca-0x5d2 (8)
0x5d0|bc f0                                          |..              |
0x5d0|      ff ff ff ff f3 6f a4 80                  |  .....o..      |      [40]: "1963-04-28T08:00:00Z" (-210787200) transition_time 0x5d2-0x5da (8)
0x5d0|                              ff ff ff ff f4 31|          .....1|      [41]: "1963-09-22T07:00:00Z" (-198090000) transition_time 0x5da-0x5e2 (8)
0x5e0|62 f0                                          |b.              |
0x5e0|      ff ff ff ff f9 0f 4a 80                  |  ......J.      |      [42]: "1966-04-24T08:00:00Z" (-116438400) transition_time 0x5e2-0x5ea (8)
0x5e0|                              ff ff ff ff fa 08|          ......|      [43]: "1966-10-30T08:00:00Z" (-100108800) transition_time 0x5ea-0x5f2 (8)
0x5f0|76 00                                          |v.              |
0x5f0|      ff ff ff ff fa f8 67 00                  |  ......g.      |      [44]: "1967-04-30T08:00:00Z" (-84384000) transition_time 0x5f2-0x5fa (8)
0x5f0|                              ff ff ff ff fb e8|          ......|      [45]: "1967-10-29T08:00:00Z" (-68659200) transition_time 0x5fa-0x602 (8)
0x600|58 00                                          |X.              |
0x600|      ff ff ff ff fc d8 49 00                  |  ......I.      |      [46]: "1968-04-28T08:00:00Z" (-52934400) transition_time 0x602-0x60a (8)
0x600|                              ff ff ff ff fd c8|          ......|      [47]: "1968-10-27T08:00:00Z" (-37209600) transition_time 0x60a-0x612 (8)
0x610|3a 00                                          |:.              |
0x610|      ff ff ff ff fe b8 2b 00                  |  ......+.      |      [48]: "1969-04-27T08:00:00Z" (-21484800) transition_time 0x612-0x61a (8)
0x610|                              ff ff ff ff ff a8|          ......|      [49]: "1969-10-26T08:00:00Z" (-5760000) transition_time 0x61a-0x622 (8)
0x620|1c 00                                          |..              |
0x620|      00 00 00 00 00 98 0d 00                  |  ........      |      [50]: "1970-04-26T08:00:00Z" (9964800) transition_time 0x622-0x62a (8)
0x620|                              00 00 00 00 01 87|          ......|      [51]: "1970-10-25T08:00:00Z" (25689600) transition_time 0x62a-0x632 (8)
0x630|fe 00                                          |..              |
0x630|      00 00 00 00 02 77 ef 00                  |  .....w..      |      [52]: "1971-04-25T08:00:00Z" (41414400) transition_time 0x632-0x63a (8)
0x630|                              00 00 00 00 03 71|          .....q|      [53]: "1971-10-31T08:00:00Z" (57744000) transition_time 0x63a-0x642 (8)
0x640|1a 80                                          |..              |
0x640|      00 00 00 00 04 61 0b 80                  |  .....a..      |      [54]: "1972-04-30T08:00:00Z" (73468800) transition_time 0x642-0x64a (8)
0x640|                              00 00 00 00 05 50|          .....P|      [55]: "1972-10-29T08:00:01Z" (89193601) transition_time 0x64a-0x652 (8)
0x650|fc 81                                          |..              |
0x650|      00 00 00 00 06 40 ed 82                  |  .....@..      |      [56]: "1973-04-29T08:00:02Z" (104918402) transition_time 0x652-0x65a (8)
0x650|                              00 00 00 00 07 30|          .....0|      [57]: "1973-10-28T08:00:02Z" (120643202) transition_time 0x65a-0x662 (8)
0x660|de 82                                          |..              |
0x660|      00 00 00 00 08 20 cf 83                  |  ..... ..      |      [58]: "1974-04-28T08:00:03Z" (136368003) transition_time 0x662-0x66a (8)
0x660|                              00 00 00 00 09 10|          ......|      [59]: "1974-10-27T08:00:03Z" (152092803) transition_time 0x66a-0x672 (8)
0x670|c0 83                                          |..              |
0x670|      00 00 00 00 0a 00 b1 84                  |  ........      |      [60]: "1975-04-27T08:00:04Z" (167817604) transition_time 0x672-0x67a (8)
0x670|                              00 00 00 00 0a f0|          ......|      [61]: "1975-10-26T08:00:04Z" (183542404) transition_time 0x67a-0x682 (8)
0x680|a2 84                                          |..              |
0x680|      00 00 00 00 0b e0 93 85                  |  ........      |      [62]: "1976-04-25T08:00:05Z" (199267205) transition_time 0x682-0x68a (8)
0x680|                              00 00 00 00 0c d9|          ......|      [63]: "1976-10-31T08:00:05Z" (215596805) transition_time 0x68a-0x692 (8)
0x690|bf 05                                          |..              |
0x690|      00 00 00 00 0d c0 75 86                  |  ......u.      |      [64]: "1977-04-24T08:00:06Z" (230716806) transition_time 0x692-0x69a (8)
0x690|                              00 00 00 00 0e b9|          ......|      [65]: "1977-10-30T08:00:06Z" (247046406) transition_time 0x69a-0x6a2 (8)
0x6a0|a1 06                                          |..              |
0x6a0|      00 00 00 00 0f a9 92 07                  |  ........      |      [66]: "1978-04-30T08:00:07Z" (262771207) transition_time 0x6a2-0x6aa (8)
0x6a0|                              00 00 00 00 10 99|          ......|      [67]: "1978-10-29T08:00:07Z" (278496007) transition_time 0x6aa-0x6b2 (8)
0x6b0|83 07                                          |..              |
0x6b0|      00 00 00 00 11 89 74 08                  |  ......t.      |      [68]: "1979-04-29T08:00:08Z" (294220808) transition_time 0x6b2-0x6ba (8)
0x6b0|                              00 00 00 00 12 79|          .....y|      [69]: "1979-10-28T08:00:08Z" (309945608) transition_time 0x6ba-0x6c2 (8)
0x6c0|65 08                                          |e.              |
0x6c0|      00 00 00 00 13 69 56 09                  |  .....iV.      |      [70]: "1980-04-27T08:00:09Z" (325670409) transition_time 0x6c2-0x6ca (8)
0x6c0|                              00 00 00 00 14 59|          .....Y|      [71]: "1980-10-26T08:00:09Z" (341395209) transition_time 0x6ca-0x6d2 (8)
0x6d0|47 09                                          |G.              |
0x6d0|      00 00 00 00 15 49 38 09                  |  .....I8.      |      [72]: "1981-04-26T08:00:09Z" (357120009) transition_time 0x6d2-0x6da (8)
0x6d0|                              00 00 00 00 16 39|          .....9|      [73]: "1981-10-25T08:00:10Z" (372844810) transition_time 0x6da-0x6e2 (8)
0x6e0|29 0a                                          |).              |
0x6e0|      00 00 00 00 17 29 1a 0a                  |  .....)..      |      [74]: "1982-04-25T08:00:10Z" (388569610) transition_time 0x6e2-0x6ea (8)
0x6e0|                              00 00 00 00 18 22|          ....."|      [75]: "1982-10-31T08:00:11Z" (404899211) transition_time 0x6ea-0x6f2 (8)
0x6f0|45 8b                                          |E.              |
0x6f0|      00 00 00 00 19 08 fc 0b                  |  ........      |      [76]: "1983-04-24T08:00:11Z" (420019211) transition_time 0x6f2-0x6fa (8)
0x6f0|                              00 00 00 00 1a 02|          ......|      [77]: "1983-10-30T08:00:12Z" (436348812) transition_time 0x6fa-0x702 (8)
0x700|27 8c                                          |'.              |
0x700|      00 00 00 00 1a f2 18 8c                  |  ........      |      [78]: "1984-04-29T08:00:12Z" (452073612) transition_time 0x702-0x70a (8)
0x700|                              00 00 00 00 1b e2|          ......|      [79]: "1984-10-28T08:00:12Z" (467798412) transition_time 0x70a-0x712 (8)
0x710|09 8c                                          |..              |
0x710|      00 00 00 00 1c d1 fa 8c                  |  ........      |      [80]: "1985-04-28T08:00:12Z" (483523212) transition_time 0x712-0x71a (8)
0x710|                              00 00 00 00 1d c1|          ......|      [81]: "1985-10-27T08:00:13Z" (499248013) transition_time 0x71a-0x722 (8)
0x720|eb 8d                                          |..              |
0x720|      00 00 00 00 1e b1 dc 8d                  |  ........      |      [82]: "1986-04-27T08:00:13Z" (514972813) transition_time 0x722-0x72a (8)
0x720|                              00 00 00 00 1f a1|          ......|      [83]: "1986-10-26T08:00:13Z" (530697613) transition_time 0x72a-0x732 (8)
0x730|cd 8d                                          |..              |
0x730|      00 00 00 00 20 76 0f 0d                  |  .... v..      |      [84]: "1987-04-05T08:00:13Z" (544608013) transition_time 0x732-0x73a (8)
0x730|                              00 00 00 00 21 81|          ....!.|      [85]: "1987-10-25T08:00:13Z" (562147213) transition_time 0x73a-0x742 (8)
0x740|af 8d                                          |..              |
0x740|      00 00 00 00 22 55 f1 0e                  |  ...."U..      |      [86]: "1988-04-03T08:00:14Z" (576057614) transition_time 0x742-0x74a (8)
0x740|                              00 00 00 00 23 6a|          ....#j|      [87]: "1988-10-30T08:00:14Z" (594201614) transition_time 0x74a-0x752 (8)
0x750|cc 0e                                          |..              |
0x750|      00 00 00 00 24 35 d3 0e                  |  ....$5..      |      [88]: "1989-04-02T08:00:14Z" (607507214) transition_time 0x752-0x75a (8)
0x750|                              00 00 00 00 25 4a|          ....%J|      [89]: "1989-10-29T08:00:14Z" (625651214) transition_time 0x75a-0x762 (8)
0x760|ae 0e                                          |..              |
0x760|      00 00 00 00 26 15 b5 0f                  |  ....&...      |      [90]: "1990-04-01T08:00:15Z" (638956815) transition_time 0x762-0x76a (8)
0x760|                              00 00 00 00 27 2a|          ....'*|      [91]: "1990-10-28T08:00:15Z" (657100815) transition_time 0x76a-0x772 (8)
0x770|90 0f                                          |..              |
0x770|      00 00 00 00 27 fe d1 90                  |  ....'...      |      [92]: "1991-04-07T08:00:16Z" (671011216) transition_time 0x772-0x77a (8)
0x770|                              00 00 00 00 29 0a|          ....).|      [93]: "1991-10-27T08:00:16Z" (688550416) transition_time 0x77a-0x782 (8)
0x780|72 10                                          |r.              |
0x780|      00 00 00 00 29 de b3 90                  |  ....)...      |      [94]: "1992-04-05T08:00:16Z" (702460816) transition_time 0x782-0x78a (8)
0x780|                              00 00 00 00 2a ea|          ....*.|      [95]: "1992-10-25T08:00:17Z" (720000017) transition_time 0x78a-0x792 (8)
0x790|54 11                                          |T.              |
0x790|      00 00 00 00 2b be 95 91                  |  ....+...      |      [96]: "1993-04-04T08:00:17Z" (733910417) transition_time 0x792-0x79a (8)
0x790|                              00 00 00 00 2c d3|          ....,.|      [97]: "1993-10-31T08:00:18Z" (752054418) transition_time 0x79a-0x7a2 (8)
0x7a0|70 92                                          |p.              |
0x7a0|      00 00 00 00 2d 9e 77 92                  |  ....-.w.      |      [98]: "1994-04-03T08:00:18Z" (765360018) transition_time 0x7a2-0x7aa (8)
0x7a0|                              00 00 00 00 2e b3|          ......|      [99]: "1994-10-30T08:00:19Z" (783504019) transition_time 0x7aa-0x7b2 (8)
0x7b0|52 93                                          |R.              |
0x7b0|      00 00 00 00 2f 7e 59 93                  |  ..../~Y.      |      [100]: "1995-04-02T08:00:19Z" (796809619) transition_time 0x7b2-0x7ba (8)
0x7b0|                              00 00 00 00 30 93|          ....0.|      [101]: "1995-10-29T08:00:19Z" (814953619) transition_time 0x7ba-0x7c2 (8)
0x7c0|34 93                                          |4.              |
0x7c0|      00 00 00 00 31 67 76 14                  |  ....1gv.      |      [102]: "1996-04-07T08:00:20Z" (828864020) transition_time 0x7c2-0x7ca (8)
0x7c0|                              00 00 00 00 32 73|          ....2s|      [103]: "1996-10-27T08:00:20Z" (846403220) transition_time 0x7ca-0x7d2 (8)
0x7d0|16 94                                          |..              |
0x7d0|      00 00 00 00 33 47 58 14                  |  ....3GX.      |      [104]: "1997-04-06T08:00:20Z" (860313620) transition_time 0x7d2-0x7da (8)
0x7d0|                              00 00 00 00 34 52|          ....4R|      [105]: "1997-10-26T08:00:21Z" (877852821) transition_time 0x7da-0x7e2 (8)
0x7e0|f8 95                                          |..              |
0x7e0|      00 00 00 00 35 27 3a 15                  |  ....5':.      |      [106]: "1998-04-05T08:00:21Z" (891763221) transition_time 0x7e2-0x7ea (8)
0x7e0|                              00 00 00 00 36 32|          ....62|      [107]: "1998-10-25T08:00:21Z" (909302421) transition_time 0x7ea-0x7f2 (8)
0x7f0|da 95                                          |..              |
0x7f0|      00 00 00 00 37 07 1c 16                  |  ....7...      |      [108]: "1999-04-04T08:00:22Z" (923212822) transition_time 0x7f2-0x7fa (8)
0x7f0|                              00 00 00 00 38 1b|          ....8.|      [109]: "1999-10-31T08:00:22Z" (941356822) transition_time 0x7fa-0x802 (8)
0x800|f7 16                                          |..              |
0x800|      00 00 00 00 38 e6 fe 16                  |  ....8...      |      [110]: "2000-04-02T08:00:22Z" (954662422) transition_time 0x802-0x80a (8)
0x800|                              00 00 00 00 39 fb|          ....9.|      [111]: "2000-10-29T08:00:22Z" (972806422) transition_time 0x80a-0x812 (8)
0x810|d9 16                                          |..              |
0x810|      00 00 00 00 3a c6 e0 16                  |  ....:...      |      [112]: "2001-04-01T08:00:22Z" (986112022) transition_time 0x812-0x81a (8)
0x810|                              00 00 00 00 3b db|          ....;.|      [113]: "2001-10-28T08:00:22Z" (1004256022) transition_time 0x81a-0x822 (8)
0x820|bb 16                                          |..              |
0x820|      00 00 00 00 3c af fc 96                  |  ....<...      |      [114]: "2002-04-07T08:00:22Z" (1018166422) transition_time 0x822-0x82a (8)
0x820|                              00 00 00 00 3d bb|          ....=.|      [115]: "2002-10-27T08:00:22Z" (1035705622) transition_time 0x82a-0x832 (8)
0x830|9d 16                                          |..              |
0x830|      00 00 00 00 3e 8f de 96                  |  ....>...      |      [116]: "2003-04-06T08:00:22Z" (1049616022) transition_time 0x832-0x83a (8)
0x830|                              00 00 00 00 3f 9b|          ....?.|      [117]: "2003-10-26T08:00:22Z" (1067155222) transition_time 0x83a-0x842 (8)
0x840|7f 16                                          |..              |
0x840|      00 00 00 00 40 6f c0 96                  |  ....@o..      |      [118]: "2004-04-04T08:00:22Z" (1081065622) transition_time 0x842-0x84a (8)
0x840|                              00 00 00 00 41 84|          ....A.|      [119]: "2004-10-31T08:00:22Z" (1099209622) transition_time 0x84a-0x852 (8)
0x850|9b 96                                          |..              |
0x850|      00 00 00 00 42 4f a2 96                  |  ....BO..      |      [120]: "2005-04-03T08:00:22Z" (1112515222) transition_time 0x852-0x85a (8)
0x850|                              00 00 00 00 43 64|          ....Cd|      [121]: "2005-10-30T08:00:22Z" (1130659222) transition_time 0x85a-0x862 (8)
0x860|7d 96                                          |}.              |
0x860|      00 00 00 00 44 2f 84 97                  |  ....D/..      |      [122]: "2006-04-02T08:00:23Z" (1143964823) transition_time 0x862-0x86a (8)
0x860|                              00 00 00 00 45 44|          ....ED|      [123]: "2006-10-29T07:00:23Z" (1162105223) transition_time 0x86a-0x872 (8)
0x870|51 87                                          |Q.              |
0x870|      00 00 00 00 45 f3 b7 17                  |  ....E...      |      [124]: "2007-03-11T08:00:23Z" (1173600023) transition_time 0x872-0x87a (8)
0x870|                              00 00 00 00 47 2d|          ....G-|      [125]: "2007-11-04T07:00:23Z" (1194159623) transition_time 0x87a-0x882 (8)
0x880|6e 07                                          |n.              |
0x880|      00 00 00 00 47 d3 99 17                  |  ....G...      |      [126]: "2008-03-09T08:00:23Z" (1205049623) transition_time 0x882-0x88a (8)
0x880|                              00 00 00 00 49 0d|          ....I.|      [127]: "2008-11-02T07:00:23Z" (1225609223) transition_time 0x88a-0x892 (8)
0x890|50 07                                          |P.              |
0x890|      00 00 00 00 49 b3 7b 18                  |  ....I.{.      |      [128]: "2009-03-08T08:00:24Z" (1236499224) transition_time 0x892-0x89a (8)
0x890|                              00 00 00 00 4a ed|          ....J.|      [129]: "2009-11-01T07:00:24Z" (1257058824) transition_time 0x89a-0x8a2 (8)
0x8a0|32 08                                          |2.              |
0x8a0|      00 00 00 00 4b 9c 97 98                  |  ....K...      |      [130]: "2010-03-14T08:00:24Z" (1268553624) transition_time 0x8a2-0x8aa (8)
0x8a0|                              00 00 00 00 4c d6|          ....L.|      [131]: "2010-11-07T07:00:24Z" (1289113224) transition_time 0x8aa-0x8b2 (8)
0x8b0|4e 88                                          |N.              |
0x8b0|      00 00 00 00 4d 7c 79 98                  |  ....M|y.      |      [132]: "2011-03-13T08:00:24Z" (1300003224) transition_time 0x8b2-0x8ba (8)
0x8b0|                              00 00 00 00 4e b6|          ....N.|      [133]: "2011-11-06T07:00:24Z" (1320562824) transition_time 0x8ba-0x8c2 (8)
0x8c0|30 88                                          |0.              |
0x8c0|      00 00 00 00 4f 5c 5b 98                  |  ....O\[.      |      [134]: "2012-03-11T08:00:24Z" (1331452824) transition_time 0x8c2-0x8ca (8)
0x8c0|                              00 00 00 00 50 96|          ....P.|      [135]: "2012-11-04T07:00:25Z" (1352012425) transition_time 0x8ca-0x8d2 (8)
0x8d0|12 89                                          |..              |
0x8d0|      00 00 00 00 51 3c 3d 99                  |  ....Q<=.      |      [136]: "2013-03-10T08:00:25Z" (1362902425) transition_time 0x8d2-0x8da (8)
0x8d0|                              00 00 00 00 52 75|          ....Ru|      [137]: "2013-11-03T07:00:25Z" (1383462025) transition_time 0x8da-0x8e2 (8)
0x8e0|f4 89                                          |..              |
0x8e0|      00 00 00 00 53 1c 1f 99                  |  ....S...      |      [138]: "2014-03-09T08:00:25Z" (1394352025) transition_time 0x8e2-0x8ea (8)
0x8e0|                              00 00 00 00 54 55|          ....TU|      [139]: "2014-11-02T07:00:25Z" (1414911625) transition_time 0x8ea-0x8f2 (8)
0x8f0|d6 89                                          |..              |
0x8f0|      00 00 00 00 54 fc 01 99                  |  ....T...      |      [140]: "2015-03-08T08:00:25Z" (1425801625) transition_time 0x8f2-0x8fa (8)
0x8f0|                              00 00 00 00 56 35|          ....V5|      [141]: "2015-11-01T07:00:26Z" (1446361226) transition_time 0x8fa-0x902 (8)
0x900|b8 8a                                          |..              |
0x900|      00 00 00 00 56 e5 1e 1a                  |  ....V...      |      [142]: "2016-03-13T08:00:26Z" (1457856026) transition_time 0x902-0x90a (8)
0x900|                              00 00 00 00 58 1e|          ....X.|      [143]: "2016-11-06T07:00:26Z" (1478415626) transition_time 0x90a-0x912 (8)
0x910|d5 0a                                          |..              |
0x910|      00 00 00 00 58 c5 00 1b                  |  ....X...      |      [144]: "2017-03-12T08:00:27Z" (1489305627) transition_time 0x912-0x91a (8)
0x910|                              00 00 00 00 59 fe|          ....Y.|      [145]: "2017-11-05T07:00:27Z" (1509865227) transition_time 0x91a-0x922 (8)
0x920|b7 0b                                          |..              |
0x920|      00 00 00 00 5a a4 e2 1b                  |  ....Z...      |      [146]: "2018-03-11T08:00:27Z" (1520755227) transition_time 0x922-0x92a (8)
0x920|                              00 00 00 00 5b de|          ....[.|      [147]: "2018-11-04T07:00:27Z" (1541314827) transition_time 0x92a-0x932 (8)
0x930|99 0b                                          |..              |
0x930|      00 00 00 00 5c 84 c4 1b                  |  ....\...      |      [148]: "2019-03-10T08:00:27Z" (1552204827) transition_time 0x932-0x93a (8)
0x930|                              00 00 00 00 5d be|          ....].|      [149]: "2019-11-03T07:00:27Z" (1572764427) transition_time 0x93a-0x942 (8)
0x940|7b 0b                                          |{.              |
0x940|      00 00 00 00 5e 64 a6 1b                  |  ....^d..      |      [150]: "2020-03-08T08:00:27Z" (1583654427) transition_time 0x942-0x94a (8)
0x940|                              00 00 00 00 5f 9e|          ...._.|      [151]: "2020-11-01T07:00:27Z" (1604214027) transition_time 0x94a-0x952 (8)
0x950|5d 0b                                          |].              |
0x950|      00 00 00 00 60 4d c2 9b                  |  ....`M..      |      [152]: "2021-03-14T08:00:27Z" (1615708827) transition_time 0x952-0x95a (8)
0x950|                              00 00 00 00 61 87|          ....a.|      [153]: "2021-11-07T07:00:27Z" (1636268427) transition_time 0x95a-0x962 (8)
0x960|79 8b                                          |y.              |
0x960|      00 00 00 00 62 2d a4 9b                  |  ....b-..      |      [154]: "2022-03-13T08:00:27Z" (1647158427) transition_time 0x962-0x96a (8)
0x960|                              00 00 00 00 63 67|          ....cg|      [155]: "2022-11-06T07:00:27Z" (1667718027) transition_time 0x96a-0x972 (8)
0x970|5b 8b                                          |[.              |
0x970|      00 00 00 00 64 0d 86 9b                  |  ....d...      |      [156]: "2023-03-12T08:00:27Z" (1678608027) transition_time 0x972-0x97a (8)
0x970|                              00 00 00 00 64 9b|          ....d.|      [157]: "2023-06-28T00:00:27Z" (1687910427) transition_time 0x97a-0x982 (8)
0x980|78 1b                                          |x.              |
     |                                               |                |    transition_types[0:158]: 0x982-0xa20 (158)
0x980|      02                                       |  .             |      [0]: 2 transition_type 0x982-0x983 (1)
0x980|         01                                    |   .            |      [1]: 1 transition_type 0x983-0x984 (1)
0x980|            02                                 |    .           |      [2]: 2 transition_type 0x984-0x985 (1)
0x980|               01                              |     .          |      [3]: 1 transition_type 0x985-0x986 (1)
0x980|                  02                           |      .         |      [4]: 2 transition_type 0x986-0x987 (1)
0x980|                     01                        |       .        |      [5]: 1 transition_type 0x987-0x988 (1)
0x980|                        02                     |        .       |      [6]: 2 transition_type 0x988-0x989 (1)
0x980|                           03                  |         .      |      [7]: 3 transition_type 0x989-0x98a (1)
0x980|                              04               |          .     |      [8]: 4 transition_type 0x98a-0x98b (1)
0x980|                                 02            |           .    |      [9]: 2 transition_type 0x98b-0x98c (1)
0x980|                                    01         |            .   |      [10]: 1 transition_type 0x98c-0x98d (1)
0x980|                                       02      |             .  |      [11]: 2 transition_type 0x98d-0x98e (1)
0x980|                                          01   |              . |      [12]: 1 transition_type 0x98e-0x98f (1)
0x980|                                             02|               .|      [13]: 2 transition_type 0x98f-0x990 (1)
0x990|01                                             |.               |      [14]: 1 transition_type 0x990-0x991 (1)
0x990|   02                                          | .              |      [15]: 2 transition_type 0x991-0x992 (1)
0x990|      01                                       |  .             |      [16]: 1 transition_type 0x992-0x993 (1)
0x990|         02                                    |   .            |      [17]: 2 transition_type 0x993-0x994 (1)
0x990|            01                                 |    .           |      [18]: 1 transition_type 0x994-0x995 (1)
0x990|               02                              |     .          |      [19]: 2 transition_type 0x995-0x996 (1)
0x990|                  01                           |      .         |      [20]: 1 transition_type 0x996-0x997 (1)
0x990|                     02                        |       .        |      [21]: 2 transition_type 0x997-0x998 (1)
0x990|                        01                     |        .       |      [22]: 1 transition_type 0x998-0x999 (1)
0x990|                           02                  |         .      |      [23]: 2 transition_type 0x999-0x99a (1)
0x990|                              01               |          .     |      [24]: 1 transition_type 0x99a-0x99b (1)
0x990|                                 02            |           .    |      [25]: 2 transition_type 0x99b-0x99c (1)
0x990|                                    01         |            .   |      [26]: 1 transition_type 0x99c-0x99d (1)
0x990|                                       02      |             .  |      [27]: 2 transition_type 0x99d-0x99e (1)
0x990|                                          01   |              . |      [28]: 1 transition_type 0x99e-0x99f (1)
0x990|                                             02|               .|      [29]: 2 transition_type 0x99f-0x9a0 (1)
0x9a0|01                                             |.               |      [30]: 1 transition_type 0x9a0-0x9a1 (1)
0x9a0|   02                                          | .              |      [31]: 2 transition_type 0x9a1-0x9a2 (1)
0x9a0|      01                                       |  .             |      [32]: 1 transition_type 0x9a2-0x9a3 (1)
0x9a0|         02                                    |   .            |      [33]: 2 transition_type 0x9a3-0x9a4 (1)
0x9a0|            01                                 |    .           |      [34]: 1 transition_type 0x9a4-0x9a5 (1)
0x9a0|               02                              |     .          |      [35]: 2 transition_type 0x9a5-0x9a6 (1)
0x9a0|                  01                           |      .         |      [36]: 1 transition_type 0x9a6-0x9a7 (1)
0x9a0|                     02                        |       .        |      [37]: 2 transition_type 0x9a7-0x9a8 (1)
0x9a0|                        01                     |        .       |      [38]: 1 transition_type 0x9a8-0x9a9 (1)
0x9a0|                           02                  |         .      |      [39]: 2 transition_type 0x9a9-0x9aa (1)
0x9a0|                              01               |          .     |      [40]: 1 transition_type 0x9aa-0x9ab (1)
0x9a0|                                 02            |           .    |      [41]: 2 transition_type 0x9ab-0x9ac (1)
0x9a0|                                    05         |            .   |      [42]: 5 transition_type 0x9ac-0x9ad (1)
0x9a0|                                       06      |             .  |      [43]: 6 transition_type 0x9ad-0x9ae (1)
0x9a0|                                          05   |              . |      [44]: 5 transition_type 0x9ae-0x9af (1)
0x9a0|                                             06|               .|      [45]: 6 transition_type 0x9af-0x9b0 (1)
0x9b0|05                                             |.               |      [46]: 5 transition_type 0x9b0-0x9b1 (1)
0x9b0|   06                                          | .              |      [47]: 6 transition_type 0x9b1-0x9b2 (1)
0x9b0|      05                                       |  .             |      [48]: 5 transition_type 0x9b2-0x9b3 (1)
0x9b0|         06                                    |   .            |      [49]: 6 transition_type 0x9b3-0x9b4 (1)
0x9b0|            05                                 |    .           |      [50]: 5 transition_type 0x9b4-0x9b5 (1)
0x9b0|               06                              |     .          |      [51]: 6 transition_type 0x9b5-0x9b6 (1)
0x9b0|                  05                           |      .         |      [52]: 5 transition_type 0x9b6-0x9b7 (1)
0x9b0|                     06                        |       .        |      [53]: 6 transition_type 0x9b7-0x9b8 (1)
0x9b0|                        05                     |        .       |      [54]: 5 transition_type 0x9b8-0x9b9 (1)
0x9b0|                           06                  |         .      |      [55]: 6 transition_type 0x9b9-0x9ba (1)
0x9b0|                              05               |          .     |      [56]: 5 transition_type 0x9ba-0x9bb (1)
0x9b0|                                 06            |           .    |      [57]: 6 transition_type 0x9bb-0x9bc (1)
0x9b0|                                    05         |            .   |      [58]: 5 transition_type 0x9bc-0x9bd (1)
0x9b0|                                       06      |             .  |      [59]: 6 transition_type 0x9bd-0x9be (1)
0x9b0|                                          05   |              . |      [60]: 5 transition_type 0x9be-0x9bf (1)
0x9b0|                                             06|               .|      [61]: 6 transition_type 0x9bf-0x9c0 (1)
0x9c0|05                                             |.               |      [62]: 5 transition_type 0x9c0-0x9c1 (1)
0x9c0|   06                                          | .              |      [63]: 6 transition_type 0x9c1-0x9c2 (1)
0x9c0|      05                                       |  .             |      [64]: 5 transition_type 0x9c2-0x9c3 (1)
0x9c0|         06                                    |   .            |      [65]: 6 transition_type 0x9c3-0x9c4 (1)
0x9c0|            05                                 |    .           |      [66]: 5 transition_type 0x9c4-0x9c5 (1)
0x9c0|               06                              |     .          |      [67]: 6 transition_type 0x9c5-0x9c6 (1)
0x9c0|                  05                           |      .         |      [68]: 5 transition_type 0x9c6-0x9c7 (1)
0x9c0|                     06                        |       .        |      [69]: 6 transition_type 0x9c7-0x9c8 (1)
0x9c0|                        05                     |        .       |      [70]: 5 transition_type 0x9c8-0x9c9 (1)
0x9c0|                           06                  |         .      |      [71]: 6 transition_type 0x9c9-0x9ca (1)
0x9c0|                              05               |          .     |      [72]: 5 transition_type 0x9ca-0x9cb (1)
0x9c0|                                 06            |           .    |      [73]: 6 transition_type 0x9cb-0x9cc (1)
0x9c0|                                    05         |            .   |      [74]: 5 transition_type 0x9cc-0x9cd (1)
0x9c0|                                       06      |             .  |      [75]: 6 transition_type 0x9cd-0x9ce (1)
0x9c0|                                          05   |              . |      [76]: 5 transition_type 0x9ce-0x9cf (1)
0x9c0|                                             06|               .|      [77]: 6 transition_type 0x9cf-0x9d0 (1)
0x9d0|05                                             |.               |      [78]: 5 transition_type 0x9d0-0x9d1 (1)
0x9d0|   06                                          | .              |      [79]: 6 transition_type 0x9d1-0x9d2 (1)
0x9d0|      05                                       |  .             |      [80]: 5 transition_type 0x9d2-0x9d3 (1)
0x9d0|         06                                    |   .            |      [81]: 6 transition_type 0x9d3-0x9d4 (1)
0x9d0|            05                                 |    .           |      [82]: 5 transition_type 0x9d4-0x9d5 (1)
0x9d0|               06                              |     .          |      [83]: 6 transition_type 0x9d5-0x9d6 (1)
0x9d0|                  05                           |      .         |      [84]: 5 transition_type 0x9d6-0x9d7 (1)
0x9d0|                     06                        |       .        |      [85]: 6 transition_type 0x9d7-0x9d8 (1)
0x9d0|                        05                     |        .       |      [86]: 5 transition_type 0x9d8-0x9d9 (1)
0x9d0|                           06                  |         .      |      [87]: 6 transition_type 0x9d9-0x9da (1)
0x9d0|                              05               |          .     |      [88]: 5 transition_type 0x9da-0x9db (1)
0x9d0|                                 06            |           .    |      [89]: 6 transition_type 0x9db-0x9dc (1)
0x9d0|                                    05         |            .   |      [90]: 5 transition_type 0x9dc-0x9dd (1)
0x9d0|                                       06      |             .  |      [91]: 6 transition_type 0x9dd-0x9de (1)
0x9d0|                                          05   |              . |      [92]: 5 transition_type 0x9de-0x9df (1)
0x9d0|                                             06|               .|      [93]: 6 transition_type 0x9df-0x9e0 (1)
0x9e0|05                                             |.               |      [94]: 5 transition_type 0x9e0-0x9e1 (1)
0x9e0|   06                                          | .              |      [95]: 6 transition_type 0x9e1-0x9e2 (1)
0x9e0|      05                                       |  .             |      [96]: 5 transition_type 0x9e2-0x9e3 (1)
0x9e0|         06                                    |   .            |      [97]: 6 transition_type 0x9e3-0x9e4 (1)
0x9e0|            05                                 |    .           |      [98]: 5 transition_type 0x9e4-0x9e5 (1)
0x9e0|               06                              |     .          |      [99]: 6 transition_type 0x9e5-0x9e6 (1)
0x9e0|                  05                           |      .         |      [100]: 5 transition_type 0x9e6-0x9e7 (1)
0x9e0|                     06                        |       .        |      [101]: 6 transition_type 0x9e7-0x9e8 (1)
0x9e0|                        05                     |        .       |      [102]: 5 transition_type 0x9e8-0x9e9 (1)
0x9e0|                           06                  |         .      |      [103]: 6 transition_type 0x9e9-0x9ea (1)
0x9e0|                              05               |          .     |      [104]: 5 transition_type 0x9ea-0x9eb (1)
0x9e0|                                 06            |           .    |      [105]: 6 transition_type 0x9eb-0x9ec (1)
0x9e0|                                    05         |            .   |      [106]: 5 transition_type 0x9ec-0x9ed (1)
0x9e0|                                       06      |             .  |      [107]: 6 transition_type 0x9ed-0x9ee (1)
0x9e0|                                          05   |              . |      [108]: 5 transition_type 0x9ee-0x9ef (1)
0x9e0|                                             06|               .|      [109]: 6 transition_type 0x9ef-0x9f0 (1)
0x9f0|05                                             |.               |      [110]: 5 transition_type 0x9f0-0x9f1 (1)
0x9f0|   06                                          | .              |      [111]: 6 transition_type 0x9f1-0x9f2 (1)
0x9f0|      05                                       |  .             |      [112]: 5 transition_type 0x9f2-0x9f3 (1)
0x9f0|         06                                    |   .            |      [113]: 6 transition_type 0x9f3-0x9f4 (1)
0x9f0|            05                                 |    .           |      [114]: 5 transition_type 0x9f4-0x9f5 (1)
0x9f0|               06                              |     .          |      [115]: 6 transition_type 0x9f5-0x9f6 (1)
0x9f0|                  05                           |      .         |      [116]: 5 transition_type 0x9f6-0x9f7 (1)
0x9f0|                     06                        |       .        |      [117]: 6 transition_type 0x9f7-0x9f8 (1)
0x9f0|                        05                     |        .       |      [118]: 5 transition_type 0x9f8-0x9f9 (1)
0x9f0|                           06                  |         .      |      [119]: 6 transition_type 0x9f9-0x9fa (1)
0x9f0|                              05               |          .     |      [120]: 5 transition_type 0x9fa-0x9fb (1)
0x9f0|                                 06            |           .    |      [121]: 6 transition_type 0x9fb-0x9fc (1)
0x9f0|                                    01         |            .   |      [122]: 1 transition_type 0x9fc-0x9fd (1)
0x9f0|                                       02      |             .  |      [123]: 2 transition_type 0x9fd-0x9fe (1)
0x9f0|                                          01   |              . |      [124]: 1 transition_type 0x9fe-0x9ff (1)
0x9f0|                                             02|               .|      [125]: 2 transition_type 0x9ff-0xa00 (1)
0xa00|01                                             |.               |      [126]: 1 transition_type 0xa00-0xa01 (1)
0xa00|   02                                          | .              |      [127]: 2 transition_type 0xa01-0xa02 (1)
0xa00|      01                                       |  .             |      [128]: 1 transition_type 0xa02-0xa03 (1)
0xa00|         02                                    |   .            |      [129]: 2 transition_type 0xa03-0xa04 (1)
0xa00|            01                                 |    .           |      [130]: 1 transition_type 0xa04-0xa05 (1)
0xa00|               02                              |     .          |      [131]: 2 transition_type 0xa05-0xa06 (1)
0xa00|                  01                           |      .         |      [132]: 1 transition_type 0xa06-0xa07 (1)
0xa00|                     02                        |       .        |      [133]: 2 transition_type 0xa07-0xa08 (1)
0xa00|                        01                     |        .       |      [134]: 1 transition_type 0xa08-0xa09 (1)
0xa00|                           02                  |         .      |      [135]: 2 transition_type 0xa09-0xa0a (1)
0xa00|                              01               |          .     |      [136]: 1 transition_type 0xa0a-0xa0b (1)
0xa00|                                 02            |           .    |      [137]: 2 transition_type 0xa0b-0xa0c (1)
0xa00|                                    01         |            .   |      [138]: 1 transition_type 0xa0c-0xa0d (1)
0xa00|                                       02      |             .  |      [139]: 2 transition_type 0xa0d-0xa0e (1)
0xa00|                                          01   |              . |      [140]: 1 transition_type 0xa0e-0xa0f (1)
0xa00|                                             02|               .|      [141]: 2 transition_type 0xa0f-0xa10 (1)
0xa10|01                                             |.               |      [142]: 1 transition_type 0xa10-0xa11 (1)
0xa10|   02                                          | .              |      [143]: 2 transition_type 0xa11-0xa12 (1)
0xa10|      01                                       |  .             |      [144]: 1 transition_type 0xa12-0xa13 (1)
0xa10|         02                                    |   .            |      [145]: 2 transition_type 0xa13-0xa14 (1)
0xa10|            01                                 |    .           |      [146]: 1 transition_type 0xa14-0xa15 (1)
0xa10|               02                              |     .          |      [147]: 2 transition_type 0xa15-0xa16 (1)
0xa10|                  01                           |      .         |      [148]: 1 transition_type 0xa16-0xa17 (1)
0xa10|                     02                        |       .        |      [149]: 2 transition_type 0xa17-0xa18 (1)
0xa10|                        01                     |        .       |      [150]: 1 transition_type 0xa18-0xa19 (1)
0xa10|                           02                  |         .      |      [151]: 2 transition_type 0xa19-0xa1a (1)
0xa10|                              01               |          .     |      [152]: 1 transition_type 0xa1a-0xa1b (1)
0xa10|                                 02            |           .    |      [153]: 2 transition_type 0xa1b-0xa1c (1)
0xa10|                                    01         |            .   |      [154]: 1 transition_type 0xa1c-0xa1d (1)
0xa10|                                       02      |             .  |      [155]: 2 transition_type 0xa1d-0xa1e (1)
0xa10|                                          01   |              . |      [156]: 1 transition_type 0xa1e-0xa1f (1)
0xa10|                                             01|               .|      [157]: 1 transition_type 0xa1f-0xa20 (1)
     |                                               |                |    local_time_type_records[0:7]: 0xa20-0xa4a (42)
     |                                               |                |      [0]{}: local_time_type 0xa20-0xa26 (6)
0xa20|ff ff a4 ec                                    |....            |        utoff: -23316 (valid) 0xa20-0xa24 (4)
0xa20|            00                                 |    .           |        dst: 0 (valid) 0xa24-0xa25 (1)
0xa20|               00                              |     .          |        idx: 0 (valid) 0xa25-0xa26 (1)
     |                                               |                |      [1]{}: local_time_type 0xa26-0xa2c (6)
0xa20|                  ff ff b9 b0                  |      ....      |        utoff: -18000 (valid) 0xa26-0xa2a (4)
0xa20|                              01               |          .     |        dst: 1 (valid) 0xa2a-0xa2b (1)
0xa20|                                 04            |           .    |        idx: 4 (valid) 0xa2b-0xa2c (1)
     |                                               |                |      [2]{}: local_time_type 0xa2c-0xa32 (6)
0xa20|                                    ff ff ab a0|            ....|        utoff: -21600 (valid) 0xa2c-0xa30 (4)
0xa30|00                                             |.               |        dst: 0 (valid) 0xa30-0xa31 (1)
0xa30|   08                                          | .              |        idx: 8 (valid) 0xa31-0xa32 (1)
     |                                               |                |      [3]{}: local_time_type 0xa32-0xa38 (6)
0xa30|      ff ff b9 b0                              |  ....          |        utoff: -18000 (valid) 0xa32-0xa36 (4)
0xa30|                  01                           |      .         |        dst: 1 (valid) 0xa36-0xa37 (1)
0xa30|                     0c                        |       .        |        idx: 12 (valid) 0xa37-0xa38 (1)
     |                                               |                |      [4]{}: local_time_type 0xa38-0xa3e (6)
0xa30|                        ff ff b9 b0            |        ....    |        utoff: -18000 (valid) 0xa38-0xa3c (4)
0xa30|                                    01         |            .   |        dst: 1 (valid) 0xa3c-0xa3d (1)
0xa30|                                       10      |             .  |        idx: 16 (valid) 0xa3d-0xa3e (1)
     |                                               |                |      [5]{}: local_time_type 0xa3e-0xa44 (6)
0xa30|                                          ff ff|              ..|        utoff: -18000 (valid) 0xa3e-0xa42 (4)
0xa40|b9 b0                                          |..              |
0xa40|      01                                       |  .             |        dst: 1 (valid) 0xa42-0xa43 (1)
0xa40|         04                                    |   .            |        idx: 4 (valid) 0xa43-0xa44 (1)
     |                                               |                |      [6]{}: local_time_type 0xa44-0xa4a (6)
0xa40|            ff ff ab a0                        |    ....        |        utoff: -21600 (valid) 0xa44-0xa48 (4)
0xa40|                        00                     |        .       |        dst: 0 (valid) 0xa48-0xa49 (1)
0xa40|                           08                  |         .      |        idx: 8 (valid) 0xa49-0xa4a (1)
     |                                               |                |    time_zone_designations[0:5]: 0xa4a-0xa5e (20)
0xa40|                              4c 4d 54 00      |          LMT.  |      [0]: "LMT" time_zone_designation 0xa4a-0xa4e (4)
0xa40|                                          43 44|              CD|      [1]: "CDT" time_zone_designation 0xa4e-0xa52 (4)
0xa50|54 00                                          |T.              |
0xa50|      43 53 54 00                              |  CST.          |      [2]: "CST" time_zone_designation 0xa52-0xa56 (4)
0xa50|                  43 57 54 00                  |      CWT.      |      [3]: "CWT" time_zone_designation 0xa56-0xa5a (4)
0xa50|                              43 50 54 00      |          CPT.  |      [4]: "CPT" time_zone_designation 0xa5a-0xa5e (4)
     |                                               |                |    leap_second_records[0:27]: 0xa5e-0xba2 (324)
     |                                               |                |      [0]{}: leap_second_record 0xa5e-0xa6a (12)
0xa50|                                          00 00|              ..|        occur: "1972-07-01T00:00:00Z" (78796800) 0xa5e-0xa66 (8)
0xa60|00 00 04 b2 58 00                              |....X.          |
0xa60|                  00 00 00 01                  |      ....      |        corr: 1 0xa66-0xa6a (4)
     |                                               |                |      [1]{}: leap_second_record 0xa6a-0xa76 (12)
0xa60|                              00 00 00 00 05 a4|          ......|        occur: "1973-01-01T00:00:01Z" (94694401) 0xa6a-0xa72 (8)
0xa70|ec 01                                          |..              |
0xa70|      00 00 00 02                              |  ....          |        corr: 2 0xa72-0xa76 (4)
     |                                               |                |      [2]{}: leap_second_record 0xa76-0xa82 (12)
0xa70|                  00 00 00 00 07 86 1f 82      |      ........  |        occur: "1974-01-01T00:00:02Z" (126230402) 0xa76-0xa7e (8)
0xa70|                                          00 00|              ..|        corr: 3 0xa7e-0xa82 (4)
0xa80|00 03                                          |..              |
     |                                               |                |      [3]{}: leap_second_record 0xa82-0xa8e (12)
0xa80|      00 00 00 00 09 67 53 03                  |  .....gS.      |        occur: "1975-01-01T00:00:03Z" (157766403) 0xa82-0xa8a (8)
0xa80|                              00 00 00 04      |          ....  |        corr: 4 0xa8a-0xa8e (4)
     |                                               |                |      [4]{}: leap_second_record 0xa8e-0xa9a (12)
0xa80|                                          00 00|              ..|        occur: "1976-01-01T00:00:04Z" (189302404) 0xa8e-0xa96 (8)
0xa90|00 00 0b 48 86 84                              |...H..          |
0xa90|                  00 00 00 05                  |      ....      |        corr: 5 0xa96-0xa9a (4)
     |                                               |                |      [5]{}: leap_second_record 0xa9a-0xaa6 (12)
0xa90|                              00 00 00 00 0d 2b|          .....+|        occur: "1977-01-01T00:00:05Z" (220924805) 0xa9a-0xaa2 (8)
0xaa0|0b 85                                          |..              |
0xaa0|      00 00 00 06                              |  ....          |        corr: 6 0xaa2-0xaa6 (4)
     |                                               |                |      [6]{}: leap_second_record 0xaa6-0xab2 (12)
0xaa0|                  00 00 00 00 0f 0c 3f 06      |      ......?.  |        occur: "1978-01-01T00:00:06Z" (252460806) 0xaa6-0xaae (8)
0xaa0|                                          00 00|              ..|        corr: 7 0xaae-0xab2 (4)
0xab0|00 07                                          |..              |
     |                                               |                |      [7]{}: leap_second_record 0xab2-0xabe (12)
0xab0|      00 00 00 00 10 ed 72 87                  |  ......r.      |        occur: "1979-01-01T00:00:07Z" (283996807) 0xab2-0xaba (8)
0xab0|                              00 00 00 08      |          ....  |        corr: 8 0xaba-0xabe (4)
     |                                               |                |      [8]{}: leap_second_record 0xabe-0xaca (12)
0xab0|                                          00 00|              ..|        occur: "1980-01-01T00:00:08Z" (315532808) 0xabe-0xac6 (8)
0xac0|00 00 12 ce a6 08                              |......          |
0xac0|                  00 00 00 09                  |      ....      |        corr: 9 0xac6-0xaca (4)
     |                                               |                |      [9]{}: leap_second_record 0xaca-0xad6 (12)
0xac0|                              00 00 00 00 15 9f|          ......|        occur: "1981-07-01T00:00:09Z" (362793609) 0xaca-0xad2 (8)
0xad0|ca 89                                          |..              |
0xad0|      00 00 00 0a                              |  ....          |        corr: 10 0xad2-0xad6 (4)
     |                                               |                |      [10]{}: leap_second_record 0xad6-0xae2 (12)
0xad0|                  00 00 00 00 17 80 fe 0a      |      ........  |        occur: "1982-07-01T00:00:10Z" (394329610) 0xad6-0xade (8)
0xad0|                                          00 00|              ..|        corr: 11 0xade-0xae2 (4)
0xae0|00 0b                                          |..              |
     |                                               |                |      [11]{}: leap_second_record 0xae2-0xaee (12)
0xae0|      00 00 00 00 19 62 31 8b                  |  .....b1.      |        occur: "1983-07-01T00:00:11Z" (425865611) 0xae2-0xaea (8)
0xae0|                              00 00 00 0c      |          ....  |        corr: 12 0xaea-0xaee (4)
     |                                               |                |      [12]{}: leap_second_record 0xaee-0xafa (12)
0xae0|                                          00 00|              ..|        occur: "1985-07-01T00:00:12Z" (489024012) 0xaee-0xaf6 (8)
0xaf0|00 00 1d 25 ea 0c                              |...%..          |
0xaf0|                  00 00 00 0d                  |      ....      |        corr: 13 0xaf6-0xafa (4)
     |                                               |                |      [13]{}: leap_second_record 0xafa-0xb06 (12)
0xaf0|                              00 00 00 00 21 da|          ....!.|        occur: "1988-01-01T00:00:13Z" (567993613) 0xafa-0xb02 (8)
0xb00|e5 0d                                          |..              |
0xb00|      00 00 00 0e                              |  ....          |        corr: 14 0xb02-0xb06 (4)
     |                                               |                |      [14]{}: leap_second_record 0xb06-0xb12 (12)
0xb00|                  00 00 00 00 25 9e 9d 8e      |      ....%...  |        occur: "1990-01-01T00:00:14Z" (631152014) 0xb06-0xb0e (8)
0xb00|                                          00 00|              ..|        corr: 15 0xb0e-0xb12 (4)
0xb10|00 0f                                          |..              |
     |                                               |                |      [15]{}: leap_second_record 0xb12-0xb1e (12)
0xb10|      00 00 00 00 27 7f d1 0f                  |  ....'...      |        occur: "1991-01-01T00:00:15Z" (662688015) 0xb12-0xb1a (8)
0xb10|                              00 00 00 10      |          ....  |        corr: 16 0xb1a-0xb1e (4)
     |                                               |                |      [16]{}: leap_second_record 0xb1e-0xb2a (12)
0xb10|                                          00 00|              ..|        occur: "1992-07-01T00:00:16Z" (709948816) 0xb1e-0xb26 (8)
0xb20|00 00 2a 50 f5 90                              |..*P..          |
0xb20|                  00 00 00 11                  |      ....      |        corr: 17 0xb26-0xb2a (4)
     |                                               |                |      [17]{}: leap_second_record 0xb2a-0xb36 (12)
0xb20|                              00 00 00 00 2c 32|          ....,2|        occur: "1993-07-01T00:00:17Z" (741484817) 0xb2a-0xb32 (8)
0xb30|29 11                                          |).              |
0xb30|      00 00 00 12                              |  ....          |        corr: 18 0xb32-0xb36 (4)
     |                                               |                |      [18]{}: leap_second_record 0xb36-0xb42 (12)
0xb30|                  00 00 00 00 2e 13 5c 92      |      ......\.  |        occur: "1994-07-01T00:00:18Z" (773020818) 0xb36-0xb3e (8)
0xb30|                                          00 00|              ..|        corr: 19 0xb3e-0xb42 (4)
0xb40|00 13                                          |..              |
     |                                               |                |      [19]{}: leap_second_record 0xb42-0xb4e (12)
0xb40|      00 00 00 00 30 e7 24 13                  |  ....0.$.      |        occur: "1996-01-01T00:00:19Z" (820454419) 0xb42-0xb4a (8)
0xb40|                              00 00 00 14      |          ....  |        corr: 20 0xb4a-0xb4e (4)
     |                                               |                |      [20]{}: leap_second_record 0xb4e-0xb5a (12)
0xb40|                                          00 00|              ..|        occur: "1997-07-01T00:00:20Z" (867715220) 0xb4e-0xb56 (8)
0xb50|00 00 33 b8 48 94                              |..3.H.          |
0xb50|                  00 00 00 15                  |      ....      |        corr: 21 0xb56-0xb5a (4)
     |                                               |                |      [21]{}: leap_second_record 0xb5a-0xb66 (12)
0xb50|                              00 00 00 00 36 8c|          ....6.|        occur: "1999-01-01T00:00:21Z" (915148821) 0xb5a-0xb62 (8)
0xb60|10 15                                          |..              |
0xb60|      00 00 00 16                              |  ....          |        corr: 22 0xb62-0xb66 (4)
     |                                               |                |      [22]{}: leap_second_record 0xb66-0xb72 (12)
0xb60|                  00 00 00 00 43 b7 1b 96      |      ....C...  |        occur: "2006-01-01T00:00:22Z" (1136073622) 0xb66-0xb6e (8)
0xb60|                                          00 00|              ..|        corr: 23 0xb6e-0xb72 (4)
0xb70|00 17                                          |..              |
     |                                               |                |      [23]{}: leap_second_record 0xb72-0xb7e (12)
0xb70|      00 00 00 00 49 5c 07 97                  |  ....I\..      |        occur: "2009-01-01T00:00:23Z" (1230768023) 0xb72-0xb7a (8)
0xb70|                              00 00 00 18      |          ....  |        corr: 24 0xb7a-0xb7e (4)
     |                                               |                |      [24]{}: leap_second_record 0xb7e-0xb8a (12)
0xb70|                                          00 00|              ..|        occur: "2012-07-01T00:00:24Z" (1341100824) 0xb7e-0xb86 (8)
0xb80|00 00 4f ef 93 18                              |..O...          |
0xb80|                  00 00 00 19                  |      ....      |        corr: 25 0xb86-0xb8a (4)
     |                                               |                |      [25]{}: leap_second_record 0xb8a-0xb96 (12)
0xb80|                              00 00 00 00 55 93|          ....U.|        occur: "2015-07-01T00:00:25Z" (1435708825) 0xb8a-0xb92 (8)
0xb90|2d 99                                          |-.              |
0xb90|      00 00 00 1a                              |  ....          |        corr: 26 0xb92-0xb96 (4)
     |                                               |                |      [26]{}: leap_second_record 0xb96-0xba2 (12)
0xb90|                  00 00 00 00 58 68 46 9a      |      ....XhF.  |        occur: "2017-01-01T00:00:26Z" (1483228826) 0xb96-0xb9e (8)
0xb90|                                          00 00|              ..|        corr: 27 0xb9e-0xba2 (4)
0xba0|00 1b                                          |..              |
     |                                               |                |    standard_wall_indicators[0:7]: 0xba2-0xba9 (7)
0xba0|      00                                       |  .             |      [0]: 0 standard_wall_indicator (valid) 0xba2-0xba3 (1)
0xba0|         00                                    |   .            |      [1]: 0 standard_wall_indicator (valid) 0xba3-0xba4 (1)
0xba0|            00                                 |    .           |      [2]: 0 standard_wall_indicator (valid) 0xba4-0xba5 (1)
0xba0|               00                              |     .          |      [3]: 0 standard_wall_indicator (valid) 0xba5-0xba6 (1)
0xba0|                  01                           |      .         |      [4]: 1 standard_wall_indicator (valid) 0xba6-0xba7 (1)
0xba0|                     01                        |       .        |      [5]: 1 standard_wall_indicator (valid) 0xba7-0xba8 (1)
0xba0|                        01                     |        .       |      [6]: 1 standard_wall_indicator (valid) 0xba8-0xba9 (1)
     |                                               |                |    ut_local_indicators[0:7]: 0xba9-0xbb0 (7)
0xba0|                           00                  |         .      |      [0]: 0 ut_local_indicator (valid) 0xba9-0xbaa (1)
0xba0|                              00               |          .     |      [1]: 0 ut_local_indicator (valid) 0xbaa-0xbab (1)
0xba0|                                 00            |           .    |      [2]: 0 ut_local_indicator (valid) 0xbab-0xbac (1)
0xba0|                                    00         |            .   |      [3]: 0 ut_local_indicator (valid) 0xbac-0xbad (1)
0xba0|                                       01      |             .  |      [4]: 1 ut_local_indicator (valid) 0xbad-0xbae (1)
0xba0|                                          00   |              . |      [5]: 0 ut_local_indicator (valid) 0xbae-0xbaf (1)
0xba0|                                             00|               .|      [6]: 0 ut_local_indicator (valid) 0xbaf-0xbb0 (1)
     |                                               |                |  footer{}: 0xbb0-0xbb2 (2)
0xbb0|0a                                             |.               |    nl1: 10 (valid) 0xbb0-0xbb1 (1)
     |                                               |                |    tz_string: "" 0xbb1-0xbb1 (0)
0xbb0|   0a|                                         | .|             |    nl2: 10 (valid) 0xbb1-0xbb2 (1)
