$ fq -d tzif dv Yakutat
     |00 01 02 03 04 05 06 07 08 09 0a 0b 0c 0d 0e 0f|0123456789abcdef|.{}: Yakutat (tzif) 0x0-0x97d (2429)
     |                                               |                |  v1header{}: 0x0-0x2c (44)
0x000|54 5a 69 66                                    |TZif            |    magic: 0x545a6966 (valid) 0x0-0x4 (4)
0x000|            32                                 |    2           |    ver: "2" (0x32) (valid) 0x4-0x5 (1)
0x000|               00 00 00 00 00 00 00 00 00 00 00|     ...........|    reserved: raw bits 0x5-0x14 (15)
0x010|00 00 00 00                                    |....            |
0x010|            00 00 00 07                        |    ....        |    isutcnt: 7 0x14-0x18 (4)
0x010|                        00 00 00 07            |        ....    |    isstdcnt: 7 0x18-0x1c (4)
0x010|                                    00 00 00 1b|            ....|    leapcnt: 27 0x1c-0x20 (4)
0x020|00 00 00 73                                    |...s            |    timecnt: 115 0x20-0x24 (4)
0x020|            00 00 00 07                        |    ....        |    typecnt: 7 0x24-0x28 (4)
0x020|                        00 00 00 1e            |        ....    |    charcnt: 30 0x28-0x2c (4)
     |                                               |                |  v1datablock{}: 0x2c-0x399 (877)
     |                                               |                |    transition_times[0:115]: 0x2c-0x1f8 (460)
0x020|                                    80 00 00 00|            ....|      [0]: "1901-12-13T20:45:52Z" (-2147483648) transition_time 0x2c-0x30 (4)
0x030|cb 89 28 b0                                    |..(.            |      [1]: "1942-02-09T11:00:00Z" (-880203600) transition_time 0x30-0x34 (4)
0x030|            d2 23 f4 70                        |    .#.p        |      [2]: "1945-08-14T23:00:00Z" (-769395600) transition_time 0x34-0x38 (4)
0x030|                        d2 61 34 20            |        .a4     |      [3]: "1945-09-30T10:00:00Z" (-765381600) transition_time 0x38-0x3c (4)
0x030|                                    fe b8 55 30|            ..U0|      [4]: "1969-04-27T11:00:00Z" (-21474000) transition_time 0x3c-0x40 (4)
0x040|ff a8 38 20                                    |..8             |      [5]: "1969-10-26T10:00:00Z" (-5752800) transition_time 0x40-0x44 (4)
0x040|            00 98 37 30                        |    ..70        |      [6]: "1970-04-26T11:00:00Z" (9975600) transition_time 0x44-0x48 (4)
0x040|                        01 88 1a 20            |        ...     |      [7]: "1970-10-25T10:00:00Z" (25696800) transition_time 0x48-0x4c (4)
0x040|                                    02 78 19 30|            .x.0|      [8]: "1971-04-25T11:00:00Z" (41425200) transition_time 0x4c-0x50 (4)
0x050|03 71 36 a0                                    |.q6.            |      [9]: "1971-10-31T10:00:00Z" (57751200) transition_time 0x50-0x54 (4)
0x050|            04 61 35 b0                        |    .a5.        |      [10]: "1972-04-30T11:00:00Z" (73479600) transition_time 0x54-0x58 (4)
0x050|                        05 51 18 a1            |        .Q..    |      [11]: "1972-10-29T10:00:01Z" (89200801) transition_time 0x58-0x5c (4)
0x050|                                    06 41 17 b2|            .A..|      [12]: "1973-04-29T11:00:02Z" (104929202) transition_time 0x5c-0x60 (4)
0x060|07 30 fa a2                                    |.0..            |      [13]: "1973-10-28T10:00:02Z" (120650402) transition_time 0x60-0x64 (4)
0x060|            07 8d 51 b3                        |    ..Q.        |      [14]: "1974-01-06T11:00:03Z" (126702003) transition_time 0x64-0x68 (4)
0x060|                        09 10 dc a3            |        ....    |      [15]: "1974-10-27T10:00:03Z" (152100003) transition_time 0x68-0x6c (4)
0x060|                                    09 ad cd 34|            ...4|      [16]: "1975-02-23T11:00:04Z" (162385204) transition_time 0x6c-0x70 (4)
0x070|0a f0 be a4                                    |....            |      [17]: "1975-10-26T10:00:04Z" (183549604) transition_time 0x70-0x74 (4)
0x070|            0b e0 bd b5                        |    ....        |      [18]: "1976-04-25T11:00:05Z" (199278005) transition_time 0x74-0x78 (4)
0x070|                        0c d9 db 25            |        ...%    |      [19]: "1976-10-31T10:00:05Z" (215604005) transition_time 0x78-0x7c (4)
0x070|                                    0d c0 9f b6|            ....|      [20]: "1977-04-24T11:00:06Z" (230727606) transition_time 0x7c-0x80 (4)
0x080|0e b9 bd 26                                    |...&            |      [21]: "1977-10-30T10:00:06Z" (247053606) transition_time 0x80-0x84 (4)
0x080|            0f a9 bc 37                        |    ...7        |      [22]: "1978-04-30T11:00:07Z" (262782007) transition_time 0x84-0x88 (4)
0x080|                        10 99 9f 27            |        ...'    |      [23]: "1978-10-29T10:00:07Z" (278503207) transition_time 0x88-0x8c (4)
0x080|                                    11 89 9e 38|            ...8|      [24]: "1979-04-29T11:00:08Z" (294231608) transition_time 0x8c-0x90 (4)
0x090|12 79 81 28                                    |.y.(            |      [25]: "1979-10-28T10:00:08Z" (309952808) transition_time 0x90-0x94 (4)
0x090|            13 69 80 39                        |    .i.9        |      [26]: "1980-04-27T11:00:09Z" (325681209) transition_time 0x94-0x98 (4)
0x090|                        14 59 63 29            |        .Yc)    |      [27]: "1980-10-26T10:00:09Z" (341402409) transition_time 0x98-0x9c (4)
0x090|                                    15 49 62 39|            .Ib9|      [28]: "1981-04-26T11:00:09Z" (357130809) transition_time 0x9c-0xa0 (4)
0x0a0|16 39 45 2a                                    |.9E*            |      [29]: "1981-10-25T10:00:10Z" (372852010) transition_time 0xa0-0xa4 (4)
0x0a0|            17 29 44 3a                        |    .)D:        |      [30]: "1982-04-25T11:00:10Z" (388580410) transition_time 0xa4-0xa8 (4)
0x0a0|                        18 22 61 ab            |        ."a.    |      [31]: "1982-10-31T10:00:11Z" (404906411) transition_time 0xa8-0xac (4)
0x0a0|                                    19 09 26 3b|            ..&;|      [32]: "1983-04-24T11:00:11Z" (420030011) transition_time 0xac-0xb0 (4)
0x0b0|1a 02 43 ac                                    |..C.            |      [33]: "1983-10-30T10:00:12Z" (436356012) transition_time 0xb0-0xb4 (4)
0x0b0|            1a 2b 14 1c                        |    .+..        |      [34]: "1983-11-30T09:00:12Z" (439030812) transition_time 0xb4-0xb8 (4)
0x0b0|                        1a f2 42 bc            |        ..B.    |      [35]: "1984-04-29T11:00:12Z" (452084412) transition_time 0xb8-0xbc (4)
0x0b0|                                    1b e2 25 ac|            ..%.|      [36]: "1984-10-28T10:00:12Z" (467805612) transition_time 0xbc-0xc0 (4)
0x0c0|1c d2 24 bc                                    |..$.            |      [37]: "1985-04-28T11:00:12Z" (483534012) transition_time 0xc0-0xc4 (4)
0x0c0|            1d c2 07 ad                        |    ....        |      [38]: "1985-10-27T10:00:13Z" (499255213) transition_time 0xc4-0xc8 (4)
0x0c0|                        1e b2 06 bd            |        ....    |      [39]: "1986-04-27T11:00:13Z" (514983613) transition_time 0xc8-0xcc (4)
0x0c0|                                    1f a1 e9 ad|            ....|      [40]: "1986-10-26T10:00:13Z" (530704813) transition_time 0xcc-0xd0 (4)
0x0d0|20 76 39 3d                                    | v9=            |      [41]: "1987-04-05T11:00:13Z" (544618813) transition_time 0xd0-0xd4 (4)
0x0d0|            21 81 cb ad                        |    !...        |      [42]: "1987-10-25T10:00:13Z" (562154413) transition_time 0xd4-0xd8 (4)
0x0d0|                        22 56 1b 3e            |        "V.>    |      [43]: "1988-04-03T11:00:14Z" (576068414) transition_time 0xd8-0xdc (4)
0x0d0|                                    23 6a e8 2e|            #j..|      [44]: "1988-10-30T10:00:14Z" (594208814) transition_time 0xdc-0xe0 (4)
0x0e0|24 35 fd 3e                                    |$5.>            |      [45]: "1989-04-02T11:00:14Z" (607518014) transition_time 0xe0-0xe4 (4)
0x0e0|            25 4a ca 2e                        |    %J..        |      [46]: "1989-10-29T10:00:14Z" (625658414) transition_time 0xe4-0xe8 (4)
0x0e0|                        26 15 df 3f            |        &..?    |      [47]: "1990-04-01T11:00:15Z" (638967615) transition_time 0xe8-0xec (4)
0x0e0|                                    27 2a ac 2f|            '*./|      [48]: "1990-10-28T10:00:15Z" (657108015) transition_time 0xec-0xf0 (4)
0x0f0|27 fe fb c0                                    |'...            |      [49]: "1991-04-07T11:00:16Z" (671022016) transition_time 0xf0-0xf4 (4)
0x0f0|            29 0a 8e 30                        |    )..0        |      [50]: "1991-10-27T10:00:16Z" (688557616) transition_time 0xf4-0xf8 (4)
0x0f0|                        29 de dd c0            |        )...    |      [51]: "1992-04-05T11:00:16Z" (702471616) transition_time 0xf8-0xfc (4)
0x0f0|                                    2a ea 70 31|            *.p1|      [52]: "1992-10-25T10:00:17Z" (720007217) transition_time 0xfc-0x100 (4)
0x100|2b be bf c1                                    |+...            |      [53]: "1993-04-04T11:00:17Z" (733921217) transition_time 0x100-0x104 (4)
0x100|            2c d3 8c b2                        |    ,...        |      [54]: "1993-10-31T10:00:18Z" (752061618) transition_time 0x104-0x108 (4)
0x100|                        2d 9e a1 c2            |        -...    |      [55]: "1994-04-03T11:00:18Z" (765370818) transition_time 0x108-0x10c (4)
0x100|                                    2e b3 6e b3|            ..n.|      [56]: "1994-10-30T10:00:19Z" (783511219) transition_time 0x10c-0x110 (4)
0x110|2f 7e 83 c3                                    |/~..            |      [57]: "1995-04-02T11:00:19Z" (796820419) transition_time 0x110-0x114 (4)
0x110|            30 93 50 b3                        |    0.P.        |      [58]: "1995-10-29T10:00:19Z" (814960819) transition_time 0x114-0x118 (4)
0x110|                        31 67 a0 44            |        1g.D    |      [59]: "1996-04-07T11:00:20Z" (828874820) transition_time 0x118-0x11c (4)
0x110|                                    32 73 32 b4|            2s2.|      [60]: "1996-10-27T10:00:20Z" (846410420) transition_time 0x11c-0x120 (4)
0x120|33 47 82 44                                    |3G.D            |      [61]: "1997-04-06T11:00:20Z" (860324420) transition_time 0x120-0x124 (4)
0x120|            34 53 14 b5                        |    4S..        |      [62]: "1997-10-26T10:00:21Z" (877860021) transition_time 0x124-0x128 (4)
0x120|                        35 27 64 45            |        5'dE    |      [63]: "1998-04-05T11:00:21Z" (891774021) transition_time 0x128-0x12c (4)
0x120|                                    36 32 f6 b5|            62..|      [64]: "1998-10-25T10:00:21Z" (909309621) transition_time 0x12c-0x130 (4)
0x130|37 07 46 46                                    |7.FF            |      [65]: "1999-04-04T11:00:22Z" (923223622) transition_time 0x130-0x134 (4)
0x130|            38 1c 13 36                        |    8..6        |      [66]: "1999-10-31T10:00:22Z" (941364022) transition_time 0x134-0x138 (4)
0x130|                        38 e7 28 46            |        8.(F    |      [67]: "2000-04-02T11:00:22Z" (954673222) transition_time 0x138-0x13c (4)
0x130|                                    39 fb f5 36|            9..6|      [68]: "2000-10-29T10:00:22Z" (972813622) transition_time 0x13c-0x140 (4)
0x140|3a c7 0a 46                                    |:..F            |      [69]: "2001-04-01T11:00:22Z" (986122822) transition_time 0x140-0x144 (4)
0x140|            3b db d7 36                        |    ;..6        |      [70]: "2001-10-28T10:00:22Z" (1004263222) transition_time 0x144-0x148 (4)
0x140|                        3c b0 26 c6            |        <.&.    |      [71]: "2002-04-07T11:00:22Z" (1018177222) transition_time 0x148-0x14c (4)
0x140|                                    3d bb b9 36|            =..6|      [72]: "2002-10-27T10:00:22Z" (1035712822) transition_time 0x14c-0x150 (4)
0x150|3e 90 08 c6                                    |>...            |      [73]: "2003-04-06T11:00:22Z" (1049626822) transition_time 0x150-0x154 (4)
0x150|            3f 9b 9b 36                        |    ?..6        |      [74]: "2003-10-26T10:00:22Z" (1067162422) transition_time 0x154-0x158 (4)
0x150|                        40 6f ea c6            |        @o..    |      [75]: "2004-04-04T11:00:22Z" (1081076422) transition_time 0x158-0x15c (4)
0x150|                                    41 84 b7 b6|            A...|      [76]: "2004-10-31T10:00:22Z" (1099216822) transition_time 0x15c-0x160 (4)
0x160|42 4f cc c6                                    |BO..            |      [77]: "2005-04-03T11:00:22Z" (1112526022) transition_time 0x160-0x164 (4)
0x160|            43 64 99 b6                        |    Cd..        |      [78]: "2005-10-30T10:00:22Z" (1130666422) transition_time 0x164-0x168 (4)
0x160|                        44 2f ae c7            |        D/..    |      [79]: "2006-04-02T11:00:23Z" (1143975623) transition_time 0x168-0x16c (4)
0x160|                                    45 44 7b b7|            ED{.|      [80]: "2006-10-29T10:00:23Z" (1162116023) transition_time 0x16c-0x170 (4)
0x170|45 f3 e1 47                                    |E..G            |      [81]: "2007-03-11T11:00:23Z" (1173610823) transition_time 0x170-0x174 (4)
0x170|            47 2d 98 37                        |    G-.7        |      [82]: "2007-11-04T10:00:23Z" (1194170423) transition_time 0x174-0x178 (4)
0x170|                        47 d3 c3 47            |        G..G    |      [83]: "2008-03-09T11:00:23Z" (1205060423) transition_time 0x178-0x17c (4)
0x170|                                    49 0d 7a 37|            I.z7|      [84]: "2008-11-02T10:00:23Z" (1225620023) transition_time 0x17c-0x180 (4)
0x180|49 b3 a5 48                                    |I..H            |      [85]: "2009-03-08T11:00:24Z" (1236510024) transition_time 0x180-0x184 (4)
0x180|            4a ed 5c 38                        |    J.\8        |      [86]: "2009-11-01T10:00:24Z" (1257069624) transition_time 0x184-0x188 (4)
0x180|                        4b 9c c1 c8            |        K...    |      [87]: "2010-03-14T11:00:24Z" (1268564424) transition_time 0x188-0x18c (4)
0x180|                                    4c d6 78 b8|            L.x.|      [88]: "2010-11-07T10:00:24Z" (1289124024) transition_time 0x18c-0x190 (4)
0x190|4d 7c a3 c8                                    |M|..            |      [89]: "2011-03-13T11:00:24Z" (1300014024) transition_time 0x190-0x194 (4)
0x190|            4e b6 5a b8                        |    N.Z.        |      [90]: "2011-11-06T10:00:24Z" (1320573624) transition_time 0x194-0x198 (4)
0x190|                        4f 5c 85 c8            |        O\..    |      [91]: "2012-03-11T11:00:24Z" (1331463624) transition_time 0x198-0x19c (4)
0x190|                                    50 96 3c b9|            P.<.|      [92]: "2012-11-04T10:00:25Z" (1352023225) transition_time 0x19c-0x1a0 (4)
0x1a0|51 3c 67 c9                                    |Q<g.            |      [93]: "2013-03-10T11:00:25Z" (1362913225) transition_time 0x1a0-0x1a4 (4)
0x1a0|            52 76 1e b9                        |    Rv..        |      [94]: "2013-11-03T10:00:25Z" (1383472825) transition_time 0x1a4-0x1a8 (4)
0x1a0|                        53 1c 49 c9            |        S.I.    |      [95]: "2014-03-09T11:00:25Z" (1394362825) transition_time 0x1a8-0x1ac (4)
0x1a0|                                    54 56 00 b9|            TV..|      [96]: "2014-11-02T10:00:25Z" (1414922425) transition_time 0x1ac-0x1b0 (4)
0x1b0|54 fc 2b c9                                    |T.+.            |      [97]: "2015-03-08T11:00:25Z" (1425812425) transition_time 0x1b0-0x1b4 (4)
0x1b0|            56 35 e2 ba                        |    V5..        |      [98]: "2015-11-01T10:00:26Z" (1446372026) transition_time 0x1b4-0x1b8 (4)
0x1b0|                        56 e5 48 4a            |        V.HJ    |      [99]: "2016-03-13T11:00:26Z" (1457866826) transition_time 0x1b8-0x1bc (4)
0x1b0|                                    58 1e ff 3a|            X..:|      [100]: "2016-11-06T10:00:26Z" (1478426426) transition_time 0x1bc-0x1c0 (4)
0x1c0|58 c5 2a 4b                                    |X.*K            |      [101]: "2017-03-12T11:00:27Z" (1489316427) transition_time 0x1c0-0x1c4 (4)
0x1c0|            59 fe e1 3b                        |    Y..;        |      [102]: "2017-11-05T10:00:27Z" (1509876027) transition_time 0x1c4-0x1c8 (4)
0x1c0|                        5a a5 0c 4b            |        Z..K    |      [103]: "2018-03-11T11:00:27Z" (1520766027) transition_time 0x1c8-0x1cc (4)
0x1c0|                                    5b de c3 3b|            [..;|      [104]: "2018-11-04T10:00:27Z" (1541325627) transition_time 0x1cc-0x1d0 (4)
0x1d0|5c 84 ee 4b                                    |\..K            |      [105]: "2019-03-10T11:00:27Z" (1552215627) transition_time 0x1d0-0x1d4 (4)
0x1d0|            5d be a5 3b                        |    ]..;        |      [106]: "2019-11-03T10:00:27Z" (1572775227) transition_time 0x1d4-0x1d8 (4)
0x1d0|                        5e 64 d0 4b            |        ^d.K    |      [107]: "2020-03-08T11:00:27Z" (1583665227) transition_time 0x1d8-0x1dc (4)
0x1d0|                                    5f 9e 87 3b|            _..;|      [108]: "2020-11-01T10:00:27Z" (1604224827) transition_time 0x1dc-0x1e0 (4)
0x1e0|60 4d ec cb                                    |`M..            |      [109]: "2021-03-14T11:00:27Z" (1615719627) transition_time 0x1e0-0x1e4 (4)
0x1e0|            61 87 a3 bb                        |    a...        |      [110]: "2021-11-07T10:00:27Z" (1636279227) transition_time 0x1e4-0x1e8 (4)
0x1e0|                        62 2d ce cb            |        b-..    |      [111]: "2022-03-13T11:00:27Z" (1647169227) transition_time 0x1e8-0x1ec (4)
0x1e0|                                    63 67 85 bb|            cg..|      [112]: "2022-11-06T10:00:27Z" (1667728827) transition_time 0x1ec-0x1f0 (4)
0x1f0|64 0d b0 cb                                    |d...            |      [113]: "2023-03-12T11:00:27Z" (1678618827) transition_time 0x1f0-0x1f4 (4)
0x1f0|            64 9b 78 1b                        |    d.x.        |      [114]: "2023-06-28T00:00:27Z" (1687910427) transition_time 0x1f4-0x1f8 (4)
     |                                               |                |    transition_types[0:115]: 0x1f8-0x26b (115)
0x1f0|                        01                     |        .       |      [0]: 1 transition_type 0x1f8-0x1f9 (1)
0x1f0|                           02                  |         .      |      [1]: 2 transition_type 0x1f9-0x1fa (1)
0x1f0|                              03               |          .     |      [2]: 3 transition_type 0x1fa-0x1fb (1)
0x1f0|                                 01            |           .    |      [3]: 1 transition_type 0x1fb-0x1fc (1)
0x1f0|                                    04         |            .   |      [4]: 4 transition_type 0x1fc-0x1fd (1)
0x1f0|                                       01      |             .  |      [5]: 1 transition_type 0x1fd-0x1fe (1)
0x1f0|                                          04   |              . |      [6]: 4 transition_type 0x1fe-0x1ff (1)
0x1f0|                                             01|               .|      [7]: 1 transition_type 0x1ff-0x200 (1)
0x200|04                                             |.               |      [8]: 4 transition_type 0x200-0x201 (1)
0x200|   01                                          | .              |      [9]: 1 transition_type 0x201-0x202 (1)
0x200|      04                                       |  .             |      [10]: 4 transition_type 0x202-0x203 (1)
0x200|         01                                    |   .            |      [11]: 1 transition_type 0x203-0x204 (1)
0x200|            04                                 |    .           |      [12]: 4 transition_type 0x204-0x205 (1)
0x200|               01                              |     .          |      [13]: 1 transition_type 0x205-0x206 (1)
0x200|                  04                           |      .         |      [14]: 4 transition_type 0x206-0x207 (1)
0x200|                     01                        |       .        |      [15]: 1 transition_type 0x207-0x208 (1)
0x200|                        04                     |        .       |      [16]: 4 transition_type 0x208-0x209 (1)
0x200|                           01                  |         .      |      [17]: 1 transition_type 0x209-0x20a (1)
0x200|                              04               |          .     |      [18]: 4 transition_type 0x20a-0x20b (1)
0x200|                                 01            |           .    |      [19]: 1 transition_type 0x20b-0x20c (1)
0x200|                                    04         |            .   |      [20]: 4 transition_type 0x20c-0x20d (1)
0x200|                                       01      |             .  |      [21]: 1 transition_type 0x20d-0x20e (1)
0x200|                                          04   |              . |      [22]: 4 transition_type 0x20e-0x20f (1)
0x200|                                             01|               .|      [23]: 1 transition_type 0x20f-0x210 (1)
0x210|04                                             |.               |      [24]: 4 transition_type 0x210-0x211 (1)
0x210|   01                                          | .              |      [25]: 1 transition_type 0x211-0x212 (1)
0x210|      04                                       |  .             |      [26]: 4 transition_type 0x212-0x213 (1)
0x210|         01                                    |   .            |      [27]: 1 transition_type 0x213-0x214 (1)
0x210|            04                                 |    .           |      [28]: 4 transition_type 0x214-0x215 (1)
0x210|               01                              |     .          |      [29]: 1 transition_type 0x215-0x216 (1)
0x210|                  04                           |      .         |      [30]: 4 transition_type 0x216-0x217 (1)
0x210|                     01                        |       .        |      [31]: 1 transition_type 0x217-0x218 (1)
0x210|                        04                     |        .       |      [32]: 4 transition_type 0x218-0x219 (1)
0x210|                           01                  |         .      |      [33]: 1 transition_type 0x219-0x21a (1)
0x210|                              06               |          .     |      [34]: 6 transition_type 0x21a-0x21b (1)
0x210|                                 05            |           .    |      [35]: 5 transition_type 0x21b-0x21c (1)
0x210|                                    06         |            .   |      [36]: 6 transition_type 0x21c-0x21d (1)
0x210|                                       05      |             .  |      [37]: 5 transition_type 0x21d-0x21e (1)
0x210|                                          06   |              . |      [38]: 6 transition_type 0x21e-0x21f (1)
0x210|                                             05|               .|      [39]: 5 transition_type 0x21f-0x220 (1)
0x220|06                                             |.               |      [40]: 6 transition_type 0x220-0x221 (1)
0x220|   05                                          | .              |      [41]: 5 transition_type 0x221-0x222 (1)
0x220|      06                                       |  .             |      [42]: 6 transition_type 0x222-0x223 (1)
0x220|         05                                    |   .            |      [43]: 5 transition_type 0x223-0x224 (1)
0x220|            06                                 |    .           |      [44]: 6 transition_type 0x224-0x225 (1)
0x220|               05                              |     .          |      [45]: 5 transition_type 0x225-0x226 (1)
0x220|                  06                           |      .         |      [46]: 6 transition_type 0x226-0x227 (1)
0x220|                     05                        |       .        |      [47]: 5 transition_type 0x227-0x228 (1)
0x220|                        06                     |        .       |      [48]: 6 transition_type 0x228-0x229 (1)
0x220|                           05                  |         .      |      [49]: 5 transition_type 0x229-0x22a (1)
0x220|                              06               |          .     |      [50]: 6 transition_type 0x22a-0x22b (1)
0x220|                                 05            |           .    |      [51]: 5 transition_type 0x22b-0x22c (1)
0x220|                                    06         |            .   |      [52]: 6 transition_type 0x22c-0x22d (1)
0x220|                                       05      |             .  |      [53]: 5 transition_type 0x22d-0x22e (1)
0x220|                                          06   |              . |      [54]: 6 transition_type 0x22e-0x22f (1)
0x220|                                             05|               .|      [55]: 5 transition_type 0x22f-0x230 (1)
0x230|06                                             |.               |      [56]: 6 transition_type 0x230-0x231 (1)
0x230|   05                                          | .              |      [57]: 5 transition_type 0x231-0x232 (1)
0x230|      06                                       |  .             |      [58]: 6 transition_type 0x232-0x233 (1)
0x230|         05                                    |   .            |      [59]: 5 transition_type 0x233-0x234 (1)
0x230|            06                                 |    .           |      [60]: 6 transition_type 0x234-0x235 (1)
0x230|               05                              |     .          |      [61]: 5 transition_type 0x235-0x236 (1)
0x230|                  06                           |      .         |      [62]: 6 transition_type 0x236-0x237 (1)
0x230|                     05                        |       .        |      [63]: 5 transition_type 0x237-0x238 (1)
0x230|                        06                     |        .       |      [64]: 6 transition_type 0x238-0x239 (1)
0x230|                           05                  |         .      |      [65]: 5 transition_type 0x239-0x23a (1)
0x230|                              06               |          .     |      [66]: 6 transition_type 0x23a-0x23b (1)
0x230|                                 05            |           .    |      [67]: 5 transition_type 0x23b-0x23c (1)
0x230|                                    06         |            .   |      [68]: 6 transition_type 0x23c-0x23d (1)
0x230|                                       05      |             .  |      [69]: 5 transition_type 0x23d-0x23e (1)
0x230|                                          06   |              . |      [70]: 6 transition_type 0x23e-0x23f (1)
0x230|                                             05|               .|      [71]: 5 transition_type 0x23f-0x240 (1)
0x240|06                                             |.               |      [72]: 6 transition_type 0x240-0x241 (1)
0x240|   05                                          | .              |      [73]: 5 transition_type 0x241-0x242 (1)
0x240|      06                                       |  .             |      [74]: 6 transition_type 0x242-0x243 (1)
0x240|         05                                    |   .            |      [75]: 5 transition_type 0x243-0x244 (1)
0x240|            06                                 |    .           |      [76]: 6 transition_type 0x244-0x245 (1)
0x240|               05                              |     .          |      [77]: 5 transition_type 0x245-0x246 (1)
0x240|                  06                           |      .         |      [78]: 6 transition_type 0x246-0x247 (1)
0x240|                     05                        |       .        |      [79]: 5 transition_type 0x247-0x248 (1)
0x240|                        06                     |        .       |      [80]: 6 transition_type 0x248-0x249 (1)
0x240|                           05                  |         .      |      [81]: 5 transition_type 0x249-0x24a (1)
0x240|                              06               |          .     |      [82]: 6 transition_type 0x24a-0x24b (1)
0x240|                                 05            |           .    |      [83]: 5 transition_type 0x24b-0x24c (1)
0x240|                                    06         |            .   |      [84]: 6 transition_type 0x24c-0x24d (1)
0x240|                                       05      |             .  |      [85]: 5 transition_type 0x24d-0x24e (1)
0x240|                                          06   |              . |      [86]: 6 transition_type 0x24e-0x24f (1)
0x240|                                             05|               .|      [87]: 5 transition_type 0x24f-0x250 (1)
0x250|06                                             |.               |      [88]: 6 transition_type 0x250-0x251 (1)
0x250|   05                                          | .              |      [89]: 5 transition_type 0x251-0x252 (1)
0x250|      06                                       |  .             |      [90]: 6 transition_type 0x252-0x253 (1)
0x250|         05                                    |   .            |      [91]: 5 transition_type 0x253-0x254 (1)
0x250|            06                                 |    .           |      [92]: 6 transition_type 0x254-0x255 (1)
0x250|               05                              |     .          |      [93]: 5 transition_type 0x255-0x256 (1)
0x250|                  06                           |      .         |      [94]: 6 transition_type 0x256-0x257 (1)
0x250|                     05                        |       .        |      [95]: 5 transition_type 0x257-0x258 (1)
0x250|                        06                     |        .       |      [96]: 6 transition_type 0x258-0x259 (1)
0x250|                           05                  |         .      |      [97]: 5 transition_type 0x259-0x25a (1)
0x250|                              06               |          .     |      [98]: 6 transition_type 0x25a-0x25b (1)
0x250|                                 05            |           .    |      [99]: 5 transition_type 0x25b-0x25c (1)
0x250|                                    06         |            .   |      [100]: 6 transition_type 0x25c-0x25d (1)
0x250|                                       05      |             .  |      [101]: 5 transition_type 0x25d-0x25e (1)
0x250|                                          06   |              . |      [102]: 6 transition_type 0x25e-0x25f (1)
0x250|                                             05|               .|      [103]: 5 transition_type 0x25f-0x260 (1)
0x260|06                                             |.               |      [104]: 6 transition_type 0x260-0x261 (1)
0x260|   05                                          | .              |      [105]: 5 transition_type 0x261-0x262 (1)
0x260|      06                                       |  .             |      [106]: 6 transition_type 0x262-0x263 (1)
0x260|         05                                    |   .            |      [107]: 5 transition_type 0x263-0x264 (1)
0x260|            06                                 |    .           |      [108]: 6 transition_type 0x264-0x265 (1)
0x260|               05                              |     .          |      [109]: 5 transition_type 0x265-0x266 (1)
0x260|                  06                           |      .         |      [110]: 6 transition_type 0x266-0x267 (1)
0x260|                     05                        |       .        |      [111]: 5 transition_type 0x267-0x268 (1)
0x260|                        06                     |        .       |      [112]: 6 transition_type 0x268-0x269 (1)
0x260|                           05                  |         .      |      [113]: 5 transition_type 0x269-0x26a (1)
0x260|                              05               |          .     |      [114]: 5 transition_type 0x26a-0x26b (1)
     |                                               |                |    local_time_type_records[0:7]: 0x26b-0x295 (42)
     |                                               |                |      [0]{}: local_time_type 0x26b-0x271 (6)
0x260|                                 00 00 ce 81   |           .... |        utoff: 52865 (valid) 0x26b-0x26f (4)
0x260|                                             00|               .|        dst: 0 (valid) 0x26f-0x270 (1)
0x270|00                                             |.               |        idx: 0 (valid) 0x270-0x271 (1)
     |                                               |                |      [1]{}: local_time_type 0x271-0x277 (6)
0x270|   ff ff 81 70                                 | ...p           |        utoff: -32400 (valid) 0x271-0x275 (4)
0x270|               00                              |     .          |        dst: 0 (valid) 0x275-0x276 (1)
0x270|                  04                           |      .         |        idx: 4 (valid) 0x276-0x277 (1)
     |                                               |                |      [2]{}: local_time_type 0x277-0x27d (6)
0x270|                     ff ff 8f 80               |       ....     |        utoff: -28800 (valid) 0x277-0x27b (4)
0x270|                                 01            |           .    |        dst: 1 (valid) 0x27b-0x27c (1)
0x270|                                    08         |            .   |        idx: 8 (valid) 0x27c-0x27d (1)
     |                                               |                |      [3]{}: local_time_type 0x27d-0x283 (6)
0x270|                                       ff ff 8f|             ...|        utoff: -28800 (valid) 0x27d-0x281 (4)
0x280|80                                             |.               |
0x280|   01                                          | .              |        dst: 1 (valid) 0x281-0x282 (1)
0x280|      0c                                       |  .             |        idx: 12 (valid) 0x282-0x283 (1)
     |                                               |                |      [4]{}: local_time_type 0x283-0x289 (6)
0x280|         ff ff 8f 80                           |   ....         |        utoff: -28800 (valid) 0x283-0x287 (4)
0x280|                     01                        |       .        |        dst: 1 (valid) 0x287-0x288 (1)
0x280|                        10                     |        .       |        idx: 16 (valid) 0x288-0x289 (1)
     |                                               |                |      [5]{}: local_time_type 0x289-0x28f (6)
0x280|                           ff ff 8f 80         |         ....   |        utoff: -28800 (valid) 0x289-0x28d (4)
0x280|                                       01      |             .  |        dst: 1 (valid) 0x28d-0x28e (1)
0x280|                                          14   |              . |        idx: 20 (valid) 0x28e-0x28f (1)
     |                                               |                |      [6]{}: local_time_type 0x28f-0x295 (6)
0x280|                                             ff|               .|        utoff: -32400 (valid) 0x28f-0x293 (4)
0x290|ff 81 70                                       |..p             |
0x290|         00                                    |   .            |        dst: 0 (valid) 0x293-0x294 (1)
0x290|            19                                 |    .           |        idx: 25 (valid) 0x294-0x295 (1)
     |                                               |                |    time_zone_designations[0:7]: 0x295-0x2b3 (30)
0x290|               4c 4d 54 00                     |     LMT.       |      [0]: "LMT" time_zone_designation 0x295-0x299 (4)
0x290|                           59 53 54 00         |         YST.   |      [1]: "YST" time_zone_designation 0x299-0x29d (4)
0x290|                                       59 57 54|             YWT|      [2]: "YWT" time_zone_designation 0x29d-0x2a1 (4)
0x2a0|00                                             |.               |
0x2a0|   59 50 54 00                                 | YPT.           |      [3]: "YPT" time_zone_designation 0x2a1-0x2a5 (4)
0x2a0|               59 44 54 00                     |     YDT.       |      [4]: "YDT" time_zone_designation 0x2a5-0x2a9 (4)
0x2a0|                           41 4b 44 54 00      |         AKDT.  |      [5]: "AKDT" time_zone_designation 0x2a9-0x2ae (5)
0x2a0|                                          41 4b|              AK|      [6]: "AKST" time_zone_designation 0x2ae-0x2b3 (5)
0x2b0|53 54 00                                       |ST.             |
     |                                               |                |    leap_second_records[0:27]: 0x2b3-0x38b (216)
     |                                               |                |      [0]{}: leap_second_record 0x2b3-0x2bb (8)
0x2b0|         04 b2 58 00                           |   ..X.         |        occur: "1972-07-01T00:00:00Z" (78796800) 0x2b3-0x2b7 (4)
0x2b0|                     00 00 00 01               |       ....     |        corr: 1 0x2b7-0x2bb (4)
     |                                               |                |      [1]{}: leap_second_record 0x2bb-0x2c3 (8)
0x2b0|                                 05 a4 ec 01   |           .... |        occur: "1973-01-01T00:00:01Z" (94694401) 0x2bb-0x2bf (4)
0x2b0|                                             00|               .|        corr: 2 0x2bf-0x2c3 (4)
0x2c0|00 00 02                                       |...             |
     |                                               |                |      [2]{}: leap_second_record 0x2c3-0x2cb (8)
0x2c0|         07 86 1f 82                           |   ....         |        occur: "1974-01-01T00:00:02Z" (126230402) 0x2c3-0x2c7 (4)
0x2c0|                     00 00 00 03               |       ....     |        corr: 3 0x2c7-0x2cb (4)
     |                                               |                |      [3]{}: leap_second_record 0x2cb-0x2d3 (8)
0x2c0|                                 09 67 53 03   |           .gS. |        occur: "1975-01-01T00:00:03Z" (157766403) 0x2cb-0x2cf (4)
0x2c0|                                             00|               .|        corr: 4 0x2cf-0x2d3 (4)
0x2d0|00 00 04                                       |...             |
     |                                               |                |      [4]{}: leap_second_record 0x2d3-0x2db (8)
0x2d0|         0b 48 86 84                           |   .H..         |        occur: "1976-01-01T00:00:04Z" (189302404) 0x2d3-0x2d7 (4)
0x2d0|                     00 00 00 05               |       ....     |        corr: 5 0x2d7-0x2db (4)
     |                                               |                |      [5]{}: leap_second_record 0x2db-0x2e3 (8)
0x2d0|                                 0d 2b 0b 85   |           .+.. |        occur: "1977-01-01T00:00:05Z" (220924805) 0x2db-0x2df (4)
0x2d0|                                             00|               .|        corr: 6 0x2df-0x2e3 (4)
0x2e0|00 00 06                                       |...             |
     |                                               |                |      [6]{}: leap_second_record 0x2e3-0x2eb (8)
0x2e0|         0f 0c 3f 06                           |   ..?.         |        occur: "1978-01-01T00:00:06Z" (252460806) 0x2e3-0x2e7 (4)
0x2e0|                     00 00 00 07               |       ....     |        corr: 7 0x2e7-0x2eb (4)
     |                                               |                |      [7]{}: leap_second_record 0x2eb-0x2f3 (8)
0x2e0|                                 10 ed 72 87   |           ..r. |        occur: "1979-01-01T00:00:07Z" (283996807) 0x2eb-0x2ef (4)
0x2e0|                                             00|               .|        corr: 8 0x2ef-0x2f3 (4)
0x2f0|00 00 08                                       |...             |
     |                                               |                |      [8]{}: leap_second_record 0x2f3-0x2fb (8)
0x2f0|         12 ce a6 08                           |   ....         |        occur: "1980-01-01T00:00:08Z" (315532808) 0x2f3-0x2f7 (4)
0x2f0|                     00 00 00 09               |       ....     |        corr: 9 0x2f7-0x2fb (4)
     |                                               |                |      [9]{}: leap_second_record 0x2fb-0x303 (8)
0x2f0|                                 15 9f ca 89   |           .... |        occur: "1981-07-01T00:00:09Z" (362793609) 0x2fb-0x2ff (4)
0x2f0|                                             00|               .|        corr: 10 0x2ff-0x303 (4)
0x300|00 00 0a                                       |...             |
     |                                               |                |      [10]{}: leap_second_record 0x303-0x30b (8)
0x300|         17 80 fe 0a                           |   ....         |        occur: "1982-07-01T00:00:10Z" (394329610) 0x303-0x307 (4)
0x300|                     00 00 00 0b               |       ....     |        corr: 11 0x307-0x30b (4)
     |                                               |                |      [11]{}: leap_second_record 0x30b-0x313 (8)
0x300|                                 19 62 31 8b   |           .b1. |        occur: "1983-07-01T00:00:11Z" (425865611) 0x30b-0x30f (4)
0x300|                                             00|               .|        corr: 12 0x30f-0x313 (4)
0x310|00 00 0c                                       |...             |
     |                                               |                |      [12]{}: leap_second_record 0x313-0x31b (8)
0x310|         1d 25 ea 0c                           |   .%..         |        occur: "1985-07-01T00:00:12Z" (489024012) 0x313-0x317 (4)
0x310|                     00 00 00 0d               |       ....     |        corr: 13 0x317-0x31b (4)
     |                                               |                |      [13]{}: leap_second_record 0x31b-0x323 (8)
0x310|                                 21 da e5 0d   |           !... |        occur: "1988-01-01T00:00:13Z" (567993613) 0x31b-0x31f (4)
0x310|                                             00|               .|        corr: 14 0x31f-0x323 (4)
0x320|00 00 0e                                       |...             |
     |                                               |                |      [14]{}: leap_second_record 0x323-0x32b (8)
0x320|         25 9e 9d 8e                           |   %...         |        occur: "1990-01-01T00:00:14Z" (631152014) 0x323-0x327 (4)
0x320|                     00 00 00 0f               |       ....     |        corr: 15 0x327-0x32b (4)
     |                                               |                |      [15]{}: leap_second_record 0x32b-0x333 (8)
0x320|                                 27 7f d1 0f   |           '... |        occur: "1991-01-01T00:00:15Z" (662688015) 0x32b-0x32f (4)
0x320|                                             00|               .|        corr: 16 0x32f-0x333 (4)
0x330|00 00 10                                       |...             |
     |                                               |                |      [16]{}: leap_second_record 0x333-0x33b (8)
0x330|         2a 50 f5 90                           |   *P..         |        occur: "1992-07-01T00:00:16Z" (709948816) 0x333-0x337 (4)
0x330|                     00 00 00 11               |       ....     |        corr: 17 0x337-0x33b (4)
     |                                               |                |      [17]{}: leap_second_record 0x33b-0x343 (8)
0x330|                                 2c 32 29 11   |           ,2). |        occur: "1993-07-01T00:00:17Z" (741484817) 0x33b-0x33f (4)
0x330|                                             00|               .|        corr: 18 0x33f-0x343 (4)
0x340|00 00 12                                       |...             |
     |                                               |                |      [18]{}: leap_second_record 0x343-0x34b (8)
0x340|         2e 13 5c 92                           |   ..\.         |        occur: "1994-07-01T00:00:18Z" (773020818) 0x343-0x347 (4)
0x340|                     00 00 00 13               |       ....     |        corr: 19 0x347-0x34b (4)
     |                                               |                |      [19]{}: leap_second_record 0x34b-0x353 (8)
0x340|                                 30 e7 24 13   |           0.$. |        occur: "1996-01-01T00:00:19Z" (820454419) 0x34b-0x34f (4)
0x340|                                             00|               .|        corr: 20 0x34f-0x353 (4)
0x350|00 00 14                                       |...             |
     |                                               |                |      [20]{}: leap_second_record 0x353-0x35b (8)
0x350|         33 b8 48 94                           |   3.H.         |        occur: "1997-07-01T00:00:20Z" (867715220) 0x353-0x357 (4)
0x350|                     00 00 00 15               |       ....     |        corr: 21 0x357-0x35b (4)
     |                                               |                |      [21]{}: leap_second_record 0x35b-0x363 (8)
0x350|                                 36 8c 10 15   |           6... |        occur: "1999-01-01T00:00:21Z" (915148821) 0x35b-0x35f (4)
0x350|                                             00|               .|        corr: 22 0x35f-0x363 (4)
0x360|00 00 16                                       |...             |
     |                                               |                |      [22]{}: leap_second_record 0x363-0x36b (8)
0x360|         43 b7 1b 96                           |   C...         |        occur: "2006-01-01T00:00:22Z" (1136073622) 0x363-0x367 (4)
0x360|                     00 00 00 17               |       ....     |        corr: 23 0x367-0x36b (4)
     |                                               |                |      [23]{}: leap_second_record 0x36b-0x373 (8)
0x360|                                 49 5c 07 97   |           I\.. |        occur: "2009-01-01T00:00:23Z" (1230768023) 0x36b-0x36f (4)
0x360|                                             00|               .|        corr: 24 0x36f-0x373 (4)
0x370|00 00 18                                       |...             |
     |                                               |                |      [24]{}: leap_second_record 0x373-0x37b (8)
0x370|         4f ef 93 18                           |   O...         |        occur: "2012-07-01T00:00:24Z" (1341100824) 0x373-0x377 (4)
0x370|                     00 00 00 19               |       ....     |        corr: 25 0x377-0x37b (4)
     |                                               |                |      [25]{}: leap_second_record 0x37b-0x383 (8)
0x370|                                 55 93 2d 99   |           U.-. |        occur: "2015-07-01T00:00:25Z" (1435708825) 0x37b-0x37f (4)
0x370|                                             00|               .|        corr: 26 0x37f-0x383 (4)
0x380|00 00 1a                                       |...             |
     |                                               |                |      [26]{}: leap_second_record 0x383-0x38b (8)
0x380|         58 68 46 9a                           |   XhF.         |        occur: "2017-01-01T00:00:26Z" (1483228826) 0x383-0x387 (4)
0x380|                     00 00 00 1b               |       ....     |        corr: 27 0x387-0x38b (4)
     |                                               |                |    standard_wall_indicators[0:7]: 0x38b-0x392 (7)
0x380|                                 00            |           .    |      [0]: 0 standard_wall_indicator (valid) 0x38b-0x38c (1)
0x380|                                    00         |            .   |      [1]: 0 standard_wall_indicator (valid) 0x38c-0x38d (1)
0x380|                                       00      |             .  |      [2]: 0 standard_wall_indicator (valid) 0x38d-0x38e (1)
0x380|                                          01   |              . |      [3]: 1 standard_wall_indicator (valid) 0x38e-0x38f (1)
0x380|                                             00|               .|      [4]: 0 standard_wall_indicator (valid) 0x38f-0x390 (1)
0x390|00                                             |.               |      [5]: 0 standard_wall_indicator (valid) 0x390-0x391 (1)
0x390|   00                                          | .              |      [6]: 0 standard_wall_indicator (valid) 0x391-0x392 (1)
     |                                               |                |    ut_local_indicators[0:7]: 0x392-0x399 (7)
0x390|      00                                       |  .             |      [0]: 0 ut_local_indicator (valid) 0x392-0x393 (1)
0x390|         00                                    |   .            |      [1]: 0 ut_local_indicator (valid) 0x393-0x394 (1)
0x390|            00                                 |    .           |      [2]: 0 ut_local_indicator (valid) 0x394-0x395 (1)
0x390|               01                              |     .          |      [3]: 1 ut_local_indicator (valid) 0x395-0x396 (1)
0x390|                  00                           |      .         |      [4]: 0 ut_local_indicator (valid) 0x396-0x397 (1)
0x390|                     00                        |       .        |      [5]: 0 ut_local_indicator (valid) 0x397-0x398 (1)
0x390|                        00                     |        .       |      [6]: 0 ut_local_indicator (valid) 0x398-0x399 (1)
     |                                               |                |  v2plusheader{}: 0x399-0x3c5 (44)
0x390|                           54 5a 69 66         |         TZif   |    magic: 0x545a6966 (valid) 0x399-0x39d (4)
0x390|                                       32      |             2  |    ver: "2" (0x32) (valid) 0x39d-0x39e (1)
0x390|                                          00 00|              ..|    reserved: raw bits 0x39e-0x3ad (15)
0x3a0|00 00 00 00 00 00 00 00 00 00 00 00 00         |.............   |
0x3a0|                                       00 00 00|             ...|    isutcnt: 8 0x3ad-0x3b1 (4)
0x3b0|08                                             |.               |
0x3b0|   00 00 00 08                                 | ....           |    isstdcnt: 8 0x3b1-0x3b5 (4)
0x3b0|               00 00 00 1b                     |     ....       |    leapcnt: 27 0x3b5-0x3b9 (4)
0x3b0|                           00 00 00 74         |         ...t   |    timecnt: 116 0x3b9-0x3bd (4)
0x3b0|                                       00 00 00|             ...|    typecnt: 8 0x3bd-0x3c1 (4)
0x3c0|08                                             |.               |
0x3c0|   00 00 00 1e                                 | ....           |    charcnt: 30 0x3c1-0x3c5 (4)
     |                                               |                |  v2plusdatablock{}: 0x3c5-0x97b (1462)
     |                                               |                |    transition_times[0:116]: 0x3c5-0x765 (928)
0x3c0|               ff ff ff ff 3f c2 fd d1         |     ....?...   |      [0]: "1867-10-19T00:31:13Z" (-3225223727) transition_time 0x3c5-0x3cd (8)
0x3c0|                                       ff ff ff|             ...|      [1]: "1900-08-20T21:18:55Z" (-2188953665) transition_time 0x3cd-0x3d5 (8)
0x3d0|ff 7d 87 37 bf                                 |.}.7.           |
0x3d0|               ff ff ff ff cb 89 28 b0         |     ......(.   |      [2]: "1942-02-09T11:00:00Z" (-880203600) transition_time 0x3d5-0x3dd (8)
0x3d0|                                       ff ff ff|             ...|      [3]: "1945-08-14T23:00:00Z" (-769395600) transition_time 0x3dd-0x3e5 (8)
0x3e0|ff d2 23 f4 70                                 |..#.p           |
0x3e0|               ff ff ff ff d2 61 34 20         |     .....a4    |      [4]: "1945-09-30T10:00:00Z" (-765381600) transition_time 0x3e5-0x3ed (8)
0x3e0|                                       ff ff ff|             ...|      [5]: "1969-04-27T11:00:00Z" (-21474000) transition_time 0x3ed-0x3f5 (8)
0x3f0|ff fe b8 55 30                                 |...U0           |
0x3f0|               ff ff ff ff ff a8 38 20         |     ......8    |      [6]: "1969-10-26T10:00:00Z" (-5752800) transition_time 0x3f5-0x3fd (8)
0x3f0|                                       00 00 00|             ...|      [7]: "1970-04-26T11:00:00Z" (9975600) transition_time 0x3fd-0x405 (8)
0x400|00 00 98 37 30                                 |...70           |
0x400|               00 00 00 00 01 88 1a 20         |     .......    |      [8]: "1970-10-25T10:00:00Z" (25696800) transition_time 0x405-0x40d (8)
0x400|                                       00 00 00|             ...|      [9]: "1971-04-25T11:00:00Z" (41425200) transition_time 0x40d-0x415 (8)
0x410|00 02 78 19 30                                 |..x.0           |
0x410|               00 00 00 00 03 71 36 a0         |     .....q6.   |      [10]: "1971-10-31T10:00:00Z" (57751200) transition_time 0x415-0x41d (8)
0x410|                                       00 00 00|             ...|      [11]: "1972-04-30T11:00:00Z" (73479600) transition_time 0x41d-0x425 (8)
0x420|00 04 61 35 b0                                 |..a5.           |
0x420|               00 00 00 00 05 51 18 a1         |     .....Q..   |      [12]: "1972-10-29T10:00:01Z" (89200801) transition_time 0x425-0x42d (8)
0x420|                                       00 00 00|             ...|      [13]: "1973-04-29T11:00:02Z" (104929202) transition_time 0x42d-0x435 (8)
0x430|00 06 41 17 b2                                 |..A..           |
0x430|               00 00 00 00 07 30 fa a2         |     .....0..   |      [14]: "1973-10-28T10:00:02Z" (120650402) transition_time 0x435-0x43d (8)
0x430|                                       00 00 00|             ...|      [15]: "1974-01-06T11:00:03Z" (126702003) transition_time 0x43d-0x445 (8)
0x440|00 07 8d 51 b3                                 |...Q.           |
0x440|               00 00 00 00 09 10 dc a3         |     ........   |      [16]: "1974-10-27T10:00:03Z" (152100003) transition_time 0x445-0x44d (8)
0x440|                                       00 00 00|             ...|      [17]: "1975-02-23T11:00:04Z" (162385204) transition_time 0x44d-0x455 (8)
0x450|00 09 ad cd 34                                 |....4           |
0x450|               00 00 00 00 0a f0 be a4         |     ........   |      [18]: "1975-10-26T10:00:04Z" (183549604) transition_time 0x455-0x45d (8)
0x450|                                       00 00 00|             ...|      [19]: "1976-04-25T11:00:05Z" (199278005) transition_time 0x45d-0x465 (8)
0x460|00 0b e0 bd b5                                 |.....           |
0x460|               00 00 00 00 0c d9 db 25         |     .......%   |      [20]: "1976-10-31T10:00:05Z" (215604005) transition_time 0x465-0x46d (8)
0x460|                                       00 00 00|             ...|      [21]: "1977-04-24T11:00:06Z" (230727606) transition_time 0x46d-0x475 (8)
0x470|00 0d c0 9f b6                                 |.....           |
0x470|               00 00 00 00 0e b9 bd 26         |     .......&   |      [22]: "1977-10-30T10:00:06Z" (247053606) transition_time 0x475-0x47d (8)
0x470|                                       00 00 00|             ...|      [23]: "1978-04-30T11:00:07Z" (262782007) transition_time 0x47d-0x485 (8)
0x480|00 0f a9 bc 37                                 |....7           |
0x480|               00 00 00 00 10 99 9f 27         |     .......'   |      [24]: "1978-10-29T10:00:07Z" (278503207) transition_time 0x485-0x48d (8)
0x480|                                       00 00 00|             ...|      [25]: "1979-04-29T11:00:08Z" (294231608) transition_time 0x48d-0x495 (8)
0x490|00 11 89 9e 38                                 |....8           |
0x490|               00 00 00 00 12 79 81 28         |     .....y.(   |      [26]: "1979-10-28T10:00:08Z" (309952808) transition_time 0x495-0x49d (8)
0x490|                                       00 00 00|             ...|      [27]: "1980-04-27T11:00:09Z" (325681209) transition_time 0x49d-0x4a5 (8)
0x4a0|00 13 69 80 39                                 |..i.9           |
0x4a0|               00 00 00 00 14 59 63 29         |     .....Yc)   |      [28]: "1980-10-26T10:00:09Z" (341402409) transition_time 0x4a5-0x4ad (8)
0x4a0|                                       00 00 00|             ...|      [29]: "1981-04-26T11:00:09Z" (357130809) transition_time 0x4ad-0x4b5 (8)
0x4b0|00 15 49 62 39                                 |..Ib9           |
0x4b0|               00 00 00 00 16 39 45 2a         |     .....9E*   |      [30]: "1981-10-25T10:00:10Z" (372852010) transition_time 0x4b5-0x4bd (8)
0x4b0|                                       00 00 00|             ...|      [31]: "1982-04-25T11:00:10Z" (388580410) transition_time 0x4bd-0x4c5 (8)
0x4c0|00 17 29 44 3a                                 |..)D:           |
0x4c0|               00 00 00 00 18 22 61 ab         |     ....."a.   |      [32]: "1982-10-31T10:00:11Z" (404906411) transition_time 0x4c5-0x4cd (8)
0x4c0|                                       00 00 00|             ...|      [33]: "1983-04-24T11:00:11Z" (420030011) transition_time 0x4cd-0x4d5 (8)
0x4d0|00 19 09 26 3b                                 |...&;           |
0x4d0|               00 00 00 00 1a 02 43 ac         |     ......C.   |      [34]: "1983-10-30T10:00:12Z" (436356012) transition_time 0x4d5-0x4dd (8)
0x4d0|                                       00 00 00|             ...|      [35]: "1983-11-30T09:00:12Z" (439030812) transition_time 0x4dd-0x4e5 (8)
0x4e0|00 1a 2b 14 1c                                 |..+..           |
0x4e0|               00 00 00 00 1a f2 42 bc         |     ......B.   |      [36]: "1984-04-29T11:00:12Z" (452084412) transition_time 0x4e5-0x4ed (8)
0x4e0|                                       00 00 00|             ...|      [37]: "1984-10-28T10:00:12Z" (467805612) transition_time 0x4ed-0x4f5 (8)
0x4f0|00 1b e2 25 ac                                 |...%.           |
0x4f0|               00 00 00 00 1c d2 24 bc         |     ......$.   |      [38]: "1985-04-28T11:00:12Z" (483534012) transition_time 0x4f5-0x4fd (8)
0x4f0|                                       00 00 00|             ...|      [39]: "1985-10-27T10:00:13Z" (499255213) transition_time 0x4fd-0x505 (8)
0x500|00 1d c2 07 ad                                 |.....           |
0x500|               00 00 00 00 1e b2 06 bd         |     ........   |      [40]: "1986-04-27T11:00:13Z" (514983613) transition_time 0x505-0x50d (8)
0x500|                                       00 00 00|             ...|      [41]: "1986-10-26T10:00:13Z" (530704813) transition_time 0x50d-0x515 (8)
0x510|00 1f a1 e9 ad                                 |.....           |
0x510|               00 00 00 00 20 76 39 3d         |     .... v9=   |      [42]: "1987-04-05T11:00:13Z" (544618813) transition_time 0x515-0x51d (8)
0x510|                                       00 00 00|             ...|      [43]: "1987-10-25T10:00:13Z" (562154413) transition_time 0x51d-0x525 (8)
0x520|00 21 81 cb ad                                 |.!...           |
0x520|               00 00 00 00 22 56 1b 3e         |     ...."V.>   |      [44]: "1988-04-03T11:00:14Z" (576068414) transition_time 0x525-0x52d (8)
0x520|                                       00 00 00|             ...|      [45]: "1988-10-30T10:00:14Z" (594208814) transition_time 0x52d-0x535 (8)
0x530|00 23 6a e8 2e                                 |.#j..           |
0x530|               00 00 00 00 24 35 fd 3e         |     ....$5.>   |      [46]: "1989-04-02T11:00:14Z" (607518014) transition_time 0x535-0x53d (8)
0x530|                                       00 00 00|             ...|      [47]: "1989-10-29T10:00:14Z" (625658414) transition_time 0x53d-0x545 (8)
0x540|00 25 4a ca 2e                                 |.%J..           |
0x540|               00 00 00 00 26 15 df 3f         |     ....&..?   |      [48]: "1990-04-01T11:00:15Z" (638967615) transition_time 0x545-0x54d (8)
0x540|                                       00 00 00|             ...|      [49]: "1990-10-28T10:00:15Z" (657108015) transition_time 0x54d-0x555 (8)
0x550|00 27 2a ac 2f                                 |.'*./           |
0x550|               00 00 00 00 27 fe fb c0         |     ....'...   |      [50]: "1991-04-07T11:00:16Z" (671022016) transition_time 0x555-0x55d (8)
0x550|                                       00 00 00|             ...|      [51]: "1991-10-27T10:00:16Z" (688557616) transition_time 0x55d-0x565 (8)
0x560|00 29 0a 8e 30                                 |.)..0           |
0x560|               00 00 00 00 29 de dd c0         |     ....)...   |      [52]: "1992-04-05T11:00:16Z" (702471616) transition_time 0x565-0x56d (8)
0x560|                                       00 00 00|             ...|      [53]: "1992-10-25T10:00:17Z" (720007217) transition_time 0x56d-0x575 (8)
0x570|00 2a ea 70 31                                 |.*.p1           |
0x570|               00 00 00 00 2b be bf c1         |     ....+...   |      [54]: "1993-04-04T11:00:17Z" (733921217) transition_time 0x575-0x57d (8)
0x570|                                       00 00 00|             ...|      [55]: "1993-10-31T10:00:18Z" (752061618) transition_time 0x57d-0x585 (8)
0x580|00 2c d3 8c b2                                 |.,...           |
0x580|               00 00 00 00 2d 9e a1 c2         |     ....-...   |      [56]: "1994-04-03T11:00:18Z" (765370818) transition_time 0x585-0x58d (8)
0x580|                                       00 00 00|             ...|      [57]: "1994-10-30T10:00:19Z" (783511219) transition_time 0x58d-0x595 (8)
0x590|00 2e b3 6e b3                                 |...n.           |
0x590|               00 00 00 00 2f 7e 83 c3         |     ..../~..   |      [58]: "1995-04-02T11:00:19Z" (796820419) transition_time 0x595-0x59d (8)
0x590|                                       00 00 00|             ...|      [59]: "1995-10-29T10:00:19Z" (814960819) transition_time 0x59d-0x5a5 (8)
0x5a0|00 30 93 50 b3                                 |.0.P.           |
0x5a0|               00 00 00 00 31 67 a0 44         |     ....1g.D   |      [60]: "1996-04-07T11:00:20Z" (828874820) transition_time 0x5a5-0x5ad (8)
0x5a0|                                       00 00 00|             ...|      [61]: "1996-10-27T10:00:20Z" (846410420) transition_time 0x5ad-0x5b5 (8)
0x5b0|00 32 73 32 b4                                 |.2s2.           |
0x5b0|               00 00 00 00 33 47 82 44         |     ....3G.D   |      [62]: "1997-04-06T11:00:20Z" (860324420) transition_time 0x5b5-0x5bd (8)
0x5b0|                                       00 00 00|             ...|      [63]: "1997-10-26T10:00:21Z" (877860021) transition_time 0x5bd-0x5c5 (8)
0x5c0|00 34 53 14 b5                                 |.4S..           |
0x5c0|               00 00 00 00 35 27 64 45         |     ....5'dE   |      [64]: "1998-04-05T11:00:21Z" (891774021) transition_time 0x5c5-0x5cd (8)
0x5c0|                                       00 00 00|             ...|      [65]: "1998-10-25T10:00:21Z" (909309621) transition_time 0x5cd-0x5d5 (8)
0x5d0|00 36 32 f6 b5                                 |.62..           |
0x5d0|               00 00 00 00 37 07 46 46         |     ....7.FF   |      [66]: "1999-04-04T11:00:22Z" (923223622) transition_time 0x5d5-0x5dd (8)
0x5d0|                                       00 00 00|             ...|      [67]: "1999-10-31T10:00:22Z" (941364022) transition_time 0x5dd-0x5e5 (8)
0x5e0|00 38 1c 13 36                                 |.8..6           |
0x5e0|               00 00 00 00 38 e7 28 46         |     ....8.(F   |      [68]: "2000-04-02T11:00:22Z" (954673222) transition_time 0x5e5-0x5ed (8)
0x5e0|                                       00 00 00|             ...|      [69]: "2000-10-29T10:00:22Z" (972813622) transition_time 0x5ed-0x5f5 (8)
0x5f0|00 39 fb f5 36                                 |.9..6           |
0x5f0|               00 00 00 00 3a c7 0a 46         |     ....:..F   |      [70]: "2001-04-01T11:00:22Z" (986122822) transition_time 0x5f5-0x5fd (8)
0x5f0|                                       00 00 00|             ...|      [71]: "2001-10-28T10:00:22Z" (1004263222) transition_time 0x5fd-0x605 (8)
0x600|00 3b db d7 36                                 |.;..6           |
0x600|               00 00 00 00 3c b0 26 c6         |     ....<.&.   |      [72]: "2002-04-07T11:00:22Z" (1018177222) transition_time 0x605-0x60d (8)
0x600|                                       00 00 00|             ...|      [73]: "2002-10-27T10:00:22Z" (1035712822) transition_time 0x60d-0x615 (8)
0x610|00 3d bb b9 36                                 |.=..6           |
0x610|               00 00 00 00 3e 90 08 c6         |     ....>...   |      [74]: "2003-04-06T11:00:22Z" (1049626822) transition_time 0x615-0x61d (8)
0x610|                                       00 00 00|             ...|      [75]: "2003-10-26T10:00:22Z" (1067162422) transition_time 0x61d-0x625 (8)
0x620|00 3f 9b 9b 36                                 |.?..6           |
0x620|               00 00 00 00 40 6f ea c6         |     ....@o..   |      [76]: "2004-04-04T11:00:22Z" (1081076422) transition_time 0x625-0x62d (8)
0x620|                                       00 00 00|             ...|      [77]: "2004-10-31T10:00:22Z" (1099216822) transition_time 0x62d-0x635 (8)
0x630|00 41 84 b7 b6                                 |.A...           |
0x630|               00 00 00 00 42 4f cc c6         |     ....BO..   |      [78]: "2005-04-03T11:00:22Z" (1112526022) transition_time 0x635-0x63d (8)
0x630|                                       00 00 00|             ...|      [79]: "2005-10-30T10:00:22Z" (1130666422) transition_time 0x63d-0x645 (8)
0x640|00 43 64 99 b6                                 |.Cd..           |
0x640|               00 00 00 00 44 2f ae c7         |     ....D/..   |      [80]: "2006-04-02T11:00:23Z" (1143975623) transition_time 0x645-0x64d (8)
0x640|                                       00 00 00|             ...|      [81]: "2006-10-29T10:00:23Z" (1162116023) transition_time 0x64d-0x655 (8)
0x650|00 45 44 7b b7                                 |.ED{.           |
0x650|               00 00 00 00 45 f3 e1 47         |     ....E..G   |      [82]: "2007-03-11T11:00:23Z" (1173610823) transition_time 0x655-0x65d (8)
0x650|                                       00 00 00|             ...|      [83]: "2007-11-04T10:00:23Z" (1194170423) transition_time 0x65d-0x665 (8)
0x660|00 47 2d 98 37                                 |.G-.7           |
0x660|               00 00 00 00 47 d3 c3 47         |     ....G..G   |      [84]: "2008-03-09T11:00:23Z" (1205060423) transition_time 0x665-0x66d (8)
0x660|                                       00 00 00|             ...|      [85]: "2008-11-02T10:00:23Z" (1225620023) transition_time 0x66d-0x675 (8)
0x670|00 49 0d 7a 37                                 |.I.z7           |
0x670|               00 00 00 00 49 b3 a5 48         |     ....I..H   |      [86]: "2009-03-08T11:00:24Z" (1236510024) transition_time 0x675-0x67d (8)
0x670|                                       00 00 00|             ...|      [87]: "2009-11-01T10:00:24Z" (1257069624) transition_time 0x67d-0x685 (8)
0x680|00 4a ed 5c 38                                 |.J.\8           |
0x680|               00 00 00 00 4b 9c c1 c8         |     ....K...   |      [88]: "2010-03-14T11:00:24Z" (1268564424) transition_time 0x685-0x68d (8)
0x680|                                       00 00 00|             ...|      [89]: "2010-11-07T10:00:24Z" (1289124024) transition_time 0x68d-0x695 (8)
0x690|00 4c d6 78 b8                                 |.L.x.           |
0x690|               00 00 00 00 4d 7c a3 c8         |     ....M|..   |      [90]: "2011-03-13T11:00:24Z" (1300014024) transition_time 0x695-0x69d (8)
0x690|                                       00 00 00|             ...|      [91]: "2011-11-06T10:00:24Z" (1320573624) transition_time 0x69d-0x6a5 (8)
0x6a0|00 4e b6 5a b8                                 |.N.Z.           |
0x6a0|               00 00 00 00 4f 5c 85 c8         |     ....O\..   |      [92]: "2012-03-11T11:00:24Z" (1331463624) transition_time 0x6a5-0x6ad (8)
0x6a0|                                       00 00 00|             ...|      [93]: "2012-11-04T10:00:25Z" (1352023225) transition_time 0x6ad-0x6b5 (8)
0x6b0|00 50 96 3c b9                                 |.P.<.           |
0x6b0|               00 00 00 00 51 3c 67 c9         |     ....Q<g.   |      [94]: "2013-03-10T11:00:25Z" (1362913225) transition_time 0x6b5-0x6bd (8)
0x6b0|                                       00 00 00|             ...|      [95]: "2013-11-03T10:00:25Z" (1383472825) transition_time 0x6bd-0x6c5 (8)
0x6c0|00 52 76 1e b9                                 |.Rv..           |
0x6c0|               00 00 00 00 53 1c 49 c9         |     ....S.I.   |      [96]: "2014-03-09T11:00:25Z" (1394362825) transition_time 0x6c5-0x6cd (8)
0x6c0|                                       00 00 00|             ...|      [97]: "2014-11-02T10:00:25Z" (1414922425) transition_time 0x6cd-0x6d5 (8)
0x6d0|00 54 56 00 b9                                 |.TV..           |
0x6d0|               00 00 00 00 54 fc 2b c9         |     ....T.+.   |      [98]: "2015-03-08T11:00:25Z" (1425812425) transition_time 0x6d5-0x6dd (8)
0x6d0|                                       00 00 00|             ...|      [99]: "2015-11-01T10:00:26Z" (1446372026) transition_time 0x6dd-0x6e5 (8)
0x6e0|00 56 35 e2 ba                                 |.V5..           |
0x6e0|               00 00 00 00 56 e5 48 4a         |     ....V.HJ   |      [100]: "2016-03-13T11:00:26Z" (1457866826) transition_time 0x6e5-0x6ed (8)
0x6e0|                                       00 00 00|             ...|      [101]: "2016-11-06T10:00:26Z" (1478426426) transition_time 0x6ed-0x6f5 (8)
0x6f0|00 58 1e ff 3a                                 |.X..:           |
0x6f0|               00 00 00 00 58 c5 2a 4b         |     ....X.*K   |      [102]: "2017-03-12T11:00:27Z" (1489316427) transition_time 0x6f5-0x6fd (8)
0x6f0|                                       00 00 00|             ...|      [103]: "2017-11-05T10:00:27Z" (1509876027) transition_time 0x6fd-0x705 (8)
0x700|00 59 fe e1 3b                                 |.Y..;           |
0x700|               00 00 00 00 5a a5 0c 4b         |     ....Z..K   |      [104]: "2018-03-11T11:00:27Z" (1520766027) transition_time 0x705-0x70d (8)
0x700|                                       00 00 00|             ...|      [105]: "2018-11-04T10:00:27Z" (1541325627) transition_time 0x70d-0x715 (8)
0x710|00 5b de c3 3b                                 |.[..;           |
0x710|               00 00 00 00 5c 84 ee 4b         |     ....\..K   |      [106]: "2019-03-10T11:00:27Z" (1552215627) transition_time 0x715-0x71d (8)
0x710|                                       00 00 00|             ...|      [107]: "2019-11-03T10:00:27Z" (1572775227) transition_time 0x71d-0x725 (8)
0x720|00 5d be a5 3b                                 |.]..;           |
0x720|               00 00 00 00 5e 64 d0 4b         |     ....^d.K   |      [108]: "2020-03-08T11:00:27Z" (1583665227) transition_time 0x725-0x72d (8)
0x720|                                       00 00 00|             ...|      [109]: "2020-11-01T10:00:27Z" (1604224827) transition_time 0x72d-0x735 (8)
0x730|00 5f 9e 87 3b                                 |._..;           |
0x730|               00 00 00 00 60 4d ec cb         |     ....`M..   |      [110]: "2021-03-14T11:00:27Z" (1615719627) transition_time 0x735-0x73d (8)
0x730|                                       00 00 00|             ...|      [111]: "2021-11-07T10:00:27Z" (1636279227) transition_time 0x73d-0x745 (8)
0x740|00 61 87 a3 bb                                 |.a...           |
0x740|               00 00 00 00 62 2d ce cb         |     ....b-..   |      [112]: "2022-03-13T11:00:27Z" (1647169227) transition_time 0x745-0x74d (8)
0x740|                                       00 00 00|             ...|      [113]: "2022-11-06T10:00:27Z" (1667728827) transition_time 0x74d-0x755 (8)
0x750|00 63 67 85 bb                                 |.cg..           |
0x750|               00 00 00 00 64 0d b0 cb         |     ....d...   |      [114]: "2023-03-12T11:00:27Z" (1678618827) transition_time 0x755-0x75d (8)
0x750|                                       00 00 00|             ...|      [115]: "2023-06-28T00:00:27Z" (1687910427) transition_time 0x75d-0x765 (8)
0x760|00 64 9b 78 1b                                 |.d.x.           |
     |                                               |                |    transition_types[0:116]: 0x765-0x7d9 (116)
0x760|               01                              |     .          |      [0]: 1 transition_type 0x765-0x766 (1)
0x760|                  02                           |      .         |      [1]: 2 transition_type 0x766-0x767 (1)
0x760|                     03                        |       .        |      [2]: 3 transition_type 0x767-0x768 (1)
0x760|                        04                     |        .       |      [3]: 4 transition_type 0x768-0x769 (1)
0x760|                           02                  |         .      |      [4]: 2 transition_type 0x769-0x76a (1)
0x760|                              05               |          .     |      [5]: 5 transition_type 0x76a-0x76b (1)
0x760|                                 02            |           .    |      [6]: 2 transition_type 0x76b-0x76c (1)
0x760|                                    05         |            .   |      [7]: 5 transition_type 0x76c-0x76d (1)
0x760|                                       02      |             .  |      [8]: 2 transition_type 0x76d-0x76e (1)
0x760|                                          05   |              . |      [9]: 5 transition_type 0x76e-0x76f (1)
0x760|                                             02|               .|      [10]: 2 transition_type 0x76f-0x770 (1)
0x770|05                                             |.               |      [11]: 5 transition_type 0x770-0x771 (1)
0x770|   02                                          | .              |      [12]: 2 transition_type 0x771-0x772 (1)
0x770|      05                                       |  .             |      [13]: 5 transition_type 0x772-0x773 (1)
0x770|         02                                    |   .            |      [14]: 2 transition_type 0x773-0x774 (1)
0x770|            05                                 |    .           |      [15]: 5 transition_type 0x774-0x775 (1)
0x770|               02                              |     .          |      [16]: 2 transition_type 0x775-0x776 (1)
0x770|                  05                           |      .         |      [17]: 5 transition_type 0x776-0x777 (1)
0x770|                     02                        |       .        |      [18]: 2 transition_type 0x777-0x778 (1)
0x770|                        05                     |        .       |      [19]: 5 transition_type 0x778-0x779 (1)
0x770|                           02                  |         .      |      [20]: 2 transition_type 0x779-0x77a (1)
0x770|                              05               |          .     |      [21]: 5 transition_type 0x77a-0x77b (1)
0x770|                                 02            |           .    |      [22]: 2 transition_type 0x77b-0x77c (1)
0x770|                                    05         |            .   |      [23]: 5 transition_type 0x77c-0x77d (1)
0x770|                                       02      |             .  |      [24]: 2 transition_type 0x77d-0x77e (1)
0x770|                                          05   |              . |      [25]: 5 transition_type 0x77e-0x77f (1)
0x770|                                             02|               .|      [26]: 2 transition_type 0x77f-0x780 (1)
0x780|05                                             |.               |      [27]: 5 transition_type 0x780-0x781 (1)
0x780|   02                                          | .              |      [28]: 2 transition_type 0x781-0x782 (1)
0x780|      05                                       |  .             |      [29]: 5 transition_type 0x782-0x783 (1)
0x780|         02                                    |   .            |      [30]: 2 transition_type 0x783-0x784 (1)
0x780|            05                                 |    .           |      [31]: 5 transition_type 0x784-0x785 (1)
0x780|               02                              |     .          |      [32]: 2 transition_type 0x785-0x786 (1)
0x780|                  05                           |      .         |      [33]: 5 transition_type 0x786-0x787 (1)
0x780|                     02                        |       .        |      [34]: 2 transition_type 0x787-0x788 (1)
0x780|                        07                     |        .       |      [35]: 7 transition_type 0x788-0x789 (1)
0x780|                           06                  |         .      |      [36]: 6 transition_type 0x789-0x78a (1)
0x780|                              07               |          .     |      [37]: 7 transition_type 0x78a-0x78b (1)
0x780|                                 06            |           .    |      [38]: 6 transition_type 0x78b-0x78c (1)
0x780|                                    07         |            .   |      [39]: 7 transition_type 0x78c-0x78d (1)
0x780|                                       06      |             .  |      [40]: 6 transition_type 0x78d-0x78e (1)
0x780|                                          07   |              . |      [41]: 7 transition_type 0x78e-0x78f (1)
0x780|                                             06|               .|      [42]: 6 transition_type 0x78f-0x790 (1)
0x790|07                                             |.               |      [43]: 7 transition_type 0x790-0x791 (1)
0x790|   06                                          | .              |      [44]: 6 transition_type 0x791-0x792 (1)
0x790|      07                                       |  .             |      [45]: 7 transition_type 0x792-0x793 (1)
0x790|         06                                    |   .            |      [46]: 6 transition_type 0x793-0x794 (1)
0x790|            07                                 |    .           |      [47]: 7 transition_type 0x794-0x795 (1)
0x790|               06                              |     .          |      [48]: 6 transition_type 0x795-0x796 (1)
0x790|                  07                           |      .         |      [49]: 7 transition_type 0x796-0x797 (1)
0x790|                     06                        |       .        |      [50]: 6 transition_type 0x797-0x798 (1)
0x790|                        07                     |        .       |      [51]: 7 transition_type 0x798-0x799 (1)
0x790|                           06                  |         .      |      [52]: 6 transition_type 0x799-0x79a (1)
0x790|                              07               |          .     |      [53]: 7 transition_type 0x79a-0x79b (1)
0x790|                                 06            |           .    |      [54]: 6 transition_type 0x79b-0x79c (1)
0x790|                                    07         |            .   |      [55]: 7 transition_type 0x79c-0x79d (1)
0x790|                                       06      |             .  |      [56]: 6 transition_type 0x79d-0x79e (1)
0x790|                                          07   |              . |      [57]: 7 transition_type 0x79e-0x79f (1)
0x790|                                             06|               .|      [58]: 6 transition_type 0x79f-0x7a0 (1)
0x7a0|07                                             |.               |      [59]: 7 transition_type 0x7a0-0x7a1 (1)
0x7a0|   06                                          | .              |      [60]: 6 transition_type 0x7a1-0x7a2 (1)
0x7a0|      07                                       |  .             |      [61]: 7 transition_type 0x7a2-0x7a3 (1)
0x7a0|         06                                    |   .            |      [62]: 6 transition_type 0x7a3-0x7a4 (1)
0x7a0|            07                                 |    .           |      [63]: 7 transition_type 0x7a4-0x7a5 (1)
0x7a0|               06                              |     .          |      [64]: 6 transition_type 0x7a5-0x7a6 (1)
0x7a0|                  07                           |      .         |      [65]: 7 transition_type 0x7a6-0x7a7 (1)
0x7a0|                     06                        |       .        |      [66]: 6 transition_type 0x7a7-0x7a8 (1)
0x7a0|                        07                     |        .       |      [67]: 7 transition_type 0x7a8-0x7a9 (1)
0x7a0|                           06                  |         .      |      [68]: 6 transition_type 0x7a9-0x7aa (1)
0x7a0|                              07               |          .     |      [69]: 7 transition_type 0x7aa-0x7ab (1)
0x7a0|                                 06            |           .    |      [70]: 6 transition_type 0x7ab-0x7ac (1)
0x7a0|                                    07         |            .   |      [71]: 7 transition_type 0x7ac-0x7ad (1)
0x7a0|                                       06      |             .  |      [72]: 6 transition_type 0x7ad-0x7ae (1)
0x7a0|                                          07   |              . |      [73]: 7 transition_type 0x7ae-0x7af (1)
0x7a0|                                             06|               .|      [74]: 6 transition_type 0x7af-0x7b0 (1)
0x7b0|07                                             |.               |      [75]: 7 transition_type 0x7b0-0x7b1 (1)
0x7b0|   06                                          | .              |      [76]: 6 transition_type 0x7b1-0x7b2 (1)
0x7b0|      07                                       |  .             |      [77]: 7 transition_type 0x7b2-0x7b3 (1)
0x7b0|         06                                    |   .            |      [78]: 6 transition_type 0x7b3-0x7b4 (1)
0x7b0|            07                                 |    .           |      [79]: 7 transition_type 0x7b4-0x7b5 (1)
0x7b0|               06                              |     .          |      [80]: 6 transition_type 0x7b5-0x7b6 (1)
0x7b0|                  07                           |      .         |      [81]: 7 transition_type 0x7b6-0x7b7 (1)
0x7b0|                     06                        |       .        |      [82]: 6 transition_type 0x7b7-0x7b8 (1)
0x7b0|                        07                     |        .       |      [83]: 7 transition_type 0x7b8-0x7b9 (1)
0x7b0|                           06                  |         .      |      [84]: 6 transition_type 0x7b9-0x7ba (1)
0x7b0|                              07               |          .     |      [85]: 7 transition_type 0x7ba-0x7bb (1)
0x7b0|                                 06            |           .    |      [86]: 6 transition_type 0x7bb-0x7bc (1)
0x7b0|                                    07         |            .   |      [87]: 7 transition_type 0x7bc-0x7bd (1)
0x7b0|                                       06      |             .  |      [88]: 6 transition_type 0x7bd-0x7be (1)
0x7b0|                                          07   |              . |      [89]: 7 transition_type 0x7be-0x7bf (1)
0x7b0|                                             06|               .|      [90]: 6 transition_type 0x7bf-0x7c0 (1)
0x7c0|07                                             |.               |      [91]: 7 transition_type 0x7c0-0x7c1 (1)
0x7c0|   06                                          | .              |      [92]: 6 transition_type 0x7c1-0x7c2 (1)
0x7c0|      07                                       |  .             |      [93]: 7 transition_type 0x7c2-0x7c3 (1)
0x7c0|         06                                    |   .            |      [94]: 6 transition_type 0x7c3-0x7c4 (1)
0x7c0|            07                                 |    .           |      [95]: 7 transition_type 0x7c4-0x7c5 (1)
0x7c0|               06                              |     .          |      [96]: 6 transition_type 0x7c5-0x7c6 (1)
0x7c0|                  07                           |      .         |      [97]: 7 transition_type 0x7c6-0x7c7 (1)
0x7c0|                     06                        |       .        |      [98]: 6 transition_type 0x7c7-0x7c8 (1)
0x7c0|                        07                     |        .       |      [99]: 7 transition_type 0x7c8-0x7c9 (1)
0x7c0|                           06                  |         .      |      [100]: 6 transition_type 0x7c9-0x7ca (1)
0x7c0|                              07               |          .     |      [101]: 7 transition_type 0x7ca-0x7cb (1)
0x7c0|                                 06            |           .    |      [102]: 6 transition_type 0x7cb-0x7cc (1)
0x7c0|                                    07         |            .   |      [103]: 7 transition_type 0x7cc-0x7cd (1)
0x7c0|                                       06      |             .  |      [104]: 6 transition_type 0x7cd-0x7ce (1)
0x7c0|                                          07   |              . |      [105]: 7 transition_type 0x7ce-0x7cf (1)
0x7c0|                                             06|               .|      [106]: 6 transition_type 0x7cf-0x7d0 (1)
0x7d0|07                                             |.               |      [107]: 7 transition_type 0x7d0-0x7d1 (1)
0x7d0|   06                                          | .              |      [108]: 6 transition_type 0x7d1-0x7d2 (1)
0x7d0|      07                                       |  .             |      [109]: 7 transition_type 0x7d2-0x7d3 (1)
0x7d0|         06                                    |   .            |      [110]: 6 transition_type 0x7d3-0x7d4 (1)
0x7d0|            07                                 |    .           |      [111]: 7 transition_type 0x7d4-0x7d5 (1)
0x7d0|               06                              |     .          |      [112]: 6 transition_type 0x7d5-0x7d6 (1)
0x7d0|                  07                           |      .         |      [113]: 7 transition_type 0x7d6-0x7d7 (1)
0x7d0|                     06                        |       .        |      [114]: 6 transition_type 0x7d7-0x7d8 (1)
0x7d0|                        06                     |        .       |      [115]: 6 transition_type 0x7d8-0x7d9 (1)
     |                                               |                |    local_time_type_records[0:8]: 0x7d9-0x809 (48)
     |                                               |                |      [0]{}: local_time_type 0x7d9-0x7df (6)
0x7d0|                           00 00 ce 81         |         ....   |        utoff: 52865 (valid) 0x7d9-0x7dd (4)
0x7d0|                                       00      |             .  |        dst: 0 (valid) 0x7dd-0x7de (1)
0x7d0|                                          00   |              . |        idx: 0 (valid) 0x7de-0x7df (1)
     |                                               |                |      [1]{}: local_time_type 0x7df-0x7e5 (6)
0x7d0|                                             ff|               .|        utoff: -33535 (valid) 0x7df-0x7e3 (4)
0x7e0|ff 7d 01                                       |.}.             |
0x7e0|         00                                    |   .            |        dst: 0 (valid) 0x7e3-0x7e4 (1)
0x7e0|            00                                 |    .           |        idx: 0 (valid) 0x7e4-0x7e5 (1)
     |                                               |                |      [2]{}: local_time_type 0x7e5-0x7eb (6)
0x7e0|               ff ff 81 70                     |     ...p       |        utoff: -32400 (valid) 0x7e5-0x7e9 (4)
0x7e0|                           00                  |         .      |        dst: 0 (valid) 0x7e9-0x7ea (1)
0x7e0|                              04               |          .     |        idx: 4 (valid) 0x7ea-0x7eb (1)
     |                                               |                |      [3]{}: local_time_type 0x7eb-0x7f1 (6)
0x7e0|                                 ff ff 8f 80   |           .... |        utoff: -28800 (valid) 0x7eb-0x7ef (4)
0x7e0|                                             01|               .|        dst: 1 (valid) 0x7ef-0x7f0 (1)
0x7f0|08                                             |.               |        idx: 8 (valid) 0x7f0-0x7f1 (1)
     |                                               |                |      [4]{}: local_time_type 0x7f1-0x7f7 (6)
0x7f0|   ff ff 8f 80                                 | ....           |        utoff: -28800 (valid) 0x7f1-0x7f5 (4)
0x7f0|               01                              |     .          |        dst: 1 (valid) 0x7f5-0x7f6 (1)
0x7f0|                  0c                           |      .         |        idx: 12 (valid) 0x7f6-0x7f7 (1)
     |                                               |                |      [5]{}: local_time_type 0x7f7-0x7fd (6)
0x7f0|                     ff ff 8f 80               |       ....     |        utoff: -28800 (valid) 0x7f7-0x7fb (4)
0x7f0|                                 01            |           .    |        dst: 1 (valid) 0x7fb-0x7fc (1)
0x7f0|                                    10         |            .   |        idx: 16 (valid) 0x7fc-0x7fd (1)
     |                                               |                |      [6]{}: local_time_type 0x7fd-0x803 (6)
0x7f0|                                       ff ff 8f|             ...|        utoff: -28800 (valid) 0x7fd-0x801 (4)
0x800|80                                             |.               |
0x800|   01                                          | .              |        dst: 1 (valid) 0x801-0x802 (1)
0x800|      14                                       |  .             |        idx: 20 (valid) 0x802-0x803 (1)
     |                                               |                |      [7]{}: local_time_type 0x803-0x809 (6)
0x800|         ff ff 81 70                           |   ...p         |        utoff: -32400 (valid) 0x803-0x807 (4)
0x800|                     00                        |       .        |        dst: 0 (valid) 0x807-0x808 (1)
0x800|                        19                     |        .       |        idx: 25 (valid) 0x808-0x809 (1)
     |                                               |                |    time_zone_designations[0:7]: 0x809-0x827 (30)
0x800|                           4c 4d 54 00         |         LMT.   |      [0]: "LMT" time_zone_designation 0x809-0x80d (4)
0x800|                                       59 53 54|             YST|      [1]: "YST" time_zone_designation 0x80d-0x811 (4)
0x810|00                                             |.               |
0x810|   59 57 54 00                                 | YWT.           |      [2]: "YWT" time_zone_designation 0x811-0x815 (4)
0x810|               59 50 54 00                     |     YPT.       |      [3]: "YPT" time_zone_designation 0x815-0x819 (4)
0x810|                           59 44 54 00         |         YDT.   |      [4]: "YDT" time_zone_designation 0x819-0x81d (4)
0x810|                                       41 4b 44|             AKD|      [5]: "AKDT" time_zone_designation 0x81d-0x822 (5)
0x820|54 00                                          |T.              |
0x820|      41 4b 53 54 00                           |  AKST.         |      [6]: "AKST" time_zone_designation 0x822-0x827 (5)
     |                                               |                |    leap_second_records[0:27]: 0x827-0x96b (324)
     |                                               |                |      [0]{}: leap_second_record 0x827-0x833 (12)
0x820|                     00 00 00 00 04 b2 58 00   |       ......X. |        occur: "1972-07-01T00:00:00Z" (78796800) 0x827-0x82f (8)
0x820|                                             00|               .|        corr: 1 0x82f-0x833 (4)
0x830|00 00 01                                       |...             |
     |                                               |                |      [1]{}: leap_second_record 0x833-0x83f (12)
0x830|         00 00 00 00 05 a4 ec 01               |   ........     |        occur: "1973-01-01T00:00:01Z" (94694401) 0x833-0x83b (8)
0x830|                                 00 00 00 02   |           .... |        corr: 2 0x83b-0x83f (4)
     |                                               |                |      [2]{}: leap_second_record 0x83f-0x84b (12)
0x830|                                             00|               .|        occur: "1974-01-01T00:00:02Z" (126230402) 0x83f-0x847 (8)
0x840|00 00 00 07 86 1f 82                           |.......         |
0x840|                     00 00 00 03               |       ....     |        corr: 3 0x847-0x84b (4)
     |                                               |                |      [3]{}: leap_second_record 0x84b-0x857 (12)
0x840|                                 00 00 00 00 09|           .....|        occur: "1975-01-01T00:00:03Z" (157766403) 0x84b-0x853 (8)
0x850|67 53 03                                       |gS.             |
0x850|         00 00 00 04                           |   ....         |        corr: 4 0x853-0x857 (4)
     |                                               |                |      [4]{}: leap_second_record 0x857-0x863 (12)
0x850|                     00 00 00 00 0b 48 86 84   |       .....H.. |        occur: "1976-01-01T00:00:04Z" (189302404) 0x857-0x85f (8)
0x850|                                             00|               .|        corr: 5 0x85f-0x863 (4)
0x860|00 00 05                                       |...             |
     |                                               |                |      [5]{}: leap_second_record 0x863-0x86f (12)
0x860|         00 00 00 00 0d 2b 0b 85               |   .....+..     |        occur: "1977-01-01T00:00:05Z" (220924805) 0x863-0x86b (8)
0x860|                                 00 00 00 06   |           .... |        corr: 6 0x86b-0x86f (4)
     |                                               |                |      [6]{}: leap_second_record 0x86f-0x87b (12)
0x860|                                             00|               .|        occur: "1978-01-01T00:00:06Z" (252460806) 0x86f-0x877 (8)
0x870|00 00 00 0f 0c 3f 06                           |.....?.         |
0x870|                     00 00 00 07               |       ....     |        corr: 7 0x877-0x87b (4)
     |                                               |                |      [7]{}: leap_second_record 0x87b-0x887 (12)
0x870|                                 00 00 00 00 10|           .....|        occur: "1979-01-01T00:00:07Z" (283996807) 0x87b-0x883 (8)
0x880|ed 72 87                                       |.r.             |
0x880|         00 00 00 08                           |   ....         |        corr: 8 0x883-0x887 (4)
     |                                               |                |      [8]{}: leap_second_record 0x887-0x893 (12)
0x880|                     00 00 00 00 12 ce a6 08   |       ........ |        occur: "1980-01-01T00:00:08Z" (315532808) 0x887-0x88f (8)
0x880|                                             00|               .|        corr: 9 0x88f-0x893 (4)
0x890|00 00 09                                       |...             |
     |                                               |                |      [9]{}: leap_second_record 0x893-0x89f (12)
0x890|         00 00 00 00 15 9f ca 89               |   ........     |        occur: "1981-07-01T00:00:09Z" (362793609) 0x893-0x89b (8)
0x890|                                 00 00 00 0a   |           .... |        corr: 10 0x89b-0x89f (4)
     |                                               |                |      [10]{}: leap_second_record 0x89f-0x8ab (12)
0x890|                                             00|               .|        occur: "1982-07-01T00:00:10Z" (394329610) 0x89f-0x8a7 (8)
0x8a0|00 00 00 17 80 fe 0a                           |.......         |
0x8a0|                     00 00 00 0b               |       ....     |        corr: 11 0x8a7-0x8ab (4)
     |                                               |                |      [11]{}: leap_second_record 0x8ab-0x8b7 (12)
0x8a0|                                 00 00 00 00 19|           .....|        occur: "1983-07-01T00:00:11Z" (425865611) 0x8ab-0x8b3 (8)
0x8b0|62 31 8b                                       |b1.             |
0x8b0|         00 00 00 0c                           |   ....         |        corr: 12 0x8b3-0x8b7 (4)
     |                                               |                |      [12]{}: leap_second_record 0x8b7-0x8c3 (12)
0x8b0|                     00 00 00 00 1d 25 ea 0c   |       .....%.. |        occur: "1985-07-01T00:00:12Z" (489024012) 0x8b7-0x8bf (8)
0x8b0|                                             00|               .|        corr: 13 0x8bf-0x8c3 (4)
0x8c0|00 00 0d                                       |...             |
     |                                               |                |      [13]{}: leap_second_record 0x8c3-0x8cf (12)
0x8c0|         00 00 00 00 21 da e5 0d               |   ....!...     |        occur: "1988-01-01T00:00:13Z" (567993613) 0x8c3-0x8cb (8)
0x8c0|                                 00 00 00 0e   |           .... |        corr: 14 0x8cb-0x8cf (4)
     |                                               |                |      [14]{}: leap_second_record 0x8cf-0x8db (12)
0x8c0|                                             00|               .|        occur: "1990-01-01T00:00:14Z" (631152014) 0x8cf-0x8d7 (8)
0x8d0|00 00 00 25 9e 9d 8e                           |...%...         |
0x8d0|                     00 00 00 0f               |       ....     |        corr: 15 0x8d7-0x8db (4)
     |                                               |                |      [15]{}: leap_second_record 0x8db-0x8e7 (12)
0x8d0|                                 00 00 00 00 27|           ....'|        occur: "1991-01-01T00:00:15Z" (662688015) 0x8db-0x8e3 (8)
0x8e0|7f d1 0f                                       |...             |
0x8e0|         00 00 00 10                           |   ....         |        corr: 16 0x8e3-0x8e7 (4)
     |                                               |                |      [16]{}: leap_second_record 0x8e7-0x8f3 (12)
0x8e0|                     00 00 00 00 2a 50 f5 90   |       ....*P.. |        occur: "1992-07-01T00:00:16Z" (709948816) 0x8e7-0x8ef (8)
0x8e0|                                             00|               .|        corr: 17 0x8ef-0x8f3 (4)
0x8f0|00 00 11                                       |...             |
     |                                               |                |      [17]{}: leap_second_record 0x8f3-0x8ff (12)
0x8f0|         00 00 00 00 2c 32 29 11               |   ....,2).     |        occur: "1993-07-01T00:00:17Z" (741484817) 0x8f3-0x8fb (8)
0x8f0|                                 00 00 00 12   |           .... |        corr: 18 0x8fb-0x8ff (4)
     |                                               |                |      [18]{}: leap_second_record 0x8ff-0x90b (12)
0x8f0|                                             00|               .|        occur: "1994-07-01T00:00:18Z" (773020818) 0x8ff-0x907 (8)
0x900|00 00 00 2e 13 5c 92                           |.....\.         |
0x900|                     00 00 00 13               |       ....     |        corr: 19 0x907-0x90b (4)
     |                                               |                |      [19]{}: leap_second_record 0x90b-0x917 (12)
0x900|                                 00 00 00 00 30|           ....0|        occur: "1996-01-01T00:00:19Z" (820454419) 0x90b-0x913 (8)
0x910|e7 24 13                                       |.$.             |
0x910|         00 00 00 14                           |   ....         |        corr: 20 0x913-0x917 (4)
     |                                               |                |      [20]{}: leap_second_record 0x917-0x923 (12)
0x910|                     00 00 00 00 33 b8 48 94   |       ....3.H. |        occur: "1997-07-01T00:00:20Z" (867715220) 0x917-0x91f (8)
0x910|                                             00|               .|        corr: 21 0x91f-0x923 (4)
0x920|00 00 15                                       |...             |
     |                                               |                |      [21]{}: leap_second_record 0x923-0x92f (12)
0x920|         00 00 00 00 36 8c 10 15               |   ....6...     |        occur: "1999-01-01T00:00:21Z" (915148821) 0x923-0x92b (8)
0x920|                                 00 00 00 16   |           .... |        corr: 22 0x92b-0x92f (4)
     |                                               |                |      [22]{}: leap_second_record 0x92f-0x93b (12)
0x920|                                             00|               .|        occur: "2006-01-01T00:00:22Z" (1136073622) 0x92f-0x937 (8)
0x930|00 00 00 43 b7 1b 96                           |...C...         |
0x930|                     00 00 00 17               |       ....     |        corr: 23 0x937-0x93b (4)
     |                                               |                |      [23]{}: leap_second_record 0x93b-0x947 (12)
0x930|                                 00 00 00 00 49|           ....I|        occur: "2009-01-01T00:00:23Z" (1230768023) 0x93b-0x943 (8)
0x940|5c 07 97                                       |\..             |
0x940|         00 00 00 18                           |   ....         |        corr: 24 0x943-0x947 (4)
     |                                               |                |      [24]{}: leap_second_record 0x947-0x953 (12)
0x940|                     00 00 00 00 4f ef 93 18   |       ....O... |        occur: "2012-07-01T00:00:24Z" (1341100824) 0x947-0x94f (8)
0x940|                                             00|               .|        corr: 25 0x94f-0x953 (4)
0x950|00 00 19                                       |...             |
     |                                               |                |      [25]{}: leap_second_record 0x953-0x95f (12)
0x950|         00 00 00 00 55 93 2d 99               |   ....U.-.     |        occur: "2015-07-01T00:00:25Z" (1435708825) 0x953-0x95b (8)
0x950|                                 00 00 00 1a   |           .... |        corr: 26 0x95b-0x95f (4)
     |                                               |                |      [26]{}: leap_second_record 0x95f-0x96b (12)
0x950|                                             00|               .|        occur: "2017-01-01T00:00:26Z" (1483228826) 0x95f-0x967 (8)
0x960|00 00 00 58 68 46 9a                           |...XhF.         |
0x960|                     00 00 00 1b               |       ....     |        corr: 27 0x967-0x96b (4)
     |                                               |                |    standard_wall_indicators[0:8]: 0x96b-0x973 (8)
0x960|                                 00            |           .    |      [0]: 0 standard_wall_indicator (valid) 0x96b-0x96c (1)
0x960|                                    00         |            .   |      [1]: 0 standard_wall_indicator (valid) 0x96c-0x96d (1)
0x960|                                       00      |             .  |      [2]: 0 standard_wall_indicator (valid) 0x96d-0x96e (1)
0x960|                                          00   |              . |      [3]: 0 standard_wall_indicator (valid) 0x96e-0x96f (1)
0x960|                                             01|               .|      [4]: 1 standard_wall_indicator (valid) 0x96f-0x970 (1)
0x970|00                                             |.               |      [5]: 0 standard_wall_indicator (valid) 0x970-0x971 (1)
0x970|   00                                          | .              |      [6]: 0 standard_wall_indicator (valid) 0x971-0x972 (1)
0x970|      00                                       |  .             |      [7]: 0 standard_wall_indicator (valid) 0x972-0x973 (1)
     |                                               |                |    ut_local_indicators[0:8]: 0x973-0x97b (8)
0x970|         00                                    |   .            |      [0]: 0 ut_local_indicator (valid) 0x973-0x974 (1)
0x970|            00                                 |    .           |      [1]: 0 ut_local_indicator (valid) 0x974-0x975 (1)
0x970|               00                              |     .          |      [2]: 0 ut_local_indicator (valid) 0x975-0x976 (1)
0x970|                  00                           |      .         |      [3]: 0 ut_local_indicator (valid) 0x976-0x977 (1)
0x970|                     01                        |       .        |      [4]: 1 ut_local_indicator (valid) 0x977-0x978 (1)
0x970|                        00                     |        .       |      [5]: 0 ut_local_indicator (valid) 0x978-0x979 (1)
0x970|                           00                  |         .      |      [6]: 0 ut_local_indicator (valid) 0x979-0x97a (1)
0x970|                              00               |          .     |      [7]: 0 ut_local_indicator (valid) 0x97a-0x97b (1)
     |                                               |                |  footer{}: 0x97b-0x97d (2)
0x970|                                 0a            |           .    |    nl1: 10 (valid) 0x97b-0x97c (1)
     |                                               |                |    tz_string: "" 0x97c-0x97c (0)
0x970|                                    0a|        |            .|  |    nl2: 10 (valid) 0x97c-0x97d (1)
