$ fq -d tzif dv Yakutat
     |00 01 02 03 04 05 06 07 08 09 0a 0b 0c 0d 0e 0f|0123456789abcdef|.{}: Yakutat (tzif) 0x0-0x97c.7 (2429)
     |                                               |                |  v1header{}: 0x0-0x2b.7 (44)
0x000|54 5a 69 66                                    |TZif            |    magic: 0x545a6966 (valid) 0x0-0x3.7 (4)
0x000|            32                                 |    2           |    ver: "2" (0x32) (valid) 0x4-0x4.7 (1)
0x000|               00 00 00 00 00 00 00 00 00 00 00|     ...........|    reserved: raw bits 0x5-0x13.7 (15)
0x010|00 00 00 00                                    |....            |
0x010|            00 00 00 07                        |    ....        |    isutcnt: 7 0x14-0x17.7 (4)
0x010|                        00 00 00 07            |        ....    |    isstdcnt: 7 0x18-0x1b.7 (4)
0x010|                                    00 00 00 1b|            ....|    leapcnt: 27 0x1c-0x1f.7 (4)
0x020|00 00 00 73                                    |...s            |    timecnt: 115 0x20-0x23.7 (4)
0x020|            00 00 00 07                        |    ....        |    typecnt: 7 0x24-0x27.7 (4)
0x020|                        00 00 00 1e            |        ....    |    charcnt: 30 0x28-0x2b.7 (4)
     |                                               |                |  v1datablock{}: 0x2c-0x398.7 (877)
     |                                               |                |    transition_times[0:115]: 0x2c-0x1f7.7 (460)
0x020|                                    80 00 00 00|            ....|      [0]: "1901-12-13T20:45:52Z" (-2147483648) transition_time 0x2c-0x2f.7 (4)
0x030|cb 89 28 b0                                    |..(.            |      [1]: "1942-02-09T11:00:00Z" (-880203600) transition_time 0x30-0x33.7 (4)
0x030|            d2 23 f4 70                        |    .#.p        |      [2]: "1945-08-14T23:00:00Z" (-769395600) transition_time 0x34-0x37.7 (4)
0x030|                        d2 61 34 20            |        .a4     |      [3]: "1945-09-30T10:00:00Z" (-765381600) transition_time 0x38-0x3b.7 (4)
0x030|                                    fe b8 55 30|            ..U0|      [4]: "1969-04-27T11:00:00Z" (-21474000) transition_time 0x3c-0x3f.7 (4)
0x040|ff a8 38 20                                    |..8             |      [5]: "1969-10-26T10:00:00Z" (-5752800) transition_time 0x40-0x43.7 (4)
0x040|            00 98 37 30                        |    ..70        |      [6]: "1970-04-26T11:00:00Z" (9975600) transition_time 0x44-0x47.7 (4)
0x040|                        01 88 1a 20            |        ...     |      [7]: "1970-10-25T10:00:00Z" (25696800) transition_time 0x48-0x4b.7 (4)
0x040|                                    02 78 19 30|            .x.0|      [8]: "1971-04-25T11:00:00Z" (41425200) transition_time 0x4c-0x4f.7 (4)
0x050|03 71 36 a0                                    |.q6.            |      [9]: "1971-10-31T10:00:00Z" (57751200) transition_time 0x50-0x53.7 (4)
0x050|            04 61 35 b0                        |    .a5.        |      [10]: "1972-04-30T11:00:00Z" (73479600) transition_time 0x54-0x57.7 (4)
0x050|                        05 51 18 a1            |        .Q..    |      [11]: "1972-10-29T10:00:01Z" (89200801) transition_time 0x58-0x5b.7 (4)
0x050|                                    06 41 17 b2|            .A..|      [12]: "1973-04-29T11:00:02Z" (104929202) transition_time 0x5c-0x5f.7 (4)
0x060|07 30 fa a2                                    |.0..            |      [13]: "1973-10-28T10:00:02Z" (120650402) transition_time 0x60-0x63.7 (4)
0x060|            07 8d 51 b3                        |    ..Q.        |      [14]: "1974-01-06T11:00:03Z" (126702003) transition_time 0x64-0x67.7 (4)
0x060|                        09 10 dc a3            |        ....    |      [15]: "1974-10-27T10:00:03Z" (152100003) transition_time 0x68-0x6b.7 (4)
0x060|                                    09 ad cd 34|            ...4|      [16]: "1975-02-23T11:00:04Z" (162385204) transition_time 0x6c-0x6f.7 (4)
0x070|0a f0 be a4                                    |....            |      [17]: "1975-10-26T10:00:04Z" (183549604) transition_time 0x70-0x73.7 (4)
0x070|            0b e0 bd b5                        |    ....        |      [18]: "1976-04-25T11:00:05Z" (199278005) transition_time 0x74-0x77.7 (4)
0x070|                        0c d9 db 25            |        ...%    |      [19]: "1976-10-31T10:00:05Z" (215604005) transition_time 0x78-0x7b.7 (4)
0x070|                                    0d c0 9f b6|            ....|      [20]: "1977-04-24T11:00:06Z" (230727606) transition_time 0x7c-0x7f.7 (4)
0x080|0e b9 bd 26                                    |...&            |      [21]: "1977-10-30T10:00:06Z" (247053606) transition_time 0x80-0x83.7 (4)
0x080|            0f a9 bc 37                        |    ...7        |      [22]: "1978-04-30T11:00:07Z" (262782007) transition_time 0x84-0x87.7 (4)
0x080|                        10 99 9f 27            |        ...'    |      [23]: "1978-10-29T10:00:07Z" (278503207) transition_time 0x88-0x8b.7 (4)
0x080|                                    11 89 9e 38|            ...8|      [24]: "1979-04-29T11:00:08Z" (294231608) transition_time 0x8c-0x8f.7 (4)
0x090|12 79 81 28                                    |.y.(            |      [25]: "1979-10-28T10:00:08Z" (309952808) transition_time 0x90-0x93.7 (4)
0x090|            13 69 80 39                        |    .i.9        |      [26]: "1980-04-27T11:00:09Z" (325681209) transition_time 0x94-0x97.7 (4)
0x090|                        14 59 63 29            |        .Yc)    |      [27]: "1980-10-26T10:00:09Z" (341402409) transition_time 0x98-0x9b.7 (4)
0x090|                                    15 49 62 39|            .Ib9|      [28]: "1981-04-26T11:00:09Z" (357130809) transition_time 0x9c-0x9f.7 (4)
0x0a0|16 39 45 2a                                    |.9E*            |      [29]: "1981-10-25T10:00:10Z" (372852010) transition_time 0xa0-0xa3.7 (4)
0x0a0|            17 29 44 3a                        |    .)D:        |      [30]: "1982-04-25T11:00:10Z" (388580410) transition_time 0xa4-0xa7.7 (4)
0x0a0|                        18 22 61 ab            |        ."a.    |      [31]: "1982-10-31T10:00:11Z" (404906411) transition_time 0xa8-0xab.7 (4)
0x0a0|                                    19 09 26 3b|            ..&;|      [32]: "1983-04-24T11:00:11Z" (420030011) transition_time 0xac-0xaf.7 (4)
0x0b0|1a 02 43 ac                                    |..C.            |      [33]: "1983-10-30T10:00:12Z" (436356012) transition_time 0xb0-0xb3.7 (4)
0x0b0|            1a 2b 14 1c                        |    .+..        |      [34]: "1983-11-30T09:00:12Z" (439030812) transition_time 0xb4-0xb7.7 (4)
0x0b0|                        1a f2 42 bc            |        ..B.    |      [35]: "1984-04-29T11:00:12Z" (452084412) transition_time 0xb8-0xbb.7 (4)
0x0b0|                                    1b e2 25 ac|            ..%.|      [36]: "1984-10-28T10:00:12Z" (467805612) transition_time 0xbc-0xbf.7 (4)
0x0c0|1c d2 24 bc                                    |..$.            |      [37]: "1985-04-28T11:00:12Z" (483534012) transition_time 0xc0-0xc3.7 (4)
0x0c0|            1d c2 07 ad                        |    ....        |      [38]: "1985-10-27T10:00:13Z" (499255213) transition_time 0xc4-0xc7.7 (4)
0x0c0|                        1e b2 06 bd            |        ....    |      [39]: "1986-04-27T11:00:13Z" (514983613) transition_time 0xc8-0xcb.7 (4)
0x0c0|                                    1f a1 e9 ad|            ....|      [40]: "1986-10-26T10:00:13Z" (530704813) transition_time 0xcc-0xcf.7 (4)
0x0d0|20 76 39 3d                                    | v9=            |      [41]: "1987-04-05T11:00:13Z" (544618813) transition_time 0xd0-0xd3.7 (4)
0x0d0|            21 81 cb ad                        |    !...        |      [42]: "1987-10-25T10:00:13Z" (562154413) transition_time 0xd4-0xd7.7 (4)
0x0d0|                        22 56 1b 3e            |        "V.>    |      [43]: "1988-04-03T11:00:14Z" (576068414) transition_time 0xd8-0xdb.7 (4)
0x0d0|                                    23 6a e8 2e|            #j..|      [44]: "1988-10-30T10:00:14Z" (594208814) transition_time 0xdc-0xdf.7 (4)
0x0e0|24 35 fd 3e                                    |$5.>            |      [45]: "1989-04-02T11:00:14Z" (607518014) transition_time 0xe0-0xe3.7 (4)
0x0e0|            25 4a ca 2e                        |    %J..        |      [46]: "1989-10-29T10:00:14Z" (625658414) transition_time 0xe4-0xe7.7 (4)
0x0e0|                        26 15 df 3f            |        &..?    |      [47]: "1990-04-01T11:00:15Z" (638967615) transition_time 0xe8-0xeb.7 (4)
0x0e0|                                    27 2a ac 2f|            '*./|      [48]: "1990-10-28T10:00:15Z" (657108015) transition_time 0xec-0xef.7 (4)
0x0f0|27 fe fb c0                                    |'...            |      [49]: "1991-04-07T11:00:16Z" (671022016) transition_time 0xf0-0xf3.7 (4)
0x0f0|            29 0a 8e 30                        |    )..0        |      [50]: "1991-10-27T10:00:16Z" (688557616) transition_time 0xf4-0xf7.7 (4)
0x0f0|                        29 de dd c0            |        )...    |      [51]: "1992-04-05T11:00:16Z" (702471616) transition_time 0xf8-0xfb.7 (4)
0x0f0|                                    2a ea 70 31|            *.p1|      [52]: "1992-10-25T10:00:17Z" (720007217) transition_time 0xfc-0xff.7 (4)
0x100|2b be bf c1                                    |+...            |      [53]: "1993-04-04T11:00:17Z" (733921217) transition_time 0x100-0x103.7 (4)
0x100|            2c d3 8c b2                        |    ,...        |      [54]: "1993-10-31T10:00:18Z" (752061618) transition_time 0x104-0x107.7 (4)
0x100|                        2d 9e a1 c2            |        -...    |      [55]: "1994-04-03T11:00:18Z" (765370818) transition_time 0x108-0x10b.7 (4)
0x100|                                    2e b3 6e b3|            ..n.|      [56]: "1994-10-30T10:00:19Z" (783511219) transition_time 0x10c-0x10f.7 (4)
0x110|2f 7e 83 c3                                    |/~..            |      [57]: "1995-04-02T11:00:19Z" (796820419) transition_time 0x110-0x113.7 (4)
0x110|            30 93 50 b3                        |    0.P.        |      [58]: "1995-10-29T10:00:19Z" (814960819) transition_time 0x114-0x117.7 (4)
0x110|                        31 67 a0 44            |        1g.D    |      [59]: "1996-04-07T11:00:20Z" (828874820) transition_time 0x118-0x11b.7 (4)
0x110|                                    32 73 32 b4|            2s2.|      [60]: "1996-10-27T10:00:20Z" (846410420) transition_time 0x11c-0x11f.7 (4)
0x120|33 47 82 44                                    |3G.D            |      [61]: "1997-04-06T11:00:20Z" (860324420) transition_time 0x120-0x123.7 (4)
0x120|            34 53 14 b5                        |    4S..        |      [62]: "1997-10-26T10:00:21Z" (877860021) transition_time 0x124-0x127.7 (4)
0x120|                        35 27 64 45            |        5'dE    |      [63]: "1998-04-05T11:00:21Z" (891774021) transition_time 0x128-0x12b.7 (4)
0x120|                                    36 32 f6 b5|            62..|      [64]: "1998-10-25T10:00:21Z" (909309621) transition_time 0x12c-0x12f.7 (4)
0x130|37 07 46 46                                    |7.FF            |      [65]: "1999-04-04T11:00:22Z" (923223622) transition_time 0x130-0x133.7 (4)
0x130|            38 1c 13 36                        |    8..6        |      [66]: "1999-10-31T10:00:22Z" (941364022) transition_time 0x134-0x137.7 (4)
0x130|                        38 e7 28 46            |        8.(F    |      [67]: "2000-04-02T11:00:22Z" (954673222) transition_time 0x138-0x13b.7 (4)
0x130|                                    39 fb f5 36|            9..6|      [68]: "2000-10-29T10:00:22Z" (972813622) transition_time 0x13c-0x13f.7 (4)
0x140|3a c7 0a 46                                    |:..F            |      [69]: "2001-04-01T11:00:22Z" (986122822) transition_time 0x140-0x143.7 (4)
0x140|            3b db d7 36                        |    ;..6        |      [70]: "2001-10-28T10:00:22Z" (1004263222) transition_time 0x144-0x147.7 (4)
0x140|                        3c b0 26 c6            |        <.&.    |      [71]: "2002-04-07T11:00:22Z" (1018177222) transition_time 0x148-0x14b.7 (4)
0x140|                                    3d bb b9 36|            =..6|      [72]: "2002-10-27T10:00:22Z" (1035712822) transition_time 0x14c-0x14f.7 (4)
0x150|3e 90 08 c6                                    |>...            |      [73]: "2003-04-06T11:00:22Z" (1049626822) transition_time 0x150-0x153.7 (4)
0x150|            3f 9b 9b 36                        |    ?..6        |      [74]: "2003-10-26T10:00:22Z" (1067162422) transition_time 0x154-0x157.7 (4)
0x150|                        40 6f ea c6            |        @o..    |      [75]: "2004-04-04T11:00:22Z" (1081076422) transition_time 0x158-0x15b.7 (4)
0x150|                                    41 84 b7 b6|            A...|      [76]: "2004-10-31T10:00:22Z" (1099216822) transition_time 0x15c-0x15f.7 (4)
0x160|42 4f cc c6                                    |BO..            |      [77]: "2005-04-03T11:00:22Z" (1112526022) transition_time 0x160-0x163.7 (4)
0x160|            43 64 99 b6                        |    Cd..        |      [78]: "2005-10-30T10:00:22Z" (1130666422) transition_time 0x164-0x167.7 (4)
0x160|                        44 2f ae c7            |        D/..    |      [79]: "2006-04-02T11:00:23Z" (1143975623) transition_time 0x168-0x16b.7 (4)
0x160|                                    45 44 7b b7|            ED{.|      [80]: "2006-10-29T10:00:23Z" (1162116023) transition_time 0x16c-0x16f.7 (4)
0x170|45 f3 e1 47                                    |E..G            |      [81]: "2007-03-11T11:00:23Z" (1173610823) transition_time 0x170-0x173.7 (4)
0x170|            47 2d 98 37                        |    G-.7        |      [82]: "2007-11-04T10:00:23Z" (1194170423) transition_time 0x174-0x177.7 (4)
0x170|                        47 d3 c3 47            |        G..G    |      [83]: "2008-03-09T11:00:23Z" (1205060423) transition_time 0x178-0x17b.7 (4)
0x170|                                    49 0d 7a 37|            I.z7|      [84]: "2008-11-02T10:00:23Z" (1225620023) transition_time 0x17c-0x17f.7 (4)
0x180|49 b3 a5 48                                    |I..H            |      [85]: "2009-03-08T11:00:24Z" (1236510024) transition_time 0x180-0x183.7 (4)
0x180|            4a ed 5c 38                        |    J.\8        |      [86]: "2009-11-01T10:00:24Z" (1257069624) transition_time 0x184-0x187.7 (4)
0x180|                        4b 9c c1 c8            |        K...    |      [87]: "2010-03-14T11:00:24Z" (1268564424) transition_time 0x188-0x18b.7 (4)
0x180|                                    4c d6 78 b8|            L.x.|      [88]: "2010-11-07T10:00:24Z" (1289124024) transition_time 0x18c-0x18f.7 (4)
0x190|4d 7c a3 c8                                    |M|..            |      [89]: "2011-03-13T11:00:24Z" (1300014024) transition_time 0x190-0x193.7 (4)
0x190|            4e b6 5a b8                        |    N.Z.        |      [90]: "2011-11-06T10:00:24Z" (1320573624) transition_time 0x194-0x197.7 (4)
0x190|                        4f 5c 85 c8            |        O\..    |      [91]: "2012-03-11T11:00:24Z" (1331463624) transition_time 0x198-0x19b.7 (4)
0x190|                                    50 96 3c b9|            P.<.|      [92]: "2012-11-04T10:00:25Z" (1352023225) transition_time 0x19c-0x19f.7 (4)
0x1a0|51 3c 67 c9                                    |Q<g.            |      [93]: "2013-03-10T11:00:25Z" (1362913225) transition_time 0x1a0-0x1a3.7 (4)
0x1a0|            52 76 1e b9                        |    Rv..        |      [94]: "2013-11-03T10:00:25Z" (1383472825) transition_time 0x1a4-0x1a7.7 (4)
0x1a0|                        53 1c 49 c9            |        S.I.    |      [95]: "2014-03-09T11:00:25Z" (1394362825) transition_time 0x1a8-0x1ab.7 (4)
0x1a0|                                    54 56 00 b9|            TV..|      [96]: "2014-11-02T10:00:25Z" (1414922425) transition_time 0x1ac-0x1af.7 (4)
0x1b0|54 fc 2b c9                                    |T.+.            |      [97]: "2015-03-08T11:00:25Z" (1425812425) transition_time 0x1b0-0x1b3.7 (4)
0x1b0|            56 35 e2 ba                        |    V5..        |      [98]: "2015-11-01T10:00:26Z" (1446372026) transition_time 0x1b4-0x1b7.7 (4)
0x1b0|                        56 e5 48 4a            |        V.HJ    |      [99]: "2016-03-13T11:00:26Z" (1457866826) transition_time 0x1b8-0x1bb.7 (4)
0x1b0|                                    58 1e ff 3a|            X..:|      [100]: "2016-11-06T10:00:26Z" (1478426426) transition_time 0x1bc-0x1bf.7 (4)
0x1c0|58 c5 2a 4b                                    |X.*K            |      [101]: "2017-03-12T11:00:27Z" (1489316427) transition_time 0x1c0-0x1c3.7 (4)
0x1c0|            59 fe e1 3b                        |    Y..;        |      [102]: "2017-11-05T10:00:27Z" (1509876027) transition_time 0x1c4-0x1c7.7 (4)
0x1c0|                        5a a5 0c 4b            |        Z..K    |      [103]: "2018-03-11T11:00:27Z" (1520766027) transition_time 0x1c8-0x1cb.7 (4)
0x1c0|                                    5b de c3 3b|            [..;|      [104]: "2018-11-04T10:00:27Z" (1541325627) transition_time 0x1cc-0x1cf.7 (4)
0x1d0|5c 84 ee 4b                                    |\..K            |      [105]: "2019-03-10T11:00:27Z" (1552215627) transition_time 0x1d0-0x1d3.7 (4)
0x1d0|            5d be a5 3b                        |    ]..;        |      [106]: "2019-11-03T10:00:27Z" (1572775227) transition_time 0x1d4-0x1d7.7 (4)
0x1d0|                        5e 64 d0 4b            |        ^d.K    |      [107]: "2020-03-08T11:00:27Z" (1583665227) transition_time 0x1d8-0x1db.7 (4)
0x1d0|                                    5f 9e 87 3b|            _..;|      [108]: "2020-11-01T10:00:27Z" (1604224827) transition_time 0x1dc-0x1df.7 (4)
0x1e0|60 4d ec cb                                    |`M..            |      [109]: "2021-03-14T11:00:27Z" (1615719627) transition_time 0x1e0-0x1e3.7 (4)
0x1e0|            61 87 a3 bb                        |    a...        |      [110]: "2021-11-07T10:00:27Z" (1636279227) transition_time 0x1e4-0x1e7.7 (4)
0x1e0|                        62 2d ce cb            |        b-..    |      [111]: "2022-03-13T11:00:27Z" (1647169227) transition_time 0x1e8-0x1eb.7 (4)
0x1e0|                                    63 67 85 bb|            cg..|      [112]: "2022-11-06T10:00:27Z" (1667728827) transition_time 0x1ec-0x1ef.7 (4)
0x1f0|64 0d b0 cb                                    |d...            |      [113]: "2023-03-12T11:00:27Z" (1678618827) transition_time 0x1f0-0x1f3.7 (4)
0x1f0|            64 9b 78 1b                        |    d.x.        |      [114]: "2023-06-28T00:00:27Z" (1687910427) transition_time 0x1f4-0x1f7.7 (4)
     |                                               |                |    transition_types[0:115]: 0x1f8-0x26a.7 (115)
0x1f0|                        01                     |        .       |      [0]: 1 transition_type 0x1f8-0x1f8.7 (1)
0x1f0|                           02                  |         .      |      [1]: 2 transition_type 0x1f9-0x1f9.7 (1)
0x1f0|                              03               |          .     |      [2]: 3 transition_type 0x1fa-0x1fa.7 (1)
0x1f0|                                 01            |           .    |      [3]: 1 transition_type 0x1fb-0x1fb.7 (1)
0x1f0|                                    04         |            .   |      [4]: 4 transition_type 0x1fc-0x1fc.7 (1)
0x1f0|                                       01      |             .  |      [5]: 1 transition_type 0x1fd-0x1fd.7 (1)
0x1f0|                                          04   |              . |      [6]: 4 transition_type 0x1fe-0x1fe.7 (1)
0x1f0|                                             01|               .|      [7]: 1 transition_type 0x1ff-0x1ff.7 (1)
0x200|04                                             |.               |      [8]: 4 transition_type 0x200-0x200.7 (1)
0x200|   01                                          | .              |      [9]: 1 transition_type 0x201-0x201.7 (1)
0x200|      04                                       |  .             |      [10]: 4 transition_type 0x202-0x202.7 (1)
0x200|         01                                    |   .            |      [11]: 1 transition_type 0x203-0x203.7 (1)
0x200|            04                                 |    .           |      [12]: 4 transition_type 0x204-0x204.7 (1)
0x200|               01                              |     .          |      [13]: 1 transition_type 0x205-0x205.7 (1)
0x200|                  04                           |      .         |      [14]: 4 transition_type 0x206-0x206.7 (1)
0x200|                     01                        |       .        |      [15]: 1 transition_type 0x207-0x207.7 (1)
0x200|                        04                     |        .       |      [16]: 4 transition_type 0x208-0x208.7 (1)
0x200|                           01                  |         .      |      [17]: 1 transition_type 0x209-0x209.7 (1)
0x200|                              04               |          .     |      [18]: 4 transition_type 0x20a-0x20a.7 (1)
0x200|                                 01            |           .    |      [19]: 1 transition_type 0x20b-0x20b.7 (1)
0x200|                                    04         |            .   |      [20]: 4 transition_type 0x20c-0x20c.7 (1)
0x200|                                       01      |             .  |      [21]: 1 transition_type 0x20d-0x20d.7 (1)
0x200|                                          04   |              . |      [22]: 4 transition_type 0x20e-0x20e.7 (1)
0x200|                                             01|               .|      [23]: 1 transition_type 0x20f-0x20f.7 (1)
0x210|04                                             |.               |      [24]: 4 transition_type 0x210-0x210.7 (1)
0x210|   01                                          | .              |      [25]: 1 transition_type 0x211-0x211.7 (1)
0x210|      04                                       |  .             |      [26]: 4 transition_type 0x212-0x212.7 (1)
0x210|         01                                    |   .            |      [27]: 1 transition_type 0x213-0x213.7 (1)
0x210|            04                                 |    .           |      [28]: 4 transition_type 0x214-0x214.7 (1)
0x210|               01                              |     .          |      [29]: 1 transition_type 0x215-0x215.7 (1)
0x210|                  04                           |      .         |      [30]: 4 transition_type 0x216-0x216.7 (1)
0x210|                     01                        |       .        |      [31]: 1 transition_type 0x217-0x217.7 (1)
0x210|                        04                     |        .       |      [32]: 4 transition_type 0x218-0x218.7 (1)
0x210|                           01                  |         .      |      [33]: 1 transition_type 0x219-0x219.7 (1)
0x210|                              06               |          .     |      [34]: 6 transition_type 0x21a-0x21a.7 (1)
0x210|                                 05            |           .    |      [35]: 5 transition_type 0x21b-0x21b.7 (1)
0x210|                                    06         |            .   |      [36]: 6 transition_type 0x21c-0x21c.7 (1)
0x210|                                       05      |             .  |      [37]: 5 transition_type 0x21d-0x21d.7 (1)
0x210|                                          06   |              . |      [38]: 6 transition_type 0x21e-0x21e.7 (1)
0x210|                                             05|               .|      [39]: 5 transition_type 0x21f-0x21f.7 (1)
0x220|06                                             |.               |      [40]: 6 transition_type 0x220-0x220.7 (1)
0x220|   05                                          | .              |      [41]: 5 transition_type 0x221-0x221.7 (1)
0x220|      06                                       |  .             |      [42]: 6 transition_type 0x222-0x222.7 (1)
0x220|         05                                    |   .            |      [43]: 5 transition_type 0x223-0x223.7 (1)
0x220|            06                                 |    .           |      [44]: 6 transition_type 0x224-0x224.7 (1)
0x220|               05                              |     .          |      [45]: 5 transition_type 0x225-0x225.7 (1)
0x220|                  06                           |      .         |      [46]: 6 transition_type 0x226-0x226.7 (1)
0x220|                     05                        |       .        |      [47]: 5 transition_type 0x227-0x227.7 (1)
0x220|                        06                     |        .       |      [48]: 6 transition_type 0x228-0x228.7 (1)
0x220|                           05                  |         .      |      [49]: 5 transition_type 0x229-0x229.7 (1)
0x220|                              06               |          .     |      [50]: 6 transition_type 0x22a-0x22a.7 (1)
0x220|                                 05            |           .    |      [51]: 5 transition_type 0x22b-0x22b.7 (1)
0x220|                                    06         |            .   |      [52]: 6 transition_type 0x22c-0x22c.7 (1)
0x220|                                       05      |             .  |      [53]: 5 transition_type 0x22d-0x22d.7 (1)
0x220|                                          06   |              . |      [54]: 6 transition_type 0x22e-0x22e.7 (1)
0x220|                                             05|               .|      [55]: 5 transition_type 0x22f-0x22f.7 (1)
0x230|06                                             |.               |      [56]: 6 transition_type 0x230-0x230.7 (1)
0x230|   05                                          | .              |      [57]: 5 transition_type 0x231-0x231.7 (1)
0x230|      06                                       |  .             |      [58]: 6 transition_type 0x232-0x232.7 (1)
0x230|         05                                    |   .            |      [59]: 5 transition_type 0x233-0x233.7 (1)
0x230|            06                                 |    .           |      [60]: 6 transition_type 0x234-0x234.7 (1)
0x230|               05                              |     .          |      [61]: 5 transition_type 0x235-0x235.7 (1)
0x230|                  06                           |      .         |      [62]: 6 transition_type 0x236-0x236.7 (1)
0x230|                     05                        |       .        |      [63]: 5 transition_type 0x237-0x237.7 (1)
0x230|                        06                     |        .       |      [64]: 6 transition_type 0x238-0x238.7 (1)
0x230|                           05                  |         .      |      [65]: 5 transition_type 0x239-0x239.7 (1)
0x230|                              06               |          .     |      [66]: 6 transition_type 0x23a-0x23a.7 (1)
0x230|                                 05            |           .    |      [67]: 5 transition_type 0x23b-0x23b.7 (1)
0x230|                                    06         |            .   |      [68]: 6 transition_type 0x23c-0x23c.7 (1)
0x230|                                       05      |             .  |      [69]: 5 transition_type 0x23d-0x23d.7 (1)
0x230|                                          06   |              . |      [70]: 6 transition_type 0x23e-0x23e.7 (1)
0x230|                                             05|               .|      [71]: 5 transition_type 0x23f-0x23f.7 (1)
0x240|06                                             |.               |      [72]: 6 transition_type 0x240-0x240.7 (1)
0x240|   05                                          | .              |      [73]: 5 transition_type 0x241-0x241.7 (1)
0x240|      06                                       |  .             |      [74]: 6 transition_type 0x242-0x242.7 (1)
0x240|         05                                    |   .            |      [75]: 5 transition_type 0x243-0x243.7 (1)
0x240|            06                                 |    .           |      [76]: 6 transition_type 0x244-0x244.7 (1)
0x240|               05                              |     .          |      [77]: 5 transition_type 0x245-0x245.7 (1)
0x240|                  06                           |      .         |      [78]: 6 transition_type 0x246-0x246.7 (1)
0x240|                     05                        |       .        |      [79]: 5 transition_type 0x247-0x247.7 (1)
0x240|                        06                     |        .       |      [80]: 6 transition_type 0x248-0x248.7 (1)
0x240|                           05                  |         .      |      [81]: 5 transition_type 0x249-0x249.7 (1)
0x240|                              06               |          .     |      [82]: 6 transition_type 0x24a-0x24a.7 (1)
0x240|                                 05            |           .    |      [83]: 5 transition_type 0x24b-0x24b.7 (1)
0x240|                                    06         |            .   |      [84]: 6 transition_type 0x24c-0x24c.7 (1)
0x240|                                       05      |             .  |      [85]: 5 transition_type 0x24d-0x24d.7 (1)
0x240|                                          06   |              . |      [86]: 6 transition_type 0x24e-0x24e.7 (1)
0x240|                                             05|               .|      [87]: 5 transition_type 0x24f-0x24f.7 (1)
0x250|06                                             |.               |      [88]: 6 transition_type 0x250-0x250.7 (1)
0x250|   05                                          | .              |      [89]: 5 transition_type 0x251-0x251.7 (1)
0x250|      06                                       |  .             |      [90]: 6 transition_type 0x252-0x252.7 (1)
0x250|         05                                    |   .            |      [91]: 5 transition_type 0x253-0x253.7 (1)
0x250|            06                                 |    .           |      [92]: 6 transition_type 0x254-0x254.7 (1)
0x250|               05                              |     .          |      [93]: 5 transition_type 0x255-0x255.7 (1)
0x250|                  06                           |      .         |      [94]: 6 transition_type 0x256-0x256.7 (1)
0x250|                     05                        |       .        |      [95]: 5 transition_type 0x257-0x257.7 (1)
0x250|                        06                     |        .       |      [96]: 6 transition_type 0x258-0x258.7 (1)
0x250|                           05                  |         .      |      [97]: 5 transition_type 0x259-0x259.7 (1)
0x250|                              06               |          .     |      [98]: 6 transition_type 0x25a-0x25a.7 (1)
0x250|                                 05            |           .    |      [99]: 5 transition_type 0x25b-0x25b.7 (1)
0x250|                                    06         |            .   |      [100]: 6 transition_type 0x25c-0x25c.7 (1)
0x250|                                       05      |             .  |      [101]: 5 transition_type 0x25d-0x25d.7 (1)
0x250|                                          06   |              . |      [102]: 6 transition_type 0x25e-0x25e.7 (1)
0x250|                                             05|               .|      [103]: 5 transition_type 0x25f-0x25f.7 (1)
0x260|06                                             |.               |      [104]: 6 transition_type 0x260-0x260.7 (1)
0x260|   05                                          | .              |      [105]: 5 transition_type 0x261-0x261.7 (1)
0x260|      06                                       |  .             |      [106]: 6 transition_type 0x262-0x262.7 (1)
0x260|         05                                    |   .            |      [107]: 5 transition_type 0x263-0x263.7 (1)
0x260|            06                                 |    .           |      [108]: 6 transition_type 0x264-0x264.7 (1)
0x260|               05                              |     .          |      [109]: 5 transition_type 0x265-0x265.7 (1)
0x260|                  06                           |      .         |      [110]: 6 transition_type 0x266-0x266.7 (1)
0x260|                     05                        |       .        |      [111]: 5 transition_type 0x267-0x267.7 (1)
0x260|                        06                     |        .       |      [112]: 6 transition_type 0x268-0x268.7 (1)
0x260|                           05                  |         .      |      [113]: 5 transition_type 0x269-0x269.7 (1)
0x260|                              05               |          .     |      [114]: 5 transition_type 0x26a-0x26a.7 (1)
     |                                               |                |    local_time_type_records[0:7]: 0x26b-0x294.7 (42)
     |                                               |                |      [0]{}: local_time_type 0x26b-0x270.7 (6)
0x260|                                 00 00 ce 81   |           .... |        utoff: 52865 (valid) 0x26b-0x26e.7 (4)
0x260|                                             00|               .|        dst: 0 (valid) 0x26f-0x26f.7 (1)
0x270|00                                             |.               |        idx: 0 (valid) 0x270-0x270.7 (1)
     |                                               |                |      [1]{}: local_time_type 0x271-0x276.7 (6)
0x270|   ff ff 81 70                                 | ...p           |        utoff: -32400 (valid) 0x271-0x274.7 (4)
0x270|               00                              |     .          |        dst: 0 (valid) 0x275-0x275.7 (1)
0x270|                  04                           |      .         |        idx: 4 (valid) 0x276-0x276.7 (1)
     |                                               |                |      [2]{}: local_time_type 0x277-0x27c.7 (6)
0x270|                     ff ff 8f 80               |       ....     |        utoff: -28800 (valid) 0x277-0x27a.7 (4)
0x270|                                 01            |           .    |        dst: 1 (valid) 0x27b-0x27b.7 (1)
0x270|                                    08         |            .   |        idx: 8 (valid) 0x27c-0x27c.7 (1)
     |                                               |                |      [3]{}: local_time_type 0x27d-0x282.7 (6)
0x270|                                       ff ff 8f|             ...|        utoff: -28800 (valid) 0x27d-0x280.7 (4)
0x280|80                                             |.               |
0x280|   01                                          | .              |        dst: 1 (valid) 0x281-0x281.7 (1)
0x280|      0c                                       |  .             |        idx: 12 (valid) 0x282-0x282.7 (1)
     |                                               |                |      [4]{}: local_time_type 0x283-0x288.7 (6)
0x280|         ff ff 8f 80                           |   ....         |        utoff: -28800 (valid) 0x283-0x286.7 (4)
0x280|                     01                        |       .        |        dst: 1 (valid) 0x287-0x287.7 (1)
0x280|                        10                     |        .       |        idx: 16 (valid) 0x288-0x288.7 (1)
     |                                               |                |      [5]{}: local_time_type 0x289-0x28e.7 (6)
0x280|                           ff ff 8f 80         |         ....   |        utoff: -28800 (valid) 0x289-0x28c.7 (4)
0x280|                                       01      |             .  |        dst: 1 (valid) 0x28d-0x28d.7 (1)
0x280|                                          14   |              . |        idx: 20 (valid) 0x28e-0x28e.7 (1)
     |                                               |                |      [6]{}: local_time_type 0x28f-0x294.7 (6)
0x280|                                             ff|               .|        utoff: -32400 (valid) 0x28f-0x292.7 (4)
0x290|ff 81 70                                       |..p             |
0x290|         00                                    |   .            |        dst: 0 (valid) 0x293-0x293.7 (1)
0x290|            19                                 |    .           |        idx: 25 (valid) 0x294-0x294.7 (1)
     |                                               |                |    time_zone_designations[0:7]: 0x295-0x2b2.7 (30)
0x290|               4c 4d 54 00                     |     LMT.       |      [0]: "LMT" time_zone_designation 0x295-0x298.7 (4)
0x290|                           59 53 54 00         |         YST.   |      [1]: "YST" time_zone_designation 0x299-0x29c.7 (4)
0x290|                                       59 57 54|             YWT|      [2]: "YWT" time_zone_designation 0x29d-0x2a0.7 (4)
0x2a0|00                                             |.               |
0x2a0|   59 50 54 00                                 | YPT.           |      [3]: "YPT" time_zone_designation 0x2a1-0x2a4.7 (4)
0x2a0|               59 44 54 00                     |     YDT.       |      [4]: "YDT" time_zone_designation 0x2a5-0x2a8.7 (4)
0x2a0|                           41 4b 44 54 00      |         AKDT.  |      [5]: "AKDT" time_zone_designation 0x2a9-0x2ad.7 (5)
0x2a0|                                          41 4b|              AK|      [6]: "AKST" time_zone_designation 0x2ae-0x2b2.7 (5)
0x2b0|53 54 00                                       |ST.             |
     |                                               |                |    leap_second_records[0:27]: 0x2b3-0x38a.7 (216)
     |                                               |                |      [0]{}: leap_second_record 0x2b3-0x2ba.7 (8)
0x2b0|         04 b2 58 00                           |   ..X.         |        occur: "1972-07-01T00:00:00Z" (78796800) 0x2b3-0x2b6.7 (4)
0x2b0|                     00 00 00 01               |       ....     |        corr: 1 0x2b7-0x2ba.7 (4)
     |                                               |                |      [1]{}: leap_second_record 0x2bb-0x2c2.7 (8)
0x2b0|                                 05 a4 ec 01   |           .... |        occur: "1973-01-01T00:00:01Z" (94694401) 0x2bb-0x2be.7 (4)
0x2b0|                                             00|               .|        corr: 2 0x2bf-0x2c2.7 (4)
0x2c0|00 00 02                                       |...             |
     |                                               |                |      [2]{}: leap_second_record 0x2c3-0x2ca.7 (8)
0x2c0|         07 86 1f 82                           |   ....         |        occur: "1974-01-01T00:00:02Z" (126230402) 0x2c3-0x2c6.7 (4)
0x2c0|                     00 00 00 03               |       ....     |        corr: 3 0x2c7-0x2ca.7 (4)
     |                                               |                |      [3]{}: leap_second_record 0x2cb-0x2d2.7 (8)
0x2c0|                                 09 67 53 03   |           .gS. |        occur: "1975-01-01T00:00:03Z" (157766403) 0x2cb-0x2ce.7 (4)
0x2c0|                                             00|               .|        corr: 4 0x2cf-0x2d2.7 (4)
0x2d0|00 00 04                                       |...             |
     |                                               |                |      [4]{}: leap_second_record 0x2d3-0x2da.7 (8)
0x2d0|         0b 48 86 84                           |   .H..         |        occur: "1976-01-01T00:00:04Z" (189302404) 0x2d3-0x2d6.7 (4)
0x2d0|                     00 00 00 05               |       ....     |        corr: 5 0x2d7-0x2da.7 (4)
     |                                               |                |      [5]{}: leap_second_record 0x2db-0x2e2.7 (8)
0x2d0|                                 0d 2b 0b 85   |           .+.. |        occur: "1977-01-01T00:00:05Z" (220924805) 0x2db-0x2de.7 (4)
0x2d0|                                             00|               .|        corr: 6 0x2df-0x2e2.7 (4)
0x2e0|00 00 06                                       |...             |
     |                                               |                |      [6]{}: leap_second_record 0x2e3-0x2ea.7 (8)
0x2e0|         0f 0c 3f 06                           |   ..?.         |        occur: "1978-01-01T00:00:06Z" (252460806) 0x2e3-0x2e6.7 (4)
0x2e0|                     00 00 00 07               |       ....     |        corr: 7 0x2e7-0x2ea.7 (4)
     |                                               |                |      [7]{}: leap_second_record 0x2eb-0x2f2.7 (8)
0x2e0|                                 10 ed 72 87   |           ..r. |        occur: "1979-01-01T00:00:07Z" (283996807) 0x2eb-0x2ee.7 (4)
0x2e0|                                             00|               .|        corr: 8 0x2ef-0x2f2.7 (4)
0x2f0|00 00 08                                       |...             |
     |                                               |                |      [8]{}: leap_second_record 0x2f3-0x2fa.7 (8)
0x2f0|         12 ce a6 08                           |   ....         |        occur: "1980-01-01T00:00:08Z" (315532808) 0x2f3-0x2f6.7 (4)
0x2f0|                     00 00 00 09               |       ....     |        corr: 9 0x2f7-0x2fa.7 (4)
     |                                               |                |      [9]{}: leap_second_record 0x2fb-0x302.7 (8)
0x2f0|                                 15 9f ca 89   |           .... |        occur: "1981-07-01T00:00:09Z" (362793609) 0x2fb-0x2fe.7 (4)
0x2f0|                                             00|               .|        corr: 10 0x2ff-0x302.7 (4)
0x300|00 00 0a                                       |...             |
     |                                               |                |      [10]{}: leap_second_record 0x303-0x30a.7 (8)
0x300|         17 80 fe 0a                           |   ....         |        occur: "1982-07-01T00:00:10Z" (394329610) 0x303-0x306.7 (4)
0x300|                     00 00 00 0b               |       ....     |        corr: 11 0x307-0x30a.7 (4)
     |                                               |                |      [11]{}: leap_second_record 0x30b-0x312.7 (8)
0x300|                                 19 62 31 8b   |           .b1. |        occur: "1983-07-01T00:00:11Z" (425865611) 0x30b-0x30e.7 (4)
0x300|                                             00|               .|        corr: 12 0x30f-0x312.7 (4)
0x310|00 00 0c                                       |...             |
     |                                               |                |      [12]{}: leap_second_record 0x313-0x31a.7 (8)
0x310|         1d 25 ea 0c                           |   .%..         |        occur: "1985-07-01T00:00:12Z" (489024012) 0x313-0x316.7 (4)
0x310|                     00 00 00 0d               |       ....     |        corr: 13 0x317-0x31a.7 (4)
     |                                               |                |      [13]{}: leap_second_record 0x31b-0x322.7 (8)
0x310|                                 21 da e5 0d   |           !... |        occur: "1988-01-01T00:00:13Z" (567993613) 0x31b-0x31e.7 (4)
0x310|                                             00|               .|        corr: 14 0x31f-0x322.7 (4)
0x320|00 00 0e                                       |...             |
     |                                               |                |      [14]{}: leap_second_record 0x323-0x32a.7 (8)
0x320|         25 9e 9d 8e                           |   %...         |        occur: "1990-01-01T00:00:14Z" (631152014) 0x323-0x326.7 (4)
0x320|                     00 00 00 0f               |       ....     |        corr: 15 0x327-0x32a.7 (4)
     |                                               |                |      [15]{}: leap_second_record 0x32b-0x332.7 (8)
0x320|                                 27 7f d1 0f   |           '... |        occur: "1991-01-01T00:00:15Z" (662688015) 0x32b-0x32e.7 (4)
0x320|                                             00|               .|        corr: 16 0x32f-0x332.7 (4)
0x330|00 00 10                                       |...             |
     |                                               |                |      [16]{}: leap_second_record 0x333-0x33a.7 (8)
0x330|         2a 50 f5 90                           |   *P..         |        occur: "1992-07-01T00:00:16Z" (709948816) 0x333-0x336.7 (4)
0x330|                     00 00 00 11               |       ....     |        corr: 17 0x337-0x33a.7 (4)
     |                                               |                |      [17]{}: leap_second_record 0x33b-0x342.7 (8)
0x330|                                 2c 32 29 11   |           ,2). |        occur: "1993-07-01T00:00:17Z" (741484817) 0x33b-0x33e.7 (4)
0x330|                                             00|               .|        corr: 18 0x33f-0x342.7 (4)
0x340|00 00 12                                       |...             |
     |                                               |                |      [18]{}: leap_second_record 0x343-0x34a.7 (8)
0x340|         2e 13 5c 92                           |   ..\.         |        occur: "1994-07-01T00:00:18Z" (773020818) 0x343-0x346.7 (4)
0x340|                     00 00 00 13               |       ....     |        corr: 19 0x347-0x34a.7 (4)
     |                                               |                |      [19]{}: leap_second_record 0x34b-0x352.7 (8)
0x340|                                 30 e7 24 13   |           0.$. |        occur: "1996-01-01T00:00:19Z" (820454419) 0x34b-0x34e.7 (4)
0x340|                                             00|               .|        corr: 20 0x34f-0x352.7 (4)
0x350|00 00 14                                       |...             |
     |                                               |                |      [20]{}: leap_second_record 0x353-0x35a.7 (8)
0x350|         33 b8 48 94                           |   3.H.         |        occur: "1997-07-01T00:00:20Z" (867715220) 0x353-0x356.7 (4)
0x350|                     00 00 00 15               |       ....     |        corr: 21 0x357-0x35a.7 (4)
     |                                               |                |      [21]{}: leap_second_record 0x35b-0x362.7 (8)
0x350|                                 36 8c 10 15   |           6... |        occur: "1999-01-01T00:00:21Z" (915148821) 0x35b-0x35e.7 (4)
0x350|                                             00|               .|        corr: 22 0x35f-0x362.7 (4)
0x360|00 00 16                                       |...             |
     |                                               |                |      [22]{}: leap_second_record 0x363-0x36a.7 (8)
0x360|         43 b7 1b 96                           |   C...         |        occur: "2006-01-01T00:00:22Z" (1136073622) 0x363-0x366.7 (4)
0x360|                     00 00 00 17               |       ....     |        corr: 23 0x367-0x36a.7 (4)
     |                                               |                |      [23]{}: leap_second_record 0x36b-0x372.7 (8)
0x360|                                 49 5c 07 97   |           I\.. |        occur: "2009-01-01T00:00:23Z" (1230768023) 0x36b-0x36e.7 (4)
0x360|                                             00|               .|        corr: 24 0x36f-0x372.7 (4)
0x370|00 00 18                                       |...             |
     |                                               |                |      [24]{}: leap_second_record 0x373-0x37a.7 (8)
0x370|         4f ef 93 18                           |   O...         |        occur: "2012-07-01T00:00:24Z" (1341100824) 0x373-0x376.7 (4)
0x370|                     00 00 00 19               |       ....     |        corr: 25 0x377-0x37a.7 (4)
     |                                               |                |      [25]{}: leap_second_record 0x37b-0x382.7 (8)
0x370|                                 55 93 2d 99   |           U.-. |        occur: "2015-07-01T00:00:25Z" (1435708825) 0x37b-0x37e.7 (4)
0x370|                                             00|               .|        corr: 26 0x37f-0x382.7 (4)
0x380|00 00 1a                                       |...             |
     |                                               |                |      [26]{}: leap_second_record 0x383-0x38a.7 (8)
0x380|         58 68 46 9a                           |   XhF.         |        occur: "2017-01-01T00:00:26Z" (1483228826) 0x383-0x386.7 (4)
0x380|                     00 00 00 1b               |       ....     |        corr: 27 0x387-0x38a.7 (4)
     |                                               |                |    standard_wall_indicators[0:7]: 0x38b-0x391.7 (7)
0x380|                                 00            |           .    |      [0]: 0 standard_wall_indicator (valid) 0x38b-0x38b.7 (1)
0x380|                                    00         |            .   |      [1]: 0 standard_wall_indicator (valid) 0x38c-0x38c.7 (1)
0x380|                                       00      |             .  |      [2]: 0 standard_wall_indicator (valid) 0x38d-0x38d.7 (1)
0x380|                                          01   |              . |      [3]: 1 standard_wall_indicator (valid) 0x38e-0x38e.7 (1)
0x380|                                             00|               .|      [4]: 0 standard_wall_indicator (valid) 0x38f-0x38f.7 (1)
0x390|00                                             |.               |      [5]: 0 standard_wall_indicator (valid) 0x390-0x390.7 (1)
0x390|   00                                          | .              |      [6]: 0 standard_wall_indicator (valid) 0x391-0x391.7 (1)
     |                                               |                |    ut_local_indicators[0:7]: 0x392-0x398.7 (7)
0x390|      00                                       |  .             |      [0]: 0 ut_local_indicator (valid) 0x392-0x392.7 (1)
0x390|         00                                    |   .            |      [1]: 0 ut_local_indicator (valid) 0x393-0x393.7 (1)
0x390|            00                                 |    .           |      [2]: 0 ut_local_indicator (valid) 0x394-0x394.7 (1)
0x390|               01                              |     .          |      [3]: 1 ut_local_indicator (valid) 0x395-0x395.7 (1)
0x390|                  00                           |      .         |      [4]: 0 ut_local_indicator (valid) 0x396-0x396.7 (1)
0x390|                     00                        |       .        |      [5]: 0 ut_local_indicator (valid) 0x397-0x397.7 (1)
0x390|                        00                     |        .       |      [6]: 0 ut_local_indicator (valid) 0x398-0x398.7 (1)
     |                                               |                |  v2plusheader{}: 0x399-0x3c4.7 (44)
0x390|                           54 5a 69 66         |         TZif   |    magic: 0x545a6966 (valid) 0x399-0x39c.7 (4)
0x390|                                       32      |             2  |    ver: "2" (0x32) (valid) 0x39d-0x39d.7 (1)
0x390|                                          00 00|              ..|    reserved: raw bits 0x39e-0x3ac.7 (15)
0x3a0|00 00 00 00 00 00 00 00 00 00 00 00 00         |.............   |
0x3a0|                                       00 00 00|             ...|    isutcnt: 8 0x3ad-0x3b0.7 (4)
0x3b0|08                                             |.               |
0x3b0|   00 00 00 08                                 | ....           |    isstdcnt: 8 0x3b1-0x3b4.7 (4)
0x3b0|               00 00 00 1b                     |     ....       |    leapcnt: 27 0x3b5-0x3b8.7 (4)
0x3b0|                           00 00 00 74         |         ...t   |    timecnt: 116 0x3b9-0x3bc.7 (4)
0x3b0|                                       00 00 00|             ...|    typecnt: 8 0x3bd-0x3c0.7 (4)
0x3c0|08                                             |.               |
0x3c0|   00 00 00 1e                                 | ....           |    charcnt: 30 0x3c1-0x3c4.7 (4)
     |                                               |                |  v2plusdatablock{}: 0x3c5-0x97a.7 (1462)
     |                                               |                |    transition_times[0:116]: 0x3c5-0x764.7 (928)
0x3c0|               ff ff ff ff 3f c2 fd d1         |     ....?...   |      [0]: "1867-10-19T00:31:13Z" (-3225223727) transition_time 0x3c5-0x3cc.7 (8)
0x3c0|                                       ff ff ff|             ...|      [1]: "1900-08-20T21:18:55Z" (-2188953665) transition_time 0x3cd-0x3d4.7 (8)
0x3d0|ff 7d 87 37 bf                                 |.}.7.           |
0x3d0|               ff ff ff ff cb 89 28 b0         |     ......(.   |      [2]: "1942-02-09T11:00:00Z" (-880203600) transition_time 0x3d5-0x3dc.7 (8)
0x3d0|                                       ff ff ff|             ...|      [3]: "1945-08-14T23:00:00Z" (-769395600) transition_time 0x3dd-0x3e4.7 (8)
0x3e0|ff d2 23 f4 70                                 |..#.p           |
0x3e0|               ff ff ff ff d2 61 34 20         |     .....a4    |      [4]: "1945-09-30T10:00:00Z" (-765381600) transition_time 0x3e5-0x3ec.7 (8)
0x3e0|                                       ff ff ff|             ...|      [5]: "1969-04-27T11:00:00Z" (-21474000) transition_time 0x3ed-0x3f4.7 (8)
0x3f0|ff fe b8 55 30                                 |...U0           |
0x3f0|               ff ff ff ff ff a8 38 20         |     ......8    |      [6]: "1969-10-26T10:00:00Z" (-5752800) transition_time 0x3f5-0x3fc.7 (8)
0x3f0|                                       00 00 00|             ...|      [7]: "1970-04-26T11:00:00Z" (9975600) transition_time 0x3fd-0x404.7 (8)
0x400|00 00 98 37 30                                 |...70           |
0x400|               00 00 00 00 01 88 1a 20         |     .......    |      [8]: "1970-10-25T10:00:00Z" (25696800) transition_time 0x405-0x40c.7 (8)
0x400|                                       00 00 00|             ...|      [9]: "1971-04-25T11:00:00Z" (41425200) transition_time 0x40d-0x414.7 (8)
0x410|00 02 78 19 30                                 |..x.0           |
0x410|               00 00 00 00 03 71 36 a0         |     .....q6.   |      [10]: "1971-10-31T10:00:00Z" (57751200) transition_time 0x415-0x41c.7 (8)
0x410|                                       00 00 00|             ...|      [11]: "1972-04-30T11:00:00Z" (73479600) transition_time 0x41d-0x424.7 (8)
0x420|00 04 61 35 b0                                 |..a5.           |
0x420|               00 00 00 00 05 51 18 a1         |     .....Q..   |      [12]: "1972-10-29T10:00:01Z" (89200801) transition_time 0x425-0x42c.7 (8)
0x420|                                       00 00 00|             ...|      [13]: "1973-04-29T11:00:02Z" (104929202) transition_time 0x42d-0x434.7 (8)
0x430|00 06 41 17 b2                                 |..A..           |
0x430|               00 00 00 00 07 30 fa a2         |     .....0..   |      [14]: "1973-10-28T10:00:02Z" (120650402) transition_time 0x435-0x43c.7 (8)
0x430|                                       00 00 00|             ...|      [15]: "1974-01-06T11:00:03Z" (126702003) transition_time 0x43d-0x444.7 (8)
0x440|00 07 8d 51 b3                                 |...Q.           |
0x440|               00 00 00 00 09 10 dc a3         |     ........   |      [16]: "1974-10-27T10:00:03Z" (152100003) transition_time 0x445-0x44c.7 (8)
0x440|                                       00 00 00|             ...|      [17]: "1975-02-23T11:00:04Z" (162385204) transition_time 0x44d-0x454.7 (8)
0x450|00 09 ad cd 34                                 |....4           |
0x450|               00 00 00 00 0a f0 be a4         |     ........   |      [18]: "1975-10-26T10:00:04Z" (183549604) transition_time 0x455-0x45c.7 (8)
0x450|                                       00 00 00|             ...|      [19]: "1976-04-25T11:00:05Z" (199278005) transition_time 0x45d-0x464.7 (8)
0x460|00 0b e0 bd b5                                 |.....           |
0x460|               00 00 00 00 0c d9 db 25         |     .......%   |      [20]: "1976-10-31T10:00:05Z" (215604005) transition_time 0x465-0x46c.7 (8)
0x460|                                       00 00 00|             ...|      [21]: "1977-04-24T11:00:06Z" (230727606) transition_time 0x46d-0x474.7 (8)
0x470|00 0d c0 9f b6                                 |.....           |
0x470|               00 00 00 00 0e b9 bd 26         |     .......&   |      [22]: "1977-10-30T10:00:06Z" (247053606) transition_time 0x475-0x47c.7 (8)
0x470|                                       00 00 00|             ...|      [23]: "1978-04-30T11:00:07Z" (262782007) transition_time 0x47d-0x484.7 (8)
0x480|00 0f a9 bc 37                                 |....7           |
0x480|               00 00 00 00 10 99 9f 27         |     .......'   |      [24]: "1978-10-29T10:00:07Z" (278503207) transition_time 0x485-0x48c.7 (8)
0x480|                                       00 00 00|             ...|      [25]: "1979-04-29T11:00:08Z" (294231608) transition_time 0x48d-0x494.7 (8)
0x490|00 11 89 9e 38                                 |....8           |
0x490|               00 00 00 00 12 79 81 28         |     .....y.(   |      [26]: "1979-10-28T10:00:08Z" (309952808) transition_time 0x495-0x49c.7 (8)
0x490|                                       00 00 00|             ...|      [27]: "1980-04-27T11:00:09Z" (325681209) transition_time 0x49d-0x4a4.7 (8)
0x4a0|00 13 69 80 39                                 |..i.9           |
0x4a0|               00 00 00 00 14 59 63 29         |     .....Yc)   |      [28]: "1980-10-26T10:00:09Z" (341402409) transition_time 0x4a5-0x4ac.7 (8)
0x4a0|                                       00 00 00|             ...|      [29]: "1981-04-26T11:00:09Z" (357130809) transition_time 0x4ad-0x4b4.7 (8)
0x4b0|00 15 49 62 39                                 |..Ib9           |
0x4b0|               00 00 00 00 16 39 45 2a         |     .....9E*   |      [30]: "1981-10-25T10:00:10Z" (372852010) transition_time 0x4b5-0x4bc.7 (8)
0x4b0|                                       00 00 00|             ...|      [31]: "1982-04-25T11:00:10Z" (388580410) transition_time 0x4bd-0x4c4.7 (8)
0x4c0|00 17 29 44 3a                                 |..)D:           |
0x4c0|               00 00 00 00 18 22 61 ab         |     ....."a.   |      [32]: "1982-10-31T10:00:11Z" (404906411) transition_time 0x4c5-0x4cc.7 (8)
0x4c0|                                       00 00 00|             ...|      [33]: "1983-04-24T11:00:11Z" (420030011) transition_time 0x4cd-0x4d4.7 (8)
0x4d0|00 19 09 26 3b                                 |...&;           |
0x4d0|               00 00 00 00 1a 02 43 ac         |     ......C.   |      [34]: "1983-10-30T10:00:12Z" (436356012) transition_time 0x4d5-0x4dc.7 (8)
0x4d0|                                       00 00 00|             ...|      [35]: "1983-11-30T09:00:12Z" (439030812) transition_time 0x4dd-0x4e4.7 (8)
0x4e0|00 1a 2b 14 1c                                 |..+..           |
0x4e0|               00 00 00 00 1a f2 42 bc         |     ......B.   |      [36]: "1984-04-29T11:00:12Z" (452084412) transition_time 0x4e5-0x4ec.7 (8)
0x4e0|                                       00 00 00|             ...|      [37]: "1984-10-28T10:00:12Z" (467805612) transition_time 0x4ed-0x4f4.7 (8)
0x4f0|00 1b e2 25 ac                                 |...%.           |
0x4f0|               00 00 00 00 1c d2 24 bc         |     ......$.   |      [38]: "1985-04-28T11:00:12Z" (483534012) transition_time 0x4f5-0x4fc.7 (8)
0x4f0|                                       00 00 00|             ...|      [39]: "1985-10-27T10:00:13Z" (499255213) transition_time 0x4fd-0x504.7 (8)
0x500|00 1d c2 07 ad                                 |.....           |
0x500|               00 00 00 00 1e b2 06 bd         |     ........   |      [40]: "1986-04-27T11:00:13Z" (514983613) transition_time 0x505-0x50c.7 (8)
0x500|                                       00 00 00|             ...|      [41]: "1986-10-26T10:00:13Z" (530704813) transition_time 0x50d-0x514.7 (8)
0x510|00 1f a1 e9 ad                                 |.....           |
0x510|               00 00 00 00 20 76 39 3d         |     .... v9=   |      [42]: "1987-04-05T11:00:13Z" (544618813) transition_time 0x515-0x51c.7 (8)
0x510|                                       00 00 00|             ...|      [43]: "1987-10-25T10:00:13Z" (562154413) transition_time 0x51d-0x524.7 (8)
0x520|00 21 81 cb ad                                 |.!...           |
0x520|               00 00 00 00 22 56 1b 3e         |     ...."V.>   |      [44]: "1988-04-03T11:00:14Z" (576068414) transition_time 0x525-0x52c.7 (8)
0x520|                                       00 00 00|             ...|      [45]: "1988-10-30T10:00:14Z" (594208814) transition_time 0x52d-0x534.7 (8)
0x530|00 23 6a e8 2e                                 |.#j..           |
0x530|               00 00 00 00 24 35 fd 3e         |     ....$5.>   |      [46]: "1989-04-02T11:00:14Z" (607518014) transition_time 0x535-0x53c.7 (8)
0x530|                                       00 00 00|             ...|      [47]: "1989-10-29T10:00:14Z" (625658414) transition_time 0x53d-0x544.7 (8)
0x540|00 25 4a ca 2e                                 |.%J..           |
0x540|               00 00 00 00 26 15 df 3f         |     ....&..?   |      [48]: "1990-04-01T11:00:15Z" (638967615) transition_time 0x545-0x54c.7 (8)
0x540|                                       00 00 00|             ...|      [49]: "1990-10-28T10:00:15Z" (657108015) transition_time 0x54d-0x554.7 (8)
0x550|00 27 2a ac 2f                                 |.'*./           |
0x550|               00 00 00 00 27 fe fb c0         |     ....'...   |      [50]: "1991-04-07T11:00:16Z" (671022016) transition_time 0x555-0x55c.7 (8)
0x550|                                       00 00 00|             ...|      [51]: "1991-10-27T10:00:16Z" (688557616) transition_time 0x55d-0x564.7 (8)
0x560|00 29 0a 8e 30                                 |.)..0           |
0x560|               00 00 00 00 29 de dd c0         |     ....)...   |      [52]: "1992-04-05T11:00:16Z" (702471616) transition_time 0x565-0x56c.7 (8)
0x560|                                       00 00 00|             ...|      [53]: "1992-10-25T10:00:17Z" (720007217) transition_time 0x56d-0x574.7 (8)
0x570|00 2a ea 70 31                                 |.*.p1           |
0x570|               00 00 00 00 2b be bf c1         |     ....+...   |      [54]: "1993-04-04T11:00:17Z" (733921217) transition_time 0x575-0x57c.7 (8)
0x570|                                       00 00 00|             ...|      [55]: "1993-10-31T10:00:18Z" (752061618) transition_time 0x57d-0x584.7 (8)
0x580|00 2c d3 8c b2                                 |.,...           |
0x580|               00 00 00 00 2d 9e a1 c2         |     ....-...   |      [56]: "1994-04-03T11:00:18Z" (765370818) transition_time 0x585-0x58c.7 (8)
0x580|                                       00 00 00|             ...|      [57]: "1994-10-30T10:00:19Z" (783511219) transition_time 0x58d-0x594.7 (8)
0x590|00 2e b3 6e b3                                 |...n.           |
0x590|               00 00 00 00 2f 7e 83 c3         |     ..../~..   |      [58]: "1995-04-02T11:00:19Z" (796820419) transition_time 0x595-0x59c.7 (8)
0x590|                                       00 00 00|             ...|      [59]: "1995-10-29T10:00:19Z" (814960819) transition_time 0x59d-0x5a4.7 (8)
0x5a0|00 30 93 50 b3                                 |.0.P.           |
0x5a0|               00 00 00 00 31 67 a0 44         |     ....1g.D   |      [60]: "1996-04-07T11:00:20Z" (828874820) transition_time 0x5a5-0x5ac.7 (8)
0x5a0|                                       00 00 00|             ...|      [61]: "1996-10-27T10:00:20Z" (846410420) transition_time 0x5ad-0x5b4.7 (8)
0x5b0|00 32 73 32 b4                                 |.2s2.           |
0x5b0|               00 00 00 00 33 47 82 44         |     ....3G.D   |      [62]: "1997-04-06T11:00:20Z" (860324420) transition_time 0x5b5-0x5bc.7 (8)
0x5b0|                                       00 00 00|             ...|      [63]: "1997-10-26T10:00:21Z" (877860021) transition_time 0x5bd-0x5c4.7 (8)
0x5c0|00 34 53 14 b5                                 |.4S..           |
0x5c0|               00 00 00 00 35 27 64 45         |     ....5'dE   |      [64]: "1998-04-05T11:00:21Z" (891774021) transition_time 0x5c5-0x5cc.7 (8)
0x5c0|                                       00 00 00|             ...|      [65]: "1998-10-25T10:00:21Z" (909309621) transition_time 0x5cd-0x5d4.7 (8)
0x5d0|00 36 32 f6 b5                                 |.62..           |
0x5d0|               00 00 00 00 37 07 46 46         |     ....7.FF   |      [66]: "1999-04-04T11:00:22Z" (923223622) transition_time 0x5d5-0x5dc.7 (8)
0x5d0|                                       00 00 00|             ...|      [67]: "1999-10-31T10:00:22Z" (941364022) transition_time 0x5dd-0x5e4.7 (8)
0x5e0|00 38 1c 13 36                                 |.8..6           |
0x5e0|               00 00 00 00 38 e7 28 46         |     ....8.(F   |      [68]: "2000-04-02T11:00:22Z" (954673222) transition_time 0x5e5-0x5ec.7 (8)
0x5e0|                                       00 00 00|             ...|      [69]: "2000-10-29T10:00:22Z" (972813622) transition_time 0x5ed-0x5f4.7 (8)
0x5f0|00 39 fb f5 36                                 |.9..6           |
0x5f0|               00 00 00 00 3a c7 0a 46         |     ....:..F   |      [70]: "2001-04-01T11:00:22Z" (986122822) transition_time 0x5f5-0x5fc.7 (8)
0x5f0|                                       00 00 00|             ...|      [71]: "2001-10-28T10:00:22Z" (1004263222) transition_time 0x5fd-0x604.7 (8)
0x600|00 3b db d7 36                                 |.;..6           |
0x600|               00 00 00 00 3c b0 26 c6         |     ....<.&.   |      [72]: "2002-04-07T11:00:22Z" (1018177222) transition_time 0x605-0x60c.7 (8)
0x600|                                       00 00 00|             ...|      [73]: "2002-10-27T10:00:22Z" (1035712822) transition_time 0x60d-0x614.7 (8)
0x610|00 3d bb b9 36                                 |.=..6           |
0x610|               00 00 00 00 3e 90 08 c6         |     ....>...   |      [74]: "2003-04-06T11:00:22Z" (1049626822) transition_time 0x615-0x61c.7 (8)
0x610|                                       00 00 00|             ...|      [75]: "2003-10-26T10:00:22Z" (1067162422) transition_time 0x61d-0x624.7 (8)
0x620|00 3f 9b 9b 36                                 |.?..6           |
0x620|               00 00 00 00 40 6f ea c6         |     ....@o..   |      [76]: "2004-04-04T11:00:22Z" (1081076422) transition_time 0x625-0x62c.7 (8)
0x620|                                       00 00 00|             ...|      [77]: "2004-10-31T10:00:22Z" (1099216822) transition_time 0x62d-0x634.7 (8)
0x630|00 41 84 b7 b6                                 |.A...           |
0x630|               00 00 00 00 42 4f cc c6         |     ....BO..   |      [78]: "2005-04-03T11:00:22Z" (1112526022) transition_time 0x635-0x63c.7 (8)
0x630|                                       00 00 00|             ...|      [79]: "2005-10-30T10:00:22Z" (1130666422) transition_time 0x63d-0x644.7 (8)
0x640|00 43 64 99 b6                                 |.Cd..           |
0x640|               00 00 00 00 44 2f ae c7         |     ....D/..   |      [80]: "2006-04-02T11:00:23Z" (1143975623) transition_time 0x645-0x64c.7 (8)
0x640|                                       00 00 00|             ...|      [81]: "2006-10-29T10:00:23Z" (1162116023) transition_time 0x64d-0x654.7 (8)
0x650|00 45 44 7b b7                                 |.ED{.           |
0x650|               00 00 00 00 45 f3 e1 47         |     ....E..G   |      [82]: "2007-03-11T11:00:23Z" (1173610823) transition_time 0x655-0x65c.7 (8)
0x650|                                       00 00 00|             ...|      [83]: "2007-11-04T10:00:23Z" (1194170423) transition_time 0x65d-0x664.7 (8)
0x660|00 47 2d 98 37                                 |.G-.7           |
0x660|               00 00 00 00 47 d3 c3 47         |     ....G..G   |      [84]: "2008-03-09T11:00:23Z" (1205060423) transition_time 0x665-0x66c.7 (8)
0x660|                                       00 00 00|             ...|      [85]: "2008-11-02T10:00:23Z" (1225620023) transition_time 0x66d-0x674.7 (8)
0x670|00 49 0d 7a 37                                 |.I.z7           |
0x670|               00 00 00 00 49 b3 a5 48         |     ....I..H   |      [86]: "2009-03-08T11:00:24Z" (1236510024) transition_time 0x675-0x67c.7 (8)
0x670|                                       00 00 00|             ...|      [87]: "2009-11-01T10:00:24Z" (1257069624) transition_time 0x67d-0x684.7 (8)
0x680|00 4a ed 5c 38                                 |.J.\8           |
0x680|               00 00 00 00 4b 9c c1 c8         |     ....K...   |      [88]: "2010-03-14T11:00:24Z" (1268564424) transition_time 0x685-0x68c.7 (8)
0x680|                                       00 00 00|             ...|      [89]: "2010-11-07T10:00:24Z" (1289124024) transition_time 0x68d-0x694.7 (8)
0x690|00 4c d6 78 b8                                 |.L.x.           |
0x690|               00 00 00 00 4d 7c a3 c8         |     ....M|..   |      [90]: "2011-03-13T11:00:24Z" (1300014024) transition_time 0x695-0x69c.7 (8)
0x690|                                       00 00 00|             ...|      [91]: "2011-11-06T10:00:24Z" (1320573624) transition_time 0x69d-0x6a4.7 (8)
0x6a0|00 4e b6 5a b8                                 |.N.Z.           |
0x6a0|               00 00 00 00 4f 5c 85 c8         |     ....O\..   |      [92]: "2012-03-11T11:00:24Z" (1331463624) transition_time 0x6a5-0x6ac.7 (8)
0x6a0|                                       00 00 00|             ...|      [93]: "2012-11-04T10:00:25Z" (1352023225) transition_time 0x6ad-0x6b4.7 (8)
0x6b0|00 50 96 3c b9                                 |.P.<.           |
0x6b0|               00 00 00 00 51 3c 67 c9         |     ....Q<g.   |      [94]: "2013-03-10T11:00:25Z" (1362913225) transition_time 0x6b5-0x6bc.7 (8)
0x6b0|                                       00 00 00|             ...|      [95]: "2013-11-03T10:00:25Z" (1383472825) transition_time 0x6bd-0x6c4.7 (8)
0x6c0|00 52 76 1e b9                                 |.Rv..           |
0x6c0|               00 00 00 00 53 1c 49 c9         |     ....S.I.   |      [96]: "2014-03-09T11:00:25Z" (1394362825) transition_time 0x6c5-0x6cc.7 (8)
0x6c0|                                       00 00 00|             ...|      [97]: "2014-11-02T10:00:25Z" (1414922425) transition_time 0x6cd-0x6d4.7 (8)
0x6d0|00 54 56 00 b9                                 |.TV..           |
0x6d0|               00 00 00 00 54 fc 2b c9         |     ....T.+.   |      [98]: "2015-03-08T11:00:25Z" (1425812425) transition_time 0x6d5-0x6dc.7 (8)
0x6d0|                                       00 00 00|             ...|      [99]: "2015-11-01T10:00:26Z" (1446372026) transition_time 0x6dd-0x6e4.7 (8)
0x6e0|00 56 35 e2 ba                                 |.V5..           |
0x6e0|               00 00 00 00 56 e5 48 4a         |     ....V.HJ   |      [100]: "2016-03-13T11:00:26Z" (1457866826) transition_time 0x6e5-0x6ec.7 (8)
0x6e0|                                       00 00 00|             ...|      [101]: "2016-11-06T10:00:26Z" (1478426426) transition_time 0x6ed-0x6f4.7 (8)
0x6f0|00 58 1e ff 3a                                 |.X..:           |
0x6f0|               00 00 00 00 58 c5 2a 4b         |     ....X.*K   |      [102]: "2017-03-12T11:00:27Z" (1489316427) transition_time 0x6f5-0x6fc.7 (8)
0x6f0|                                       00 00 00|             ...|      [103]: "2017-11-05T10:00:27Z" (1509876027) transition_time 0x6fd-0x704.7 (8)
0x700|00 59 fe e1 3b                                 |.Y..;           |
0x700|               00 00 00 00 5a a5 0c 4b         |     ....Z..K   |      [104]: "2018-03-11T11:00:27Z" (1520766027) transition_time 0x705-0x70c.7 (8)
0x700|                                       00 00 00|             ...|      [105]: "2018-11-04T10:00:27Z" (1541325627) transition_time 0x70d-0x714.7 (8)
0x710|00 5b de c3 3b                                 |.[..;           |
0x710|               00 00 00 00 5c 84 ee 4b         |     ....\..K   |      [106]: "2019-03-10T11:00:27Z" (1552215627) transition_time 0x715-0x71c.7 (8)
0x710|                                       00 00 00|             ...|      [107]: "2019-11-03T10:00:27Z" (1572775227) transition_time 0x71d-0x724.7 (8)
0x720|00 5d be a5 3b                                 |.]..;           |
0x720|               00 00 00 00 5e 64 d0 4b         |     ....^d.K   |      [108]: "2020-03-08T11:00:27Z" (1583665227) transition_time 0x725-0x72c.7 (8)
0x720|                                       00 00 00|             ...|      [109]: "2020-11-01T10:00:27Z" (1604224827) transition_time 0x72d-0x734.7 (8)
0x730|00 5f 9e 87 3b                                 |._..;           |
0x730|               00 00 00 00 60 4d ec cb         |     ....`M..   |      [110]: "2021-03-14T11:00:27Z" (1615719627) transition_time 0x735-0x73c.7 (8)
0x730|                                       00 00 00|             ...|      [111]: "2021-11-07T10:00:27Z" (1636279227) transition_time 0x73d-0x744.7 (8)
0x740|00 61 87 a3 bb                                 |.a...           |
0x740|               00 00 00 00 62 2d ce cb         |     ....b-..   |      [112]: "2022-03-13T11:00:27Z" (1647169227) transition_time 0x745-0x74c.7 (8)
0x740|                                       00 00 00|             ...|      [113]: "2022-11-06T10:00:27Z" (1667728827) transition_time 0x74d-0x754.7 (8)
0x750|00 63 67 85 bb                                 |.cg..           |
0x750|               00 00 00 00 64 0d b0 cb         |     ....d...   |      [114]: "2023-03-12T11:00:27Z" (1678618827) transition_time 0x755-0x75c.7 (8)
0x750|                                       00 00 00|             ...|      [115]: "2023-06-28T00:00:27Z" (1687910427) transition_time 0x75d-0x764.7 (8)
0x760|00 64 9b 78 1b                                 |.d.x.           |
     |                                               |                |    transition_types[0:116]: 0x765-0x7d8.7 (116)
0x760|               01                              |     .          |      [0]: 1 transition_type 0x765-0x765.7 (1)
0x760|                  02                           |      .         |      [1]: 2 transition_type 0x766-0x766.7 (1)
0x760|                     03                        |       .        |      [2]: 3 transition_type 0x767-0x767.7 (1)
0x760|                        04                     |        .       |      [3]: 4 transition_type 0x768-0x768.7 (1)
0x760|                           02                  |         .      |      [4]: 2 transition_type 0x769-0x769.7 (1)
0x760|                              05               |          .     |      [5]: 5 transition_type 0x76a-0x76a.7 (1)
0x760|                                 02            |           .    |      [6]: 2 transition_type 0x76b-0x76b.7 (1)
0x760|                                    05         |            .   |      [7]: 5 transition_type 0x76c-0x76c.7 (1)
0x760|                                       02      |             .  |      [8]: 2 transition_type 0x76d-0x76d.7 (1)
0x760|                                          05   |              . |      [9]: 5 transition_type 0x76e-0x76e.7 (1)
0x760|                                             02|               .|      [10]: 2 transition_type 0x76f-0x76f.7 (1)
0x770|05                                             |.               |      [11]: 5 transition_type 0x770-0x770.7 (1)
0x770|   02                                          | .              |      [12]: 2 transition_type 0x771-0x771.7 (1)
0x770|      05                                       |  .             |      [13]: 5 transition_type 0x772-0x772.7 (1)
0x770|         02                                    |   .            |      [14]: 2 transition_type 0x773-0x773.7 (1)
0x770|            05                                 |    .           |      [15]: 5 transition_type 0x774-0x774.7 (1)
0x770|               02                              |     .          |      [16]: 2 transition_type 0x775-0x775.7 (1)
0x770|                  05                           |      .         |      [17]: 5 transition_type 0x776-0x776.7 (1)
0x770|                     02                        |       .        |      [18]: 2 transition_type 0x777-0x777.7 (1)
0x770|                        05                     |        .       |      [19]: 5 transition_type 0x778-0x778.7 (1)
0x770|                           02                  |         .      |      [20]: 2 transition_type 0x779-0x779.7 (1)
0x770|                              05               |          .     |      [21]: 5 transition_type 0x77a-0x77a.7 (1)
0x770|                                 02            |           .    |      [22]: 2 transition_type 0x77b-0x77b.7 (1)
0x770|                                    05         |            .   |      [23]: 5 transition_type 0x77c-0x77c.7 (1)
0x770|                                       02      |             .  |      [24]: 2 transition_type 0x77d-0x77d.7 (1)
0x770|                                          05   |              . |      [25]: 5 transition_type 0x77e-0x77e.7 (1)
0x770|                                             02|               .|      [26]: 2 transition_type 0x77f-0x77f.7 (1)
0x780|05                                             |.               |      [27]: 5 transition_type 0x780-0x780.7 (1)
0x780|   02                                          | .              |      [28]: 2 transition_type 0x781-0x781.7 (1)
0x780|      05                                       |  .             |      [29]: 5 transition_type 0x782-0x782.7 (1)
0x780|         02                                    |   .            |      [30]: 2 transition_type 0x783-0x783.7 (1)
0x780|            05                                 |    .           |      [31]: 5 transition_type 0x784-0x784.7 (1)
0x780|               02                              |     .          |      [32]: 2 transition_type 0x785-0x785.7 (1)
0x780|                  05                           |      .         |      [33]: 5 transition_type 0x786-0x786.7 (1)
0x780|                     02                        |       .        |      [34]: 2 transition_type 0x787-0x787.7 (1)
0x780|                        07                     |        .       |      [35]: 7 transition_type 0x788-0x788.7 (1)
0x780|                           06                  |         .      |      [36]: 6 transition_type 0x789-0x789.7 (1)
0x780|                              07               |          .     |      [37]: 7 transition_type 0x78a-0x78a.7 (1)
0x780|                                 06            |           .    |      [38]: 6 transition_type 0x78b-0x78b.7 (1)
0x780|                                    07         |            .   |      [39]: 7 transition_type 0x78c-0x78c.7 (1)
0x780|                                       06      |             .  |      [40]: 6 transition_type 0x78d-0x78d.7 (1)
0x780|                                          07   |              . |      [41]: 7 transition_type 0x78e-0x78e.7 (1)
0x780|                                             06|               .|      [42]: 6 transition_type 0x78f-0x78f.7 (1)
0x790|07                                             |.               |      [43]: 7 transition_type 0x790-0x790.7 (1)
0x790|   06                                          | .              |      [44]: 6 transition_type 0x791-0x791.7 (1)
0x790|      07                                       |  .             |      [45]: 7 transition_type 0x792-0x792.7 (1)
0x790|         06                                    |   .            |      [46]: 6 transition_type 0x793-0x793.7 (1)
0x790|            07                                 |    .           |      [47]: 7 transition_type 0x794-0x794.7 (1)
0x790|               06                              |     .          |      [48]: 6 transition_type 0x795-0x795.7 (1)
0x790|                  07                           |      .         |      [49]: 7 transition_type 0x796-0x796.7 (1)
0x790|                     06                        |       .        |      [50]: 6 transition_type 0x797-0x797.7 (1)
0x790|                        07                     |        .       |      [51]: 7 transition_type 0x798-0x798.7 (1)
0x790|                           06                  |         .      |      [52]: 6 transition_type 0x799-0x799.7 (1)
0x790|                              07               |          .     |      [53]: 7 transition_type 0x79a-0x79a.7 (1)
0x790|                                 06            |           .    |      [54]: 6 transition_type 0x79b-0x79b.7 (1)
0x790|                                    07         |            .   |      [55]: 7 transition_type 0x79c-0x79c.7 (1)
0x790|                                       06      |             .  |      [56]: 6 transition_type 0x79d-0x79d.7 (1)
0x790|                                          07   |              . |      [57]: 7 transition_type 0x79e-0x79e.7 (1)
0x790|                                             06|               .|      [58]: 6 transition_type 0x79f-0x79f.7 (1)
0x7a0|07                                             |.               |      [59]: 7 transition_type 0x7a0-0x7a0.7 (1)
0x7a0|   06                                          | .              |      [60]: 6 transition_type 0x7a1-0x7a1.7 (1)
0x7a0|      07                                       |  .             |      [61]: 7 transition_type 0x7a2-0x7a2.7 (1)
0x7a0|         06                                    |   .            |      [62]: 6 transition_type 0x7a3-0x7a3.7 (1)
0x7a0|            07                                 |    .           |      [63]: 7 transition_type 0x7a4-0x7a4.7 (1)
0x7a0|               06                              |     .          |      [64]: 6 transition_type 0x7a5-0x7a5.7 (1)
0x7a0|                  07                           |      .         |      [65]: 7 transition_type 0x7a6-0x7a6.7 (1)
0x7a0|                     06                        |       .        |      [66]: 6 transition_type 0x7a7-0x7a7.7 (1)
0x7a0|                        07                     |        .       |      [67]: 7 transition_type 0x7a8-0x7a8.7 (1)
0x7a0|                           06                  |         .      |      [68]: 6 transition_type 0x7a9-0x7a9.7 (1)
0x7a0|                              07               |          .     |      [69]: 7 transition_type 0x7aa-0x7aa.7 (1)
0x7a0|                                 06            |           .    |      [70]: 6 transition_type 0x7ab-0x7ab.7 (1)
0x7a0|                                    07         |            .   |      [71]: 7 transition_type 0x7ac-0x7ac.7 (1)
0x7a0|                                       06      |             .  |      [72]: 6 transition_type 0x7ad-0x7ad.7 (1)
0x7a0|                                          07   |              . |      [73]: 7 transition_type 0x7ae-0x7ae.7 (1)
0x7a0|                                             06|               .|      [74]: 6 transition_type 0x7af-0x7af.7 (1)
0x7b0|07                                             |.               |      [75]: 7 transition_type 0x7b0-0x7b0.7 (1)
0x7b0|   06                                          | .              |      [76]: 6 transition_type 0x7b1-0x7b1.7 (1)
0x7b0|      07                                       |  .             |      [77]: 7 transition_type 0x7b2-0x7b2.7 (1)
0x7b0|         06                                    |   .            |      [78]: 6 transition_type 0x7b3-0x7b3.7 (1)
0x7b0|            07                                 |    .           |      [79]: 7 transition_type 0x7b4-0x7b4.7 (1)
0x7b0|               06                              |     .          |      [80]: 6 transition_type 0x7b5-0x7b5.7 (1)
0x7b0|                  07                           |      .         |      [81]: 7 transition_type 0x7b6-0x7b6.7 (1)
0x7b0|                     06                        |       .        |      [82]: 6 transition_type 0x7b7-0x7b7.7 (1)
0x7b0|                        07                     |        .       |      [83]: 7 transition_type 0x7b8-0x7b8.7 (1)
0x7b0|                           06                  |         .      |      [84]: 6 transition_type 0x7b9-0x7b9.7 (1)
0x7b0|                              07               |          .     |      [85]: 7 transition_type 0x7ba-0x7ba.7 (1)
0x7b0|                                 06            |           .    |      [86]: 6 transition_type 0x7bb-0x7bb.7 (1)
0x7b0|                                    07         |            .   |      [87]: 7 transition_type 0x7bc-0x7bc.7 (1)
0x7b0|                                       06      |             .  |      [88]: 6 transition_type 0x7bd-0x7bd.7 (1)
0x7b0|                                          07   |              . |      [89]: 7 transition_type 0x7be-0x7be.7 (1)
0x7b0|                                             06|               .|      [90]: 6 transition_type 0x7bf-0x7bf.7 (1)
0x7c0|07                                             |.               |      [91]: 7 transition_type 0x7c0-0x7c0.7 (1)
0x7c0|   06                                          | .              |      [92]: 6 transition_type 0x7c1-0x7c1.7 (1)
0x7c0|      07                                       |  .             |      [93]: 7 transition_type 0x7c2-0x7c2.7 (1)
0x7c0|         06                                    |   .            |      [94]: 6 transition_type 0x7c3-0x7c3.7 (1)
0x7c0|            07                                 |    .           |      [95]: 7 transition_type 0x7c4-0x7c4.7 (1)
0x7c0|               06                              |     .          |      [96]: 6 transition_type 0x7c5-0x7c5.7 (1)
0x7c0|                  07                           |      .         |      [97]: 7 transition_type 0x7c6-0x7c6.7 (1)
0x7c0|                     06                        |       .        |      [98]: 6 transition_type 0x7c7-0x7c7.7 (1)
0x7c0|                        07                     |        .       |      [99]: 7 transition_type 0x7c8-0x7c8.7 (1)
0x7c0|                           06                  |         .      |      [100]: 6 transition_type 0x7c9-0x7c9.7 (1)
0x7c0|                              07               |          .     |      [101]: 7 transition_type 0x7ca-0x7ca.7 (1)
0x7c0|                                 06            |           .    |      [102]: 6 transition_type 0x7cb-0x7cb.7 (1)
0x7c0|                                    07         |            .   |      [103]: 7 transition_type 0x7cc-0x7cc.7 (1)
0x7c0|                                       06      |             .  |      [104]: 6 transition_type 0x7cd-0x7cd.7 (1)
0x7c0|                                          07   |              . |      [105]: 7 transition_type 0x7ce-0x7ce.7 (1)
0x7c0|                                             06|               .|      [106]: 6 transition_type 0x7cf-0x7cf.7 (1)
0x7d0|07                                             |.               |      [107]: 7 transition_type 0x7d0-0x7d0.7 (1)
0x7d0|   06                                          | .              |      [108]: 6 transition_type 0x7d1-0x7d1.7 (1)
0x7d0|      07                                       |  .             |      [109]: 7 transition_type 0x7d2-0x7d2.7 (1)
0x7d0|         06                                    |   .            |      [110]: 6 transition_type 0x7d3-0x7d3.7 (1)
0x7d0|            07                                 |    .           |      [111]: 7 transition_type 0x7d4-0x7d4.7 (1)
0x7d0|               06                              |     .          |      [112]: 6 transition_type 0x7d5-0x7d5.7 (1)
0x7d0|                  07                           |      .         |      [113]: 7 transition_type 0x7d6-0x7d6.7 (1)
0x7d0|                     06                        |       .        |      [114]: 6 transition_type 0x7d7-0x7d7.7 (1)
0x7d0|                        06                     |        .       |      [115]: 6 transition_type 0x7d8-0x7d8.7 (1)
     |                                               |                |    local_time_type_records[0:8]: 0x7d9-0x808.7 (48)
     |                                               |                |      [0]{}: local_time_type 0x7d9-0x7de.7 (6)
0x7d0|                           00 00 ce 81         |         ....   |        utoff: 52865 (valid) 0x7d9-0x7dc.7 (4)
0x7d0|                                       00      |             .  |        dst: 0 (valid) 0x7dd-0x7dd.7 (1)
0x7d0|                                          00   |              . |        idx: 0 (valid) 0x7de-0x7de.7 (1)
     |                                               |                |      [1]{}: local_time_type 0x7df-0x7e4.7 (6)
0x7d0|                                             ff|               .|        utoff: -33535 (valid) 0x7df-0x7e2.7 (4)
0x7e0|ff 7d 01                                       |.}.             |
0x7e0|         00                                    |   .            |        dst: 0 (valid) 0x7e3-0x7e3.7 (1)
0x7e0|            00                                 |    .           |        idx: 0 (valid) 0x7e4-0x7e4.7 (1)
     |                                               |                |      [2]{}: local_time_type 0x7e5-0x7ea.7 (6)
0x7e0|               ff ff 81 70                     |     ...p       |        utoff: -32400 (valid) 0x7e5-0x7e8.7 (4)
0x7e0|                           00                  |         .      |        dst: 0 (valid) 0x7e9-0x7e9.7 (1)
0x7e0|                              04               |          .     |        idx: 4 (valid) 0x7ea-0x7ea.7 (1)
     |                                               |                |      [3]{}: local_time_type 0x7eb-0x7f0.7 (6)
0x7e0|                                 ff ff 8f 80   |           .... |        utoff: -28800 (valid) 0x7eb-0x7ee.7 (4)
0x7e0|                                             01|               .|        dst: 1 (valid) 0x7ef-0x7ef.7 (1)
0x7f0|08                                             |.               |        idx: 8 (valid) 0x7f0-0x7f0.7 (1)
     |                                               |                |      [4]{}: local_time_type 0x7f1-0x7f6.7 (6)
0x7f0|   ff ff 8f 80                                 | ....           |        utoff: -28800 (valid) 0x7f1-0x7f4.7 (4)
0x7f0|               01                              |     .          |        dst: 1 (valid) 0x7f5-0x7f5.7 (1)
0x7f0|                  0c                           |      .         |        idx: 12 (valid) 0x7f6-0x7f6.7 (1)
     |                                               |                |      [5]{}: local_time_type 0x7f7-0x7fc.7 (6)
0x7f0|                     ff ff 8f 80               |       ....     |        utoff: -28800 (valid) 0x7f7-0x7fa.7 (4)
0x7f0|                                 01            |           .    |        dst: 1 (valid) 0x7fb-0x7fb.7 (1)
0x7f0|                                    10         |            .   |        idx: 16 (valid) 0x7fc-0x7fc.7 (1)
     |                                               |                |      [6]{}: local_time_type 0x7fd-0x802.7 (6)
0x7f0|                                       ff ff 8f|             ...|        utoff: -28800 (valid) 0x7fd-0x800.7 (4)
0x800|80                                             |.               |
0x800|   01                                          | .              |        dst: 1 (valid) 0x801-0x801.7 (1)
0x800|      14                                       |  .             |        idx: 20 (valid) 0x802-0x802.7 (1)
     |                                               |                |      [7]{}: local_time_type 0x803-0x808.7 (6)
0x800|         ff ff 81 70                           |   ...p         |        utoff: -32400 (valid) 0x803-0x806.7 (4)
0x800|                     00                        |       .        |        dst: 0 (valid) 0x807-0x807.7 (1)
0x800|                        19                     |        .       |        idx: 25 (valid) 0x808-0x808.7 (1)
     |                                               |                |    time_zone_designations[0:7]: 0x809-0x826.7 (30)
0x800|                           4c 4d 54 00         |         LMT.   |      [0]: "LMT" time_zone_designation 0x809-0x80c.7 (4)
0x800|                                       59 53 54|             YST|      [1]: "YST" time_zone_designation 0x80d-0x810.7 (4)
0x810|00                                             |.               |
0x810|   59 57 54 00                                 | YWT.           |      [2]: "YWT" time_zone_designation 0x811-0x814.7 (4)
0x810|               59 50 54 00                     |     YPT.       |      [3]: "YPT" time_zone_designation 0x815-0x818.7 (4)
0x810|                           59 44 54 00         |         YDT.   |      [4]: "YDT" time_zone_designation 0x819-0x81c.7 (4)
0x810|                                       41 4b 44|             AKD|      [5]: "AKDT" time_zone_designation 0x81d-0x821.7 (5)
0x820|54 00                                          |T.              |
0x820|      41 4b 53 54 00                           |  AKST.         |      [6]: "AKST" time_zone_designation 0x822-0x826.7 (5)
     |                                               |                |    leap_second_records[0:27]: 0x827-0x96a.7 (324)
     |                                               |                |      [0]{}: leap_second_record 0x827-0x832.7 (12)
0x820|                     00 00 00 00 04 b2 58 00   |       ......X. |        occur: "1972-07-01T00:00:00Z" (78796800) 0x827-0x82e.7 (8)
0x820|                                             00|               .|        corr: 1 0x82f-0x832.7 (4)
0x830|00 00 01                                       |...             |
     |                                               |                |      [1]{}: leap_second_record 0x833-0x83e.7 (12)
0x830|         00 00 00 00 05 a4 ec 01               |   ........     |        occur: "1973-01-01T00:00:01Z" (94694401) 0x833-0x83a.7 (8)
0x830|                                 00 00 00 02   |           .... |        corr: 2 0x83b-0x83e.7 (4)
     |                                               |                |      [2]{}: leap_second_record 0x83f-0x84a.7 (12)
0x830|                                             00|               .|        occur: "1974-01-01T00:00:02Z" (126230402) 0x83f-0x846.7 (8)
0x840|00 00 00 07 86 1f 82                           |.......         |
0x840|                     00 00 00 03               |       ....     |        corr: 3 0x847-0x84a.7 (4)
     |                                               |                |      [3]{}: leap_second_record 0x84b-0x856.7 (12)
0x840|                                 00 00 00 00 09|           .....|        occur: "1975-01-01T00:00:03Z" (157766403) 0x84b-0x852.7 (8)
0x850|67 53 03                                       |gS.             |
0x850|         00 00 00 04                           |   ....         |        corr: 4 0x853-0x856.7 (4)
     |                                               |                |      [4]{}: leap_second_record 0x857-0x862.7 (12)
0x850|                     00 00 00 00 0b 48 86 84   |       .....H.. |        occur: "1976-01-01T00:00:04Z" (189302404) 0x857-0x85e.7 (8)
0x850|                                             00|               .|        corr: 5 0x85f-0x862.7 (4)
0x860|00 00 05                                       |...             |
     |                                               |                |      [5]{}: leap_second_record 0x863-0x86e.7 (12)
0x860|         00 00 00 00 0d 2b 0b 85               |   .....+..     |        occur: "1977-01-01T00:00:05Z" (220924805) 0x863-0x86a.7 (8)
0x860|                                 00 00 00 06   |           .... |        corr: 6 0x86b-0x86e.7 (4)
     |                                               |                |      [6]{}: leap_second_record 0x86f-0x87a.7 (12)
0x860|                                             00|               .|        occur: "1978-01-01T00:00:06Z" (252460806) 0x86f-0x876.7 (8)
0x870|00 00 00 0f 0c 3f 06                           |.....?.         |
0x870|                     00 00 00 07               |       ....     |        corr: 7 0x877-0x87a.7 (4)
     |                                               |                |      [7]{}: leap_second_record 0x87b-0x886.7 (12)
0x870|                                 00 00 00 00 10|           .....|        occur: "1979-01-01T00:00:07Z" (283996807) 0x87b-0x882.7 (8)
0x880|ed 72 87                                       |.r.             |
0x880|         00 00 00 08                           |   ....         |        corr: 8 0x883-0x886.7 (4)
     |                                               |                |      [8]{}: leap_second_record 0x887-0x892.7 (12)
0x880|                     00 00 00 00 12 ce a6 08   |       ........ |        occur: "1980-01-01T00:00:08Z" (315532808) 0x887-0x88e.7 (8)
0x880|                                             00|               .|        corr: 9 0x88f-0x892.7 (4)
0x890|00 00 09                                       |...             |
     |                                               |                |      [9]{}: leap_second_record 0x893-0x89e.7 (12)
0x890|         00 00 00 00 15 9f ca 89               |   ........     |        occur: "1981-07-01T00:00:09Z" (362793609) 0x893-0x89a.7 (8)
0x890|                                 00 00 00 0a   |           .... |        corr: 10 0x89b-0x89e.7 (4)
     |                                               |                |      [10]{}: leap_second_record 0x89f-0x8aa.7 (12)
0x890|                                             00|               .|        occur: "1982-07-01T00:00:10Z" (394329610) 0x89f-0x8a6.7 (8)
0x8a0|00 00 00 17 80 fe 0a                           |.......         |
0x8a0|                     00 00 00 0b               |       ....     |        corr: 11 0x8a7-0x8aa.7 (4)
     |                                               |                |      [11]{}: leap_second_record 0x8ab-0x8b6.7 (12)
0x8a0|                                 00 00 00 00 19|           .....|        occur: "1983-07-01T00:00:11Z" (425865611) 0x8ab-0x8b2.7 (8)
0x8b0|62 31 8b                                       |b1.             |
0x8b0|         00 00 00 0c                           |   ....         |        corr: 12 0x8b3-0x8b6.7 (4)
     |                                               |                |      [12]{}: leap_second_record 0x8b7-0x8c2.7 (12)
0x8b0|                     00 00 00 00 1d 25 ea 0c   |       .....%.. |        occur: "1985-07-01T00:00:12Z" (489024012) 0x8b7-0x8be.7 (8)
0x8b0|                                             00|               .|        corr: 13 0x8bf-0x8c2.7 (4)
0x8c0|00 00 0d                                       |...             |
     |                                               |                |      [13]{}: leap_second_record 0x8c3-0x8ce.7 (12)
0x8c0|         00 00 00 00 21 da e5 0d               |   ....!...     |        occur: "1988-01-01T00:00:13Z" (567993613) 0x8c3-0x8ca.7 (8)
0x8c0|                                 00 00 00 0e   |           .... |        corr: 14 0x8cb-0x8ce.7 (4)
     |                                               |                |      [14]{}: leap_second_record 0x8cf-0x8da.7 (12)
0x8c0|                                             00|               .|        occur: "1990-01-01T00:00:14Z" (631152014) 0x8cf-0x8d6.7 (8)
0x8d0|00 00 00 25 9e 9d 8e                           |...%...         |
0x8d0|                     00 00 00 0f               |       ....     |        corr: 15 0x8d7-0x8da.7 (4)
     |                                               |                |      [15]{}: leap_second_record 0x8db-0x8e6.7 (12)
0x8d0|                                 00 00 00 00 27|           ....'|        occur: "1991-01-01T00:00:15Z" (662688015) 0x8db-0x8e2.7 (8)
0x8e0|7f d1 0f                                       |...             |
0x8e0|         00 00 00 10                           |   ....         |        corr: 16 0x8e3-0x8e6.7 (4)
     |                                               |                |      [16]{}: leap_second_record 0x8e7-0x8f2.7 (12)
0x8e0|                     00 00 00 00 2a 50 f5 90   |       ....*P.. |        occur: "1992-07-01T00:00:16Z" (709948816) 0x8e7-0x8ee.7 (8)
0x8e0|                                             00|               .|        corr: 17 0x8ef-0x8f2.7 (4)
0x8f0|00 00 11                                       |...             |
     |                                               |                |      [17]{}: leap_second_record 0x8f3-0x8fe.7 (12)
0x8f0|         00 00 00 00 2c 32 29 11               |   ....,2).     |        occur: "1993-07-01T00:00:17Z" (741484817) 0x8f3-0x8fa.7 (8)
0x8f0|                                 00 00 00 12   |           .... |        corr: 18 0x8fb-0x8fe.7 (4)
     |                                               |                |      [18]{}: leap_second_record 0x8ff-0x90a.7 (12)
0x8f0|                                             00|               .|        occur: "1994-07-01T00:00:18Z" (773020818) 0x8ff-0x906.7 (8)
0x900|00 00 00 2e 13 5c 92                           |.....\.         |
0x900|                     00 00 00 13               |       ....     |        corr: 19 0x907-0x90a.7 (4)
     |                                               |                |      [19]{}: leap_second_record 0x90b-0x916.7 (12)
0x900|                                 00 00 00 00 30|           ....0|        occur: "1996-01-01T00:00:19Z" (820454419) 0x90b-0x912.7 (8)
0x910|e7 24 13                                       |.$.             |
0x910|         00 00 00 14                           |   ....         |        corr: 20 0x913-0x916.7 (4)
     |                                               |                |      [20]{}: leap_second_record 0x917-0x922.7 (12)
0x910|                     00 00 00 00 33 b8 48 94   |       ....3.H. |        occur: "1997-07-01T00:00:20Z" (867715220) 0x917-0x91e.7 (8)
0x910|                                             00|               .|        corr: 21 0x91f-0x922.7 (4)
0x920|00 00 15                                       |...             |
     |                                               |                |      [21]{}: leap_second_record 0x923-0x92e.7 (12)
0x920|         00 00 00 00 36 8c 10 15               |   ....6...     |        occur: "1999-01-01T00:00:21Z" (915148821) 0x923-0x92a.7 (8)
0x920|                                 00 00 00 16   |           .... |        corr: 22 0x92b-0x92e.7 (4)
     |                                               |                |      [22]{}: leap_second_record 0x92f-0x93a.7 (12)
0x920|                                             00|               .|        occur: "2006-01-01T00:00:22Z" (1136073622) 0x92f-0x936.7 (8)
0x930|00 00 00 43 b7 1b 96                           |...C...         |
0x930|                     00 00 00 17               |       ....     |        corr: 23 0x937-0x93a.7 (4)
     |                                               |                |      [23]{}: leap_second_record 0x93b-0x946.7 (12)
0x930|                                 00 00 00 00 49|           ....I|        occur: "2009-01-01T00:00:23Z" (1230768023) 0x93b-0x942.7 (8)
0x940|5c 07 97                                       |\..             |
0x940|         00 00 00 18                           |   ....         |        corr: 24 0x943-0x946.7 (4)
     |                                               |                |      [24]{}: leap_second_record 0x947-0x952.7 (12)
0x940|                     00 00 00 00 4f ef 93 18   |       ....O... |        occur: "2012-07-01T00:00:24Z" (1341100824) 0x947-0x94e.7 (8)
0x940|                                             00|               .|        corr: 25 0x94f-0x952.7 (4)
0x950|00 00 19                                       |...             |
     |                                               |                |      [25]{}: leap_second_record 0x953-0x95e.7 (12)
0x950|         00 00 00 00 55 93 2d 99               |   ....U.-.     |        occur: "2015-07-01T00:00:25Z" (1435708825) 0x953-0x95a.7 (8)
0x950|                                 00 00 00 1a   |           .... |        corr: 26 0x95b-0x95e.7 (4)
     |                                               |                |      [26]{}: leap_second_record 0x95f-0x96a.7 (12)
0x950|                                             00|               .|        occur: "2017-01-01T00:00:26Z" (1483228826) 0x95f-0x966.7 (8)
0x960|00 00 00 58 68 46 9a                           |...XhF.         |
0x960|                     00 00 00 1b               |       ....     |        corr: 27 0x967-0x96a.7 (4)
     |                                               |                |    standard_wall_indicators[0:8]: 0x96b-0x972.7 (8)
0x960|                                 00            |           .    |      [0]: 0 standard_wall_indicator (valid) 0x96b-0x96b.7 (1)
0x960|                                    00         |            .   |      [1]: 0 standard_wall_indicator (valid) 0x96c-0x96c.7 (1)
0x960|                                       00      |             .  |      [2]: 0 standard_wall_indicator (valid) 0x96d-0x96d.7 (1)
0x960|                                          00   |              . |      [3]: 0 standard_wall_indicator (valid) 0x96e-0x96e.7 (1)
0x960|                                             01|               .|      [4]: 1 standard_wall_indicator (valid) 0x96f-0x96f.7 (1)
0x970|00                                             |.               |      [5]: 0 standard_wall_indicator (valid) 0x970-0x970.7 (1)
0x970|   00                                          | .              |      [6]: 0 standard_wall_indicator (valid) 0x971-0x971.7 (1)
0x970|      00                                       |  .             |      [7]: 0 standard_wall_indicator (valid) 0x972-0x972.7 (1)
     |                                               |                |    ut_local_indicators[0:8]: 0x973-0x97a.7 (8)
0x970|         00                                    |   .            |      [0]: 0 ut_local_indicator (valid) 0x973-0x973.7 (1)
0x970|            00                                 |    .           |      [1]: 0 ut_local_indicator (valid) 0x974-0x974.7 (1)
0x970|               00                              |     .          |      [2]: 0 ut_local_indicator (valid) 0x975-0x975.7 (1)
0x970|                  00                           |      .         |      [3]: 0 ut_local_indicator (valid) 0x976-0x976.7 (1)
0x970|                     01                        |       .        |      [4]: 1 ut_local_indicator (valid) 0x977-0x977.7 (1)
0x970|                        00                     |        .       |      [5]: 0 ut_local_indicator (valid) 0x978-0x978.7 (1)
0x970|                           00                  |         .      |      [6]: 0 ut_local_indicator (valid) 0x979-0x979.7 (1)
0x970|                              00               |          .     |      [7]: 0 ut_local_indicator (valid) 0x97a-0x97a.7 (1)
     |                                               |                |  footer{}: 0x97b-0x97c.7 (2)
0x970|                                 0a            |           .    |    nl1: 10 (valid) 0x97b-0x97b.7 (1)
     |                                               |                |    tz_string: "" 0x97c-NA (0)
0x970|                                    0a|        |            .|  |    nl2: 10 (valid) 0x97c-0x97c.7 (1)
