$ fq -d tzif dv Yangon
     |00 01 02 03 04 05 06 07 08 09 0a 0b 0c 0d 0e 0f|0123456789abcdef|.{}: Yangon (tzif) 0x0-0x31b.7 (796)
     |                                               |                |  v1header{}: 0x0-0x2b.7 (44)
0x000|54 5a 69 66                                    |TZif            |    magic: 0x545a6966 (valid) 0x0-0x3.7 (4)
0x000|            32                                 |    2           |    ver: "2" (0x32) (valid) 0x4-0x4.7 (1)
0x000|               00 00 00 00 00 00 00 00 00 00 00|     ...........|    reserved: raw bits 0x5-0x13.7 (15)
0x010|00 00 00 00                                    |....            |
0x010|            00 00 00 00                        |    ....        |    isutcnt: 0 0x14-0x17.7 (4)
0x010|                        00 00 00 00            |        ....    |    isstdcnt: 0 0x18-0x1b.7 (4)
0x010|                                    00 00 00 1b|            ....|    leapcnt: 27 0x1c-0x1f.7 (4)
0x020|00 00 00 05                                    |....            |    timecnt: 5 0x20-0x23.7 (4)
0x020|            00 00 00 05                        |    ....        |    typecnt: 5 0x24-0x27.7 (4)
0x020|                        00 00 00 12            |        ....    |    charcnt: 18 0x28-0x2b.7 (4)
     |                                               |                |  v1datablock{}: 0x2c-0x14c.7 (289)
     |                                               |                |    transition_times[0:5]: 0x2c-0x3f.7 (20)
0x020|                                    80 00 00 00|            ....|      [0]: "1901-12-13T20:45:52Z" (-2147483648) transition_time 0x2c-0x2f.7 (4)
0x030|a1 f2 73 51                                    |..sQ            |      [1]: "1919-12-31T17:35:13Z" (-1577946287) transition_time 0x30-0x33.7 (4)
0x030|            cb f2 fc 18                        |    ....        |      [2]: "1942-04-30T17:30:00Z" (-873268200) transition_time 0x34-0x37.7 (4)
0x030|                        d1 9a 67 f0            |        ..g.    |      [3]: "1945-05-02T15:00:00Z" (-778410000) transition_time 0x38-0x3b.7 (4)
0x030|                                    64 9b 78 1b|            d.x.|      [4]: "2023-06-28T00:00:27Z" (1687910427) transition_time 0x3c-0x3f.7 (4)
     |                                               |                |    transition_types[0:5]: 0x40-0x44.7 (5)
0x040|01                                             |.               |      [0]: 1 transition_type 0x40-0x40.7 (1)
0x040|   02                                          | .              |      [1]: 2 transition_type 0x41-0x41.7 (1)
0x040|      03                                       |  .             |      [2]: 3 transition_type 0x42-0x42.7 (1)
0x040|         02                                    |   .            |      [3]: 2 transition_type 0x43-0x43.7 (1)
0x040|            02                                 |    .           |      [4]: 2 transition_type 0x44-0x44.7 (1)
     |                                               |                |    local_time_type_records[0:5]: 0x45-0x62.7 (30)
     |                                               |                |      [0]{}: local_time_type 0x45-0x4a.7 (6)
0x040|               00 00 5a 2f                     |     ..Z/       |        utoff: 23087 (valid) 0x45-0x48.7 (4)
0x040|                           00                  |         .      |        dst: 0 (valid) 0x49-0x49.7 (1)
0x040|                              00               |          .     |        idx: 0 (valid) 0x4a-0x4a.7 (1)
     |                                               |                |      [1]{}: local_time_type 0x4b-0x50.7 (6)
0x040|                                 00 00 5a 2f   |           ..Z/ |        utoff: 23087 (valid) 0x4b-0x4e.7 (4)
0x040|                                             00|               .|        dst: 0 (valid) 0x4f-0x4f.7 (1)
0x050|04                                             |.               |        idx: 4 (valid) 0x50-0x50.7 (1)
     |                                               |                |      [2]{}: local_time_type 0x51-0x56.7 (6)
0x050|   00 00 5b 68                                 | ..[h           |        utoff: 23400 (valid) 0x51-0x54.7 (4)
0x050|               00                              |     .          |        dst: 0 (valid) 0x55-0x55.7 (1)
0x050|                  08                           |      .         |        idx: 8 (valid) 0x56-0x56.7 (1)
     |                                               |                |      [3]{}: local_time_type 0x57-0x5c.7 (6)
0x050|                     00 00 7e 90               |       ..~.     |        utoff: 32400 (valid) 0x57-0x5a.7 (4)
0x050|                                 00            |           .    |        dst: 0 (valid) 0x5b-0x5b.7 (1)
0x050|                                    0e         |            .   |        idx: 14 (valid) 0x5c-0x5c.7 (1)
     |                                               |                |      [4]{}: local_time_type 0x5d-0x62.7 (6)
0x050|                                       00 00 5b|             ..[|        utoff: 23400 (valid) 0x5d-0x60.7 (4)
0x060|68                                             |h               |
0x060|   00                                          | .              |        dst: 0 (valid) 0x61-0x61.7 (1)
0x060|      08                                       |  .             |        idx: 8 (valid) 0x62-0x62.7 (1)
     |                                               |                |    time_zone_designations[0:4]: 0x63-0x74.7 (18)
0x060|         4c 4d 54 00                           |   LMT.         |      [0]: "LMT" time_zone_designation 0x63-0x66.7 (4)
0x060|                     52 4d 54 00               |       RMT.     |      [1]: "RMT" time_zone_designation 0x67-0x6a.7 (4)
0x060|                                 2b 30 36 33 30|           +0630|      [2]: "+0630" time_zone_designation 0x6b-0x70.7 (6)
0x070|00                                             |.               |
0x070|   2b 30 39 00                                 | +09.           |      [3]: "+09" time_zone_designation 0x71-0x74.7 (4)
     |                                               |                |    leap_second_records[0:27]: 0x75-0x14c.7 (216)
     |                                               |                |      [0]{}: leap_second_record 0x75-0x7c.7 (8)
0x070|               04 b2 58 00                     |     ..X.       |        occur: "1972-07-01T00:00:00Z" (78796800) 0x75-0x78.7 (4)
0x070|                           00 00 00 01         |         ....   |        corr: 1 0x79-0x7c.7 (4)
     |                                               |                |      [1]{}: leap_second_record 0x7d-0x84.7 (8)
0x070|                                       05 a4 ec|             ...|        occur: "1973-01-01T00:00:01Z" (94694401) 0x7d-0x80.7 (4)
0x080|01                                             |.               |
0x080|   00 00 00 02                                 | ....           |        corr: 2 0x81-0x84.7 (4)
     |                                               |                |      [2]{}: leap_second_record 0x85-0x8c.7 (8)
0x080|               07 86 1f 82                     |     ....       |        occur: "1974-01-01T00:00:02Z" (126230402) 0x85-0x88.7 (4)
0x080|                           00 00 00 03         |         ....   |        corr: 3 0x89-0x8c.7 (4)
     |                                               |                |      [3]{}: leap_second_record 0x8d-0x94.7 (8)
0x080|                                       09 67 53|             .gS|        occur: "1975-01-01T00:00:03Z" (157766403) 0x8d-0x90.7 (4)
0x090|03                                             |.               |
0x090|   00 00 00 04                                 | ....           |        corr: 4 0x91-0x94.7 (4)
     |                                               |                |      [4]{}: leap_second_record 0x95-0x9c.7 (8)
0x090|               0b 48 86 84                     |     .H..       |        occur: "1976-01-01T00:00:04Z" (189302404) 0x95-0x98.7 (4)
0x090|                           00 00 00 05         |         ....   |        corr: 5 0x99-0x9c.7 (4)
     |                                               |                |      [5]{}: leap_second_record 0x9d-0xa4.7 (8)
0x090|                                       0d 2b 0b|             .+.|        occur: "1977-01-01T00:00:05Z" (220924805) 0x9d-0xa0.7 (4)
0x0a0|85                                             |.               |
0x0a0|   00 00 00 06                                 | ....           |        corr: 6 0xa1-0xa4.7 (4)
     |                                               |                |      [6]{}: leap_second_record 0xa5-0xac.7 (8)
0x0a0|               0f 0c 3f 06                     |     ..?.       |        occur: "1978-01-01T00:00:06Z" (252460806) 0xa5-0xa8.7 (4)
0x0a0|                           00 00 00 07         |         ....   |        corr: 7 0xa9-0xac.7 (4)
     |                                               |                |      [7]{}: leap_second_record 0xad-0xb4.7 (8)
0x0a0|                                       10 ed 72|             ..r|        occur: "1979-01-01T00:00:07Z" (283996807) 0xad-0xb0.7 (4)
0x0b0|87                                             |.               |
0x0b0|   00 00 00 08                                 | ....           |        corr: 8 0xb1-0xb4.7 (4)
     |                                               |                |      [8]{}: leap_second_record 0xb5-0xbc.7 (8)
0x0b0|               12 ce a6 08                     |     ....       |        occur: "1980-01-01T00:00:08Z" (315532808) 0xb5-0xb8.7 (4)
0x0b0|                           00 00 00 09         |         ....   |        corr: 9 0xb9-0xbc.7 (4)
     |                                               |                |      [9]{}: leap_second_record 0xbd-0xc4.7 (8)
0x0b0|                                       15 9f ca|             ...|        occur: "1981-07-01T00:00:09Z" (362793609) 0xbd-0xc0.7 (4)
0x0c0|89                                             |.               |
0x0c0|   00 00 00 0a                                 | ....           |        corr: 10 0xc1-0xc4.7 (4)
     |                                               |                |      [10]{}: leap_second_record 0xc5-0xcc.7 (8)
0x0c0|               17 80 fe 0a                     |     ....       |        occur: "1982-07-01T00:00:10Z" (394329610) 0xc5-0xc8.7 (4)
0x0c0|                           00 00 00 0b         |         ....   |        corr: 11 0xc9-0xcc.7 (4)
     |                                               |                |      [11]{}: leap_second_record 0xcd-0xd4.7 (8)
0x0c0|                                       19 62 31|             .b1|        occur: "1983-07-01T00:00:11Z" (425865611) 0xcd-0xd0.7 (4)
0x0d0|8b                                             |.               |
0x0d0|   00 00 00 0c                                 | ....           |        corr: 12 0xd1-0xd4.7 (4)
     |                                               |                |      [12]{}: leap_second_record 0xd5-0xdc.7 (8)
0x0d0|               1d 25 ea 0c                     |     .%..       |        occur: "1985-07-01T00:00:12Z" (489024012) 0xd5-0xd8.7 (4)
0x0d0|                           00 00 00 0d         |         ....   |        corr: 13 0xd9-0xdc.7 (4)
     |                                               |                |      [13]{}: leap_second_record 0xdd-0xe4.7 (8)
0x0d0|                                       21 da e5|             !..|        occur: "1988-01-01T00:00:13Z" (567993613) 0xdd-0xe0.7 (4)
0x0e0|0d                                             |.               |
0x0e0|   00 00 00 0e                                 | ....           |        corr: 14 0xe1-0xe4.7 (4)
     |                                               |                |      [14]{}: leap_second_record 0xe5-0xec.7 (8)
0x0e0|               25 9e 9d 8e                     |     %...       |        occur: "1990-01-01T00:00:14Z" (631152014) 0xe5-0xe8.7 (4)
0x0e0|                           00 00 00 0f         |         ....   |        corr: 15 0xe9-0xec.7 (4)
     |                                               |                |      [15]{}: leap_second_record 0xed-0xf4.7 (8)
0x0e0|                                       27 7f d1|             '..|        occur: "1991-01-01T00:00:15Z" (662688015) 0xed-0xf0.7 (4)
0x0f0|0f                                             |.               |
0x0f0|   00 00 00 10                                 | ....           |        corr: 16 0xf1-0xf4.7 (4)
     |                                               |                |      [16]{}: leap_second_record 0xf5-0xfc.7 (8)
0x0f0|               2a 50 f5 90                     |     *P..       |        occur: "1992-07-01T00:00:16Z" (709948816) 0xf5-0xf8.7 (4)
0x0f0|                           00 00 00 11         |         ....   |        corr: 17 0xf9-0xfc.7 (4)
     |                                               |                |      [17]{}: leap_second_record 0xfd-0x104.7 (8)
0x0f0|                                       2c 32 29|             ,2)|        occur: "1993-07-01T00:00:17Z" (741484817) 0xfd-0x100.7 (4)
0x100|11                                             |.               |
0x100|   00 00 00 12                                 | ....           |        corr: 18 0x101-0x104.7 (4)
     |                                               |                |      [18]{}: leap_second_record 0x105-0x10c.7 (8)
0x100|               2e 13 5c 92                     |     ..\.       |        occur: "1994-07-01T00:00:18Z" (773020818) 0x105-0x108.7 (4)
0x100|                           00 00 00 13         |         ....   |        corr: 19 0x109-0x10c.7 (4)
     |                                               |                |      [19]{}: leap_second_record 0x10d-0x114.7 (8)
0x100|                                       30 e7 24|             0.$|        occur: "1996-01-01T00:00:19Z" (820454419) 0x10d-0x110.7 (4)
0x110|13                                             |.               |
0x110|   00 00 00 14                                 | ....           |        corr: 20 0x111-0x114.7 (4)
     |                                               |                |      [20]{}: leap_second_record 0x115-0x11c.7 (8)
0x110|               33 b8 48 94                     |     3.H.       |        occur: "1997-07-01T00:00:20Z" (867715220) 0x115-0x118.7 (4)
0x110|                           00 00 00 15         |         ....   |        corr: 21 0x119-0x11c.7 (4)
     |                                               |                |      [21]{}: leap_second_record 0x11d-0x124.7 (8)
0x110|                                       36 8c 10|             6..|        occur: "1999-01-01T00:00:21Z" (915148821) 0x11d-0x120.7 (4)
0x120|15                                             |.               |
0x120|   00 00 00 16                                 | ....           |        corr: 22 0x121-0x124.7 (4)
     |                                               |                |      [22]{}: leap_second_record 0x125-0x12c.7 (8)
0x120|               43 b7 1b 96                     |     C...       |        occur: "2006-01-01T00:00:22Z" (1136073622) 0x125-0x128.7 (4)
0x120|                           00 00 00 17         |         ....   |        corr: 23 0x129-0x12c.7 (4)
     |                                               |                |      [23]{}: leap_second_record 0x12d-0x134.7 (8)
0x120|                                       49 5c 07|             I\.|        occur: "2009-01-01T00:00:23Z" (1230768023) 0x12d-0x130.7 (4)
0x130|97                                             |.               |
0x130|   00 00 00 18                                 | ....           |        corr: 24 0x131-0x134.7 (4)
     |                                               |                |      [24]{}: leap_second_record 0x135-0x13c.7 (8)
0x130|               4f ef 93 18                     |     O...       |        occur: "2012-07-01T00:00:24Z" (1341100824) 0x135-0x138.7 (4)
0x130|                           00 00 00 19         |         ....   |        corr: 25 0x139-0x13c.7 (4)
     |                                               |                |      [25]{}: leap_second_record 0x13d-0x144.7 (8)
0x130|                                       55 93 2d|             U.-|        occur: "2015-07-01T00:00:25Z" (1435708825) 0x13d-0x140.7 (4)
0x140|99                                             |.               |
0x140|   00 00 00 1a                                 | ....           |        corr: 26 0x141-0x144.7 (4)
     |                                               |                |      [26]{}: leap_second_record 0x145-0x14c.7 (8)
0x140|               58 68 46 9a                     |     XhF.       |        occur: "2017-01-01T00:00:26Z" (1483228826) 0x145-0x148.7 (4)
0x140|                           00 00 00 1b         |         ....   |        corr: 27 0x149-0x14c.7 (4)
     |                                               |                |    standard_wall_indicators[0:0]: 0x14d-NA (0)
     |                                               |                |    ut_local_indicators[0:0]: 0x14d-NA (0)
     |                                               |                |  v2plusheader{}: 0x14d-0x178.7 (44)
0x140|                                       54 5a 69|             TZi|    magic: 0x545a6966 (valid) 0x14d-0x150.7 (4)
0x150|66                                             |f               |
0x150|   32                                          | 2              |    ver: "2" (0x32) (valid) 0x151-0x151.7 (1)
0x150|      00 00 00 00 00 00 00 00 00 00 00 00 00 00|  ..............|    reserved: raw bits 0x152-0x160.7 (15)
0x160|00                                             |.               |
0x160|   00 00 00 00                                 | ....           |    isutcnt: 0 0x161-0x164.7 (4)
0x160|               00 00 00 00                     |     ....       |    isstdcnt: 0 0x165-0x168.7 (4)
0x160|                           00 00 00 1b         |         ....   |    leapcnt: 27 0x169-0x16c.7 (4)
0x160|                                       00 00 00|             ...|    timecnt: 5 0x16d-0x170.7 (4)
0x170|05                                             |.               |
0x170|   00 00 00 05                                 | ....           |    typecnt: 5 0x171-0x174.7 (4)
0x170|               00 00 00 12                     |     ....       |    charcnt: 18 0x175-0x178.7 (4)
     |                                               |                |  v2plusdatablock{}: 0x179-0x319.7 (417)
     |                                               |                |    transition_times[0:5]: 0x179-0x1a0.7 (40)
0x170|                           ff ff ff ff 56 b6 89|         ....V..|      [0]: "1879-12-31T17:35:13Z" (-2840163887) transition_time 0x179-0x180.7 (8)
0x180|d1                                             |.               |
0x180|   ff ff ff ff a1 f2 73 51                     | ......sQ       |      [1]: "1919-12-31T17:35:13Z" (-1577946287) transition_time 0x181-0x188.7 (8)
0x180|                           ff ff ff ff cb f2 fc|         .......|      [2]: "1942-04-30T17:30:00Z" (-873268200) transition_time 0x189-0x190.7 (8)
0x190|18                                             |.               |
0x190|   ff ff ff ff d1 9a 67 f0                     | ......g.       |      [3]: "1945-05-02T15:00:00Z" (-778410000) transition_time 0x191-0x198.7 (8)
0x190|                           00 00 00 00 64 9b 78|         ....d.x|      [4]: "2023-06-28T00:00:27Z" (1687910427) transition_time 0x199-0x1a0.7 (8)
0x1a0|1b                                             |.               |
     |                                               |                |    transition_types[0:5]: 0x1a1-0x1a5.7 (5)
0x1a0|   01                                          | .              |      [0]: 1 transition_type 0x1a1-0x1a1.7 (1)
0x1a0|      02                                       |  .             |      [1]: 2 transition_type 0x1a2-0x1a2.7 (1)
0x1a0|         03                                    |   .            |      [2]: 3 transition_type 0x1a3-0x1a3.7 (1)
0x1a0|            02                                 |    .           |      [3]: 2 transition_type 0x1a4-0x1a4.7 (1)
0x1a0|               02                              |     .          |      [4]: 2 transition_type 0x1a5-0x1a5.7 (1)
     |                                               |                |    local_time_type_records[0:5]: 0x1a6-0x1c3.7 (30)
     |                                               |                |      [0]{}: local_time_type 0x1a6-0x1ab.7 (6)
0x1a0|                  00 00 5a 2f                  |      ..Z/      |        utoff: 23087 (valid) 0x1a6-0x1a9.7 (4)
0x1a0|                              00               |          .     |        dst: 0 (valid) 0x1aa-0x1aa.7 (1)
0x1a0|                                 00            |           .    |        idx: 0 (valid) 0x1ab-0x1ab.7 (1)
     |                                               |                |      [1]{}: local_time_type 0x1ac-0x1b1.7 (6)
0x1a0|                                    00 00 5a 2f|            ..Z/|        utoff: 23087 (valid) 0x1ac-0x1af.7 (4)
0x1b0|00                                             |.               |        dst: 0 (valid) 0x1b0-0x1b0.7 (1)
0x1b0|   04                                          | .              |        idx: 4 (valid) 0x1b1-0x1b1.7 (1)
     |                                               |                |      [2]{}: local_time_type 0x1b2-0x1b7.7 (6)
0x1b0|      00 00 5b 68                              |  ..[h          |        utoff: 23400 (valid) 0x1b2-0x1b5.7 (4)
0x1b0|                  00                           |      .         |        dst: 0 (valid) 0x1b6-0x1b6.7 (1)
0x1b0|                     08                        |       .        |        idx: 8 (valid) 0x1b7-0x1b7.7 (1)
     |                                               |                |      [3]{}: local_time_type 0x1b8-0x1bd.7 (6)
0x1b0|                        00 00 7e 90            |        ..~.    |        utoff: 32400 (valid) 0x1b8-0x1bb.7 (4)
0x1b0|                                    00         |            .   |        dst: 0 (valid) 0x1bc-0x1bc.7 (1)
0x1b0|                                       0e      |             .  |        idx: 14 (valid) 0x1bd-0x1bd.7 (1)
     |                                               |                |      [4]{}: local_time_type 0x1be-0x1c3.7 (6)
0x1b0|                                          00 00|              ..|        utoff: 23400 (valid) 0x1be-0x1c1.7 (4)
0x1c0|5b 68                                          |[h              |
0x1c0|      00                                       |  .             |        dst: 0 (valid) 0x1c2-0x1c2.7 (1)
0x1c0|         08                                    |   .            |        idx: 8 (valid) 0x1c3-0x1c3.7 (1)
     |                                               |                |    time_zone_designations[0:4]: 0x1c4-0x1d5.7 (18)
0x1c0|            4c 4d 54 00                        |    LMT.        |      [0]: "LMT" time_zone_designation 0x1c4-0x1c7.7 (4)
0x1c0|                        52 4d 54 00            |        RMT.    |      [1]: "RMT" time_zone_designation 0x1c8-0x1cb.7 (4)
0x1c0|                                    2b 30 36 33|            +063|      [2]: "+0630" time_zone_designation 0x1cc-0x1d1.7 (6)
0x1d0|30 00                                          |0.              |
0x1d0|      2b 30 39 00                              |  +09.          |      [3]: "+09" time_zone_designation 0x1d2-0x1d5.7 (4)
     |                                               |                |    leap_second_records[0:27]: 0x1d6-0x319.7 (324)
     |                                               |                |      [0]{}: leap_second_record 0x1d6-0x1e1.7 (12)
0x1d0|                  00 00 00 00 04 b2 58 00      |      ......X.  |        occur: "1972-07-01T00:00:00Z" (78796800) 0x1d6-0x1dd.7 (8)
0x1d0|                                          00 00|              ..|        corr: 1 0x1de-0x1e1.7 (4)
0x1e0|00 01                                          |..              |
     |                                               |                |      [1]{}: leap_second_record 0x1e2-0x1ed.7 (12)
0x1e0|      00 00 00 00 05 a4 ec 01                  |  ........      |        occur: "1973-01-01T00:00:01Z" (94694401) 0x1e2-0x1e9.7 (8)
0x1e0|                              00 00 00 02      |          ....  |        corr: 2 0x1ea-0x1ed.7 (4)
     |                                               |                |      [2]{}: leap_second_record 0x1ee-0x1f9.7 (12)
0x1e0|                                          00 00|              ..|        occur: "1974-01-01T00:00:02Z" (126230402) 0x1ee-0x1f5.7 (8)
0x1f0|00 00 07 86 1f 82                              |......          |
0x1f0|                  00 00 00 03                  |      ....      |        corr: 3 0x1f6-0x1f9.7 (4)
     |                                               |                |      [3]{}: leap_second_record 0x1fa-0x205.7 (12)
0x1f0|                              00 00 00 00 09 67|          .....g|        occur: "1975-01-01T00:00:03Z" (157766403) 0x1fa-0x201.7 (8)
0x200|53 03                                          |S.              |
0x200|      00 00 00 04                              |  ....          |        corr: 4 0x202-0x205.7 (4)
     |                                               |                |      [4]{}: leap_second_record 0x206-0x211.7 (12)
0x200|                  00 00 00 00 0b 48 86 84      |      .....H..  |        occur: "1976-01-01T00:00:04Z" (189302404) 0x206-0x20d.7 (8)
0x200|                                          00 00|              ..|        corr: 5 0x20e-0x211.7 (4)
0x210|00 05                                          |..              |
     |                                               |                |      [5]{}: leap_second_record 0x212-0x21d.7 (12)
0x210|      00 00 00 00 0d 2b 0b 85                  |  .....+..      |        occur: "1977-01-01T00:00:05Z" (220924805) 0x212-0x219.7 (8)
0x210|                              00 00 00 06      |          ....  |        corr: 6 0x21a-0x21d.7 (4)
     |                                               |                |      [6]{}: leap_second_record 0x21e-0x229.7 (12)
0x210|                                          00 00|              ..|        occur: "1978-01-01T00:00:06Z" (252460806) 0x21e-0x225.7 (8)
0x220|00 00 0f 0c 3f 06                              |....?.          |
0x220|                  00 00 00 07                  |      ....      |        corr: 7 0x226-0x229.7 (4)
     |                                               |                |      [7]{}: leap_second_record 0x22a-0x235.7 (12)
0x220|                              00 00 00 00 10 ed|          ......|        occur: "1979-01-01T00:00:07Z" (283996807) 0x22a-0x231.7 (8)
0x230|72 87                                          |r.              |
0x230|      00 00 00 08                              |  ....          |        corr: 8 0x232-0x235.7 (4)
     |                                               |                |      [8]{}: leap_second_record 0x236-0x241.7 (12)
0x230|                  00 00 00 00 12 ce a6 08      |      ........  |        occur: "1980-01-01T00:00:08Z" (315532808) 0x236-0x23d.7 (8)
0x230|                                          00 00|              ..|        corr: 9 0x23e-0x241.7 (4)
0x240|00 09                                          |..              |
     |                                               |                |      [9]{}: leap_second_record 0x242-0x24d.7 (12)
0x240|      00 00 00 00 15 9f ca 89                  |  ........      |        occur: "1981-07-01T00:00:09Z" (362793609) 0x242-0x249.7 (8)
0x240|                              00 00 00 0a      |          ....  |        corr: 10 0x24a-0x24d.7 (4)
     |                                               |                |      [10]{}: leap_second_record 0x24e-0x259.7 (12)
0x240|                                          00 00|              ..|        occur: "1982-07-01T00:00:10Z" (394329610) 0x24e-0x255.7 (8)
0x250|00 00 17 80 fe 0a                              |......          |
0x250|                  00 00 00 0b                  |      ....      |        corr: 11 0x256-0x259.7 (4)
     |                                               |                |      [11]{}: leap_second_record 0x25a-0x265.7 (12)
0x250|                              00 00 00 00 19 62|          .....b|        occur: "1983-07-01T00:00:11Z" (425865611) 0x25a-0x261.7 (8)
0x260|31 8b                                          |1.              |
0x260|      00 00 00 0c                              |  ....          |        corr: 12 0x262-0x265.7 (4)
     |                                               |                |      [12]{}: leap_second_record 0x266-0x271.7 (12)
0x260|                  00 00 00 00 1d 25 ea 0c      |      .....%..  |        occur: "1985-07-01T00:00:12Z" (489024012) 0x266-0x26d.7 (8)
0x260|                                          00 00|              ..|        corr: 13 0x26e-0x271.7 (4)
0x270|00 0d                                          |..              |
     |                                               |                |      [13]{}: leap_second_record 0x272-0x27d.7 (12)
0x270|      00 00 00 00 21 da e5 0d                  |  ....!...      |        occur: "1988-01-01T00:00:13Z" (567993613) 0x272-0x279.7 (8)
0x270|                              00 00 00 0e      |          ....  |        corr: 14 0x27a-0x27d.7 (4)
     |                                               |                |      [14]{}: leap_second_record 0x27e-0x289.7 (12)
0x270|                                          00 00|              ..|        occur: "1990-01-01T00:00:14Z" (631152014) 0x27e-0x285.7 (8)
0x280|00 00 25 9e 9d 8e                              |..%...          |
0x280|                  00 00 00 0f                  |      ....      |        corr: 15 0x286-0x289.7 (4)
     |                                               |                |      [15]{}: leap_second_record 0x28a-0x295.7 (12)
0x280|                              00 00 00 00 27 7f|          ....'.|        occur: "1991-01-01T00:00:15Z" (662688015) 0x28a-0x291.7 (8)
0x290|d1 0f                                          |..              |
0x290|      00 00 00 10                              |  ....          |        corr: 16 0x292-0x295.7 (4)
     |                                               |                |      [16]{}: leap_second_record 0x296-0x2a1.7 (12)
0x290|                  00 00 00 00 2a 50 f5 90      |      ....*P..  |        occur: "1992-07-01T00:00:16Z" (709948816) 0x296-0x29d.7 (8)
0x290|                                          00 00|              ..|        corr: 17 0x29e-0x2a1.7 (4)
0x2a0|00 11                                          |..              |
     |                                               |                |      [17]{}: leap_second_record 0x2a2-0x2ad.7 (12)
0x2a0|      00 00 00 00 2c 32 29 11                  |  ....,2).      |        occur: "1993-07-01T00:00:17Z" (741484817) 0x2a2-0x2a9.7 (8)
0x2a0|                              00 00 00 12      |          ....  |        corr: 18 0x2aa-0x2ad.7 (4)
     |                                               |                |      [18]{}: leap_second_record 0x2ae-0x2b9.7 (12)
0x2a0|                                          00 00|              ..|        occur: "1994-07-01T00:00:18Z" (773020818) 0x2ae-0x2b5.7 (8)
0x2b0|00 00 2e 13 5c 92                              |....\.          |
0x2b0|                  00 00 00 13                  |      ....      |        corr: 19 0x2b6-0x2b9.7 (4)
     |                                               |                |      [19]{}: leap_second_record 0x2ba-0x2c5.7 (12)
0x2b0|                              00 00 00 00 30 e7|          ....0.|        occur: "1996-01-01T00:00:19Z" (820454419) 0x2ba-0x2c1.7 (8)
0x2c0|24 13                                          |$.              |
0x2c0|      00 00 00 14                              |  ....          |        corr: 20 0x2c2-0x2c5.7 (4)
     |                                               |                |      [20]{}: leap_second_record 0x2c6-0x2d1.7 (12)
0x2c0|                  00 00 00 00 33 b8 48 94      |      ....3.H.  |        occur: "1997-07-01T00:00:20Z" (867715220) 0x2c6-0x2cd.7 (8)
0x2c0|                                          00 00|              ..|        corr: 21 0x2ce-0x2d1.7 (4)
0x2d0|00 15                                          |..              |
     |                                               |                |      [21]{}: leap_second_record 0x2d2-0x2dd.7 (12)
0x2d0|      00 00 00 00 36 8c 10 15                  |  ....6...      |        occur: "1999-01-01T00:00:21Z" (915148821) 0x2d2-0x2d9.7 (8)
0x2d0|                              00 00 00 16      |          ....  |        corr: 22 0x2da-0x2dd.7 (4)
     |                                               |                |      [22]{}: leap_second_record 0x2de-0x2e9.7 (12)
0x2d0|                                          00 00|              ..|        occur: "2006-01-01T00:00:22Z" (1136073622) 0x2de-0x2e5.7 (8)
0x2e0|00 00 43 b7 1b 96                              |..C...          |
0x2e0|                  00 00 00 17                  |      ....      |        corr: 23 0x2e6-0x2e9.7 (4)
     |                                               |                |      [23]{}: leap_second_record 0x2ea-0x2f5.7 (12)
0x2e0|                              00 00 00 00 49 5c|          ....I\|        occur: "2009-01-01T00:00:23Z" (1230768023) 0x2ea-0x2f1.7 (8)
0x2f0|07 97                                          |..              |
0x2f0|      00 00 00 18                              |  ....          |        corr: 24 0x2f2-0x2f5.7 (4)
     |                                               |                |      [24]{}: leap_second_record 0x2f6-0x301.7 (12)
0x2f0|                  00 00 00 00 4f ef 93 18      |      ....O...  |        occur: "2012-07-01T00:00:24Z" (1341100824) 0x2f6-0x2fd.7 (8)
0x2f0|                                          00 00|              ..|        corr: 25 0x2fe-0x301.7 (4)
0x300|00 19                                          |..              |
     |                                               |                |      [25]{}: leap_second_record 0x302-0x30d.7 (12)
0x300|      00 00 00 00 55 93 2d 99                  |  ....U.-.      |        occur: "2015-07-01T00:00:25Z" (1435708825) 0x302-0x309.7 (8)
0x300|                              00 00 00 1a      |          ....  |        corr: 26 0x30a-0x30d.7 (4)
     |                                               |                |      [26]{}: leap_second_record 0x30e-0x319.7 (12)
0x300|                                          00 00|              ..|        occur: "2017-01-01T00:00:26Z" (1483228826) 0x30e-0x315.7 (8)
0x310|00 00 58 68 46 9a                              |..XhF.          |
0x310|                  00 00 00 1b                  |      ....      |        corr: 27 0x316-0x319.7 (4)
     |                                               |                |    standard_wall_indicators[0:0]: 0x31a-NA (0)
     |                                               |                |    ut_local_indicators[0:0]: 0x31a-NA (0)
     |                                               |                |  footer{}: 0x31a-0x31b.7 (2)
0x310|                              0a               |          .     |    nl1: 10 (valid) 0x31a-0x31a.7 (1)
     |                                               |                |    tz_string: "" 0x31b-NA (0)
0x310|                                 0a|           |           .|   |    nl2: 10 (valid) 0x31b-0x31b.7 (1)
