$ fq -d tzif dv Yekaterinburg
     |00 01 02 03 04 05 06 07 08 09 0a 0b 0c 0d 0e 0f|0123456789abcdef|.{}: Yekaterinburg (tzif) 0x0-0x6f0 (1776)
     |                                               |                |  v1header{}: 0x0-0x2c (44)
0x000|54 5a 69 66                                    |TZif            |    magic: 0x545a6966 (valid) 0x0-0x4 (4)
0x000|            32                                 |    2           |    ver: "2" (0x32) (valid) 0x4-0x5 (1)
0x000|               00 00 00 00 00 00 00 00 00 00 00|     ...........|    reserved: raw bits 0x5-0x14 (15)
0x010|00 00 00 00                                    |....            |
0x010|            00 00 00 00                        |    ....        |    isutcnt: 0 0x14-0x18 (4)
0x010|                        00 00 00 0c            |        ....    |    isstdcnt: 12 0x18-0x1c (4)
0x010|                                    00 00 00 1b|            ....|    leapcnt: 27 0x1c-0x20 (4)
0x020|00 00 00 43                                    |...C            |    timecnt: 67 0x20-0x24 (4)
0x020|            00 00 00 0c                        |    ....        |    typecnt: 12 0x24-0x28 (4)
0x020|                        00 00 00 14            |        ....    |    charcnt: 20 0x28-0x2c (4)
     |                                               |                |  v1datablock{}: 0x2c-0x2bb (655)
     |                                               |                |    transition_times[0:67]: 0x2c-0x138 (268)
0x020|                                    9b 5f 09 27|            ._.'|      [0]: "1916-07-02T19:57:27Z" (-1688270553) transition_time 0x2c-0x30 (4)
0x030|a1 12 b1 ff                                    |....            |      [1]: "1919-07-15T00:14:55Z" (-1592610305) transition_time 0x30-0x34 (4)
0x030|            b5 a3 fd 40                        |    ...@        |      [2]: "1930-06-20T20:00:00Z" (-1247544000) transition_time 0x34-0x38 (4)
0x030|                        15 27 8b b9            |        .'..    |      [3]: "1981-03-31T19:00:09Z" (354913209) transition_time 0x38-0x3c (4)
0x030|                                    16 18 c0 2a|            ...*|      [4]: "1981-09-30T18:00:10Z" (370720810) transition_time 0x3c-0x40 (4)
0x040|17 08 bf 3a                                    |...:            |      [5]: "1982-03-31T19:00:10Z" (386449210) transition_time 0x40-0x44 (4)
0x040|            17 f9 f3 ab                        |    ....        |      [6]: "1982-09-30T18:00:11Z" (402256811) transition_time 0x44-0x48 (4)
0x040|                        18 e9 f2 bb            |        ....    |      [7]: "1983-03-31T19:00:11Z" (417985211) transition_time 0x48-0x4c (4)
0x040|                                    19 db 27 2c|            ..',|      [8]: "1983-09-30T18:00:12Z" (433792812) transition_time 0x4c-0x50 (4)
0x050|1a cc 77 bc                                    |..w.            |      [9]: "1984-03-31T19:00:12Z" (449607612) transition_time 0x50-0x54 (4)
0x050|            1b bc 84 dc                        |    ....        |      [10]: "1984-09-29T21:00:12Z" (465339612) transition_time 0x54-0x58 (4)
0x050|                        1c ac 75 dc            |        ..u.    |      [11]: "1985-03-30T21:00:12Z" (481064412) transition_time 0x58-0x5c (4)
0x050|                                    1d 9c 66 dd|            ..f.|      [12]: "1985-09-28T21:00:13Z" (496789213) transition_time 0x5c-0x60 (4)
0x060|1e 8c 57 dd                                    |..W.            |      [13]: "1986-03-29T21:00:13Z" (512514013) transition_time 0x60-0x64 (4)
0x060|            1f 7c 48 dd                        |    .|H.        |      [14]: "1986-09-27T21:00:13Z" (528238813) transition_time 0x64-0x68 (4)
0x060|                        20 6c 39 dd            |         l9.    |      [15]: "1987-03-28T21:00:13Z" (543963613) transition_time 0x68-0x6c (4)
0x060|                                    21 5c 2a dd|            !\*.|      [16]: "1987-09-26T21:00:13Z" (559688413) transition_time 0x6c-0x70 (4)
0x070|22 4c 1b de                                    |"L..            |      [17]: "1988-03-26T21:00:14Z" (575413214) transition_time 0x70-0x74 (4)
0x070|            23 3c 0c de                        |    #<..        |      [18]: "1988-09-24T21:00:14Z" (591138014) transition_time 0x74-0x78 (4)
0x070|                        24 2b fd de            |        $+..    |      [19]: "1989-03-25T21:00:14Z" (606862814) transition_time 0x78-0x7c (4)
0x070|                                    25 1b ee de|            %...|      [20]: "1989-09-23T21:00:14Z" (622587614) transition_time 0x7c-0x80 (4)
0x080|26 0b df df                                    |&...            |      [21]: "1990-03-24T21:00:15Z" (638312415) transition_time 0x80-0x84 (4)
0x080|            27 05 0b 5f                        |    '.._        |      [22]: "1990-09-29T21:00:15Z" (654642015) transition_time 0x84-0x88 (4)
0x080|                        27 f4 fc 60            |        '..`    |      [23]: "1991-03-30T21:00:16Z" (670366816) transition_time 0x88-0x8c (4)
0x080|                                    28 e4 fb 70|            (..p|      [24]: "1991-09-28T22:00:16Z" (686095216) transition_time 0x8c-0x90 (4)
0x090|29 78 a3 70                                    |)x.p            |      [25]: "1992-01-18T22:00:16Z" (695772016) transition_time 0x90-0x94 (4)
0x090|            29 d4 de 60                        |    )..`        |      [26]: "1992-03-28T21:00:16Z" (701816416) transition_time 0x94-0x98 (4)
0x090|                        2a c4 cf 61            |        *..a    |      [27]: "1992-09-26T21:00:17Z" (717541217) transition_time 0x98-0x9c (4)
0x090|                                    2b b4 c0 61|            +..a|      [28]: "1993-03-27T21:00:17Z" (733266017) transition_time 0x9c-0xa0 (4)
0x0a0|2c a4 b1 62                                    |,..b            |      [29]: "1993-09-25T21:00:18Z" (748990818) transition_time 0xa0-0xa4 (4)
0x0a0|            2d 94 a2 62                        |    -..b        |      [30]: "1994-03-26T21:00:18Z" (764715618) transition_time 0xa4-0xa8 (4)
0x0a0|                        2e 84 93 63            |        ...c    |      [31]: "1994-09-24T21:00:19Z" (780440419) transition_time 0xa8-0xac (4)
0x0a0|                                    2f 74 84 63|            /t.c|      [32]: "1995-03-25T21:00:19Z" (796165219) transition_time 0xac-0xb0 (4)
0x0b0|30 64 75 63                                    |0duc            |      [33]: "1995-09-23T21:00:19Z" (811890019) transition_time 0xb0-0xb4 (4)
0x0b0|            31 5d a0 e4                        |    1]..        |      [34]: "1996-03-30T21:00:20Z" (828219620) transition_time 0xb4-0xb8 (4)
0x0b0|                        32 72 7b e4            |        2r{.    |      [35]: "1996-10-26T21:00:20Z" (846363620) transition_time 0xb8-0xbc (4)
0x0b0|                                    33 3d 82 e4|            3=..|      [36]: "1997-03-29T21:00:20Z" (859669220) transition_time 0xbc-0xc0 (4)
0x0c0|34 52 5d e5                                    |4R].            |      [37]: "1997-10-25T21:00:21Z" (877813221) transition_time 0xc0-0xc4 (4)
0x0c0|            35 1d 64 e5                        |    5.d.        |      [38]: "1998-03-28T21:00:21Z" (891118821) transition_time 0xc4-0xc8 (4)
0x0c0|                        36 32 3f e5            |        62?.    |      [39]: "1998-10-24T21:00:21Z" (909262821) transition_time 0xc8-0xcc (4)
0x0c0|                                    36 fd 46 e6|            6.F.|      [40]: "1999-03-27T21:00:22Z" (922568422) transition_time 0xcc-0xd0 (4)
0x0d0|38 1b 5c 66                                    |8.\f            |      [41]: "1999-10-30T21:00:22Z" (941317222) transition_time 0xd0-0xd4 (4)
0x0d0|            38 dd 28 e6                        |    8.(.        |      [42]: "2000-03-25T21:00:22Z" (954018022) transition_time 0xd4-0xd8 (4)
0x0d0|                        39 fb 3e 66            |        9.>f    |      [43]: "2000-10-28T21:00:22Z" (972766822) transition_time 0xd8-0xdc (4)
0x0d0|                                    3a bd 0a e6|            :...|      [44]: "2001-03-24T21:00:22Z" (985467622) transition_time 0xdc-0xe0 (4)
0x0e0|3b db 20 66                                    |;. f            |      [45]: "2001-10-27T21:00:22Z" (1004216422) transition_time 0xe0-0xe4 (4)
0x0e0|            3c a6 27 66                        |    <.'f        |      [46]: "2002-03-30T21:00:22Z" (1017522022) transition_time 0xe4-0xe8 (4)
0x0e0|                        3d bb 02 66            |        =..f    |      [47]: "2002-10-26T21:00:22Z" (1035666022) transition_time 0xe8-0xec (4)
0x0e0|                                    3e 86 09 66|            >..f|      [48]: "2003-03-29T21:00:22Z" (1048971622) transition_time 0xec-0xf0 (4)
0x0f0|3f 9a e4 66                                    |?..f            |      [49]: "2003-10-25T21:00:22Z" (1067115622) transition_time 0xf0-0xf4 (4)
0x0f0|            40 65 eb 66                        |    @e.f        |      [50]: "2004-03-27T21:00:22Z" (1080421222) transition_time 0xf4-0xf8 (4)
0x0f0|                        41 84 00 e6            |        A...    |      [51]: "2004-10-30T21:00:22Z" (1099170022) transition_time 0xf8-0xfc (4)
0x0f0|                                    42 45 cd 66|            BE.f|      [52]: "2005-03-26T21:00:22Z" (1111870822) transition_time 0xfc-0x100 (4)
0x100|43 63 e2 e6                                    |Cc..            |      [53]: "2005-10-29T21:00:22Z" (1130619622) transition_time 0x100-0x104 (4)
0x100|            44 25 af 67                        |    D%.g        |      [54]: "2006-03-25T21:00:23Z" (1143320423) transition_time 0x104-0x108 (4)
0x100|                        45 43 c4 e7            |        EC..    |      [55]: "2006-10-28T21:00:23Z" (1162069223) transition_time 0x108-0x10c (4)
0x100|                                    46 05 91 67|            F..g|      [56]: "2007-03-24T21:00:23Z" (1174770023) transition_time 0x10c-0x110 (4)
0x110|47 23 a6 e7                                    |G#..            |      [57]: "2007-10-27T21:00:23Z" (1193518823) transition_time 0x110-0x114 (4)
0x110|            47 ee ad e7                        |    G...        |      [58]: "2008-03-29T21:00:23Z" (1206824423) transition_time 0x114-0x118 (4)
0x110|                        49 03 88 e7            |        I...    |      [59]: "2008-10-25T21:00:23Z" (1224968423) transition_time 0x118-0x11c (4)
0x110|                                    49 ce 8f e8|            I...|      [60]: "2009-03-28T21:00:24Z" (1238274024) transition_time 0x11c-0x120 (4)
0x120|4a e3 6a e8                                    |J.j.            |      [61]: "2009-10-24T21:00:24Z" (1256418024) transition_time 0x120-0x124 (4)
0x120|            4b ae 71 e8                        |    K.q.        |      [62]: "2010-03-27T21:00:24Z" (1269723624) transition_time 0x124-0x128 (4)
0x120|                        4c cc 87 68            |        L..h    |      [63]: "2010-10-30T21:00:24Z" (1288472424) transition_time 0x128-0x12c (4)
0x120|                                    4d 8e 53 e8|            M.S.|      [64]: "2011-03-26T21:00:24Z" (1301173224) transition_time 0x12c-0x130 (4)
0x130|54 4c 01 59                                    |TL.Y            |      [65]: "2014-10-25T20:00:25Z" (1414267225) transition_time 0x130-0x134 (4)
0x130|            64 9b 78 1b                        |    d.x.        |      [66]: "2023-06-28T00:00:27Z" (1687910427) transition_time 0x134-0x138 (4)
     |                                               |                |    transition_types[0:67]: 0x138-0x17b (67)
0x130|                        01                     |        .       |      [0]: 1 transition_type 0x138-0x139 (1)
0x130|                           02                  |         .      |      [1]: 2 transition_type 0x139-0x13a (1)
0x130|                              04               |          .     |      [2]: 4 transition_type 0x13a-0x13b (1)
0x130|                                 03            |           .    |      [3]: 3 transition_type 0x13b-0x13c (1)
0x130|                                    04         |            .   |      [4]: 4 transition_type 0x13c-0x13d (1)
0x130|                                       03      |             .  |      [5]: 3 transition_type 0x13d-0x13e (1)
0x130|                                          04   |              . |      [6]: 4 transition_type 0x13e-0x13f (1)
0x130|                                             03|               .|      [7]: 3 transition_type 0x13f-0x140 (1)
0x140|04                                             |.               |      [8]: 4 transition_type 0x140-0x141 (1)
0x140|   03                                          | .              |      [9]: 3 transition_type 0x141-0x142 (1)
0x140|      05                                       |  .             |      [10]: 5 transition_type 0x142-0x143 (1)
0x140|         06                                    |   .            |      [11]: 6 transition_type 0x143-0x144 (1)
0x140|            05                                 |    .           |      [12]: 5 transition_type 0x144-0x145 (1)
0x140|               06                              |     .          |      [13]: 6 transition_type 0x145-0x146 (1)
0x140|                  05                           |      .         |      [14]: 5 transition_type 0x146-0x147 (1)
0x140|                     06                        |       .        |      [15]: 6 transition_type 0x147-0x148 (1)
0x140|                        05                     |        .       |      [16]: 5 transition_type 0x148-0x149 (1)
0x140|                           06                  |         .      |      [17]: 6 transition_type 0x149-0x14a (1)
0x140|                              05               |          .     |      [18]: 5 transition_type 0x14a-0x14b (1)
0x140|                                 06            |           .    |      [19]: 6 transition_type 0x14b-0x14c (1)
0x140|                                    05         |            .   |      [20]: 5 transition_type 0x14c-0x14d (1)
0x140|                                       06      |             .  |      [21]: 6 transition_type 0x14d-0x14e (1)
0x140|                                          05   |              . |      [22]: 5 transition_type 0x14e-0x14f (1)
0x140|                                             07|               .|      [23]: 7 transition_type 0x14f-0x150 (1)
0x150|08                                             |.               |      [24]: 8 transition_type 0x150-0x151 (1)
0x150|   05                                          | .              |      [25]: 5 transition_type 0x151-0x152 (1)
0x150|      06                                       |  .             |      [26]: 6 transition_type 0x152-0x153 (1)
0x150|         05                                    |   .            |      [27]: 5 transition_type 0x153-0x154 (1)
0x150|            06                                 |    .           |      [28]: 6 transition_type 0x154-0x155 (1)
0x150|               05                              |     .          |      [29]: 5 transition_type 0x155-0x156 (1)
0x150|                  06                           |      .         |      [30]: 6 transition_type 0x156-0x157 (1)
0x150|                     05                        |       .        |      [31]: 5 transition_type 0x157-0x158 (1)
0x150|                        06                     |        .       |      [32]: 6 transition_type 0x158-0x159 (1)
0x150|                           05                  |         .      |      [33]: 5 transition_type 0x159-0x15a (1)
0x150|                              06               |          .     |      [34]: 6 transition_type 0x15a-0x15b (1)
0x150|                                 05            |           .    |      [35]: 5 transition_type 0x15b-0x15c (1)
0x150|                                    06         |            .   |      [36]: 6 transition_type 0x15c-0x15d (1)
0x150|                                       05      |             .  |      [37]: 5 transition_type 0x15d-0x15e (1)
0x150|                                          06   |              . |      [38]: 6 transition_type 0x15e-0x15f (1)
0x150|                                             05|               .|      [39]: 5 transition_type 0x15f-0x160 (1)
0x160|06                                             |.               |      [40]: 6 transition_type 0x160-0x161 (1)
0x160|   05                                          | .              |      [41]: 5 transition_type 0x161-0x162 (1)
0x160|      06                                       |  .             |      [42]: 6 transition_type 0x162-0x163 (1)
0x160|         05                                    |   .            |      [43]: 5 transition_type 0x163-0x164 (1)
0x160|            06                                 |    .           |      [44]: 6 transition_type 0x164-0x165 (1)
0x160|               05                              |     .          |      [45]: 5 transition_type 0x165-0x166 (1)
0x160|                  06                           |      .         |      [46]: 6 transition_type 0x166-0x167 (1)
0x160|                     05                        |       .        |      [47]: 5 transition_type 0x167-0x168 (1)
0x160|                        06                     |        .       |      [48]: 6 transition_type 0x168-0x169 (1)
0x160|                           05                  |         .      |      [49]: 5 transition_type 0x169-0x16a (1)
0x160|                              06               |          .     |      [50]: 6 transition_type 0x16a-0x16b (1)
0x160|                                 05            |           .    |      [51]: 5 transition_type 0x16b-0x16c (1)
0x160|                                    06         |            .   |      [52]: 6 transition_type 0x16c-0x16d (1)
0x160|                                       05      |             .  |      [53]: 5 transition_type 0x16d-0x16e (1)
0x160|                                          06   |              . |      [54]: 6 transition_type 0x16e-0x16f (1)
0x160|                                             05|               .|      [55]: 5 transition_type 0x16f-0x170 (1)
0x170|06                                             |.               |      [56]: 6 transition_type 0x170-0x171 (1)
0x170|   05                                          | .              |      [57]: 5 transition_type 0x171-0x172 (1)
0x170|      06                                       |  .             |      [58]: 6 transition_type 0x172-0x173 (1)
0x170|         05                                    |   .            |      [59]: 5 transition_type 0x173-0x174 (1)
0x170|            06                                 |    .           |      [60]: 6 transition_type 0x174-0x175 (1)
0x170|               05                              |     .          |      [61]: 5 transition_type 0x175-0x176 (1)
0x170|                  06                           |      .         |      [62]: 6 transition_type 0x176-0x177 (1)
0x170|                     05                        |       .        |      [63]: 5 transition_type 0x177-0x178 (1)
0x170|                        09                     |        .       |      [64]: 9 transition_type 0x178-0x179 (1)
0x170|                           05                  |         .      |      [65]: 5 transition_type 0x179-0x17a (1)
0x170|                              05               |          .     |      [66]: 5 transition_type 0x17a-0x17b (1)
     |                                               |                |    local_time_type_records[0:12]: 0x17b-0x1c3 (72)
     |                                               |                |      [0]{}: local_time_type 0x17b-0x181 (6)
0x170|                                 00 00 38 d9   |           ..8. |        utoff: 14553 (valid) 0x17b-0x17f (4)
0x170|                                             00|               .|        dst: 0 (valid) 0x17f-0x180 (1)
0x180|00                                             |.               |        idx: 0 (valid) 0x180-0x181 (1)
     |                                               |                |      [1]{}: local_time_type 0x181-0x187 (6)
0x180|   00 00 34 c1                                 | ..4.           |        utoff: 13505 (valid) 0x181-0x185 (4)
0x180|               00                              |     .          |        dst: 0 (valid) 0x185-0x186 (1)
0x180|                  04                           |      .         |        idx: 4 (valid) 0x186-0x187 (1)
     |                                               |                |      [2]{}: local_time_type 0x187-0x18d (6)
0x180|                     00 00 38 40               |       ..8@     |        utoff: 14400 (valid) 0x187-0x18b (4)
0x180|                                 00            |           .    |        dst: 0 (valid) 0x18b-0x18c (1)
0x180|                                    08         |            .   |        idx: 8 (valid) 0x18c-0x18d (1)
     |                                               |                |      [3]{}: local_time_type 0x18d-0x193 (6)
0x180|                                       00 00 54|             ..T|        utoff: 21600 (valid) 0x18d-0x191 (4)
0x190|60                                             |`               |
0x190|   01                                          | .              |        dst: 1 (valid) 0x191-0x192 (1)
0x190|      0c                                       |  .             |        idx: 12 (valid) 0x192-0x193 (1)
     |                                               |                |      [4]{}: local_time_type 0x193-0x199 (6)
0x190|         00 00 46 50                           |   ..FP         |        utoff: 18000 (valid) 0x193-0x197 (4)
0x190|                     00                        |       .        |        dst: 0 (valid) 0x197-0x198 (1)
0x190|                        10                     |        .       |        idx: 16 (valid) 0x198-0x199 (1)
     |                                               |                |      [5]{}: local_time_type 0x199-0x19f (6)
0x190|                           00 00 46 50         |         ..FP   |        utoff: 18000 (valid) 0x199-0x19d (4)
0x190|                                       00      |             .  |        dst: 0 (valid) 0x19d-0x19e (1)
0x190|                                          10   |              . |        idx: 16 (valid) 0x19e-0x19f (1)
     |                                               |                |      [6]{}: local_time_type 0x19f-0x1a5 (6)
0x190|                                             00|               .|        utoff: 21600 (valid) 0x19f-0x1a3 (4)
0x1a0|00 54 60                                       |.T`             |
0x1a0|         01                                    |   .            |        dst: 1 (valid) 0x1a3-0x1a4 (1)
0x1a0|            0c                                 |    .           |        idx: 12 (valid) 0x1a4-0x1a5 (1)
     |                                               |                |      [7]{}: local_time_type 0x1a5-0x1ab (6)
0x1a0|               00 00 46 50                     |     ..FP       |        utoff: 18000 (valid) 0x1a5-0x1a9 (4)
0x1a0|                           01                  |         .      |        dst: 1 (valid) 0x1a9-0x1aa (1)
0x1a0|                              10               |          .     |        idx: 16 (valid) 0x1aa-0x1ab (1)
     |                                               |                |      [8]{}: local_time_type 0x1ab-0x1b1 (6)
0x1a0|                                 00 00 38 40   |           ..8@ |        utoff: 14400 (valid) 0x1ab-0x1af (4)
0x1a0|                                             00|               .|        dst: 0 (valid) 0x1af-0x1b0 (1)
0x1b0|08                                             |.               |        idx: 8 (valid) 0x1b0-0x1b1 (1)
     |                                               |                |      [9]{}: local_time_type 0x1b1-0x1b7 (6)
0x1b0|   00 00 54 60                                 | ..T`           |        utoff: 21600 (valid) 0x1b1-0x1b5 (4)
0x1b0|               00                              |     .          |        dst: 0 (valid) 0x1b5-0x1b6 (1)
0x1b0|                  0c                           |      .         |        idx: 12 (valid) 0x1b6-0x1b7 (1)
     |                                               |                |      [10]{}: local_time_type 0x1b7-0x1bd (6)
0x1b0|                     00 00 54 60               |       ..T`     |        utoff: 21600 (valid) 0x1b7-0x1bb (4)
0x1b0|                                 01            |           .    |        dst: 1 (valid) 0x1bb-0x1bc (1)
0x1b0|                                    0c         |            .   |        idx: 12 (valid) 0x1bc-0x1bd (1)
     |                                               |                |      [11]{}: local_time_type 0x1bd-0x1c3 (6)
0x1b0|                                       00 00 46|             ..F|        utoff: 18000 (valid) 0x1bd-0x1c1 (4)
0x1c0|50                                             |P               |
0x1c0|   00                                          | .              |        dst: 0 (valid) 0x1c1-0x1c2 (1)
0x1c0|      10                                       |  .             |        idx: 16 (valid) 0x1c2-0x1c3 (1)
     |                                               |                |    time_zone_designations[0:5]: 0x1c3-0x1d7 (20)
0x1c0|         4c 4d 54 00                           |   LMT.         |      [0]: "LMT" time_zone_designation 0x1c3-0x1c7 (4)
0x1c0|                     50 4d 54 00               |       PMT.     |      [1]: "PMT" time_zone_designation 0x1c7-0x1cb (4)
0x1c0|                                 2b 30 34 00   |           +04. |      [2]: "+04" time_zone_designation 0x1cb-0x1cf (4)
0x1c0|                                             2b|               +|      [3]: "+06" time_zone_designation 0x1cf-0x1d3 (4)
0x1d0|30 36 00                                       |06.             |
0x1d0|         2b 30 35 00                           |   +05.         |      [4]: "+05" time_zone_designation 0x1d3-0x1d7 (4)
     |                                               |                |    leap_second_records[0:27]: 0x1d7-0x2af (216)
     |                                               |                |      [0]{}: leap_second_record 0x1d7-0x1df (8)
0x1d0|                     04 b2 58 00               |       ..X.     |        occur: "1972-07-01T00:00:00Z" (78796800) 0x1d7-0x1db (4)
0x1d0|                                 00 00 00 01   |           .... |        corr: 1 0x1db-0x1df (4)
     |                                               |                |      [1]{}: leap_second_record 0x1df-0x1e7 (8)
0x1d0|                                             05|               .|        occur: "1973-01-01T00:00:01Z" (94694401) 0x1df-0x1e3 (4)
0x1e0|a4 ec 01                                       |...             |
0x1e0|         00 00 00 02                           |   ....         |        corr: 2 0x1e3-0x1e7 (4)
     |                                               |                |      [2]{}: leap_second_record 0x1e7-0x1ef (8)
0x1e0|                     07 86 1f 82               |       ....     |        occur: "1974-01-01T00:00:02Z" (126230402) 0x1e7-0x1eb (4)
0x1e0|                                 00 00 00 03   |           .... |        corr: 3 0x1eb-0x1ef (4)
     |                                               |                |      [3]{}: leap_second_record 0x1ef-0x1f7 (8)
0x1e0|                                             09|               .|        occur: "1975-01-01T00:00:03Z" (157766403) 0x1ef-0x1f3 (4)
0x1f0|67 53 03                                       |gS.             |
0x1f0|         00 00 00 04                           |   ....         |        corr: 4 0x1f3-0x1f7 (4)
     |                                               |                |      [4]{}: leap_second_record 0x1f7-0x1ff (8)
0x1f0|                     0b 48 86 84               |       .H..     |        occur: "1976-01-01T00:00:04Z" (189302404) 0x1f7-0x1fb (4)
0x1f0|                                 00 00 00 05   |           .... |        corr: 5 0x1fb-0x1ff (4)
     |                                               |                |      [5]{}: leap_second_record 0x1ff-0x207 (8)
0x1f0|                                             0d|               .|        occur: "1977-01-01T00:00:05Z" (220924805) 0x1ff-0x203 (4)
0x200|2b 0b 85                                       |+..             |
0x200|         00 00 00 06                           |   ....         |        corr: 6 0x203-0x207 (4)
     |                                               |                |      [6]{}: leap_second_record 0x207-0x20f (8)
0x200|                     0f 0c 3f 06               |       ..?.     |        occur: "1978-01-01T00:00:06Z" (252460806) 0x207-0x20b (4)
0x200|                                 00 00 00 07   |           .... |        corr: 7 0x20b-0x20f (4)
     |                                               |                |      [7]{}: leap_second_record 0x20f-0x217 (8)
0x200|                                             10|               .|        occur: "1979-01-01T00:00:07Z" (283996807) 0x20f-0x213 (4)
0x210|ed 72 87                                       |.r.             |
0x210|         00 00 00 08                           |   ....         |        corr: 8 0x213-0x217 (4)
     |                                               |                |      [8]{}: leap_second_record 0x217-0x21f (8)
0x210|                     12 ce a6 08               |       ....     |        occur: "1980-01-01T00:00:08Z" (315532808) 0x217-0x21b (4)
0x210|                                 00 00 00 09   |           .... |        corr: 9 0x21b-0x21f (4)
     |                                               |                |      [9]{}: leap_second_record 0x21f-0x227 (8)
0x210|                                             15|               .|        occur: "1981-07-01T00:00:09Z" (362793609) 0x21f-0x223 (4)
0x220|9f ca 89                                       |...             |
0x220|         00 00 00 0a                           |   ....         |        corr: 10 0x223-0x227 (4)
     |                                               |                |      [10]{}: leap_second_record 0x227-0x22f (8)
0x220|                     17 80 fe 0a               |       ....     |        occur: "1982-07-01T00:00:10Z" (394329610) 0x227-0x22b (4)
0x220|                                 00 00 00 0b   |           .... |        corr: 11 0x22b-0x22f (4)
     |                                               |                |      [11]{}: leap_second_record 0x22f-0x237 (8)
0x220|                                             19|               .|        occur: "1983-07-01T00:00:11Z" (425865611) 0x22f-0x233 (4)
0x230|62 31 8b                                       |b1.             |
0x230|         00 00 00 0c                           |   ....         |        corr: 12 0x233-0x237 (4)
     |                                               |                |      [12]{}: leap_second_record 0x237-0x23f (8)
0x230|                     1d 25 ea 0c               |       .%..     |        occur: "1985-07-01T00:00:12Z" (489024012) 0x237-0x23b (4)
0x230|                                 00 00 00 0d   |           .... |        corr: 13 0x23b-0x23f (4)
     |                                               |                |      [13]{}: leap_second_record 0x23f-0x247 (8)
0x230|                                             21|               !|        occur: "1988-01-01T00:00:13Z" (567993613) 0x23f-0x243 (4)
0x240|da e5 0d                                       |...             |
0x240|         00 00 00 0e                           |   ....         |        corr: 14 0x243-0x247 (4)
     |                                               |                |      [14]{}: leap_second_record 0x247-0x24f (8)
0x240|                     25 9e 9d 8e               |       %...     |        occur: "1990-01-01T00:00:14Z" (631152014) 0x247-0x24b (4)
0x240|                                 00 00 00 0f   |           .... |        corr: 15 0x24b-0x24f (4)
     |                                               |                |      [15]{}: leap_second_record 0x24f-0x257 (8)
0x240|                                             27|               '|        occur: "1991-01-01T00:00:15Z" (662688015) 0x24f-0x253 (4)
0x250|7f d1 0f                                       |...             |
0x250|         00 00 00 10                           |   ....         |        corr: 16 0x253-0x257 (4)
     |                                               |                |      [16]{}: leap_second_record 0x257-0x25f (8)
0x250|                     2a 50 f5 90               |       *P..     |        occur: "1992-07-01T00:00:16Z" (709948816) 0x257-0x25b (4)
0x250|                                 00 00 00 11   |           .... |        corr: 17 0x25b-0x25f (4)
     |                                               |                |      [17]{}: leap_second_record 0x25f-0x267 (8)
0x250|                                             2c|               ,|        occur: "1993-07-01T00:00:17Z" (741484817) 0x25f-0x263 (4)
0x260|32 29 11                                       |2).             |
0x260|         00 00 00 12                           |   ....         |        corr: 18 0x263-0x267 (4)
     |                                               |                |      [18]{}: leap_second_record 0x267-0x26f (8)
0x260|                     2e 13 5c 92               |       ..\.     |        occur: "1994-07-01T00:00:18Z" (773020818) 0x267-0x26b (4)
0x260|                                 00 00 00 13   |           .... |        corr: 19 0x26b-0x26f (4)
     |                                               |                |      [19]{}: leap_second_record 0x26f-0x277 (8)
0x260|                                             30|               0|        occur: "1996-01-01T00:00:19Z" (820454419) 0x26f-0x273 (4)
0x270|e7 24 13                                       |.$.             |
0x270|         00 00 00 14                           |   ....         |        corr: 20 0x273-0x277 (4)
     |                                               |                |      [20]{}: leap_second_record 0x277-0x27f (8)
0x270|                     33 b8 48 94               |       3.H.     |        occur: "1997-07-01T00:00:20Z" (867715220) 0x277-0x27b (4)
0x270|                                 00 00 00 15   |           .... |        corr: 21 0x27b-0x27f (4)
     |                                               |                |      [21]{}: leap_second_record 0x27f-0x287 (8)
0x270|                                             36|               6|        occur: "1999-01-01T00:00:21Z" (915148821) 0x27f-0x283 (4)
0x280|8c 10 15                                       |...             |
0x280|         00 00 00 16                           |   ....         |        corr: 22 0x283-0x287 (4)
     |                                               |                |      [22]{}: leap_second_record 0x287-0x28f (8)
0x280|                     43 b7 1b 96               |       C...     |        occur: "2006-01-01T00:00:22Z" (1136073622) 0x287-0x28b (4)
0x280|                                 00 00 00 17   |           .... |        corr: 23 0x28b-0x28f (4)
     |                                               |                |      [23]{}: leap_second_record 0x28f-0x297 (8)
0x280|                                             49|               I|        occur: "2009-01-01T00:00:23Z" (1230768023) 0x28f-0x293 (4)
0x290|5c 07 97                                       |\..             |
0x290|         00 00 00 18                           |   ....         |        corr: 24 0x293-0x297 (4)
     |                                               |                |      [24]{}: leap_second_record 0x297-0x29f (8)
0x290|                     4f ef 93 18               |       O...     |        occur: "2012-07-01T00:00:24Z" (1341100824) 0x297-0x29b (4)
0x290|                                 00 00 00 19   |           .... |        corr: 25 0x29b-0x29f (4)
     |                                               |                |      [25]{}: leap_second_record 0x29f-0x2a7 (8)
0x290|                                             55|               U|        occur: "2015-07-01T00:00:25Z" (1435708825) 0x29f-0x2a3 (4)
0x2a0|93 2d 99                                       |.-.             |
0x2a0|         00 00 00 1a                           |   ....         |        corr: 26 0x2a3-0x2a7 (4)
     |                                               |                |      [26]{}: leap_second_record 0x2a7-0x2af (8)
0x2a0|                     58 68 46 9a               |       XhF.     |        occur: "2017-01-01T00:00:26Z" (1483228826) 0x2a7-0x2ab (4)
0x2a0|                                 00 00 00 1b   |           .... |        corr: 27 0x2ab-0x2af (4)
     |                                               |                |    standard_wall_indicators[0:12]: 0x2af-0x2bb (12)
0x2a0|                                             00|               .|      [0]: 0 standard_wall_indicator (valid) 0x2af-0x2b0 (1)
0x2b0|00                                             |.               |      [1]: 0 standard_wall_indicator (valid) 0x2b0-0x2b1 (1)
0x2b0|   00                                          | .              |      [2]: 0 standard_wall_indicator (valid) 0x2b1-0x2b2 (1)
0x2b0|      00                                       |  .             |      [3]: 0 standard_wall_indicator (valid) 0x2b2-0x2b3 (1)
0x2b0|         00                                    |   .            |      [4]: 0 standard_wall_indicator (valid) 0x2b3-0x2b4 (1)
0x2b0|            01                                 |    .           |      [5]: 1 standard_wall_indicator (valid) 0x2b4-0x2b5 (1)
0x2b0|               01                              |     .          |      [6]: 1 standard_wall_indicator (valid) 0x2b5-0x2b6 (1)
0x2b0|                  01                           |      .         |      [7]: 1 standard_wall_indicator (valid) 0x2b6-0x2b7 (1)
0x2b0|                     01                        |       .        |      [8]: 1 standard_wall_indicator (valid) 0x2b7-0x2b8 (1)
0x2b0|                        01                     |        .       |      [9]: 1 standard_wall_indicator (valid) 0x2b8-0x2b9 (1)
0x2b0|                           01                  |         .      |      [10]: 1 standard_wall_indicator (valid) 0x2b9-0x2ba (1)
0x2b0|                              01               |          .     |      [11]: 1 standard_wall_indicator (valid) 0x2ba-0x2bb (1)
     |                                               |                |    ut_local_indicators[0:0]: 0x2bb-0x2bb (0)
     |                                               |                |  v2plusheader{}: 0x2bb-0x2e7 (44)
0x2b0|                                 54 5a 69 66   |           TZif |    magic: 0x545a6966 (valid) 0x2bb-0x2bf (4)
0x2b0|                                             32|               2|    ver: "2" (0x32) (valid) 0x2bf-0x2c0 (1)
0x2c0|00 00 00 00 00 00 00 00 00 00 00 00 00 00 00   |............... |    reserved: raw bits 0x2c0-0x2cf (15)
0x2c0|                                             00|               .|    isutcnt: 0 0x2cf-0x2d3 (4)
0x2d0|00 00 00                                       |...             |
0x2d0|         00 00 00 0c                           |   ....         |    isstdcnt: 12 0x2d3-0x2d7 (4)
0x2d0|                     00 00 00 1b               |       ....     |    leapcnt: 27 0x2d7-0x2db (4)
0x2d0|                                 00 00 00 43   |           ...C |    timecnt: 67 0x2db-0x2df (4)
0x2d0|                                             00|               .|    typecnt: 12 0x2df-0x2e3 (4)
0x2e0|00 00 0c                                       |...             |
0x2e0|         00 00 00 14                           |   ....         |    charcnt: 20 0x2e3-0x2e7 (4)
     |                                               |                |  v2plusdatablock{}: 0x2e7-0x6ee (1031)
     |                                               |                |    transition_times[0:67]: 0x2e7-0x4ff (536)
0x2e0|                     ff ff ff ff 9b 5f 09 27   |       ....._.' |      [0]: "1916-07-02T19:57:27Z" (-1688270553) transition_time 0x2e7-0x2ef (8)
0x2e0|                                             ff|               .|      [1]: "1919-07-15T00:14:55Z" (-1592610305) transition_time 0x2ef-0x2f7 (8)
0x2f0|ff ff ff a1 12 b1 ff                           |.......         |
0x2f0|                     ff ff ff ff b5 a3 fd 40   |       .......@ |      [2]: "1930-06-20T20:00:00Z" (-1247544000) transition_time 0x2f7-0x2ff (8)
0x2f0|                                             00|               .|      [3]: "1981-03-31T19:00:09Z" (354913209) transition_time 0x2ff-0x307 (8)
0x300|00 00 00 15 27 8b b9                           |....'..         |
0x300|                     00 00 00 00 16 18 c0 2a   |       .......* |      [4]: "1981-09-30T18:00:10Z" (370720810) transition_time 0x307-0x30f (8)
0x300|                                             00|               .|      [5]: "1982-03-31T19:00:10Z" (386449210) transition_time 0x30f-0x317 (8)
0x310|00 00 00 17 08 bf 3a                           |......:         |
0x310|                     00 00 00 00 17 f9 f3 ab   |       ........ |      [6]: "1982-09-30T18:00:11Z" (402256811) transition_time 0x317-0x31f (8)
0x310|                                             00|               .|      [7]: "1983-03-31T19:00:11Z" (417985211) transition_time 0x31f-0x327 (8)
0x320|00 00 00 18 e9 f2 bb                           |.......         |
0x320|                     00 00 00 00 19 db 27 2c   |       ......', |      [8]: "1983-09-30T18:00:12Z" (433792812) transition_time 0x327-0x32f (8)
0x320|                                             00|               .|      [9]: "1984-03-31T19:00:12Z" (449607612) transition_time 0x32f-0x337 (8)
0x330|00 00 00 1a cc 77 bc                           |.....w.         |
0x330|                     00 00 00 00 1b bc 84 dc   |       ........ |      [10]: "1984-09-29T21:00:12Z" (465339612) transition_time 0x337-0x33f (8)
0x330|                                             00|               .|      [11]: "1985-03-30T21:00:12Z" (481064412) transition_time 0x33f-0x347 (8)
0x340|00 00 00 1c ac 75 dc                           |.....u.         |
0x340|                     00 00 00 00 1d 9c 66 dd   |       ......f. |      [12]: "1985-09-28T21:00:13Z" (496789213) transition_time 0x347-0x34f (8)
0x340|                                             00|               .|      [13]: "1986-03-29T21:00:13Z" (512514013) transition_time 0x34f-0x357 (8)
0x350|00 00 00 1e 8c 57 dd                           |.....W.         |
0x350|                     00 00 00 00 1f 7c 48 dd   |       .....|H. |      [14]: "1986-09-27T21:00:13Z" (528238813) transition_time 0x357-0x35f (8)
0x350|                                             00|               .|      [15]: "1987-03-28T21:00:13Z" (543963613) transition_time 0x35f-0x367 (8)
0x360|00 00 00 20 6c 39 dd                           |... l9.         |
0x360|                     00 00 00 00 21 5c 2a dd   |       ....!\*. |      [16]: "1987-09-26T21:00:13Z" (559688413) transition_time 0x367-0x36f (8)
0x360|                                             00|               .|      [17]: "1988-03-26T21:00:14Z" (575413214) transition_time 0x36f-0x377 (8)
0x370|00 00 00 22 4c 1b de                           |..."L..         |
0x370|                     00 00 00 00 23 3c 0c de   |       ....#<.. |      [18]: "1988-09-24T21:00:14Z" (591138014) transition_time 0x377-0x37f (8)
0x370|                                             00|               .|      [19]: "1989-03-25T21:00:14Z" (606862814) transition_time 0x37f-0x387 (8)
0x380|00 00 00 24 2b fd de                           |...$+..         |
0x380|                     00 00 00 00 25 1b ee de   |       ....%... |      [20]: "1989-09-23T21:00:14Z" (622587614) transition_time 0x387-0x38f (8)
0x380|                                             00|               .|      [21]: "1990-03-24T21:00:15Z" (638312415) transition_time 0x38f-0x397 (8)
0x390|00 00 00 26 0b df df                           |...&...         |
0x390|                     00 00 00 00 27 05 0b 5f   |       ....'.._ |      [22]: "1990-09-29T21:00:15Z" (654642015) transition_time 0x397-0x39f (8)
0x390|                                             00|               .|      [23]: "1991-03-30T21:00:16Z" (670366816) transition_time 0x39f-0x3a7 (8)
0x3a0|00 00 00 27 f4 fc 60                           |...'..`         |
0x3a0|                     00 00 00 00 28 e4 fb 70   |       ....(..p |      [24]: "1991-09-28T22:00:16Z" (686095216) transition_time 0x3a7-0x3af (8)
0x3a0|                                             00|               .|      [25]: "1992-01-18T22:00:16Z" (695772016) transition_time 0x3af-0x3b7 (8)
0x3b0|00 00 00 29 78 a3 70                           |...)x.p         |
0x3b0|                     00 00 00 00 29 d4 de 60   |       ....)..` |      [26]: "1992-03-28T21:00:16Z" (701816416) transition_time 0x3b7-0x3bf (8)
0x3b0|                                             00|               .|      [27]: "1992-09-26T21:00:17Z" (717541217) transition_time 0x3bf-0x3c7 (8)
0x3c0|00 00 00 2a c4 cf 61                           |...*..a         |
0x3c0|                     00 00 00 00 2b b4 c0 61   |       ....+..a |      [28]: "1993-03-27T21:00:17Z" (733266017) transition_time 0x3c7-0x3cf (8)
0x3c0|                                             00|               .|      [29]: "1993-09-25T21:00:18Z" (748990818) transition_time 0x3cf-0x3d7 (8)
0x3d0|00 00 00 2c a4 b1 62                           |...,..b         |
0x3d0|                     00 00 00 00 2d 94 a2 62   |       ....-..b |      [30]: "1994-03-26T21:00:18Z" (764715618) transition_time 0x3d7-0x3df (8)
0x3d0|                                             00|               .|      [31]: "1994-09-24T21:00:19Z" (780440419) transition_time 0x3df-0x3e7 (8)
0x3e0|00 00 00 2e 84 93 63                           |......c         |
0x3e0|                     00 00 00 00 2f 74 84 63   |       ..../t.c |      [32]: "1995-03-25T21:00:19Z" (796165219) transition_time 0x3e7-0x3ef (8)
0x3e0|                                             00|               .|      [33]: "1995-09-23T21:00:19Z" (811890019) transition_time 0x3ef-0x3f7 (8)
0x3f0|00 00 00 30 64 75 63                           |...0duc         |
0x3f0|                     00 00 00 00 31 5d a0 e4   |       ....1].. |      [34]: "1996-03-30T21:00:20Z" (828219620) transition_time 0x3f7-0x3ff (8)
0x3f0|                                             00|               .|      [35]: "1996-10-26T21:00:20Z" (846363620) transition_time 0x3ff-0x407 (8)
0x400|00 00 00 32 72 7b e4                           |...2r{.         |
0x400|                     00 00 00 00 33 3d 82 e4   |       ....3=.. |      [36]: "1997-03-29T21:00:20Z" (859669220) transition_time 0x407-0x40f (8)
0x400|                                             00|               .|      [37]: "1997-10-25T21:00:21Z" (877813221) transition_time 0x40f-0x417 (8)
0x410|00 00 00 34 52 5d e5                           |...4R].         |
0x410|                     00 00 00 00 35 1d 64 e5   |       ....5.d. |      [38]: "1998-03-28T21:00:21Z" (891118821) transition_time 0x417-0x41f (8)
0x410|                                             00|               .|      [39]: "1998-10-24T21:00:21Z" (909262821) transition_time 0x41f-0x427 (8)
0x420|00 00 00 36 32 3f e5                           |...62?.         |
0x420|                     00 00 00 00 36 fd 46 e6   |       ....6.F. |      [40]: "1999-03-27T21:00:22Z" (922568422) transition_time 0x427-0x42f (8)
0x420|                                             00|               .|      [41]: "1999-10-30T21:00:22Z" (941317222) transition_time 0x42f-0x437 (8)
0x430|00 00 00 38 1b 5c 66                           |...8.\f         |
0x430|                     00 00 00 00 38 dd 28 e6   |       ....8.(. |      [42]: "2000-03-25T21:00:22Z" (954018022) transition_time 0x437-0x43f (8)
0x430|                                             00|               .|      [43]: "2000-10-28T21:00:22Z" (972766822) transition_time 0x43f-0x447 (8)
0x440|00 00 00 39 fb 3e 66                           |...9.>f         |
0x440|                     00 00 00 00 3a bd 0a e6   |       ....:... |      [44]: "2001-03-24T21:00:22Z" (985467622) transition_time 0x447-0x44f (8)
0x440|                                             00|               .|      [45]: "2001-10-27T21:00:22Z" (1004216422) transition_time 0x44f-0x457 (8)
0x450|00 00 00 3b db 20 66                           |...;. f         |
0x450|                     00 00 00 00 3c a6 27 66   |       ....<.'f |      [46]: "2002-03-30T21:00:22Z" (1017522022) transition_time 0x457-0x45f (8)
0x450|                                             00|               .|      [47]: "2002-10-26T21:00:22Z" (1035666022) transition_time 0x45f-0x467 (8)
0x460|00 00 00 3d bb 02 66                           |...=..f         |
0x460|                     00 00 00 00 3e 86 09 66   |       ....>..f |      [48]: "2003-03-29T21:00:22Z" (1048971622) transition_time 0x467-0x46f (8)
0x460|                                             00|               .|      [49]: "2003-10-25T21:00:22Z" (1067115622) transition_time 0x46f-0x477 (8)
0x470|00 00 00 3f 9a e4 66                           |...?..f         |
0x470|                     00 00 00 00 40 65 eb 66   |       ....@e.f |      [50]: "2004-03-27T21:00:22Z" (1080421222) transition_time 0x477-0x47f (8)
0x470|                                             00|               .|      [51]: "2004-10-30T21:00:22Z" (1099170022) transition_time 0x47f-0x487 (8)
0x480|00 00 00 41 84 00 e6                           |...A...         |
0x480|                     00 00 00 00 42 45 cd 66   |       ....BE.f |      [52]: "2005-03-26T21:00:22Z" (1111870822) transition_time 0x487-0x48f (8)
0x480|                                             00|               .|      [53]: "2005-10-29T21:00:22Z" (1130619622) transition_time 0x48f-0x497 (8)
0x490|00 00 00 43 63 e2 e6                           |...Cc..         |
0x490|                     00 00 00 00 44 25 af 67   |       ....D%.g |      [54]: "2006-03-25T21:00:23Z" (1143320423) transition_time 0x497-0x49f (8)
0x490|                                             00|               .|      [55]: "2006-10-28T21:00:23Z" (1162069223) transition_time 0x49f-0x4a7 (8)
0x4a0|00 00 00 45 43 c4 e7                           |...EC..         |
0x4a0|                     00 00 00 00 46 05 91 67   |       ....F..g |      [56]: "2007-03-24T21:00:23Z" (1174770023) transition_time 0x4a7-0x4af (8)
0x4a0|                                             00|               .|      [57]: "2007-10-27T21:00:23Z" (1193518823) transition_time 0x4af-0x4b7 (8)
0x4b0|00 00 00 47 23 a6 e7                           |...G#..         |
0x4b0|                     00 00 00 00 47 ee ad e7   |       ....G... |      [58]: "2008-03-29T21:00:23Z" (1206824423) transition_time 0x4b7-0x4bf (8)
0x4b0|                                             00|               .|      [59]: "2008-10-25T21:00:23Z" (1224968423) transition_time 0x4bf-0x4c7 (8)
0x4c0|00 00 00 49 03 88 e7                           |...I...         |
0x4c0|                     00 00 00 00 49 ce 8f e8   |       ....I... |      [60]: "2009-03-28T21:00:24Z" (1238274024) transition_time 0x4c7-0x4cf (8)
0x4c0|                                             00|               .|      [61]: "2009-10-24T21:00:24Z" (1256418024) transition_time 0x4cf-0x4d7 (8)
0x4d0|00 00 00 4a e3 6a e8                           |...J.j.         |
0x4d0|                     00 00 00 00 4b ae 71 e8   |       ....K.q. |      [62]: "2010-03-27T21:00:24Z" (1269723624) transition_time 0x4d7-0x4df (8)
0x4d0|                                             00|               .|      [63]: "2010-10-30T21:00:24Z" (1288472424) transition_time 0x4df-0x4e7 (8)
0x4e0|00 00 00 4c cc 87 68                           |...L..h         |
0x4e0|                     00 00 00 00 4d 8e 53 e8   |       ....M.S. |      [64]: "2011-03-26T21:00:24Z" (1301173224) transition_time 0x4e7-0x4ef (8)
0x4e0|                                             00|               .|      [65]: "2014-10-25T20:00:25Z" (1414267225) transition_time 0x4ef-0x4f7 (8)
0x4f0|00 00 00 54 4c 01 59                           |...TL.Y         |
0x4f0|                     00 00 00 00 64 9b 78 1b   |       ....d.x. |      [66]: "2023-06-28T00:00:27Z" (1687910427) transition_time 0x4f7-0x4ff (8)
     |                                               |                |    transition_types[0:67]: 0x4ff-0x542 (67)
0x4f0|                                             01|               .|      [0]: 1 transition_type 0x4ff-0x500 (1)
0x500|02                                             |.               |      [1]: 2 transition_type 0x500-0x501 (1)
0x500|   04                                          | .              |      [2]: 4 transition_type 0x501-0x502 (1)
0x500|      03                                       |  .             |      [3]: 3 transition_type 0x502-0x503 (1)
0x500|         04                                    |   .            |      [4]: 4 transition_type 0x503-0x504 (1)
0x500|            03                                 |    .           |      [5]: 3 transition_type 0x504-0x505 (1)
0x500|               04                              |     .          |      [6]: 4 transition_type 0x505-0x506 (1)
0x500|                  03                           |      .         |      [7]: 3 transition_type 0x506-0x507 (1)
0x500|                     04                        |       .        |      [8]: 4 transition_type 0x507-0x508 (1)
0x500|                        03                     |        .       |      [9]: 3 transition_type 0x508-0x509 (1)
0x500|                           05                  |         .      |      [10]: 5 transition_type 0x509-0x50a (1)
0x500|                              06               |          .     |      [11]: 6 transition_type 0x50a-0x50b (1)
0x500|                                 05            |           .    |      [12]: 5 transition_type 0x50b-0x50c (1)
0x500|                                    06         |            .   |      [13]: 6 transition_type 0x50c-0x50d (1)
0x500|                                       05      |             .  |      [14]: 5 transition_type 0x50d-0x50e (1)
0x500|                                          06   |              . |      [15]: 6 transition_type 0x50e-0x50f (1)
0x500|                                             05|               .|      [16]: 5 transition_type 0x50f-0x510 (1)
0x510|06                                             |.               |      [17]: 6 transition_type 0x510-0x511 (1)
0x510|   05                                          | .              |      [18]: 5 transition_type 0x511-0x512 (1)
0x510|      06                                       |  .             |      [19]: 6 transition_type 0x512-0x513 (1)
0x510|         05                                    |   .            |      [20]: 5 transition_type 0x513-0x514 (1)
0x510|            06                                 |    .           |      [21]: 6 transition_type 0x514-0x515 (1)
0x510|               05                              |     .          |      [22]: 5 transition_type 0x515-0x516 (1)
0x510|                  07                           |      .         |      [23]: 7 transition_type 0x516-0x517 (1)
0x510|                     08                        |       .        |      [24]: 8 transition_type 0x517-0x518 (1)
0x510|                        05                     |        .       |      [25]: 5 transition_type 0x518-0x519 (1)
0x510|                           06                  |         .      |      [26]: 6 transition_type 0x519-0x51a (1)
0x510|                              05               |          .     |      [27]: 5 transition_type 0x51a-0x51b (1)
0x510|                                 06            |           .    |      [28]: 6 transition_type 0x51b-0x51c (1)
0x510|                                    05         |            .   |      [29]: 5 transition_type 0x51c-0x51d (1)
0x510|                                       06      |             .  |      [30]: 6 transition_type 0x51d-0x51e (1)
0x510|                                          05   |              . |      [31]: 5 transition_type 0x51e-0x51f (1)
0x510|                                             06|               .|      [32]: 6 transition_type 0x51f-0x520 (1)
0x520|05                                             |.               |      [33]: 5 transition_type 0x520-0x521 (1)
0x520|   06                                          | .              |      [34]: 6 transition_type 0x521-0x522 (1)
0x520|      05                                       |  .             |      [35]: 5 transition_type 0x522-0x523 (1)
0x520|         06                                    |   .            |      [36]: 6 transition_type 0x523-0x524 (1)
0x520|            05                                 |    .           |      [37]: 5 transition_type 0x524-0x525 (1)
0x520|               06                              |     .          |      [38]: 6 transition_type 0x525-0x526 (1)
0x520|                  05                           |      .         |      [39]: 5 transition_type 0x526-0x527 (1)
0x520|                     06                        |       .        |      [40]: 6 transition_type 0x527-0x528 (1)
0x520|                        05                     |        .       |      [41]: 5 transition_type 0x528-0x529 (1)
0x520|                           06                  |         .      |      [42]: 6 transition_type 0x529-0x52a (1)
0x520|                              05               |          .     |      [43]: 5 transition_type 0x52a-0x52b (1)
0x520|                                 06            |           .    |      [44]: 6 transition_type 0x52b-0x52c (1)
0x520|                                    05         |            .   |      [45]: 5 transition_type 0x52c-0x52d (1)
0x520|                                       06      |             .  |      [46]: 6 transition_type 0x52d-0x52e (1)
0x520|                                          05   |              . |      [47]: 5 transition_type 0x52e-0x52f (1)
0x520|                                             06|               .|      [48]: 6 transition_type 0x52f-0x530 (1)
0x530|05                                             |.               |      [49]: 5 transition_type 0x530-0x531 (1)
0x530|   06                                          | .              |      [50]: 6 transition_type 0x531-0x532 (1)
0x530|      05                                       |  .             |      [51]: 5 transition_type 0x532-0x533 (1)
0x530|         06                                    |   .            |      [52]: 6 transition_type 0x533-0x534 (1)
0x530|            05                                 |    .           |      [53]: 5 transition_type 0x534-0x535 (1)
0x530|               06                              |     .          |      [54]: 6 transition_type 0x535-0x536 (1)
0x530|                  05                           |      .         |      [55]: 5 transition_type 0x536-0x537 (1)
0x530|                     06                        |       .        |      [56]: 6 transition_type 0x537-0x538 (1)
0x530|                        05                     |        .       |      [57]: 5 transition_type 0x538-0x539 (1)
0x530|                           06                  |         .      |      [58]: 6 transition_type 0x539-0x53a (1)
0x530|                              05               |          .     |      [59]: 5 transition_type 0x53a-0x53b (1)
0x530|                                 06            |           .    |      [60]: 6 transition_type 0x53b-0x53c (1)
0x530|                                    05         |            .   |      [61]: 5 transition_type 0x53c-0x53d (1)
0x530|                                       06      |             .  |      [62]: 6 transition_type 0x53d-0x53e (1)
0x530|                                          05   |              . |      [63]: 5 transition_type 0x53e-0x53f (1)
0x530|                                             09|               .|      [64]: 9 transition_type 0x53f-0x540 (1)
0x540|05                                             |.               |      [65]: 5 transition_type 0x540-0x541 (1)
0x540|   05                                          | .              |      [66]: 5 transition_type 0x541-0x542 (1)
     |                                               |                |    local_time_type_records[0:12]: 0x542-0x58a (72)
     |                                               |                |      [0]{}: local_time_type 0x542-0x548 (6)
0x540|      00 00 38 d9                              |  ..8.          |        utoff: 14553 (valid) 0x542-0x546 (4)
0x540|                  00                           |      .         |        dst: 0 (valid) 0x546-0x547 (1)
0x540|                     00                        |       .        |        idx: 0 (valid) 0x547-0x548 (1)
     |                                               |                |      [1]{}: local_time_type 0x548-0x54e (6)
0x540|                        00 00 34 c1            |        ..4.    |        utoff: 13505 (valid) 0x548-0x54c (4)
0x540|                                    00         |            .   |        dst: 0 (valid) 0x54c-0x54d (1)
0x540|                                       04      |             .  |        idx: 4 (valid) 0x54d-0x54e (1)
     |                                               |                |      [2]{}: local_time_type 0x54e-0x554 (6)
0x540|                                          00 00|              ..|        utoff: 14400 (valid) 0x54e-0x552 (4)
0x550|38 40                                          |8@              |
0x550|      00                                       |  .             |        dst: 0 (valid) 0x552-0x553 (1)
0x550|         08                                    |   .            |        idx: 8 (valid) 0x553-0x554 (1)
     |                                               |                |      [3]{}: local_time_type 0x554-0x55a (6)
0x550|            00 00 54 60                        |    ..T`        |        utoff: 21600 (valid) 0x554-0x558 (4)
0x550|                        01                     |        .       |        dst: 1 (valid) 0x558-0x559 (1)
0x550|                           0c                  |         .      |        idx: 12 (valid) 0x559-0x55a (1)
     |                                               |                |      [4]{}: local_time_type 0x55a-0x560 (6)
0x550|                              00 00 46 50      |          ..FP  |        utoff: 18000 (valid) 0x55a-0x55e (4)
0x550|                                          00   |              . |        dst: 0 (valid) 0x55e-0x55f (1)
0x550|                                             10|               .|        idx: 16 (valid) 0x55f-0x560 (1)
     |                                               |                |      [5]{}: local_time_type 0x560-0x566 (6)
0x560|00 00 46 50                                    |..FP            |        utoff: 18000 (valid) 0x560-0x564 (4)
0x560|            00                                 |    .           |        dst: 0 (valid) 0x564-0x565 (1)
0x560|               10                              |     .          |        idx: 16 (valid) 0x565-0x566 (1)
     |                                               |                |      [6]{}: local_time_type 0x566-0x56c (6)
0x560|                  00 00 54 60                  |      ..T`      |        utoff: 21600 (valid) 0x566-0x56a (4)
0x560|                              01               |          .     |        dst: 1 (valid) 0x56a-0x56b (1)
0x560|                                 0c            |           .    |        idx: 12 (valid) 0x56b-0x56c (1)
     |                                               |                |      [7]{}: local_time_type 0x56c-0x572 (6)
0x560|                                    00 00 46 50|            ..FP|        utoff: 18000 (valid) 0x56c-0x570 (4)
0x570|01                                             |.               |        dst: 1 (valid) 0x570-0x571 (1)
0x570|   10                                          | .              |        idx: 16 (valid) 0x571-0x572 (1)
     |                                               |                |      [8]{}: local_time_type 0x572-0x578 (6)
0x570|      00 00 38 40                              |  ..8@          |        utoff: 14400 (valid) 0x572-0x576 (4)
0x570|                  00                           |      .         |        dst: 0 (valid) 0x576-0x577 (1)
0x570|                     08                        |       .        |        idx: 8 (valid) 0x577-0x578 (1)
     |                                               |                |      [9]{}: local_time_type 0x578-0x57e (6)
0x570|                        00 00 54 60            |        ..T`    |        utoff: 21600 (valid) 0x578-0x57c (4)
0x570|                                    00         |            .   |        dst: 0 (valid) 0x57c-0x57d (1)
0x570|                                       0c      |             .  |        idx: 12 (valid) 0x57d-0x57e (1)
     |                                               |                |      [10]{}: local_time_type 0x57e-0x584 (6)
0x570|                                          00 00|              ..|        utoff: 21600 (valid) 0x57e-0x582 (4)
0x580|54 60                                          |T`              |
0x580|      01                                       |  .             |        dst: 1 (valid) 0x582-0x583 (1)
0x580|         0c                                    |   .            |        idx: 12 (valid) 0x583-0x584 (1)
     |                                               |                |      [11]{}: local_time_type 0x584-0x58a (6)
0x580|            00 00 46 50                        |    ..FP        |        utoff: 18000 (valid) 0x584-0x588 (4)
0x580|                        00                     |        .       |        dst: 0 (valid) 0x588-0x589 (1)
0x580|                           10                  |         .      |        idx: 16 (valid) 0x589-0x58a (1)
     |                                               |                |    time_zone_designations[0:5]: 0x58a-0x59e (20)
0x580|                              4c 4d 54 00      |          LMT.  |      [0]: "LMT" time_zone_designation 0x58a-0x58e (4)
0x580|                                          50 4d|              PM|      [1]: "PMT" time_zone_designation 0x58e-0x592 (4)
0x590|54 00                                          |T.              |
0x590|      2b 30 34 00                              |  +04.          |      [2]: "+04" time_zone_designation 0x592-0x596 (4)
0x590|                  2b 30 36 00                  |      +06.      |      [3]: "+06" time_zone_designation 0x596-0x59a (4)
0x590|                              2b 30 35 00      |          +05.  |      [4]: "+05" time_zone_designation 0x59a-0x59e (4)
     |                                               |                |    leap_second_records[0:27]: 0x59e-0x6e2 (324)
     |                                               |                |      [0]{}: leap_second_record 0x59e-0x5aa (12)
0x590|                                          00 00|              ..|        occur: "1972-07-01T00:00:00Z" (78796800) 0x59e-0x5a6 (8)
0x5a0|00 00 04 b2 58 00                              |....X.          |
0x5a0|                  00 00 00 01                  |      ....      |        corr: 1 0x5a6-0x5aa (4)
     |                                               |                |      [1]{}: leap_second_record 0x5aa-0x5b6 (12)
0x5a0|                              00 00 00 00 05 a4|          ......|        occur: "1973-01-01T00:00:01Z" (94694401) 0x5aa-0x5b2 (8)
0x5b0|ec 01                                          |..              |
0x5b0|      00 00 00 02                              |  ....          |        corr: 2 0x5b2-0x5b6 (4)
     |                                               |                |      [2]{}: leap_second_record 0x5b6-0x5c2 (12)
0x5b0|                  00 00 00 00 07 86 1f 82      |      ........  |        occur: "1974-01-01T00:00:02Z" (126230402) 0x5b6-0x5be (8)
0x5b0|                                          00 00|              ..|        corr: 3 0x5be-0x5c2 (4)
0x5c0|00 03                                          |..              |
     |                                               |                |      [3]{}: leap_second_record 0x5c2-0x5ce (12)
0x5c0|      00 00 00 00 09 67 53 03                  |  .....gS.      |        occur: "1975-01-01T00:00:03Z" (157766403) 0x5c2-0x5ca (8)
0x5c0|                              00 00 00 04      |          ....  |        corr: 4 0x5ca-0x5ce (4)
     |                                               |                |      [4]{}: leap_second_record 0x5ce-0x5da (12)
0x5c0|                                          00 00|              ..|        occur: "1976-01-01T00:00:04Z" (189302404) 0x5ce-0x5d6 (8)
0x5d0|00 00 0b 48 86 84                              |...H..          |
0x5d0|                  00 00 00 05                  |      ....      |        corr: 5 0x5d6-0x5da (4)
     |                                               |                |      [5]{}: leap_second_record 0x5da-0x5e6 (12)
0x5d0|                              00 00 00 00 0d 2b|          .....+|        occur: "1977-01-01T00:00:05Z" (220924805) 0x5da-0x5e2 (8)
0x5e0|0b 85                                          |..              |
0x5e0|      00 00 00 06                              |  ....          |        corr: 6 0x5e2-0x5e6 (4)
     |                                               |                |      [6]{}: leap_second_record 0x5e6-0x5f2 (12)
0x5e0|                  00 00 00 00 0f 0c 3f 06      |      ......?.  |        occur: "1978-01-01T00:00:06Z" (252460806) 0x5e6-0x5ee (8)
0x5e0|                                          00 00|              ..|        corr: 7 0x5ee-0x5f2 (4)
0x5f0|00 07                                          |..              |
     |                                               |                |      [7]{}: leap_second_record 0x5f2-0x5fe (12)
0x5f0|      00 00 00 00 10 ed 72 87                  |  ......r.      |        occur: "1979-01-01T00:00:07Z" (283996807) 0x5f2-0x5fa (8)
0x5f0|                              00 00 00 08      |          ....  |        corr: 8 0x5fa-0x5fe (4)
     |                                               |                |      [8]{}: leap_second_record 0x5fe-0x60a (12)
0x5f0|                                          00 00|              ..|        occur: "1980-01-01T00:00:08Z" (315532808) 0x5fe-0x606 (8)
0x600|00 00 12 ce a6 08                              |......          |
0x600|                  00 00 00 09                  |      ....      |        corr: 9 0x606-0x60a (4)
     |                                               |                |      [9]{}: leap_second_record 0x60a-0x616 (12)
0x600|                              00 00 00 00 15 9f|          ......|        occur: "1981-07-01T00:00:09Z" (362793609) 0x60a-0x612 (8)
0x610|ca 89                                          |..              |
0x610|      00 00 00 0a                              |  ....          |        corr: 10 0x612-0x616 (4)
     |                                               |                |      [10]{}: leap_second_record 0x616-0x622 (12)
0x610|                  00 00 00 00 17 80 fe 0a      |      ........  |        occur: "1982-07-01T00:00:10Z" (394329610) 0x616-0x61e (8)
0x610|                                          00 00|              ..|        corr: 11 0x61e-0x622 (4)
0x620|00 0b                                          |..              |
     |                                               |                |      [11]{}: leap_second_record 0x622-0x62e (12)
0x620|      00 00 00 00 19 62 31 8b                  |  .....b1.      |        occur: "1983-07-01T00:00:11Z" (425865611) 0x622-0x62a (8)
0x620|                              00 00 00 0c      |          ....  |        corr: 12 0x62a-0x62e (4)
     |                                               |                |      [12]{}: leap_second_record 0x62e-0x63a (12)
0x620|                                          00 00|              ..|        occur: "1985-07-01T00:00:12Z" (489024012) 0x62e-0x636 (8)
0x630|00 00 1d 25 ea 0c                              |...%..          |
0x630|                  00 00 00 0d                  |      ....      |        corr: 13 0x636-0x63a (4)
     |                                               |                |      [13]{}: leap_second_record 0x63a-0x646 (12)
0x630|                              00 00 00 00 21 da|          ....!.|        occur: "1988-01-01T00:00:13Z" (567993613) 0x63a-0x642 (8)
0x640|e5 0d                                          |..              |
0x640|      00 00 00 0e                              |  ....          |        corr: 14 0x642-0x646 (4)
     |                                               |                |      [14]{}: leap_second_record 0x646-0x652 (12)
0x640|                  00 00 00 00 25 9e 9d 8e      |      ....%...  |        occur: "1990-01-01T00:00:14Z" (631152014) 0x646-0x64e (8)
0x640|                                          00 00|              ..|        corr: 15 0x64e-0x652 (4)
0x650|00 0f                                          |..              |
     |                                               |                |      [15]{}: leap_second_record 0x652-0x65e (12)
0x650|      00 00 00 00 27 7f d1 0f                  |  ....'...      |        occur: "1991-01-01T00:00:15Z" (662688015) 0x652-0x65a (8)
0x650|                              00 00 00 10      |          ....  |        corr: 16 0x65a-0x65e (4)
     |                                               |                |      [16]{}: leap_second_record 0x65e-0x66a (12)
0x650|                                          00 00|              ..|        occur: "1992-07-01T00:00:16Z" (709948816) 0x65e-0x666 (8)
0x660|00 00 2a 50 f5 90                              |..*P..          |
0x660|                  00 00 00 11                  |      ....      |        corr: 17 0x666-0x66a (4)
     |                                               |                |      [17]{}: leap_second_record 0x66a-0x676 (12)
0x660|                              00 00 00 00 2c 32|          ....,2|        occur: "1993-07-01T00:00:17Z" (741484817) 0x66a-0x672 (8)
0x670|29 11                                          |).              |
0x670|      00 00 00 12                              |  ....          |        corr: 18 0x672-0x676 (4)
     |                                               |                |      [18]{}: leap_second_record 0x676-0x682 (12)
0x670|                  00 00 00 00 2e 13 5c 92      |      ......\.  |        occur: "1994-07-01T00:00:18Z" (773020818) 0x676-0x67e (8)
0x670|                                          00 00|              ..|        corr: 19 0x67e-0x682 (4)
0x680|00 13                                          |..              |
     |                                               |                |      [19]{}: leap_second_record 0x682-0x68e (12)
0x680|      00 00 00 00 30 e7 24 13                  |  ....0.$.      |        occur: "1996-01-01T00:00:19Z" (820454419) 0x682-0x68a (8)
0x680|                              00 00 00 14      |          ....  |        corr: 20 0x68a-0x68e (4)
     |                                               |                |      [20]{}: leap_second_record 0x68e-0x69a (12)
0x680|                                          00 00|              ..|        occur: "1997-07-01T00:00:20Z" (867715220) 0x68e-0x696 (8)
0x690|00 00 33 b8 48 94                              |..3.H.          |
0x690|                  00 00 00 15                  |      ....      |        corr: 21 0x696-0x69a (4)
     |                                               |                |      [21]{}: leap_second_record 0x69a-0x6a6 (12)
0x690|                              00 00 00 00 36 8c|          ....6.|        occur: "1999-01-01T00:00:21Z" (915148821) 0x69a-0x6a2 (8)
0x6a0|10 15                                          |..              |
0x6a0|      00 00 00 16                              |  ....          |        corr: 22 0x6a2-0x6a6 (4)
     |                                               |                |      [22]{}: leap_second_record 0x6a6-0x6b2 (12)
0x6a0|                  00 00 00 00 43 b7 1b 96      |      ....C...  |        occur: "2006-01-01T00:00:22Z" (1136073622) 0x6a6-0x6ae (8)
0x6a0|                                          00 00|              ..|        corr: 23 0x6ae-0x6b2 (4)
0x6b0|00 17                                          |..              |
     |                                               |                |      [23]{}: leap_second_record 0x6b2-0x6be (12)
0x6b0|      00 00 00 00 49 5c 07 97                  |  ....I\..      |        occur: "2009-01-01T00:00:23Z" (1230768023) 0x6b2-0x6ba (8)
0x6b0|                              00 00 00 18      |          ....  |        corr: 24 0x6ba-0x6be (4)
     |                                               |                |      [24]{}: leap_second_record 0x6be-0x6ca (12)
0x6b0|                                          00 00|              ..|        occur: "2012-07-01T00:00:24Z" (1341100824) 0x6be-0x6c6 (8)
0x6c0|00 00 4f ef 93 18                              |..O...          |
0x6c0|                  00 00 00 19                  |      ....      |        corr: 25 0x6c6-0x6ca (4)
     |                                               |                |      [25]{}: leap_second_record 0x6ca-0x6d6 (12)
0x6c0|                              00 00 00 00 55 93|          ....U.|        occur: "2015-07-01T00:00:25Z" (1435708825) 0x6ca-0x6d2 (8)
0x6d0|2d 99                                          |-.              |
0x6d0|      00 00 00 1a                              |  ....          |        corr: 26 0x6d2-0x6d6 (4)
     |                                               |                |      [26]{}: leap_second_record 0x6d6-0x6e2 (12)
0x6d0|                  00 00 00 00 58 68 46 9a      |      ....XhF.  |        occur: "2017-01-01T00:00:26Z" (1483228826) 0x6d6-0x6de (8)
0x6d0|                                          00 00|              ..|        corr: 27 0x6de-0x6e2 (4)
0x6e0|00 1b                                          |..              |
     |                                               |                |    standard_wall_indicators[0:12]: 0x6e2-0x6ee (12)
0x6e0|      00                                       |  .             |      [0]: 0 standard_wall_indicator (valid) 0x6e2-0x6e3 (1)
0x6e0|         00                                    |   .            |      [1]: 0 standard_wall_indicator (valid) 0x6e3-0x6e4 (1)
0x6e0|            00                                 |    .           |      [2]: 0 standard_wall_indicator (valid) 0x6e4-0x6e5 (1)
0x6e0|               00                              |     .          |      [3]: 0 standard_wall_indicator (valid) 0x6e5-0x6e6 (1)
0x6e0|                  00                           |      .         |      [4]: 0 standard_wall_indicator (valid) 0x6e6-0x6e7 (1)
0x6e0|                     01                        |       .        |      [5]: 1 standard_wall_indicator (valid) 0x6e7-0x6e8 (1)
0x6e0|                        01                     |        .       |      [6]: 1 standard_wall_indicator (valid) 0x6e8-0x6e9 (1)
0x6e0|                           01                  |         .      |      [7]: 1 standard_wall_indicator (valid) 0x6e9-0x6ea (1)
0x6e0|                              01               |          .     |      [8]: 1 standard_wall_indicator (valid) 0x6ea-0x6eb (1)
0x6e0|                                 01            |           .    |      [9]: 1 standard_wall_indicator (valid) 0x6eb-0x6ec (1)
0x6e0|                                    01         |            .   |      [10]: 1 standard_wall_indicator (valid) 0x6ec-0x6ed (1)
0x6e0|                                       01      |             .  |      [11]: 1 standard_wall_indicator (valid) 0x6ed-0x6ee (1)
     |                                               |                |    ut_local_indicators[0:0]: 0x6ee-0x6ee (0)
     |                                               |                |  footer{}: 0x6ee-0x6f0 (2)
0x6e0|                                          0a   |              . |    nl1: 10 (valid) 0x6ee-0x6ef (1)
     |                                               |                |    tz_string: "" 0x6ef-0x6ef (0)
0x6e0|                                             0a|               .|    nl2: 10 (valid) 0x6ef-0x6f0 (1)
