$ fq -d tzif dv Yellowknife
     |00 01 02 03 04 05 06 07 08 09 0a 0b 0c 0d 0e 0f|0123456789abcdef|.{}: Yellowknife (tzif) 0x0-0x82c (2092)
     |                                               |                |  v1header{}: 0x0-0x2c (44)
0x000|54 5a 69 66                                    |TZif            |    magic: 0x545a6966 (valid) 0x0-0x4 (4)
0x000|            32                                 |    2           |    ver: "2" (0x32) (valid) 0x4-0x5 (1)
0x000|               00 00 00 00 00 00 00 00 00 00 00|     ...........|    reserved: raw bits 0x5-0x14 (15)
0x010|00 00 00 00                                    |....            |
0x010|            00 00 00 06                        |    ....        |    isutcnt: 6 0x14-0x18 (4)
0x010|                        00 00 00 06            |        ....    |    isstdcnt: 6 0x18-0x1c (4)
0x010|                                    00 00 00 1b|            ....|    leapcnt: 27 0x1c-0x20 (4)
0x020|00 00 00 5e                                    |...^            |    timecnt: 94 0x20-0x24 (4)
0x020|            00 00 00 06                        |    ....        |    typecnt: 6 0x24-0x28 (4)
0x020|                        00 00 00 19            |        ....    |    charcnt: 25 0x28-0x2c (4)
     |                                               |                |  v1datablock{}: 0x2c-0x323 (759)
     |                                               |                |    transition_times[0:94]: 0x2c-0x1a4 (376)
0x020|                                    be 2a 18 00|            .*..|      [0]: "1935-01-01T00:00:00Z" (-1104537600) transition_time 0x2c-0x30 (4)
0x030|cb 89 0c 90                                    |....            |      [1]: "1942-02-09T09:00:00Z" (-880210800) transition_time 0x30-0x34 (4)
0x030|            d2 23 f4 70                        |    .#.p        |      [2]: "1945-08-14T23:00:00Z" (-769395600) transition_time 0x34-0x38 (4)
0x030|                        d2 61 18 00            |        .a..    |      [3]: "1945-09-30T08:00:00Z" (-765388800) transition_time 0x38-0x3c (4)
0x030|                                    f7 2f 5a 70|            ./Zp|      [4]: "1965-04-25T07:00:00Z" (-147891600) transition_time 0x3c-0x40 (4)
0x040|f8 28 85 f0                                    |.(..            |      [5]: "1965-10-31T07:00:00Z" (-131562000) transition_time 0x40-0x44 (4)
0x040|            13 69 64 19                        |    .id.        |      [6]: "1980-04-27T09:00:09Z" (325674009) transition_time 0x44-0x48 (4)
0x040|                        14 59 47 09            |        .YG.    |      [7]: "1980-10-26T08:00:09Z" (341395209) transition_time 0x48-0x4c (4)
0x040|                                    15 49 46 19|            .IF.|      [8]: "1981-04-26T09:00:09Z" (357123609) transition_time 0x4c-0x50 (4)
0x050|16 39 29 0a                                    |.9).            |      [9]: "1981-10-25T08:00:10Z" (372844810) transition_time 0x50-0x54 (4)
0x050|            17 29 28 1a                        |    .)(.        |      [10]: "1982-04-25T09:00:10Z" (388573210) transition_time 0x54-0x58 (4)
0x050|                        18 22 45 8b            |        ."E.    |      [11]: "1982-10-31T08:00:11Z" (404899211) transition_time 0x58-0x5c (4)
0x050|                                    19 09 0a 1b|            ....|      [12]: "1983-04-24T09:00:11Z" (420022811) transition_time 0x5c-0x60 (4)
0x060|1a 02 27 8c                                    |..'.            |      [13]: "1983-10-30T08:00:12Z" (436348812) transition_time 0x60-0x64 (4)
0x060|            1a f2 26 9c                        |    ..&.        |      [14]: "1984-04-29T09:00:12Z" (452077212) transition_time 0x64-0x68 (4)
0x060|                        1b e2 09 8c            |        ....    |      [15]: "1984-10-28T08:00:12Z" (467798412) transition_time 0x68-0x6c (4)
0x060|                                    1c d2 08 9c|            ....|      [16]: "1985-04-28T09:00:12Z" (483526812) transition_time 0x6c-0x70 (4)
0x070|1d c1 eb 8d                                    |....            |      [17]: "1985-10-27T08:00:13Z" (499248013) transition_time 0x70-0x74 (4)
0x070|            1e b1 ea 9d                        |    ....        |      [18]: "1986-04-27T09:00:13Z" (514976413) transition_time 0x74-0x78 (4)
0x070|                        1f a1 cd 8d            |        ....    |      [19]: "1986-10-26T08:00:13Z" (530697613) transition_time 0x78-0x7c (4)
0x070|                                    20 76 1d 1d|             v..|      [20]: "1987-04-05T09:00:13Z" (544611613) transition_time 0x7c-0x80 (4)
0x080|21 81 af 8d                                    |!...            |      [21]: "1987-10-25T08:00:13Z" (562147213) transition_time 0x80-0x84 (4)
0x080|            22 55 ff 1e                        |    "U..        |      [22]: "1988-04-03T09:00:14Z" (576061214) transition_time 0x84-0x88 (4)
0x080|                        23 6a cc 0e            |        #j..    |      [23]: "1988-10-30T08:00:14Z" (594201614) transition_time 0x88-0x8c (4)
0x080|                                    24 35 e1 1e|            $5..|      [24]: "1989-04-02T09:00:14Z" (607510814) transition_time 0x8c-0x90 (4)
0x090|25 4a ae 0e                                    |%J..            |      [25]: "1989-10-29T08:00:14Z" (625651214) transition_time 0x90-0x94 (4)
0x090|            26 15 c3 1f                        |    &...        |      [26]: "1990-04-01T09:00:15Z" (638960415) transition_time 0x94-0x98 (4)
0x090|                        27 2a 90 0f            |        '*..    |      [27]: "1990-10-28T08:00:15Z" (657100815) transition_time 0x98-0x9c (4)
0x090|                                    27 fe df a0|            '...|      [28]: "1991-04-07T09:00:16Z" (671014816) transition_time 0x9c-0xa0 (4)
0x0a0|29 0a 72 10                                    |).r.            |      [29]: "1991-10-27T08:00:16Z" (688550416) transition_time 0xa0-0xa4 (4)
0x0a0|            29 de c1 a0                        |    )...        |      [30]: "1992-04-05T09:00:16Z" (702464416) transition_time 0xa4-0xa8 (4)
0x0a0|                        2a ea 54 11            |        *.T.    |      [31]: "1992-10-25T08:00:17Z" (720000017) transition_time 0xa8-0xac (4)
0x0a0|                                    2b be a3 a1|            +...|      [32]: "1993-04-04T09:00:17Z" (733914017) transition_time 0xac-0xb0 (4)
0x0b0|2c d3 70 92                                    |,.p.            |      [33]: "1993-10-31T08:00:18Z" (752054418) transition_time 0xb0-0xb4 (4)
0x0b0|            2d 9e 85 a2                        |    -...        |      [34]: "1994-04-03T09:00:18Z" (765363618) transition_time 0xb4-0xb8 (4)
0x0b0|                        2e b3 52 93            |        ..R.    |      [35]: "1994-10-30T08:00:19Z" (783504019) transition_time 0xb8-0xbc (4)
0x0b0|                                    2f 7e 67 a3|            /~g.|      [36]: "1995-04-02T09:00:19Z" (796813219) transition_time 0xbc-0xc0 (4)
0x0c0|30 93 34 93                                    |0.4.            |      [37]: "1995-10-29T08:00:19Z" (814953619) transition_time 0xc0-0xc4 (4)
0x0c0|            31 67 84 24                        |    1g.$        |      [38]: "1996-04-07T09:00:20Z" (828867620) transition_time 0xc4-0xc8 (4)
0x0c0|                        32 73 16 94            |        2s..    |      [39]: "1996-10-27T08:00:20Z" (846403220) transition_time 0xc8-0xcc (4)
0x0c0|                                    33 47 66 24|            3Gf$|      [40]: "1997-04-06T09:00:20Z" (860317220) transition_time 0xcc-0xd0 (4)
0x0d0|34 52 f8 95                                    |4R..            |      [41]: "1997-10-26T08:00:21Z" (877852821) transition_time 0xd0-0xd4 (4)
0x0d0|            35 27 48 25                        |    5'H%        |      [42]: "1998-04-05T09:00:21Z" (891766821) transition_time 0xd4-0xd8 (4)
0x0d0|                        36 32 da 95            |        62..    |      [43]: "1998-10-25T08:00:21Z" (909302421) transition_time 0xd8-0xdc (4)
0x0d0|                                    37 07 2a 26|            7.*&|      [44]: "1999-04-04T09:00:22Z" (923216422) transition_time 0xdc-0xe0 (4)
0x0e0|38 1b f7 16                                    |8...            |      [45]: "1999-10-31T08:00:22Z" (941356822) transition_time 0xe0-0xe4 (4)
0x0e0|            38 e7 0c 26                        |    8..&        |      [46]: "2000-04-02T09:00:22Z" (954666022) transition_time 0xe4-0xe8 (4)
0x0e0|                        39 fb d9 16            |        9...    |      [47]: "2000-10-29T08:00:22Z" (972806422) transition_time 0xe8-0xec (4)
0x0e0|                                    3a c6 ee 26|            :..&|      [48]: "2001-04-01T09:00:22Z" (986115622) transition_time 0xec-0xf0 (4)
0x0f0|3b db bb 16                                    |;...            |      [49]: "2001-10-28T08:00:22Z" (1004256022) transition_time 0xf0-0xf4 (4)
0x0f0|            3c b0 0a a6                        |    <...        |      [50]: "2002-04-07T09:00:22Z" (1018170022) transition_time 0xf4-0xf8 (4)
0x0f0|                        3d bb 9d 16            |        =...    |      [51]: "2002-10-27T08:00:22Z" (1035705622) transition_time 0xf8-0xfc (4)
0x0f0|                                    3e 8f ec a6|            >...|      [52]: "2003-04-06T09:00:22Z" (1049619622) transition_time 0xfc-0x100 (4)
0x100|3f 9b 7f 16                                    |?...            |      [53]: "2003-10-26T08:00:22Z" (1067155222) transition_time 0x100-0x104 (4)
0x100|            40 6f ce a6                        |    @o..        |      [54]: "2004-04-04T09:00:22Z" (1081069222) transition_time 0x104-0x108 (4)
0x100|                        41 84 9b 96            |        A...    |      [55]: "2004-10-31T08:00:22Z" (1099209622) transition_time 0x108-0x10c (4)
0x100|                                    42 4f b0 a6|            BO..|      [56]: "2005-04-03T09:00:22Z" (1112518822) transition_time 0x10c-0x110 (4)
0x110|43 64 7d 96                                    |Cd}.            |      [57]: "2005-10-30T08:00:22Z" (1130659222) transition_time 0x110-0x114 (4)
0x110|            44 2f 92 a7                        |    D/..        |      [58]: "2006-04-02T09:00:23Z" (1143968423) transition_time 0x114-0x118 (4)
0x110|                        45 44 5f 97            |        ED_.    |      [59]: "2006-10-29T08:00:23Z" (1162108823) transition_time 0x118-0x11c (4)
0x110|                                    45 f3 c5 27|            E..'|      [60]: "2007-03-11T09:00:23Z" (1173603623) transition_time 0x11c-0x120 (4)
0x120|47 2d 7c 17                                    |G-|.            |      [61]: "2007-11-04T08:00:23Z" (1194163223) transition_time 0x120-0x124 (4)
0x120|            47 d3 a7 27                        |    G..'        |      [62]: "2008-03-09T09:00:23Z" (1205053223) transition_time 0x124-0x128 (4)
0x120|                        49 0d 5e 17            |        I.^.    |      [63]: "2008-11-02T08:00:23Z" (1225612823) transition_time 0x128-0x12c (4)
0x120|                                    49 b3 89 28|            I..(|      [64]: "2009-03-08T09:00:24Z" (1236502824) transition_time 0x12c-0x130 (4)
0x130|4a ed 40 18                                    |J.@.            |      [65]: "2009-11-01T08:00:24Z" (1257062424) transition_time 0x130-0x134 (4)
0x130|            4b 9c a5 a8                        |    K...        |      [66]: "2010-03-14T09:00:24Z" (1268557224) transition_time 0x134-0x138 (4)
0x130|                        4c d6 5c 98            |        L.\.    |      [67]: "2010-11-07T08:00:24Z" (1289116824) transition_time 0x138-0x13c (4)
0x130|                                    4d 7c 87 a8|            M|..|      [68]: "2011-03-13T09:00:24Z" (1300006824) transition_time 0x13c-0x140 (4)
0x140|4e b6 3e 98                                    |N.>.            |      [69]: "2011-11-06T08:00:24Z" (1320566424) transition_time 0x140-0x144 (4)
0x140|            4f 5c 69 a8                        |    O\i.        |      [70]: "2012-03-11T09:00:24Z" (1331456424) transition_time 0x144-0x148 (4)
0x140|                        50 96 20 99            |        P. .    |      [71]: "2012-11-04T08:00:25Z" (1352016025) transition_time 0x148-0x14c (4)
0x140|                                    51 3c 4b a9|            Q<K.|      [72]: "2013-03-10T09:00:25Z" (1362906025) transition_time 0x14c-0x150 (4)
0x150|52 76 02 99                                    |Rv..            |      [73]: "2013-11-03T08:00:25Z" (1383465625) transition_time 0x150-0x154 (4)
0x150|            53 1c 2d a9                        |    S.-.        |      [74]: "2014-03-09T09:00:25Z" (1394355625) transition_time 0x154-0x158 (4)
0x150|                        54 55 e4 99            |        TU..    |      [75]: "2014-11-02T08:00:25Z" (1414915225) transition_time 0x158-0x15c (4)
0x150|                                    54 fc 0f a9|            T...|      [76]: "2015-03-08T09:00:25Z" (1425805225) transition_time 0x15c-0x160 (4)
0x160|56 35 c6 9a                                    |V5..            |      [77]: "2015-11-01T08:00:26Z" (1446364826) transition_time 0x160-0x164 (4)
0x160|            56 e5 2c 2a                        |    V.,*        |      [78]: "2016-03-13T09:00:26Z" (1457859626) transition_time 0x164-0x168 (4)
0x160|                        58 1e e3 1a            |        X...    |      [79]: "2016-11-06T08:00:26Z" (1478419226) transition_time 0x168-0x16c (4)
0x160|                                    58 c5 0e 2b|            X..+|      [80]: "2017-03-12T09:00:27Z" (1489309227) transition_time 0x16c-0x170 (4)
0x170|59 fe c5 1b                                    |Y...            |      [81]: "2017-11-05T08:00:27Z" (1509868827) transition_time 0x170-0x174 (4)
0x170|            5a a4 f0 2b                        |    Z..+        |      [82]: "2018-03-11T09:00:27Z" (1520758827) transition_time 0x174-0x178 (4)
0x170|                        5b de a7 1b            |        [...    |      [83]: "2018-11-04T08:00:27Z" (1541318427) transition_time 0x178-0x17c (4)
0x170|                                    5c 84 d2 2b|            \..+|      [84]: "2019-03-10T09:00:27Z" (1552208427) transition_time 0x17c-0x180 (4)
0x180|5d be 89 1b                                    |]...            |      [85]: "2019-11-03T08:00:27Z" (1572768027) transition_time 0x180-0x184 (4)
0x180|            5e 64 b4 2b                        |    ^d.+        |      [86]: "2020-03-08T09:00:27Z" (1583658027) transition_time 0x184-0x188 (4)
0x180|                        5f 9e 6b 1b            |        _.k.    |      [87]: "2020-11-01T08:00:27Z" (1604217627) transition_time 0x188-0x18c (4)
0x180|                                    60 4d d0 ab|            `M..|      [88]: "2021-03-14T09:00:27Z" (1615712427) transition_time 0x18c-0x190 (4)
0x190|61 87 87 9b                                    |a...            |      [89]: "2021-11-07T08:00:27Z" (1636272027) transition_time 0x190-0x194 (4)
0x190|            62 2d b2 ab                        |    b-..        |      [90]: "2022-03-13T09:00:27Z" (1647162027) transition_time 0x194-0x198 (4)
0x190|                        63 67 69 9b            |        cgi.    |      [91]: "2022-11-06T08:00:27Z" (1667721627) transition_time 0x198-0x19c (4)
0x190|                                    64 0d 94 ab|            d...|      [92]: "2023-03-12T09:00:27Z" (1678611627) transition_time 0x19c-0x1a0 (4)
0x1a0|64 9b 78 1b                                    |d.x.            |      [93]: "2023-06-28T00:00:27Z" (1687910427) transition_time 0x1a0-0x1a4 (4)
     |                                               |                |    transition_types[0:94]: 0x1a4-0x202 (94)
0x1a0|            03                                 |    .           |      [0]: 3 transition_type 0x1a4-0x1a5 (1)
0x1a0|               01                              |     .          |      [1]: 1 transition_type 0x1a5-0x1a6 (1)
0x1a0|                  02                           |      .         |      [2]: 2 transition_type 0x1a6-0x1a7 (1)
0x1a0|                     03                        |       .        |      [3]: 3 transition_type 0x1a7-0x1a8 (1)
0x1a0|                        04                     |        .       |      [4]: 4 transition_type 0x1a8-0x1a9 (1)
0x1a0|                           03                  |         .      |      [5]: 3 transition_type 0x1a9-0x1aa (1)
0x1a0|                              05               |          .     |      [6]: 5 transition_type 0x1aa-0x1ab (1)
0x1a0|                                 03            |           .    |      [7]: 3 transition_type 0x1ab-0x1ac (1)
0x1a0|                                    05         |            .   |      [8]: 5 transition_type 0x1ac-0x1ad (1)
0x1a0|                                       03      |             .  |      [9]: 3 transition_type 0x1ad-0x1ae (1)
0x1a0|                                          05   |              . |      [10]: 5 transition_type 0x1ae-0x1af (1)
0x1a0|                                             03|               .|      [11]: 3 transition_type 0x1af-0x1b0 (1)
0x1b0|05                                             |.               |      [12]: 5 transition_type 0x1b0-0x1b1 (1)
0x1b0|   03                                          | .              |      [13]: 3 transition_type 0x1b1-0x1b2 (1)
0x1b0|      05                                       |  .             |      [14]: 5 transition_type 0x1b2-0x1b3 (1)
0x1b0|         03                                    |   .            |      [15]: 3 transition_type 0x1b3-0x1b4 (1)
0x1b0|            05                                 |    .           |      [16]: 5 transition_type 0x1b4-0x1b5 (1)
0x1b0|               03                              |     .          |      [17]: 3 transition_type 0x1b5-0x1b6 (1)
0x1b0|                  05                           |      .         |      [18]: 5 transition_type 0x1b6-0x1b7 (1)
0x1b0|                     03                        |       .        |      [19]: 3 transition_type 0x1b7-0x1b8 (1)
0x1b0|                        05                     |        .       |      [20]: 5 transition_type 0x1b8-0x1b9 (1)
0x1b0|                           03                  |         .      |      [21]: 3 transition_type 0x1b9-0x1ba (1)
0x1b0|                              05               |          .     |      [22]: 5 transition_type 0x1ba-0x1bb (1)
0x1b0|                                 03            |           .    |      [23]: 3 transition_type 0x1bb-0x1bc (1)
0x1b0|                                    05         |            .   |      [24]: 5 transition_type 0x1bc-0x1bd (1)
0x1b0|                                       03      |             .  |      [25]: 3 transition_type 0x1bd-0x1be (1)
0x1b0|                                          05   |              . |      [26]: 5 transition_type 0x1be-0x1bf (1)
0x1b0|                                             03|               .|      [27]: 3 transition_type 0x1bf-0x1c0 (1)
0x1c0|05                                             |.               |      [28]: 5 transition_type 0x1c0-0x1c1 (1)
0x1c0|   03                                          | .              |      [29]: 3 transition_type 0x1c1-0x1c2 (1)
0x1c0|      05                                       |  .             |      [30]: 5 transition_type 0x1c2-0x1c3 (1)
0x1c0|         03                                    |   .            |      [31]: 3 transition_type 0x1c3-0x1c4 (1)
0x1c0|            05                                 |    .           |      [32]: 5 transition_type 0x1c4-0x1c5 (1)
0x1c0|               03                              |     .          |      [33]: 3 transition_type 0x1c5-0x1c6 (1)
0x1c0|                  05                           |      .         |      [34]: 5 transition_type 0x1c6-0x1c7 (1)
0x1c0|                     03                        |       .        |      [35]: 3 transition_type 0x1c7-0x1c8 (1)
0x1c0|                        05                     |        .       |      [36]: 5 transition_type 0x1c8-0x1c9 (1)
0x1c0|                           03                  |         .      |      [37]: 3 transition_type 0x1c9-0x1ca (1)
0x1c0|                              05               |          .     |      [38]: 5 transition_type 0x1ca-0x1cb (1)
0x1c0|                                 03            |           .    |      [39]: 3 transition_type 0x1cb-0x1cc (1)
0x1c0|                                    05         |            .   |      [40]: 5 transition_type 0x1cc-0x1cd (1)
0x1c0|                                       03      |             .  |      [41]: 3 transition_type 0x1cd-0x1ce (1)
0x1c0|                                          05   |              . |      [42]: 5 transition_type 0x1ce-0x1cf (1)
0x1c0|                                             03|               .|      [43]: 3 transition_type 0x1cf-0x1d0 (1)
0x1d0|05                                             |.               |      [44]: 5 transition_type 0x1d0-0x1d1 (1)
0x1d0|   03                                          | .              |      [45]: 3 transition_type 0x1d1-0x1d2 (1)
0x1d0|      05                                       |  .             |      [46]: 5 transition_type 0x1d2-0x1d3 (1)
0x1d0|         03                                    |   .            |      [47]: 3 transition_type 0x1d3-0x1d4 (1)
0x1d0|            05                                 |    .           |      [48]: 5 transition_type 0x1d4-0x1d5 (1)
0x1d0|               03                              |     .          |      [49]: 3 transition_type 0x1d5-0x1d6 (1)
0x1d0|                  05                           |      .         |      [50]: 5 transition_type 0x1d6-0x1d7 (1)
0x1d0|                     03                        |       .        |      [51]: 3 transition_type 0x1d7-0x1d8 (1)
0x1d0|                        05                     |        .       |      [52]: 5 transition_type 0x1d8-0x1d9 (1)
0x1d0|                           03                  |         .      |      [53]: 3 transition_type 0x1d9-0x1da (1)
0x1d0|                              05               |          .     |      [54]: 5 transition_type 0x1da-0x1db (1)
0x1d0|                                 03            |           .    |      [55]: 3 transition_type 0x1db-0x1dc (1)
0x1d0|                                    05         |            .   |      [56]: 5 transition_type 0x1dc-0x1dd (1)
0x1d0|                                       03      |             .  |      [57]: 3 transition_type 0x1dd-0x1de (1)
0x1d0|                                          05   |              . |      [58]: 5 transition_type 0x1de-0x1df (1)
0x1d0|                                             03|               .|      [59]: 3 transition_type 0x1df-0x1e0 (1)
0x1e0|05                                             |.               |      [60]: 5 transition_type 0x1e0-0x1e1 (1)
0x1e0|   03                                          | .              |      [61]: 3 transition_type 0x1e1-0x1e2 (1)
0x1e0|      05                                       |  .             |      [62]: 5 transition_type 0x1e2-0x1e3 (1)
0x1e0|         03                                    |   .            |      [63]: 3 transition_type 0x1e3-0x1e4 (1)
0x1e0|            05                                 |    .           |      [64]: 5 transition_type 0x1e4-0x1e5 (1)
0x1e0|               03                              |     .          |      [65]: 3 transition_type 0x1e5-0x1e6 (1)
0x1e0|                  05                           |      .         |      [66]: 5 transition_type 0x1e6-0x1e7 (1)
0x1e0|                     03                        |       .        |      [67]: 3 transition_type 0x1e7-0x1e8 (1)
0x1e0|                        05                     |        .       |      [68]: 5 transition_type 0x1e8-0x1e9 (1)
0x1e0|                           03                  |         .      |      [69]: 3 transition_type 0x1e9-0x1ea (1)
0x1e0|                              05               |          .     |      [70]: 5 transition_type 0x1ea-0x1eb (1)
0x1e0|                                 03            |           .    |      [71]: 3 transition_type 0x1eb-0x1ec (1)
0x1e0|                                    05         |            .   |      [72]: 5 transition_type 0x1ec-0x1ed (1)
0x1e0|                                       03      |             .  |      [73]: 3 transition_type 0x1ed-0x1ee (1)
0x1e0|                                          05   |              . |      [74]: 5 transition_type 0x1ee-0x1ef (1)
0x1e0|                                             03|               .|      [75]: 3 transition_type 0x1ef-0x1f0 (1)
0x1f0|05                                             |.               |      [76]: 5 transition_type 0x1f0-0x1f1 (1)
0x1f0|   03                                          | .              |      [77]: 3 transition_type 0x1f1-0x1f2 (1)
0x1f0|      05                                       |  .             |      [78]: 5 transition_type 0x1f2-0x1f3 (1)
0x1f0|         03                                    |   .            |      [79]: 3 transition_type 0x1f3-0x1f4 (1)
0x1f0|            05                                 |    .           |      [80]: 5 transition_type 0x1f4-0x1f5 (1)
0x1f0|               03                              |     .          |      [81]: 3 transition_type 0x1f5-0x1f6 (1)
0x1f0|                  05                           |      .         |      [82]: 5 transition_type 0x1f6-0x1f7 (1)
0x1f0|                     03                        |       .        |      [83]: 3 transition_type 0x1f7-0x1f8 (1)
0x1f0|                        05                     |        .       |      [84]: 5 transition_type 0x1f8-0x1f9 (1)
0x1f0|                           03                  |         .      |      [85]: 3 transition_type 0x1f9-0x1fa (1)
0x1f0|                              05               |          .     |      [86]: 5 transition_type 0x1fa-0x1fb (1)
0x1f0|                                 03            |           .    |      [87]: 3 transition_type 0x1fb-0x1fc (1)
0x1f0|                                    05         |            .   |      [88]: 5 transition_type 0x1fc-0x1fd (1)
0x1f0|                                       03      |             .  |      [89]: 3 transition_type 0x1fd-0x1fe (1)
0x1f0|                                          05   |              . |      [90]: 5 transition_type 0x1fe-0x1ff (1)
0x1f0|                                             03|               .|      [91]: 3 transition_type 0x1ff-0x200 (1)
0x200|05                                             |.               |      [92]: 5 transition_type 0x200-0x201 (1)
0x200|   05                                          | .              |      [93]: 5 transition_type 0x201-0x202 (1)
     |                                               |                |    local_time_type_records[0:6]: 0x202-0x226 (36)
     |                                               |                |      [0]{}: local_time_type 0x202-0x208 (6)
0x200|      00 00 00 00                              |  ....          |        utoff: 0 (valid) 0x202-0x206 (4)
0x200|                  00                           |      .         |        dst: 0 (valid) 0x206-0x207 (1)
0x200|                     00                        |       .        |        idx: 0 (valid) 0x207-0x208 (1)
     |                                               |                |      [1]{}: local_time_type 0x208-0x20e (6)
0x200|                        ff ff ab a0            |        ....    |        utoff: -21600 (valid) 0x208-0x20c (4)
0x200|                                    01         |            .   |        dst: 1 (valid) 0x20c-0x20d (1)
0x200|                                       04      |             .  |        idx: 4 (valid) 0x20d-0x20e (1)
     |                                               |                |      [2]{}: local_time_type 0x20e-0x214 (6)
0x200|                                          ff ff|              ..|        utoff: -21600 (valid) 0x20e-0x212 (4)
0x210|ab a0                                          |..              |
0x210|      01                                       |  .             |        dst: 1 (valid) 0x212-0x213 (1)
0x210|         08                                    |   .            |        idx: 8 (valid) 0x213-0x214 (1)
     |                                               |                |      [3]{}: local_time_type 0x214-0x21a (6)
0x210|            ff ff 9d 90                        |    ....        |        utoff: -25200 (valid) 0x214-0x218 (4)
0x210|                        00                     |        .       |        dst: 0 (valid) 0x218-0x219 (1)
0x210|                           0c                  |         .      |        idx: 12 (valid) 0x219-0x21a (1)
     |                                               |                |      [4]{}: local_time_type 0x21a-0x220 (6)
0x210|                              ff ff b9 b0      |          ....  |        utoff: -18000 (valid) 0x21a-0x21e (4)
0x210|                                          01   |              . |        dst: 1 (valid) 0x21e-0x21f (1)
0x210|                                             10|               .|        idx: 16 (valid) 0x21f-0x220 (1)
     |                                               |                |      [5]{}: local_time_type 0x220-0x226 (6)
0x220|ff ff ab a0                                    |....            |        utoff: -21600 (valid) 0x220-0x224 (4)
0x220|            01                                 |    .           |        dst: 1 (valid) 0x224-0x225 (1)
0x220|               15                              |     .          |        idx: 21 (valid) 0x225-0x226 (1)
     |                                               |                |    time_zone_designations[0:6]: 0x226-0x23f (25)
0x220|                  2d 30 30 00                  |      -00.      |      [0]: "-00" time_zone_designation 0x226-0x22a (4)
0x220|                              4d 57 54 00      |          MWT.  |      [1]: "MWT" time_zone_designation 0x22a-0x22e (4)
0x220|                                          4d 50|              MP|      [2]: "MPT" time_zone_designation 0x22e-0x232 (4)
0x230|54 00                                          |T.              |
0x230|      4d 53 54 00                              |  MST.          |      [3]: "MST" time_zone_designation 0x232-0x236 (4)
0x230|                  4d 44 44 54 00               |      MDDT.     |      [4]: "MDDT" time_zone_designation 0x236-0x23b (5)
0x230|                                 4d 44 54 00   |           MDT. |      [5]: "MDT" time_zone_designation 0x23b-0x23f (4)
     |                                               |                |    leap_second_records[0:27]: 0x23f-0x317 (216)
     |                                               |                |      [0]{}: leap_second_record 0x23f-0x247 (8)
0x230|                                             04|               .|        occur: "1972-07-01T00:00:00Z" (78796800) 0x23f-0x243 (4)
0x240|b2 58 00                                       |.X.             |
0x240|         00 00 00 01                           |   ....         |        corr: 1 0x243-0x247 (4)
     |                                               |                |      [1]{}: leap_second_record 0x247-0x24f (8)
0x240|                     05 a4 ec 01               |       ....     |        occur: "1973-01-01T00:00:01Z" (94694401) 0x247-0x24b (4)
0x240|                                 00 00 00 02   |           .... |        corr: 2 0x24b-0x24f (4)
     |                                               |                |      [2]{}: leap_second_record 0x24f-0x257 (8)
0x240|                                             07|               .|        occur: "1974-01-01T00:00:02Z" (126230402) 0x24f-0x253 (4)
0x250|86 1f 82                                       |...             |
0x250|         00 00 00 03                           |   ....         |        corr: 3 0x253-0x257 (4)
     |                                               |                |      [3]{}: leap_second_record 0x257-0x25f (8)
0x250|                     09 67 53 03               |       .gS.     |        occur: "1975-01-01T00:00:03Z" (157766403) 0x257-0x25b (4)
0x250|                                 00 00 00 04   |           .... |        corr: 4 0x25b-0x25f (4)
     |                                               |                |      [4]{}: leap_second_record 0x25f-0x267 (8)
0x250|                                             0b|               .|        occur: "1976-01-01T00:00:04Z" (189302404) 0x25f-0x263 (4)
0x260|48 86 84                                       |H..             |
0x260|         00 00 00 05                           |   ....         |        corr: 5 0x263-0x267 (4)
     |                                               |                |      [5]{}: leap_second_record 0x267-0x26f (8)
0x260|                     0d 2b 0b 85               |       .+..     |        occur: "1977-01-01T00:00:05Z" (220924805) 0x267-0x26b (4)
0x260|                                 00 00 00 06   |           .... |        corr: 6 0x26b-0x26f (4)
     |                                               |                |      [6]{}: leap_second_record 0x26f-0x277 (8)
0x260|                                             0f|               .|        occur: "1978-01-01T00:00:06Z" (252460806) 0x26f-0x273 (4)
0x270|0c 3f 06                                       |.?.             |
0x270|         00 00 00 07                           |   ....         |        corr: 7 0x273-0x277 (4)
     |                                               |                |      [7]{}: leap_second_record 0x277-0x27f (8)
0x270|                     10 ed 72 87               |       ..r.     |        occur: "1979-01-01T00:00:07Z" (283996807) 0x277-0x27b (4)
0x270|                                 00 00 00 08   |           .... |        corr: 8 0x27b-0x27f (4)
     |                                               |                |      [8]{}: leap_second_record 0x27f-0x287 (8)
0x270|                                             12|               .|        occur: "1980-01-01T00:00:08Z" (315532808) 0x27f-0x283 (4)
0x280|ce a6 08                                       |...             |
0x280|         00 00 00 09                           |   ....         |        corr: 9 0x283-0x287 (4)
     |                                               |                |      [9]{}: leap_second_record 0x287-0x28f (8)
0x280|                     15 9f ca 89               |       ....     |        occur: "1981-07-01T00:00:09Z" (362793609) 0x287-0x28b (4)
0x280|                                 00 00 00 0a   |           .... |        corr: 10 0x28b-0x28f (4)
     |                                               |                |      [10]{}: leap_second_record 0x28f-0x297 (8)
0x280|                                             17|               .|        occur: "1982-07-01T00:00:10Z" (394329610) 0x28f-0x293 (4)
0x290|80 fe 0a                                       |...             |
0x290|         00 00 00 0b                           |   ....         |        corr: 11 0x293-0x297 (4)
     |                                               |                |      [11]{}: leap_second_record 0x297-0x29f (8)
0x290|                     19 62 31 8b               |       .b1.     |        occur: "1983-07-01T00:00:11Z" (425865611) 0x297-0x29b (4)
0x290|                                 00 00 00 0c   |           .... |        corr: 12 0x29b-0x29f (4)
     |                                               |                |      [12]{}: leap_second_record 0x29f-0x2a7 (8)
0x290|                                             1d|               .|        occur: "1985-07-01T00:00:12Z" (489024012) 0x29f-0x2a3 (4)
0x2a0|25 ea 0c                                       |%..             |
0x2a0|         00 00 00 0d                           |   ....         |        corr: 13 0x2a3-0x2a7 (4)
     |                                               |                |      [13]{}: leap_second_record 0x2a7-0x2af (8)
0x2a0|                     21 da e5 0d               |       !...     |        occur: "1988-01-01T00:00:13Z" (567993613) 0x2a7-0x2ab (4)
0x2a0|                                 00 00 00 0e   |           .... |        corr: 14 0x2ab-0x2af (4)
     |                                               |                |      [14]{}: leap_second_record 0x2af-0x2b7 (8)
0x2a0|                                             25|               %|        occur: "1990-01-01T00:00:14Z" (631152014) 0x2af-0x2b3 (4)
0x2b0|9e 9d 8e                                       |...             |
0x2b0|         00 00 00 0f                           |   ....         |        corr: 15 0x2b3-0x2b7 (4)
     |                                               |                |      [15]{}: leap_second_record 0x2b7-0x2bf (8)
0x2b0|                     27 7f d1 0f               |       '...     |        occur: "1991-01-01T00:00:15Z" (662688015) 0x2b7-0x2bb (4)
0x2b0|                                 00 00 00 10   |           .... |        corr: 16 0x2bb-0x2bf (4)
     |                                               |                |      [16]{}: leap_second_record 0x2bf-0x2c7 (8)
0x2b0|                                             2a|               *|        occur: "1992-07-01T00:00:16Z" (709948816) 0x2bf-0x2c3 (4)
0x2c0|50 f5 90                                       |P..             |
0x2c0|         00 00 00 11                           |   ....         |        corr: 17 0x2c3-0x2c7 (4)
     |                                               |                |      [17]{}: leap_second_record 0x2c7-0x2cf (8)
0x2c0|                     2c 32 29 11               |       ,2).     |        occur: "1993-07-01T00:00:17Z" (741484817) 0x2c7-0x2cb (4)
0x2c0|                                 00 00 00 12   |           .... |        corr: 18 0x2cb-0x2cf (4)
     |                                               |                |      [18]{}: leap_second_record 0x2cf-0x2d7 (8)
0x2c0|                                             2e|               .|        occur: "1994-07-01T00:00:18Z" (773020818) 0x2cf-0x2d3 (4)
0x2d0|13 5c 92                                       |.\.             |
0x2d0|         00 00 00 13                           |   ....         |        corr: 19 0x2d3-0x2d7 (4)
     |                                               |                |      [19]{}: leap_second_record 0x2d7-0x2df (8)
0x2d0|                     30 e7 24 13               |       0.$.     |        occur: "1996-01-01T00:00:19Z" (820454419) 0x2d7-0x2db (4)
0x2d0|                                 00 00 00 14   |           .... |        corr: 20 0x2db-0x2df (4)
     |                                               |                |      [20]{}: leap_second_record 0x2df-0x2e7 (8)
0x2d0|                                             33|               3|        occur: "1997-07-01T00:00:20Z" (867715220) 0x2df-0x2e3 (4)
0x2e0|b8 48 94                                       |.H.             |
0x2e0|         00 00 00 15                           |   ....         |        corr: 21 0x2e3-0x2e7 (4)
     |                                               |                |      [21]{}: leap_second_record 0x2e7-0x2ef (8)
0x2e0|                     36 8c 10 15               |       6...     |        occur: "1999-01-01T00:00:21Z" (915148821) 0x2e7-0x2eb (4)
0x2e0|                                 00 00 00 16   |           .... |        corr: 22 0x2eb-0x2ef (4)
     |                                               |                |      [22]{}: leap_second_record 0x2ef-0x2f7 (8)
0x2e0|                                             43|               C|        occur: "2006-01-01T00:00:22Z" (1136073622) 0x2ef-0x2f3 (4)
0x2f0|b7 1b 96                                       |...             |
0x2f0|         00 00 00 17                           |   ....         |        corr: 23 0x2f3-0x2f7 (4)
     |                                               |                |      [23]{}: leap_second_record 0x2f7-0x2ff (8)
0x2f0|                     49 5c 07 97               |       I\..     |        occur: "2009-01-01T00:00:23Z" (1230768023) 0x2f7-0x2fb (4)
0x2f0|                                 00 00 00 18   |           .... |        corr: 24 0x2fb-0x2ff (4)
     |                                               |                |      [24]{}: leap_second_record 0x2ff-0x307 (8)
0x2f0|                                             4f|               O|        occur: "2012-07-01T00:00:24Z" (1341100824) 0x2ff-0x303 (4)
0x300|ef 93 18                                       |...             |
0x300|         00 00 00 19                           |   ....         |        corr: 25 0x303-0x307 (4)
     |                                               |                |      [25]{}: leap_second_record 0x307-0x30f (8)
0x300|                     55 93 2d 99               |       U.-.     |        occur: "2015-07-01T00:00:25Z" (1435708825) 0x307-0x30b (4)
0x300|                                 00 00 00 1a   |           .... |        corr: 26 0x30b-0x30f (4)
     |                                               |                |      [26]{}: leap_second_record 0x30f-0x317 (8)
0x300|                                             58|               X|        occur: "2017-01-01T00:00:26Z" (1483228826) 0x30f-0x313 (4)
0x310|68 46 9a                                       |hF.             |
0x310|         00 00 00 1b                           |   ....         |        corr: 27 0x313-0x317 (4)
     |                                               |                |    standard_wall_indicators[0:6]: 0x317-0x31d (6)
0x310|                     00                        |       .        |      [0]: 0 standard_wall_indicator (valid) 0x317-0x318 (1)
0x310|                        00                     |        .       |      [1]: 0 standard_wall_indicator (valid) 0x318-0x319 (1)
0x310|                           01                  |         .      |      [2]: 1 standard_wall_indicator (valid) 0x319-0x31a (1)
0x310|                              00               |          .     |      [3]: 0 standard_wall_indicator (valid) 0x31a-0x31b (1)
0x310|                                 00            |           .    |      [4]: 0 standard_wall_indicator (valid) 0x31b-0x31c (1)
0x310|                                    00         |            .   |      [5]: 0 standard_wall_indicator (valid) 0x31c-0x31d (1)
     |                                               |                |    ut_local_indicators[0:6]: 0x31d-0x323 (6)
0x310|                                       00      |             .  |      [0]: 0 ut_local_indicator (valid) 0x31d-0x31e (1)
0x310|                                          00   |              . |      [1]: 0 ut_local_indicator (valid) 0x31e-0x31f (1)
0x310|                                             01|               .|      [2]: 1 ut_local_indicator (valid) 0x31f-0x320 (1)
0x320|00                                             |.               |      [3]: 0 ut_local_indicator (valid) 0x320-0x321 (1)
0x320|   00                                          | .              |      [4]: 0 ut_local_indicator (valid) 0x321-0x322 (1)
0x320|      00                                       |  .             |      [5]: 0 ut_local_indicator (valid) 0x322-0x323 (1)
     |                                               |                |  v2plusheader{}: 0x323-0x34f (44)
0x320|         54 5a 69 66                           |   TZif         |    magic: 0x545a6966 (valid) 0x323-0x327 (4)
0x320|                     32                        |       2        |    ver: "2" (0x32) (valid) 0x327-0x328 (1)
0x320|                        00 00 00 00 00 00 00 00|        ........|    reserved: raw bits 0x328-0x337 (15)
0x330|00 00 00 00 00 00 00                           |.......         |
0x330|                     00 00 00 06               |       ....     |    isutcnt: 6 0x337-0x33b (4)
0x330|                                 00 00 00 06   |           .... |    isstdcnt: 6 0x33b-0x33f (4)
0x330|                                             00|               .|    leapcnt: 27 0x33f-0x343 (4)
0x340|00 00 1b                                       |...             |
0x340|         00 00 00 5e                           |   ...^         |    timecnt: 94 0x343-0x347 (4)
0x340|                     00 00 00 06               |       ....     |    typecnt: 6 0x347-0x34b (4)
0x340|                                 00 00 00 19   |           .... |    charcnt: 25 0x34b-0x34f (4)
     |                                               |                |  v2plusdatablock{}: 0x34f-0x82a (1243)
     |                                               |                |    transition_times[0:94]: 0x34f-0x63f (752)
0x340|                                             ff|               .|      [0]: "1935-01-01T00:00:00Z" (-1104537600) transition_time 0x34f-0x357 (8)
0x350|ff ff ff be 2a 18 00                           |....*..         |
0x350|                     ff ff ff ff cb 89 0c 90   |       ........ |      [1]: "1942-02-09T09:00:00Z" (-880210800) transition_time 0x357-0x35f (8)
0x350|                                             ff|               .|      [2]: "1945-08-14T23:00:00Z" (-769395600) transition_time 0x35f-0x367 (8)
0x360|ff ff ff d2 23 f4 70                           |....#.p         |
0x360|                     ff ff ff ff d2 61 18 00   |       .....a.. |      [3]: "1945-09-30T08:00:00Z" (-765388800) transition_time 0x367-0x36f (8)
0x360|                                             ff|               .|      [4]: "1965-04-25T07:00:00Z" (-147891600) transition_time 0x36f-0x377 (8)
0x370|ff ff ff f7 2f 5a 70                           |..../Zp         |
0x370|                     ff ff ff ff f8 28 85 f0   |       .....(.. |      [5]: "1965-10-31T07:00:00Z" (-131562000) transition_time 0x377-0x37f (8)
0x370|                                             00|               .|      [6]: "1980-04-27T09:00:09Z" (325674009) transition_time 0x37f-0x387 (8)
0x380|00 00 00 13 69 64 19                           |....id.         |
0x380|                     00 00 00 00 14 59 47 09   |       .....YG. |      [7]: "1980-10-26T08:00:09Z" (341395209) transition_time 0x387-0x38f (8)
0x380|                                             00|               .|      [8]: "1981-04-26T09:00:09Z" (357123609) transition_time 0x38f-0x397 (8)
0x390|00 00 00 15 49 46 19                           |....IF.         |
0x390|                     00 00 00 00 16 39 29 0a   |       .....9). |      [9]: "1981-10-25T08:00:10Z" (372844810) transition_time 0x397-0x39f (8)
0x390|                                             00|               .|      [10]: "1982-04-25T09:00:10Z" (388573210) transition_time 0x39f-0x3a7 (8)
0x3a0|00 00 00 17 29 28 1a                           |....)(.         |
0x3a0|                     00 00 00 00 18 22 45 8b   |       ....."E. |      [11]: "1982-10-31T08:00:11Z" (404899211) transition_time 0x3a7-0x3af (8)
0x3a0|                                             00|               .|      [12]: "1983-04-24T09:00:11Z" (420022811) transition_time 0x3af-0x3b7 (8)
0x3b0|00 00 00 19 09 0a 1b                           |.......         |
0x3b0|                     00 00 00 00 1a 02 27 8c   |       ......'. |      [13]: "1983-10-30T08:00:12Z" (436348812) transition_time 0x3b7-0x3bf (8)
0x3b0|                                             00|               .|      [14]: "1984-04-29T09:00:12Z" (452077212) transition_time 0x3bf-0x3c7 (8)
0x3c0|00 00 00 1a f2 26 9c                           |.....&.         |
0x3c0|                     00 00 00 00 1b e2 09 8c   |       ........ |      [15]: "1984-10-28T08:00:12Z" (467798412) transition_time 0x3c7-0x3cf (8)
0x3c0|                                             00|               .|      [16]: "1985-04-28T09:00:12Z" (483526812) transition_time 0x3cf-0x3d7 (8)
0x3d0|00 00 00 1c d2 08 9c                           |.......         |
0x3d0|                     00 00 00 00 1d c1 eb 8d   |       ........ |      [17]: "1985-10-27T08:00:13Z" (499248013) transition_time 0x3d7-0x3df (8)
0x3d0|                                             00|               .|      [18]: "1986-04-27T09:00:13Z" (514976413) transition_time 0x3df-0x3e7 (8)
0x3e0|00 00 00 1e b1 ea 9d                           |.......         |
0x3e0|                     00 00 00 00 1f a1 cd 8d   |       ........ |      [19]: "1986-10-26T08:00:13Z" (530697613) transition_time 0x3e7-0x3ef (8)
0x3e0|                                             00|               .|      [20]: "1987-04-05T09:00:13Z" (544611613) transition_time 0x3ef-0x3f7 (8)
0x3f0|00 00 00 20 76 1d 1d                           |... v..         |
0x3f0|                     00 00 00 00 21 81 af 8d   |       ....!... |      [21]: "1987-10-25T08:00:13Z" (562147213) transition_time 0x3f7-0x3ff (8)
0x3f0|                                             00|               .|      [22]: "1988-04-03T09:00:14Z" (576061214) transition_time 0x3ff-0x407 (8)
0x400|00 00 00 22 55 ff 1e                           |..."U..         |
0x400|                     00 00 00 00 23 6a cc 0e   |       ....#j.. |      [23]: "1988-10-30T08:00:14Z" (594201614) transition_time 0x407-0x40f (8)
0x400|                                             00|               .|      [24]: "1989-04-02T09:00:14Z" (607510814) transition_time 0x40f-0x417 (8)
0x410|00 00 00 24 35 e1 1e                           |...$5..         |
0x410|                     00 00 00 00 25 4a ae 0e   |       ....%J.. |      [25]: "1989-10-29T08:00:14Z" (625651214) transition_time 0x417-0x41f (8)
0x410|                                             00|               .|      [26]: "1990-04-01T09:00:15Z" (638960415) transition_time 0x41f-0x427 (8)
0x420|00 00 00 26 15 c3 1f                           |...&...         |
0x420|                     00 00 00 00 27 2a 90 0f   |       ....'*.. |      [27]: "1990-10-28T08:00:15Z" (657100815) transition_time 0x427-0x42f (8)
0x420|                                             00|               .|      [28]: "1991-04-07T09:00:16Z" (671014816) transition_time 0x42f-0x437 (8)
0x430|00 00 00 27 fe df a0                           |...'...         |
0x430|                     00 00 00 00 29 0a 72 10   |       ....).r. |      [29]: "1991-10-27T08:00:16Z" (688550416) transition_time 0x437-0x43f (8)
0x430|                                             00|               .|      [30]: "1992-04-05T09:00:16Z" (702464416) transition_time 0x43f-0x447 (8)
0x440|00 00 00 29 de c1 a0                           |...)...         |
0x440|                     00 00 00 00 2a ea 54 11   |       ....*.T. |      [31]: "1992-10-25T08:00:17Z" (720000017) transition_time 0x447-0x44f (8)
0x440|                                             00|               .|      [32]: "1993-04-04T09:00:17Z" (733914017) transition_time 0x44f-0x457 (8)
0x450|00 00 00 2b be a3 a1                           |...+...         |
0x450|                     00 00 00 00 2c d3 70 92   |       ....,.p. |      [33]: "1993-10-31T08:00:18Z" (752054418) transition_time 0x457-0x45f (8)
0x450|                                             00|               .|      [34]: "1994-04-03T09:00:18Z" (765363618) transition_time 0x45f-0x467 (8)
0x460|00 00 00 2d 9e 85 a2                           |...-...         |
0x460|                     00 00 00 00 2e b3 52 93   |       ......R. |      [35]: "1994-10-30T08:00:19Z" (783504019) transition_time 0x467-0x46f (8)
0x460|                                             00|               .|      [36]: "1995-04-02T09:00:19Z" (796813219) transition_time 0x46f-0x477 (8)
0x470|00 00 00 2f 7e 67 a3                           |.../~g.         |
0x470|                     00 00 00 00 30 93 34 93   |       ....0.4. |      [37]: "1995-10-29T08:00:19Z" (814953619) transition_time 0x477-0x47f (8)
0x470|                                             00|               .|      [38]: "1996-04-07T09:00:20Z" (828867620) transition_time 0x47f-0x487 (8)
0x480|00 00 00 31 67 84 24                           |...1g.$         |
0x480|                     00 00 00 00 32 73 16 94   |       ....2s.. |      [39]: "1996-10-27T08:00:20Z" (846403220) transition_time 0x487-0x48f (8)
0x480|                                             00|               .|      [40]: "1997-04-06T09:00:20Z" (860317220) transition_time 0x48f-0x497 (8)
0x490|00 00 00 33 47 66 24                           |...3Gf$         |
0x490|                     00 00 00 00 34 52 f8 95   |       ....4R.. |      [41]: "1997-10-26T08:00:21Z" (877852821) transition_time 0x497-0x49f (8)
0x490|                                             00|               .|      [42]: "1998-04-05T09:00:21Z" (891766821) transition_time 0x49f-0x4a7 (8)
0x4a0|00 00 00 35 27 48 25                           |...5'H%         |
0x4a0|                     00 00 00 00 36 32 da 95   |       ....62.. |      [43]: "1998-10-25T08:00:21Z" (909302421) transition_time 0x4a7-0x4af (8)
0x4a0|                                             00|               .|      [44]: "1999-04-04T09:00:22Z" (923216422) transition_time 0x4af-0x4b7 (8)
0x4b0|00 00 00 37 07 2a 26                           |...7.*&         |
0x4b0|                     00 00 00 00 38 1b f7 16   |       ....8... |      [45]: "1999-10-31T08:00:22Z" (941356822) transition_time 0x4b7-0x4bf (8)
0x4b0|                                             00|               .|      [46]: "2000-04-02T09:00:22Z" (954666022) transition_time 0x4bf-0x4c7 (8)
0x4c0|00 00 00 38 e7 0c 26                           |...8..&         |
0x4c0|                     00 00 00 00 39 fb d9 16   |       ....9... |      [47]: "2000-10-29T08:00:22Z" (972806422) transition_time 0x4c7-0x4cf (8)
0x4c0|                                             00|               .|      [48]: "2001-04-01T09:00:22Z" (986115622) transition_time 0x4cf-0x4d7 (8)
0x4d0|00 00 00 3a c6 ee 26                           |...:..&         |
0x4d0|                     00 00 00 00 3b db bb 16   |       ....;... |      [49]: "2001-10-28T08:00:22Z" (1004256022) transition_time 0x4d7-0x4df (8)
0x4d0|                                             00|               .|      [50]: "2002-04-07T09:00:22Z" (1018170022) transition_time 0x4df-0x4e7 (8)
0x4e0|00 00 00 3c b0 0a a6                           |...<...         |
0x4e0|                     00 00 00 00 3d bb 9d 16   |       ....=... |      [51]: "2002-10-27T08:00:22Z" (1035705622) transition_time 0x4e7-0x4ef (8)
0x4e0|                                             00|               .|      [52]: "2003-04-06T09:00:22Z" (1049619622) transition_time 0x4ef-0x4f7 (8)
0x4f0|00 00 00 3e 8f ec a6                           |...>...         |
0x4f0|                     00 00 00 00 3f 9b 7f 16   |       ....?... |      [53]: "2003-10-26T08:00:22Z" (1067155222) transition_time 0x4f7-0x4ff (8)
0x4f0|                                             00|               .|      [54]: "2004-04-04T09:00:22Z" (1081069222) transition_time 0x4ff-0x507 (8)
0x500|00 00 00 40 6f ce a6                           |...@o..         |
0x500|                     00 00 00 00 41 84 9b 96   |       ....A... |      [55]: "2004-10-31T08:00:22Z" (1099209622) transition_time 0x507-0x50f (8)
0x500|                                             00|               .|      [56]: "2005-04-03T09:00:22Z" (1112518822) transition_time 0x50f-0x517 (8)
0x510|00 00 00 42 4f b0 a6                           |...BO..         |
0x510|                     00 00 00 00 43 64 7d 96   |       ....Cd}. |      [57]: "2005-10-30T08:00:22Z" (1130659222) transition_time 0x517-0x51f (8)
0x510|                                             00|               .|      [58]: "2006-04-02T09:00:23Z" (1143968423) transition_time 0x51f-0x527 (8)
0x520|00 00 00 44 2f 92 a7                           |...D/..         |
0x520|                     00 00 00 00 45 44 5f 97   |       ....ED_. |      [59]: "2006-10-29T08:00:23Z" (1162108823) transition_time 0x527-0x52f (8)
0x520|                                             00|               .|      [60]: "2007-03-11T09:00:23Z" (1173603623) transition_time 0x52f-0x537 (8)
0x530|00 00 00 45 f3 c5 27                           |...E..'         |
0x530|                     00 00 00 00 47 2d 7c 17   |       ....G-|. |      [61]: "2007-11-04T08:00:23Z" (1194163223) transition_time 0x537-0x53f (8)
0x530|                                             00|               .|      [62]: "2008-03-09T09:00:23Z" (1205053223) transition_time 0x53f-0x547 (8)
0x540|00 00 00 47 d3 a7 27                           |...G..'         |
0x540|                     00 00 00 00 49 0d 5e 17   |       ....I.^. |      [63]: "2008-11-02T08:00:23Z" (1225612823) transition_time 0x547-0x54f (8)
0x540|                                             00|               .|      [64]: "2009-03-08T09:00:24Z" (1236502824) transition_time 0x54f-0x557 (8)
0x550|00 00 00 49 b3 89 28                           |...I..(         |
0x550|                     00 00 00 00 4a ed 40 18   |       ....J.@. |      [65]: "2009-11-01T08:00:24Z" (1257062424) transition_time 0x557-0x55f (8)
0x550|                                             00|               .|      [66]: "2010-03-14T09:00:24Z" (1268557224) transition_time 0x55f-0x567 (8)
0x560|00 00 00 4b 9c a5 a8                           |...K...         |
0x560|                     00 00 00 00 4c d6 5c 98   |       ....L.\. |      [67]: "2010-11-07T08:00:24Z" (1289116824) transition_time 0x567-0x56f (8)
0x560|                                             00|               .|      [68]: "2011-03-13T09:00:24Z" (1300006824) transition_time 0x56f-0x577 (8)
0x570|00 00 00 4d 7c 87 a8                           |...M|..         |
0x570|                     00 00 00 00 4e b6 3e 98   |       ....N.>. |      [69]: "2011-11-06T08:00:24Z" (1320566424) transition_time 0x577-0x57f (8)
0x570|                                             00|               .|      [70]: "2012-03-11T09:00:24Z" (1331456424) transition_time 0x57f-0x587 (8)
0x580|00 00 00 4f 5c 69 a8                           |...O\i.         |
0x580|                     00 00 00 00 50 96 20 99   |       ....P. . |      [71]: "2012-11-04T08:00:25Z" (1352016025) transition_time 0x587-0x58f (8)
0x580|                                             00|               .|      [72]: "2013-03-10T09:00:25Z" (1362906025) transition_time 0x58f-0x597 (8)
0x590|00 00 00 51 3c 4b a9                           |...Q<K.         |
0x590|                     00 00 00 00 52 76 02 99   |       ....Rv.. |      [73]: "2013-11-03T08:00:25Z" (1383465625) transition_time 0x597-0x59f (8)
0x590|                                             00|               .|      [74]: "2014-03-09T09:00:25Z" (1394355625) transition_time 0x59f-0x5a7 (8)
0x5a0|00 00 00 53 1c 2d a9                           |...S.-.         |
0x5a0|                     00 00 00 00 54 55 e4 99   |       ....TU.. |      [75]: "2014-11-02T08:00:25Z" (1414915225) transition_time 0x5a7-0x5af (8)
0x5a0|                                             00|               .|      [76]: "2015-03-08T09:00:25Z" (1425805225) transition_time 0x5af-0x5b7 (8)
0x5b0|00 00 00 54 fc 0f a9                           |...T...         |
0x5b0|                     00 00 00 00 56 35 c6 9a   |       ....V5.. |      [77]: "2015-11-01T08:00:26Z" (1446364826) transition_time 0x5b7-0x5bf (8)
0x5b0|                                             00|               .|      [78]: "2016-03-13T09:00:26Z" (1457859626) transition_time 0x5bf-0x5c7 (8)
0x5c0|00 00 00 56 e5 2c 2a                           |...V.,*         |
0x5c0|                     00 00 00 00 58 1e e3 1a   |       ....X... |      [79]: "2016-11-06T08:00:26Z" (1478419226) transition_time 0x5c7-0x5cf (8)
0x5c0|                                             00|               .|      [80]: "2017-03-12T09:00:27Z" (1489309227) transition_time 0x5cf-0x5d7 (8)
0x5d0|00 00 00 58 c5 0e 2b                           |...X..+         |
0x5d0|                     00 00 00 00 59 fe c5 1b   |       ....Y... |      [81]: "2017-11-05T08:00:27Z" (1509868827) transition_time 0x5d7-0x5df (8)
0x5d0|                                             00|               .|      [82]: "2018-03-11T09:00:27Z" (1520758827) transition_time 0x5df-0x5e7 (8)
0x5e0|00 00 00 5a a4 f0 2b                           |...Z..+         |
0x5e0|                     00 00 00 00 5b de a7 1b   |       ....[... |      [83]: "2018-11-04T08:00:27Z" (1541318427) transition_time 0x5e7-0x5ef (8)
0x5e0|                                             00|               .|      [84]: "2019-03-10T09:00:27Z" (1552208427) transition_time 0x5ef-0x5f7 (8)
0x5f0|00 00 00 5c 84 d2 2b                           |...\..+         |
0x5f0|                     00 00 00 00 5d be 89 1b   |       ....]... |      [85]: "2019-11-03T08:00:27Z" (1572768027) transition_time 0x5f7-0x5ff (8)
0x5f0|                                             00|               .|      [86]: "2020-03-08T09:00:27Z" (1583658027) transition_time 0x5ff-0x607 (8)
0x600|00 00 00 5e 64 b4 2b                           |...^d.+         |
0x600|                     00 00 00 00 5f 9e 6b 1b   |       ...._.k. |      [87]: "2020-11-01T08:00:27Z" (1604217627) transition_time 0x607-0x60f (8)
0x600|                                             00|               .|      [88]: "2021-03-14T09:00:27Z" (1615712427) transition_time 0x60f-0x617 (8)
0x610|00 00 00 60 4d d0 ab                           |...`M..         |
0x610|                     00 00 00 00 61 87 87 9b   |       ....a... |      [89]: "2021-11-07T08:00:27Z" (1636272027) transition_time 0x617-0x61f (8)
0x610|                                             00|               .|      [90]: "2022-03-13T09:00:27Z" (1647162027) transition_time 0x61f-0x627 (8)
0x620|00 00 00 62 2d b2 ab                           |...b-..         |
0x620|                     00 00 00 00 63 67 69 9b   |       ....cgi. |      [91]: "2022-11-06T08:00:27Z" (1667721627) transition_time 0x627-0x62f (8)
0x620|                                             00|               .|      [92]: "2023-03-12T09:00:27Z" (1678611627) transition_time 0x62f-0x637 (8)
0x630|00 00 00 64 0d 94 ab                           |...d...         |
0x630|                     00 00 00 00 64 9b 78 1b   |       ....d.x. |      [93]: "2023-06-28T00:00:27Z" (1687910427) transition_time 0x637-0x63f (8)
     |                                               |                |    transition_types[0:94]: 0x63f-0x69d (94)
0x630|                                             03|               .|      [0]: 3 transition_type 0x63f-0x640 (1)
0x640|01                                             |.               |      [1]: 1 transition_type 0x640-0x641 (1)
0x640|   02                                          | .              |      [2]: 2 transition_type 0x641-0x642 (1)
0x640|      03                                       |  .             |      [3]: 3 transition_type 0x642-0x643 (1)
0x640|         04                                    |   .            |      [4]: 4 transition_type 0x643-0x644 (1)
0x640|            03                                 |    .           |      [5]: 3 transition_type 0x644-0x645 (1)
0x640|               05                              |     .          |      [6]: 5 transition_type 0x645-0x646 (1)
0x640|                  03                           |      .         |      [7]: 3 transition_type 0x646-0x647 (1)
0x640|                     05                        |       .        |      [8]: 5 transition_type 0x647-0x648 (1)
0x640|                        03                     |        .       |      [9]: 3 transition_type 0x648-0x649 (1)
0x640|                           05                  |         .      |      [10]: 5 transition_type 0x649-0x64a (1)
0x640|                              03               |          .     |      [11]: 3 transition_type 0x64a-0x64b (1)
0x640|                                 05            |           .    |      [12]: 5 transition_type 0x64b-0x64c (1)
0x640|                                    03         |            .   |      [13]: 3 transition_type 0x64c-0x64d (1)
0x640|                                       05      |             .  |      [14]: 5 transition_type 0x64d-0x64e (1)
0x640|                                          03   |              . |      [15]: 3 transition_type 0x64e-0x64f (1)
0x640|                                             05|               .|      [16]: 5 transition_type 0x64f-0x650 (1)
0x650|03                                             |.               |      [17]: 3 transition_type 0x650-0x651 (1)
0x650|   05                                          | .              |      [18]: 5 transition_type 0x651-0x652 (1)
0x650|      03                                       |  .             |      [19]: 3 transition_type 0x652-0x653 (1)
0x650|         05                                    |   .            |      [20]: 5 transition_type 0x653-0x654 (1)
0x650|            03                                 |    .           |      [21]: 3 transition_type 0x654-0x655 (1)
0x650|               05                              |     .          |      [22]: 5 transition_type 0x655-0x656 (1)
0x650|                  03                           |      .         |      [23]: 3 transition_type 0x656-0x657 (1)
0x650|                     05                        |       .        |      [24]: 5 transition_type 0x657-0x658 (1)
0x650|                        03                     |        .       |      [25]: 3 transition_type 0x658-0x659 (1)
0x650|                           05                  |         .      |      [26]: 5 transition_type 0x659-0x65a (1)
0x650|                              03               |          .     |      [27]: 3 transition_type 0x65a-0x65b (1)
0x650|                                 05            |           .    |      [28]: 5 transition_type 0x65b-0x65c (1)
0x650|                                    03         |            .   |      [29]: 3 transition_type 0x65c-0x65d (1)
0x650|                                       05      |             .  |      [30]: 5 transition_type 0x65d-0x65e (1)
0x650|                                          03   |              . |      [31]: 3 transition_type 0x65e-0x65f (1)
0x650|                                             05|               .|      [32]: 5 transition_type 0x65f-0x660 (1)
0x660|03                                             |.               |      [33]: 3 transition_type 0x660-0x661 (1)
0x660|   05                                          | .              |      [34]: 5 transition_type 0x661-0x662 (1)
0x660|      03                                       |  .             |      [35]: 3 transition_type 0x662-0x663 (1)
0x660|         05                                    |   .            |      [36]: 5 transition_type 0x663-0x664 (1)
0x660|            03                                 |    .           |      [37]: 3 transition_type 0x664-0x665 (1)
0x660|               05                              |     .          |      [38]: 5 transition_type 0x665-0x666 (1)
0x660|                  03                           |      .         |      [39]: 3 transition_type 0x666-0x667 (1)
0x660|                     05                        |       .        |      [40]: 5 transition_type 0x667-0x668 (1)
0x660|                        03                     |        .       |      [41]: 3 transition_type 0x668-0x669 (1)
0x660|                           05                  |         .      |      [42]: 5 transition_type 0x669-0x66a (1)
0x660|                              03               |          .     |      [43]: 3 transition_type 0x66a-0x66b (1)
0x660|                                 05            |           .    |      [44]: 5 transition_type 0x66b-0x66c (1)
0x660|                                    03         |            .   |      [45]: 3 transition_type 0x66c-0x66d (1)
0x660|                                       05      |             .  |      [46]: 5 transition_type 0x66d-0x66e (1)
0x660|                                          03   |              . |      [47]: 3 transition_type 0x66e-0x66f (1)
0x660|                                             05|               .|      [48]: 5 transition_type 0x66f-0x670 (1)
0x670|03                                             |.               |      [49]: 3 transition_type 0x670-0x671 (1)
0x670|   05                                          | .              |      [50]: 5 transition_type 0x671-0x672 (1)
0x670|      03                                       |  .             |      [51]: 3 transition_type 0x672-0x673 (1)
0x670|         05                                    |   .            |      [52]: 5 transition_type 0x673-0x674 (1)
0x670|            03                                 |    .           |      [53]: 3 transition_type 0x674-0x675 (1)
0x670|               05                              |     .          |      [54]: 5 transition_type 0x675-0x676 (1)
0x670|                  03                           |      .         |      [55]: 3 transition_type 0x676-0x677 (1)
0x670|                     05                        |       .        |      [56]: 5 transition_type 0x677-0x678 (1)
0x670|                        03                     |        .       |      [57]: 3 transition_type 0x678-0x679 (1)
0x670|                           05                  |         .      |      [58]: 5 transition_type 0x679-0x67a (1)
0x670|                              03               |          .     |      [59]: 3 transition_type 0x67a-0x67b (1)
0x670|                                 05            |           .    |      [60]: 5 transition_type 0x67b-0x67c (1)
0x670|                                    03         |            .   |      [61]: 3 transition_type 0x67c-0x67d (1)
0x670|                                       05      |             .  |      [62]: 5 transition_type 0x67d-0x67e (1)
0x670|                                          03   |              . |      [63]: 3 transition_type 0x67e-0x67f (1)
0x670|                                             05|               .|      [64]: 5 transition_type 0x67f-0x680 (1)
0x680|03                                             |.               |      [65]: 3 transition_type 0x680-0x681 (1)
0x680|   05                                          | .              |      [66]: 5 transition_type 0x681-0x682 (1)
0x680|      03                                       |  .             |      [67]: 3 transition_type 0x682-0x683 (1)
0x680|         05                                    |   .            |      [68]: 5 transition_type 0x683-0x684 (1)
0x680|            03                                 |    .           |      [69]: 3 transition_type 0x684-0x685 (1)
0x680|               05                              |     .          |      [70]: 5 transition_type 0x685-0x686 (1)
0x680|                  03                           |      .         |      [71]: 3 transition_type 0x686-0x687 (1)
0x680|                     05                        |       .        |      [72]: 5 transition_type 0x687-0x688 (1)
0x680|                        03                     |        .       |      [73]: 3 transition_type 0x688-0x689 (1)
0x680|                           05                  |         .      |      [74]: 5 transition_type 0x689-0x68a (1)
0x680|                              03               |          .     |      [75]: 3 transition_type 0x68a-0x68b (1)
0x680|                                 05            |           .    |      [76]: 5 transition_type 0x68b-0x68c (1)
0x680|                                    03         |            .   |      [77]: 3 transition_type 0x68c-0x68d (1)
0x680|                                       05      |             .  |      [78]: 5 transition_type 0x68d-0x68e (1)
0x680|                                          03   |              . |      [79]: 3 transition_type 0x68e-0x68f (1)
0x680|                                             05|               .|      [80]: 5 transition_type 0x68f-0x690 (1)
0x690|03                                             |.               |      [81]: 3 transition_type 0x690-0x691 (1)
0x690|   05                                          | .              |      [82]: 5 transition_type 0x691-0x692 (1)
0x690|      03                                       |  .             |      [83]: 3 transition_type 0x692-0x693 (1)
0x690|         05                                    |   .            |      [84]: 5 transition_type 0x693-0x694 (1)
0x690|            03                                 |    .           |      [85]: 3 transition_type 0x694-0x695 (1)
0x690|               05                              |     .          |      [86]: 5 transition_type 0x695-0x696 (1)
0x690|                  03                           |      .         |      [87]: 3 transition_type 0x696-0x697 (1)
0x690|                     05                        |       .        |      [88]: 5 transition_type 0x697-0x698 (1)
0x690|                        03                     |        .       |      [89]: 3 transition_type 0x698-0x699 (1)
0x690|                           05                  |         .      |      [90]: 5 transition_type 0x699-0x69a (1)
0x690|                              03               |          .     |      [91]: 3 transition_type 0x69a-0x69b (1)
0x690|                                 05            |           .    |      [92]: 5 transition_type 0x69b-0x69c (1)
0x690|                                    05         |            .   |      [93]: 5 transition_type 0x69c-0x69d (1)
     |                                               |                |    local_time_type_records[0:6]: 0x69d-0x6c1 (36)
     |                                               |                |      [0]{}: local_time_type 0x69d-0x6a3 (6)
0x690|                                       00 00 00|             ...|        utoff: 0 (valid) 0x69d-0x6a1 (4)
0x6a0|00                                             |.               |
0x6a0|   00                                          | .              |        dst: 0 (valid) 0x6a1-0x6a2 (1)
0x6a0|      00                                       |  .             |        idx: 0 (valid) 0x6a2-0x6a3 (1)
     |                                               |                |      [1]{}: local_time_type 0x6a3-0x6a9 (6)
0x6a0|         ff ff ab a0                           |   ....         |        utoff: -21600 (valid) 0x6a3-0x6a7 (4)
0x6a0|                     01                        |       .        |        dst: 1 (valid) 0x6a7-0x6a8 (1)
0x6a0|                        04                     |        .       |        idx: 4 (valid) 0x6a8-0x6a9 (1)
     |                                               |                |      [2]{}: local_time_type 0x6a9-0x6af (6)
0x6a0|                           ff ff ab a0         |         ....   |        utoff: -21600 (valid) 0x6a9-0x6ad (4)
0x6a0|                                       01      |             .  |        dst: 1 (valid) 0x6ad-0x6ae (1)
0x6a0|                                          08   |              . |        idx: 8 (valid) 0x6ae-0x6af (1)
     |                                               |                |      [3]{}: local_time_type 0x6af-0x6b5 (6)
0x6a0|                                             ff|               .|        utoff: -25200 (valid) 0x6af-0x6b3 (4)
0x6b0|ff 9d 90                                       |...             |
0x6b0|         00                                    |   .            |        dst: 0 (valid) 0x6b3-0x6b4 (1)
0x6b0|            0c                                 |    .           |        idx: 12 (valid) 0x6b4-0x6b5 (1)
     |                                               |                |      [4]{}: local_time_type 0x6b5-0x6bb (6)
0x6b0|               ff ff b9 b0                     |     ....       |        utoff: -18000 (valid) 0x6b5-0x6b9 (4)
0x6b0|                           01                  |         .      |        dst: 1 (valid) 0x6b9-0x6ba (1)
0x6b0|                              10               |          .     |        idx: 16 (valid) 0x6ba-0x6bb (1)
     |                                               |                |      [5]{}: local_time_type 0x6bb-0x6c1 (6)
0x6b0|                                 ff ff ab a0   |           .... |        utoff: -21600 (valid) 0x6bb-0x6bf (4)
0x6b0|                                             01|               .|        dst: 1 (valid) 0x6bf-0x6c0 (1)
0x6c0|15                                             |.               |        idx: 21 (valid) 0x6c0-0x6c1 (1)
     |                                               |                |    time_zone_designations[0:6]: 0x6c1-0x6da (25)
0x6c0|   2d 30 30 00                                 | -00.           |      [0]: "-00" time_zone_designation 0x6c1-0x6c5 (4)
0x6c0|               4d 57 54 00                     |     MWT.       |      [1]: "MWT" time_zone_designation 0x6c5-0x6c9 (4)
0x6c0|                           4d 50 54 00         |         MPT.   |      [2]: "MPT" time_zone_designation 0x6c9-0x6cd (4)
0x6c0|                                       4d 53 54|             MST|      [3]: "MST" time_zone_designation 0x6cd-0x6d1 (4)
0x6d0|00                                             |.               |
0x6d0|   4d 44 44 54 00                              | MDDT.          |      [4]: "MDDT" time_zone_designation 0x6d1-0x6d6 (5)
0x6d0|                  4d 44 54 00                  |      MDT.      |      [5]: "MDT" time_zone_designation 0x6d6-0x6da (4)
     |                                               |                |    leap_second_records[0:27]: 0x6da-0x81e (324)
     |                                               |                |      [0]{}: leap_second_record 0x6da-0x6e6 (12)
0x6d0|                              00 00 00 00 04 b2|          ......|        occur: "1972-07-01T00:00:00Z" (78796800) 0x6da-0x6e2 (8)
0x6e0|58 00                                          |X.              |
0x6e0|      00 00 00 01                              |  ....          |        corr: 1 0x6e2-0x6e6 (4)
     |                                               |                |      [1]{}: leap_second_record 0x6e6-0x6f2 (12)
0x6e0|                  00 00 00 00 05 a4 ec 01      |      ........  |        occur: "1973-01-01T00:00:01Z" (94694401) 0x6e6-0x6ee (8)
0x6e0|                                          00 00|              ..|        corr: 2 0x6ee-0x6f2 (4)
0x6f0|00 02                                          |..              |
     |                                               |                |      [2]{}: leap_second_record 0x6f2-0x6fe (12)
0x6f0|      00 00 00 00 07 86 1f 82                  |  ........      |        occur: "1974-01-01T00:00:02Z" (126230402) 0x6f2-0x6fa (8)
0x6f0|                              00 00 00 03      |          ....  |        corr: 3 0x6fa-0x6fe (4)
     |                                               |                |      [3]{}: leap_second_record 0x6fe-0x70a (12)
0x6f0|                                          00 00|              ..|        occur: "1975-01-01T00:00:03Z" (157766403) 0x6fe-0x706 (8)
0x700|00 00 09 67 53 03                              |...gS.          |
0x700|                  00 00 00 04                  |      ....      |        corr: 4 0x706-0x70a (4)
     |                                               |                |      [4]{}: leap_second_record 0x70a-0x716 (12)
0x700|                              00 00 00 00 0b 48|          .....H|        occur: "1976-01-01T00:00:04Z" (189302404) 0x70a-0x712 (8)
0x710|86 84                                          |..              |
0x710|      00 00 00 05                              |  ....          |        corr: 5 0x712-0x716 (4)
     |                                               |                |      [5]{}: leap_second_record 0x716-0x722 (12)
0x710|                  00 00 00 00 0d 2b 0b 85      |      .....+..  |        occur: "1977-01-01T00:00:05Z" (220924805) 0x716-0x71e (8)
0x710|                                          00 00|              ..|        corr: 6 0x71e-0x722 (4)
0x720|00 06                                          |..              |
     |                                               |                |      [6]{}: leap_second_record 0x722-0x72e (12)
0x720|      00 00 00 00 0f 0c 3f 06                  |  ......?.      |        occur: "1978-01-01T00:00:06Z" (252460806) 0x722-0x72a (8)
0x720|                              00 00 00 07      |          ....  |        corr: 7 0x72a-0x72e (4)
     |                                               |                |      [7]{}: leap_second_record 0x72e-0x73a (12)
0x720|                                          00 00|              ..|        occur: "1979-01-01T00:00:07Z" (283996807) 0x72e-0x736 (8)
0x730|00 00 10 ed 72 87                              |....r.          |
0x730|                  00 00 00 08                  |      ....      |        corr: 8 0x736-0x73a (4)
     |                                               |                |      [8]{}: leap_second_record 0x73a-0x746 (12)
0x730|                              00 00 00 00 12 ce|          ......|        occur: "1980-01-01T00:00:08Z" (315532808) 0x73a-0x742 (8)
0x740|a6 08                                          |..              |
0x740|      00 00 00 09                              |  ....          |        corr: 9 0x742-0x746 (4)
     |                                               |                |      [9]{}: leap_second_record 0x746-0x752 (12)
0x740|                  00 00 00 00 15 9f ca 89      |      ........  |        occur: "1981-07-01T00:00:09Z" (362793609) 0x746-0x74e (8)
0x740|                                          00 00|              ..|        corr: 10 0x74e-0x752 (4)
0x750|00 0a                                          |..              |
     |                                               |                |      [10]{}: leap_second_record 0x752-0x75e (12)
0x750|      00 00 00 00 17 80 fe 0a                  |  ........      |        occur: "1982-07-01T00:00:10Z" (394329610) 0x752-0x75a (8)
0x750|                              00 00 00 0b      |          ....  |        corr: 11 0x75a-0x75e (4)
     |                                               |                |      [11]{}: leap_second_record 0x75e-0x76a (12)
0x750|                                          00 00|              ..|        occur: "1983-07-01T00:00:11Z" (425865611) 0x75e-0x766 (8)
0x760|00 00 19 62 31 8b                              |...b1.          |
0x760|                  00 00 00 0c                  |      ....      |        corr: 12 0x766-0x76a (4)
     |                                               |                |      [12]{}: leap_second_record 0x76a-0x776 (12)
0x760|                              00 00 00 00 1d 25|          .....%|        occur: "1985-07-01T00:00:12Z" (489024012) 0x76a-0x772 (8)
0x770|ea 0c                                          |..              |
0x770|      00 00 00 0d                              |  ....          |        corr: 13 0x772-0x776 (4)
     |                                               |                |      [13]{}: leap_second_record 0x776-0x782 (12)
0x770|                  00 00 00 00 21 da e5 0d      |      ....!...  |        occur: "1988-01-01T00:00:13Z" (567993613) 0x776-0x77e (8)
0x770|                                          00 00|              ..|        corr: 14 0x77e-0x782 (4)
0x780|00 0e                                          |..              |
     |                                               |                |      [14]{}: leap_second_record 0x782-0x78e (12)
0x780|      00 00 00 00 25 9e 9d 8e                  |  ....%...      |        occur: "1990-01-01T00:00:14Z" (631152014) 0x782-0x78a (8)
0x780|                              00 00 00 0f      |          ....  |        corr: 15 0x78a-0x78e (4)
     |                                               |                |      [15]{}: leap_second_record 0x78e-0x79a (12)
0x780|                                          00 00|              ..|        occur: "1991-01-01T00:00:15Z" (662688015) 0x78e-0x796 (8)
0x790|00 00 27 7f d1 0f                              |..'...          |
0x790|                  00 00 00 10                  |      ....      |        corr: 16 0x796-0x79a (4)
     |                                               |                |      [16]{}: leap_second_record 0x79a-0x7a6 (12)
0x790|                              00 00 00 00 2a 50|          ....*P|        occur: "1992-07-01T00:00:16Z" (709948816) 0x79a-0x7a2 (8)
0x7a0|f5 90                                          |..              |
0x7a0|      00 00 00 11                              |  ....          |        corr: 17 0x7a2-0x7a6 (4)
     |                                               |                |      [17]{}: leap_second_record 0x7a6-0x7b2 (12)
0x7a0|                  00 00 00 00 2c 32 29 11      |      ....,2).  |        occur: "1993-07-01T00:00:17Z" (741484817) 0x7a6-0x7ae (8)
0x7a0|                                          00 00|              ..|        corr: 18 0x7ae-0x7b2 (4)
0x7b0|00 12                                          |..              |
     |                                               |                |      [18]{}: leap_second_record 0x7b2-0x7be (12)
0x7b0|      00 00 00 00 2e 13 5c 92                  |  ......\.      |        occur: "1994-07-01T00:00:18Z" (773020818) 0x7b2-0x7ba (8)
0x7b0|                              00 00 00 13      |          ....  |        corr: 19 0x7ba-0x7be (4)
     |                                               |                |      [19]{}: leap_second_record 0x7be-0x7ca (12)
0x7b0|                                          00 00|              ..|        occur: "1996-01-01T00:00:19Z" (820454419) 0x7be-0x7c6 (8)
0x7c0|00 00 30 e7 24 13                              |..0.$.          |
0x7c0|                  00 00 00 14                  |      ....      |        corr: 20 0x7c6-0x7ca (4)
     |                                               |                |      [20]{}: leap_second_record 0x7ca-0x7d6 (12)
0x7c0|                              00 00 00 00 33 b8|          ....3.|        occur: "1997-07-01T00:00:20Z" (867715220) 0x7ca-0x7d2 (8)
0x7d0|48 94                                          |H.              |
0x7d0|      00 00 00 15                              |  ....          |        corr: 21 0x7d2-0x7d6 (4)
     |                                               |                |      [21]{}: leap_second_record 0x7d6-0x7e2 (12)
0x7d0|                  00 00 00 00 36 8c 10 15      |      ....6...  |        occur: "1999-01-01T00:00:21Z" (915148821) 0x7d6-0x7de (8)
0x7d0|                                          00 00|              ..|        corr: 22 0x7de-0x7e2 (4)
0x7e0|00 16                                          |..              |
     |                                               |                |      [22]{}: leap_second_record 0x7e2-0x7ee (12)
0x7e0|      00 00 00 00 43 b7 1b 96                  |  ....C...      |        occur: "2006-01-01T00:00:22Z" (1136073622) 0x7e2-0x7ea (8)
0x7e0|                              00 00 00 17      |          ....  |        corr: 23 0x7ea-0x7ee (4)
     |                                               |                |      [23]{}: leap_second_record 0x7ee-0x7fa (12)
0x7e0|                                          00 00|              ..|        occur: "2009-01-01T00:00:23Z" (1230768023) 0x7ee-0x7f6 (8)
0x7f0|00 00 49 5c 07 97                              |..I\..          |
0x7f0|                  00 00 00 18                  |      ....      |        corr: 24 0x7f6-0x7fa (4)
     |                                               |                |      [24]{}: leap_second_record 0x7fa-0x806 (12)
0x7f0|                              00 00 00 00 4f ef|          ....O.|        occur: "2012-07-01T00:00:24Z" (1341100824) 0x7fa-0x802 (8)
0x800|93 18                                          |..              |
0x800|      00 00 00 19                              |  ....          |        corr: 25 0x802-0x806 (4)
     |                                               |                |      [25]{}: leap_second_record 0x806-0x812 (12)
0x800|                  00 00 00 00 55 93 2d 99      |      ....U.-.  |        occur: "2015-07-01T00:00:25Z" (1435708825) 0x806-0x80e (8)
0x800|                                          00 00|              ..|        corr: 26 0x80e-0x812 (4)
0x810|00 1a                                          |..              |
     |                                               |                |      [26]{}: leap_second_record 0x812-0x81e (12)
0x810|      00 00 00 00 58 68 46 9a                  |  ....XhF.      |        occur: "2017-01-01T00:00:26Z" (1483228826) 0x812-0x81a (8)
0x810|                              00 00 00 1b      |          ....  |        corr: 27 0x81a-0x81e (4)
     |                                               |                |    standard_wall_indicators[0:6]: 0x81e-0x824 (6)
0x810|                                          00   |              . |      [0]: 0 standard_wall_indicator (valid) 0x81e-0x81f (1)
0x810|                                             00|               .|      [1]: 0 standard_wall_indicator (valid) 0x81f-0x820 (1)
0x820|01                                             |.               |      [2]: 1 standard_wall_indicator (valid) 0x820-0x821 (1)
0x820|   00                                          | .              |      [3]: 0 standard_wall_indicator (valid) 0x821-0x822 (1)
0x820|      00                                       |  .             |      [4]: 0 standard_wall_indicator (valid) 0x822-0x823 (1)
0x820|         00                                    |   .            |      [5]: 0 standard_wall_indicator (valid) 0x823-0x824 (1)
     |                                               |                |    ut_local_indicators[0:6]: 0x824-0x82a (6)
0x820|            00                                 |    .           |      [0]: 0 ut_local_indicator (valid) 0x824-0x825 (1)
0x820|               00                              |     .          |      [1]: 0 ut_local_indicator (valid) 0x825-0x826 (1)
0x820|                  01                           |      .         |      [2]: 1 ut_local_indicator (valid) 0x826-0x827 (1)
0x820|                     00                        |       .        |      [3]: 0 ut_local_indicator (valid) 0x827-0x828 (1)
0x820|                        00                     |        .       |      [4]: 0 ut_local_indicator (valid) 0x828-0x829 (1)
0x820|                           00                  |         .      |      [5]: 0 ut_local_indicator (valid) 0x829-0x82a (1)
     |                                               |                |  footer{}: 0x82a-0x82c (2)
0x820|                              0a               |          .     |    nl1: 10 (valid) 0x82a-0x82b (1)
     |                                               |                |    tz_string: "" 0x82b-0x82b (0)
0x820|                                 0a|           |           .|   |    nl2: 10 (valid) 0x82b-0x82c (1)
