$ fq -d tzif dv Yerevan
     |00 01 02 03 04 05 06 07 08 09 0a 0b 0c 0d 0e 0f|0123456789abcdef|.{}: Yerevan (tzif) 0x0-0x693.7 (1684)
     |                                               |                |  v1header{}: 0x0-0x2b.7 (44)
0x000|54 5a 69 66                                    |TZif            |    magic: 0x545a6966 (valid) 0x0-0x3.7 (4)
0x000|            32                                 |    2           |    ver: "2" (0x32) (valid) 0x4-0x4.7 (1)
0x000|               00 00 00 00 00 00 00 00 00 00 00|     ...........|    reserved: raw bits 0x5-0x13.7 (15)
0x010|00 00 00 00                                    |....            |
0x010|            00 00 00 00                        |    ....        |    isutcnt: 0 0x14-0x17.7 (4)
0x010|                        00 00 00 0a            |        ....    |    isstdcnt: 10 0x18-0x1b.7 (4)
0x010|                                    00 00 00 1b|            ....|    leapcnt: 27 0x1c-0x1f.7 (4)
0x020|00 00 00 3f                                    |...?            |    timecnt: 63 0x20-0x23.7 (4)
0x020|            00 00 00 0a                        |    ....        |    typecnt: 10 0x24-0x27.7 (4)
0x020|                        00 00 00 10            |        ....    |    charcnt: 16 0x28-0x2b.7 (4)
     |                                               |                |  v1datablock{}: 0x2c-0x294.7 (617)
     |                                               |                |    transition_times[0:63]: 0x2c-0x127.7 (252)
0x020|                                    aa 19 9a 48|            ...H|      [0]: "1924-05-01T21:02:00Z" (-1441162680) transition_time 0x2c-0x2f.7 (4)
0x030|e7 da 0c 50                                    |...P            |      [1]: "1957-02-28T21:00:00Z" (-405140400) transition_time 0x30-0x33.7 (4)
0x030|            15 27 99 c9                        |    .'..        |      [2]: "1981-03-31T20:00:09Z" (354916809) transition_time 0x34-0x37.7 (4)
0x030|                        16 18 ce 3a            |        ...:    |      [3]: "1981-09-30T19:00:10Z" (370724410) transition_time 0x38-0x3b.7 (4)
0x030|                                    17 08 cd 4a|            ...J|      [4]: "1982-03-31T20:00:10Z" (386452810) transition_time 0x3c-0x3f.7 (4)
0x040|17 fa 01 bb                                    |....            |      [5]: "1982-09-30T19:00:11Z" (402260411) transition_time 0x40-0x43.7 (4)
0x040|            18 ea 00 cb                        |    ....        |      [6]: "1983-03-31T20:00:11Z" (417988811) transition_time 0x44-0x47.7 (4)
0x040|                        19 db 35 3c            |        ..5<    |      [7]: "1983-09-30T19:00:12Z" (433796412) transition_time 0x48-0x4b.7 (4)
0x040|                                    1a cc 85 cc|            ....|      [8]: "1984-03-31T20:00:12Z" (449611212) transition_time 0x4c-0x4f.7 (4)
0x050|1b bc 92 ec                                    |....            |      [9]: "1984-09-29T22:00:12Z" (465343212) transition_time 0x50-0x53.7 (4)
0x050|            1c ac 83 ec                        |    ....        |      [10]: "1985-03-30T22:00:12Z" (481068012) transition_time 0x54-0x57.7 (4)
0x050|                        1d 9c 74 ed            |        ..t.    |      [11]: "1985-09-28T22:00:13Z" (496792813) transition_time 0x58-0x5b.7 (4)
0x050|                                    1e 8c 65 ed|            ..e.|      [12]: "1986-03-29T22:00:13Z" (512517613) transition_time 0x5c-0x5f.7 (4)
0x060|1f 7c 56 ed                                    |.|V.            |      [13]: "1986-09-27T22:00:13Z" (528242413) transition_time 0x60-0x63.7 (4)
0x060|            20 6c 47 ed                        |     lG.        |      [14]: "1987-03-28T22:00:13Z" (543967213) transition_time 0x64-0x67.7 (4)
0x060|                        21 5c 38 ed            |        !\8.    |      [15]: "1987-09-26T22:00:13Z" (559692013) transition_time 0x68-0x6b.7 (4)
0x060|                                    22 4c 29 ee|            "L).|      [16]: "1988-03-26T22:00:14Z" (575416814) transition_time 0x6c-0x6f.7 (4)
0x070|23 3c 1a ee                                    |#<..            |      [17]: "1988-09-24T22:00:14Z" (591141614) transition_time 0x70-0x73.7 (4)
0x070|            24 2c 0b ee                        |    $,..        |      [18]: "1989-03-25T22:00:14Z" (606866414) transition_time 0x74-0x77.7 (4)
0x070|                        25 1b fc ee            |        %...    |      [19]: "1989-09-23T22:00:14Z" (622591214) transition_time 0x78-0x7b.7 (4)
0x070|                                    26 0b ed ef|            &...|      [20]: "1990-03-24T22:00:15Z" (638316015) transition_time 0x7c-0x7f.7 (4)
0x080|27 05 19 6f                                    |'..o            |      [21]: "1990-09-29T22:00:15Z" (654645615) transition_time 0x80-0x83.7 (4)
0x080|            27 f5 0a 70                        |    '..p        |      [22]: "1991-03-30T22:00:16Z" (670370416) transition_time 0x84-0x87.7 (4)
0x080|                        28 e5 09 80            |        (...    |      [23]: "1991-09-28T23:00:16Z" (686098816) transition_time 0x88-0x8b.7 (4)
0x080|                                    29 d4 fa 80|            )...|      [24]: "1992-03-28T23:00:16Z" (701823616) transition_time 0x8c-0x8f.7 (4)
0x090|2a c4 eb 81                                    |*...            |      [25]: "1992-09-26T23:00:17Z" (717548417) transition_time 0x90-0x93.7 (4)
0x090|            2b b4 dc 81                        |    +...        |      [26]: "1993-03-27T23:00:17Z" (733273217) transition_time 0x94-0x97.7 (4)
0x090|                        2c a4 cd 82            |        ,...    |      [27]: "1993-09-25T23:00:18Z" (748998018) transition_time 0x98-0x9b.7 (4)
0x090|                                    2d 94 be 82|            -...|      [28]: "1994-03-26T23:00:18Z" (764722818) transition_time 0x9c-0x9f.7 (4)
0x0a0|2e 84 af 83                                    |....            |      [29]: "1994-09-24T23:00:19Z" (780447619) transition_time 0xa0-0xa3.7 (4)
0x0a0|            2f 74 a0 83                        |    /t..        |      [30]: "1995-03-25T23:00:19Z" (796172419) transition_time 0xa4-0xa7.7 (4)
0x0a0|                        30 64 91 83            |        0d..    |      [31]: "1995-09-23T23:00:19Z" (811897219) transition_time 0xa8-0xab.7 (4)
0x0a0|                                    33 3d 90 f4|            3=..|      [32]: "1997-03-29T22:00:20Z" (859672820) transition_time 0xac-0xaf.7 (4)
0x0b0|34 52 6b f5                                    |4Rk.            |      [33]: "1997-10-25T22:00:21Z" (877816821) transition_time 0xb0-0xb3.7 (4)
0x0b0|            35 1d 72 f5                        |    5.r.        |      [34]: "1998-03-28T22:00:21Z" (891122421) transition_time 0xb4-0xb7.7 (4)
0x0b0|                        36 32 4d f5            |        62M.    |      [35]: "1998-10-24T22:00:21Z" (909266421) transition_time 0xb8-0xbb.7 (4)
0x0b0|                                    36 fd 54 f6|            6.T.|      [36]: "1999-03-27T22:00:22Z" (922572022) transition_time 0xbc-0xbf.7 (4)
0x0c0|38 1b 6a 76                                    |8.jv            |      [37]: "1999-10-30T22:00:22Z" (941320822) transition_time 0xc0-0xc3.7 (4)
0x0c0|            38 dd 36 f6                        |    8.6.        |      [38]: "2000-03-25T22:00:22Z" (954021622) transition_time 0xc4-0xc7.7 (4)
0x0c0|                        39 fb 4c 76            |        9.Lv    |      [39]: "2000-10-28T22:00:22Z" (972770422) transition_time 0xc8-0xcb.7 (4)
0x0c0|                                    3a bd 18 f6|            :...|      [40]: "2001-03-24T22:00:22Z" (985471222) transition_time 0xcc-0xcf.7 (4)
0x0d0|3b db 2e 76                                    |;..v            |      [41]: "2001-10-27T22:00:22Z" (1004220022) transition_time 0xd0-0xd3.7 (4)
0x0d0|            3c a6 35 76                        |    <.5v        |      [42]: "2002-03-30T22:00:22Z" (1017525622) transition_time 0xd4-0xd7.7 (4)
0x0d0|                        3d bb 10 76            |        =..v    |      [43]: "2002-10-26T22:00:22Z" (1035669622) transition_time 0xd8-0xdb.7 (4)
0x0d0|                                    3e 86 17 76|            >..v|      [44]: "2003-03-29T22:00:22Z" (1048975222) transition_time 0xdc-0xdf.7 (4)
0x0e0|3f 9a f2 76                                    |?..v            |      [45]: "2003-10-25T22:00:22Z" (1067119222) transition_time 0xe0-0xe3.7 (4)
0x0e0|            40 65 f9 76                        |    @e.v        |      [46]: "2004-03-27T22:00:22Z" (1080424822) transition_time 0xe4-0xe7.7 (4)
0x0e0|                        41 84 0e f6            |        A...    |      [47]: "2004-10-30T22:00:22Z" (1099173622) transition_time 0xe8-0xeb.7 (4)
0x0e0|                                    42 45 db 76|            BE.v|      [48]: "2005-03-26T22:00:22Z" (1111874422) transition_time 0xec-0xef.7 (4)
0x0f0|43 63 f0 f6                                    |Cc..            |      [49]: "2005-10-29T22:00:22Z" (1130623222) transition_time 0xf0-0xf3.7 (4)
0x0f0|            44 25 bd 77                        |    D%.w        |      [50]: "2006-03-25T22:00:23Z" (1143324023) transition_time 0xf4-0xf7.7 (4)
0x0f0|                        45 43 d2 f7            |        EC..    |      [51]: "2006-10-28T22:00:23Z" (1162072823) transition_time 0xf8-0xfb.7 (4)
0x0f0|                                    46 05 9f 77|            F..w|      [52]: "2007-03-24T22:00:23Z" (1174773623) transition_time 0xfc-0xff.7 (4)
0x100|47 23 b4 f7                                    |G#..            |      [53]: "2007-10-27T22:00:23Z" (1193522423) transition_time 0x100-0x103.7 (4)
0x100|            47 ee bb f7                        |    G...        |      [54]: "2008-03-29T22:00:23Z" (1206828023) transition_time 0x104-0x107.7 (4)
0x100|                        49 03 96 f7            |        I...    |      [55]: "2008-10-25T22:00:23Z" (1224972023) transition_time 0x108-0x10b.7 (4)
0x100|                                    49 ce 9d f8|            I...|      [56]: "2009-03-28T22:00:24Z" (1238277624) transition_time 0x10c-0x10f.7 (4)
0x110|4a e3 78 f8                                    |J.x.            |      [57]: "2009-10-24T22:00:24Z" (1256421624) transition_time 0x110-0x113.7 (4)
0x110|            4b ae 7f f8                        |    K...        |      [58]: "2010-03-27T22:00:24Z" (1269727224) transition_time 0x114-0x117.7 (4)
0x110|                        4c cc 95 78            |        L..x    |      [59]: "2010-10-30T22:00:24Z" (1288476024) transition_time 0x118-0x11b.7 (4)
0x110|                                    4d 8e 61 f8|            M.a.|      [60]: "2011-03-26T22:00:24Z" (1301176824) transition_time 0x11c-0x11f.7 (4)
0x120|4e ac 77 78                                    |N.wx            |      [61]: "2011-10-29T22:00:24Z" (1319925624) transition_time 0x120-0x123.7 (4)
0x120|            64 9b 78 1b                        |    d.x.        |      [62]: "2023-06-28T00:00:27Z" (1687910427) transition_time 0x124-0x127.7 (4)
     |                                               |                |    transition_types[0:63]: 0x128-0x166.7 (63)
0x120|                        01                     |        .       |      [0]: 1 transition_type 0x128-0x128.7 (1)
0x120|                           03                  |         .      |      [1]: 3 transition_type 0x129-0x129.7 (1)
0x120|                              02               |          .     |      [2]: 2 transition_type 0x12a-0x12a.7 (1)
0x120|                                 03            |           .    |      [3]: 3 transition_type 0x12b-0x12b.7 (1)
0x120|                                    02         |            .   |      [4]: 2 transition_type 0x12c-0x12c.7 (1)
0x120|                                       03      |             .  |      [5]: 3 transition_type 0x12d-0x12d.7 (1)
0x120|                                          02   |              . |      [6]: 2 transition_type 0x12e-0x12e.7 (1)
0x120|                                             03|               .|      [7]: 3 transition_type 0x12f-0x12f.7 (1)
0x130|02                                             |.               |      [8]: 2 transition_type 0x130-0x130.7 (1)
0x130|   04                                          | .              |      [9]: 4 transition_type 0x131-0x131.7 (1)
0x130|      05                                       |  .             |      [10]: 5 transition_type 0x132-0x132.7 (1)
0x130|         04                                    |   .            |      [11]: 4 transition_type 0x133-0x133.7 (1)
0x130|            05                                 |    .           |      [12]: 5 transition_type 0x134-0x134.7 (1)
0x130|               04                              |     .          |      [13]: 4 transition_type 0x135-0x135.7 (1)
0x130|                  05                           |      .         |      [14]: 5 transition_type 0x136-0x136.7 (1)
0x130|                     04                        |       .        |      [15]: 4 transition_type 0x137-0x137.7 (1)
0x130|                        05                     |        .       |      [16]: 5 transition_type 0x138-0x138.7 (1)
0x130|                           04                  |         .      |      [17]: 4 transition_type 0x139-0x139.7 (1)
0x130|                              05               |          .     |      [18]: 5 transition_type 0x13a-0x13a.7 (1)
0x130|                                 04            |           .    |      [19]: 4 transition_type 0x13b-0x13b.7 (1)
0x130|                                    05         |            .   |      [20]: 5 transition_type 0x13c-0x13c.7 (1)
0x130|                                       04      |             .  |      [21]: 4 transition_type 0x13d-0x13d.7 (1)
0x130|                                          06   |              . |      [22]: 6 transition_type 0x13e-0x13e.7 (1)
0x130|                                             07|               .|      [23]: 7 transition_type 0x13f-0x13f.7 (1)
0x140|06                                             |.               |      [24]: 6 transition_type 0x140-0x140.7 (1)
0x140|   07                                          | .              |      [25]: 7 transition_type 0x141-0x141.7 (1)
0x140|      06                                       |  .             |      [26]: 6 transition_type 0x142-0x142.7 (1)
0x140|         07                                    |   .            |      [27]: 7 transition_type 0x143-0x143.7 (1)
0x140|            06                                 |    .           |      [28]: 6 transition_type 0x144-0x144.7 (1)
0x140|               07                              |     .          |      [29]: 7 transition_type 0x145-0x145.7 (1)
0x140|                  06                           |      .         |      [30]: 6 transition_type 0x146-0x146.7 (1)
0x140|                     04                        |       .        |      [31]: 4 transition_type 0x147-0x147.7 (1)
0x140|                        05                     |        .       |      [32]: 5 transition_type 0x148-0x148.7 (1)
0x140|                           04                  |         .      |      [33]: 4 transition_type 0x149-0x149.7 (1)
0x140|                              05               |          .     |      [34]: 5 transition_type 0x14a-0x14a.7 (1)
0x140|                                 04            |           .    |      [35]: 4 transition_type 0x14b-0x14b.7 (1)
0x140|                                    05         |            .   |      [36]: 5 transition_type 0x14c-0x14c.7 (1)
0x140|                                       04      |             .  |      [37]: 4 transition_type 0x14d-0x14d.7 (1)
0x140|                                          05   |              . |      [38]: 5 transition_type 0x14e-0x14e.7 (1)
0x140|                                             04|               .|      [39]: 4 transition_type 0x14f-0x14f.7 (1)
0x150|05                                             |.               |      [40]: 5 transition_type 0x150-0x150.7 (1)
0x150|   04                                          | .              |      [41]: 4 transition_type 0x151-0x151.7 (1)
0x150|      05                                       |  .             |      [42]: 5 transition_type 0x152-0x152.7 (1)
0x150|         04                                    |   .            |      [43]: 4 transition_type 0x153-0x153.7 (1)
0x150|            05                                 |    .           |      [44]: 5 transition_type 0x154-0x154.7 (1)
0x150|               04                              |     .          |      [45]: 4 transition_type 0x155-0x155.7 (1)
0x150|                  05                           |      .         |      [46]: 5 transition_type 0x156-0x156.7 (1)
0x150|                     04                        |       .        |      [47]: 4 transition_type 0x157-0x157.7 (1)
0x150|                        05                     |        .       |      [48]: 5 transition_type 0x158-0x158.7 (1)
0x150|                           04                  |         .      |      [49]: 4 transition_type 0x159-0x159.7 (1)
0x150|                              05               |          .     |      [50]: 5 transition_type 0x15a-0x15a.7 (1)
0x150|                                 04            |           .    |      [51]: 4 transition_type 0x15b-0x15b.7 (1)
0x150|                                    05         |            .   |      [52]: 5 transition_type 0x15c-0x15c.7 (1)
0x150|                                       04      |             .  |      [53]: 4 transition_type 0x15d-0x15d.7 (1)
0x150|                                          05   |              . |      [54]: 5 transition_type 0x15e-0x15e.7 (1)
0x150|                                             04|               .|      [55]: 4 transition_type 0x15f-0x15f.7 (1)
0x160|05                                             |.               |      [56]: 5 transition_type 0x160-0x160.7 (1)
0x160|   04                                          | .              |      [57]: 4 transition_type 0x161-0x161.7 (1)
0x160|      05                                       |  .             |      [58]: 5 transition_type 0x162-0x162.7 (1)
0x160|         04                                    |   .            |      [59]: 4 transition_type 0x163-0x163.7 (1)
0x160|            05                                 |    .           |      [60]: 5 transition_type 0x164-0x164.7 (1)
0x160|               04                              |     .          |      [61]: 4 transition_type 0x165-0x165.7 (1)
0x160|                  04                           |      .         |      [62]: 4 transition_type 0x166-0x166.7 (1)
     |                                               |                |    local_time_type_records[0:10]: 0x167-0x1a2.7 (60)
     |                                               |                |      [0]{}: local_time_type 0x167-0x16c.7 (6)
0x160|                     00 00 29 b8               |       ..).     |        utoff: 10680 (valid) 0x167-0x16a.7 (4)
0x160|                                 00            |           .    |        dst: 0 (valid) 0x16b-0x16b.7 (1)
0x160|                                    00         |            .   |        idx: 0 (valid) 0x16c-0x16c.7 (1)
     |                                               |                |      [1]{}: local_time_type 0x16d-0x172.7 (6)
0x160|                                       00 00 2a|             ..*|        utoff: 10800 (valid) 0x16d-0x170.7 (4)
0x170|30                                             |0               |
0x170|   00                                          | .              |        dst: 0 (valid) 0x171-0x171.7 (1)
0x170|      04                                       |  .             |        idx: 4 (valid) 0x172-0x172.7 (1)
     |                                               |                |      [2]{}: local_time_type 0x173-0x178.7 (6)
0x170|         00 00 46 50                           |   ..FP         |        utoff: 18000 (valid) 0x173-0x176.7 (4)
0x170|                     01                        |       .        |        dst: 1 (valid) 0x177-0x177.7 (1)
0x170|                        08                     |        .       |        idx: 8 (valid) 0x178-0x178.7 (1)
     |                                               |                |      [3]{}: local_time_type 0x179-0x17e.7 (6)
0x170|                           00 00 38 40         |         ..8@   |        utoff: 14400 (valid) 0x179-0x17c.7 (4)
0x170|                                       00      |             .  |        dst: 0 (valid) 0x17d-0x17d.7 (1)
0x170|                                          0c   |              . |        idx: 12 (valid) 0x17e-0x17e.7 (1)
     |                                               |                |      [4]{}: local_time_type 0x17f-0x184.7 (6)
0x170|                                             00|               .|        utoff: 14400 (valid) 0x17f-0x182.7 (4)
0x180|00 38 40                                       |.8@             |
0x180|         00                                    |   .            |        dst: 0 (valid) 0x183-0x183.7 (1)
0x180|            0c                                 |    .           |        idx: 12 (valid) 0x184-0x184.7 (1)
     |                                               |                |      [5]{}: local_time_type 0x185-0x18a.7 (6)
0x180|               00 00 46 50                     |     ..FP       |        utoff: 18000 (valid) 0x185-0x188.7 (4)
0x180|                           01                  |         .      |        dst: 1 (valid) 0x189-0x189.7 (1)
0x180|                              08               |          .     |        idx: 8 (valid) 0x18a-0x18a.7 (1)
     |                                               |                |      [6]{}: local_time_type 0x18b-0x190.7 (6)
0x180|                                 00 00 38 40   |           ..8@ |        utoff: 14400 (valid) 0x18b-0x18e.7 (4)
0x180|                                             01|               .|        dst: 1 (valid) 0x18f-0x18f.7 (1)
0x190|0c                                             |.               |        idx: 12 (valid) 0x190-0x190.7 (1)
     |                                               |                |      [7]{}: local_time_type 0x191-0x196.7 (6)
0x190|   00 00 2a 30                                 | ..*0           |        utoff: 10800 (valid) 0x191-0x194.7 (4)
0x190|               00                              |     .          |        dst: 0 (valid) 0x195-0x195.7 (1)
0x190|                  04                           |      .         |        idx: 4 (valid) 0x196-0x196.7 (1)
     |                                               |                |      [8]{}: local_time_type 0x197-0x19c.7 (6)
0x190|                     00 00 46 50               |       ..FP     |        utoff: 18000 (valid) 0x197-0x19a.7 (4)
0x190|                                 01            |           .    |        dst: 1 (valid) 0x19b-0x19b.7 (1)
0x190|                                    08         |            .   |        idx: 8 (valid) 0x19c-0x19c.7 (1)
     |                                               |                |      [9]{}: local_time_type 0x19d-0x1a2.7 (6)
0x190|                                       00 00 38|             ..8|        utoff: 14400 (valid) 0x19d-0x1a0.7 (4)
0x1a0|40                                             |@               |
0x1a0|   00                                          | .              |        dst: 0 (valid) 0x1a1-0x1a1.7 (1)
0x1a0|      0c                                       |  .             |        idx: 12 (valid) 0x1a2-0x1a2.7 (1)
     |                                               |                |    time_zone_designations[0:4]: 0x1a3-0x1b2.7 (16)
0x1a0|         4c 4d 54 00                           |   LMT.         |      [0]: "LMT" time_zone_designation 0x1a3-0x1a6.7 (4)
0x1a0|                     2b 30 33 00               |       +03.     |      [1]: "+03" time_zone_designation 0x1a7-0x1aa.7 (4)
0x1a0|                                 2b 30 35 00   |           +05. |      [2]: "+05" time_zone_designation 0x1ab-0x1ae.7 (4)
0x1a0|                                             2b|               +|      [3]: "+04" time_zone_designation 0x1af-0x1b2.7 (4)
0x1b0|30 34 00                                       |04.             |
     |                                               |                |    leap_second_records[0:27]: 0x1b3-0x28a.7 (216)
     |                                               |                |      [0]{}: leap_second_record 0x1b3-0x1ba.7 (8)
0x1b0|         04 b2 58 00                           |   ..X.         |        occur: "1972-07-01T00:00:00Z" (78796800) 0x1b3-0x1b6.7 (4)
0x1b0|                     00 00 00 01               |       ....     |        corr: 1 0x1b7-0x1ba.7 (4)
     |                                               |                |      [1]{}: leap_second_record 0x1bb-0x1c2.7 (8)
0x1b0|                                 05 a4 ec 01   |           .... |        occur: "1973-01-01T00:00:01Z" (94694401) 0x1bb-0x1be.7 (4)
0x1b0|                                             00|               .|        corr: 2 0x1bf-0x1c2.7 (4)
0x1c0|00 00 02                                       |...             |
     |                                               |                |      [2]{}: leap_second_record 0x1c3-0x1ca.7 (8)
0x1c0|         07 86 1f 82                           |   ....         |        occur: "1974-01-01T00:00:02Z" (126230402) 0x1c3-0x1c6.7 (4)
0x1c0|                     00 00 00 03               |       ....     |        corr: 3 0x1c7-0x1ca.7 (4)
     |                                               |                |      [3]{}: leap_second_record 0x1cb-0x1d2.7 (8)
0x1c0|                                 09 67 53 03   |           .gS. |        occur: "1975-01-01T00:00:03Z" (157766403) 0x1cb-0x1ce.7 (4)
0x1c0|                                             00|               .|        corr: 4 0x1cf-0x1d2.7 (4)
0x1d0|00 00 04                                       |...             |
     |                                               |                |      [4]{}: leap_second_record 0x1d3-0x1da.7 (8)
0x1d0|         0b 48 86 84                           |   .H..         |        occur: "1976-01-01T00:00:04Z" (189302404) 0x1d3-0x1d6.7 (4)
0x1d0|                     00 00 00 05               |       ....     |        corr: 5 0x1d7-0x1da.7 (4)
     |                                               |                |      [5]{}: leap_second_record 0x1db-0x1e2.7 (8)
0x1d0|                                 0d 2b 0b 85   |           .+.. |        occur: "1977-01-01T00:00:05Z" (220924805) 0x1db-0x1de.7 (4)
0x1d0|                                             00|               .|        corr: 6 0x1df-0x1e2.7 (4)
0x1e0|00 00 06                                       |...             |
     |                                               |                |      [6]{}: leap_second_record 0x1e3-0x1ea.7 (8)
0x1e0|         0f 0c 3f 06                           |   ..?.         |        occur: "1978-01-01T00:00:06Z" (252460806) 0x1e3-0x1e6.7 (4)
0x1e0|                     00 00 00 07               |       ....     |        corr: 7 0x1e7-0x1ea.7 (4)
     |                                               |                |      [7]{}: leap_second_record 0x1eb-0x1f2.7 (8)
0x1e0|                                 10 ed 72 87   |           ..r. |        occur: "1979-01-01T00:00:07Z" (283996807) 0x1eb-0x1ee.7 (4)
0x1e0|                                             00|               .|        corr: 8 0x1ef-0x1f2.7 (4)
0x1f0|00 00 08                                       |...             |
     |                                               |                |      [8]{}: leap_second_record 0x1f3-0x1fa.7 (8)
0x1f0|         12 ce a6 08                           |   ....         |        occur: "1980-01-01T00:00:08Z" (315532808) 0x1f3-0x1f6.7 (4)
0x1f0|                     00 00 00 09               |       ....     |        corr: 9 0x1f7-0x1fa.7 (4)
     |                                               |                |      [9]{}: leap_second_record 0x1fb-0x202.7 (8)
0x1f0|                                 15 9f ca 89   |           .... |        occur: "1981-07-01T00:00:09Z" (362793609) 0x1fb-0x1fe.7 (4)
0x1f0|                                             00|               .|        corr: 10 0x1ff-0x202.7 (4)
0x200|00 00 0a                                       |...             |
     |                                               |                |      [10]{}: leap_second_record 0x203-0x20a.7 (8)
0x200|         17 80 fe 0a                           |   ....         |        occur: "1982-07-01T00:00:10Z" (394329610) 0x203-0x206.7 (4)
0x200|                     00 00 00 0b               |       ....     |        corr: 11 0x207-0x20a.7 (4)
     |                                               |                |      [11]{}: leap_second_record 0x20b-0x212.7 (8)
0x200|                                 19 62 31 8b   |           .b1. |        occur: "1983-07-01T00:00:11Z" (425865611) 0x20b-0x20e.7 (4)
0x200|                                             00|               .|        corr: 12 0x20f-0x212.7 (4)
0x210|00 00 0c                                       |...             |
     |                                               |                |      [12]{}: leap_second_record 0x213-0x21a.7 (8)
0x210|         1d 25 ea 0c                           |   .%..         |        occur: "1985-07-01T00:00:12Z" (489024012) 0x213-0x216.7 (4)
0x210|                     00 00 00 0d               |       ....     |        corr: 13 0x217-0x21a.7 (4)
     |                                               |                |      [13]{}: leap_second_record 0x21b-0x222.7 (8)
0x210|                                 21 da e5 0d   |           !... |        occur: "1988-01-01T00:00:13Z" (567993613) 0x21b-0x21e.7 (4)
0x210|                                             00|               .|        corr: 14 0x21f-0x222.7 (4)
0x220|00 00 0e                                       |...             |
     |                                               |                |      [14]{}: leap_second_record 0x223-0x22a.7 (8)
0x220|         25 9e 9d 8e                           |   %...         |        occur: "1990-01-01T00:00:14Z" (631152014) 0x223-0x226.7 (4)
0x220|                     00 00 00 0f               |       ....     |        corr: 15 0x227-0x22a.7 (4)
     |                                               |                |      [15]{}: leap_second_record 0x22b-0x232.7 (8)
0x220|                                 27 7f d1 0f   |           '... |        occur: "1991-01-01T00:00:15Z" (662688015) 0x22b-0x22e.7 (4)
0x220|                                             00|               .|        corr: 16 0x22f-0x232.7 (4)
0x230|00 00 10                                       |...             |
     |                                               |                |      [16]{}: leap_second_record 0x233-0x23a.7 (8)
0x230|         2a 50 f5 90                           |   *P..         |        occur: "1992-07-01T00:00:16Z" (709948816) 0x233-0x236.7 (4)
0x230|                     00 00 00 11               |       ....     |        corr: 17 0x237-0x23a.7 (4)
     |                                               |                |      [17]{}: leap_second_record 0x23b-0x242.7 (8)
0x230|                                 2c 32 29 11   |           ,2). |        occur: "1993-07-01T00:00:17Z" (741484817) 0x23b-0x23e.7 (4)
0x230|                                             00|               .|        corr: 18 0x23f-0x242.7 (4)
0x240|00 00 12                                       |...             |
     |                                               |                |      [18]{}: leap_second_record 0x243-0x24a.7 (8)
0x240|         2e 13 5c 92                           |   ..\.         |        occur: "1994-07-01T00:00:18Z" (773020818) 0x243-0x246.7 (4)
0x240|                     00 00 00 13               |       ....     |        corr: 19 0x247-0x24a.7 (4)
     |                                               |                |      [19]{}: leap_second_record 0x24b-0x252.7 (8)
0x240|                                 30 e7 24 13   |           0.$. |        occur: "1996-01-01T00:00:19Z" (820454419) 0x24b-0x24e.7 (4)
0x240|                                             00|               .|        corr: 20 0x24f-0x252.7 (4)
0x250|00 00 14                                       |...             |
     |                                               |                |      [20]{}: leap_second_record 0x253-0x25a.7 (8)
0x250|         33 b8 48 94                           |   3.H.         |        occur: "1997-07-01T00:00:20Z" (867715220) 0x253-0x256.7 (4)
0x250|                     00 00 00 15               |       ....     |        corr: 21 0x257-0x25a.7 (4)
     |                                               |                |      [21]{}: leap_second_record 0x25b-0x262.7 (8)
0x250|                                 36 8c 10 15   |           6... |        occur: "1999-01-01T00:00:21Z" (915148821) 0x25b-0x25e.7 (4)
0x250|                                             00|               .|        corr: 22 0x25f-0x262.7 (4)
0x260|00 00 16                                       |...             |
     |                                               |                |      [22]{}: leap_second_record 0x263-0x26a.7 (8)
0x260|         43 b7 1b 96                           |   C...         |        occur: "2006-01-01T00:00:22Z" (1136073622) 0x263-0x266.7 (4)
0x260|                     00 00 00 17               |       ....     |        corr: 23 0x267-0x26a.7 (4)
     |                                               |                |      [23]{}: leap_second_record 0x26b-0x272.7 (8)
0x260|                                 49 5c 07 97   |           I\.. |        occur: "2009-01-01T00:00:23Z" (1230768023) 0x26b-0x26e.7 (4)
0x260|                                             00|               .|        corr: 24 0x26f-0x272.7 (4)
0x270|00 00 18                                       |...             |
     |                                               |                |      [24]{}: leap_second_record 0x273-0x27a.7 (8)
0x270|         4f ef 93 18                           |   O...         |        occur: "2012-07-01T00:00:24Z" (1341100824) 0x273-0x276.7 (4)
0x270|                     00 00 00 19               |       ....     |        corr: 25 0x277-0x27a.7 (4)
     |                                               |                |      [25]{}: leap_second_record 0x27b-0x282.7 (8)
0x270|                                 55 93 2d 99   |           U.-. |        occur: "2015-07-01T00:00:25Z" (1435708825) 0x27b-0x27e.7 (4)
0x270|                                             00|               .|        corr: 26 0x27f-0x282.7 (4)
0x280|00 00 1a                                       |...             |
     |                                               |                |      [26]{}: leap_second_record 0x283-0x28a.7 (8)
0x280|         58 68 46 9a                           |   XhF.         |        occur: "2017-01-01T00:00:26Z" (1483228826) 0x283-0x286.7 (4)
0x280|                     00 00 00 1b               |       ....     |        corr: 27 0x287-0x28a.7 (4)
     |                                               |                |    standard_wall_indicators[0:10]: 0x28b-0x294.7 (10)
0x280|                                 00            |           .    |      [0]: 0 standard_wall_indicator (valid) 0x28b-0x28b.7 (1)
0x280|                                    00         |            .   |      [1]: 0 standard_wall_indicator (valid) 0x28c-0x28c.7 (1)
0x280|                                       00      |             .  |      [2]: 0 standard_wall_indicator (valid) 0x28d-0x28d.7 (1)
0x280|                                          00   |              . |      [3]: 0 standard_wall_indicator (valid) 0x28e-0x28e.7 (1)
0x280|                                             01|               .|      [4]: 1 standard_wall_indicator (valid) 0x28f-0x28f.7 (1)
0x290|01                                             |.               |      [5]: 1 standard_wall_indicator (valid) 0x290-0x290.7 (1)
0x290|   01                                          | .              |      [6]: 1 standard_wall_indicator (valid) 0x291-0x291.7 (1)
0x290|      01                                       |  .             |      [7]: 1 standard_wall_indicator (valid) 0x292-0x292.7 (1)
0x290|         01                                    |   .            |      [8]: 1 standard_wall_indicator (valid) 0x293-0x293.7 (1)
0x290|            01                                 |    .           |      [9]: 1 standard_wall_indicator (valid) 0x294-0x294.7 (1)
     |                                               |                |    ut_local_indicators[0:0]: 0x295-NA (0)
     |                                               |                |  v2plusheader{}: 0x295-0x2c0.7 (44)
0x290|               54 5a 69 66                     |     TZif       |    magic: 0x545a6966 (valid) 0x295-0x298.7 (4)
0x290|                           32                  |         2      |    ver: "2" (0x32) (valid) 0x299-0x299.7 (1)
0x290|                              00 00 00 00 00 00|          ......|    reserved: raw bits 0x29a-0x2a8.7 (15)
0x2a0|00 00 00 00 00 00 00 00 00                     |.........       |
0x2a0|                           00 00 00 00         |         ....   |    isutcnt: 0 0x2a9-0x2ac.7 (4)
0x2a0|                                       00 00 00|             ...|    isstdcnt: 10 0x2ad-0x2b0.7 (4)
0x2b0|0a                                             |.               |
0x2b0|   00 00 00 1b                                 | ....           |    leapcnt: 27 0x2b1-0x2b4.7 (4)
0x2b0|               00 00 00 3f                     |     ...?       |    timecnt: 63 0x2b5-0x2b8.7 (4)
0x2b0|                           00 00 00 0a         |         ....   |    typecnt: 10 0x2b9-0x2bc.7 (4)
0x2b0|                                       00 00 00|             ...|    charcnt: 16 0x2bd-0x2c0.7 (4)
0x2c0|10                                             |.               |
     |                                               |                |  v2plusdatablock{}: 0x2c1-0x691.7 (977)
     |                                               |                |    transition_times[0:63]: 0x2c1-0x4b8.7 (504)
0x2c0|   ff ff ff ff aa 19 9a 48                     | .......H       |      [0]: "1924-05-01T21:02:00Z" (-1441162680) transition_time 0x2c1-0x2c8.7 (8)
0x2c0|                           ff ff ff ff e7 da 0c|         .......|      [1]: "1957-02-28T21:00:00Z" (-405140400) transition_time 0x2c9-0x2d0.7 (8)
0x2d0|50                                             |P               |
0x2d0|   00 00 00 00 15 27 99 c9                     | .....'..       |      [2]: "1981-03-31T20:00:09Z" (354916809) transition_time 0x2d1-0x2d8.7 (8)
0x2d0|                           00 00 00 00 16 18 ce|         .......|      [3]: "1981-09-30T19:00:10Z" (370724410) transition_time 0x2d9-0x2e0.7 (8)
0x2e0|3a                                             |:               |
0x2e0|   00 00 00 00 17 08 cd 4a                     | .......J       |      [4]: "1982-03-31T20:00:10Z" (386452810) transition_time 0x2e1-0x2e8.7 (8)
0x2e0|                           00 00 00 00 17 fa 01|         .......|      [5]: "1982-09-30T19:00:11Z" (402260411) transition_time 0x2e9-0x2f0.7 (8)
0x2f0|bb                                             |.               |
0x2f0|   00 00 00 00 18 ea 00 cb                     | ........       |      [6]: "1983-03-31T20:00:11Z" (417988811) transition_time 0x2f1-0x2f8.7 (8)
0x2f0|                           00 00 00 00 19 db 35|         ......5|      [7]: "1983-09-30T19:00:12Z" (433796412) transition_time 0x2f9-0x300.7 (8)
0x300|3c                                             |<               |
0x300|   00 00 00 00 1a cc 85 cc                     | ........       |      [8]: "1984-03-31T20:00:12Z" (449611212) transition_time 0x301-0x308.7 (8)
0x300|                           00 00 00 00 1b bc 92|         .......|      [9]: "1984-09-29T22:00:12Z" (465343212) transition_time 0x309-0x310.7 (8)
0x310|ec                                             |.               |
0x310|   00 00 00 00 1c ac 83 ec                     | ........       |      [10]: "1985-03-30T22:00:12Z" (481068012) transition_time 0x311-0x318.7 (8)
0x310|                           00 00 00 00 1d 9c 74|         ......t|      [11]: "1985-09-28T22:00:13Z" (496792813) transition_time 0x319-0x320.7 (8)
0x320|ed                                             |.               |
0x320|   00 00 00 00 1e 8c 65 ed                     | ......e.       |      [12]: "1986-03-29T22:00:13Z" (512517613) transition_time 0x321-0x328.7 (8)
0x320|                           00 00 00 00 1f 7c 56|         .....|V|      [13]: "1986-09-27T22:00:13Z" (528242413) transition_time 0x329-0x330.7 (8)
0x330|ed                                             |.               |
0x330|   00 00 00 00 20 6c 47 ed                     | .... lG.       |      [14]: "1987-03-28T22:00:13Z" (543967213) transition_time 0x331-0x338.7 (8)
0x330|                           00 00 00 00 21 5c 38|         ....!\8|      [15]: "1987-09-26T22:00:13Z" (559692013) transition_time 0x339-0x340.7 (8)
0x340|ed                                             |.               |
0x340|   00 00 00 00 22 4c 29 ee                     | ...."L).       |      [16]: "1988-03-26T22:00:14Z" (575416814) transition_time 0x341-0x348.7 (8)
0x340|                           00 00 00 00 23 3c 1a|         ....#<.|      [17]: "1988-09-24T22:00:14Z" (591141614) transition_time 0x349-0x350.7 (8)
0x350|ee                                             |.               |
0x350|   00 00 00 00 24 2c 0b ee                     | ....$,..       |      [18]: "1989-03-25T22:00:14Z" (606866414) transition_time 0x351-0x358.7 (8)
0x350|                           00 00 00 00 25 1b fc|         ....%..|      [19]: "1989-09-23T22:00:14Z" (622591214) transition_time 0x359-0x360.7 (8)
0x360|ee                                             |.               |
0x360|   00 00 00 00 26 0b ed ef                     | ....&...       |      [20]: "1990-03-24T22:00:15Z" (638316015) transition_time 0x361-0x368.7 (8)
0x360|                           00 00 00 00 27 05 19|         ....'..|      [21]: "1990-09-29T22:00:15Z" (654645615) transition_time 0x369-0x370.7 (8)
0x370|6f                                             |o               |
0x370|   00 00 00 00 27 f5 0a 70                     | ....'..p       |      [22]: "1991-03-30T22:00:16Z" (670370416) transition_time 0x371-0x378.7 (8)
0x370|                           00 00 00 00 28 e5 09|         ....(..|      [23]: "1991-09-28T23:00:16Z" (686098816) transition_time 0x379-0x380.7 (8)
0x380|80                                             |.               |
0x380|   00 00 00 00 29 d4 fa 80                     | ....)...       |      [24]: "1992-03-28T23:00:16Z" (701823616) transition_time 0x381-0x388.7 (8)
0x380|                           00 00 00 00 2a c4 eb|         ....*..|      [25]: "1992-09-26T23:00:17Z" (717548417) transition_time 0x389-0x390.7 (8)
0x390|81                                             |.               |
0x390|   00 00 00 00 2b b4 dc 81                     | ....+...       |      [26]: "1993-03-27T23:00:17Z" (733273217) transition_time 0x391-0x398.7 (8)
0x390|                           00 00 00 00 2c a4 cd|         ....,..|      [27]: "1993-09-25T23:00:18Z" (748998018) transition_time 0x399-0x3a0.7 (8)
0x3a0|82                                             |.               |
0x3a0|   00 00 00 00 2d 94 be 82                     | ....-...       |      [28]: "1994-03-26T23:00:18Z" (764722818) transition_time 0x3a1-0x3a8.7 (8)
0x3a0|                           00 00 00 00 2e 84 af|         .......|      [29]: "1994-09-24T23:00:19Z" (780447619) transition_time 0x3a9-0x3b0.7 (8)
0x3b0|83                                             |.               |
0x3b0|   00 00 00 00 2f 74 a0 83                     | ..../t..       |      [30]: "1995-03-25T23:00:19Z" (796172419) transition_time 0x3b1-0x3b8.7 (8)
0x3b0|                           00 00 00 00 30 64 91|         ....0d.|      [31]: "1995-09-23T23:00:19Z" (811897219) transition_time 0x3b9-0x3c0.7 (8)
0x3c0|83                                             |.               |
0x3c0|   00 00 00 00 33 3d 90 f4                     | ....3=..       |      [32]: "1997-03-29T22:00:20Z" (859672820) transition_time 0x3c1-0x3c8.7 (8)
0x3c0|                           00 00 00 00 34 52 6b|         ....4Rk|      [33]: "1997-10-25T22:00:21Z" (877816821) transition_time 0x3c9-0x3d0.7 (8)
0x3d0|f5                                             |.               |
0x3d0|   00 00 00 00 35 1d 72 f5                     | ....5.r.       |      [34]: "1998-03-28T22:00:21Z" (891122421) transition_time 0x3d1-0x3d8.7 (8)
0x3d0|                           00 00 00 00 36 32 4d|         ....62M|      [35]: "1998-10-24T22:00:21Z" (909266421) transition_time 0x3d9-0x3e0.7 (8)
0x3e0|f5                                             |.               |
0x3e0|   00 00 00 00 36 fd 54 f6                     | ....6.T.       |      [36]: "1999-03-27T22:00:22Z" (922572022) transition_time 0x3e1-0x3e8.7 (8)
0x3e0|                           00 00 00 00 38 1b 6a|         ....8.j|      [37]: "1999-10-30T22:00:22Z" (941320822) transition_time 0x3e9-0x3f0.7 (8)
0x3f0|76                                             |v               |
0x3f0|   00 00 00 00 38 dd 36 f6                     | ....8.6.       |      [38]: "2000-03-25T22:00:22Z" (954021622) transition_time 0x3f1-0x3f8.7 (8)
0x3f0|                           00 00 00 00 39 fb 4c|         ....9.L|      [39]: "2000-10-28T22:00:22Z" (972770422) transition_time 0x3f9-0x400.7 (8)
0x400|76                                             |v               |
0x400|   00 00 00 00 3a bd 18 f6                     | ....:...       |      [40]: "2001-03-24T22:00:22Z" (985471222) transition_time 0x401-0x408.7 (8)
0x400|                           00 00 00 00 3b db 2e|         ....;..|      [41]: "2001-10-27T22:00:22Z" (1004220022) transition_time 0x409-0x410.7 (8)
0x410|76                                             |v               |
0x410|   00 00 00 00 3c a6 35 76                     | ....<.5v       |      [42]: "2002-03-30T22:00:22Z" (1017525622) transition_time 0x411-0x418.7 (8)
0x410|                           00 00 00 00 3d bb 10|         ....=..|      [43]: "2002-10-26T22:00:22Z" (1035669622) transition_time 0x419-0x420.7 (8)
0x420|76                                             |v               |
0x420|   00 00 00 00 3e 86 17 76                     | ....>..v       |      [44]: "2003-03-29T22:00:22Z" (1048975222) transition_time 0x421-0x428.7 (8)
0x420|                           00 00 00 00 3f 9a f2|         ....?..|      [45]: "2003-10-25T22:00:22Z" (1067119222) transition_time 0x429-0x430.7 (8)
0x430|76                                             |v               |
0x430|   00 00 00 00 40 65 f9 76                     | ....@e.v       |      [46]: "2004-03-27T22:00:22Z" (1080424822) transition_time 0x431-0x438.7 (8)
0x430|                           00 00 00 00 41 84 0e|         ....A..|      [47]: "2004-10-30T22:00:22Z" (1099173622) transition_time 0x439-0x440.7 (8)
0x440|f6                                             |.               |
0x440|   00 00 00 00 42 45 db 76                     | ....BE.v       |      [48]: "2005-03-26T22:00:22Z" (1111874422) transition_time 0x441-0x448.7 (8)
0x440|                           00 00 00 00 43 63 f0|         ....Cc.|      [49]: "2005-10-29T22:00:22Z" (1130623222) transition_time 0x449-0x450.7 (8)
0x450|f6                                             |.               |
0x450|   00 00 00 00 44 25 bd 77                     | ....D%.w       |      [50]: "2006-03-25T22:00:23Z" (1143324023) transition_time 0x451-0x458.7 (8)
0x450|                           00 00 00 00 45 43 d2|         ....EC.|      [51]: "2006-10-28T22:00:23Z" (1162072823) transition_time 0x459-0x460.7 (8)
0x460|f7                                             |.               |
0x460|   00 00 00 00 46 05 9f 77                     | ....F..w       |      [52]: "2007-03-24T22:00:23Z" (1174773623) transition_time 0x461-0x468.7 (8)
0x460|                           00 00 00 00 47 23 b4|         ....G#.|      [53]: "2007-10-27T22:00:23Z" (1193522423) transition_time 0x469-0x470.7 (8)
0x470|f7                                             |.               |
0x470|   00 00 00 00 47 ee bb f7                     | ....G...       |      [54]: "2008-03-29T22:00:23Z" (1206828023) transition_time 0x471-0x478.7 (8)
0x470|                           00 00 00 00 49 03 96|         ....I..|      [55]: "2008-10-25T22:00:23Z" (1224972023) transition_time 0x479-0x480.7 (8)
0x480|f7                                             |.               |
0x480|   00 00 00 00 49 ce 9d f8                     | ....I...       |      [56]: "2009-03-28T22:00:24Z" (1238277624) transition_time 0x481-0x488.7 (8)
0x480|                           00 00 00 00 4a e3 78|         ....J.x|      [57]: "2009-10-24T22:00:24Z" (1256421624) transition_time 0x489-0x490.7 (8)
0x490|f8                                             |.               |
0x490|   00 00 00 00 4b ae 7f f8                     | ....K...       |      [58]: "2010-03-27T22:00:24Z" (1269727224) transition_time 0x491-0x498.7 (8)
0x490|                           00 00 00 00 4c cc 95|         ....L..|      [59]: "2010-10-30T22:00:24Z" (1288476024) transition_time 0x499-0x4a0.7 (8)
0x4a0|78                                             |x               |
0x4a0|   00 00 00 00 4d 8e 61 f8                     | ....M.a.       |      [60]: "2011-03-26T22:00:24Z" (1301176824) transition_time 0x4a1-0x4a8.7 (8)
0x4a0|                           00 00 00 00 4e ac 77|         ....N.w|      [61]: "2011-10-29T22:00:24Z" (1319925624) transition_time 0x4a9-0x4b0.7 (8)
0x4b0|78                                             |x               |
0x4b0|   00 00 00 00 64 9b 78 1b                     | ....d.x.       |      [62]: "2023-06-28T00:00:27Z" (1687910427) transition_time 0x4b1-0x4b8.7 (8)
     |                                               |                |    transition_types[0:63]: 0x4b9-0x4f7.7 (63)
0x4b0|                           01                  |         .      |      [0]: 1 transition_type 0x4b9-0x4b9.7 (1)
0x4b0|                              03               |          .     |      [1]: 3 transition_type 0x4ba-0x4ba.7 (1)
0x4b0|                                 02            |           .    |      [2]: 2 transition_type 0x4bb-0x4bb.7 (1)
0x4b0|                                    03         |            .   |      [3]: 3 transition_type 0x4bc-0x4bc.7 (1)
0x4b0|                                       02      |             .  |      [4]: 2 transition_type 0x4bd-0x4bd.7 (1)
0x4b0|                                          03   |              . |      [5]: 3 transition_type 0x4be-0x4be.7 (1)
0x4b0|                                             02|               .|      [6]: 2 transition_type 0x4bf-0x4bf.7 (1)
0x4c0|03                                             |.               |      [7]: 3 transition_type 0x4c0-0x4c0.7 (1)
0x4c0|   02                                          | .              |      [8]: 2 transition_type 0x4c1-0x4c1.7 (1)
0x4c0|      04                                       |  .             |      [9]: 4 transition_type 0x4c2-0x4c2.7 (1)
0x4c0|         05                                    |   .            |      [10]: 5 transition_type 0x4c3-0x4c3.7 (1)
0x4c0|            04                                 |    .           |      [11]: 4 transition_type 0x4c4-0x4c4.7 (1)
0x4c0|               05                              |     .          |      [12]: 5 transition_type 0x4c5-0x4c5.7 (1)
0x4c0|                  04                           |      .         |      [13]: 4 transition_type 0x4c6-0x4c6.7 (1)
0x4c0|                     05                        |       .        |      [14]: 5 transition_type 0x4c7-0x4c7.7 (1)
0x4c0|                        04                     |        .       |      [15]: 4 transition_type 0x4c8-0x4c8.7 (1)
0x4c0|                           05                  |         .      |      [16]: 5 transition_type 0x4c9-0x4c9.7 (1)
0x4c0|                              04               |          .     |      [17]: 4 transition_type 0x4ca-0x4ca.7 (1)
0x4c0|                                 05            |           .    |      [18]: 5 transition_type 0x4cb-0x4cb.7 (1)
0x4c0|                                    04         |            .   |      [19]: 4 transition_type 0x4cc-0x4cc.7 (1)
0x4c0|                                       05      |             .  |      [20]: 5 transition_type 0x4cd-0x4cd.7 (1)
0x4c0|                                          04   |              . |      [21]: 4 transition_type 0x4ce-0x4ce.7 (1)
0x4c0|                                             06|               .|      [22]: 6 transition_type 0x4cf-0x4cf.7 (1)
0x4d0|07                                             |.               |      [23]: 7 transition_type 0x4d0-0x4d0.7 (1)
0x4d0|   06                                          | .              |      [24]: 6 transition_type 0x4d1-0x4d1.7 (1)
0x4d0|      07                                       |  .             |      [25]: 7 transition_type 0x4d2-0x4d2.7 (1)
0x4d0|         06                                    |   .            |      [26]: 6 transition_type 0x4d3-0x4d3.7 (1)
0x4d0|            07                                 |    .           |      [27]: 7 transition_type 0x4d4-0x4d4.7 (1)
0x4d0|               06                              |     .          |      [28]: 6 transition_type 0x4d5-0x4d5.7 (1)
0x4d0|                  07                           |      .         |      [29]: 7 transition_type 0x4d6-0x4d6.7 (1)
0x4d0|                     06                        |       .        |      [30]: 6 transition_type 0x4d7-0x4d7.7 (1)
0x4d0|                        04                     |        .       |      [31]: 4 transition_type 0x4d8-0x4d8.7 (1)
0x4d0|                           05                  |         .      |      [32]: 5 transition_type 0x4d9-0x4d9.7 (1)
0x4d0|                              04               |          .     |      [33]: 4 transition_type 0x4da-0x4da.7 (1)
0x4d0|                                 05            |           .    |      [34]: 5 transition_type 0x4db-0x4db.7 (1)
0x4d0|                                    04         |            .   |      [35]: 4 transition_type 0x4dc-0x4dc.7 (1)
0x4d0|                                       05      |             .  |      [36]: 5 transition_type 0x4dd-0x4dd.7 (1)
0x4d0|                                          04   |              . |      [37]: 4 transition_type 0x4de-0x4de.7 (1)
0x4d0|                                             05|               .|      [38]: 5 transition_type 0x4df-0x4df.7 (1)
0x4e0|04                                             |.               |      [39]: 4 transition_type 0x4e0-0x4e0.7 (1)
0x4e0|   05                                          | .              |      [40]: 5 transition_type 0x4e1-0x4e1.7 (1)
0x4e0|      04                                       |  .             |      [41]: 4 transition_type 0x4e2-0x4e2.7 (1)
0x4e0|         05                                    |   .            |      [42]: 5 transition_type 0x4e3-0x4e3.7 (1)
0x4e0|            04                                 |    .           |      [43]: 4 transition_type 0x4e4-0x4e4.7 (1)
0x4e0|               05                              |     .          |      [44]: 5 transition_type 0x4e5-0x4e5.7 (1)
0x4e0|                  04                           |      .         |      [45]: 4 transition_type 0x4e6-0x4e6.7 (1)
0x4e0|                     05                        |       .        |      [46]: 5 transition_type 0x4e7-0x4e7.7 (1)
0x4e0|                        04                     |        .       |      [47]: 4 transition_type 0x4e8-0x4e8.7 (1)
0x4e0|                           05                  |         .      |      [48]: 5 transition_type 0x4e9-0x4e9.7 (1)
0x4e0|                              04               |          .     |      [49]: 4 transition_type 0x4ea-0x4ea.7 (1)
0x4e0|                                 05            |           .    |      [50]: 5 transition_type 0x4eb-0x4eb.7 (1)
0x4e0|                                    04         |            .   |      [51]: 4 transition_type 0x4ec-0x4ec.7 (1)
0x4e0|                                       05      |             .  |      [52]: 5 transition_type 0x4ed-0x4ed.7 (1)
0x4e0|                                          04   |              . |      [53]: 4 transition_type 0x4ee-0x4ee.7 (1)
0x4e0|                                             05|               .|      [54]: 5 transition_type 0x4ef-0x4ef.7 (1)
0x4f0|04                                             |.               |      [55]: 4 transition_type 0x4f0-0x4f0.7 (1)
0x4f0|   05                                          | .              |      [56]: 5 transition_type 0x4f1-0x4f1.7 (1)
0x4f0|      04                                       |  .             |      [57]: 4 transition_type 0x4f2-0x4f2.7 (1)
0x4f0|         05                                    |   .            |      [58]: 5 transition_type 0x4f3-0x4f3.7 (1)
0x4f0|            04                                 |    .           |      [59]: 4 transition_type 0x4f4-0x4f4.7 (1)
0x4f0|               05                              |     .          |      [60]: 5 transition_type 0x4f5-0x4f5.7 (1)
0x4f0|                  04                           |      .         |      [61]: 4 transition_type 0x4f6-0x4f6.7 (1)
0x4f0|                     04                        |       .        |      [62]: 4 transition_type 0x4f7-0x4f7.7 (1)
     |                                               |                |    local_time_type_records[0:10]: 0x4f8-0x533.7 (60)
     |                                               |                |      [0]{}: local_time_type 0x4f8-0x4fd.7 (6)
0x4f0|                        00 00 29 b8            |        ..).    |        utoff: 10680 (valid) 0x4f8-0x4fb.7 (4)
0x4f0|                                    00         |            .   |        dst: 0 (valid) 0x4fc-0x4fc.7 (1)
0x4f0|                                       00      |             .  |        idx: 0 (valid) 0x4fd-0x4fd.7 (1)
     |                                               |                |      [1]{}: local_time_type 0x4fe-0x503.7 (6)
0x4f0|                                          00 00|              ..|        utoff: 10800 (valid) 0x4fe-0x501.7 (4)
0x500|2a 30                                          |*0              |
0x500|      00                                       |  .             |        dst: 0 (valid) 0x502-0x502.7 (1)
0x500|         04                                    |   .            |        idx: 4 (valid) 0x503-0x503.7 (1)
     |                                               |                |      [2]{}: local_time_type 0x504-0x509.7 (6)
0x500|            00 00 46 50                        |    ..FP        |        utoff: 18000 (valid) 0x504-0x507.7 (4)
0x500|                        01                     |        .       |        dst: 1 (valid) 0x508-0x508.7 (1)
0x500|                           08                  |         .      |        idx: 8 (valid) 0x509-0x509.7 (1)
     |                                               |                |      [3]{}: local_time_type 0x50a-0x50f.7 (6)
0x500|                              00 00 38 40      |          ..8@  |        utoff: 14400 (valid) 0x50a-0x50d.7 (4)
0x500|                                          00   |              . |        dst: 0 (valid) 0x50e-0x50e.7 (1)
0x500|                                             0c|               .|        idx: 12 (valid) 0x50f-0x50f.7 (1)
     |                                               |                |      [4]{}: local_time_type 0x510-0x515.7 (6)
0x510|00 00 38 40                                    |..8@            |        utoff: 14400 (valid) 0x510-0x513.7 (4)
0x510|            00                                 |    .           |        dst: 0 (valid) 0x514-0x514.7 (1)
0x510|               0c                              |     .          |        idx: 12 (valid) 0x515-0x515.7 (1)
     |                                               |                |      [5]{}: local_time_type 0x516-0x51b.7 (6)
0x510|                  00 00 46 50                  |      ..FP      |        utoff: 18000 (valid) 0x516-0x519.7 (4)
0x510|                              01               |          .     |        dst: 1 (valid) 0x51a-0x51a.7 (1)
0x510|                                 08            |           .    |        idx: 8 (valid) 0x51b-0x51b.7 (1)
     |                                               |                |      [6]{}: local_time_type 0x51c-0x521.7 (6)
0x510|                                    00 00 38 40|            ..8@|        utoff: 14400 (valid) 0x51c-0x51f.7 (4)
0x520|01                                             |.               |        dst: 1 (valid) 0x520-0x520.7 (1)
0x520|   0c                                          | .              |        idx: 12 (valid) 0x521-0x521.7 (1)
     |                                               |                |      [7]{}: local_time_type 0x522-0x527.7 (6)
0x520|      00 00 2a 30                              |  ..*0          |        utoff: 10800 (valid) 0x522-0x525.7 (4)
0x520|                  00                           |      .         |        dst: 0 (valid) 0x526-0x526.7 (1)
0x520|                     04                        |       .        |        idx: 4 (valid) 0x527-0x527.7 (1)
     |                                               |                |      [8]{}: local_time_type 0x528-0x52d.7 (6)
0x520|                        00 00 46 50            |        ..FP    |        utoff: 18000 (valid) 0x528-0x52b.7 (4)
0x520|                                    01         |            .   |        dst: 1 (valid) 0x52c-0x52c.7 (1)
0x520|                                       08      |             .  |        idx: 8 (valid) 0x52d-0x52d.7 (1)
     |                                               |                |      [9]{}: local_time_type 0x52e-0x533.7 (6)
0x520|                                          00 00|              ..|        utoff: 14400 (valid) 0x52e-0x531.7 (4)
0x530|38 40                                          |8@              |
0x530|      00                                       |  .             |        dst: 0 (valid) 0x532-0x532.7 (1)
0x530|         0c                                    |   .            |        idx: 12 (valid) 0x533-0x533.7 (1)
     |                                               |                |    time_zone_designations[0:4]: 0x534-0x543.7 (16)
0x530|            4c 4d 54 00                        |    LMT.        |      [0]: "LMT" time_zone_designation 0x534-0x537.7 (4)
0x530|                        2b 30 33 00            |        +03.    |      [1]: "+03" time_zone_designation 0x538-0x53b.7 (4)
0x530|                                    2b 30 35 00|            +05.|      [2]: "+05" time_zone_designation 0x53c-0x53f.7 (4)
0x540|2b 30 34 00                                    |+04.            |      [3]: "+04" time_zone_designation 0x540-0x543.7 (4)
     |                                               |                |    leap_second_records[0:27]: 0x544-0x687.7 (324)
     |                                               |                |      [0]{}: leap_second_record 0x544-0x54f.7 (12)
0x540|            00 00 00 00 04 b2 58 00            |    ......X.    |        occur: "1972-07-01T00:00:00Z" (78796800) 0x544-0x54b.7 (8)
0x540|                                    00 00 00 01|            ....|        corr: 1 0x54c-0x54f.7 (4)
     |                                               |                |      [1]{}: leap_second_record 0x550-0x55b.7 (12)
0x550|00 00 00 00 05 a4 ec 01                        |........        |        occur: "1973-01-01T00:00:01Z" (94694401) 0x550-0x557.7 (8)
0x550|                        00 00 00 02            |        ....    |        corr: 2 0x558-0x55b.7 (4)
     |                                               |                |      [2]{}: leap_second_record 0x55c-0x567.7 (12)
0x550|                                    00 00 00 00|            ....|        occur: "1974-01-01T00:00:02Z" (126230402) 0x55c-0x563.7 (8)
0x560|07 86 1f 82                                    |....            |
0x560|            00 00 00 03                        |    ....        |        corr: 3 0x564-0x567.7 (4)
     |                                               |                |      [3]{}: leap_second_record 0x568-0x573.7 (12)
0x560|                        00 00 00 00 09 67 53 03|        .....gS.|        occur: "1975-01-01T00:00:03Z" (157766403) 0x568-0x56f.7 (8)
0x570|00 00 00 04                                    |....            |        corr: 4 0x570-0x573.7 (4)
     |                                               |                |      [4]{}: leap_second_record 0x574-0x57f.7 (12)
0x570|            00 00 00 00 0b 48 86 84            |    .....H..    |        occur: "1976-01-01T00:00:04Z" (189302404) 0x574-0x57b.7 (8)
0x570|                                    00 00 00 05|            ....|        corr: 5 0x57c-0x57f.7 (4)
     |                                               |                |      [5]{}: leap_second_record 0x580-0x58b.7 (12)
0x580|00 00 00 00 0d 2b 0b 85                        |.....+..        |        occur: "1977-01-01T00:00:05Z" (220924805) 0x580-0x587.7 (8)
0x580|                        00 00 00 06            |        ....    |        corr: 6 0x588-0x58b.7 (4)
     |                                               |                |      [6]{}: leap_second_record 0x58c-0x597.7 (12)
0x580|                                    00 00 00 00|            ....|        occur: "1978-01-01T00:00:06Z" (252460806) 0x58c-0x593.7 (8)
0x590|0f 0c 3f 06                                    |..?.            |
0x590|            00 00 00 07                        |    ....        |        corr: 7 0x594-0x597.7 (4)
     |                                               |                |      [7]{}: leap_second_record 0x598-0x5a3.7 (12)
0x590|                        00 00 00 00 10 ed 72 87|        ......r.|        occur: "1979-01-01T00:00:07Z" (283996807) 0x598-0x59f.7 (8)
0x5a0|00 00 00 08                                    |....            |        corr: 8 0x5a0-0x5a3.7 (4)
     |                                               |                |      [8]{}: leap_second_record 0x5a4-0x5af.7 (12)
0x5a0|            00 00 00 00 12 ce a6 08            |    ........    |        occur: "1980-01-01T00:00:08Z" (315532808) 0x5a4-0x5ab.7 (8)
0x5a0|                                    00 00 00 09|            ....|        corr: 9 0x5ac-0x5af.7 (4)
     |                                               |                |      [9]{}: leap_second_record 0x5b0-0x5bb.7 (12)
0x5b0|00 00 00 00 15 9f ca 89                        |........        |        occur: "1981-07-01T00:00:09Z" (362793609) 0x5b0-0x5b7.7 (8)
0x5b0|                        00 00 00 0a            |        ....    |        corr: 10 0x5b8-0x5bb.7 (4)
     |                                               |                |      [10]{}: leap_second_record 0x5bc-0x5c7.7 (12)
0x5b0|                                    00 00 00 00|            ....|        occur: "1982-07-01T00:00:10Z" (394329610) 0x5bc-0x5c3.7 (8)
0x5c0|17 80 fe 0a                                    |....            |
0x5c0|            00 00 00 0b                        |    ....        |        corr: 11 0x5c4-0x5c7.7 (4)
     |                                               |                |      [11]{}: leap_second_record 0x5c8-0x5d3.7 (12)
0x5c0|                        00 00 00 00 19 62 31 8b|        .....b1.|        occur: "1983-07-01T00:00:11Z" (425865611) 0x5c8-0x5cf.7 (8)
0x5d0|00 00 00 0c                                    |....            |        corr: 12 0x5d0-0x5d3.7 (4)
     |                                               |                |      [12]{}: leap_second_record 0x5d4-0x5df.7 (12)
0x5d0|            00 00 00 00 1d 25 ea 0c            |    .....%..    |        occur: "1985-07-01T00:00:12Z" (489024012) 0x5d4-0x5db.7 (8)
0x5d0|                                    00 00 00 0d|            ....|        corr: 13 0x5dc-0x5df.7 (4)
     |                                               |                |      [13]{}: leap_second_record 0x5e0-0x5eb.7 (12)
0x5e0|00 00 00 00 21 da e5 0d                        |....!...        |        occur: "1988-01-01T00:00:13Z" (567993613) 0x5e0-0x5e7.7 (8)
0x5e0|                        00 00 00 0e            |        ....    |        corr: 14 0x5e8-0x5eb.7 (4)
     |                                               |                |      [14]{}: leap_second_record 0x5ec-0x5f7.7 (12)
0x5e0|                                    00 00 00 00|            ....|        occur: "1990-01-01T00:00:14Z" (631152014) 0x5ec-0x5f3.7 (8)
0x5f0|25 9e 9d 8e                                    |%...            |
0x5f0|            00 00 00 0f                        |    ....        |        corr: 15 0x5f4-0x5f7.7 (4)
     |                                               |                |      [15]{}: leap_second_record 0x5f8-0x603.7 (12)
0x5f0|                        00 00 00 00 27 7f d1 0f|        ....'...|        occur: "1991-01-01T00:00:15Z" (662688015) 0x5f8-0x5ff.7 (8)
0x600|00 00 00 10                                    |....            |        corr: 16 0x600-0x603.7 (4)
     |                                               |                |      [16]{}: leap_second_record 0x604-0x60f.7 (12)
0x600|            00 00 00 00 2a 50 f5 90            |    ....*P..    |        occur: "1992-07-01T00:00:16Z" (709948816) 0x604-0x60b.7 (8)
0x600|                                    00 00 00 11|            ....|        corr: 17 0x60c-0x60f.7 (4)
     |                                               |                |      [17]{}: leap_second_record 0x610-0x61b.7 (12)
0x610|00 00 00 00 2c 32 29 11                        |....,2).        |        occur: "1993-07-01T00:00:17Z" (741484817) 0x610-0x617.7 (8)
0x610|                        00 00 00 12            |        ....    |        corr: 18 0x618-0x61b.7 (4)
     |                                               |                |      [18]{}: leap_second_record 0x61c-0x627.7 (12)
0x610|                                    00 00 00 00|            ....|        occur: "1994-07-01T00:00:18Z" (773020818) 0x61c-0x623.7 (8)
0x620|2e 13 5c 92                                    |..\.            |
0x620|            00 00 00 13                        |    ....        |        corr: 19 0x624-0x627.7 (4)
     |                                               |                |      [19]{}: leap_second_record 0x628-0x633.7 (12)
0x620|                        00 00 00 00 30 e7 24 13|        ....0.$.|        occur: "1996-01-01T00:00:19Z" (820454419) 0x628-0x62f.7 (8)
0x630|00 00 00 14                                    |....            |        corr: 20 0x630-0x633.7 (4)
     |                                               |                |      [20]{}: leap_second_record 0x634-0x63f.7 (12)
0x630|            00 00 00 00 33 b8 48 94            |    ....3.H.    |        occur: "1997-07-01T00:00:20Z" (867715220) 0x634-0x63b.7 (8)
0x630|                                    00 00 00 15|            ....|        corr: 21 0x63c-0x63f.7 (4)
     |                                               |                |      [21]{}: leap_second_record 0x640-0x64b.7 (12)
0x640|00 00 00 00 36 8c 10 15                        |....6...        |        occur: "1999-01-01T00:00:21Z" (915148821) 0x640-0x647.7 (8)
0x640|                        00 00 00 16            |        ....    |        corr: 22 0x648-0x64b.7 (4)
     |                                               |                |      [22]{}: leap_second_record 0x64c-0x657.7 (12)
0x640|                                    00 00 00 00|            ....|        occur: "2006-01-01T00:00:22Z" (1136073622) 0x64c-0x653.7 (8)
0x650|43 b7 1b 96                                    |C...            |
0x650|            00 00 00 17                        |    ....        |        corr: 23 0x654-0x657.7 (4)
     |                                               |                |      [23]{}: leap_second_record 0x658-0x663.7 (12)
0x650|                        00 00 00 00 49 5c 07 97|        ....I\..|        occur: "2009-01-01T00:00:23Z" (1230768023) 0x658-0x65f.7 (8)
0x660|00 00 00 18                                    |....            |        corr: 24 0x660-0x663.7 (4)
     |                                               |                |      [24]{}: leap_second_record 0x664-0x66f.7 (12)
0x660|            00 00 00 00 4f ef 93 18            |    ....O...    |        occur: "2012-07-01T00:00:24Z" (1341100824) 0x664-0x66b.7 (8)
0x660|                                    00 00 00 19|            ....|        corr: 25 0x66c-0x66f.7 (4)
     |                                               |                |      [25]{}: leap_second_record 0x670-0x67b.7 (12)
0x670|00 00 00 00 55 93 2d 99                        |....U.-.        |        occur: "2015-07-01T00:00:25Z" (1435708825) 0x670-0x677.7 (8)
0x670|                        00 00 00 1a            |        ....    |        corr: 26 0x678-0x67b.7 (4)
     |                                               |                |      [26]{}: leap_second_record 0x67c-0x687.7 (12)
0x670|                                    00 00 00 00|            ....|        occur: "2017-01-01T00:00:26Z" (1483228826) 0x67c-0x683.7 (8)
0x680|58 68 46 9a                                    |XhF.            |
0x680|            00 00 00 1b                        |    ....        |        corr: 27 0x684-0x687.7 (4)
     |                                               |                |    standard_wall_indicators[0:10]: 0x688-0x691.7 (10)
0x680|                        00                     |        .       |      [0]: 0 standard_wall_indicator (valid) 0x688-0x688.7 (1)
0x680|                           00                  |         .      |      [1]: 0 standard_wall_indicator (valid) 0x689-0x689.7 (1)
0x680|                              00               |          .     |      [2]: 0 standard_wall_indicator (valid) 0x68a-0x68a.7 (1)
0x680|                                 00            |           .    |      [3]: 0 standard_wall_indicator (valid) 0x68b-0x68b.7 (1)
0x680|                                    01         |            .   |      [4]: 1 standard_wall_indicator (valid) 0x68c-0x68c.7 (1)
0x680|                                       01      |             .  |      [5]: 1 standard_wall_indicator (valid) 0x68d-0x68d.7 (1)
0x680|                                          01   |              . |      [6]: 1 standard_wall_indicator (valid) 0x68e-0x68e.7 (1)
0x680|                                             01|               .|      [7]: 1 standard_wall_indicator (valid) 0x68f-0x68f.7 (1)
0x690|01                                             |.               |      [8]: 1 standard_wall_indicator (valid) 0x690-0x690.7 (1)
0x690|   01                                          | .              |      [9]: 1 standard_wall_indicator (valid) 0x691-0x691.7 (1)
     |                                               |                |    ut_local_indicators[0:0]: 0x692-NA (0)
     |                                               |                |  footer{}: 0x692-0x693.7 (2)
0x690|      0a                                       |  .             |    nl1: 10 (valid) 0x692-0x692.7 (1)
     |                                               |                |    tz_string: "" 0x693-NA (0)
0x690|         0a|                                   |   .|           |    nl2: 10 (valid) 0x693-0x693.7 (1)
