$ fq -d tzif dv Zurich
     |00 01 02 03 04 05 06 07 08 09 0a 0b 0c 0d 0e 0f|0123456789abcdef|.{}: Zurich (tzif) 0x0-0x774.7 (1909)
     |                                               |                |  v1header{}: 0x0-0x2b.7 (44)
0x000|54 5a 69 66                                    |TZif            |    magic: 0x545a6966 (valid) 0x0-0x3.7 (4)
0x000|            32                                 |    2           |    ver: "2" (0x32) (valid) 0x4-0x4.7 (1)
0x000|               00 00 00 00 00 00 00 00 00 00 00|     ...........|    reserved: raw bits 0x5-0x13.7 (15)
0x010|00 00 00 00                                    |....            |
0x010|            00 00 00 05                        |    ....        |    isutcnt: 5 0x14-0x17.7 (4)
0x010|                        00 00 00 05            |        ....    |    isstdcnt: 5 0x18-0x1b.7 (4)
0x010|                                    00 00 00 00|            ....|    leapcnt: 0 0x1c-0x1f.7 (4)
0x020|00 00 00 77                                    |...w            |    timecnt: 119 0x20-0x23.7 (4)
0x020|            00 00 00 05                        |    ....        |    typecnt: 5 0x24-0x27.7 (4)
0x020|                        00 00 00 0d            |        ....    |    charcnt: 13 0x28-0x2b.7 (4)
     |                                               |                |  v1datablock{}: 0x2c-0x2b3.7 (648)
     |                                               |                |    transition_times[0:119]: 0x2c-0x207.7 (476)
0x020|                                    80 00 00 00|            ....|      [0]: "1901-12-13T20:45:52Z" (-2147483648) transition_time 0x2c-0x2f.7 (4)
0x030|ca 17 6a 00                                    |..j.            |      [1]: "1941-05-05T00:00:00Z" (-904435200) transition_time 0x30-0x33.7 (4)
0x030|            ca e2 71 00                        |    ..q.        |      [2]: "1941-10-06T00:00:00Z" (-891129600) transition_time 0x34-0x37.7 (4)
0x030|                        cb f7 4c 00            |        ..L.    |      [3]: "1942-05-04T00:00:00Z" (-872985600) transition_time 0x38-0x3b.7 (4)
0x030|                                    cc c2 53 00|            ..S.|      [4]: "1942-10-05T00:00:00Z" (-859680000) transition_time 0x3c-0x3f.7 (4)
0x040|15 23 eb 90                                    |.#..            |      [5]: "1981-03-29T01:00:00Z" (354675600) transition_time 0x40-0x43.7 (4)
0x040|            16 13 dc 90                        |    ....        |      [6]: "1981-09-27T01:00:00Z" (370400400) transition_time 0x44-0x47.7 (4)
0x040|                        17 03 cd 90            |        ....    |      [7]: "1982-03-28T01:00:00Z" (386125200) transition_time 0x48-0x4b.7 (4)
0x040|                                    17 f3 be 90|            ....|      [8]: "1982-09-26T01:00:00Z" (401850000) transition_time 0x4c-0x4f.7 (4)
0x050|18 e3 af 90                                    |....            |      [9]: "1983-03-27T01:00:00Z" (417574800) transition_time 0x50-0x53.7 (4)
0x050|            19 d3 a0 90                        |    ....        |      [10]: "1983-09-25T01:00:00Z" (433299600) transition_time 0x54-0x57.7 (4)
0x050|                        1a c3 91 90            |        ....    |      [11]: "1984-03-25T01:00:00Z" (449024400) transition_time 0x58-0x5b.7 (4)
0x050|                                    1b bc bd 10|            ....|      [12]: "1984-09-30T01:00:00Z" (465354000) transition_time 0x5c-0x5f.7 (4)
0x060|1c ac ae 10                                    |....            |      [13]: "1985-03-31T01:00:00Z" (481078800) transition_time 0x60-0x63.7 (4)
0x060|            1d 9c 9f 10                        |    ....        |      [14]: "1985-09-29T01:00:00Z" (496803600) transition_time 0x64-0x67.7 (4)
0x060|                        1e 8c 90 10            |        ....    |      [15]: "1986-03-30T01:00:00Z" (512528400) transition_time 0x68-0x6b.7 (4)
0x060|                                    1f 7c 81 10|            .|..|      [16]: "1986-09-28T01:00:00Z" (528253200) transition_time 0x6c-0x6f.7 (4)
0x070|20 6c 72 10                                    | lr.            |      [17]: "1987-03-29T01:00:00Z" (543978000) transition_time 0x70-0x73.7 (4)
0x070|            21 5c 63 10                        |    !\c.        |      [18]: "1987-09-27T01:00:00Z" (559702800) transition_time 0x74-0x77.7 (4)
0x070|                        22 4c 54 10            |        "LT.    |      [19]: "1988-03-27T01:00:00Z" (575427600) transition_time 0x78-0x7b.7 (4)
0x070|                                    23 3c 45 10|            #<E.|      [20]: "1988-09-25T01:00:00Z" (591152400) transition_time 0x7c-0x7f.7 (4)
0x080|24 2c 36 10                                    |$,6.            |      [21]: "1989-03-26T01:00:00Z" (606877200) transition_time 0x80-0x83.7 (4)
0x080|            25 1c 27 10                        |    %.'.        |      [22]: "1989-09-24T01:00:00Z" (622602000) transition_time 0x84-0x87.7 (4)
0x080|                        26 0c 18 10            |        &...    |      [23]: "1990-03-25T01:00:00Z" (638326800) transition_time 0x88-0x8b.7 (4)
0x080|                                    27 05 43 90|            '.C.|      [24]: "1990-09-30T01:00:00Z" (654656400) transition_time 0x8c-0x8f.7 (4)
0x090|27 f5 34 90                                    |'.4.            |      [25]: "1991-03-31T01:00:00Z" (670381200) transition_time 0x90-0x93.7 (4)
0x090|            28 e5 25 90                        |    (.%.        |      [26]: "1991-09-29T01:00:00Z" (686106000) transition_time 0x94-0x97.7 (4)
0x090|                        29 d5 16 90            |        )...    |      [27]: "1992-03-29T01:00:00Z" (701830800) transition_time 0x98-0x9b.7 (4)
0x090|                                    2a c5 07 90|            *...|      [28]: "1992-09-27T01:00:00Z" (717555600) transition_time 0x9c-0x9f.7 (4)
0x0a0|2b b4 f8 90                                    |+...            |      [29]: "1993-03-28T01:00:00Z" (733280400) transition_time 0xa0-0xa3.7 (4)
0x0a0|            2c a4 e9 90                        |    ,...        |      [30]: "1993-09-26T01:00:00Z" (749005200) transition_time 0xa4-0xa7.7 (4)
0x0a0|                        2d 94 da 90            |        -...    |      [31]: "1994-03-27T01:00:00Z" (764730000) transition_time 0xa8-0xab.7 (4)
0x0a0|                                    2e 84 cb 90|            ....|      [32]: "1994-09-25T01:00:00Z" (780454800) transition_time 0xac-0xaf.7 (4)
0x0b0|2f 74 bc 90                                    |/t..            |      [33]: "1995-03-26T01:00:00Z" (796179600) transition_time 0xb0-0xb3.7 (4)
0x0b0|            30 64 ad 90                        |    0d..        |      [34]: "1995-09-24T01:00:00Z" (811904400) transition_time 0xb4-0xb7.7 (4)
0x0b0|                        31 5d d9 10            |        1]..    |      [35]: "1996-03-31T01:00:00Z" (828234000) transition_time 0xb8-0xbb.7 (4)
0x0b0|                                    32 72 b4 10|            2r..|      [36]: "1996-10-27T01:00:00Z" (846378000) transition_time 0xbc-0xbf.7 (4)
0x0c0|33 3d bb 10                                    |3=..            |      [37]: "1997-03-30T01:00:00Z" (859683600) transition_time 0xc0-0xc3.7 (4)
0x0c0|            34 52 96 10                        |    4R..        |      [38]: "1997-10-26T01:00:00Z" (877827600) transition_time 0xc4-0xc7.7 (4)
0x0c0|                        35 1d 9d 10            |        5...    |      [39]: "1998-03-29T01:00:00Z" (891133200) transition_time 0xc8-0xcb.7 (4)
0x0c0|                                    36 32 78 10|            62x.|      [40]: "1998-10-25T01:00:00Z" (909277200) transition_time 0xcc-0xcf.7 (4)
0x0d0|36 fd 7f 10                                    |6...            |      [41]: "1999-03-28T01:00:00Z" (922582800) transition_time 0xd0-0xd3.7 (4)
0x0d0|            38 1b 94 90                        |    8...        |      [42]: "1999-10-31T01:00:00Z" (941331600) transition_time 0xd4-0xd7.7 (4)
0x0d0|                        38 dd 61 10            |        8.a.    |      [43]: "2000-03-26T01:00:00Z" (954032400) transition_time 0xd8-0xdb.7 (4)
0x0d0|                                    39 fb 76 90|            9.v.|      [44]: "2000-10-29T01:00:00Z" (972781200) transition_time 0xdc-0xdf.7 (4)
0x0e0|3a bd 43 10                                    |:.C.            |      [45]: "2001-03-25T01:00:00Z" (985482000) transition_time 0xe0-0xe3.7 (4)
0x0e0|            3b db 58 90                        |    ;.X.        |      [46]: "2001-10-28T01:00:00Z" (1004230800) transition_time 0xe4-0xe7.7 (4)
0x0e0|                        3c a6 5f 90            |        <._.    |      [47]: "2002-03-31T01:00:00Z" (1017536400) transition_time 0xe8-0xeb.7 (4)
0x0e0|                                    3d bb 3a 90|            =.:.|      [48]: "2002-10-27T01:00:00Z" (1035680400) transition_time 0xec-0xef.7 (4)
0x0f0|3e 86 41 90                                    |>.A.            |      [49]: "2003-03-30T01:00:00Z" (1048986000) transition_time 0xf0-0xf3.7 (4)
0x0f0|            3f 9b 1c 90                        |    ?...        |      [50]: "2003-10-26T01:00:00Z" (1067130000) transition_time 0xf4-0xf7.7 (4)
0x0f0|                        40 66 23 90            |        @f#.    |      [51]: "2004-03-28T01:00:00Z" (1080435600) transition_time 0xf8-0xfb.7 (4)
0x0f0|                                    41 84 39 10|            A.9.|      [52]: "2004-10-31T01:00:00Z" (1099184400) transition_time 0xfc-0xff.7 (4)
0x100|42 46 05 90                                    |BF..            |      [53]: "2005-03-27T01:00:00Z" (1111885200) transition_time 0x100-0x103.7 (4)
0x100|            43 64 1b 10                        |    Cd..        |      [54]: "2005-10-30T01:00:00Z" (1130634000) transition_time 0x104-0x107.7 (4)
0x100|                        44 25 e7 90            |        D%..    |      [55]: "2006-03-26T01:00:00Z" (1143334800) transition_time 0x108-0x10b.7 (4)
0x100|                                    45 43 fd 10|            EC..|      [56]: "2006-10-29T01:00:00Z" (1162083600) transition_time 0x10c-0x10f.7 (4)
0x110|46 05 c9 90                                    |F...            |      [57]: "2007-03-25T01:00:00Z" (1174784400) transition_time 0x110-0x113.7 (4)
0x110|            47 23 df 10                        |    G#..        |      [58]: "2007-10-28T01:00:00Z" (1193533200) transition_time 0x114-0x117.7 (4)
0x110|                        47 ee e6 10            |        G...    |      [59]: "2008-03-30T01:00:00Z" (1206838800) transition_time 0x118-0x11b.7 (4)
0x110|                                    49 03 c1 10|            I...|      [60]: "2008-10-26T01:00:00Z" (1224982800) transition_time 0x11c-0x11f.7 (4)
0x120|49 ce c8 10                                    |I...            |      [61]: "2009-03-29T01:00:00Z" (1238288400) transition_time 0x120-0x123.7 (4)
0x120|            4a e3 a3 10                        |    J...        |      [62]: "2009-10-25T01:00:00Z" (1256432400) transition_time 0x124-0x127.7 (4)
0x120|                        4b ae aa 10            |        K...    |      [63]: "2010-03-28T01:00:00Z" (1269738000) transition_time 0x128-0x12b.7 (4)
0x120|                                    4c cc bf 90|            L...|      [64]: "2010-10-31T01:00:00Z" (1288486800) transition_time 0x12c-0x12f.7 (4)
0x130|4d 8e 8c 10                                    |M...            |      [65]: "2011-03-27T01:00:00Z" (1301187600) transition_time 0x130-0x133.7 (4)
0x130|            4e ac a1 90                        |    N...        |      [66]: "2011-10-30T01:00:00Z" (1319936400) transition_time 0x134-0x137.7 (4)
0x130|                        4f 6e 6e 10            |        Onn.    |      [67]: "2012-03-25T01:00:00Z" (1332637200) transition_time 0x138-0x13b.7 (4)
0x130|                                    50 8c 83 90|            P...|      [68]: "2012-10-28T01:00:00Z" (1351386000) transition_time 0x13c-0x13f.7 (4)
0x140|51 57 8a 90                                    |QW..            |      [69]: "2013-03-31T01:00:00Z" (1364691600) transition_time 0x140-0x143.7 (4)
0x140|            52 6c 65 90                        |    Rle.        |      [70]: "2013-10-27T01:00:00Z" (1382835600) transition_time 0x144-0x147.7 (4)
0x140|                        53 37 6c 90            |        S7l.    |      [71]: "2014-03-30T01:00:00Z" (1396141200) transition_time 0x148-0x14b.7 (4)
0x140|                                    54 4c 47 90|            TLG.|      [72]: "2014-10-26T01:00:00Z" (1414285200) transition_time 0x14c-0x14f.7 (4)
0x150|55 17 4e 90                                    |U.N.            |      [73]: "2015-03-29T01:00:00Z" (1427590800) transition_time 0x150-0x153.7 (4)
0x150|            56 2c 29 90                        |    V,).        |      [74]: "2015-10-25T01:00:00Z" (1445734800) transition_time 0x154-0x157.7 (4)
0x150|                        56 f7 30 90            |        V.0.    |      [75]: "2016-03-27T01:00:00Z" (1459040400) transition_time 0x158-0x15b.7 (4)
0x150|                                    58 15 46 10|            X.F.|      [76]: "2016-10-30T01:00:00Z" (1477789200) transition_time 0x15c-0x15f.7 (4)
0x160|58 d7 12 90                                    |X...            |      [77]: "2017-03-26T01:00:00Z" (1490490000) transition_time 0x160-0x163.7 (4)
0x160|            59 f5 28 10                        |    Y.(.        |      [78]: "2017-10-29T01:00:00Z" (1509238800) transition_time 0x164-0x167.7 (4)
0x160|                        5a b6 f4 90            |        Z...    |      [79]: "2018-03-25T01:00:00Z" (1521939600) transition_time 0x168-0x16b.7 (4)
0x160|                                    5b d5 0a 10|            [...|      [80]: "2018-10-28T01:00:00Z" (1540688400) transition_time 0x16c-0x16f.7 (4)
0x170|5c a0 11 10                                    |\...            |      [81]: "2019-03-31T01:00:00Z" (1553994000) transition_time 0x170-0x173.7 (4)
0x170|            5d b4 ec 10                        |    ]...        |      [82]: "2019-10-27T01:00:00Z" (1572138000) transition_time 0x174-0x177.7 (4)
0x170|                        5e 7f f3 10            |        ^...    |      [83]: "2020-03-29T01:00:00Z" (1585443600) transition_time 0x178-0x17b.7 (4)
0x170|                                    5f 94 ce 10|            _...|      [84]: "2020-10-25T01:00:00Z" (1603587600) transition_time 0x17c-0x17f.7 (4)
0x180|60 5f d5 10                                    |`_..            |      [85]: "2021-03-28T01:00:00Z" (1616893200) transition_time 0x180-0x183.7 (4)
0x180|            61 7d ea 90                        |    a}..        |      [86]: "2021-10-31T01:00:00Z" (1635642000) transition_time 0x184-0x187.7 (4)
0x180|                        62 3f b7 10            |        b?..    |      [87]: "2022-03-27T01:00:00Z" (1648342800) transition_time 0x188-0x18b.7 (4)
0x180|                                    63 5d cc 90|            c]..|      [88]: "2022-10-30T01:00:00Z" (1667091600) transition_time 0x18c-0x18f.7 (4)
0x190|64 1f 99 10                                    |d...            |      [89]: "2023-03-26T01:00:00Z" (1679792400) transition_time 0x190-0x193.7 (4)
0x190|            65 3d ae 90                        |    e=..        |      [90]: "2023-10-29T01:00:00Z" (1698541200) transition_time 0x194-0x197.7 (4)
0x190|                        66 08 b5 90            |        f...    |      [91]: "2024-03-31T01:00:00Z" (1711846800) transition_time 0x198-0x19b.7 (4)
0x190|                                    67 1d 90 90|            g...|      [92]: "2024-10-27T01:00:00Z" (1729990800) transition_time 0x19c-0x19f.7 (4)
0x1a0|67 e8 97 90                                    |g...            |      [93]: "2025-03-30T01:00:00Z" (1743296400) transition_time 0x1a0-0x1a3.7 (4)
0x1a0|            68 fd 72 90                        |    h.r.        |      [94]: "2025-10-26T01:00:00Z" (1761440400) transition_time 0x1a4-0x1a7.7 (4)
0x1a0|                        69 c8 79 90            |        i.y.    |      [95]: "2026-03-29T01:00:00Z" (1774746000) transition_time 0x1a8-0x1ab.7 (4)
0x1a0|                                    6a dd 54 90|            j.T.|      [96]: "2026-10-25T01:00:00Z" (1792890000) transition_time 0x1ac-0x1af.7 (4)
0x1b0|6b a8 5b 90                                    |k.[.            |      [97]: "2027-03-28T01:00:00Z" (1806195600) transition_time 0x1b0-0x1b3.7 (4)
0x1b0|            6c c6 71 10                        |    l.q.        |      [98]: "2027-10-31T01:00:00Z" (1824944400) transition_time 0x1b4-0x1b7.7 (4)
0x1b0|                        6d 88 3d 90            |        m.=.    |      [99]: "2028-03-26T01:00:00Z" (1837645200) transition_time 0x1b8-0x1bb.7 (4)
0x1b0|                                    6e a6 53 10|            n.S.|      [100]: "2028-10-29T01:00:00Z" (1856394000) transition_time 0x1bc-0x1bf.7 (4)
0x1c0|6f 68 1f 90                                    |oh..            |      [101]: "2029-03-25T01:00:00Z" (1869094800) transition_time 0x1c0-0x1c3.7 (4)
0x1c0|            70 86 35 10                        |    p.5.        |      [102]: "2029-10-28T01:00:00Z" (1887843600) transition_time 0x1c4-0x1c7.7 (4)
0x1c0|                        71 51 3c 10            |        qQ<.    |      [103]: "2030-03-31T01:00:00Z" (1901149200) transition_time 0x1c8-0x1cb.7 (4)
0x1c0|                                    72 66 17 10|            rf..|      [104]: "2030-10-27T01:00:00Z" (1919293200) transition_time 0x1cc-0x1cf.7 (4)
0x1d0|73 31 1e 10                                    |s1..            |      [105]: "2031-03-30T01:00:00Z" (1932598800) transition_time 0x1d0-0x1d3.7 (4)
0x1d0|            74 45 f9 10                        |    tE..        |      [106]: "2031-10-26T01:00:00Z" (1950742800) transition_time 0x1d4-0x1d7.7 (4)
0x1d0|                        75 11 00 10            |        u...    |      [107]: "2032-03-28T01:00:00Z" (1964048400) transition_time 0x1d8-0x1db.7 (4)
0x1d0|                                    76 2f 15 90|            v/..|      [108]: "2032-10-31T01:00:00Z" (1982797200) transition_time 0x1dc-0x1df.7 (4)
0x1e0|76 f0 e2 10                                    |v...            |      [109]: "2033-03-27T01:00:00Z" (1995498000) transition_time 0x1e0-0x1e3.7 (4)
0x1e0|            78 0e f7 90                        |    x...        |      [110]: "2033-10-30T01:00:00Z" (2014246800) transition_time 0x1e4-0x1e7.7 (4)
0x1e0|                        78 d0 c4 10            |        x...    |      [111]: "2034-03-26T01:00:00Z" (2026947600) transition_time 0x1e8-0x1eb.7 (4)
0x1e0|                                    79 ee d9 90|            y...|      [112]: "2034-10-29T01:00:00Z" (2045696400) transition_time 0x1ec-0x1ef.7 (4)
0x1f0|7a b0 a6 10                                    |z...            |      [113]: "2035-03-25T01:00:00Z" (2058397200) transition_time 0x1f0-0x1f3.7 (4)
0x1f0|            7b ce bb 90                        |    {...        |      [114]: "2035-10-28T01:00:00Z" (2077146000) transition_time 0x1f4-0x1f7.7 (4)
0x1f0|                        7c 99 c2 90            |        |...    |      [115]: "2036-03-30T01:00:00Z" (2090451600) transition_time 0x1f8-0x1fb.7 (4)
0x1f0|                                    7d ae 9d 90|            }...|      [116]: "2036-10-26T01:00:00Z" (2108595600) transition_time 0x1fc-0x1ff.7 (4)
0x200|7e 79 a4 90                                    |~y..            |      [117]: "2037-03-29T01:00:00Z" (2121901200) transition_time 0x200-0x203.7 (4)
0x200|            7f 8e 7f 90                        |    ....        |      [118]: "2037-10-25T01:00:00Z" (2140045200) transition_time 0x204-0x207.7 (4)
     |                                               |                |    transition_types[0:119]: 0x208-0x27e.7 (119)
0x200|                        02                     |        .       |      [0]: 2 transition_type 0x208-0x208.7 (1)
0x200|                           01                  |         .      |      [1]: 1 transition_type 0x209-0x209.7 (1)
0x200|                              02               |          .     |      [2]: 2 transition_type 0x20a-0x20a.7 (1)
0x200|                                 01            |           .    |      [3]: 1 transition_type 0x20b-0x20b.7 (1)
0x200|                                    02         |            .   |      [4]: 2 transition_type 0x20c-0x20c.7 (1)
0x200|                                       03      |             .  |      [5]: 3 transition_type 0x20d-0x20d.7 (1)
0x200|                                          04   |              . |      [6]: 4 transition_type 0x20e-0x20e.7 (1)
0x200|                                             03|               .|      [7]: 3 transition_type 0x20f-0x20f.7 (1)
0x210|04                                             |.               |      [8]: 4 transition_type 0x210-0x210.7 (1)
0x210|   03                                          | .              |      [9]: 3 transition_type 0x211-0x211.7 (1)
0x210|      04                                       |  .             |      [10]: 4 transition_type 0x212-0x212.7 (1)
0x210|         03                                    |   .            |      [11]: 3 transition_type 0x213-0x213.7 (1)
0x210|            04                                 |    .           |      [12]: 4 transition_type 0x214-0x214.7 (1)
0x210|               03                              |     .          |      [13]: 3 transition_type 0x215-0x215.7 (1)
0x210|                  04                           |      .         |      [14]: 4 transition_type 0x216-0x216.7 (1)
0x210|                     03                        |       .        |      [15]: 3 transition_type 0x217-0x217.7 (1)
0x210|                        04                     |        .       |      [16]: 4 transition_type 0x218-0x218.7 (1)
0x210|                           03                  |         .      |      [17]: 3 transition_type 0x219-0x219.7 (1)
0x210|                              04               |          .     |      [18]: 4 transition_type 0x21a-0x21a.7 (1)
0x210|                                 03            |           .    |      [19]: 3 transition_type 0x21b-0x21b.7 (1)
0x210|                                    04         |            .   |      [20]: 4 transition_type 0x21c-0x21c.7 (1)
0x210|                                       03      |             .  |      [21]: 3 transition_type 0x21d-0x21d.7 (1)
0x210|                                          04   |              . |      [22]: 4 transition_type 0x21e-0x21e.7 (1)
0x210|                                             03|               .|      [23]: 3 transition_type 0x21f-0x21f.7 (1)
0x220|04                                             |.               |      [24]: 4 transition_type 0x220-0x220.7 (1)
0x220|   03                                          | .              |      [25]: 3 transition_type 0x221-0x221.7 (1)
0x220|      04                                       |  .             |      [26]: 4 transition_type 0x222-0x222.7 (1)
0x220|         03                                    |   .            |      [27]: 3 transition_type 0x223-0x223.7 (1)
0x220|            04                                 |    .           |      [28]: 4 transition_type 0x224-0x224.7 (1)
0x220|               03                              |     .          |      [29]: 3 transition_type 0x225-0x225.7 (1)
0x220|                  04                           |      .         |      [30]: 4 transition_type 0x226-0x226.7 (1)
0x220|                     03                        |       .        |      [31]: 3 transition_type 0x227-0x227.7 (1)
0x220|                        04                     |        .       |      [32]: 4 transition_type 0x228-0x228.7 (1)
0x220|                           03                  |         .      |      [33]: 3 transition_type 0x229-0x229.7 (1)
0x220|                              04               |          .     |      [34]: 4 transition_type 0x22a-0x22a.7 (1)
0x220|                                 03            |           .    |      [35]: 3 transition_type 0x22b-0x22b.7 (1)
0x220|                                    04         |            .   |      [36]: 4 transition_type 0x22c-0x22c.7 (1)
0x220|                                       03      |             .  |      [37]: 3 transition_type 0x22d-0x22d.7 (1)
0x220|                                          04   |              . |      [38]: 4 transition_type 0x22e-0x22e.7 (1)
0x220|                                             03|               .|      [39]: 3 transition_type 0x22f-0x22f.7 (1)
0x230|04                                             |.               |      [40]: 4 transition_type 0x230-0x230.7 (1)
0x230|   03                                          | .              |      [41]: 3 transition_type 0x231-0x231.7 (1)
0x230|      04                                       |  .             |      [42]: 4 transition_type 0x232-0x232.7 (1)
0x230|         03                                    |   .            |      [43]: 3 transition_type 0x233-0x233.7 (1)
0x230|            04                                 |    .           |      [44]: 4 transition_type 0x234-0x234.7 (1)
0x230|               03                              |     .          |      [45]: 3 transition_type 0x235-0x235.7 (1)
0x230|                  04                           |      .         |      [46]: 4 transition_type 0x236-0x236.7 (1)
0x230|                     03                        |       .        |      [47]: 3 transition_type 0x237-0x237.7 (1)
0x230|                        04                     |        .       |      [48]: 4 transition_type 0x238-0x238.7 (1)
0x230|                           03                  |         .      |      [49]: 3 transition_type 0x239-0x239.7 (1)
0x230|                              04               |          .     |      [50]: 4 transition_type 0x23a-0x23a.7 (1)
0x230|                                 03            |           .    |      [51]: 3 transition_type 0x23b-0x23b.7 (1)
0x230|                                    04         |            .   |      [52]: 4 transition_type 0x23c-0x23c.7 (1)
0x230|                                       03      |             .  |      [53]: 3 transition_type 0x23d-0x23d.7 (1)
0x230|                                          04   |              . |      [54]: 4 transition_type 0x23e-0x23e.7 (1)
0x230|                                             03|               .|      [55]: 3 transition_type 0x23f-0x23f.7 (1)
0x240|04                                             |.               |      [56]: 4 transition_type 0x240-0x240.7 (1)
0x240|   03                                          | .              |      [57]: 3 transition_type 0x241-0x241.7 (1)
0x240|      04                                       |  .             |      [58]: 4 transition_type 0x242-0x242.7 (1)
0x240|         03                                    |   .            |      [59]: 3 transition_type 0x243-0x243.7 (1)
0x240|            04                                 |    .           |      [60]: 4 transition_type 0x244-0x244.7 (1)
0x240|               03                              |     .          |      [61]: 3 transition_type 0x245-0x245.7 (1)
0x240|                  04                           |      .         |      [62]: 4 transition_type 0x246-0x246.7 (1)
0x240|                     03                        |       .        |      [63]: 3 transition_type 0x247-0x247.7 (1)
0x240|                        04                     |        .       |      [64]: 4 transition_type 0x248-0x248.7 (1)
0x240|                           03                  |         .      |      [65]: 3 transition_type 0x249-0x249.7 (1)
0x240|                              04               |          .     |      [66]: 4 transition_type 0x24a-0x24a.7 (1)
0x240|                                 03            |           .    |      [67]: 3 transition_type 0x24b-0x24b.7 (1)
0x240|                                    04         |            .   |      [68]: 4 transition_type 0x24c-0x24c.7 (1)
0x240|                                       03      |             .  |      [69]: 3 transition_type 0x24d-0x24d.7 (1)
0x240|                                          04   |              . |      [70]: 4 transition_type 0x24e-0x24e.7 (1)
0x240|                                             03|               .|      [71]: 3 transition_type 0x24f-0x24f.7 (1)
0x250|04                                             |.               |      [72]: 4 transition_type 0x250-0x250.7 (1)
0x250|   03                                          | .              |      [73]: 3 transition_type 0x251-0x251.7 (1)
0x250|      04                                       |  .             |      [74]: 4 transition_type 0x252-0x252.7 (1)
0x250|         03                                    |   .            |      [75]: 3 transition_type 0x253-0x253.7 (1)
0x250|            04                                 |    .           |      [76]: 4 transition_type 0x254-0x254.7 (1)
0x250|               03                              |     .          |      [77]: 3 transition_type 0x255-0x255.7 (1)
0x250|                  04                           |      .         |      [78]: 4 transition_type 0x256-0x256.7 (1)
0x250|                     03                        |       .        |      [79]: 3 transition_type 0x257-0x257.7 (1)
0x250|                        04                     |        .       |      [80]: 4 transition_type 0x258-0x258.7 (1)
0x250|                           03                  |         .      |      [81]: 3 transition_type 0x259-0x259.7 (1)
0x250|                              04               |          .     |      [82]: 4 transition_type 0x25a-0x25a.7 (1)
0x250|                                 03            |           .    |      [83]: 3 transition_type 0x25b-0x25b.7 (1)
0x250|                                    04         |            .   |      [84]: 4 transition_type 0x25c-0x25c.7 (1)
0x250|                                       03      |             .  |      [85]: 3 transition_type 0x25d-0x25d.7 (1)
0x250|                                          04   |              . |      [86]: 4 transition_type 0x25e-0x25e.7 (1)
0x250|                                             03|               .|      [87]: 3 transition_type 0x25f-0x25f.7 (1)
0x260|04                                             |.               |      [88]: 4 transition_type 0x260-0x260.7 (1)
0x260|   03                                          | .              |      [89]: 3 transition_type 0x261-0x261.7 (1)
0x260|      04                                       |  .             |      [90]: 4 transition_type 0x262-0x262.7 (1)
0x260|         03                                    |   .            |      [91]: 3 transition_type 0x263-0x263.7 (1)
0x260|            04                                 |    .           |      [92]: 4 transition_type 0x264-0x264.7 (1)
0x260|               03                              |     .          |      [93]: 3 transition_type 0x265-0x265.7 (1)
0x260|                  04                           |      .         |      [94]: 4 transition_type 0x266-0x266.7 (1)
0x260|                     03                        |       .        |      [95]: 3 transition_type 0x267-0x267.7 (1)
0x260|                        04                     |        .       |      [96]: 4 transition_type 0x268-0x268.7 (1)
0x260|                           03                  |         .      |      [97]: 3 transition_type 0x269-0x269.7 (1)
0x260|                              04               |          .     |      [98]: 4 transition_type 0x26a-0x26a.7 (1)
0x260|                                 03            |           .    |      [99]: 3 transition_type 0x26b-0x26b.7 (1)
0x260|                                    04         |            .   |      [100]: 4 transition_type 0x26c-0x26c.7 (1)
0x260|                                       03      |             .  |      [101]: 3 transition_type 0x26d-0x26d.7 (1)
0x260|                                          04   |              . |      [102]: 4 transition_type 0x26e-0x26e.7 (1)
0x260|                                             03|               .|      [103]: 3 transition_type 0x26f-0x26f.7 (1)
0x270|04                                             |.               |      [104]: 4 transition_type 0x270-0x270.7 (1)
0x270|   03                                          | .              |      [105]: 3 transition_type 0x271-0x271.7 (1)
0x270|      04                                       |  .             |      [106]: 4 transition_type 0x272-0x272.7 (1)
0x270|         03                                    |   .            |      [107]: 3 transition_type 0x273-0x273.7 (1)
0x270|            04                                 |    .           |      [108]: 4 transition_type 0x274-0x274.7 (1)
0x270|               03                              |     .          |      [109]: 3 transition_type 0x275-0x275.7 (1)
0x270|                  04                           |      .         |      [110]: 4 transition_type 0x276-0x276.7 (1)
0x270|                     03                        |       .        |      [111]: 3 transition_type 0x277-0x277.7 (1)
0x270|                        04                     |        .       |      [112]: 4 transition_type 0x278-0x278.7 (1)
0x270|                           03                  |         .      |      [113]: 3 transition_type 0x279-0x279.7 (1)
0x270|                              04               |          .     |      [114]: 4 transition_type 0x27a-0x27a.7 (1)
0x270|                                 03            |           .    |      [115]: 3 transition_type 0x27b-0x27b.7 (1)
0x270|                                    04         |            .   |      [116]: 4 transition_type 0x27c-0x27c.7 (1)
0x270|                                       03      |             .  |      [117]: 3 transition_type 0x27d-0x27d.7 (1)
0x270|                                          04   |              . |      [118]: 4 transition_type 0x27e-0x27e.7 (1)
     |                                               |                |    local_time_type_records[0:5]: 0x27f-0x29c.7 (30)
     |                                               |                |      [0]{}: local_time_type 0x27f-0x284.7 (6)
0x270|                                             00|               .|        utoff: 2048 (valid) 0x27f-0x282.7 (4)
0x280|00 08 00                                       |...             |
0x280|         00                                    |   .            |        dst: 0 (valid) 0x283-0x283.7 (1)
0x280|            00                                 |    .           |        idx: 0 (valid) 0x284-0x284.7 (1)
     |                                               |                |      [1]{}: local_time_type 0x285-0x28a.7 (6)
0x280|               00 00 1c 20                     |     ...        |        utoff: 7200 (valid) 0x285-0x288.7 (4)
0x280|                           01                  |         .      |        dst: 1 (valid) 0x289-0x289.7 (1)
0x280|                              04               |          .     |        idx: 4 (valid) 0x28a-0x28a.7 (1)
     |                                               |                |      [2]{}: local_time_type 0x28b-0x290.7 (6)
0x280|                                 00 00 0e 10   |           .... |        utoff: 3600 (valid) 0x28b-0x28e.7 (4)
0x280|                                             00|               .|        dst: 0 (valid) 0x28f-0x28f.7 (1)
0x290|09                                             |.               |        idx: 9 (valid) 0x290-0x290.7 (1)
     |                                               |                |      [3]{}: local_time_type 0x291-0x296.7 (6)
0x290|   00 00 1c 20                                 | ...            |        utoff: 7200 (valid) 0x291-0x294.7 (4)
0x290|               01                              |     .          |        dst: 1 (valid) 0x295-0x295.7 (1)
0x290|                  04                           |      .         |        idx: 4 (valid) 0x296-0x296.7 (1)
     |                                               |                |      [4]{}: local_time_type 0x297-0x29c.7 (6)
0x290|                     00 00 0e 10               |       ....     |        utoff: 3600 (valid) 0x297-0x29a.7 (4)
0x290|                                 00            |           .    |        dst: 0 (valid) 0x29b-0x29b.7 (1)
0x290|                                    09         |            .   |        idx: 9 (valid) 0x29c-0x29c.7 (1)
     |                                               |                |    time_zone_designations[0:3]: 0x29d-0x2a9.7 (13)
0x290|                                       4c 4d 54|             LMT|      [0]: "LMT" time_zone_designation 0x29d-0x2a0.7 (4)
0x2a0|00                                             |.               |
0x2a0|   43 45 53 54 00                              | CEST.          |      [1]: "CEST" time_zone_designation 0x2a1-0x2a5.7 (5)
0x2a0|                  43 45 54 00                  |      CET.      |      [2]: "CET" time_zone_designation 0x2a6-0x2a9.7 (4)
     |                                               |                |    leap_second_records[0:0]: 0x2aa-NA (0)
     |                                               |                |    standard_wall_indicators[0:5]: 0x2aa-0x2ae.7 (5)
0x2a0|                              00               |          .     |      [0]: 0 standard_wall_indicator (valid) 0x2aa-0x2aa.7 (1)
0x2a0|                                 00            |           .    |      [1]: 0 standard_wall_indicator (valid) 0x2ab-0x2ab.7 (1)
0x2a0|                                    00         |            .   |      [2]: 0 standard_wall_indicator (valid) 0x2ac-0x2ac.7 (1)
0x2a0|                                       01      |             .  |      [3]: 1 standard_wall_indicator (valid) 0x2ad-0x2ad.7 (1)
0x2a0|                                          01   |              . |      [4]: 1 standard_wall_indicator (valid) 0x2ae-0x2ae.7 (1)
     |                                               |                |    ut_local_indicators[0:5]: 0x2af-0x2b3.7 (5)
0x2a0|                                             00|               .|      [0]: 0 ut_local_indicator (valid) 0x2af-0x2af.7 (1)
0x2b0|00                                             |.               |      [1]: 0 ut_local_indicator (valid) 0x2b0-0x2b0.7 (1)
0x2b0|   00                                          | .              |      [2]: 0 ut_local_indicator (valid) 0x2b1-0x2b1.7 (1)
0x2b0|      01                                       |  .             |      [3]: 1 ut_local_indicator (valid) 0x2b2-0x2b2.7 (1)
0x2b0|         01                                    |   .            |      [4]: 1 ut_local_indicator (valid) 0x2b3-0x2b3.7 (1)
     |                                               |                |  v2plusheader{}: 0x2b4-0x2df.7 (44)
0x2b0|            54 5a 69 66                        |    TZif        |    magic: 0x545a6966 (valid) 0x2b4-0x2b7.7 (4)
0x2b0|                        32                     |        2       |    ver: "2" (0x32) (valid) 0x2b8-0x2b8.7 (1)
0x2b0|                           00 00 00 00 00 00 00|         .......|    reserved: raw bits 0x2b9-0x2c7.7 (15)
0x2c0|00 00 00 00 00 00 00 00                        |........        |
0x2c0|                        00 00 00 06            |        ....    |    isutcnt: 6 0x2c8-0x2cb.7 (4)
0x2c0|                                    00 00 00 06|            ....|    isstdcnt: 6 0x2cc-0x2cf.7 (4)
0x2d0|00 00 00 00                                    |....            |    leapcnt: 0 0x2d0-0x2d3.7 (4)
0x2d0|            00 00 00 78                        |    ...x        |    timecnt: 120 0x2d4-0x2d7.7 (4)
0x2d0|                        00 00 00 06            |        ....    |    typecnt: 6 0x2d8-0x2db.7 (4)
0x2d0|                                    00 00 00 11|            ....|    charcnt: 17 0x2dc-0x2df.7 (4)
     |                                               |                |  v2plusdatablock{}: 0x2e0-0x758.7 (1145)
     |                                               |                |    transition_times[0:120]: 0x2e0-0x69f.7 (960)
0x2e0|ff ff ff ff 24 f0 ea 80                        |....$...        |      [0]: "1853-07-15T23:25:52Z" (-3675198848) transition_time 0x2e0-0x2e7.7 (8)
0x2e0|                        ff ff ff ff 71 d4 06 86|        ....q...|      [1]: "1894-05-31T23:30:14Z" (-2385246586) transition_time 0x2e8-0x2ef.7 (8)
0x2f0|ff ff ff ff ca 17 6a 00                        |......j.        |      [2]: "1941-05-05T00:00:00Z" (-904435200) transition_time 0x2f0-0x2f7.7 (8)
0x2f0|                        ff ff ff ff ca e2 71 00|        ......q.|      [3]: "1941-10-06T00:00:00Z" (-891129600) transition_time 0x2f8-0x2ff.7 (8)
0x300|ff ff ff ff cb f7 4c 00                        |......L.        |      [4]: "1942-05-04T00:00:00Z" (-872985600) transition_time 0x300-0x307.7 (8)
0x300|                        ff ff ff ff cc c2 53 00|        ......S.|      [5]: "1942-10-05T00:00:00Z" (-859680000) transition_time 0x308-0x30f.7 (8)
0x310|00 00 00 00 15 23 eb 90                        |.....#..        |      [6]: "1981-03-29T01:00:00Z" (354675600) transition_time 0x310-0x317.7 (8)
0x310|                        00 00 00 00 16 13 dc 90|        ........|      [7]: "1981-09-27T01:00:00Z" (370400400) transition_time 0x318-0x31f.7 (8)
0x320|00 00 00 00 17 03 cd 90                        |........        |      [8]: "1982-03-28T01:00:00Z" (386125200) transition_time 0x320-0x327.7 (8)
0x320|                        00 00 00 00 17 f3 be 90|        ........|      [9]: "1982-09-26T01:00:00Z" (401850000) transition_time 0x328-0x32f.7 (8)
0x330|00 00 00 00 18 e3 af 90                        |........        |      [10]: "1983-03-27T01:00:00Z" (417574800) transition_time 0x330-0x337.7 (8)
0x330|                        00 00 00 00 19 d3 a0 90|        ........|      [11]: "1983-09-25T01:00:00Z" (433299600) transition_time 0x338-0x33f.7 (8)
0x340|00 00 00 00 1a c3 91 90                        |........        |      [12]: "1984-03-25T01:00:00Z" (449024400) transition_time 0x340-0x347.7 (8)
0x340|                        00 00 00 00 1b bc bd 10|        ........|      [13]: "1984-09-30T01:00:00Z" (465354000) transition_time 0x348-0x34f.7 (8)
0x350|00 00 00 00 1c ac ae 10                        |........        |      [14]: "1985-03-31T01:00:00Z" (481078800) transition_time 0x350-0x357.7 (8)
0x350|                        00 00 00 00 1d 9c 9f 10|        ........|      [15]: "1985-09-29T01:00:00Z" (496803600) transition_time 0x358-0x35f.7 (8)
0x360|00 00 00 00 1e 8c 90 10                        |........        |      [16]: "1986-03-30T01:00:00Z" (512528400) transition_time 0x360-0x367.7 (8)
0x360|                        00 00 00 00 1f 7c 81 10|        .....|..|      [17]: "1986-09-28T01:00:00Z" (528253200) transition_time 0x368-0x36f.7 (8)
0x370|00 00 00 00 20 6c 72 10                        |.... lr.        |      [18]: "1987-03-29T01:00:00Z" (543978000) transition_time 0x370-0x377.7 (8)
0x370|                        00 00 00 00 21 5c 63 10|        ....!\c.|      [19]: "1987-09-27T01:00:00Z" (559702800) transition_time 0x378-0x37f.7 (8)
0x380|00 00 00 00 22 4c 54 10                        |...."LT.        |      [20]: "1988-03-27T01:00:00Z" (575427600) transition_time 0x380-0x387.7 (8)
0x380|                        00 00 00 00 23 3c 45 10|        ....#<E.|      [21]: "1988-09-25T01:00:00Z" (591152400) transition_time 0x388-0x38f.7 (8)
0x390|00 00 00 00 24 2c 36 10                        |....$,6.        |      [22]: "1989-03-26T01:00:00Z" (606877200) transition_time 0x390-0x397.7 (8)
0x390|                        00 00 00 00 25 1c 27 10|        ....%.'.|      [23]: "1989-09-24T01:00:00Z" (622602000) transition_time 0x398-0x39f.7 (8)
0x3a0|00 00 00 00 26 0c 18 10                        |....&...        |      [24]: "1990-03-25T01:00:00Z" (638326800) transition_time 0x3a0-0x3a7.7 (8)
0x3a0|                        00 00 00 00 27 05 43 90|        ....'.C.|      [25]: "1990-09-30T01:00:00Z" (654656400) transition_time 0x3a8-0x3af.7 (8)
0x3b0|00 00 00 00 27 f5 34 90                        |....'.4.        |      [26]: "1991-03-31T01:00:00Z" (670381200) transition_time 0x3b0-0x3b7.7 (8)
0x3b0|                        00 00 00 00 28 e5 25 90|        ....(.%.|      [27]: "1991-09-29T01:00:00Z" (686106000) transition_time 0x3b8-0x3bf.7 (8)
0x3c0|00 00 00 00 29 d5 16 90                        |....)...        |      [28]: "1992-03-29T01:00:00Z" (701830800) transition_time 0x3c0-0x3c7.7 (8)
0x3c0|                        00 00 00 00 2a c5 07 90|        ....*...|      [29]: "1992-09-27T01:00:00Z" (717555600) transition_time 0x3c8-0x3cf.7 (8)
0x3d0|00 00 00 00 2b b4 f8 90                        |....+...        |      [30]: "1993-03-28T01:00:00Z" (733280400) transition_time 0x3d0-0x3d7.7 (8)
0x3d0|                        00 00 00 00 2c a4 e9 90|        ....,...|      [31]: "1993-09-26T01:00:00Z" (749005200) transition_time 0x3d8-0x3df.7 (8)
0x3e0|00 00 00 00 2d 94 da 90                        |....-...        |      [32]: "1994-03-27T01:00:00Z" (764730000) transition_time 0x3e0-0x3e7.7 (8)
0x3e0|                        00 00 00 00 2e 84 cb 90|        ........|      [33]: "1994-09-25T01:00:00Z" (780454800) transition_time 0x3e8-0x3ef.7 (8)
0x3f0|00 00 00 00 2f 74 bc 90                        |..../t..        |      [34]: "1995-03-26T01:00:00Z" (796179600) transition_time 0x3f0-0x3f7.7 (8)
0x3f0|                        00 00 00 00 30 64 ad 90|        ....0d..|      [35]: "1995-09-24T01:00:00Z" (811904400) transition_time 0x3f8-0x3ff.7 (8)
0x400|00 00 00 00 31 5d d9 10                        |....1]..        |      [36]: "1996-03-31T01:00:00Z" (828234000) transition_time 0x400-0x407.7 (8)
0x400|                        00 00 00 00 32 72 b4 10|        ....2r..|      [37]: "1996-10-27T01:00:00Z" (846378000) transition_time 0x408-0x40f.7 (8)
0x410|00 00 00 00 33 3d bb 10                        |....3=..        |      [38]: "1997-03-30T01:00:00Z" (859683600) transition_time 0x410-0x417.7 (8)
0x410|                        00 00 00 00 34 52 96 10|        ....4R..|      [39]: "1997-10-26T01:00:00Z" (877827600) transition_time 0x418-0x41f.7 (8)
0x420|00 00 00 00 35 1d 9d 10                        |....5...        |      [40]: "1998-03-29T01:00:00Z" (891133200) transition_time 0x420-0x427.7 (8)
0x420|                        00 00 00 00 36 32 78 10|        ....62x.|      [41]: "1998-10-25T01:00:00Z" (909277200) transition_time 0x428-0x42f.7 (8)
0x430|00 00 00 00 36 fd 7f 10                        |....6...        |      [42]: "1999-03-28T01:00:00Z" (922582800) transition_time 0x430-0x437.7 (8)
0x430|                        00 00 00 00 38 1b 94 90|        ....8...|      [43]: "1999-10-31T01:00:00Z" (941331600) transition_time 0x438-0x43f.7 (8)
0x440|00 00 00 00 38 dd 61 10                        |....8.a.        |      [44]: "2000-03-26T01:00:00Z" (954032400) transition_time 0x440-0x447.7 (8)
0x440|                        00 00 00 00 39 fb 76 90|        ....9.v.|      [45]: "2000-10-29T01:00:00Z" (972781200) transition_time 0x448-0x44f.7 (8)
0x450|00 00 00 00 3a bd 43 10                        |....:.C.        |      [46]: "2001-03-25T01:00:00Z" (985482000) transition_time 0x450-0x457.7 (8)
0x450|                        00 00 00 00 3b db 58 90|        ....;.X.|      [47]: "2001-10-28T01:00:00Z" (1004230800) transition_time 0x458-0x45f.7 (8)
0x460|00 00 00 00 3c a6 5f 90                        |....<._.        |      [48]: "2002-03-31T01:00:00Z" (1017536400) transition_time 0x460-0x467.7 (8)
0x460|                        00 00 00 00 3d bb 3a 90|        ....=.:.|      [49]: "2002-10-27T01:00:00Z" (1035680400) transition_time 0x468-0x46f.7 (8)
0x470|00 00 00 00 3e 86 41 90                        |....>.A.        |      [50]: "2003-03-30T01:00:00Z" (1048986000) transition_time 0x470-0x477.7 (8)
0x470|                        00 00 00 00 3f 9b 1c 90|        ....?...|      [51]: "2003-10-26T01:00:00Z" (1067130000) transition_time 0x478-0x47f.7 (8)
0x480|00 00 00 00 40 66 23 90                        |....@f#.        |      [52]: "2004-03-28T01:00:00Z" (1080435600) transition_time 0x480-0x487.7 (8)
0x480|                        00 00 00 00 41 84 39 10|        ....A.9.|      [53]: "2004-10-31T01:00:00Z" (1099184400) transition_time 0x488-0x48f.7 (8)
0x490|00 00 00 00 42 46 05 90                        |....BF..        |      [54]: "2005-03-27T01:00:00Z" (1111885200) transition_time 0x490-0x497.7 (8)
0x490|                        00 00 00 00 43 64 1b 10|        ....Cd..|      [55]: "2005-10-30T01:00:00Z" (1130634000) transition_time 0x498-0x49f.7 (8)
0x4a0|00 00 00 00 44 25 e7 90                        |....D%..        |      [56]: "2006-03-26T01:00:00Z" (1143334800) transition_time 0x4a0-0x4a7.7 (8)
0x4a0|                        00 00 00 00 45 43 fd 10|        ....EC..|      [57]: "2006-10-29T01:00:00Z" (1162083600) transition_time 0x4a8-0x4af.7 (8)
0x4b0|00 00 00 00 46 05 c9 90                        |....F...        |      [58]: "2007-03-25T01:00:00Z" (1174784400) transition_time 0x4b0-0x4b7.7 (8)
0x4b0|                        00 00 00 00 47 23 df 10|        ....G#..|      [59]: "2007-10-28T01:00:00Z" (1193533200) transition_time 0x4b8-0x4bf.7 (8)
0x4c0|00 00 00 00 47 ee e6 10                        |....G...        |      [60]: "2008-03-30T01:00:00Z" (1206838800) transition_time 0x4c0-0x4c7.7 (8)
0x4c0|                        00 00 00 00 49 03 c1 10|        ....I...|      [61]: "2008-10-26T01:00:00Z" (1224982800) transition_time 0x4c8-0x4cf.7 (8)
0x4d0|00 00 00 00 49 ce c8 10                        |....I...        |      [62]: "2009-03-29T01:00:00Z" (1238288400) transition_time 0x4d0-0x4d7.7 (8)
0x4d0|                        00 00 00 00 4a e3 a3 10|        ....J...|      [63]: "2009-10-25T01:00:00Z" (1256432400) transition_time 0x4d8-0x4df.7 (8)
0x4e0|00 00 00 00 4b ae aa 10                        |....K...        |      [64]: "2010-03-28T01:00:00Z" (1269738000) transition_time 0x4e0-0x4e7.7 (8)
0x4e0|                        00 00 00 00 4c cc bf 90|        ....L...|      [65]: "2010-10-31T01:00:00Z" (1288486800) transition_time 0x4e8-0x4ef.7 (8)
0x4f0|00 00 00 00 4d 8e 8c 10                        |....M...        |      [66]: "2011-03-27T01:00:00Z" (1301187600) transition_time 0x4f0-0x4f7.7 (8)
0x4f0|                        00 00 00 00 4e ac a1 90|        ....N...|      [67]: "2011-10-30T01:00:00Z" (1319936400) transition_time 0x4f8-0x4ff.7 (8)
0x500|00 00 00 00 4f 6e 6e 10                        |....Onn.        |      [68]: "2012-03-25T01:00:00Z" (1332637200) transition_time 0x500-0x507.7 (8)
0x500|                        00 00 00 00 50 8c 83 90|        ....P...|      [69]: "2012-10-28T01:00:00Z" (1351386000) transition_time 0x508-0x50f.7 (8)
0x510|00 00 00 00 51 57 8a 90                        |....QW..        |      [70]: "2013-03-31T01:00:00Z" (1364691600) transition_time 0x510-0x517.7 (8)
0x510|                        00 00 00 00 52 6c 65 90|        ....Rle.|      [71]: "2013-10-27T01:00:00Z" (1382835600) transition_time 0x518-0x51f.7 (8)
0x520|00 00 00 00 53 37 6c 90                        |....S7l.        |      [72]: "2014-03-30T01:00:00Z" (1396141200) transition_time 0x520-0x527.7 (8)
0x520|                        00 00 00 00 54 4c 47 90|        ....TLG.|      [73]: "2014-10-26T01:00:00Z" (1414285200) transition_time 0x528-0x52f.7 (8)
0x530|00 00 00 00 55 17 4e 90                        |....U.N.        |      [74]: "2015-03-29T01:00:00Z" (1427590800) transition_time 0x530-0x537.7 (8)
0x530|                        00 00 00 00 56 2c 29 90|        ....V,).|      [75]: "2015-10-25T01:00:00Z" (1445734800) transition_time 0x538-0x53f.7 (8)
0x540|00 00 00 00 56 f7 30 90                        |....V.0.        |      [76]: "2016-03-27T01:00:00Z" (1459040400) transition_time 0x540-0x547.7 (8)
0x540|                        00 00 00 00 58 15 46 10|        ....X.F.|      [77]: "2016-10-30T01:00:00Z" (1477789200) transition_time 0x548-0x54f.7 (8)
0x550|00 00 00 00 58 d7 12 90                        |....X...        |      [78]: "2017-03-26T01:00:00Z" (1490490000) transition_time 0x550-0x557.7 (8)
0x550|                        00 00 00 00 59 f5 28 10|        ....Y.(.|      [79]: "2017-10-29T01:00:00Z" (1509238800) transition_time 0x558-0x55f.7 (8)
0x560|00 00 00 00 5a b6 f4 90                        |....Z...        |      [80]: "2018-03-25T01:00:00Z" (1521939600) transition_time 0x560-0x567.7 (8)
0x560|                        00 00 00 00 5b d5 0a 10|        ....[...|      [81]: "2018-10-28T01:00:00Z" (1540688400) transition_time 0x568-0x56f.7 (8)
0x570|00 00 00 00 5c a0 11 10                        |....\...        |      [82]: "2019-03-31T01:00:00Z" (1553994000) transition_time 0x570-0x577.7 (8)
0x570|                        00 00 00 00 5d b4 ec 10|        ....]...|      [83]: "2019-10-27T01:00:00Z" (1572138000) transition_time 0x578-0x57f.7 (8)
0x580|00 00 00 00 5e 7f f3 10                        |....^...        |      [84]: "2020-03-29T01:00:00Z" (1585443600) transition_time 0x580-0x587.7 (8)
0x580|                        00 00 00 00 5f 94 ce 10|        ...._...|      [85]: "2020-10-25T01:00:00Z" (1603587600) transition_time 0x588-0x58f.7 (8)
0x590|00 00 00 00 60 5f d5 10                        |....`_..        |      [86]: "2021-03-28T01:00:00Z" (1616893200) transition_time 0x590-0x597.7 (8)
0x590|                        00 00 00 00 61 7d ea 90|        ....a}..|      [87]: "2021-10-31T01:00:00Z" (1635642000) transition_time 0x598-0x59f.7 (8)
0x5a0|00 00 00 00 62 3f b7 10                        |....b?..        |      [88]: "2022-03-27T01:00:00Z" (1648342800) transition_time 0x5a0-0x5a7.7 (8)
0x5a0|                        00 00 00 00 63 5d cc 90|        ....c]..|      [89]: "2022-10-30T01:00:00Z" (1667091600) transition_time 0x5a8-0x5af.7 (8)
0x5b0|00 00 00 00 64 1f 99 10                        |....d...        |      [90]: "2023-03-26T01:00:00Z" (1679792400) transition_time 0x5b0-0x5b7.7 (8)
0x5b0|                        00 00 00 00 65 3d ae 90|        ....e=..|      [91]: "2023-10-29T01:00:00Z" (1698541200) transition_time 0x5b8-0x5bf.7 (8)
0x5c0|00 00 00 00 66 08 b5 90                        |....f...        |      [92]: "2024-03-31T01:00:00Z" (1711846800) transition_time 0x5c0-0x5c7.7 (8)
0x5c0|                        00 00 00 00 67 1d 90 90|        ....g...|      [93]: "2024-10-27T01:00:00Z" (1729990800) transition_time 0x5c8-0x5cf.7 (8)
0x5d0|00 00 00 00 67 e8 97 90                        |....g...        |      [94]: "2025-03-30T01:00:00Z" (1743296400) transition_time 0x5d0-0x5d7.7 (8)
0x5d0|                        00 00 00 00 68 fd 72 90|        ....h.r.|      [95]: "2025-10-26T01:00:00Z" (1761440400) transition_time 0x5d8-0x5df.7 (8)
0x5e0|00 00 00 00 69 c8 79 90                        |....i.y.        |      [96]: "2026-03-29T01:00:00Z" (1774746000) transition_time 0x5e0-0x5e7.7 (8)
0x5e0|                        00 00 00 00 6a dd 54 90|        ....j.T.|      [97]: "2026-10-25T01:00:00Z" (1792890000) transition_time 0x5e8-0x5ef.7 (8)
0x5f0|00 00 00 00 6b a8 5b 90                        |....k.[.        |      [98]: "2027-03-28T01:00:00Z" (1806195600) transition_time 0x5f0-0x5f7.7 (8)
0x5f0|                        00 00 00 00 6c c6 71 10|        ....l.q.|      [99]: "2027-10-31T01:00:00Z" (1824944400) transition_time 0x5f8-0x5ff.7 (8)
0x600|00 00 00 00 6d 88 3d 90                        |....m.=.        |      [100]: "2028-03-26T01:00:00Z" (1837645200) transition_time 0x600-0x607.7 (8)
0x600|                        00 00 00 00 6e a6 53 10|        ....n.S.|      [101]: "2028-10-29T01:00:00Z" (1856394000) transition_time 0x608-0x60f.7 (8)
0x610|00 00 00 00 6f 68 1f 90                        |....oh..        |      [102]: "2029-03-25T01:00:00Z" (1869094800) transition_time 0x610-0x617.7 (8)
0x610|                        00 00 00 00 70 86 35 10|        ....p.5.|      [103]: "2029-10-28T01:00:00Z" (1887843600) transition_time 0x618-0x61f.7 (8)
0x620|00 00 00 00 71 51 3c 10                        |....qQ<.        |      [104]: "2030-03-31T01:00:00Z" (1901149200) transition_time 0x620-0x627.7 (8)
0x620|                        00 00 00 00 72 66 17 10|        ....rf..|      [105]: "2030-10-27T01:00:00Z" (1919293200) transition_time 0x628-0x62f.7 (8)
0x630|00 00 00 00 73 31 1e 10                        |....s1..        |      [106]: "2031-03-30T01:00:00Z" (1932598800) transition_time 0x630-0x637.7 (8)
0x630|                        00 00 00 00 74 45 f9 10|        ....tE..|      [107]: "2031-10-26T01:00:00Z" (1950742800) transition_time 0x638-0x63f.7 (8)
0x640|00 00 00 00 75 11 00 10                        |....u...        |      [108]: "2032-03-28T01:00:00Z" (1964048400) transition_time 0x640-0x647.7 (8)
0x640|                        00 00 00 00 76 2f 15 90|        ....v/..|      [109]: "2032-10-31T01:00:00Z" (1982797200) transition_time 0x648-0x64f.7 (8)
0x650|00 00 00 00 76 f0 e2 10                        |....v...        |      [110]: "2033-03-27T01:00:00Z" (1995498000) transition_time 0x650-0x657.7 (8)
0x650|                        00 00 00 00 78 0e f7 90|        ....x...|      [111]: "2033-10-30T01:00:00Z" (2014246800) transition_time 0x658-0x65f.7 (8)
0x660|00 00 00 00 78 d0 c4 10                        |....x...        |      [112]: "2034-03-26T01:00:00Z" (2026947600) transition_time 0x660-0x667.7 (8)
0x660|                        00 00 00 00 79 ee d9 90|        ....y...|      [113]: "2034-10-29T01:00:00Z" (2045696400) transition_time 0x668-0x66f.7 (8)
0x670|00 00 00 00 7a b0 a6 10                        |....z...        |      [114]: "2035-03-25T01:00:00Z" (2058397200) transition_time 0x670-0x677.7 (8)
0x670|                        00 00 00 00 7b ce bb 90|        ....{...|      [115]: "2035-10-28T01:00:00Z" (2077146000) transition_time 0x678-0x67f.7 (8)
0x680|00 00 00 00 7c 99 c2 90                        |....|...        |      [116]: "2036-03-30T01:00:00Z" (2090451600) transition_time 0x680-0x687.7 (8)
0x680|                        00 00 00 00 7d ae 9d 90|        ....}...|      [117]: "2036-10-26T01:00:00Z" (2108595600) transition_time 0x688-0x68f.7 (8)
0x690|00 00 00 00 7e 79 a4 90                        |....~y..        |      [118]: "2037-03-29T01:00:00Z" (2121901200) transition_time 0x690-0x697.7 (8)
0x690|                        00 00 00 00 7f 8e 7f 90|        ........|      [119]: "2037-10-25T01:00:00Z" (2140045200) transition_time 0x698-0x69f.7 (8)
     |                                               |                |    transition_types[0:120]: 0x6a0-0x717.7 (120)
0x6a0|01                                             |.               |      [0]: 1 transition_type 0x6a0-0x6a0.7 (1)
0x6a0|   03                                          | .              |      [1]: 3 transition_type 0x6a1-0x6a1.7 (1)
0x6a0|      02                                       |  .             |      [2]: 2 transition_type 0x6a2-0x6a2.7 (1)
0x6a0|         03                                    |   .            |      [3]: 3 transition_type 0x6a3-0x6a3.7 (1)
0x6a0|            02                                 |    .           |      [4]: 2 transition_type 0x6a4-0x6a4.7 (1)
0x6a0|               03                              |     .          |      [5]: 3 transition_type 0x6a5-0x6a5.7 (1)
0x6a0|                  04                           |      .         |      [6]: 4 transition_type 0x6a6-0x6a6.7 (1)
0x6a0|                     05                        |       .        |      [7]: 5 transition_type 0x6a7-0x6a7.7 (1)
0x6a0|                        04                     |        .       |      [8]: 4 transition_type 0x6a8-0x6a8.7 (1)
0x6a0|                           05                  |         .      |      [9]: 5 transition_type 0x6a9-0x6a9.7 (1)
0x6a0|                              04               |          .     |      [10]: 4 transition_type 0x6aa-0x6aa.7 (1)
0x6a0|                                 05            |           .    |      [11]: 5 transition_type 0x6ab-0x6ab.7 (1)
0x6a0|                                    04         |            .   |      [12]: 4 transition_type 0x6ac-0x6ac.7 (1)
0x6a0|                                       05      |             .  |      [13]: 5 transition_type 0x6ad-0x6ad.7 (1)
0x6a0|                                          04   |              . |      [14]: 4 transition_type 0x6ae-0x6ae.7 (1)
0x6a0|                                             05|               .|      [15]: 5 transition_type 0x6af-0x6af.7 (1)
0x6b0|04                                             |.               |      [16]: 4 transition_type 0x6b0-0x6b0.7 (1)
0x6b0|   05                                          | .              |      [17]: 5 transition_type 0x6b1-0x6b1.7 (1)
0x6b0|      04                                       |  .             |      [18]: 4 transition_type 0x6b2-0x6b2.7 (1)
0x6b0|         05                                    |   .            |      [19]: 5 transition_type 0x6b3-0x6b3.7 (1)
0x6b0|            04                                 |    .           |      [20]: 4 transition_type 0x6b4-0x6b4.7 (1)
0x6b0|               05                              |     .          |      [21]: 5 transition_type 0x6b5-0x6b5.7 (1)
0x6b0|                  04                           |      .         |      [22]: 4 transition_type 0x6b6-0x6b6.7 (1)
0x6b0|                     05                        |       .        |      [23]: 5 transition_type 0x6b7-0x6b7.7 (1)
0x6b0|                        04                     |        .       |      [24]: 4 transition_type 0x6b8-0x6b8.7 (1)
0x6b0|                           05                  |         .      |      [25]: 5 transition_type 0x6b9-0x6b9.7 (1)
0x6b0|                              04               |          .     |      [26]: 4 transition_type 0x6ba-0x6ba.7 (1)
0x6b0|                                 05            |           .    |      [27]: 5 transition_type 0x6bb-0x6bb.7 (1)
0x6b0|                                    04         |            .   |      [28]: 4 transition_type 0x6bc-0x6bc.7 (1)
0x6b0|                                       05      |             .  |      [29]: 5 transition_type 0x6bd-0x6bd.7 (1)
0x6b0|                                          04   |              . |      [30]: 4 transition_type 0x6be-0x6be.7 (1)
0x6b0|                                             05|               .|      [31]: 5 transition_type 0x6bf-0x6bf.7 (1)
0x6c0|04                                             |.               |      [32]: 4 transition_type 0x6c0-0x6c0.7 (1)
0x6c0|   05                                          | .              |      [33]: 5 transition_type 0x6c1-0x6c1.7 (1)
0x6c0|      04                                       |  .             |      [34]: 4 transition_type 0x6c2-0x6c2.7 (1)
0x6c0|         05                                    |   .            |      [35]: 5 transition_type 0x6c3-0x6c3.7 (1)
0x6c0|            04                                 |    .           |      [36]: 4 transition_type 0x6c4-0x6c4.7 (1)
0x6c0|               05                              |     .          |      [37]: 5 transition_type 0x6c5-0x6c5.7 (1)
0x6c0|                  04                           |      .         |      [38]: 4 transition_type 0x6c6-0x6c6.7 (1)
0x6c0|                     05                        |       .        |      [39]: 5 transition_type 0x6c7-0x6c7.7 (1)
0x6c0|                        04                     |        .       |      [40]: 4 transition_type 0x6c8-0x6c8.7 (1)
0x6c0|                           05                  |         .      |      [41]: 5 transition_type 0x6c9-0x6c9.7 (1)
0x6c0|                              04               |          .     |      [42]: 4 transition_type 0x6ca-0x6ca.7 (1)
0x6c0|                                 05            |           .    |      [43]: 5 transition_type 0x6cb-0x6cb.7 (1)
0x6c0|                                    04         |            .   |      [44]: 4 transition_type 0x6cc-0x6cc.7 (1)
0x6c0|                                       05      |             .  |      [45]: 5 transition_type 0x6cd-0x6cd.7 (1)
0x6c0|                                          04   |              . |      [46]: 4 transition_type 0x6ce-0x6ce.7 (1)
0x6c0|                                             05|               .|      [47]: 5 transition_type 0x6cf-0x6cf.7 (1)
0x6d0|04                                             |.               |      [48]: 4 transition_type 0x6d0-0x6d0.7 (1)
0x6d0|   05                                          | .              |      [49]: 5 transition_type 0x6d1-0x6d1.7 (1)
0x6d0|      04                                       |  .             |      [50]: 4 transition_type 0x6d2-0x6d2.7 (1)
0x6d0|         05                                    |   .            |      [51]: 5 transition_type 0x6d3-0x6d3.7 (1)
0x6d0|            04                                 |    .           |      [52]: 4 transition_type 0x6d4-0x6d4.7 (1)
0x6d0|               05                              |     .          |      [53]: 5 transition_type 0x6d5-0x6d5.7 (1)
0x6d0|                  04                           |      .         |      [54]: 4 transition_type 0x6d6-0x6d6.7 (1)
0x6d0|                     05                        |       .        |      [55]: 5 transition_type 0x6d7-0x6d7.7 (1)
0x6d0|                        04                     |        .       |      [56]: 4 transition_type 0x6d8-0x6d8.7 (1)
0x6d0|                           05                  |         .      |      [57]: 5 transition_type 0x6d9-0x6d9.7 (1)
0x6d0|                              04               |          .     |      [58]: 4 transition_type 0x6da-0x6da.7 (1)
0x6d0|                                 05            |           .    |      [59]: 5 transition_type 0x6db-0x6db.7 (1)
0x6d0|                                    04         |            .   |      [60]: 4 transition_type 0x6dc-0x6dc.7 (1)
0x6d0|                                       05      |             .  |      [61]: 5 transition_type 0x6dd-0x6dd.7 (1)
0x6d0|                                          04   |              . |      [62]: 4 transition_type 0x6de-0x6de.7 (1)
0x6d0|                                             05|               .|      [63]: 5 transition_type 0x6df-0x6df.7 (1)
0x6e0|04                                             |.               |      [64]: 4 transition_type 0x6e0-0x6e0.7 (1)
0x6e0|   05                                          | .              |      [65]: 5 transition_type 0x6e1-0x6e1.7 (1)
0x6e0|      04                                       |  .             |      [66]: 4 transition_type 0x6e2-0x6e2.7 (1)
0x6e0|         05                                    |   .            |      [67]: 5 transition_type 0x6e3-0x6e3.7 (1)
0x6e0|            04                                 |    .           |      [68]: 4 transition_type 0x6e4-0x6e4.7 (1)
0x6e0|               05                              |     .          |      [69]: 5 transition_type 0x6e5-0x6e5.7 (1)
0x6e0|                  04                           |      .         |      [70]: 4 transition_type 0x6e6-0x6e6.7 (1)
0x6e0|                     05                        |       .        |      [71]: 5 transition_type 0x6e7-0x6e7.7 (1)
0x6e0|                        04                     |        .       |      [72]: 4 transition_type 0x6e8-0x6e8.7 (1)
0x6e0|                           05                  |         .      |      [73]: 5 transition_type 0x6e9-0x6e9.7 (1)
0x6e0|                              04               |          .     |      [74]: 4 transition_type 0x6ea-0x6ea.7 (1)
0x6e0|                                 05            |           .    |      [75]: 5 transition_type 0x6eb-0x6eb.7 (1)
0x6e0|                                    04         |            .   |      [76]: 4 transition_type 0x6ec-0x6ec.7 (1)
0x6e0|                                       05      |             .  |      [77]: 5 transition_type 0x6ed-0x6ed.7 (1)
0x6e0|                                          04   |              . |      [78]: 4 transition_type 0x6ee-0x6ee.7 (1)
0x6e0|                                             05|               .|      [79]: 5 transition_type 0x6ef-0x6ef.7 (1)
0x6f0|04                                             |.               |      [80]: 4 transition_type 0x6f0-0x6f0.7 (1)
0x6f0|   05                                          | .              |      [81]: 5 transition_type 0x6f1-0x6f1.7 (1)
0x6f0|      04                                       |  .             |      [82]: 4 transition_type 0x6f2-0x6f2.7 (1)
0x6f0|         05                                    |   .            |      [83]: 5 transition_type 0x6f3-0x6f3.7 (1)
0x6f0|            04                                 |    .           |      [84]: 4 transition_type 0x6f4-0x6f4.7 (1)
0x6f0|               05                              |     .          |      [85]: 5 transition_type 0x6f5-0x6f5.7 (1)
0x6f0|                  04                           |      .         |      [86]: 4 transition_type 0x6f6-0x6f6.7 (1)
0x6f0|                     05                        |       .        |      [87]: 5 transition_type 0x6f7-0x6f7.7 (1)
0x6f0|                        04                     |        .       |      [88]: 4 transition_type 0x6f8-0x6f8.7 (1)
0x6f0|                           05                  |         .      |      [89]: 5 transition_type 0x6f9-0x6f9.7 (1)
0x6f0|                              04               |          .     |      [90]: 4 transition_type 0x6fa-0x6fa.7 (1)
0x6f0|                                 05            |           .    |      [91]: 5 transition_type 0x6fb-0x6fb.7 (1)
0x6f0|                                    04         |            .   |      [92]: 4 transition_type 0x6fc-0x6fc.7 (1)
0x6f0|                                       05      |             .  |      [93]: 5 transition_type 0x6fd-0x6fd.7 (1)
0x6f0|                                          04   |              . |      [94]: 4 transition_type 0x6fe-0x6fe.7 (1)
0x6f0|                                             05|               .|      [95]: 5 transition_type 0x6ff-0x6ff.7 (1)
0x700|04                                             |.               |      [96]: 4 transition_type 0x700-0x700.7 (1)
0x700|   05                                          | .              |      [97]: 5 transition_type 0x701-0x701.7 (1)
0x700|      04                                       |  .             |      [98]: 4 transition_type 0x702-0x702.7 (1)
0x700|         05                                    |   .            |      [99]: 5 transition_type 0x703-0x703.7 (1)
0x700|            04                                 |    .           |      [100]: 4 transition_type 0x704-0x704.7 (1)
0x700|               05                              |     .          |      [101]: 5 transition_type 0x705-0x705.7 (1)
0x700|                  04                           |      .         |      [102]: 4 transition_type 0x706-0x706.7 (1)
0x700|                     05                        |       .        |      [103]: 5 transition_type 0x707-0x707.7 (1)
0x700|                        04                     |        .       |      [104]: 4 transition_type 0x708-0x708.7 (1)
0x700|                           05                  |         .      |      [105]: 5 transition_type 0x709-0x709.7 (1)
0x700|                              04               |          .     |      [106]: 4 transition_type 0x70a-0x70a.7 (1)
0x700|                                 05            |           .    |      [107]: 5 transition_type 0x70b-0x70b.7 (1)
0x700|                                    04         |            .   |      [108]: 4 transition_type 0x70c-0x70c.7 (1)
0x700|                                       05      |             .  |      [109]: 5 transition_type 0x70d-0x70d.7 (1)
0x700|                                          04   |              . |      [110]: 4 transition_type 0x70e-0x70e.7 (1)
0x700|                                             05|               .|      [111]: 5 transition_type 0x70f-0x70f.7 (1)
0x710|04                                             |.               |      [112]: 4 transition_type 0x710-0x710.7 (1)
0x710|   05                                          | .              |      [113]: 5 transition_type 0x711-0x711.7 (1)
0x710|      04                                       |  .             |      [114]: 4 transition_type 0x712-0x712.7 (1)
0x710|         05                                    |   .            |      [115]: 5 transition_type 0x713-0x713.7 (1)
0x710|            04                                 |    .           |      [116]: 4 transition_type 0x714-0x714.7 (1)
0x710|               05                              |     .          |      [117]: 5 transition_type 0x715-0x715.7 (1)
0x710|                  04                           |      .         |      [118]: 4 transition_type 0x716-0x716.7 (1)
0x710|                     05                        |       .        |      [119]: 5 transition_type 0x717-0x717.7 (1)
     |                                               |                |    local_time_type_records[0:6]: 0x718-0x73b.7 (36)
     |                                               |                |      [0]{}: local_time_type 0x718-0x71d.7 (6)
0x710|                        00 00 08 00            |        ....    |        utoff: 2048 (valid) 0x718-0x71b.7 (4)
0x710|                                    00         |            .   |        dst: 0 (valid) 0x71c-0x71c.7 (1)
0x710|                                       00      |             .  |        idx: 0 (valid) 0x71d-0x71d.7 (1)
     |                                               |                |      [1]{}: local_time_type 0x71e-0x723.7 (6)
0x710|                                          00 00|              ..|        utoff: 1786 (valid) 0x71e-0x721.7 (4)
0x720|06 fa                                          |..              |
0x720|      00                                       |  .             |        dst: 0 (valid) 0x722-0x722.7 (1)
0x720|         04                                    |   .            |        idx: 4 (valid) 0x723-0x723.7 (1)
     |                                               |                |      [2]{}: local_time_type 0x724-0x729.7 (6)
0x720|            00 00 1c 20                        |    ...         |        utoff: 7200 (valid) 0x724-0x727.7 (4)
0x720|                        01                     |        .       |        dst: 1 (valid) 0x728-0x728.7 (1)
0x720|                           08                  |         .      |        idx: 8 (valid) 0x729-0x729.7 (1)
     |                                               |                |      [3]{}: local_time_type 0x72a-0x72f.7 (6)
0x720|                              00 00 0e 10      |          ....  |        utoff: 3600 (valid) 0x72a-0x72d.7 (4)
0x720|                                          00   |              . |        dst: 0 (valid) 0x72e-0x72e.7 (1)
0x720|                                             0d|               .|        idx: 13 (valid) 0x72f-0x72f.7 (1)
     |                                               |                |      [4]{}: local_time_type 0x730-0x735.7 (6)
0x730|00 00 1c 20                                    |...             |        utoff: 7200 (valid) 0x730-0x733.7 (4)
0x730|            01                                 |    .           |        dst: 1 (valid) 0x734-0x734.7 (1)
0x730|               08                              |     .          |        idx: 8 (valid) 0x735-0x735.7 (1)
     |                                               |                |      [5]{}: local_time_type 0x736-0x73b.7 (6)
0x730|                  00 00 0e 10                  |      ....      |        utoff: 3600 (valid) 0x736-0x739.7 (4)
0x730|                              00               |          .     |        dst: 0 (valid) 0x73a-0x73a.7 (1)
0x730|                                 0d            |           .    |        idx: 13 (valid) 0x73b-0x73b.7 (1)
     |                                               |                |    time_zone_designations[0:4]: 0x73c-0x74c.7 (17)
0x730|                                    4c 4d 54 00|            LMT.|      [0]: "LMT" time_zone_designation 0x73c-0x73f.7 (4)
0x740|42 4d 54 00                                    |BMT.            |      [1]: "BMT" time_zone_designation 0x740-0x743.7 (4)
0x740|            43 45 53 54 00                     |    CEST.       |      [2]: "CEST" time_zone_designation 0x744-0x748.7 (5)
0x740|                           43 45 54 00         |         CET.   |      [3]: "CET" time_zone_designation 0x749-0x74c.7 (4)
     |                                               |                |    leap_second_records[0:0]: 0x74d-NA (0)
     |                                               |                |    standard_wall_indicators[0:6]: 0x74d-0x752.7 (6)
0x740|                                       00      |             .  |      [0]: 0 standard_wall_indicator (valid) 0x74d-0x74d.7 (1)
0x740|                                          00   |              . |      [1]: 0 standard_wall_indicator (valid) 0x74e-0x74e.7 (1)
0x740|                                             00|               .|      [2]: 0 standard_wall_indicator (valid) 0x74f-0x74f.7 (1)
0x750|00                                             |.               |      [3]: 0 standard_wall_indicator (valid) 0x750-0x750.7 (1)
0x750|   01                                          | .              |      [4]: 1 standard_wall_indicator (valid) 0x751-0x751.7 (1)
0x750|      01                                       |  .             |      [5]: 1 standard_wall_indicator (valid) 0x752-0x752.7 (1)
     |                                               |                |    ut_local_indicators[0:6]: 0x753-0x758.7 (6)
0x750|         00                                    |   .            |      [0]: 0 ut_local_indicator (valid) 0x753-0x753.7 (1)
0x750|            00                                 |    .           |      [1]: 0 ut_local_indicator (valid) 0x754-0x754.7 (1)
0x750|               00                              |     .          |      [2]: 0 ut_local_indicator (valid) 0x755-0x755.7 (1)
0x750|                  00                           |      .         |      [3]: 0 ut_local_indicator (valid) 0x756-0x756.7 (1)
0x750|                     01                        |       .        |      [4]: 1 ut_local_indicator (valid) 0x757-0x757.7 (1)
0x750|                        01                     |        .       |      [5]: 1 ut_local_indicator (valid) 0x758-0x758.7 (1)
     |                                               |                |  footer{}: 0x759-0x774.7 (28)
0x750|                           0a                  |         .      |    nl1: 10 (valid) 0x759-0x759.7 (1)
0x750|                              43 45 54 2d 31 43|          CET-1C|    tz_string: "CET-1CEST,M3.5.0,M10.5.0/3" 0x75a-0x773.7 (26)
0x760|45 53 54 2c 4d 33 2e 35 2e 30 2c 4d 31 30 2e 35|EST,M3.5.0,M10.5|
0x770|2e 30 2f 33                                    |.0/3            |
0x770|            0a|                                |    .|          |    nl2: 10 (valid) 0x774-0x774.7 (1)
