$ fq dv dicttest_many_items.plist
      |00 01 02 03 04 05 06 07 08 09 0a 0b 0c 0d 0e 0f|0123456789abcdef|.{}: dicttest_many_items.plist (bplist) 0x0-0x129c.7 (4765)
      |                                               |                |  header{}: 0x0-0x7.7 (8)
0x0000|62 70 6c 69 73 74                              |bplist          |    magic: "bplist" (valid) 0x0-0x5.7 (6)
0x0000|                  30 30                        |      00        |    version: "00" (valid) 0x6-0x7.7 (2)
      |                                               |                |  objects{}: 0x8-0x107a.7 (4211)
0x0000|                        df                     |        .       |    type: "dict" (13) (Dictionary) 0x8-0x8.3 (0.4)
0x0000|                        df                     |        .       |    size_bits: 15 0x8.4-0x8.7 (0.4)
0x0000|                           10                  |         .      |    large_size_marker: 1 (valid) 0x9-0x9.3 (0.4)
0x0000|                           10                  |         .      |    exponent: 0 0x9.4-0x9.7 (0.4)
0x0000|                              80               |          .     |    size_bigint: 128 0xa-0xa.7 (1)
      |                                               |                |    size: 128
      |                                               |                |    entries[0:128]: 0xb-0x107a.7 (4208)
      |                                               |                |      [0]{}: entry 0xb-0xdff.7 (3573)
0x0000|                                 00 01         |           ..   |        key_index: 1 0xb-0xc.7 (2)
0x0100|                                 00 81         |           ..   |        value_index: 129 0x10b-0x10c.7 (2)
      |                                               |                |        key{}: 0x20b-0x220.7 (22)
0x0200|                                 5f            |           _    |          type: "ascii_string" (5) (ASCII encoded string) 0x20b-0x20b.3 (0.4)
0x0200|                                 5f            |           _    |          size_bits: 15 0x20b.4-0x20b.7 (0.4)
0x0200|                                    10         |            .   |          large_size_marker: 1 (valid) 0x20c-0x20c.3 (0.4)
0x0200|                                    10         |            .   |          exponent: 0 0x20c.4-0x20c.7 (0.4)
0x0200|                                       13      |             .  |          size_bigint: 19 0x20d-0x20d.7 (1)
      |                                               |                |          size: 19
0x0200|                                          48 53|              HS|          value: "HSTS 973832 Version" 0x20e-0x220.7 (19)
0x0210|54 53 20 39 37 33 38 33 32 20 56 65 72 73 69 6f|TS 973832 Versio|
0x0220|6e                                             |n               |
      |                                               |                |        value{}: 0xdfb-0xdff.7 (5)
0x0df0|                                 12            |           .    |          type: "int" (1) (Integer) 0xdfb-0xdfb.3 (0.4)
0x0df0|                                 12            |           .    |          size: 4 0xdfb.4-0xdfb.7 (0.4)
0x0df0|                                    04 d5 de c0|            ....|          value: 81125056 0xdfc-0xdff.7 (4)
      |                                               |                |      [1]{}: entry 0xd-0xe04.7 (3576)
0x0000|                                       00 02   |             .. |        key_index: 2 0xd-0xe.7 (2)
0x0100|                                       00 82   |             .. |        value_index: 130 0x10d-0x10e.7 (2)
      |                                               |                |        key{}: 0x221-0x238.7 (24)
0x0220|   5f                                          | _              |          type: "ascii_string" (5) (ASCII encoded string) 0x221-0x221.3 (0.4)
0x0220|   5f                                          | _              |          size_bits: 15 0x221.4-0x221.7 (0.4)
0x0220|      10                                       |  .             |          large_size_marker: 1 (valid) 0x222-0x222.3 (0.4)
0x0220|      10                                       |  .             |          exponent: 0 0x222.4-0x222.7 (0.4)
0x0220|         15                                    |   .            |          size_bigint: 21 0x223-0x223.7 (1)
      |                                               |                |          size: 21
0x0220|            48 53 54 53 20 31 34 31 36 31 30 37|    HSTS 1416107|          value: "HSTS 14161079 Version" 0x224-0x238.7 (21)
0x0230|39 20 56 65 72 73 69 6f 6e                     |9 Version       |
      |                                               |                |        value{}: 0xe00-0xe04.7 (5)
0x0e00|12                                             |.               |          type: "int" (1) (Integer) 0xe00-0xe00.3 (0.4)
0x0e00|12                                             |.               |          size: 4 0xe00.4-0xe00.7 (0.4)
0x0e00|   05 af ba f1                                 | ....           |          value: 95402737 0xe01-0xe04.7 (4)
      |                                               |                |      [2]{}: entry 0xf-0xe09.7 (3579)
0x0000|                                             00|               .|        key_index: 3 0xf-0x10.7 (2)
0x0010|03                                             |.               |
0x0100|                                             00|               .|        value_index: 131 0x10f-0x110.7 (2)
0x0110|83                                             |.               |
      |                                               |                |        key{}: 0x239-0x250.7 (24)
0x0230|                           5f                  |         _      |          type: "ascii_string" (5) (ASCII encoded string) 0x239-0x239.3 (0.4)
0x0230|                           5f                  |         _      |          size_bits: 15 0x239.4-0x239.7 (0.4)
0x0230|                              10               |          .     |          large_size_marker: 1 (valid) 0x23a-0x23a.3 (0.4)
0x0230|                              10               |          .     |          exponent: 0 0x23a.4-0x23a.7 (0.4)
0x0230|                                 15            |           .    |          size_bigint: 21 0x23b-0x23b.7 (1)
      |                                               |                |          size: 21
0x0230|                                    48 53 54 53|            HSTS|          value: "HSTS 10020087 Version" 0x23c-0x250.7 (21)
0x0240|20 31 30 30 32 30 30 38 37 20 56 65 72 73 69 6f| 10020087 Versio|
0x0250|6e                                             |n               |
      |                                               |                |        value{}: 0xe05-0xe09.7 (5)
0x0e00|               12                              |     .          |          type: "int" (1) (Integer) 0xe05-0xe05.3 (0.4)
0x0e00|               12                              |     .          |          size: 4 0xe05.4-0xe05.7 (0.4)
0x0e00|                  01 c3 56 a6                  |      ..V.      |          value: 29578918 0xe06-0xe09.7 (4)
      |                                               |                |      [3]{}: entry 0x11-0xe0e.7 (3582)
0x0010|   00 04                                       | ..             |        key_index: 4 0x11-0x12.7 (2)
0x0110|   00 84                                       | ..             |        value_index: 132 0x111-0x112.7 (2)
      |                                               |                |        key{}: 0x251-0x268.7 (24)
0x0250|   5f                                          | _              |          type: "ascii_string" (5) (ASCII encoded string) 0x251-0x251.3 (0.4)
0x0250|   5f                                          | _              |          size_bits: 15 0x251.4-0x251.7 (0.4)
0x0250|      10                                       |  .             |          large_size_marker: 1 (valid) 0x252-0x252.3 (0.4)
0x0250|      10                                       |  .             |          exponent: 0 0x252.4-0x252.7 (0.4)
0x0250|         15                                    |   .            |          size_bigint: 21 0x253-0x253.7 (1)
      |                                               |                |          size: 21
0x0250|            48 53 54 53 20 32 31 31 31 32 30 38|    HSTS 2111208|          value: "HSTS 21112080 Version" 0x254-0x268.7 (21)
0x0260|30 20 56 65 72 73 69 6f 6e                     |0 Version       |
      |                                               |                |        value{}: 0xe0a-0xe0e.7 (5)
0x0e00|                              12               |          .     |          type: "int" (1) (Integer) 0xe0a-0xe0a.3 (0.4)
0x0e00|                              12               |          .     |          size: 4 0xe0a.4-0xe0a.7 (0.4)
0x0e00|                                 01 32 70 ab   |           .2p. |          value: 20082859 0xe0b-0xe0e.7 (4)
      |                                               |                |      [4]{}: entry 0x13-0xe13.7 (3585)
0x0010|         00 05                                 |   ..           |        key_index: 5 0x13-0x14.7 (2)
0x0110|         00 85                                 |   ..           |        value_index: 133 0x113-0x114.7 (2)
      |                                               |                |        key{}: 0x269-0x280.7 (24)
0x0260|                           5f                  |         _      |          type: "ascii_string" (5) (ASCII encoded string) 0x269-0x269.3 (0.4)
0x0260|                           5f                  |         _      |          size_bits: 15 0x269.4-0x269.7 (0.4)
0x0260|                              10               |          .     |          large_size_marker: 1 (valid) 0x26a-0x26a.3 (0.4)
0x0260|                              10               |          .     |          exponent: 0 0x26a.4-0x26a.7 (0.4)
0x0260|                                 15            |           .    |          size_bigint: 21 0x26b-0x26b.7 (1)
      |                                               |                |          size: 21
0x0260|                                    48 53 54 53|            HSTS|          value: "HSTS 10300623 Version" 0x26c-0x280.7 (21)
0x0270|20 31 30 33 30 30 36 32 33 20 56 65 72 73 69 6f| 10300623 Versio|
0x0280|6e                                             |n               |
      |                                               |                |        value{}: 0xe0f-0xe13.7 (5)
0x0e00|                                             12|               .|          type: "int" (1) (Integer) 0xe0f-0xe0f.3 (0.4)
0x0e00|                                             12|               .|          size: 4 0xe0f.4-0xe0f.7 (0.4)
0x0e10|05 06 c0 ea                                    |....            |          value: 84328682 0xe10-0xe13.7 (4)
      |                                               |                |      [5]{}: entry 0x15-0xe18.7 (3588)
0x0010|               00 06                           |     ..         |        key_index: 6 0x15-0x16.7 (2)
0x0110|               00 86                           |     ..         |        value_index: 134 0x115-0x116.7 (2)
      |                                               |                |        key{}: 0x281-0x298.7 (24)
0x0280|   5f                                          | _              |          type: "ascii_string" (5) (ASCII encoded string) 0x281-0x281.3 (0.4)
0x0280|   5f                                          | _              |          size_bits: 15 0x281.4-0x281.7 (0.4)
0x0280|      10                                       |  .             |          large_size_marker: 1 (valid) 0x282-0x282.3 (0.4)
0x0280|      10                                       |  .             |          exponent: 0 0x282.4-0x282.7 (0.4)
0x0280|         15                                    |   .            |          size_bigint: 21 0x283-0x283.7 (1)
      |                                               |                |          size: 21
0x0280|            48 53 54 53 20 36 30 36 39 38 35 30|    HSTS 6069850|          value: "HSTS 60698501 Version" 0x284-0x298.7 (21)
0x0290|31 20 56 65 72 73 69 6f 6e                     |1 Version       |
      |                                               |                |        value{}: 0xe14-0xe18.7 (5)
0x0e10|            12                                 |    .           |          type: "int" (1) (Integer) 0xe14-0xe14.3 (0.4)
0x0e10|            12                                 |    .           |          size: 4 0xe14.4-0xe14.7 (0.4)
0x0e10|               04 1c c3 80                     |     ....       |          value: 68993920 0xe15-0xe18.7 (4)
      |                                               |                |      [6]{}: entry 0x17-0xe1d.7 (3591)
0x0010|                     00 07                     |       ..       |        key_index: 7 0x17-0x18.7 (2)
0x0110|                     00 87                     |       ..       |        value_index: 135 0x117-0x118.7 (2)
      |                                               |                |        key{}: 0x299-0x2b0.7 (24)
0x0290|                           5f                  |         _      |          type: "ascii_string" (5) (ASCII encoded string) 0x299-0x299.3 (0.4)
0x0290|                           5f                  |         _      |          size_bits: 15 0x299.4-0x299.7 (0.4)
0x0290|                              10               |          .     |          large_size_marker: 1 (valid) 0x29a-0x29a.3 (0.4)
0x0290|                              10               |          .     |          exponent: 0 0x29a.4-0x29a.7 (0.4)
0x0290|                                 15            |           .    |          size_bigint: 21 0x29b-0x29b.7 (1)
      |                                               |                |          size: 21
0x0290|                                    48 53 54 53|            HSTS|          value: "HSTS 79072695 Version" 0x29c-0x2b0.7 (21)
0x02a0|20 37 39 30 37 32 36 39 35 20 56 65 72 73 69 6f| 79072695 Versio|
0x02b0|6e                                             |n               |
      |                                               |                |        value{}: 0xe19-0xe1d.7 (5)
0x0e10|                           12                  |         .      |          type: "int" (1) (Integer) 0xe19-0xe19.3 (0.4)
0x0e10|                           12                  |         .      |          size: 4 0xe19.4-0xe19.7 (0.4)
0x0e10|                              03 ae 0f a6      |          ....  |          value: 61738918 0xe1a-0xe1d.7 (4)
      |                                               |                |      [7]{}: entry 0x19-0xe22.7 (3594)
0x0010|                           00 08               |         ..     |        key_index: 8 0x19-0x1a.7 (2)
0x0110|                           00 88               |         ..     |        value_index: 136 0x119-0x11a.7 (2)
      |                                               |                |        key{}: 0x2b1-0x2c8.7 (24)
0x02b0|   5f                                          | _              |          type: "ascii_string" (5) (ASCII encoded string) 0x2b1-0x2b1.3 (0.4)
0x02b0|   5f                                          | _              |          size_bits: 15 0x2b1.4-0x2b1.7 (0.4)
0x02b0|      10                                       |  .             |          large_size_marker: 1 (valid) 0x2b2-0x2b2.3 (0.4)
0x02b0|      10                                       |  .             |          exponent: 0 0x2b2.4-0x2b2.7 (0.4)
0x02b0|         15                                    |   .            |          size_bigint: 21 0x2b3-0x2b3.7 (1)
      |                                               |                |          size: 21
0x02b0|            48 53 54 53 20 34 30 31 32 32 35 30|    HSTS 4012250|          value: "HSTS 40122508 Version" 0x2b4-0x2c8.7 (21)
0x02c0|38 20 56 65 72 73 69 6f 6e                     |8 Version       |
      |                                               |                |        value{}: 0xe1e-0xe22.7 (5)
0x0e10|                                          12   |              . |          type: "int" (1) (Integer) 0xe1e-0xe1e.3 (0.4)
0x0e10|                                          12   |              . |          size: 4 0xe1e.4-0xe1e.7 (0.4)
0x0e10|                                             00|               .|          value: 4993184 0xe1f-0xe22.7 (4)
0x0e20|4c 30 a0                                       |L0.             |
      |                                               |                |      [8]{}: entry 0x1b-0xe27.7 (3597)
0x0010|                                 00 09         |           ..   |        key_index: 9 0x1b-0x1c.7 (2)
0x0110|                                 00 89         |           ..   |        value_index: 137 0x11b-0x11c.7 (2)
      |                                               |                |        key{}: 0x2c9-0x2e0.7 (24)
0x02c0|                           5f                  |         _      |          type: "ascii_string" (5) (ASCII encoded string) 0x2c9-0x2c9.3 (0.4)
0x02c0|                           5f                  |         _      |          size_bits: 15 0x2c9.4-0x2c9.7 (0.4)
0x02c0|                              10               |          .     |          large_size_marker: 1 (valid) 0x2ca-0x2ca.3 (0.4)
0x02c0|                              10               |          .     |          exponent: 0 0x2ca.4-0x2ca.7 (0.4)
0x02c0|                                 15            |           .    |          size_bigint: 21 0x2cb-0x2cb.7 (1)
      |                                               |                |          size: 21
0x02c0|                                    48 53 54 53|            HSTS|          value: "HSTS 42086275 Version" 0x2cc-0x2e0.7 (21)
0x02d0|20 34 32 30 38 36 32 37 35 20 56 65 72 73 69 6f| 42086275 Versio|
0x02e0|6e                                             |n               |
      |                                               |                |        value{}: 0xe23-0xe27.7 (5)
0x0e20|         12                                    |   .            |          type: "int" (1) (Integer) 0xe23-0xe23.3 (0.4)
0x0e20|         12                                    |   .            |          size: 4 0xe23.4-0xe23.7 (0.4)
0x0e20|            04 66 76 a0                        |    .fv.        |          value: 73823904 0xe24-0xe27.7 (4)
      |                                               |                |      [9]{}: entry 0x1d-0xe2c.7 (3600)
0x0010|                                       00 0a   |             .. |        key_index: 10 0x1d-0x1e.7 (2)
0x0110|                                       00 8a   |             .. |        value_index: 138 0x11d-0x11e.7 (2)
      |                                               |                |        key{}: 0x2e1-0x2f8.7 (24)
0x02e0|   5f                                          | _              |          type: "ascii_string" (5) (ASCII encoded string) 0x2e1-0x2e1.3 (0.4)
0x02e0|   5f                                          | _              |          size_bits: 15 0x2e1.4-0x2e1.7 (0.4)
0x02e0|      10                                       |  .             |          large_size_marker: 1 (valid) 0x2e2-0x2e2.3 (0.4)
0x02e0|      10                                       |  .             |          exponent: 0 0x2e2.4-0x2e2.7 (0.4)
0x02e0|         15                                    |   .            |          size_bigint: 21 0x2e3-0x2e3.7 (1)
      |                                               |                |          size: 21
0x02e0|            48 53 54 53 20 35 30 36 39 31 39 34|    HSTS 5069194|          value: "HSTS 50691949 Version" 0x2e4-0x2f8.7 (21)
0x02f0|39 20 56 65 72 73 69 6f 6e                     |9 Version       |
      |                                               |                |        value{}: 0xe28-0xe2c.7 (5)
0x0e20|                        12                     |        .       |          type: "int" (1) (Integer) 0xe28-0xe28.3 (0.4)
0x0e20|                        12                     |        .       |          size: 4 0xe28.4-0xe28.7 (0.4)
0x0e20|                           03 0d fd 79         |         ...y   |          value: 51248505 0xe29-0xe2c.7 (4)
      |                                               |                |      [10]{}: entry 0x1f-0xe31.7 (3603)
0x0010|                                             00|               .|        key_index: 11 0x1f-0x20.7 (2)
0x0020|0b                                             |.               |
0x0110|                                             00|               .|        value_index: 139 0x11f-0x120.7 (2)
0x0120|8b                                             |.               |
      |                                               |                |        key{}: 0x2f9-0x310.7 (24)
0x02f0|                           5f                  |         _      |          type: "ascii_string" (5) (ASCII encoded string) 0x2f9-0x2f9.3 (0.4)
0x02f0|                           5f                  |         _      |          size_bits: 15 0x2f9.4-0x2f9.7 (0.4)
0x02f0|                              10               |          .     |          large_size_marker: 1 (valid) 0x2fa-0x2fa.3 (0.4)
0x02f0|                              10               |          .     |          exponent: 0 0x2fa.4-0x2fa.7 (0.4)
0x02f0|                                 15            |           .    |          size_bigint: 21 0x2fb-0x2fb.7 (1)
      |                                               |                |          size: 21
0x02f0|                                    48 53 54 53|            HSTS|          value: "HSTS 95450582 Version" 0x2fc-0x310.7 (21)
0x0300|20 39 35 34 35 30 35 38 32 20 56 65 72 73 69 6f| 95450582 Versio|
0x0310|6e                                             |n               |
      |                                               |                |        value{}: 0xe2d-0xe31.7 (5)
0x0e20|                                       12      |             .  |          type: "int" (1) (Integer) 0xe2d-0xe2d.3 (0.4)
0x0e20|                                       12      |             .  |          size: 4 0xe2d.4-0xe2d.7 (0.4)
0x0e20|                                          00 9b|              ..|          value: 10189575 0xe2e-0xe31.7 (4)
0x0e30|7b 07                                          |{.              |
      |                                               |                |      [11]{}: entry 0x21-0xe36.7 (3606)
0x0020|   00 0c                                       | ..             |        key_index: 12 0x21-0x22.7 (2)
0x0120|   00 8c                                       | ..             |        value_index: 140 0x121-0x122.7 (2)
      |                                               |                |        key{}: 0x311-0x328.7 (24)
0x0310|   5f                                          | _              |          type: "ascii_string" (5) (ASCII encoded string) 0x311-0x311.3 (0.4)
0x0310|   5f                                          | _              |          size_bits: 15 0x311.4-0x311.7 (0.4)
0x0310|      10                                       |  .             |          large_size_marker: 1 (valid) 0x312-0x312.3 (0.4)
0x0310|      10                                       |  .             |          exponent: 0 0x312.4-0x312.7 (0.4)
0x0310|         15                                    |   .            |          size_bigint: 21 0x313-0x313.7 (1)
      |                                               |                |          size: 21
0x0310|            48 53 54 53 20 34 37 37 32 38 38 37|    HSTS 4772887|          value: "HSTS 47728871 Version" 0x314-0x328.7 (21)
0x0320|31 20 56 65 72 73 69 6f 6e                     |1 Version       |
      |                                               |                |        value{}: 0xe32-0xe36.7 (5)
0x0e30|      12                                       |  .             |          type: "int" (1) (Integer) 0xe32-0xe32.3 (0.4)
0x0e30|      12                                       |  .             |          size: 4 0xe32.4-0xe32.7 (0.4)
0x0e30|         03 b4 51 44                           |   ..QD         |          value: 62148932 0xe33-0xe36.7 (4)
      |                                               |                |      [12]{}: entry 0x23-0xe3b.7 (3609)
0x0020|         00 0d                                 |   ..           |        key_index: 13 0x23-0x24.7 (2)
0x0120|         00 8d                                 |   ..           |        value_index: 141 0x123-0x124.7 (2)
      |                                               |                |        key{}: 0x329-0x340.7 (24)
0x0320|                           5f                  |         _      |          type: "ascii_string" (5) (ASCII encoded string) 0x329-0x329.3 (0.4)
0x0320|                           5f                  |         _      |          size_bits: 15 0x329.4-0x329.7 (0.4)
0x0320|                              10               |          .     |          large_size_marker: 1 (valid) 0x32a-0x32a.3 (0.4)
0x0320|                              10               |          .     |          exponent: 0 0x32a.4-0x32a.7 (0.4)
0x0320|                                 15            |           .    |          size_bigint: 21 0x32b-0x32b.7 (1)
      |                                               |                |          size: 21
0x0320|                                    48 53 54 53|            HSTS|          value: "HSTS 52322429 Version" 0x32c-0x340.7 (21)
0x0330|20 35 32 33 32 32 34 32 39 20 56 65 72 73 69 6f| 52322429 Versio|
0x0340|6e                                             |n               |
      |                                               |                |        value{}: 0xe37-0xe3b.7 (5)
0x0e30|                     12                        |       .        |          type: "int" (1) (Integer) 0xe37-0xe37.3 (0.4)
0x0e30|                     12                        |       .        |          size: 4 0xe37.4-0xe37.7 (0.4)
0x0e30|                        05 ee d7 e4            |        ....    |          value: 99538916 0xe38-0xe3b.7 (4)
      |                                               |                |      [13]{}: entry 0x25-0xe40.7 (3612)
0x0020|               00 0e                           |     ..         |        key_index: 14 0x25-0x26.7 (2)
0x0120|               00 8e                           |     ..         |        value_index: 142 0x125-0x126.7 (2)
      |                                               |                |        key{}: 0x341-0x358.7 (24)
0x0340|   5f                                          | _              |          type: "ascii_string" (5) (ASCII encoded string) 0x341-0x341.3 (0.4)
0x0340|   5f                                          | _              |          size_bits: 15 0x341.4-0x341.7 (0.4)
0x0340|      10                                       |  .             |          large_size_marker: 1 (valid) 0x342-0x342.3 (0.4)
0x0340|      10                                       |  .             |          exponent: 0 0x342.4-0x342.7 (0.4)
0x0340|         15                                    |   .            |          size_bigint: 21 0x343-0x343.7 (1)
      |                                               |                |          size: 21
0x0340|            48 53 54 53 20 36 30 39 31 38 39 38|    HSTS 6091898|          value: "HSTS 60918987 Version" 0x344-0x358.7 (21)
0x0350|37 20 56 65 72 73 69 6f 6e                     |7 Version       |
      |                                               |                |        value{}: 0xe3c-0xe40.7 (5)
0x0e30|                                    12         |            .   |          type: "int" (1) (Integer) 0xe3c-0xe3c.3 (0.4)
0x0e30|                                    12         |            .   |          size: 4 0xe3c.4-0xe3c.7 (0.4)
0x0e30|                                       03 0c 7b|             ..{|          value: 51149709 0xe3d-0xe40.7 (4)
0x0e40|8d                                             |.               |
      |                                               |                |      [14]{}: entry 0x27-0xe45.7 (3615)
0x0020|                     00 0f                     |       ..       |        key_index: 15 0x27-0x28.7 (2)
0x0120|                     00 8f                     |       ..       |        value_index: 143 0x127-0x128.7 (2)
      |                                               |                |        key{}: 0x359-0x36f.7 (23)
0x0350|                           5f                  |         _      |          type: "ascii_string" (5) (ASCII encoded string) 0x359-0x359.3 (0.4)
0x0350|                           5f                  |         _      |          size_bits: 15 0x359.4-0x359.7 (0.4)
0x0350|                              10               |          .     |          large_size_marker: 1 (valid) 0x35a-0x35a.3 (0.4)
0x0350|                              10               |          .     |          exponent: 0 0x35a.4-0x35a.7 (0.4)
0x0350|                                 14            |           .    |          size_bigint: 20 0x35b-0x35b.7 (1)
      |                                               |                |          size: 20
0x0350|                                    48 53 54 53|            HSTS|          value: "HSTS 7873426 Version" 0x35c-0x36f.7 (20)
0x0360|20 37 38 37 33 34 32 36 20 56 65 72 73 69 6f 6e| 7873426 Version|
      |                                               |                |        value{}: 0xe41-0xe45.7 (5)
0x0e40|   12                                          | .              |          type: "int" (1) (Integer) 0xe41-0xe41.3 (0.4)
0x0e40|   12                                          | .              |          size: 4 0xe41.4-0xe41.7 (0.4)
0x0e40|      02 1e 04 7d                              |  ...}          |          value: 35521661 0xe42-0xe45.7 (4)
      |                                               |                |      [15]{}: entry 0x29-0xe4a.7 (3618)
0x0020|                           00 10               |         ..     |        key_index: 16 0x29-0x2a.7 (2)
0x0120|                           00 90               |         ..     |        value_index: 144 0x129-0x12a.7 (2)
      |                                               |                |        key{}: 0x370-0x386.7 (23)
0x0370|5f                                             |_               |          type: "ascii_string" (5) (ASCII encoded string) 0x370-0x370.3 (0.4)
0x0370|5f                                             |_               |          size_bits: 15 0x370.4-0x370.7 (0.4)
0x0370|   10                                          | .              |          large_size_marker: 1 (valid) 0x371-0x371.3 (0.4)
0x0370|   10                                          | .              |          exponent: 0 0x371.4-0x371.7 (0.4)
0x0370|      14                                       |  .             |          size_bigint: 20 0x372-0x372.7 (1)
      |                                               |                |          size: 20
0x0370|         48 53 54 53 20 35 35 36 32 31 36 35 20|   HSTS 5562165 |          value: "HSTS 5562165 Version" 0x373-0x386.7 (20)
0x0380|56 65 72 73 69 6f 6e                           |Version         |
      |                                               |                |        value{}: 0xe46-0xe4a.7 (5)
0x0e40|                  12                           |      .         |          type: "int" (1) (Integer) 0xe46-0xe46.3 (0.4)
0x0e40|                  12                           |      .         |          size: 4 0xe46.4-0xe46.7 (0.4)
0x0e40|                     03 96 a9 8d               |       ....     |          value: 60205453 0xe47-0xe4a.7 (4)
      |                                               |                |      [16]{}: entry 0x2b-0xe4f.7 (3621)
0x0020|                                 00 11         |           ..   |        key_index: 17 0x2b-0x2c.7 (2)
0x0120|                                 00 91         |           ..   |        value_index: 145 0x12b-0x12c.7 (2)
      |                                               |                |        key{}: 0x387-0x39e.7 (24)
0x0380|                     5f                        |       _        |          type: "ascii_string" (5) (ASCII encoded string) 0x387-0x387.3 (0.4)
0x0380|                     5f                        |       _        |          size_bits: 15 0x387.4-0x387.7 (0.4)
0x0380|                        10                     |        .       |          large_size_marker: 1 (valid) 0x388-0x388.3 (0.4)
0x0380|                        10                     |        .       |          exponent: 0 0x388.4-0x388.7 (0.4)
0x0380|                           15                  |         .      |          size_bigint: 21 0x389-0x389.7 (1)
      |                                               |                |          size: 21
0x0380|                              48 53 54 53 20 36|          HSTS 6|          value: "HSTS 63341561 Version" 0x38a-0x39e.7 (21)
0x0390|33 33 34 31 35 36 31 20 56 65 72 73 69 6f 6e   |3341561 Version |
      |                                               |                |        value{}: 0xe4b-0xe4f.7 (5)
0x0e40|                                 12            |           .    |          type: "int" (1) (Integer) 0xe4b-0xe4b.3 (0.4)
0x0e40|                                 12            |           .    |          size: 4 0xe4b.4-0xe4b.7 (0.4)
0x0e40|                                    00 94 83 44|            ...D|          value: 9732932 0xe4c-0xe4f.7 (4)
      |                                               |                |      [17]{}: entry 0x2d-0xe54.7 (3624)
0x0020|                                       00 12   |             .. |        key_index: 18 0x2d-0x2e.7 (2)
0x0120|                                       00 92   |             .. |        value_index: 146 0x12d-0x12e.7 (2)
      |                                               |                |        key{}: 0x39f-0x3b6.7 (24)
0x0390|                                             5f|               _|          type: "ascii_string" (5) (ASCII encoded string) 0x39f-0x39f.3 (0.4)
0x0390|                                             5f|               _|          size_bits: 15 0x39f.4-0x39f.7 (0.4)
0x03a0|10                                             |.               |          large_size_marker: 1 (valid) 0x3a0-0x3a0.3 (0.4)
0x03a0|10                                             |.               |          exponent: 0 0x3a0.4-0x3a0.7 (0.4)
0x03a0|   15                                          | .              |          size_bigint: 21 0x3a1-0x3a1.7 (1)
      |                                               |                |          size: 21
0x03a0|      48 53 54 53 20 32 36 30 30 34 30 36 39 20|  HSTS 26004069 |          value: "HSTS 26004069 Version" 0x3a2-0x3b6.7 (21)
0x03b0|56 65 72 73 69 6f 6e                           |Version         |
      |                                               |                |        value{}: 0xe50-0xe54.7 (5)
0x0e50|12                                             |.               |          type: "int" (1) (Integer) 0xe50-0xe50.3 (0.4)
0x0e50|12                                             |.               |          size: 4 0xe50.4-0xe50.7 (0.4)
0x0e50|   05 ca 49 80                                 | ..I.           |          value: 97143168 0xe51-0xe54.7 (4)
      |                                               |                |      [18]{}: entry 0x2f-0xe59.7 (3627)
0x0020|                                             00|               .|        key_index: 19 0x2f-0x30.7 (2)
0x0030|13                                             |.               |
0x0120|                                             00|               .|        value_index: 147 0x12f-0x130.7 (2)
0x0130|93                                             |.               |
      |                                               |                |        key{}: 0x3b7-0x3ce.7 (24)
0x03b0|                     5f                        |       _        |          type: "ascii_string" (5) (ASCII encoded string) 0x3b7-0x3b7.3 (0.4)
0x03b0|                     5f                        |       _        |          size_bits: 15 0x3b7.4-0x3b7.7 (0.4)
0x03b0|                        10                     |        .       |          large_size_marker: 1 (valid) 0x3b8-0x3b8.3 (0.4)
0x03b0|                        10                     |        .       |          exponent: 0 0x3b8.4-0x3b8.7 (0.4)
0x03b0|                           15                  |         .      |          size_bigint: 21 0x3b9-0x3b9.7 (1)
      |                                               |                |          size: 21
0x03b0|                              48 53 54 53 20 34|          HSTS 4|          value: "HSTS 41359354 Version" 0x3ba-0x3ce.7 (21)
0x03c0|31 33 35 39 33 35 34 20 56 65 72 73 69 6f 6e   |1359354 Version |
      |                                               |                |        value{}: 0xe55-0xe59.7 (5)
0x0e50|               12                              |     .          |          type: "int" (1) (Integer) 0xe55-0xe55.3 (0.4)
0x0e50|               12                              |     .          |          size: 4 0xe55.4-0xe55.7 (0.4)
0x0e50|                  02 22 d9 d6                  |      ."..      |          value: 35838422 0xe56-0xe59.7 (4)
      |                                               |                |      [19]{}: entry 0x31-0xe5e.7 (3630)
0x0030|   00 14                                       | ..             |        key_index: 20 0x31-0x32.7 (2)
0x0130|   00 94                                       | ..             |        value_index: 148 0x131-0x132.7 (2)
      |                                               |                |        key{}: 0x3cf-0x3e4.7 (22)
0x03c0|                                             5f|               _|          type: "ascii_string" (5) (ASCII encoded string) 0x3cf-0x3cf.3 (0.4)
0x03c0|                                             5f|               _|          size_bits: 15 0x3cf.4-0x3cf.7 (0.4)
0x03d0|10                                             |.               |          large_size_marker: 1 (valid) 0x3d0-0x3d0.3 (0.4)
0x03d0|10                                             |.               |          exponent: 0 0x3d0.4-0x3d0.7 (0.4)
0x03d0|   13                                          | .              |          size_bigint: 19 0x3d1-0x3d1.7 (1)
      |                                               |                |          size: 19
0x03d0|      48 53 54 53 20 38 39 36 30 38 30 20 56 65|  HSTS 896080 Ve|          value: "HSTS 896080 Version" 0x3d2-0x3e4.7 (19)
0x03e0|72 73 69 6f 6e                                 |rsion           |
      |                                               |                |        value{}: 0xe5a-0xe5e.7 (5)
0x0e50|                              12               |          .     |          type: "int" (1) (Integer) 0xe5a-0xe5a.3 (0.4)
0x0e50|                              12               |          .     |          size: 4 0xe5a.4-0xe5a.7 (0.4)
0x0e50|                                 03 10 c8 50   |           ...P |          value: 51431504 0xe5b-0xe5e.7 (4)
      |                                               |                |      [20]{}: entry 0x33-0xe63.7 (3633)
0x0030|         00 15                                 |   ..           |        key_index: 21 0x33-0x34.7 (2)
0x0130|         00 95                                 |   ..           |        value_index: 149 0x133-0x134.7 (2)
      |                                               |                |        key{}: 0x3e5-0x3fa.7 (22)
0x03e0|               5f                              |     _          |          type: "ascii_string" (5) (ASCII encoded string) 0x3e5-0x3e5.3 (0.4)
0x03e0|               5f                              |     _          |          size_bits: 15 0x3e5.4-0x3e5.7 (0.4)
0x03e0|                  10                           |      .         |          large_size_marker: 1 (valid) 0x3e6-0x3e6.3 (0.4)
0x03e0|                  10                           |      .         |          exponent: 0 0x3e6.4-0x3e6.7 (0.4)
0x03e0|                     13                        |       .        |          size_bigint: 19 0x3e7-0x3e7.7 (1)
      |                                               |                |          size: 19
0x03e0|                        48 53 54 53 20 34 38 32|        HSTS 482|          value: "HSTS 482466 Version" 0x3e8-0x3fa.7 (19)
0x03f0|34 36 36 20 56 65 72 73 69 6f 6e               |466 Version     |
      |                                               |                |        value{}: 0xe5f-0xe63.7 (5)
0x0e50|                                             12|               .|          type: "int" (1) (Integer) 0xe5f-0xe5f.3 (0.4)
0x0e50|                                             12|               .|          size: 4 0xe5f.4-0xe5f.7 (0.4)
0x0e60|02 fa 6a 7c                                    |..j|            |          value: 49965692 0xe60-0xe63.7 (4)
      |                                               |                |      [21]{}: entry 0x35-0xe68.7 (3636)
0x0030|               00 16                           |     ..         |        key_index: 22 0x35-0x36.7 (2)
0x0130|               00 96                           |     ..         |        value_index: 150 0x135-0x136.7 (2)
      |                                               |                |        key{}: 0x3fb-0x412.7 (24)
0x03f0|                                 5f            |           _    |          type: "ascii_string" (5) (ASCII encoded string) 0x3fb-0x3fb.3 (0.4)
0x03f0|                                 5f            |           _    |          size_bits: 15 0x3fb.4-0x3fb.7 (0.4)
0x03f0|                                    10         |            .   |          large_size_marker: 1 (valid) 0x3fc-0x3fc.3 (0.4)
0x03f0|                                    10         |            .   |          exponent: 0 0x3fc.4-0x3fc.7 (0.4)
0x03f0|                                       15      |             .  |          size_bigint: 21 0x3fd-0x3fd.7 (1)
      |                                               |                |          size: 21
0x03f0|                                          48 53|              HS|          value: "HSTS 41241648 Version" 0x3fe-0x412.7 (21)
0x0400|54 53 20 34 31 32 34 31 36 34 38 20 56 65 72 73|TS 41241648 Vers|
0x0410|69 6f 6e                                       |ion             |
      |                                               |                |        value{}: 0xe64-0xe68.7 (5)
0x0e60|            12                                 |    .           |          type: "int" (1) (Integer) 0xe64-0xe64.3 (0.4)
0x0e60|            12                                 |    .           |          size: 4 0xe64.4-0xe64.7 (0.4)
0x0e60|               03 65 53 51                     |     .eSQ       |          value: 56972113 0xe65-0xe68.7 (4)
      |                                               |                |      [22]{}: entry 0x37-0xe6d.7 (3639)
0x0030|                     00 17                     |       ..       |        key_index: 23 0x37-0x38.7 (2)
0x0130|                     00 97                     |       ..       |        value_index: 151 0x137-0x138.7 (2)
      |                                               |                |        key{}: 0x413-0x42a.7 (24)
0x0410|         5f                                    |   _            |          type: "ascii_string" (5) (ASCII encoded string) 0x413-0x413.3 (0.4)
0x0410|         5f                                    |   _            |          size_bits: 15 0x413.4-0x413.7 (0.4)
0x0410|            10                                 |    .           |          large_size_marker: 1 (valid) 0x414-0x414.3 (0.4)
0x0410|            10                                 |    .           |          exponent: 0 0x414.4-0x414.7 (0.4)
0x0410|               15                              |     .          |          size_bigint: 21 0x415-0x415.7 (1)
      |                                               |                |          size: 21
0x0410|                  48 53 54 53 20 39 32 39 37 38|      HSTS 92978|          value: "HSTS 92978648 Version" 0x416-0x42a.7 (21)
0x0420|36 34 38 20 56 65 72 73 69 6f 6e               |648 Version     |
      |                                               |                |        value{}: 0xe69-0xe6d.7 (5)
0x0e60|                           12                  |         .      |          type: "int" (1) (Integer) 0xe69-0xe69.3 (0.4)
0x0e60|                           12                  |         .      |          size: 4 0xe69.4-0xe69.7 (0.4)
0x0e60|                              00 96 28 48      |          ..(H  |          value: 9840712 0xe6a-0xe6d.7 (4)
      |                                               |                |      [23]{}: entry 0x39-0xe72.7 (3642)
0x0030|                           00 18               |         ..     |        key_index: 24 0x39-0x3a.7 (2)
0x0130|                           00 98               |         ..     |        value_index: 152 0x139-0x13a.7 (2)
      |                                               |                |        key{}: 0x42b-0x442.7 (24)
0x0420|                                 5f            |           _    |          type: "ascii_string" (5) (ASCII encoded string) 0x42b-0x42b.3 (0.4)
0x0420|                                 5f            |           _    |          size_bits: 15 0x42b.4-0x42b.7 (0.4)
0x0420|                                    10         |            .   |          large_size_marker: 1 (valid) 0x42c-0x42c.3 (0.4)
0x0420|                                    10         |            .   |          exponent: 0 0x42c.4-0x42c.7 (0.4)
0x0420|                                       15      |             .  |          size_bigint: 21 0x42d-0x42d.7 (1)
      |                                               |                |          size: 21
0x0420|                                          48 53|              HS|          value: "HSTS 82485082 Version" 0x42e-0x442.7 (21)
0x0430|54 53 20 38 32 34 38 35 30 38 32 20 56 65 72 73|TS 82485082 Vers|
0x0440|69 6f 6e                                       |ion             |
      |                                               |                |        value{}: 0xe6e-0xe72.7 (5)
0x0e60|                                          12   |              . |          type: "int" (1) (Integer) 0xe6e-0xe6e.3 (0.4)
0x0e60|                                          12   |              . |          size: 4 0xe6e.4-0xe6e.7 (0.4)
0x0e60|                                             04|               .|          value: 79566403 0xe6f-0xe72.7 (4)
0x0e70|be 16 43                                       |..C             |
      |                                               |                |      [24]{}: entry 0x3b-0xe77.7 (3645)
0x0030|                                 00 19         |           ..   |        key_index: 25 0x3b-0x3c.7 (2)
0x0130|                                 00 99         |           ..   |        value_index: 153 0x13b-0x13c.7 (2)
      |                                               |                |        key{}: 0x443-0x45a.7 (24)
0x0440|         5f                                    |   _            |          type: "ascii_string" (5) (ASCII encoded string) 0x443-0x443.3 (0.4)
0x0440|         5f                                    |   _            |          size_bits: 15 0x443.4-0x443.7 (0.4)
0x0440|            10                                 |    .           |          large_size_marker: 1 (valid) 0x444-0x444.3 (0.4)
0x0440|            10                                 |    .           |          exponent: 0 0x444.4-0x444.7 (0.4)
0x0440|               15                              |     .          |          size_bigint: 21 0x445-0x445.7 (1)
      |                                               |                |          size: 21
0x0440|                  48 53 54 53 20 39 39 31 35 36|      HSTS 99156|          value: "HSTS 99156702 Version" 0x446-0x45a.7 (21)
0x0450|37 30 32 20 56 65 72 73 69 6f 6e               |702 Version     |
      |                                               |                |        value{}: 0xe73-0xe77.7 (5)
0x0e70|         12                                    |   .            |          type: "int" (1) (Integer) 0xe73-0xe73.3 (0.4)
0x0e70|         12                                    |   .            |          size: 4 0xe73.4-0xe73.7 (0.4)
0x0e70|            03 5c fa a9                        |    .\..        |          value: 56425129 0xe74-0xe77.7 (4)
      |                                               |                |      [25]{}: entry 0x3d-0xe7c.7 (3648)
0x0030|                                       00 1a   |             .. |        key_index: 26 0x3d-0x3e.7 (2)
0x0130|                                       00 9a   |             .. |        value_index: 154 0x13d-0x13e.7 (2)
      |                                               |                |        key{}: 0x45b-0x472.7 (24)
0x0450|                                 5f            |           _    |          type: "ascii_string" (5) (ASCII encoded string) 0x45b-0x45b.3 (0.4)
0x0450|                                 5f            |           _    |          size_bits: 15 0x45b.4-0x45b.7 (0.4)
0x0450|                                    10         |            .   |          large_size_marker: 1 (valid) 0x45c-0x45c.3 (0.4)
0x0450|                                    10         |            .   |          exponent: 0 0x45c.4-0x45c.7 (0.4)
0x0450|                                       15      |             .  |          size_bigint: 21 0x45d-0x45d.7 (1)
      |                                               |                |          size: 21
0x0450|                                          48 53|              HS|          value: "HSTS 45650036 Version" 0x45e-0x472.7 (21)
0x0460|54 53 20 34 35 36 35 30 30 33 36 20 56 65 72 73|TS 45650036 Vers|
0x0470|69 6f 6e                                       |ion             |
      |                                               |                |        value{}: 0xe78-0xe7c.7 (5)
0x0e70|                        12                     |        .       |          type: "int" (1) (Integer) 0xe78-0xe78.3 (0.4)
0x0e70|                        12                     |        .       |          size: 4 0xe78.4-0xe78.7 (0.4)
0x0e70|                           03 b0 4f ed         |         ..O.   |          value: 61886445 0xe79-0xe7c.7 (4)
      |                                               |                |      [26]{}: entry 0x3f-0xe81.7 (3651)
0x0030|                                             00|               .|        key_index: 27 0x3f-0x40.7 (2)
0x0040|1b                                             |.               |
0x0130|                                             00|               .|        value_index: 155 0x13f-0x140.7 (2)
0x0140|9b                                             |.               |
      |                                               |                |        key{}: 0x473-0x48a.7 (24)
0x0470|         5f                                    |   _            |          type: "ascii_string" (5) (ASCII encoded string) 0x473-0x473.3 (0.4)
0x0470|         5f                                    |   _            |          size_bits: 15 0x473.4-0x473.7 (0.4)
0x0470|            10                                 |    .           |          large_size_marker: 1 (valid) 0x474-0x474.3 (0.4)
0x0470|            10                                 |    .           |          exponent: 0 0x474.4-0x474.7 (0.4)
0x0470|               15                              |     .          |          size_bigint: 21 0x475-0x475.7 (1)
      |                                               |                |          size: 21
0x0470|                  48 53 54 53 20 35 32 36 35 31|      HSTS 52651|          value: "HSTS 52651443 Version" 0x476-0x48a.7 (21)
0x0480|34 34 33 20 56 65 72 73 69 6f 6e               |443 Version     |
      |                                               |                |        value{}: 0xe7d-0xe81.7 (5)
0x0e70|                                       12      |             .  |          type: "int" (1) (Integer) 0xe7d-0xe7d.3 (0.4)
0x0e70|                                       12      |             .  |          size: 4 0xe7d.4-0xe7d.7 (0.4)
0x0e70|                                          05 08|              ..|          value: 84421189 0xe7e-0xe81.7 (4)
0x0e80|2a 45                                          |*E              |
      |                                               |                |      [27]{}: entry 0x41-0xe86.7 (3654)
0x0040|   00 1c                                       | ..             |        key_index: 28 0x41-0x42.7 (2)
0x0140|   00 9c                                       | ..             |        value_index: 156 0x141-0x142.7 (2)
      |                                               |                |        key{}: 0x48b-0x4a2.7 (24)
0x0480|                                 5f            |           _    |          type: "ascii_string" (5) (ASCII encoded string) 0x48b-0x48b.3 (0.4)
0x0480|                                 5f            |           _    |          size_bits: 15 0x48b.4-0x48b.7 (0.4)
0x0480|                                    10         |            .   |          large_size_marker: 1 (valid) 0x48c-0x48c.3 (0.4)
0x0480|                                    10         |            .   |          exponent: 0 0x48c.4-0x48c.7 (0.4)
0x0480|                                       15      |             .  |          size_bigint: 21 0x48d-0x48d.7 (1)
      |                                               |                |          size: 21
0x0480|                                          48 53|              HS|          value: "HSTS 22026076 Version" 0x48e-0x4a2.7 (21)
0x0490|54 53 20 32 32 30 32 36 30 37 36 20 56 65 72 73|TS 22026076 Vers|
0x04a0|69 6f 6e                                       |ion             |
      |                                               |                |        value{}: 0xe82-0xe86.7 (5)
0x0e80|      12                                       |  .             |          type: "int" (1) (Integer) 0xe82-0xe82.3 (0.4)
0x0e80|      12                                       |  .             |          size: 4 0xe82.4-0xe82.7 (0.4)
0x0e80|         02 8c 2c 12                           |   ..,.         |          value: 42740754 0xe83-0xe86.7 (4)
      |                                               |                |      [28]{}: entry 0x43-0xe8b.7 (3657)
0x0040|         00 1d                                 |   ..           |        key_index: 29 0x43-0x44.7 (2)
0x0140|         00 9d                                 |   ..           |        value_index: 157 0x143-0x144.7 (2)
      |                                               |                |        key{}: 0x4a3-0x4ba.7 (24)
0x04a0|         5f                                    |   _            |          type: "ascii_string" (5) (ASCII encoded string) 0x4a3-0x4a3.3 (0.4)
0x04a0|         5f                                    |   _            |          size_bits: 15 0x4a3.4-0x4a3.7 (0.4)
0x04a0|            10                                 |    .           |          large_size_marker: 1 (valid) 0x4a4-0x4a4.3 (0.4)
0x04a0|            10                                 |    .           |          exponent: 0 0x4a4.4-0x4a4.7 (0.4)
0x04a0|               15                              |     .          |          size_bigint: 21 0x4a5-0x4a5.7 (1)
      |                                               |                |          size: 21
0x04a0|                  48 53 54 53 20 33 35 32 39 35|      HSTS 35295|          value: "HSTS 35295787 Version" 0x4a6-0x4ba.7 (21)
0x04b0|37 38 37 20 56 65 72 73 69 6f 6e               |787 Version     |
      |                                               |                |        value{}: 0xe87-0xe8b.7 (5)
0x0e80|                     12                        |       .        |          type: "int" (1) (Integer) 0xe87-0xe87.3 (0.4)
0x0e80|                     12                        |       .        |          size: 4 0xe87.4-0xe87.7 (0.4)
0x0e80|                        05 71 d2 a8            |        .q..    |          value: 91345576 0xe88-0xe8b.7 (4)
      |                                               |                |      [29]{}: entry 0x45-0xe90.7 (3660)
0x0040|               00 1e                           |     ..         |        key_index: 30 0x45-0x46.7 (2)
0x0140|               00 9e                           |     ..         |        value_index: 158 0x145-0x146.7 (2)
      |                                               |                |        key{}: 0x4bb-0x4d2.7 (24)
0x04b0|                                 5f            |           _    |          type: "ascii_string" (5) (ASCII encoded string) 0x4bb-0x4bb.3 (0.4)
0x04b0|                                 5f            |           _    |          size_bits: 15 0x4bb.4-0x4bb.7 (0.4)
0x04b0|                                    10         |            .   |          large_size_marker: 1 (valid) 0x4bc-0x4bc.3 (0.4)
0x04b0|                                    10         |            .   |          exponent: 0 0x4bc.4-0x4bc.7 (0.4)
0x04b0|                                       15      |             .  |          size_bigint: 21 0x4bd-0x4bd.7 (1)
      |                                               |                |          size: 21
0x04b0|                                          48 53|              HS|          value: "HSTS 72441178 Version" 0x4be-0x4d2.7 (21)
0x04c0|54 53 20 37 32 34 34 31 31 37 38 20 56 65 72 73|TS 72441178 Vers|
0x04d0|69 6f 6e                                       |ion             |
      |                                               |                |        value{}: 0xe8c-0xe90.7 (5)
0x0e80|                                    12         |            .   |          type: "int" (1) (Integer) 0xe8c-0xe8c.3 (0.4)
0x0e80|                                    12         |            .   |          size: 4 0xe8c.4-0xe8c.7 (0.4)
0x0e80|                                       00 b1 19|             ...|          value: 11606317 0xe8d-0xe90.7 (4)
0x0e90|2d                                             |-               |
      |                                               |                |      [30]{}: entry 0x47-0xe95.7 (3663)
0x0040|                     00 1f                     |       ..       |        key_index: 31 0x47-0x48.7 (2)
0x0140|                     00 9f                     |       ..       |        value_index: 159 0x147-0x148.7 (2)
      |                                               |                |        key{}: 0x4d3-0x4ea.7 (24)
0x04d0|         5f                                    |   _            |          type: "ascii_string" (5) (ASCII encoded string) 0x4d3-0x4d3.3 (0.4)
0x04d0|         5f                                    |   _            |          size_bits: 15 0x4d3.4-0x4d3.7 (0.4)
0x04d0|            10                                 |    .           |          large_size_marker: 1 (valid) 0x4d4-0x4d4.3 (0.4)
0x04d0|            10                                 |    .           |          exponent: 0 0x4d4.4-0x4d4.7 (0.4)
0x04d0|               15                              |     .          |          size_bigint: 21 0x4d5-0x4d5.7 (1)
      |                                               |                |          size: 21
0x04d0|                  48 53 54 53 20 34 30 35 37 37|      HSTS 40577|          value: "HSTS 40577218 Version" 0x4d6-0x4ea.7 (21)
0x04e0|32 31 38 20 56 65 72 73 69 6f 6e               |218 Version     |
      |                                               |                |        value{}: 0xe91-0xe95.7 (5)
0x0e90|   12                                          | .              |          type: "int" (1) (Integer) 0xe91-0xe91.3 (0.4)
0x0e90|   12                                          | .              |          size: 4 0xe91.4-0xe91.7 (0.4)
0x0e90|      02 bd 34 5d                              |  ..4]          |          value: 45954141 0xe92-0xe95.7 (4)
      |                                               |                |      [31]{}: entry 0x49-0xe9a.7 (3666)
0x0040|                           00 20               |         .      |        key_index: 32 0x49-0x4a.7 (2)
0x0140|                           00 a0               |         ..     |        value_index: 160 0x149-0x14a.7 (2)
      |                                               |                |        key{}: 0x4eb-0x502.7 (24)
0x04e0|                                 5f            |           _    |          type: "ascii_string" (5) (ASCII encoded string) 0x4eb-0x4eb.3 (0.4)
0x04e0|                                 5f            |           _    |          size_bits: 15 0x4eb.4-0x4eb.7 (0.4)
0x04e0|                                    10         |            .   |          large_size_marker: 1 (valid) 0x4ec-0x4ec.3 (0.4)
0x04e0|                                    10         |            .   |          exponent: 0 0x4ec.4-0x4ec.7 (0.4)
0x04e0|                                       15      |             .  |          size_bigint: 21 0x4ed-0x4ed.7 (1)
      |                                               |                |          size: 21
0x04e0|                                          48 53|              HS|          value: "HSTS 90566589 Version" 0x4ee-0x502.7 (21)
0x04f0|54 53 20 39 30 35 36 36 35 38 39 20 56 65 72 73|TS 90566589 Vers|
0x0500|69 6f 6e                                       |ion             |
      |                                               |                |        value{}: 0xe96-0xe9a.7 (5)
0x0e90|                  12                           |      .         |          type: "int" (1) (Integer) 0xe96-0xe96.3 (0.4)
0x0e90|                  12                           |      .         |          size: 4 0xe96.4-0xe96.7 (0.4)
0x0e90|                     02 19 54 78               |       ..Tx     |          value: 35214456 0xe97-0xe9a.7 (4)
      |                                               |                |      [32]{}: entry 0x4b-0xe9f.7 (3669)
0x0040|                                 00 21         |           .!   |        key_index: 33 0x4b-0x4c.7 (2)
0x0140|                                 00 a1         |           ..   |        value_index: 161 0x14b-0x14c.7 (2)
      |                                               |                |        key{}: 0x503-0x51a.7 (24)
0x0500|         5f                                    |   _            |          type: "ascii_string" (5) (ASCII encoded string) 0x503-0x503.3 (0.4)
0x0500|         5f                                    |   _            |          size_bits: 15 0x503.4-0x503.7 (0.4)
0x0500|            10                                 |    .           |          large_size_marker: 1 (valid) 0x504-0x504.3 (0.4)
0x0500|            10                                 |    .           |          exponent: 0 0x504.4-0x504.7 (0.4)
0x0500|               15                              |     .          |          size_bigint: 21 0x505-0x505.7 (1)
      |                                               |                |          size: 21
0x0500|                  48 53 54 53 20 32 31 32 36 38|      HSTS 21268|          value: "HSTS 21268233 Version" 0x506-0x51a.7 (21)
0x0510|32 33 33 20 56 65 72 73 69 6f 6e               |233 Version     |
      |                                               |                |        value{}: 0xe9b-0xe9f.7 (5)
0x0e90|                                 12            |           .    |          type: "int" (1) (Integer) 0xe9b-0xe9b.3 (0.4)
0x0e90|                                 12            |           .    |          size: 4 0xe9b.4-0xe9b.7 (0.4)
0x0e90|                                    05 22 cc 9f|            ."..|          value: 86166687 0xe9c-0xe9f.7 (4)
      |                                               |                |      [33]{}: entry 0x4d-0xea4.7 (3672)
0x0040|                                       00 22   |             ." |        key_index: 34 0x4d-0x4e.7 (2)
0x0140|                                       00 a2   |             .. |        value_index: 162 0x14d-0x14e.7 (2)
      |                                               |                |        key{}: 0x51b-0x532.7 (24)
0x0510|                                 5f            |           _    |          type: "ascii_string" (5) (ASCII encoded string) 0x51b-0x51b.3 (0.4)
0x0510|                                 5f            |           _    |          size_bits: 15 0x51b.4-0x51b.7 (0.4)
0x0510|                                    10         |            .   |          large_size_marker: 1 (valid) 0x51c-0x51c.3 (0.4)
0x0510|                                    10         |            .   |          exponent: 0 0x51c.4-0x51c.7 (0.4)
0x0510|                                       15      |             .  |          size_bigint: 21 0x51d-0x51d.7 (1)
      |                                               |                |          size: 21
0x0510|                                          48 53|              HS|          value: "HSTS 21342473 Version" 0x51e-0x532.7 (21)
0x0520|54 53 20 32 31 33 34 32 34 37 33 20 56 65 72 73|TS 21342473 Vers|
0x0530|69 6f 6e                                       |ion             |
      |                                               |                |        value{}: 0xea0-0xea4.7 (5)
0x0ea0|12                                             |.               |          type: "int" (1) (Integer) 0xea0-0xea0.3 (0.4)
0x0ea0|12                                             |.               |          size: 4 0xea0.4-0xea0.7 (0.4)
0x0ea0|   02 5a 75 90                                 | .Zu.           |          value: 39482768 0xea1-0xea4.7 (4)
      |                                               |                |      [34]{}: entry 0x4f-0xea9.7 (3675)
0x0040|                                             00|               .|        key_index: 35 0x4f-0x50.7 (2)
0x0050|23                                             |#               |
0x0140|                                             00|               .|        value_index: 163 0x14f-0x150.7 (2)
0x0150|a3                                             |.               |
      |                                               |                |        key{}: 0x533-0x54a.7 (24)
0x0530|         5f                                    |   _            |          type: "ascii_string" (5) (ASCII encoded string) 0x533-0x533.3 (0.4)
0x0530|         5f                                    |   _            |          size_bits: 15 0x533.4-0x533.7 (0.4)
0x0530|            10                                 |    .           |          large_size_marker: 1 (valid) 0x534-0x534.3 (0.4)
0x0530|            10                                 |    .           |          exponent: 0 0x534.4-0x534.7 (0.4)
0x0530|               15                              |     .          |          size_bigint: 21 0x535-0x535.7 (1)
      |                                               |                |          size: 21
0x0530|                  48 53 54 53 20 36 39 34 33 33|      HSTS 69433|          value: "HSTS 69433020 Version" 0x536-0x54a.7 (21)
0x0540|30 32 30 20 56 65 72 73 69 6f 6e               |020 Version     |
      |                                               |                |        value{}: 0xea5-0xea9.7 (5)
0x0ea0|               12                              |     .          |          type: "int" (1) (Integer) 0xea5-0xea5.3 (0.4)
0x0ea0|               12                              |     .          |          size: 4 0xea5.4-0xea5.7 (0.4)
0x0ea0|                  00 57 df 30                  |      .W.0      |          value: 5758768 0xea6-0xea9.7 (4)
      |                                               |                |      [35]{}: entry 0x51-0xeae.7 (3678)
0x0050|   00 24                                       | .$             |        key_index: 36 0x51-0x52.7 (2)
0x0150|   00 a4                                       | ..             |        value_index: 164 0x151-0x152.7 (2)
      |                                               |                |        key{}: 0x54b-0x562.7 (24)
0x0540|                                 5f            |           _    |          type: "ascii_string" (5) (ASCII encoded string) 0x54b-0x54b.3 (0.4)
0x0540|                                 5f            |           _    |          size_bits: 15 0x54b.4-0x54b.7 (0.4)
0x0540|                                    10         |            .   |          large_size_marker: 1 (valid) 0x54c-0x54c.3 (0.4)
0x0540|                                    10         |            .   |          exponent: 0 0x54c.4-0x54c.7 (0.4)
0x0540|                                       15      |             .  |          size_bigint: 21 0x54d-0x54d.7 (1)
      |                                               |                |          size: 21
0x0540|                                          48 53|              HS|          value: "HSTS 79923975 Version" 0x54e-0x562.7 (21)
0x0550|54 53 20 37 39 39 32 33 39 37 35 20 56 65 72 73|TS 79923975 Vers|
0x0560|69 6f 6e                                       |ion             |
      |                                               |                |        value{}: 0xeaa-0xeae.7 (5)
0x0ea0|                              12               |          .     |          type: "int" (1) (Integer) 0xeaa-0xeaa.3 (0.4)
0x0ea0|                              12               |          .     |          size: 4 0xeaa.4-0xeaa.7 (0.4)
0x0ea0|                                 03 91 d4 96   |           .... |          value: 59888790 0xeab-0xeae.7 (4)
      |                                               |                |      [36]{}: entry 0x53-0xeb3.7 (3681)
0x0050|         00 25                                 |   .%           |        key_index: 37 0x53-0x54.7 (2)
0x0150|         00 a5                                 |   ..           |        value_index: 165 0x153-0x154.7 (2)
      |                                               |                |        key{}: 0x563-0x57a.7 (24)
0x0560|         5f                                    |   _            |          type: "ascii_string" (5) (ASCII encoded string) 0x563-0x563.3 (0.4)
0x0560|         5f                                    |   _            |          size_bits: 15 0x563.4-0x563.7 (0.4)
0x0560|            10                                 |    .           |          large_size_marker: 1 (valid) 0x564-0x564.3 (0.4)
0x0560|            10                                 |    .           |          exponent: 0 0x564.4-0x564.7 (0.4)
0x0560|               15                              |     .          |          size_bigint: 21 0x565-0x565.7 (1)
      |                                               |                |          size: 21
0x0560|                  48 53 54 53 20 35 36 30 33 34|      HSTS 56034|          value: "HSTS 56034037 Version" 0x566-0x57a.7 (21)
0x0570|30 33 37 20 56 65 72 73 69 6f 6e               |037 Version     |
      |                                               |                |        value{}: 0xeaf-0xeb3.7 (5)
0x0ea0|                                             12|               .|          type: "int" (1) (Integer) 0xeaf-0xeaf.3 (0.4)
0x0ea0|                                             12|               .|          size: 4 0xeaf.4-0xeaf.7 (0.4)
0x0eb0|03 10 83 58                                    |...X            |          value: 51413848 0xeb0-0xeb3.7 (4)
      |                                               |                |      [37]{}: entry 0x55-0xeb8.7 (3684)
0x0050|               00 26                           |     .&         |        key_index: 38 0x55-0x56.7 (2)
0x0150|               00 a6                           |     ..         |        value_index: 166 0x155-0x156.7 (2)
      |                                               |                |        key{}: 0x57b-0x592.7 (24)
0x0570|                                 5f            |           _    |          type: "ascii_string" (5) (ASCII encoded string) 0x57b-0x57b.3 (0.4)
0x0570|                                 5f            |           _    |          size_bits: 15 0x57b.4-0x57b.7 (0.4)
0x0570|                                    10         |            .   |          large_size_marker: 1 (valid) 0x57c-0x57c.3 (0.4)
0x0570|                                    10         |            .   |          exponent: 0 0x57c.4-0x57c.7 (0.4)
0x0570|                                       15      |             .  |          size_bigint: 21 0x57d-0x57d.7 (1)
      |                                               |                |          size: 21
0x0570|                                          48 53|              HS|          value: "HSTS 36180446 Version" 0x57e-0x592.7 (21)
0x0580|54 53 20 33 36 31 38 30 34 34 36 20 56 65 72 73|TS 36180446 Vers|
0x0590|69 6f 6e                                       |ion             |
      |                                               |                |        value{}: 0xeb4-0xeb8.7 (5)
0x0eb0|            12                                 |    .           |          type: "int" (1) (Integer) 0xeb4-0xeb4.3 (0.4)
0x0eb0|            12                                 |    .           |          size: 4 0xeb4.4-0xeb4.7 (0.4)
0x0eb0|               04 3f 27 04                     |     .?'.       |          value: 71247620 0xeb5-0xeb8.7 (4)
      |                                               |                |      [38]{}: entry 0x57-0xebd.7 (3687)
0x0050|                     00 27                     |       .'       |        key_index: 39 0x57-0x58.7 (2)
0x0150|                     00 a7                     |       ..       |        value_index: 167 0x157-0x158.7 (2)
      |                                               |                |        key{}: 0x593-0x5aa.7 (24)
0x0590|         5f                                    |   _            |          type: "ascii_string" (5) (ASCII encoded string) 0x593-0x593.3 (0.4)
0x0590|         5f                                    |   _            |          size_bits: 15 0x593.4-0x593.7 (0.4)
0x0590|            10                                 |    .           |          large_size_marker: 1 (valid) 0x594-0x594.3 (0.4)
0x0590|            10                                 |    .           |          exponent: 0 0x594.4-0x594.7 (0.4)
0x0590|               15                              |     .          |          size_bigint: 21 0x595-0x595.7 (1)
      |                                               |                |          size: 21
0x0590|                  48 53 54 53 20 36 31 35 33 39|      HSTS 61539|          value: "HSTS 61539663 Version" 0x596-0x5aa.7 (21)
0x05a0|36 36 33 20 56 65 72 73 69 6f 6e               |663 Version     |
      |                                               |                |        value{}: 0xeb9-0xebd.7 (5)
0x0eb0|                           12                  |         .      |          type: "int" (1) (Integer) 0xeb9-0xeb9.3 (0.4)
0x0eb0|                           12                  |         .      |          size: 4 0xeb9.4-0xeb9.7 (0.4)
0x0eb0|                              00 62 9c 80      |          .b..  |          value: 6462592 0xeba-0xebd.7 (4)
      |                                               |                |      [39]{}: entry 0x59-0xec2.7 (3690)
0x0050|                           00 28               |         .(     |        key_index: 40 0x59-0x5a.7 (2)
0x0150|                           00 a8               |         ..     |        value_index: 168 0x159-0x15a.7 (2)
      |                                               |                |        key{}: 0x5ab-0x5c2.7 (24)
0x05a0|                                 5f            |           _    |          type: "ascii_string" (5) (ASCII encoded string) 0x5ab-0x5ab.3 (0.4)
0x05a0|                                 5f            |           _    |          size_bits: 15 0x5ab.4-0x5ab.7 (0.4)
0x05a0|                                    10         |            .   |          large_size_marker: 1 (valid) 0x5ac-0x5ac.3 (0.4)
0x05a0|                                    10         |            .   |          exponent: 0 0x5ac.4-0x5ac.7 (0.4)
0x05a0|                                       15      |             .  |          size_bigint: 21 0x5ad-0x5ad.7 (1)
      |                                               |                |          size: 21
0x05a0|                                          48 53|              HS|          value: "HSTS 58956726 Version" 0x5ae-0x5c2.7 (21)
0x05b0|54 53 20 35 38 39 35 36 37 32 36 20 56 65 72 73|TS 58956726 Vers|
0x05c0|69 6f 6e                                       |ion             |
      |                                               |                |        value{}: 0xebe-0xec2.7 (5)
0x0eb0|                                          12   |              . |          type: "int" (1) (Integer) 0xebe-0xebe.3 (0.4)
0x0eb0|                                          12   |              . |          size: 4 0xebe.4-0xebe.7 (0.4)
0x0eb0|                                             03|               .|          value: 62746941 0xebf-0xec2.7 (4)
0x0ec0|bd 71 3d                                       |.q=             |
      |                                               |                |      [40]{}: entry 0x5b-0xec7.7 (3693)
0x0050|                                 00 29         |           .)   |        key_index: 41 0x5b-0x5c.7 (2)
0x0150|                                 00 a9         |           ..   |        value_index: 169 0x15b-0x15c.7 (2)
      |                                               |                |        key{}: 0x5c3-0x5da.7 (24)
0x05c0|         5f                                    |   _            |          type: "ascii_string" (5) (ASCII encoded string) 0x5c3-0x5c3.3 (0.4)
0x05c0|         5f                                    |   _            |          size_bits: 15 0x5c3.4-0x5c3.7 (0.4)
0x05c0|            10                                 |    .           |          large_size_marker: 1 (valid) 0x5c4-0x5c4.3 (0.4)
0x05c0|            10                                 |    .           |          exponent: 0 0x5c4.4-0x5c4.7 (0.4)
0x05c0|               15                              |     .          |          size_bigint: 21 0x5c5-0x5c5.7 (1)
      |                                               |                |          size: 21
0x05c0|                  48 53 54 53 20 36 37 37 37 36|      HSTS 67776|          value: "HSTS 67776986 Version" 0x5c6-0x5da.7 (21)
0x05d0|39 38 36 20 56 65 72 73 69 6f 6e               |986 Version     |
      |                                               |                |        value{}: 0xec3-0xec7.7 (5)
0x0ec0|         12                                    |   .            |          type: "int" (1) (Integer) 0xec3-0xec3.3 (0.4)
0x0ec0|         12                                    |   .            |          size: 4 0xec3.4-0xec3.7 (0.4)
0x0ec0|            03 c9 1d e9                        |    ....        |          value: 63512041 0xec4-0xec7.7 (4)
      |                                               |                |      [41]{}: entry 0x5d-0xecc.7 (3696)
0x0050|                                       00 2a   |             .* |        key_index: 42 0x5d-0x5e.7 (2)
0x0150|                                       00 aa   |             .. |        value_index: 170 0x15d-0x15e.7 (2)
      |                                               |                |        key{}: 0x5db-0x5f2.7 (24)
0x05d0|                                 5f            |           _    |          type: "ascii_string" (5) (ASCII encoded string) 0x5db-0x5db.3 (0.4)
0x05d0|                                 5f            |           _    |          size_bits: 15 0x5db.4-0x5db.7 (0.4)
0x05d0|                                    10         |            .   |          large_size_marker: 1 (valid) 0x5dc-0x5dc.3 (0.4)
0x05d0|                                    10         |            .   |          exponent: 0 0x5dc.4-0x5dc.7 (0.4)
0x05d0|                                       15      |             .  |          size_bigint: 21 0x5dd-0x5dd.7 (1)
      |                                               |                |          size: 21
0x05d0|                                          48 53|              HS|          value: "HSTS 86433714 Version" 0x5de-0x5f2.7 (21)
0x05e0|54 53 20 38 36 34 33 33 37 31 34 20 56 65 72 73|TS 86433714 Vers|
0x05f0|69 6f 6e                                       |ion             |
      |                                               |                |        value{}: 0xec8-0xecc.7 (5)
0x0ec0|                        12                     |        .       |          type: "int" (1) (Integer) 0xec8-0xec8.3 (0.4)
0x0ec0|                        12                     |        .       |          size: 4 0xec8.4-0xec8.7 (0.4)
0x0ec0|                           05 08 9f b8         |         ....   |          value: 84451256 0xec9-0xecc.7 (4)
      |                                               |                |      [42]{}: entry 0x5f-0xed1.7 (3699)
0x0050|                                             00|               .|        key_index: 43 0x5f-0x60.7 (2)
0x0060|2b                                             |+               |
0x0150|                                             00|               .|        value_index: 171 0x15f-0x160.7 (2)
0x0160|ab                                             |.               |
      |                                               |                |        key{}: 0x5f3-0x60a.7 (24)
0x05f0|         5f                                    |   _            |          type: "ascii_string" (5) (ASCII encoded string) 0x5f3-0x5f3.3 (0.4)
0x05f0|         5f                                    |   _            |          size_bits: 15 0x5f3.4-0x5f3.7 (0.4)
0x05f0|            10                                 |    .           |          large_size_marker: 1 (valid) 0x5f4-0x5f4.3 (0.4)
0x05f0|            10                                 |    .           |          exponent: 0 0x5f4.4-0x5f4.7 (0.4)
0x05f0|               15                              |     .          |          size_bigint: 21 0x5f5-0x5f5.7 (1)
      |                                               |                |          size: 21
0x05f0|                  48 53 54 53 20 35 30 33 39 30|      HSTS 50390|          value: "HSTS 50390632 Version" 0x5f6-0x60a.7 (21)
0x0600|36 33 32 20 56 65 72 73 69 6f 6e               |632 Version     |
      |                                               |                |        value{}: 0xecd-0xed1.7 (5)
0x0ec0|                                       12      |             .  |          type: "int" (1) (Integer) 0xecd-0xecd.3 (0.4)
0x0ec0|                                       12      |             .  |          size: 4 0xecd.4-0xecd.7 (0.4)
0x0ec0|                                          05 40|              .@|          value: 88082114 0xece-0xed1.7 (4)
0x0ed0|06 c2                                          |..              |
      |                                               |                |      [43]{}: entry 0x61-0xed6.7 (3702)
0x0060|   00 2c                                       | .,             |        key_index: 44 0x61-0x62.7 (2)
0x0160|   00 ac                                       | ..             |        value_index: 172 0x161-0x162.7 (2)
      |                                               |                |        key{}: 0x60b-0x622.7 (24)
0x0600|                                 5f            |           _    |          type: "ascii_string" (5) (ASCII encoded string) 0x60b-0x60b.3 (0.4)
0x0600|                                 5f            |           _    |          size_bits: 15 0x60b.4-0x60b.7 (0.4)
0x0600|                                    10         |            .   |          large_size_marker: 1 (valid) 0x60c-0x60c.3 (0.4)
0x0600|                                    10         |            .   |          exponent: 0 0x60c.4-0x60c.7 (0.4)
0x0600|                                       15      |             .  |          size_bigint: 21 0x60d-0x60d.7 (1)
      |                                               |                |          size: 21
0x0600|                                          48 53|              HS|          value: "HSTS 81829874 Version" 0x60e-0x622.7 (21)
0x0610|54 53 20 38 31 38 32 39 38 37 34 20 56 65 72 73|TS 81829874 Vers|
0x0620|69 6f 6e                                       |ion             |
      |                                               |                |        value{}: 0xed2-0xed6.7 (5)
0x0ed0|      12                                       |  .             |          type: "int" (1) (Integer) 0xed2-0xed2.3 (0.4)
0x0ed0|      12                                       |  .             |          size: 4 0xed2.4-0xed2.7 (0.4)
0x0ed0|         05 8c 80 79                           |   ...y         |          value: 93094009 0xed3-0xed6.7 (4)
      |                                               |                |      [44]{}: entry 0x63-0xedb.7 (3705)
0x0060|         00 2d                                 |   .-           |        key_index: 45 0x63-0x64.7 (2)
0x0160|         00 ad                                 |   ..           |        value_index: 173 0x163-0x164.7 (2)
      |                                               |                |        key{}: 0x623-0x63a.7 (24)
0x0620|         5f                                    |   _            |          type: "ascii_string" (5) (ASCII encoded string) 0x623-0x623.3 (0.4)
0x0620|         5f                                    |   _            |          size_bits: 15 0x623.4-0x623.7 (0.4)
0x0620|            10                                 |    .           |          large_size_marker: 1 (valid) 0x624-0x624.3 (0.4)
0x0620|            10                                 |    .           |          exponent: 0 0x624.4-0x624.7 (0.4)
0x0620|               15                              |     .          |          size_bigint: 21 0x625-0x625.7 (1)
      |                                               |                |          size: 21
0x0620|                  48 53 54 53 20 37 35 37 35 30|      HSTS 75750|          value: "HSTS 75750610 Version" 0x626-0x63a.7 (21)
0x0630|36 31 30 20 56 65 72 73 69 6f 6e               |610 Version     |
      |                                               |                |        value{}: 0xed7-0xedb.7 (5)
0x0ed0|                     12                        |       .        |          type: "int" (1) (Integer) 0xed7-0xed7.3 (0.4)
0x0ed0|                     12                        |       .        |          size: 4 0xed7.4-0xed7.7 (0.4)
0x0ed0|                        04 7a 39 ea            |        .z9.    |          value: 75119082 0xed8-0xedb.7 (4)
      |                                               |                |      [45]{}: entry 0x65-0xee0.7 (3708)
0x0060|               00 2e                           |     ..         |        key_index: 46 0x65-0x66.7 (2)
0x0160|               00 ae                           |     ..         |        value_index: 174 0x165-0x166.7 (2)
      |                                               |                |        key{}: 0x63b-0x652.7 (24)
0x0630|                                 5f            |           _    |          type: "ascii_string" (5) (ASCII encoded string) 0x63b-0x63b.3 (0.4)
0x0630|                                 5f            |           _    |          size_bits: 15 0x63b.4-0x63b.7 (0.4)
0x0630|                                    10         |            .   |          large_size_marker: 1 (valid) 0x63c-0x63c.3 (0.4)
0x0630|                                    10         |            .   |          exponent: 0 0x63c.4-0x63c.7 (0.4)
0x0630|                                       15      |             .  |          size_bigint: 21 0x63d-0x63d.7 (1)
      |                                               |                |          size: 21
0x0630|                                          48 53|              HS|          value: "HSTS 52948776 Version" 0x63e-0x652.7 (21)
0x0640|54 53 20 35 32 39 34 38 37 37 36 20 56 65 72 73|TS 52948776 Vers|
0x0650|69 6f 6e                                       |ion             |
      |                                               |                |        value{}: 0xedc-0xee0.7 (5)
0x0ed0|                                    12         |            .   |          type: "int" (1) (Integer) 0xedc-0xedc.3 (0.4)
0x0ed0|                                    12         |            .   |          size: 4 0xedc.4-0xedc.7 (0.4)
0x0ed0|                                       01 53 7d|             .S}|          value: 22248954 0xedd-0xee0.7 (4)
0x0ee0|fa                                             |.               |
      |                                               |                |      [46]{}: entry 0x67-0xee5.7 (3711)
0x0060|                     00 2f                     |       ./       |        key_index: 47 0x67-0x68.7 (2)
0x0160|                     00 af                     |       ..       |        value_index: 175 0x167-0x168.7 (2)
      |                                               |                |        key{}: 0x653-0x66a.7 (24)
0x0650|         5f                                    |   _            |          type: "ascii_string" (5) (ASCII encoded string) 0x653-0x653.3 (0.4)
0x0650|         5f                                    |   _            |          size_bits: 15 0x653.4-0x653.7 (0.4)
0x0650|            10                                 |    .           |          large_size_marker: 1 (valid) 0x654-0x654.3 (0.4)
0x0650|            10                                 |    .           |          exponent: 0 0x654.4-0x654.7 (0.4)
0x0650|               15                              |     .          |          size_bigint: 21 0x655-0x655.7 (1)
      |                                               |                |          size: 21
0x0650|                  48 53 54 53 20 36 35 36 38 39|      HSTS 65689|          value: "HSTS 65689205 Version" 0x656-0x66a.7 (21)
0x0660|32 30 35 20 56 65 72 73 69 6f 6e               |205 Version     |
      |                                               |                |        value{}: 0xee1-0xee5.7 (5)
0x0ee0|   12                                          | .              |          type: "int" (1) (Integer) 0xee1-0xee1.3 (0.4)
0x0ee0|   12                                          | .              |          size: 4 0xee1.4-0xee1.7 (0.4)
0x0ee0|      03 fe 9a af                              |  ....          |          value: 67017391 0xee2-0xee5.7 (4)
      |                                               |                |      [47]{}: entry 0x69-0xeea.7 (3714)
0x0060|                           00 30               |         .0     |        key_index: 48 0x69-0x6a.7 (2)
0x0160|                           00 b0               |         ..     |        value_index: 176 0x169-0x16a.7 (2)
      |                                               |                |        key{}: 0x66b-0x682.7 (24)
0x0660|                                 5f            |           _    |          type: "ascii_string" (5) (ASCII encoded string) 0x66b-0x66b.3 (0.4)
0x0660|                                 5f            |           _    |          size_bits: 15 0x66b.4-0x66b.7 (0.4)
0x0660|                                    10         |            .   |          large_size_marker: 1 (valid) 0x66c-0x66c.3 (0.4)
0x0660|                                    10         |            .   |          exponent: 0 0x66c.4-0x66c.7 (0.4)
0x0660|                                       15      |             .  |          size_bigint: 21 0x66d-0x66d.7 (1)
      |                                               |                |          size: 21
0x0660|                                          48 53|              HS|          value: "HSTS 76899202 Version" 0x66e-0x682.7 (21)
0x0670|54 53 20 37 36 38 39 39 32 30 32 20 56 65 72 73|TS 76899202 Vers|
0x0680|69 6f 6e                                       |ion             |
      |                                               |                |        value{}: 0xee6-0xeea.7 (5)
0x0ee0|                  12                           |      .         |          type: "int" (1) (Integer) 0xee6-0xee6.3 (0.4)
0x0ee0|                  12                           |      .         |          size: 4 0xee6.4-0xee6.7 (0.4)
0x0ee0|                     01 d8 74 a4               |       ..t.     |          value: 30962852 0xee7-0xeea.7 (4)
      |                                               |                |      [48]{}: entry 0x6b-0xeef.7 (3717)
0x0060|                                 00 31         |           .1   |        key_index: 49 0x6b-0x6c.7 (2)
0x0160|                                 00 b1         |           ..   |        value_index: 177 0x16b-0x16c.7 (2)
      |                                               |                |        key{}: 0x683-0x69a.7 (24)
0x0680|         5f                                    |   _            |          type: "ascii_string" (5) (ASCII encoded string) 0x683-0x683.3 (0.4)
0x0680|         5f                                    |   _            |          size_bits: 15 0x683.4-0x683.7 (0.4)
0x0680|            10                                 |    .           |          large_size_marker: 1 (valid) 0x684-0x684.3 (0.4)
0x0680|            10                                 |    .           |          exponent: 0 0x684.4-0x684.7 (0.4)
0x0680|               15                              |     .          |          size_bigint: 21 0x685-0x685.7 (1)
      |                                               |                |          size: 21
0x0680|                  48 53 54 53 20 33 36 35 38 38|      HSTS 36588|          value: "HSTS 36588300 Version" 0x686-0x69a.7 (21)
0x0690|33 30 30 20 56 65 72 73 69 6f 6e               |300 Version     |
      |                                               |                |        value{}: 0xeeb-0xeef.7 (5)
0x0ee0|                                 12            |           .    |          type: "int" (1) (Integer) 0xeeb-0xeeb.3 (0.4)
0x0ee0|                                 12            |           .    |          size: 4 0xeeb.4-0xeeb.7 (0.4)
0x0ee0|                                    02 94 4b 3b|            ..K;|          value: 43273019 0xeec-0xeef.7 (4)
      |                                               |                |      [49]{}: entry 0x6d-0xef4.7 (3720)
0x0060|                                       00 32   |             .2 |        key_index: 50 0x6d-0x6e.7 (2)
0x0160|                                       00 b2   |             .. |        value_index: 178 0x16d-0x16e.7 (2)
      |                                               |                |        key{}: 0x69b-0x6b2.7 (24)
0x0690|                                 5f            |           _    |          type: "ascii_string" (5) (ASCII encoded string) 0x69b-0x69b.3 (0.4)
0x0690|                                 5f            |           _    |          size_bits: 15 0x69b.4-0x69b.7 (0.4)
0x0690|                                    10         |            .   |          large_size_marker: 1 (valid) 0x69c-0x69c.3 (0.4)
0x0690|                                    10         |            .   |          exponent: 0 0x69c.4-0x69c.7 (0.4)
0x0690|                                       15      |             .  |          size_bigint: 21 0x69d-0x69d.7 (1)
      |                                               |                |          size: 21
0x0690|                                          48 53|              HS|          value: "HSTS 60765224 Version" 0x69e-0x6b2.7 (21)
0x06a0|54 53 20 36 30 37 36 35 32 32 34 20 56 65 72 73|TS 60765224 Vers|
0x06b0|69 6f 6e                                       |ion             |
      |                                               |                |        value{}: 0xef0-0xef4.7 (5)
0x0ef0|12                                             |.               |          type: "int" (1) (Integer) 0xef0-0xef0.3 (0.4)
0x0ef0|12                                             |.               |          size: 4 0xef0.4-0xef0.7 (0.4)
0x0ef0|   05 4e 2c d1                                 | .N,.           |          value: 89009361 0xef1-0xef4.7 (4)
      |                                               |                |      [50]{}: entry 0x6f-0xef9.7 (3723)
0x0060|                                             00|               .|        key_index: 51 0x6f-0x70.7 (2)
0x0070|33                                             |3               |
0x0160|                                             00|               .|        value_index: 179 0x16f-0x170.7 (2)
0x0170|b3                                             |.               |
      |                                               |                |        key{}: 0x6b3-0x6ca.7 (24)
0x06b0|         5f                                    |   _            |          type: "ascii_string" (5) (ASCII encoded string) 0x6b3-0x6b3.3 (0.4)
0x06b0|         5f                                    |   _            |          size_bits: 15 0x6b3.4-0x6b3.7 (0.4)
0x06b0|            10                                 |    .           |          large_size_marker: 1 (valid) 0x6b4-0x6b4.3 (0.4)
0x06b0|            10                                 |    .           |          exponent: 0 0x6b4.4-0x6b4.7 (0.4)
0x06b0|               15                              |     .          |          size_bigint: 21 0x6b5-0x6b5.7 (1)
      |                                               |                |          size: 21
0x06b0|                  48 53 54 53 20 35 35 32 32 36|      HSTS 55226|          value: "HSTS 55226204 Version" 0x6b6-0x6ca.7 (21)
0x06c0|32 30 34 20 56 65 72 73 69 6f 6e               |204 Version     |
      |                                               |                |        value{}: 0xef5-0xef9.7 (5)
0x0ef0|               12                              |     .          |          type: "int" (1) (Integer) 0xef5-0xef5.3 (0.4)
0x0ef0|               12                              |     .          |          size: 4 0xef5.4-0xef5.7 (0.4)
0x0ef0|                  02 40 c7 25                  |      .@.%      |          value: 37799717 0xef6-0xef9.7 (4)
      |                                               |                |      [51]{}: entry 0x71-0xefe.7 (3726)
0x0070|   00 34                                       | .4             |        key_index: 52 0x71-0x72.7 (2)
0x0170|   00 b4                                       | ..             |        value_index: 180 0x171-0x172.7 (2)
      |                                               |                |        key{}: 0x6cb-0x6e2.7 (24)
0x06c0|                                 5f            |           _    |          type: "ascii_string" (5) (ASCII encoded string) 0x6cb-0x6cb.3 (0.4)
0x06c0|                                 5f            |           _    |          size_bits: 15 0x6cb.4-0x6cb.7 (0.4)
0x06c0|                                    10         |            .   |          large_size_marker: 1 (valid) 0x6cc-0x6cc.3 (0.4)
0x06c0|                                    10         |            .   |          exponent: 0 0x6cc.4-0x6cc.7 (0.4)
0x06c0|                                       15      |             .  |          size_bigint: 21 0x6cd-0x6cd.7 (1)
      |                                               |                |          size: 21
0x06c0|                                          48 53|              HS|          value: "HSTS 73970690 Version" 0x6ce-0x6e2.7 (21)
0x06d0|54 53 20 37 33 39 37 30 36 39 30 20 56 65 72 73|TS 73970690 Vers|
0x06e0|69 6f 6e                                       |ion             |
      |                                               |                |        value{}: 0xefa-0xefe.7 (5)
0x0ef0|                              12               |          .     |          type: "int" (1) (Integer) 0xefa-0xefa.3 (0.4)
0x0ef0|                              12               |          .     |          size: 4 0xefa.4-0xefa.7 (0.4)
0x0ef0|                                 03 cf e3 01   |           .... |          value: 63955713 0xefb-0xefe.7 (4)
      |                                               |                |      [52]{}: entry 0x73-0xf03.7 (3729)
0x0070|         00 35                                 |   .5           |        key_index: 53 0x73-0x74.7 (2)
0x0170|         00 b5                                 |   ..           |        value_index: 181 0x173-0x174.7 (2)
      |                                               |                |        key{}: 0x6e3-0x6fa.7 (24)
0x06e0|         5f                                    |   _            |          type: "ascii_string" (5) (ASCII encoded string) 0x6e3-0x6e3.3 (0.4)
0x06e0|         5f                                    |   _            |          size_bits: 15 0x6e3.4-0x6e3.7 (0.4)
0x06e0|            10                                 |    .           |          large_size_marker: 1 (valid) 0x6e4-0x6e4.3 (0.4)
0x06e0|            10                                 |    .           |          exponent: 0 0x6e4.4-0x6e4.7 (0.4)
0x06e0|               15                              |     .          |          size_bigint: 21 0x6e5-0x6e5.7 (1)
      |                                               |                |          size: 21
0x06e0|                  48 53 54 53 20 31 32 32 31 38|      HSTS 12218|          value: "HSTS 12218210 Version" 0x6e6-0x6fa.7 (21)
0x06f0|32 31 30 20 56 65 72 73 69 6f 6e               |210 Version     |
      |                                               |                |        value{}: 0xeff-0xf03.7 (5)
0x0ef0|                                             12|               .|          type: "int" (1) (Integer) 0xeff-0xeff.3 (0.4)
0x0ef0|                                             12|               .|          size: 4 0xeff.4-0xeff.7 (0.4)
0x0f00|03 54 dc f7                                    |.T..            |          value: 55893239 0xf00-0xf03.7 (4)
      |                                               |                |      [53]{}: entry 0x75-0xf08.7 (3732)
0x0070|               00 36                           |     .6         |        key_index: 54 0x75-0x76.7 (2)
0x0170|               00 b6                           |     ..         |        value_index: 182 0x175-0x176.7 (2)
      |                                               |                |        key{}: 0x6fb-0x712.7 (24)
0x06f0|                                 5f            |           _    |          type: "ascii_string" (5) (ASCII encoded string) 0x6fb-0x6fb.3 (0.4)
0x06f0|                                 5f            |           _    |          size_bits: 15 0x6fb.4-0x6fb.7 (0.4)
0x06f0|                                    10         |            .   |          large_size_marker: 1 (valid) 0x6fc-0x6fc.3 (0.4)
0x06f0|                                    10         |            .   |          exponent: 0 0x6fc.4-0x6fc.7 (0.4)
0x06f0|                                       15      |             .  |          size_bigint: 21 0x6fd-0x6fd.7 (1)
      |                                               |                |          size: 21
0x06f0|                                          48 53|              HS|          value: "HSTS 67124270 Version" 0x6fe-0x712.7 (21)
0x0700|54 53 20 36 37 31 32 34 32 37 30 20 56 65 72 73|TS 67124270 Vers|
0x0710|69 6f 6e                                       |ion             |
      |                                               |                |        value{}: 0xf04-0xf08.7 (5)
0x0f00|            12                                 |    .           |          type: "int" (1) (Integer) 0xf04-0xf04.3 (0.4)
0x0f00|            12                                 |    .           |          size: 4 0xf04.4-0xf04.7 (0.4)
0x0f00|               05 52 02 0d                     |     .R..       |          value: 89260557 0xf05-0xf08.7 (4)
      |                                               |                |      [54]{}: entry 0x77-0xf0d.7 (3735)
0x0070|                     00 37                     |       .7       |        key_index: 55 0x77-0x78.7 (2)
0x0170|                     00 b7                     |       ..       |        value_index: 183 0x177-0x178.7 (2)
      |                                               |                |        key{}: 0x713-0x72a.7 (24)
0x0710|         5f                                    |   _            |          type: "ascii_string" (5) (ASCII encoded string) 0x713-0x713.3 (0.4)
0x0710|         5f                                    |   _            |          size_bits: 15 0x713.4-0x713.7 (0.4)
0x0710|            10                                 |    .           |          large_size_marker: 1 (valid) 0x714-0x714.3 (0.4)
0x0710|            10                                 |    .           |          exponent: 0 0x714.4-0x714.7 (0.4)
0x0710|               15                              |     .          |          size_bigint: 21 0x715-0x715.7 (1)
      |                                               |                |          size: 21
0x0710|                  48 53 54 53 20 32 38 38 32 36|      HSTS 28826|          value: "HSTS 28826625 Version" 0x716-0x72a.7 (21)
0x0720|36 32 35 20 56 65 72 73 69 6f 6e               |625 Version     |
      |                                               |                |        value{}: 0xf09-0xf0d.7 (5)
0x0f00|                           12                  |         .      |          type: "int" (1) (Integer) 0xf09-0xf09.3 (0.4)
0x0f00|                           12                  |         .      |          size: 4 0xf09.4-0xf09.7 (0.4)
0x0f00|                              00 e4 22 74      |          .."t  |          value: 14951028 0xf0a-0xf0d.7 (4)
      |                                               |                |      [55]{}: entry 0x79-0xf12.7 (3738)
0x0070|                           00 38               |         .8     |        key_index: 56 0x79-0x7a.7 (2)
0x0170|                           00 b8               |         ..     |        value_index: 184 0x179-0x17a.7 (2)
      |                                               |                |        key{}: 0x72b-0x742.7 (24)
0x0720|                                 5f            |           _    |          type: "ascii_string" (5) (ASCII encoded string) 0x72b-0x72b.3 (0.4)
0x0720|                                 5f            |           _    |          size_bits: 15 0x72b.4-0x72b.7 (0.4)
0x0720|                                    10         |            .   |          large_size_marker: 1 (valid) 0x72c-0x72c.3 (0.4)
0x0720|                                    10         |            .   |          exponent: 0 0x72c.4-0x72c.7 (0.4)
0x0720|                                       15      |             .  |          size_bigint: 21 0x72d-0x72d.7 (1)
      |                                               |                |          size: 21
0x0720|                                          48 53|              HS|          value: "HSTS 15942628 Version" 0x72e-0x742.7 (21)
0x0730|54 53 20 31 35 39 34 32 36 32 38 20 56 65 72 73|TS 15942628 Vers|
0x0740|69 6f 6e                                       |ion             |
      |                                               |                |        value{}: 0xf0e-0xf12.7 (5)
0x0f00|                                          12   |              . |          type: "int" (1) (Integer) 0xf0e-0xf0e.3 (0.4)
0x0f00|                                          12   |              . |          size: 4 0xf0e.4-0xf0e.7 (0.4)
0x0f00|                                             00|               .|          value: 4463958 0xf0f-0xf12.7 (4)
0x0f10|44 1d 56                                       |D.V             |
      |                                               |                |      [56]{}: entry 0x7b-0xf17.7 (3741)
0x0070|                                 00 39         |           .9   |        key_index: 57 0x7b-0x7c.7 (2)
0x0170|                                 00 b9         |           ..   |        value_index: 185 0x17b-0x17c.7 (2)
      |                                               |                |        key{}: 0x743-0x75a.7 (24)
0x0740|         5f                                    |   _            |          type: "ascii_string" (5) (ASCII encoded string) 0x743-0x743.3 (0.4)
0x0740|         5f                                    |   _            |          size_bits: 15 0x743.4-0x743.7 (0.4)
0x0740|            10                                 |    .           |          large_size_marker: 1 (valid) 0x744-0x744.3 (0.4)
0x0740|            10                                 |    .           |          exponent: 0 0x744.4-0x744.7 (0.4)
0x0740|               15                              |     .          |          size_bigint: 21 0x745-0x745.7 (1)
      |                                               |                |          size: 21
0x0740|                  48 53 54 53 20 38 32 36 39 38|      HSTS 82698|          value: "HSTS 82698591 Version" 0x746-0x75a.7 (21)
0x0750|35 39 31 20 56 65 72 73 69 6f 6e               |591 Version     |
      |                                               |                |        value{}: 0xf13-0xf17.7 (5)
0x0f10|         12                                    |   .            |          type: "int" (1) (Integer) 0xf13-0xf13.3 (0.4)
0x0f10|         12                                    |   .            |          size: 4 0xf13.4-0xf13.7 (0.4)
0x0f10|            04 4c 38 18                        |    .L8.        |          value: 72103960 0xf14-0xf17.7 (4)
      |                                               |                |      [57]{}: entry 0x7d-0xf1c.7 (3744)
0x0070|                                       00 3a   |             .: |        key_index: 58 0x7d-0x7e.7 (2)
0x0170|                                       00 ba   |             .. |        value_index: 186 0x17d-0x17e.7 (2)
      |                                               |                |        key{}: 0x75b-0x772.7 (24)
0x0750|                                 5f            |           _    |          type: "ascii_string" (5) (ASCII encoded string) 0x75b-0x75b.3 (0.4)
0x0750|                                 5f            |           _    |          size_bits: 15 0x75b.4-0x75b.7 (0.4)
0x0750|                                    10         |            .   |          large_size_marker: 1 (valid) 0x75c-0x75c.3 (0.4)
0x0750|                                    10         |            .   |          exponent: 0 0x75c.4-0x75c.7 (0.4)
0x0750|                                       15      |             .  |          size_bigint: 21 0x75d-0x75d.7 (1)
      |                                               |                |          size: 21
0x0750|                                          48 53|              HS|          value: "HSTS 26253183 Version" 0x75e-0x772.7 (21)
0x0760|54 53 20 32 36 32 35 33 31 38 33 20 56 65 72 73|TS 26253183 Vers|
0x0770|69 6f 6e                                       |ion             |
      |                                               |                |        value{}: 0xf18-0xf1c.7 (5)
0x0f10|                        12                     |        .       |          type: "int" (1) (Integer) 0xf18-0xf18.3 (0.4)
0x0f10|                        12                     |        .       |          size: 4 0xf18.4-0xf18.7 (0.4)
0x0f10|                           02 49 05 e3         |         .I..   |          value: 38340067 0xf19-0xf1c.7 (4)
      |                                               |                |      [58]{}: entry 0x7f-0xf21.7 (3747)
0x0070|                                             00|               .|        key_index: 59 0x7f-0x80.7 (2)
0x0080|3b                                             |;               |
0x0170|                                             00|               .|        value_index: 187 0x17f-0x180.7 (2)
0x0180|bb                                             |.               |
      |                                               |                |        key{}: 0x773-0x789.7 (23)
0x0770|         5f                                    |   _            |          type: "ascii_string" (5) (ASCII encoded string) 0x773-0x773.3 (0.4)
0x0770|         5f                                    |   _            |          size_bits: 15 0x773.4-0x773.7 (0.4)
0x0770|            10                                 |    .           |          large_size_marker: 1 (valid) 0x774-0x774.3 (0.4)
0x0770|            10                                 |    .           |          exponent: 0 0x774.4-0x774.7 (0.4)
0x0770|               14                              |     .          |          size_bigint: 20 0x775-0x775.7 (1)
      |                                               |                |          size: 20
0x0770|                  48 53 54 53 20 39 36 30 39 34|      HSTS 96094|          value: "HSTS 9609427 Version" 0x776-0x789.7 (20)
0x0780|32 37 20 56 65 72 73 69 6f 6e                  |27 Version      |
      |                                               |                |        value{}: 0xf1d-0xf21.7 (5)
0x0f10|                                       12      |             .  |          type: "int" (1) (Integer) 0xf1d-0xf1d.3 (0.4)
0x0f10|                                       12      |             .  |          size: 4 0xf1d.4-0xf1d.7 (0.4)
0x0f10|                                          04 da|              ..|          value: 81431426 0xf1e-0xf21.7 (4)
0x0f20|8b 82                                          |..              |
      |                                               |                |      [59]{}: entry 0x81-0xf26.7 (3750)
0x0080|   00 3c                                       | .<             |        key_index: 60 0x81-0x82.7 (2)
0x0180|   00 bc                                       | ..             |        value_index: 188 0x181-0x182.7 (2)
      |                                               |                |        key{}: 0x78a-0x7a1.7 (24)
0x0780|                              5f               |          _     |          type: "ascii_string" (5) (ASCII encoded string) 0x78a-0x78a.3 (0.4)
0x0780|                              5f               |          _     |          size_bits: 15 0x78a.4-0x78a.7 (0.4)
0x0780|                                 10            |           .    |          large_size_marker: 1 (valid) 0x78b-0x78b.3 (0.4)
0x0780|                                 10            |           .    |          exponent: 0 0x78b.4-0x78b.7 (0.4)
0x0780|                                    15         |            .   |          size_bigint: 21 0x78c-0x78c.7 (1)
      |                                               |                |          size: 21
0x0780|                                       48 53 54|             HST|          value: "HSTS 91427292 Version" 0x78d-0x7a1.7 (21)
0x0790|53 20 39 31 34 32 37 32 39 32 20 56 65 72 73 69|S 91427292 Versi|
0x07a0|6f 6e                                          |on              |
      |                                               |                |        value{}: 0xf22-0xf26.7 (5)
0x0f20|      12                                       |  .             |          type: "int" (1) (Integer) 0xf22-0xf22.3 (0.4)
0x0f20|      12                                       |  .             |          size: 4 0xf22.4-0xf22.7 (0.4)
0x0f20|         00 9c 41 29                           |   ..A)         |          value: 10240297 0xf23-0xf26.7 (4)
      |                                               |                |      [60]{}: entry 0x83-0xf2b.7 (3753)
0x0080|         00 3d                                 |   .=           |        key_index: 61 0x83-0x84.7 (2)
0x0180|         00 bd                                 |   ..           |        value_index: 189 0x183-0x184.7 (2)
      |                                               |                |        key{}: 0x7a2-0x7b9.7 (24)
0x07a0|      5f                                       |  _             |          type: "ascii_string" (5) (ASCII encoded string) 0x7a2-0x7a2.3 (0.4)
0x07a0|      5f                                       |  _             |          size_bits: 15 0x7a2.4-0x7a2.7 (0.4)
0x07a0|         10                                    |   .            |          large_size_marker: 1 (valid) 0x7a3-0x7a3.3 (0.4)
0x07a0|         10                                    |   .            |          exponent: 0 0x7a3.4-0x7a3.7 (0.4)
0x07a0|            15                                 |    .           |          size_bigint: 21 0x7a4-0x7a4.7 (1)
      |                                               |                |          size: 21
0x07a0|               48 53 54 53 20 35 33 39 35 31 33|     HSTS 539513|          value: "HSTS 53951356 Version" 0x7a5-0x7b9.7 (21)
0x07b0|35 36 20 56 65 72 73 69 6f 6e                  |56 Version      |
      |                                               |                |        value{}: 0xf27-0xf2b.7 (5)
0x0f20|                     12                        |       .        |          type: "int" (1) (Integer) 0xf27-0xf27.3 (0.4)
0x0f20|                     12                        |       .        |          size: 4 0xf27.4-0xf27.7 (0.4)
0x0f20|                        05 0c d5 fd            |        ....    |          value: 84727293 0xf28-0xf2b.7 (4)
      |                                               |                |      [61]{}: entry 0x85-0xf30.7 (3756)
0x0080|               00 3e                           |     .>         |        key_index: 62 0x85-0x86.7 (2)
0x0180|               00 be                           |     ..         |        value_index: 190 0x185-0x186.7 (2)
      |                                               |                |        key{}: 0x7ba-0x7d1.7 (24)
0x07b0|                              5f               |          _     |          type: "ascii_string" (5) (ASCII encoded string) 0x7ba-0x7ba.3 (0.4)
0x07b0|                              5f               |          _     |          size_bits: 15 0x7ba.4-0x7ba.7 (0.4)
0x07b0|                                 10            |           .    |          large_size_marker: 1 (valid) 0x7bb-0x7bb.3 (0.4)
0x07b0|                                 10            |           .    |          exponent: 0 0x7bb.4-0x7bb.7 (0.4)
0x07b0|                                    15         |            .   |          size_bigint: 21 0x7bc-0x7bc.7 (1)
      |                                               |                |          size: 21
0x07b0|                                       48 53 54|             HST|          value: "HSTS 75540994 Version" 0x7bd-0x7d1.7 (21)
0x07c0|53 20 37 35 35 34 30 39 39 34 20 56 65 72 73 69|S 75540994 Versi|
0x07d0|6f 6e                                          |on              |
      |                                               |                |        value{}: 0xf2c-0xf30.7 (5)
0x0f20|                                    12         |            .   |          type: "int" (1) (Integer) 0xf2c-0xf2c.3 (0.4)
0x0f20|                                    12         |            .   |          size: 4 0xf2c.4-0xf2c.7 (0.4)
0x0f20|                                       00 f3 dc|             ...|          value: 15981803 0xf2d-0xf30.7 (4)
0x0f30|eb                                             |.               |
      |                                               |                |      [62]{}: entry 0x87-0xf35.7 (3759)
0x0080|                     00 3f                     |       .?       |        key_index: 63 0x87-0x88.7 (2)
0x0180|                     00 bf                     |       ..       |        value_index: 191 0x187-0x188.7 (2)
      |                                               |                |        key{}: 0x7d2-0x7e9.7 (24)
0x07d0|      5f                                       |  _             |          type: "ascii_string" (5) (ASCII encoded string) 0x7d2-0x7d2.3 (0.4)
0x07d0|      5f                                       |  _             |          size_bits: 15 0x7d2.4-0x7d2.7 (0.4)
0x07d0|         10                                    |   .            |          large_size_marker: 1 (valid) 0x7d3-0x7d3.3 (0.4)
0x07d0|         10                                    |   .            |          exponent: 0 0x7d3.4-0x7d3.7 (0.4)
0x07d0|            15                                 |    .           |          size_bigint: 21 0x7d4-0x7d4.7 (1)
      |                                               |                |          size: 21
0x07d0|               48 53 54 53 20 34 30 34 38 30 39|     HSTS 404809|          value: "HSTS 40480961 Version" 0x7d5-0x7e9.7 (21)
0x07e0|36 31 20 56 65 72 73 69 6f 6e                  |61 Version      |
      |                                               |                |        value{}: 0xf31-0xf35.7 (5)
0x0f30|   12                                          | .              |          type: "int" (1) (Integer) 0xf31-0xf31.3 (0.4)
0x0f30|   12                                          | .              |          size: 4 0xf31.4-0xf31.7 (0.4)
0x0f30|      00 af da 8a                              |  ....          |          value: 11524746 0xf32-0xf35.7 (4)
      |                                               |                |      [63]{}: entry 0x89-0xf3a.7 (3762)
0x0080|                           00 40               |         .@     |        key_index: 64 0x89-0x8a.7 (2)
0x0180|                           00 c0               |         ..     |        value_index: 192 0x189-0x18a.7 (2)
      |                                               |                |        key{}: 0x7ea-0x801.7 (24)
0x07e0|                              5f               |          _     |          type: "ascii_string" (5) (ASCII encoded string) 0x7ea-0x7ea.3 (0.4)
0x07e0|                              5f               |          _     |          size_bits: 15 0x7ea.4-0x7ea.7 (0.4)
0x07e0|                                 10            |           .    |          large_size_marker: 1 (valid) 0x7eb-0x7eb.3 (0.4)
0x07e0|                                 10            |           .    |          exponent: 0 0x7eb.4-0x7eb.7 (0.4)
0x07e0|                                    15         |            .   |          size_bigint: 21 0x7ec-0x7ec.7 (1)
      |                                               |                |          size: 21
0x07e0|                                       48 53 54|             HST|          value: "HSTS 45557369 Version" 0x7ed-0x801.7 (21)
0x07f0|53 20 34 35 35 35 37 33 36 39 20 56 65 72 73 69|S 45557369 Versi|
0x0800|6f 6e                                          |on              |
      |                                               |                |        value{}: 0xf36-0xf3a.7 (5)
0x0f30|                  12                           |      .         |          type: "int" (1) (Integer) 0xf36-0xf36.3 (0.4)
0x0f30|                  12                           |      .         |          size: 4 0xf36.4-0xf36.7 (0.4)
0x0f30|                     01 98 16 07               |       ....     |          value: 26744327 0xf37-0xf3a.7 (4)
      |                                               |                |      [64]{}: entry 0x8b-0xf3f.7 (3765)
0x0080|                                 00 41         |           .A   |        key_index: 65 0x8b-0x8c.7 (2)
0x0180|                                 00 c1         |           ..   |        value_index: 193 0x18b-0x18c.7 (2)
      |                                               |                |        key{}: 0x802-0x819.7 (24)
0x0800|      5f                                       |  _             |          type: "ascii_string" (5) (ASCII encoded string) 0x802-0x802.3 (0.4)
0x0800|      5f                                       |  _             |          size_bits: 15 0x802.4-0x802.7 (0.4)
0x0800|         10                                    |   .            |          large_size_marker: 1 (valid) 0x803-0x803.3 (0.4)
0x0800|         10                                    |   .            |          exponent: 0 0x803.4-0x803.7 (0.4)
0x0800|            15                                 |    .           |          size_bigint: 21 0x804-0x804.7 (1)
      |                                               |                |          size: 21
0x0800|               48 53 54 53 20 32 39 37 31 35 37|     HSTS 297157|          value: "HSTS 29715776 Version" 0x805-0x819.7 (21)
0x0810|37 36 20 56 65 72 73 69 6f 6e                  |76 Version      |
      |                                               |                |        value{}: 0xf3b-0xf3f.7 (5)
0x0f30|                                 12            |           .    |          type: "int" (1) (Integer) 0xf3b-0xf3b.3 (0.4)
0x0f30|                                 12            |           .    |          size: 4 0xf3b.4-0xf3b.7 (0.4)
0x0f30|                                    04 f6 ac cb|            ....|          value: 83274955 0xf3c-0xf3f.7 (4)
      |                                               |                |      [65]{}: entry 0x8d-0xf44.7 (3768)
0x0080|                                       00 42   |             .B |        key_index: 66 0x8d-0x8e.7 (2)
0x0180|                                       00 c2   |             .. |        value_index: 194 0x18d-0x18e.7 (2)
      |                                               |                |        key{}: 0x81a-0x831.7 (24)
0x0810|                              5f               |          _     |          type: "ascii_string" (5) (ASCII encoded string) 0x81a-0x81a.3 (0.4)
0x0810|                              5f               |          _     |          size_bits: 15 0x81a.4-0x81a.7 (0.4)
0x0810|                                 10            |           .    |          large_size_marker: 1 (valid) 0x81b-0x81b.3 (0.4)
0x0810|                                 10            |           .    |          exponent: 0 0x81b.4-0x81b.7 (0.4)
0x0810|                                    15         |            .   |          size_bigint: 21 0x81c-0x81c.7 (1)
      |                                               |                |          size: 21
0x0810|                                       48 53 54|             HST|          value: "HSTS 67789571 Version" 0x81d-0x831.7 (21)
0x0820|53 20 36 37 37 38 39 35 37 31 20 56 65 72 73 69|S 67789571 Versi|
0x0830|6f 6e                                          |on              |
      |                                               |                |        value{}: 0xf40-0xf44.7 (5)
0x0f40|12                                             |.               |          type: "int" (1) (Integer) 0xf40-0xf40.3 (0.4)
0x0f40|12                                             |.               |          size: 4 0xf40.4-0xf40.7 (0.4)
0x0f40|   01 09 b4 18                                 | ....           |          value: 17413144 0xf41-0xf44.7 (4)
      |                                               |                |      [66]{}: entry 0x8f-0xf49.7 (3771)
0x0080|                                             00|               .|        key_index: 67 0x8f-0x90.7 (2)
0x0090|43                                             |C               |
0x0180|                                             00|               .|        value_index: 195 0x18f-0x190.7 (2)
0x0190|c3                                             |.               |
      |                                               |                |        key{}: 0x832-0x849.7 (24)
0x0830|      5f                                       |  _             |          type: "ascii_string" (5) (ASCII encoded string) 0x832-0x832.3 (0.4)
0x0830|      5f                                       |  _             |          size_bits: 15 0x832.4-0x832.7 (0.4)
0x0830|         10                                    |   .            |          large_size_marker: 1 (valid) 0x833-0x833.3 (0.4)
0x0830|         10                                    |   .            |          exponent: 0 0x833.4-0x833.7 (0.4)
0x0830|            15                                 |    .           |          size_bigint: 21 0x834-0x834.7 (1)
      |                                               |                |          size: 21
0x0830|               48 53 54 53 20 32 36 33 30 34 30|     HSTS 263040|          value: "HSTS 26304070 Version" 0x835-0x849.7 (21)
0x0840|37 30 20 56 65 72 73 69 6f 6e                  |70 Version      |
      |                                               |                |        value{}: 0xf45-0xf49.7 (5)
0x0f40|               12                              |     .          |          type: "int" (1) (Integer) 0xf45-0xf45.3 (0.4)
0x0f40|               12                              |     .          |          size: 4 0xf45.4-0xf45.7 (0.4)
0x0f40|                  02 fa fa 90                  |      ....      |          value: 50002576 0xf46-0xf49.7 (4)
      |                                               |                |      [67]{}: entry 0x91-0xf4e.7 (3774)
0x0090|   00 44                                       | .D             |        key_index: 68 0x91-0x92.7 (2)
0x0190|   00 c4                                       | ..             |        value_index: 196 0x191-0x192.7 (2)
      |                                               |                |        key{}: 0x84a-0x861.7 (24)
0x0840|                              5f               |          _     |          type: "ascii_string" (5) (ASCII encoded string) 0x84a-0x84a.3 (0.4)
0x0840|                              5f               |          _     |          size_bits: 15 0x84a.4-0x84a.7 (0.4)
0x0840|                                 10            |           .    |          large_size_marker: 1 (valid) 0x84b-0x84b.3 (0.4)
0x0840|                                 10            |           .    |          exponent: 0 0x84b.4-0x84b.7 (0.4)
0x0840|                                    15         |            .   |          size_bigint: 21 0x84c-0x84c.7 (1)
      |                                               |                |          size: 21
0x0840|                                       48 53 54|             HST|          value: "HSTS 36896701 Version" 0x84d-0x861.7 (21)
0x0850|53 20 33 36 38 39 36 37 30 31 20 56 65 72 73 69|S 36896701 Versi|
0x0860|6f 6e                                          |on              |
      |                                               |                |        value{}: 0xf4a-0xf4e.7 (5)
0x0f40|                              12               |          .     |          type: "int" (1) (Integer) 0xf4a-0xf4a.3 (0.4)
0x0f40|                              12               |          .     |          size: 4 0xf4a.4-0xf4a.7 (0.4)
0x0f40|                                 00 28 0b ab   |           .(.. |          value: 2624427 0xf4b-0xf4e.7 (4)
      |                                               |                |      [68]{}: entry 0x93-0xf53.7 (3777)
0x0090|         00 45                                 |   .E           |        key_index: 69 0x93-0x94.7 (2)
0x0190|         00 c5                                 |   ..           |        value_index: 197 0x193-0x194.7 (2)
      |                                               |                |        key{}: 0x862-0x879.7 (24)
0x0860|      5f                                       |  _             |          type: "ascii_string" (5) (ASCII encoded string) 0x862-0x862.3 (0.4)
0x0860|      5f                                       |  _             |          size_bits: 15 0x862.4-0x862.7 (0.4)
0x0860|         10                                    |   .            |          large_size_marker: 1 (valid) 0x863-0x863.3 (0.4)
0x0860|         10                                    |   .            |          exponent: 0 0x863.4-0x863.7 (0.4)
0x0860|            15                                 |    .           |          size_bigint: 21 0x864-0x864.7 (1)
      |                                               |                |          size: 21
0x0860|               48 53 54 53 20 32 34 37 36 33 38|     HSTS 247638|          value: "HSTS 24763818 Version" 0x865-0x879.7 (21)
0x0870|31 38 20 56 65 72 73 69 6f 6e                  |18 Version      |
      |                                               |                |        value{}: 0xf4f-0xf53.7 (5)
0x0f40|                                             12|               .|          type: "int" (1) (Integer) 0xf4f-0xf4f.3 (0.4)
0x0f40|                                             12|               .|          size: 4 0xf4f.4-0xf4f.7 (0.4)
0x0f50|04 8f 81 41                                    |...A            |          value: 76513601 0xf50-0xf53.7 (4)
      |                                               |                |      [69]{}: entry 0x95-0xf58.7 (3780)
0x0090|               00 46                           |     .F         |        key_index: 70 0x95-0x96.7 (2)
0x0190|               00 c6                           |     ..         |        value_index: 198 0x195-0x196.7 (2)
      |                                               |                |        key{}: 0x87a-0x891.7 (24)
0x0870|                              5f               |          _     |          type: "ascii_string" (5) (ASCII encoded string) 0x87a-0x87a.3 (0.4)
0x0870|                              5f               |          _     |          size_bits: 15 0x87a.4-0x87a.7 (0.4)
0x0870|                                 10            |           .    |          large_size_marker: 1 (valid) 0x87b-0x87b.3 (0.4)
0x0870|                                 10            |           .    |          exponent: 0 0x87b.4-0x87b.7 (0.4)
0x0870|                                    15         |            .   |          size_bigint: 21 0x87c-0x87c.7 (1)
      |                                               |                |          size: 21
0x0870|                                       48 53 54|             HST|          value: "HSTS 10080734 Version" 0x87d-0x891.7 (21)
0x0880|53 20 31 30 30 38 30 37 33 34 20 56 65 72 73 69|S 10080734 Versi|
0x0890|6f 6e                                          |on              |
      |                                               |                |        value{}: 0xf54-0xf58.7 (5)
0x0f50|            12                                 |    .           |          type: "int" (1) (Integer) 0xf54-0xf54.3 (0.4)
0x0f50|            12                                 |    .           |          size: 4 0xf54.4-0xf54.7 (0.4)
0x0f50|               03 a3 3a 2f                     |     ..:/       |          value: 61028911 0xf55-0xf58.7 (4)
      |                                               |                |      [70]{}: entry 0x97-0xf5d.7 (3783)
0x0090|                     00 47                     |       .G       |        key_index: 71 0x97-0x98.7 (2)
0x0190|                     00 c7                     |       ..       |        value_index: 199 0x197-0x198.7 (2)
      |                                               |                |        key{}: 0x892-0x8a9.7 (24)
0x0890|      5f                                       |  _             |          type: "ascii_string" (5) (ASCII encoded string) 0x892-0x892.3 (0.4)
0x0890|      5f                                       |  _             |          size_bits: 15 0x892.4-0x892.7 (0.4)
0x0890|         10                                    |   .            |          large_size_marker: 1 (valid) 0x893-0x893.3 (0.4)
0x0890|         10                                    |   .            |          exponent: 0 0x893.4-0x893.7 (0.4)
0x0890|            15                                 |    .           |          size_bigint: 21 0x894-0x894.7 (1)
      |                                               |                |          size: 21
0x0890|               48 53 54 53 20 38 39 34 39 35 39|     HSTS 894959|          value: "HSTS 89495937 Version" 0x895-0x8a9.7 (21)
0x08a0|33 37 20 56 65 72 73 69 6f 6e                  |37 Version      |
      |                                               |                |        value{}: 0xf59-0xf5d.7 (5)
0x0f50|                           12                  |         .      |          type: "int" (1) (Integer) 0xf59-0xf59.3 (0.4)
0x0f50|                           12                  |         .      |          size: 4 0xf59.4-0xf59.7 (0.4)
0x0f50|                              05 2e a9 fa      |          ....  |          value: 86944250 0xf5a-0xf5d.7 (4)
      |                                               |                |      [71]{}: entry 0x99-0xf62.7 (3786)
0x0090|                           00 48               |         .H     |        key_index: 72 0x99-0x9a.7 (2)
0x0190|                           00 c8               |         ..     |        value_index: 200 0x199-0x19a.7 (2)
      |                                               |                |        key{}: 0x8aa-0x8c1.7 (24)
0x08a0|                              5f               |          _     |          type: "ascii_string" (5) (ASCII encoded string) 0x8aa-0x8aa.3 (0.4)
0x08a0|                              5f               |          _     |          size_bits: 15 0x8aa.4-0x8aa.7 (0.4)
0x08a0|                                 10            |           .    |          large_size_marker: 1 (valid) 0x8ab-0x8ab.3 (0.4)
0x08a0|                                 10            |           .    |          exponent: 0 0x8ab.4-0x8ab.7 (0.4)
0x08a0|                                    15         |            .   |          size_bigint: 21 0x8ac-0x8ac.7 (1)
      |                                               |                |          size: 21
0x08a0|                                       48 53 54|             HST|          value: "HSTS 12038598 Version" 0x8ad-0x8c1.7 (21)
0x08b0|53 20 31 32 30 33 38 35 39 38 20 56 65 72 73 69|S 12038598 Versi|
0x08c0|6f 6e                                          |on              |
      |                                               |                |        value{}: 0xf5e-0xf62.7 (5)
0x0f50|                                          12   |              . |          type: "int" (1) (Integer) 0xf5e-0xf5e.3 (0.4)
0x0f50|                                          12   |              . |          size: 4 0xf5e.4-0xf5e.7 (0.4)
0x0f50|                                             00|               .|          value: 6449521 0xf5f-0xf62.7 (4)
0x0f60|62 69 71                                       |biq             |
      |                                               |                |      [72]{}: entry 0x9b-0xf67.7 (3789)
0x0090|                                 00 49         |           .I   |        key_index: 73 0x9b-0x9c.7 (2)
0x0190|                                 00 c9         |           ..   |        value_index: 201 0x19b-0x19c.7 (2)
      |                                               |                |        key{}: 0x8c2-0x8d8.7 (23)
0x08c0|      5f                                       |  _             |          type: "ascii_string" (5) (ASCII encoded string) 0x8c2-0x8c2.3 (0.4)
0x08c0|      5f                                       |  _             |          size_bits: 15 0x8c2.4-0x8c2.7 (0.4)
0x08c0|         10                                    |   .            |          large_size_marker: 1 (valid) 0x8c3-0x8c3.3 (0.4)
0x08c0|         10                                    |   .            |          exponent: 0 0x8c3.4-0x8c3.7 (0.4)
0x08c0|            14                                 |    .           |          size_bigint: 20 0x8c4-0x8c4.7 (1)
      |                                               |                |          size: 20
0x08c0|               48 53 54 53 20 39 32 35 39 35 32|     HSTS 925952|          value: "HSTS 9259520 Version" 0x8c5-0x8d8.7 (20)
0x08d0|30 20 56 65 72 73 69 6f 6e                     |0 Version       |
      |                                               |                |        value{}: 0xf63-0xf67.7 (5)
0x0f60|         12                                    |   .            |          type: "int" (1) (Integer) 0xf63-0xf63.3 (0.4)
0x0f60|         12                                    |   .            |          size: 4 0xf63.4-0xf63.7 (0.4)
0x0f60|            03 09 5c 11                        |    ..\.        |          value: 50945041 0xf64-0xf67.7 (4)
      |                                               |                |      [73]{}: entry 0x9d-0xf6c.7 (3792)
0x0090|                                       00 4a   |             .J |        key_index: 74 0x9d-0x9e.7 (2)
0x0190|                                       00 ca   |             .. |        value_index: 202 0x19d-0x19e.7 (2)
      |                                               |                |        key{}: 0x8d9-0x8f0.7 (24)
0x08d0|                           5f                  |         _      |          type: "ascii_string" (5) (ASCII encoded string) 0x8d9-0x8d9.3 (0.4)
0x08d0|                           5f                  |         _      |          size_bits: 15 0x8d9.4-0x8d9.7 (0.4)
0x08d0|                              10               |          .     |          large_size_marker: 1 (valid) 0x8da-0x8da.3 (0.4)
0x08d0|                              10               |          .     |          exponent: 0 0x8da.4-0x8da.7 (0.4)
0x08d0|                                 15            |           .    |          size_bigint: 21 0x8db-0x8db.7 (1)
      |                                               |                |          size: 21
0x08d0|                                    48 53 54 53|            HSTS|          value: "HSTS 33437200 Version" 0x8dc-0x8f0.7 (21)
0x08e0|20 33 33 34 33 37 32 30 30 20 56 65 72 73 69 6f| 33437200 Versio|
0x08f0|6e                                             |n               |
      |                                               |                |        value{}: 0xf68-0xf6c.7 (5)
0x0f60|                        12                     |        .       |          type: "int" (1) (Integer) 0xf68-0xf68.3 (0.4)
0x0f60|                        12                     |        .       |          size: 4 0xf68.4-0xf68.7 (0.4)
0x0f60|                           02 31 87 99         |         .1..   |          value: 36800409 0xf69-0xf6c.7 (4)
      |                                               |                |      [74]{}: entry 0x9f-0xf71.7 (3795)
0x0090|                                             00|               .|        key_index: 75 0x9f-0xa0.7 (2)
0x00a0|4b                                             |K               |
0x0190|                                             00|               .|        value_index: 203 0x19f-0x1a0.7 (2)
0x01a0|cb                                             |.               |
      |                                               |                |        key{}: 0x8f1-0x908.7 (24)
0x08f0|   5f                                          | _              |          type: "ascii_string" (5) (ASCII encoded string) 0x8f1-0x8f1.3 (0.4)
0x08f0|   5f                                          | _              |          size_bits: 15 0x8f1.4-0x8f1.7 (0.4)
0x08f0|      10                                       |  .             |          large_size_marker: 1 (valid) 0x8f2-0x8f2.3 (0.4)
0x08f0|      10                                       |  .             |          exponent: 0 0x8f2.4-0x8f2.7 (0.4)
0x08f0|         15                                    |   .            |          size_bigint: 21 0x8f3-0x8f3.7 (1)
      |                                               |                |          size: 21
0x08f0|            48 53 54 53 20 38 30 30 36 35 39 32|    HSTS 8006592|          value: "HSTS 80065929 Version" 0x8f4-0x908.7 (21)
0x0900|39 20 56 65 72 73 69 6f 6e                     |9 Version       |
      |                                               |                |        value{}: 0xf6d-0xf71.7 (5)
0x0f60|                                       12      |             .  |          type: "int" (1) (Integer) 0xf6d-0xf6d.3 (0.4)
0x0f60|                                       12      |             .  |          size: 4 0xf6d.4-0xf6d.7 (0.4)
0x0f60|                                          05 2f|              ./|          value: 86984057 0xf6e-0xf71.7 (4)
0x0f70|45 79                                          |Ey              |
      |                                               |                |      [75]{}: entry 0xa1-0xf76.7 (3798)
0x00a0|   00 4c                                       | .L             |        key_index: 76 0xa1-0xa2.7 (2)
0x01a0|   00 cc                                       | ..             |        value_index: 204 0x1a1-0x1a2.7 (2)
      |                                               |                |        key{}: 0x909-0x920.7 (24)
0x0900|                           5f                  |         _      |          type: "ascii_string" (5) (ASCII encoded string) 0x909-0x909.3 (0.4)
0x0900|                           5f                  |         _      |          size_bits: 15 0x909.4-0x909.7 (0.4)
0x0900|                              10               |          .     |          large_size_marker: 1 (valid) 0x90a-0x90a.3 (0.4)
0x0900|                              10               |          .     |          exponent: 0 0x90a.4-0x90a.7 (0.4)
0x0900|                                 15            |           .    |          size_bigint: 21 0x90b-0x90b.7 (1)
      |                                               |                |          size: 21
0x0900|                                    48 53 54 53|            HSTS|          value: "HSTS 54295113 Version" 0x90c-0x920.7 (21)
0x0910|20 35 34 32 39 35 31 31 33 20 56 65 72 73 69 6f| 54295113 Versio|
0x0920|6e                                             |n               |
      |                                               |                |        value{}: 0xf72-0xf76.7 (5)
0x0f70|      12                                       |  .             |          type: "int" (1) (Integer) 0xf72-0xf72.3 (0.4)
0x0f70|      12                                       |  .             |          size: 4 0xf72.4-0xf72.7 (0.4)
0x0f70|         00 3a 20 7c                           |   .: |         |          value: 3809404 0xf73-0xf76.7 (4)
      |                                               |                |      [76]{}: entry 0xa3-0xf7b.7 (3801)
0x00a0|         00 4d                                 |   .M           |        key_index: 77 0xa3-0xa4.7 (2)
0x01a0|         00 cd                                 |   ..           |        value_index: 205 0x1a3-0x1a4.7 (2)
      |                                               |                |        key{}: 0x921-0x938.7 (24)
0x0920|   5f                                          | _              |          type: "ascii_string" (5) (ASCII encoded string) 0x921-0x921.3 (0.4)
0x0920|   5f                                          | _              |          size_bits: 15 0x921.4-0x921.7 (0.4)
0x0920|      10                                       |  .             |          large_size_marker: 1 (valid) 0x922-0x922.3 (0.4)
0x0920|      10                                       |  .             |          exponent: 0 0x922.4-0x922.7 (0.4)
0x0920|         15                                    |   .            |          size_bigint: 21 0x923-0x923.7 (1)
      |                                               |                |          size: 21
0x0920|            48 53 54 53 20 36 38 39 33 35 33 30|    HSTS 6893530|          value: "HSTS 68935308 Version" 0x924-0x938.7 (21)
0x0930|38 20 56 65 72 73 69 6f 6e                     |8 Version       |
      |                                               |                |        value{}: 0xf77-0xf7b.7 (5)
0x0f70|                     12                        |       .        |          type: "int" (1) (Integer) 0xf77-0xf77.3 (0.4)
0x0f70|                     12                        |       .        |          size: 4 0xf77.4-0xf77.7 (0.4)
0x0f70|                        05 bf 5a dc            |        ..Z.    |          value: 96426716 0xf78-0xf7b.7 (4)
      |                                               |                |      [77]{}: entry 0xa5-0xf80.7 (3804)
0x00a0|               00 4e                           |     .N         |        key_index: 78 0xa5-0xa6.7 (2)
0x01a0|               00 ce                           |     ..         |        value_index: 206 0x1a5-0x1a6.7 (2)
      |                                               |                |        key{}: 0x939-0x950.7 (24)
0x0930|                           5f                  |         _      |          type: "ascii_string" (5) (ASCII encoded string) 0x939-0x939.3 (0.4)
0x0930|                           5f                  |         _      |          size_bits: 15 0x939.4-0x939.7 (0.4)
0x0930|                              10               |          .     |          large_size_marker: 1 (valid) 0x93a-0x93a.3 (0.4)
0x0930|                              10               |          .     |          exponent: 0 0x93a.4-0x93a.7 (0.4)
0x0930|                                 15            |           .    |          size_bigint: 21 0x93b-0x93b.7 (1)
      |                                               |                |          size: 21
0x0930|                                    48 53 54 53|            HSTS|          value: "HSTS 16494683 Version" 0x93c-0x950.7 (21)
0x0940|20 31 36 34 39 34 36 38 33 20 56 65 72 73 69 6f| 16494683 Versio|
0x0950|6e                                             |n               |
      |                                               |                |        value{}: 0xf7c-0xf80.7 (5)
0x0f70|                                    12         |            .   |          type: "int" (1) (Integer) 0xf7c-0xf7c.3 (0.4)
0x0f70|                                    12         |            .   |          size: 4 0xf7c.4-0xf7c.7 (0.4)
0x0f70|                                       02 b5 47|             ..G|          value: 45434836 0xf7d-0xf80.7 (4)
0x0f80|d4                                             |.               |
      |                                               |                |      [78]{}: entry 0xa7-0xf85.7 (3807)
0x00a0|                     00 4f                     |       .O       |        key_index: 79 0xa7-0xa8.7 (2)
0x01a0|                     00 cf                     |       ..       |        value_index: 207 0x1a7-0x1a8.7 (2)
      |                                               |                |        key{}: 0x951-0x968.7 (24)
0x0950|   5f                                          | _              |          type: "ascii_string" (5) (ASCII encoded string) 0x951-0x951.3 (0.4)
0x0950|   5f                                          | _              |          size_bits: 15 0x951.4-0x951.7 (0.4)
0x0950|      10                                       |  .             |          large_size_marker: 1 (valid) 0x952-0x952.3 (0.4)
0x0950|      10                                       |  .             |          exponent: 0 0x952.4-0x952.7 (0.4)
0x0950|         15                                    |   .            |          size_bigint: 21 0x953-0x953.7 (1)
      |                                               |                |          size: 21
0x0950|            48 53 54 53 20 34 38 31 31 37 32 37|    HSTS 4811727|          value: "HSTS 48117274 Version" 0x954-0x968.7 (21)
0x0960|34 20 56 65 72 73 69 6f 6e                     |4 Version       |
      |                                               |                |        value{}: 0xf81-0xf85.7 (5)
0x0f80|   12                                          | .              |          type: "int" (1) (Integer) 0xf81-0xf81.3 (0.4)
0x0f80|   12                                          | .              |          size: 4 0xf81.4-0xf81.7 (0.4)
0x0f80|      02 d7 68 2b                              |  ..h+          |          value: 47671339 0xf82-0xf85.7 (4)
      |                                               |                |      [79]{}: entry 0xa9-0xf8a.7 (3810)
0x00a0|                           00 50               |         .P     |        key_index: 80 0xa9-0xaa.7 (2)
0x01a0|                           00 d0               |         ..     |        value_index: 208 0x1a9-0x1aa.7 (2)
      |                                               |                |        key{}: 0x969-0x980.7 (24)
0x0960|                           5f                  |         _      |          type: "ascii_string" (5) (ASCII encoded string) 0x969-0x969.3 (0.4)
0x0960|                           5f                  |         _      |          size_bits: 15 0x969.4-0x969.7 (0.4)
0x0960|                              10               |          .     |          large_size_marker: 1 (valid) 0x96a-0x96a.3 (0.4)
0x0960|                              10               |          .     |          exponent: 0 0x96a.4-0x96a.7 (0.4)
0x0960|                                 15            |           .    |          size_bigint: 21 0x96b-0x96b.7 (1)
      |                                               |                |          size: 21
0x0960|                                    48 53 54 53|            HSTS|          value: "HSTS 23144187 Version" 0x96c-0x980.7 (21)
0x0970|20 32 33 31 34 34 31 38 37 20 56 65 72 73 69 6f| 23144187 Versio|
0x0980|6e                                             |n               |
      |                                               |                |        value{}: 0xf86-0xf8a.7 (5)
0x0f80|                  12                           |      .         |          type: "int" (1) (Integer) 0xf86-0xf86.3 (0.4)
0x0f80|                  12                           |      .         |          size: 4 0xf86.4-0xf86.7 (0.4)
0x0f80|                     01 ed 8b 09               |       ....     |          value: 32344841 0xf87-0xf8a.7 (4)
      |                                               |                |      [80]{}: entry 0xab-0xf8f.7 (3813)
0x00a0|                                 00 51         |           .Q   |        key_index: 81 0xab-0xac.7 (2)
0x01a0|                                 00 d1         |           ..   |        value_index: 209 0x1ab-0x1ac.7 (2)
      |                                               |                |        key{}: 0x981-0x998.7 (24)
0x0980|   5f                                          | _              |          type: "ascii_string" (5) (ASCII encoded string) 0x981-0x981.3 (0.4)
0x0980|   5f                                          | _              |          size_bits: 15 0x981.4-0x981.7 (0.4)
0x0980|      10                                       |  .             |          large_size_marker: 1 (valid) 0x982-0x982.3 (0.4)
0x0980|      10                                       |  .             |          exponent: 0 0x982.4-0x982.7 (0.4)
0x0980|         15                                    |   .            |          size_bigint: 21 0x983-0x983.7 (1)
      |                                               |                |          size: 21
0x0980|            48 53 54 53 20 35 34 39 36 37 37 34|    HSTS 5496774|          value: "HSTS 54967742 Version" 0x984-0x998.7 (21)
0x0990|32 20 56 65 72 73 69 6f 6e                     |2 Version       |
      |                                               |                |        value{}: 0xf8b-0xf8f.7 (5)
0x0f80|                                 12            |           .    |          type: "int" (1) (Integer) 0xf8b-0xf8b.3 (0.4)
0x0f80|                                 12            |           .    |          size: 4 0xf8b.4-0xf8b.7 (0.4)
0x0f80|                                    05 92 5f 1e|            .._.|          value: 93478686 0xf8c-0xf8f.7 (4)
      |                                               |                |      [81]{}: entry 0xad-0xf94.7 (3816)
0x00a0|                                       00 52   |             .R |        key_index: 82 0xad-0xae.7 (2)
0x01a0|                                       00 d2   |             .. |        value_index: 210 0x1ad-0x1ae.7 (2)
      |                                               |                |        key{}: 0x999-0x9b0.7 (24)
0x0990|                           5f                  |         _      |          type: "ascii_string" (5) (ASCII encoded string) 0x999-0x999.3 (0.4)
0x0990|                           5f                  |         _      |          size_bits: 15 0x999.4-0x999.7 (0.4)
0x0990|                              10               |          .     |          large_size_marker: 1 (valid) 0x99a-0x99a.3 (0.4)
0x0990|                              10               |          .     |          exponent: 0 0x99a.4-0x99a.7 (0.4)
0x0990|                                 15            |           .    |          size_bigint: 21 0x99b-0x99b.7 (1)
      |                                               |                |          size: 21
0x0990|                                    48 53 54 53|            HSTS|          value: "HSTS 83989129 Version" 0x99c-0x9b0.7 (21)
0x09a0|20 38 33 39 38 39 31 32 39 20 56 65 72 73 69 6f| 83989129 Versio|
0x09b0|6e                                             |n               |
      |                                               |                |        value{}: 0xf90-0xf94.7 (5)
0x0f90|12                                             |.               |          type: "int" (1) (Integer) 0xf90-0xf90.3 (0.4)
0x0f90|12                                             |.               |          size: 4 0xf90.4-0xf90.7 (0.4)
0x0f90|   00 6a 78 bd                                 | .jx.           |          value: 6977725 0xf91-0xf94.7 (4)
      |                                               |                |      [82]{}: entry 0xaf-0xf99.7 (3819)
0x00a0|                                             00|               .|        key_index: 83 0xaf-0xb0.7 (2)
0x00b0|53                                             |S               |
0x01a0|                                             00|               .|        value_index: 211 0x1af-0x1b0.7 (2)
0x01b0|d3                                             |.               |
      |                                               |                |        key{}: 0x9b1-0x9c8.7 (24)
0x09b0|   5f                                          | _              |          type: "ascii_string" (5) (ASCII encoded string) 0x9b1-0x9b1.3 (0.4)
0x09b0|   5f                                          | _              |          size_bits: 15 0x9b1.4-0x9b1.7 (0.4)
0x09b0|      10                                       |  .             |          large_size_marker: 1 (valid) 0x9b2-0x9b2.3 (0.4)
0x09b0|      10                                       |  .             |          exponent: 0 0x9b2.4-0x9b2.7 (0.4)
0x09b0|         15                                    |   .            |          size_bigint: 21 0x9b3-0x9b3.7 (1)
      |                                               |                |          size: 21
0x09b0|            48 53 54 53 20 37 35 33 36 38 37 37|    HSTS 7536877|          value: "HSTS 75368770 Version" 0x9b4-0x9c8.7 (21)
0x09c0|30 20 56 65 72 73 69 6f 6e                     |0 Version       |
      |                                               |                |        value{}: 0xf95-0xf99.7 (5)
0x0f90|               12                              |     .          |          type: "int" (1) (Integer) 0xf95-0xf95.3 (0.4)
0x0f90|               12                              |     .          |          size: 4 0xf95.4-0xf95.7 (0.4)
0x0f90|                  02 1c 45 ec                  |      ..E.      |          value: 35407340 0xf96-0xf99.7 (4)
      |                                               |                |      [83]{}: entry 0xb1-0xf9e.7 (3822)
0x00b0|   00 54                                       | .T             |        key_index: 84 0xb1-0xb2.7 (2)
0x01b0|   00 d4                                       | ..             |        value_index: 212 0x1b1-0x1b2.7 (2)
      |                                               |                |        key{}: 0x9c9-0x9e0.7 (24)
0x09c0|                           5f                  |         _      |          type: "ascii_string" (5) (ASCII encoded string) 0x9c9-0x9c9.3 (0.4)
0x09c0|                           5f                  |         _      |          size_bits: 15 0x9c9.4-0x9c9.7 (0.4)
0x09c0|                              10               |          .     |          large_size_marker: 1 (valid) 0x9ca-0x9ca.3 (0.4)
0x09c0|                              10               |          .     |          exponent: 0 0x9ca.4-0x9ca.7 (0.4)
0x09c0|                                 15            |           .    |          size_bigint: 21 0x9cb-0x9cb.7 (1)
      |                                               |                |          size: 21
0x09c0|                                    48 53 54 53|            HSTS|          value: "HSTS 12635433 Version" 0x9cc-0x9e0.7 (21)
0x09d0|20 31 32 36 33 35 34 33 33 20 56 65 72 73 69 6f| 12635433 Versio|
0x09e0|6e                                             |n               |
      |                                               |                |        value{}: 0xf9a-0xf9e.7 (5)
0x0f90|                              12               |          .     |          type: "int" (1) (Integer) 0xf9a-0xf9a.3 (0.4)
0x0f90|                              12               |          .     |          size: 4 0xf9a.4-0xf9a.7 (0.4)
0x0f90|                                 02 e1 d5 41   |           ...A |          value: 48354625 0xf9b-0xf9e.7 (4)
      |                                               |                |      [84]{}: entry 0xb3-0xfa3.7 (3825)
0x00b0|         00 55                                 |   .U           |        key_index: 85 0xb3-0xb4.7 (2)
0x01b0|         00 d5                                 |   ..           |        value_index: 213 0x1b3-0x1b4.7 (2)
      |                                               |                |        key{}: 0x9e1-0x9f7.7 (23)
0x09e0|   5f                                          | _              |          type: "ascii_string" (5) (ASCII encoded string) 0x9e1-0x9e1.3 (0.4)
0x09e0|   5f                                          | _              |          size_bits: 15 0x9e1.4-0x9e1.7 (0.4)
0x09e0|      10                                       |  .             |          large_size_marker: 1 (valid) 0x9e2-0x9e2.3 (0.4)
0x09e0|      10                                       |  .             |          exponent: 0 0x9e2.4-0x9e2.7 (0.4)
0x09e0|         14                                    |   .            |          size_bigint: 20 0x9e3-0x9e3.7 (1)
      |                                               |                |          size: 20
0x09e0|            48 53 54 53 20 37 32 33 36 31 31 36|    HSTS 7236116|          value: "HSTS 7236116 Version" 0x9e4-0x9f7.7 (20)
0x09f0|20 56 65 72 73 69 6f 6e                        | Version        |
      |                                               |                |        value{}: 0xf9f-0xfa3.7 (5)
0x0f90|                                             12|               .|          type: "int" (1) (Integer) 0xf9f-0xf9f.3 (0.4)
0x0f90|                                             12|               .|          size: 4 0xf9f.4-0xf9f.7 (0.4)
0x0fa0|01 d2 ac 80                                    |....            |          value: 30583936 0xfa0-0xfa3.7 (4)
      |                                               |                |      [85]{}: entry 0xb5-0xfa8.7 (3828)
0x00b0|               00 56                           |     .V         |        key_index: 86 0xb5-0xb6.7 (2)
0x01b0|               00 d6                           |     ..         |        value_index: 214 0x1b5-0x1b6.7 (2)
      |                                               |                |        key{}: 0x9f8-0xa0f.7 (24)
0x09f0|                        5f                     |        _       |          type: "ascii_string" (5) (ASCII encoded string) 0x9f8-0x9f8.3 (0.4)
0x09f0|                        5f                     |        _       |          size_bits: 15 0x9f8.4-0x9f8.7 (0.4)
0x09f0|                           10                  |         .      |          large_size_marker: 1 (valid) 0x9f9-0x9f9.3 (0.4)
0x09f0|                           10                  |         .      |          exponent: 0 0x9f9.4-0x9f9.7 (0.4)
0x09f0|                              15               |          .     |          size_bigint: 21 0x9fa-0x9fa.7 (1)
      |                                               |                |          size: 21
0x09f0|                                 48 53 54 53 20|           HSTS |          value: "HSTS 39398895 Version" 0x9fb-0xa0f.7 (21)
0x0a00|33 39 33 39 38 38 39 35 20 56 65 72 73 69 6f 6e|39398895 Version|
      |                                               |                |        value{}: 0xfa4-0xfa8.7 (5)
0x0fa0|            12                                 |    .           |          type: "int" (1) (Integer) 0xfa4-0xfa4.3 (0.4)
0x0fa0|            12                                 |    .           |          size: 4 0xfa4.4-0xfa4.7 (0.4)
0x0fa0|               00 e4 1b ee                     |     ....       |          value: 14949358 0xfa5-0xfa8.7 (4)
      |                                               |                |      [86]{}: entry 0xb7-0xfad.7 (3831)
0x00b0|                     00 57                     |       .W       |        key_index: 87 0xb7-0xb8.7 (2)
0x01b0|                     00 d7                     |       ..       |        value_index: 215 0x1b7-0x1b8.7 (2)
      |                                               |                |        key{}: 0xa10-0xa27.7 (24)
0x0a10|5f                                             |_               |          type: "ascii_string" (5) (ASCII encoded string) 0xa10-0xa10.3 (0.4)
0x0a10|5f                                             |_               |          size_bits: 15 0xa10.4-0xa10.7 (0.4)
0x0a10|   10                                          | .              |          large_size_marker: 1 (valid) 0xa11-0xa11.3 (0.4)
0x0a10|   10                                          | .              |          exponent: 0 0xa11.4-0xa11.7 (0.4)
0x0a10|      15                                       |  .             |          size_bigint: 21 0xa12-0xa12.7 (1)
      |                                               |                |          size: 21
0x0a10|         48 53 54 53 20 33 34 31 31 36 35 39 30|   HSTS 34116590|          value: "HSTS 34116590 Version" 0xa13-0xa27.7 (21)
0x0a20|20 56 65 72 73 69 6f 6e                        | Version        |
      |                                               |                |        value{}: 0xfa9-0xfad.7 (5)
0x0fa0|                           12                  |         .      |          type: "int" (1) (Integer) 0xfa9-0xfa9.3 (0.4)
0x0fa0|                           12                  |         .      |          size: 4 0xfa9.4-0xfa9.7 (0.4)
0x0fa0|                              03 43 e5 08      |          .C..  |          value: 54781192 0xfaa-0xfad.7 (4)
      |                                               |                |      [87]{}: entry 0xb9-0xfb2.7 (3834)
0x00b0|                           00 58               |         .X     |        key_index: 88 0xb9-0xba.7 (2)
0x01b0|                           00 d8               |         ..     |        value_index: 216 0x1b9-0x1ba.7 (2)
      |                                               |                |        key{}: 0xa28-0xa3f.7 (24)
0x0a20|                        5f                     |        _       |          type: "ascii_string" (5) (ASCII encoded string) 0xa28-0xa28.3 (0.4)
0x0a20|                        5f                     |        _       |          size_bits: 15 0xa28.4-0xa28.7 (0.4)
0x0a20|                           10                  |         .      |          large_size_marker: 1 (valid) 0xa29-0xa29.3 (0.4)
0x0a20|                           10                  |         .      |          exponent: 0 0xa29.4-0xa29.7 (0.4)
0x0a20|                              15               |          .     |          size_bigint: 21 0xa2a-0xa2a.7 (1)
      |                                               |                |          size: 21
0x0a20|                                 48 53 54 53 20|           HSTS |          value: "HSTS 66438425 Version" 0xa2b-0xa3f.7 (21)
0x0a30|36 36 34 33 38 34 32 35 20 56 65 72 73 69 6f 6e|66438425 Version|
      |                                               |                |        value{}: 0xfae-0xfb2.7 (5)
0x0fa0|                                          12   |              . |          type: "int" (1) (Integer) 0xfae-0xfae.3 (0.4)
0x0fa0|                                          12   |              . |          size: 4 0xfae.4-0xfae.7 (0.4)
0x0fa0|                                             02|               .|          value: 39443722 0xfaf-0xfb2.7 (4)
0x0fb0|59 dd 0a                                       |Y..             |
      |                                               |                |      [88]{}: entry 0xbb-0xfb7.7 (3837)
0x00b0|                                 00 59         |           .Y   |        key_index: 89 0xbb-0xbc.7 (2)
0x01b0|                                 00 d9         |           ..   |        value_index: 217 0x1bb-0x1bc.7 (2)
      |                                               |                |        key{}: 0xa40-0xa57.7 (24)
0x0a40|5f                                             |_               |          type: "ascii_string" (5) (ASCII encoded string) 0xa40-0xa40.3 (0.4)
0x0a40|5f                                             |_               |          size_bits: 15 0xa40.4-0xa40.7 (0.4)
0x0a40|   10                                          | .              |          large_size_marker: 1 (valid) 0xa41-0xa41.3 (0.4)
0x0a40|   10                                          | .              |          exponent: 0 0xa41.4-0xa41.7 (0.4)
0x0a40|      15                                       |  .             |          size_bigint: 21 0xa42-0xa42.7 (1)
      |                                               |                |          size: 21
0x0a40|         48 53 54 53 20 36 33 32 30 30 35 36 38|   HSTS 63200568|          value: "HSTS 63200568 Version" 0xa43-0xa57.7 (21)
0x0a50|20 56 65 72 73 69 6f 6e                        | Version        |
      |                                               |                |        value{}: 0xfb3-0xfb7.7 (5)
0x0fb0|         12                                    |   .            |          type: "int" (1) (Integer) 0xfb3-0xfb3.3 (0.4)
0x0fb0|         12                                    |   .            |          size: 4 0xfb3.4-0xfb3.7 (0.4)
0x0fb0|            01 1d 33 f5                        |    ..3.        |          value: 18691061 0xfb4-0xfb7.7 (4)
      |                                               |                |      [89]{}: entry 0xbd-0xfbc.7 (3840)
0x00b0|                                       00 5a   |             .Z |        key_index: 90 0xbd-0xbe.7 (2)
0x01b0|                                       00 da   |             .. |        value_index: 218 0x1bd-0x1be.7 (2)
      |                                               |                |        key{}: 0xa58-0xa6f.7 (24)
0x0a50|                        5f                     |        _       |          type: "ascii_string" (5) (ASCII encoded string) 0xa58-0xa58.3 (0.4)
0x0a50|                        5f                     |        _       |          size_bits: 15 0xa58.4-0xa58.7 (0.4)
0x0a50|                           10                  |         .      |          large_size_marker: 1 (valid) 0xa59-0xa59.3 (0.4)
0x0a50|                           10                  |         .      |          exponent: 0 0xa59.4-0xa59.7 (0.4)
0x0a50|                              15               |          .     |          size_bigint: 21 0xa5a-0xa5a.7 (1)
      |                                               |                |          size: 21
0x0a50|                                 48 53 54 53 20|           HSTS |          value: "HSTS 50309259 Version" 0xa5b-0xa6f.7 (21)
0x0a60|35 30 33 30 39 32 35 39 20 56 65 72 73 69 6f 6e|50309259 Version|
      |                                               |                |        value{}: 0xfb8-0xfbc.7 (5)
0x0fb0|                        12                     |        .       |          type: "int" (1) (Integer) 0xfb8-0xfb8.3 (0.4)
0x0fb0|                        12                     |        .       |          size: 4 0xfb8.4-0xfb8.7 (0.4)
0x0fb0|                           04 1d 38 e5         |         ..8.   |          value: 69023973 0xfb9-0xfbc.7 (4)
      |                                               |                |      [90]{}: entry 0xbf-0xfc1.7 (3843)
0x00b0|                                             00|               .|        key_index: 91 0xbf-0xc0.7 (2)
0x00c0|5b                                             |[               |
0x01b0|                                             00|               .|        value_index: 219 0x1bf-0x1c0.7 (2)
0x01c0|db                                             |.               |
      |                                               |                |        key{}: 0xa70-0xa87.7 (24)
0x0a70|5f                                             |_               |          type: "ascii_string" (5) (ASCII encoded string) 0xa70-0xa70.3 (0.4)
0x0a70|5f                                             |_               |          size_bits: 15 0xa70.4-0xa70.7 (0.4)
0x0a70|   10                                          | .              |          large_size_marker: 1 (valid) 0xa71-0xa71.3 (0.4)
0x0a70|   10                                          | .              |          exponent: 0 0xa71.4-0xa71.7 (0.4)
0x0a70|      15                                       |  .             |          size_bigint: 21 0xa72-0xa72.7 (1)
      |                                               |                |          size: 21
0x0a70|         48 53 54 53 20 35 38 35 32 31 31 32 37|   HSTS 58521127|          value: "HSTS 58521127 Version" 0xa73-0xa87.7 (21)
0x0a80|20 56 65 72 73 69 6f 6e                        | Version        |
      |                                               |                |        value{}: 0xfbd-0xfc1.7 (5)
0x0fb0|                                       12      |             .  |          type: "int" (1) (Integer) 0xfbd-0xfbd.3 (0.4)
0x0fb0|                                       12      |             .  |          size: 4 0xfbd.4-0xfbd.7 (0.4)
0x0fb0|                                          05 d0|              ..|          value: 97535399 0xfbe-0xfc1.7 (4)
0x0fc0|45 a7                                          |E.              |
      |                                               |                |      [91]{}: entry 0xc1-0xfc6.7 (3846)
0x00c0|   00 5c                                       | .\             |        key_index: 92 0xc1-0xc2.7 (2)
0x01c0|   00 dc                                       | ..             |        value_index: 220 0x1c1-0x1c2.7 (2)
      |                                               |                |        key{}: 0xa88-0xa9f.7 (24)
0x0a80|                        5f                     |        _       |          type: "ascii_string" (5) (ASCII encoded string) 0xa88-0xa88.3 (0.4)
0x0a80|                        5f                     |        _       |          size_bits: 15 0xa88.4-0xa88.7 (0.4)
0x0a80|                           10                  |         .      |          large_size_marker: 1 (valid) 0xa89-0xa89.3 (0.4)
0x0a80|                           10                  |         .      |          exponent: 0 0xa89.4-0xa89.7 (0.4)
0x0a80|                              15               |          .     |          size_bigint: 21 0xa8a-0xa8a.7 (1)
      |                                               |                |          size: 21
0x0a80|                                 48 53 54 53 20|           HSTS |          value: "HSTS 21590016 Version" 0xa8b-0xa9f.7 (21)
0x0a90|32 31 35 39 30 30 31 36 20 56 65 72 73 69 6f 6e|21590016 Version|
      |                                               |                |        value{}: 0xfc2-0xfc6.7 (5)
0x0fc0|      12                                       |  .             |          type: "int" (1) (Integer) 0xfc2-0xfc2.3 (0.4)
0x0fc0|      12                                       |  .             |          size: 4 0xfc2.4-0xfc2.7 (0.4)
0x0fc0|         01 43 f4 fd                           |   .C..         |          value: 21230845 0xfc3-0xfc6.7 (4)
      |                                               |                |      [92]{}: entry 0xc3-0xfcb.7 (3849)
0x00c0|         00 5d                                 |   .]           |        key_index: 93 0xc3-0xc4.7 (2)
0x01c0|         00 dd                                 |   ..           |        value_index: 221 0x1c3-0x1c4.7 (2)
      |                                               |                |        key{}: 0xaa0-0xab7.7 (24)
0x0aa0|5f                                             |_               |          type: "ascii_string" (5) (ASCII encoded string) 0xaa0-0xaa0.3 (0.4)
0x0aa0|5f                                             |_               |          size_bits: 15 0xaa0.4-0xaa0.7 (0.4)
0x0aa0|   10                                          | .              |          large_size_marker: 1 (valid) 0xaa1-0xaa1.3 (0.4)
0x0aa0|   10                                          | .              |          exponent: 0 0xaa1.4-0xaa1.7 (0.4)
0x0aa0|      15                                       |  .             |          size_bigint: 21 0xaa2-0xaa2.7 (1)
      |                                               |                |          size: 21
0x0aa0|         48 53 54 53 20 32 35 37 37 34 32 33 32|   HSTS 25774232|          value: "HSTS 25774232 Version" 0xaa3-0xab7.7 (21)
0x0ab0|20 56 65 72 73 69 6f 6e                        | Version        |
      |                                               |                |        value{}: 0xfc7-0xfcb.7 (5)
0x0fc0|                     12                        |       .        |          type: "int" (1) (Integer) 0xfc7-0xfc7.3 (0.4)
0x0fc0|                     12                        |       .        |          size: 4 0xfc7.4-0xfc7.7 (0.4)
0x0fc0|                        01 b2 db da            |        ....    |          value: 28498906 0xfc8-0xfcb.7 (4)
      |                                               |                |      [93]{}: entry 0xc5-0xfd0.7 (3852)
0x00c0|               00 5e                           |     .^         |        key_index: 94 0xc5-0xc6.7 (2)
0x01c0|               00 de                           |     ..         |        value_index: 222 0x1c5-0x1c6.7 (2)
      |                                               |                |        key{}: 0xab8-0xacf.7 (24)
0x0ab0|                        5f                     |        _       |          type: "ascii_string" (5) (ASCII encoded string) 0xab8-0xab8.3 (0.4)
0x0ab0|                        5f                     |        _       |          size_bits: 15 0xab8.4-0xab8.7 (0.4)
0x0ab0|                           10                  |         .      |          large_size_marker: 1 (valid) 0xab9-0xab9.3 (0.4)
0x0ab0|                           10                  |         .      |          exponent: 0 0xab9.4-0xab9.7 (0.4)
0x0ab0|                              15               |          .     |          size_bigint: 21 0xaba-0xaba.7 (1)
      |                                               |                |          size: 21
0x0ab0|                                 48 53 54 53 20|           HSTS |          value: "HSTS 23002418 Version" 0xabb-0xacf.7 (21)
0x0ac0|32 33 30 30 32 34 31 38 20 56 65 72 73 69 6f 6e|23002418 Version|
      |                                               |                |        value{}: 0xfcc-0xfd0.7 (5)
0x0fc0|                                    12         |            .   |          type: "int" (1) (Integer) 0xfcc-0xfcc.3 (0.4)
0x0fc0|                                    12         |            .   |          size: 4 0xfcc.4-0xfcc.7 (0.4)
0x0fc0|                                       02 fb c3|             ...|          value: 50053888 0xfcd-0xfd0.7 (4)
0x0fd0|00                                             |.               |
      |                                               |                |      [94]{}: entry 0xc7-0xfd5.7 (3855)
0x00c0|                     00 5f                     |       ._       |        key_index: 95 0xc7-0xc8.7 (2)
0x01c0|                     00 df                     |       ..       |        value_index: 223 0x1c7-0x1c8.7 (2)
      |                                               |                |        key{}: 0xad0-0xae7.7 (24)
0x0ad0|5f                                             |_               |          type: "ascii_string" (5) (ASCII encoded string) 0xad0-0xad0.3 (0.4)
0x0ad0|5f                                             |_               |          size_bits: 15 0xad0.4-0xad0.7 (0.4)
0x0ad0|   10                                          | .              |          large_size_marker: 1 (valid) 0xad1-0xad1.3 (0.4)
0x0ad0|   10                                          | .              |          exponent: 0 0xad1.4-0xad1.7 (0.4)
0x0ad0|      15                                       |  .             |          size_bigint: 21 0xad2-0xad2.7 (1)
      |                                               |                |          size: 21
0x0ad0|         48 53 54 53 20 31 38 39 37 35 30 36 37|   HSTS 18975067|          value: "HSTS 18975067 Version" 0xad3-0xae7.7 (21)
0x0ae0|20 56 65 72 73 69 6f 6e                        | Version        |
      |                                               |                |        value{}: 0xfd1-0xfd5.7 (5)
0x0fd0|   12                                          | .              |          type: "int" (1) (Integer) 0xfd1-0xfd1.3 (0.4)
0x0fd0|   12                                          | .              |          size: 4 0xfd1.4-0xfd1.7 (0.4)
0x0fd0|      03 49 5d 22                              |  .I]"          |          value: 55139618 0xfd2-0xfd5.7 (4)
      |                                               |                |      [95]{}: entry 0xc9-0xfda.7 (3858)
0x00c0|                           00 60               |         .`     |        key_index: 96 0xc9-0xca.7 (2)
0x01c0|                           00 e0               |         ..     |        value_index: 224 0x1c9-0x1ca.7 (2)
      |                                               |                |        key{}: 0xae8-0xafe.7 (23)
0x0ae0|                        5f                     |        _       |          type: "ascii_string" (5) (ASCII encoded string) 0xae8-0xae8.3 (0.4)
0x0ae0|                        5f                     |        _       |          size_bits: 15 0xae8.4-0xae8.7 (0.4)
0x0ae0|                           10                  |         .      |          large_size_marker: 1 (valid) 0xae9-0xae9.3 (0.4)
0x0ae0|                           10                  |         .      |          exponent: 0 0xae9.4-0xae9.7 (0.4)
0x0ae0|                              14               |          .     |          size_bigint: 20 0xaea-0xaea.7 (1)
      |                                               |                |          size: 20
0x0ae0|                                 48 53 54 53 20|           HSTS |          value: "HSTS 6262357 Version" 0xaeb-0xafe.7 (20)
0x0af0|36 32 36 32 33 35 37 20 56 65 72 73 69 6f 6e   |6262357 Version |
      |                                               |                |        value{}: 0xfd6-0xfda.7 (5)
0x0fd0|                  12                           |      .         |          type: "int" (1) (Integer) 0xfd6-0xfd6.3 (0.4)
0x0fd0|                  12                           |      .         |          size: 4 0xfd6.4-0xfd6.7 (0.4)
0x0fd0|                     01 bf d7 f5               |       ....     |          value: 29349877 0xfd7-0xfda.7 (4)
      |                                               |                |      [96]{}: entry 0xcb-0xfdf.7 (3861)
0x00c0|                                 00 61         |           .a   |        key_index: 97 0xcb-0xcc.7 (2)
0x01c0|                                 00 e1         |           ..   |        value_index: 225 0x1cb-0x1cc.7 (2)
      |                                               |                |        key{}: 0xaff-0xb16.7 (24)
0x0af0|                                             5f|               _|          type: "ascii_string" (5) (ASCII encoded string) 0xaff-0xaff.3 (0.4)
0x0af0|                                             5f|               _|          size_bits: 15 0xaff.4-0xaff.7 (0.4)
0x0b00|10                                             |.               |          large_size_marker: 1 (valid) 0xb00-0xb00.3 (0.4)
0x0b00|10                                             |.               |          exponent: 0 0xb00.4-0xb00.7 (0.4)
0x0b00|   15                                          | .              |          size_bigint: 21 0xb01-0xb01.7 (1)
      |                                               |                |          size: 21
0x0b00|      48 53 54 53 20 32 35 39 32 31 32 38 36 20|  HSTS 25921286 |          value: "HSTS 25921286 Version" 0xb02-0xb16.7 (21)
0x0b10|56 65 72 73 69 6f 6e                           |Version         |
      |                                               |                |        value{}: 0xfdb-0xfdf.7 (5)
0x0fd0|                                 12            |           .    |          type: "int" (1) (Integer) 0xfdb-0xfdb.3 (0.4)
0x0fd0|                                 12            |           .    |          size: 4 0xfdb.4-0xfdb.7 (0.4)
0x0fd0|                                    00 a4 42 ad|            ..B.|          value: 10764973 0xfdc-0xfdf.7 (4)
      |                                               |                |      [97]{}: entry 0xcd-0xfe4.7 (3864)
0x00c0|                                       00 62   |             .b |        key_index: 98 0xcd-0xce.7 (2)
0x01c0|                                       00 e2   |             .. |        value_index: 226 0x1cd-0x1ce.7 (2)
      |                                               |                |        key{}: 0xb17-0xb2e.7 (24)
0x0b10|                     5f                        |       _        |          type: "ascii_string" (5) (ASCII encoded string) 0xb17-0xb17.3 (0.4)
0x0b10|                     5f                        |       _        |          size_bits: 15 0xb17.4-0xb17.7 (0.4)
0x0b10|                        10                     |        .       |          large_size_marker: 1 (valid) 0xb18-0xb18.3 (0.4)
0x0b10|                        10                     |        .       |          exponent: 0 0xb18.4-0xb18.7 (0.4)
0x0b10|                           15                  |         .      |          size_bigint: 21 0xb19-0xb19.7 (1)
      |                                               |                |          size: 21
0x0b10|                              48 53 54 53 20 32|          HSTS 2|          value: "HSTS 28027600 Version" 0xb1a-0xb2e.7 (21)
0x0b20|38 30 32 37 36 30 30 20 56 65 72 73 69 6f 6e   |8027600 Version |
      |                                               |                |        value{}: 0xfe0-0xfe4.7 (5)
0x0fe0|12                                             |.               |          type: "int" (1) (Integer) 0xfe0-0xfe0.3 (0.4)
0x0fe0|12                                             |.               |          size: 4 0xfe0.4-0xfe0.7 (0.4)
0x0fe0|   00 95 d9 8a                                 | ....           |          value: 9820554 0xfe1-0xfe4.7 (4)
      |                                               |                |      [98]{}: entry 0xcf-0xfe9.7 (3867)
0x00c0|                                             00|               .|        key_index: 99 0xcf-0xd0.7 (2)
0x00d0|63                                             |c               |
0x01c0|                                             00|               .|        value_index: 227 0x1cf-0x1d0.7 (2)
0x01d0|e3                                             |.               |
      |                                               |                |        key{}: 0xb2f-0xb46.7 (24)
0x0b20|                                             5f|               _|          type: "ascii_string" (5) (ASCII encoded string) 0xb2f-0xb2f.3 (0.4)
0x0b20|                                             5f|               _|          size_bits: 15 0xb2f.4-0xb2f.7 (0.4)
0x0b30|10                                             |.               |          large_size_marker: 1 (valid) 0xb30-0xb30.3 (0.4)
0x0b30|10                                             |.               |          exponent: 0 0xb30.4-0xb30.7 (0.4)
0x0b30|   15                                          | .              |          size_bigint: 21 0xb31-0xb31.7 (1)
      |                                               |                |          size: 21
0x0b30|      48 53 54 53 20 35 31 31 34 31 35 35 30 20|  HSTS 51141550 |          value: "HSTS 51141550 Version" 0xb32-0xb46.7 (21)
0x0b40|56 65 72 73 69 6f 6e                           |Version         |
      |                                               |                |        value{}: 0xfe5-0xfe9.7 (5)
0x0fe0|               12                              |     .          |          type: "int" (1) (Integer) 0xfe5-0xfe5.3 (0.4)
0x0fe0|               12                              |     .          |          size: 4 0xfe5.4-0xfe5.7 (0.4)
0x0fe0|                  03 73 04 0d                  |      .s..      |          value: 57869325 0xfe6-0xfe9.7 (4)
      |                                               |                |      [99]{}: entry 0xd1-0xfee.7 (3870)
0x00d0|   00 64                                       | .d             |        key_index: 100 0xd1-0xd2.7 (2)
0x01d0|   00 e4                                       | ..             |        value_index: 228 0x1d1-0x1d2.7 (2)
      |                                               |                |        key{}: 0xb47-0xb5e.7 (24)
0x0b40|                     5f                        |       _        |          type: "ascii_string" (5) (ASCII encoded string) 0xb47-0xb47.3 (0.4)
0x0b40|                     5f                        |       _        |          size_bits: 15 0xb47.4-0xb47.7 (0.4)
0x0b40|                        10                     |        .       |          large_size_marker: 1 (valid) 0xb48-0xb48.3 (0.4)
0x0b40|                        10                     |        .       |          exponent: 0 0xb48.4-0xb48.7 (0.4)
0x0b40|                           15                  |         .      |          size_bigint: 21 0xb49-0xb49.7 (1)
      |                                               |                |          size: 21
0x0b40|                              48 53 54 53 20 39|          HSTS 9|          value: "HSTS 98868433 Version" 0xb4a-0xb5e.7 (21)
0x0b50|38 38 36 38 34 33 33 20 56 65 72 73 69 6f 6e   |8868433 Version |
      |                                               |                |        value{}: 0xfea-0xfee.7 (5)
0x0fe0|                              12               |          .     |          type: "int" (1) (Integer) 0xfea-0xfea.3 (0.4)
0x0fe0|                              12               |          .     |          size: 4 0xfea.4-0xfea.7 (0.4)
0x0fe0|                                 02 27 56 20   |           .'V  |          value: 36132384 0xfeb-0xfee.7 (4)
      |                                               |                |      [100]{}: entry 0xd3-0xff3.7 (3873)
0x00d0|         00 65                                 |   .e           |        key_index: 101 0xd3-0xd4.7 (2)
0x01d0|         00 e5                                 |   ..           |        value_index: 229 0x1d3-0x1d4.7 (2)
      |                                               |                |        key{}: 0xb5f-0xb76.7 (24)
0x0b50|                                             5f|               _|          type: "ascii_string" (5) (ASCII encoded string) 0xb5f-0xb5f.3 (0.4)
0x0b50|                                             5f|               _|          size_bits: 15 0xb5f.4-0xb5f.7 (0.4)
0x0b60|10                                             |.               |          large_size_marker: 1 (valid) 0xb60-0xb60.3 (0.4)
0x0b60|10                                             |.               |          exponent: 0 0xb60.4-0xb60.7 (0.4)
0x0b60|   15                                          | .              |          size_bigint: 21 0xb61-0xb61.7 (1)
      |                                               |                |          size: 21
0x0b60|      48 53 54 53 20 31 36 34 37 30 38 38 31 20|  HSTS 16470881 |          value: "HSTS 16470881 Version" 0xb62-0xb76.7 (21)
0x0b70|56 65 72 73 69 6f 6e                           |Version         |
      |                                               |                |        value{}: 0xfef-0xff3.7 (5)
0x0fe0|                                             12|               .|          type: "int" (1) (Integer) 0xfef-0xfef.3 (0.4)
0x0fe0|                                             12|               .|          size: 4 0xfef.4-0xfef.7 (0.4)
0x0ff0|04 c0 f6 34                                    |...4            |          value: 79754804 0xff0-0xff3.7 (4)
      |                                               |                |      [101]{}: entry 0xd5-0xff8.7 (3876)
0x00d0|               00 66                           |     .f         |        key_index: 102 0xd5-0xd6.7 (2)
0x01d0|               00 e6                           |     ..         |        value_index: 230 0x1d5-0x1d6.7 (2)
      |                                               |                |        key{}: 0xb77-0xb8e.7 (24)
0x0b70|                     5f                        |       _        |          type: "ascii_string" (5) (ASCII encoded string) 0xb77-0xb77.3 (0.4)
0x0b70|                     5f                        |       _        |          size_bits: 15 0xb77.4-0xb77.7 (0.4)
0x0b70|                        10                     |        .       |          large_size_marker: 1 (valid) 0xb78-0xb78.3 (0.4)
0x0b70|                        10                     |        .       |          exponent: 0 0xb78.4-0xb78.7 (0.4)
0x0b70|                           15                  |         .      |          size_bigint: 21 0xb79-0xb79.7 (1)
      |                                               |                |          size: 21
0x0b70|                              48 53 54 53 20 31|          HSTS 1|          value: "HSTS 15032109 Version" 0xb7a-0xb8e.7 (21)
0x0b80|35 30 33 32 31 30 39 20 56 65 72 73 69 6f 6e   |5032109 Version |
      |                                               |                |        value{}: 0xff4-0xff8.7 (5)
0x0ff0|            12                                 |    .           |          type: "int" (1) (Integer) 0xff4-0xff4.3 (0.4)
0x0ff0|            12                                 |    .           |          size: 4 0xff4.4-0xff4.7 (0.4)
0x0ff0|               02 ad ec c3                     |     ....       |          value: 44952771 0xff5-0xff8.7 (4)
      |                                               |                |      [102]{}: entry 0xd7-0xffd.7 (3879)
0x00d0|                     00 67                     |       .g       |        key_index: 103 0xd7-0xd8.7 (2)
0x01d0|                     00 e7                     |       ..       |        value_index: 231 0x1d7-0x1d8.7 (2)
      |                                               |                |        key{}: 0xb8f-0xba6.7 (24)
0x0b80|                                             5f|               _|          type: "ascii_string" (5) (ASCII encoded string) 0xb8f-0xb8f.3 (0.4)
0x0b80|                                             5f|               _|          size_bits: 15 0xb8f.4-0xb8f.7 (0.4)
0x0b90|10                                             |.               |          large_size_marker: 1 (valid) 0xb90-0xb90.3 (0.4)
0x0b90|10                                             |.               |          exponent: 0 0xb90.4-0xb90.7 (0.4)
0x0b90|   15                                          | .              |          size_bigint: 21 0xb91-0xb91.7 (1)
      |                                               |                |          size: 21
0x0b90|      48 53 54 53 20 31 39 39 36 36 34 36 39 20|  HSTS 19966469 |          value: "HSTS 19966469 Version" 0xb92-0xba6.7 (21)
0x0ba0|56 65 72 73 69 6f 6e                           |Version         |
      |                                               |                |        value{}: 0xff9-0xffd.7 (5)
0x0ff0|                           12                  |         .      |          type: "int" (1) (Integer) 0xff9-0xff9.3 (0.4)
0x0ff0|                           12                  |         .      |          size: 4 0xff9.4-0xff9.7 (0.4)
0x0ff0|                              00 9b bb 39      |          ...9  |          value: 10206009 0xffa-0xffd.7 (4)
      |                                               |                |      [103]{}: entry 0xd9-0x1002.7 (3882)
0x00d0|                           00 68               |         .h     |        key_index: 104 0xd9-0xda.7 (2)
0x01d0|                           00 e8               |         ..     |        value_index: 232 0x1d9-0x1da.7 (2)
      |                                               |                |        key{}: 0xba7-0xbbe.7 (24)
0x0ba0|                     5f                        |       _        |          type: "ascii_string" (5) (ASCII encoded string) 0xba7-0xba7.3 (0.4)
0x0ba0|                     5f                        |       _        |          size_bits: 15 0xba7.4-0xba7.7 (0.4)
0x0ba0|                        10                     |        .       |          large_size_marker: 1 (valid) 0xba8-0xba8.3 (0.4)
0x0ba0|                        10                     |        .       |          exponent: 0 0xba8.4-0xba8.7 (0.4)
0x0ba0|                           15                  |         .      |          size_bigint: 21 0xba9-0xba9.7 (1)
      |                                               |                |          size: 21
0x0ba0|                              48 53 54 53 20 31|          HSTS 1|          value: "HSTS 15708506 Version" 0xbaa-0xbbe.7 (21)
0x0bb0|35 37 30 38 35 30 36 20 56 65 72 73 69 6f 6e   |5708506 Version |
      |                                               |                |        value{}: 0xffe-0x1002.7 (5)
0x0ff0|                                          12   |              . |          type: "int" (1) (Integer) 0xffe-0xffe.3 (0.4)
0x0ff0|                                          12   |              . |          size: 4 0xffe.4-0xffe.7 (0.4)
0x0ff0|                                             04|               .|          value: 73773846 0xfff-0x1002.7 (4)
0x1000|65 b3 16                                       |e..             |
      |                                               |                |      [104]{}: entry 0xdb-0x1007.7 (3885)
0x00d0|                                 00 69         |           .i   |        key_index: 105 0xdb-0xdc.7 (2)
0x01d0|                                 00 e9         |           ..   |        value_index: 233 0x1db-0x1dc.7 (2)
      |                                               |                |        key{}: 0xbbf-0xbd6.7 (24)
0x0bb0|                                             5f|               _|          type: "ascii_string" (5) (ASCII encoded string) 0xbbf-0xbbf.3 (0.4)
0x0bb0|                                             5f|               _|          size_bits: 15 0xbbf.4-0xbbf.7 (0.4)
0x0bc0|10                                             |.               |          large_size_marker: 1 (valid) 0xbc0-0xbc0.3 (0.4)
0x0bc0|10                                             |.               |          exponent: 0 0xbc0.4-0xbc0.7 (0.4)
0x0bc0|   15                                          | .              |          size_bigint: 21 0xbc1-0xbc1.7 (1)
      |                                               |                |          size: 21
0x0bc0|      48 53 54 53 20 33 35 33 37 30 38 30 37 20|  HSTS 35370807 |          value: "HSTS 35370807 Version" 0xbc2-0xbd6.7 (21)
0x0bd0|56 65 72 73 69 6f 6e                           |Version         |
      |                                               |                |        value{}: 0x1003-0x1007.7 (5)
0x1000|         12                                    |   .            |          type: "int" (1) (Integer) 0x1003-0x1003.3 (0.4)
0x1000|         12                                    |   .            |          size: 4 0x1003.4-0x1003.7 (0.4)
0x1000|            03 c3 8c cd                        |    ....        |          value: 63147213 0x1004-0x1007.7 (4)
      |                                               |                |      [105]{}: entry 0xdd-0x100c.7 (3888)
0x00d0|                                       00 6a   |             .j |        key_index: 106 0xdd-0xde.7 (2)
0x01d0|                                       00 ea   |             .. |        value_index: 234 0x1dd-0x1de.7 (2)
      |                                               |                |        key{}: 0xbd7-0xbee.7 (24)
0x0bd0|                     5f                        |       _        |          type: "ascii_string" (5) (ASCII encoded string) 0xbd7-0xbd7.3 (0.4)
0x0bd0|                     5f                        |       _        |          size_bits: 15 0xbd7.4-0xbd7.7 (0.4)
0x0bd0|                        10                     |        .       |          large_size_marker: 1 (valid) 0xbd8-0xbd8.3 (0.4)
0x0bd0|                        10                     |        .       |          exponent: 0 0xbd8.4-0xbd8.7 (0.4)
0x0bd0|                           15                  |         .      |          size_bigint: 21 0xbd9-0xbd9.7 (1)
      |                                               |                |          size: 21
0x0bd0|                              48 53 54 53 20 31|          HSTS 1|          value: "HSTS 12927993 Version" 0xbda-0xbee.7 (21)
0x0be0|32 39 32 37 39 39 33 20 56 65 72 73 69 6f 6e   |2927993 Version |
      |                                               |                |        value{}: 0x1008-0x100c.7 (5)
0x1000|                        12                     |        .       |          type: "int" (1) (Integer) 0x1008-0x1008.3 (0.4)
0x1000|                        12                     |        .       |          size: 4 0x1008.4-0x1008.7 (0.4)
0x1000|                           03 00 22 94         |         ..".   |          value: 50340500 0x1009-0x100c.7 (4)
      |                                               |                |      [106]{}: entry 0xdf-0x1011.7 (3891)
0x00d0|                                             00|               .|        key_index: 107 0xdf-0xe0.7 (2)
0x00e0|6b                                             |k               |
0x01d0|                                             00|               .|        value_index: 235 0x1df-0x1e0.7 (2)
0x01e0|eb                                             |.               |
      |                                               |                |        key{}: 0xbef-0xc06.7 (24)
0x0be0|                                             5f|               _|          type: "ascii_string" (5) (ASCII encoded string) 0xbef-0xbef.3 (0.4)
0x0be0|                                             5f|               _|          size_bits: 15 0xbef.4-0xbef.7 (0.4)
0x0bf0|10                                             |.               |          large_size_marker: 1 (valid) 0xbf0-0xbf0.3 (0.4)
0x0bf0|10                                             |.               |          exponent: 0 0xbf0.4-0xbf0.7 (0.4)
0x0bf0|   15                                          | .              |          size_bigint: 21 0xbf1-0xbf1.7 (1)
      |                                               |                |          size: 21
0x0bf0|      48 53 54 53 20 37 31 38 31 31 35 32 37 20|  HSTS 71811527 |          value: "HSTS 71811527 Version" 0xbf2-0xc06.7 (21)
0x0c00|56 65 72 73 69 6f 6e                           |Version         |
      |                                               |                |        value{}: 0x100d-0x1011.7 (5)
0x1000|                                       12      |             .  |          type: "int" (1) (Integer) 0x100d-0x100d.3 (0.4)
0x1000|                                       12      |             .  |          size: 4 0x100d.4-0x100d.7 (0.4)
0x1000|                                          03 55|              .U|          value: 55962466 0x100e-0x1011.7 (4)
0x1010|eb 62                                          |.b              |
      |                                               |                |      [107]{}: entry 0xe1-0x1016.7 (3894)
0x00e0|   00 6c                                       | .l             |        key_index: 108 0xe1-0xe2.7 (2)
0x01e0|   00 ec                                       | ..             |        value_index: 236 0x1e1-0x1e2.7 (2)
      |                                               |                |        key{}: 0xc07-0xc1e.7 (24)
0x0c00|                     5f                        |       _        |          type: "ascii_string" (5) (ASCII encoded string) 0xc07-0xc07.3 (0.4)
0x0c00|                     5f                        |       _        |          size_bits: 15 0xc07.4-0xc07.7 (0.4)
0x0c00|                        10                     |        .       |          large_size_marker: 1 (valid) 0xc08-0xc08.3 (0.4)
0x0c00|                        10                     |        .       |          exponent: 0 0xc08.4-0xc08.7 (0.4)
0x0c00|                           15                  |         .      |          size_bigint: 21 0xc09-0xc09.7 (1)
      |                                               |                |          size: 21
0x0c00|                              48 53 54 53 20 35|          HSTS 5|          value: "HSTS 52866208 Version" 0xc0a-0xc1e.7 (21)
0x0c10|32 38 36 36 32 30 38 20 56 65 72 73 69 6f 6e   |2866208 Version |
      |                                               |                |        value{}: 0x1012-0x1016.7 (5)
0x1010|      12                                       |  .             |          type: "int" (1) (Integer) 0x1012-0x1012.3 (0.4)
0x1010|      12                                       |  .             |          size: 4 0x1012.4-0x1012.7 (0.4)
0x1010|         00 47 e7 ea                           |   .G..         |          value: 4712426 0x1013-0x1016.7 (4)
      |                                               |                |      [108]{}: entry 0xe3-0x101b.7 (3897)
0x00e0|         00 6d                                 |   .m           |        key_index: 109 0xe3-0xe4.7 (2)
0x01e0|         00 ed                                 |   ..           |        value_index: 237 0x1e3-0x1e4.7 (2)
      |                                               |                |        key{}: 0xc1f-0xc36.7 (24)
0x0c10|                                             5f|               _|          type: "ascii_string" (5) (ASCII encoded string) 0xc1f-0xc1f.3 (0.4)
0x0c10|                                             5f|               _|          size_bits: 15 0xc1f.4-0xc1f.7 (0.4)
0x0c20|10                                             |.               |          large_size_marker: 1 (valid) 0xc20-0xc20.3 (0.4)
0x0c20|10                                             |.               |          exponent: 0 0xc20.4-0xc20.7 (0.4)
0x0c20|   15                                          | .              |          size_bigint: 21 0xc21-0xc21.7 (1)
      |                                               |                |          size: 21
0x0c20|      48 53 54 53 20 33 30 34 34 31 33 34 30 20|  HSTS 30441340 |          value: "HSTS 30441340 Version" 0xc22-0xc36.7 (21)
0x0c30|56 65 72 73 69 6f 6e                           |Version         |
      |                                               |                |        value{}: 0x1017-0x101b.7 (5)
0x1010|                     12                        |       .        |          type: "int" (1) (Integer) 0x1017-0x1017.3 (0.4)
0x1010|                     12                        |       .        |          size: 4 0x1017.4-0x1017.7 (0.4)
0x1010|                        05 f3 1f 95            |        ....    |          value: 99819413 0x1018-0x101b.7 (4)
      |                                               |                |      [109]{}: entry 0xe5-0x1020.7 (3900)
0x00e0|               00 6e                           |     .n         |        key_index: 110 0xe5-0xe6.7 (2)
0x01e0|               00 ee                           |     ..         |        value_index: 238 0x1e5-0x1e6.7 (2)
      |                                               |                |        key{}: 0xc37-0xc4e.7 (24)
0x0c30|                     5f                        |       _        |          type: "ascii_string" (5) (ASCII encoded string) 0xc37-0xc37.3 (0.4)
0x0c30|                     5f                        |       _        |          size_bits: 15 0xc37.4-0xc37.7 (0.4)
0x0c30|                        10                     |        .       |          large_size_marker: 1 (valid) 0xc38-0xc38.3 (0.4)
0x0c30|                        10                     |        .       |          exponent: 0 0xc38.4-0xc38.7 (0.4)
0x0c30|                           15                  |         .      |          size_bigint: 21 0xc39-0xc39.7 (1)
      |                                               |                |          size: 21
0x0c30|                              48 53 54 53 20 33|          HSTS 3|          value: "HSTS 39491929 Version" 0xc3a-0xc4e.7 (21)
0x0c40|39 34 39 31 39 32 39 20 56 65 72 73 69 6f 6e   |9491929 Version |
      |                                               |                |        value{}: 0x101c-0x1020.7 (5)
0x1010|                                    12         |            .   |          type: "int" (1) (Integer) 0x101c-0x101c.3 (0.4)
0x1010|                                    12         |            .   |          size: 4 0x101c.4-0x101c.7 (0.4)
0x1010|                                       00 29 72|             .)r|          value: 2716275 0x101d-0x1020.7 (4)
0x1020|73                                             |s               |
      |                                               |                |      [110]{}: entry 0xe7-0x1025.7 (3903)
0x00e0|                     00 6f                     |       .o       |        key_index: 111 0xe7-0xe8.7 (2)
0x01e0|                     00 ef                     |       ..       |        value_index: 239 0x1e7-0x1e8.7 (2)
      |                                               |                |        key{}: 0xc4f-0xc65.7 (23)
0x0c40|                                             5f|               _|          type: "ascii_string" (5) (ASCII encoded string) 0xc4f-0xc4f.3 (0.4)
0x0c40|                                             5f|               _|          size_bits: 15 0xc4f.4-0xc4f.7 (0.4)
0x0c50|10                                             |.               |          large_size_marker: 1 (valid) 0xc50-0xc50.3 (0.4)
0x0c50|10                                             |.               |          exponent: 0 0xc50.4-0xc50.7 (0.4)
0x0c50|   14                                          | .              |          size_bigint: 20 0xc51-0xc51.7 (1)
      |                                               |                |          size: 20
0x0c50|      48 53 54 53 20 39 35 39 31 32 34 36 20 56|  HSTS 9591246 V|          value: "HSTS 9591246 Version" 0xc52-0xc65.7 (20)
0x0c60|65 72 73 69 6f 6e                              |ersion          |
      |                                               |                |        value{}: 0x1021-0x1025.7 (5)
0x1020|   12                                          | .              |          type: "int" (1) (Integer) 0x1021-0x1021.3 (0.4)
0x1020|   12                                          | .              |          size: 4 0x1021.4-0x1021.7 (0.4)
0x1020|      05 51 1f 8d                              |  .Q..          |          value: 89202573 0x1022-0x1025.7 (4)
      |                                               |                |      [111]{}: entry 0xe9-0x102a.7 (3906)
0x00e0|                           00 70               |         .p     |        key_index: 112 0xe9-0xea.7 (2)
0x01e0|                           00 f0               |         ..     |        value_index: 240 0x1e9-0x1ea.7 (2)
      |                                               |                |        key{}: 0xc66-0xc7c.7 (23)
0x0c60|                  5f                           |      _         |          type: "ascii_string" (5) (ASCII encoded string) 0xc66-0xc66.3 (0.4)
0x0c60|                  5f                           |      _         |          size_bits: 15 0xc66.4-0xc66.7 (0.4)
0x0c60|                     10                        |       .        |          large_size_marker: 1 (valid) 0xc67-0xc67.3 (0.4)
0x0c60|                     10                        |       .        |          exponent: 0 0xc67.4-0xc67.7 (0.4)
0x0c60|                        14                     |        .       |          size_bigint: 20 0xc68-0xc68.7 (1)
      |                                               |                |          size: 20
0x0c60|                           48 53 54 53 20 34 37|         HSTS 47|          value: "HSTS 4721158 Version" 0xc69-0xc7c.7 (20)
0x0c70|32 31 31 35 38 20 56 65 72 73 69 6f 6e         |21158 Version   |
      |                                               |                |        value{}: 0x1026-0x102a.7 (5)
0x1020|                  12                           |      .         |          type: "int" (1) (Integer) 0x1026-0x1026.3 (0.4)
0x1020|                  12                           |      .         |          size: 4 0x1026.4-0x1026.7 (0.4)
0x1020|                     03 6c 6f 85               |       .lo.     |          value: 57438085 0x1027-0x102a.7 (4)
      |                                               |                |      [112]{}: entry 0xeb-0x102f.7 (3909)
0x00e0|                                 00 71         |           .q   |        key_index: 113 0xeb-0xec.7 (2)
0x01e0|                                 00 f1         |           ..   |        value_index: 241 0x1eb-0x1ec.7 (2)
      |                                               |                |        key{}: 0xc7d-0xc94.7 (24)
0x0c70|                                       5f      |             _  |          type: "ascii_string" (5) (ASCII encoded string) 0xc7d-0xc7d.3 (0.4)
0x0c70|                                       5f      |             _  |          size_bits: 15 0xc7d.4-0xc7d.7 (0.4)
0x0c70|                                          10   |              . |          large_size_marker: 1 (valid) 0xc7e-0xc7e.3 (0.4)
0x0c70|                                          10   |              . |          exponent: 0 0xc7e.4-0xc7e.7 (0.4)
0x0c70|                                             15|               .|          size_bigint: 21 0xc7f-0xc7f.7 (1)
      |                                               |                |          size: 21
0x0c80|48 53 54 53 20 36 30 31 35 39 38 34 34 20 56 65|HSTS 60159844 Ve|          value: "HSTS 60159844 Version" 0xc80-0xc94.7 (21)
0x0c90|72 73 69 6f 6e                                 |rsion           |
      |                                               |                |        value{}: 0x102b-0x102f.7 (5)
0x1020|                                 12            |           .    |          type: "int" (1) (Integer) 0x102b-0x102b.3 (0.4)
0x1020|                                 12            |           .    |          size: 4 0x102b.4-0x102b.7 (0.4)
0x1020|                                    03 ef 40 dd|            ..@.|          value: 66011357 0x102c-0x102f.7 (4)
      |                                               |                |      [113]{}: entry 0xed-0x1034.7 (3912)
0x00e0|                                       00 72   |             .r |        key_index: 114 0xed-0xee.7 (2)
0x01e0|                                       00 f2   |             .. |        value_index: 242 0x1ed-0x1ee.7 (2)
      |                                               |                |        key{}: 0xc95-0xcac.7 (24)
0x0c90|               5f                              |     _          |          type: "ascii_string" (5) (ASCII encoded string) 0xc95-0xc95.3 (0.4)
0x0c90|               5f                              |     _          |          size_bits: 15 0xc95.4-0xc95.7 (0.4)
0x0c90|                  10                           |      .         |          large_size_marker: 1 (valid) 0xc96-0xc96.3 (0.4)
0x0c90|                  10                           |      .         |          exponent: 0 0xc96.4-0xc96.7 (0.4)
0x0c90|                     15                        |       .        |          size_bigint: 21 0xc97-0xc97.7 (1)
      |                                               |                |          size: 21
0x0c90|                        48 53 54 53 20 36 35 33|        HSTS 653|          value: "HSTS 65306743 Version" 0xc98-0xcac.7 (21)
0x0ca0|30 36 37 34 33 20 56 65 72 73 69 6f 6e         |06743 Version   |
      |                                               |                |        value{}: 0x1030-0x1034.7 (5)
0x1030|12                                             |.               |          type: "int" (1) (Integer) 0x1030-0x1030.3 (0.4)
0x1030|12                                             |.               |          size: 4 0x1030.4-0x1030.7 (0.4)
0x1030|   04 42 10 0a                                 | .B..           |          value: 71438346 0x1031-0x1034.7 (4)
      |                                               |                |      [114]{}: entry 0xef-0x1039.7 (3915)
0x00e0|                                             00|               .|        key_index: 115 0xef-0xf0.7 (2)
0x00f0|73                                             |s               |
0x01e0|                                             00|               .|        value_index: 243 0x1ef-0x1f0.7 (2)
0x01f0|f3                                             |.               |
      |                                               |                |        key{}: 0xcad-0xcc4.7 (24)
0x0ca0|                                       5f      |             _  |          type: "ascii_string" (5) (ASCII encoded string) 0xcad-0xcad.3 (0.4)
0x0ca0|                                       5f      |             _  |          size_bits: 15 0xcad.4-0xcad.7 (0.4)
0x0ca0|                                          10   |              . |          large_size_marker: 1 (valid) 0xcae-0xcae.3 (0.4)
0x0ca0|                                          10   |              . |          exponent: 0 0xcae.4-0xcae.7 (0.4)
0x0ca0|                                             15|               .|          size_bigint: 21 0xcaf-0xcaf.7 (1)
      |                                               |                |          size: 21
0x0cb0|48 53 54 53 20 36 33 34 37 37 37 38 33 20 56 65|HSTS 63477783 Ve|          value: "HSTS 63477783 Version" 0xcb0-0xcc4.7 (21)
0x0cc0|72 73 69 6f 6e                                 |rsion           |
      |                                               |                |        value{}: 0x1035-0x1039.7 (5)
0x1030|               12                              |     .          |          type: "int" (1) (Integer) 0x1035-0x1035.3 (0.4)
0x1030|               12                              |     .          |          size: 4 0x1035.4-0x1035.7 (0.4)
0x1030|                  00 67 54 d1                  |      .gT.      |          value: 6771921 0x1036-0x1039.7 (4)
      |                                               |                |      [115]{}: entry 0xf1-0x103e.7 (3918)
0x00f0|   00 74                                       | .t             |        key_index: 116 0xf1-0xf2.7 (2)
0x01f0|   00 f4                                       | ..             |        value_index: 244 0x1f1-0x1f2.7 (2)
      |                                               |                |        key{}: 0xcc5-0xcdc.7 (24)
0x0cc0|               5f                              |     _          |          type: "ascii_string" (5) (ASCII encoded string) 0xcc5-0xcc5.3 (0.4)
0x0cc0|               5f                              |     _          |          size_bits: 15 0xcc5.4-0xcc5.7 (0.4)
0x0cc0|                  10                           |      .         |          large_size_marker: 1 (valid) 0xcc6-0xcc6.3 (0.4)
0x0cc0|                  10                           |      .         |          exponent: 0 0xcc6.4-0xcc6.7 (0.4)
0x0cc0|                     15                        |       .        |          size_bigint: 21 0xcc7-0xcc7.7 (1)
      |                                               |                |          size: 21
0x0cc0|                        48 53 54 53 20 35 30 34|        HSTS 504|          value: "HSTS 50471628 Version" 0xcc8-0xcdc.7 (21)
0x0cd0|37 31 36 32 38 20 56 65 72 73 69 6f 6e         |71628 Version   |
      |                                               |                |        value{}: 0x103a-0x103e.7 (5)
0x1030|                              12               |          .     |          type: "int" (1) (Integer) 0x103a-0x103a.3 (0.4)
0x1030|                              12               |          .     |          size: 4 0x103a.4-0x103a.7 (0.4)
0x1030|                                 01 fb 6a 00   |           ..j. |          value: 33253888 0x103b-0x103e.7 (4)
      |                                               |                |      [116]{}: entry 0xf3-0x1043.7 (3921)
0x00f0|         00 75                                 |   .u           |        key_index: 117 0xf3-0xf4.7 (2)
0x01f0|         00 f5                                 |   ..           |        value_index: 245 0x1f3-0x1f4.7 (2)
      |                                               |                |        key{}: 0xcdd-0xcf4.7 (24)
0x0cd0|                                       5f      |             _  |          type: "ascii_string" (5) (ASCII encoded string) 0xcdd-0xcdd.3 (0.4)
0x0cd0|                                       5f      |             _  |          size_bits: 15 0xcdd.4-0xcdd.7 (0.4)
0x0cd0|                                          10   |              . |          large_size_marker: 1 (valid) 0xcde-0xcde.3 (0.4)
0x0cd0|                                          10   |              . |          exponent: 0 0xcde.4-0xcde.7 (0.4)
0x0cd0|                                             15|               .|          size_bigint: 21 0xcdf-0xcdf.7 (1)
      |                                               |                |          size: 21
0x0ce0|48 53 54 53 20 34 34 35 30 30 35 30 33 20 56 65|HSTS 44500503 Ve|          value: "HSTS 44500503 Version" 0xce0-0xcf4.7 (21)
0x0cf0|72 73 69 6f 6e                                 |rsion           |
      |                                               |                |        value{}: 0x103f-0x1043.7 (5)
0x1030|                                             12|               .|          type: "int" (1) (Integer) 0x103f-0x103f.3 (0.4)
0x1030|                                             12|               .|          size: 4 0x103f.4-0x103f.7 (0.4)
0x1040|03 2a 36 35                                    |.*65            |          value: 53098037 0x1040-0x1043.7 (4)
      |                                               |                |      [117]{}: entry 0xf5-0x1048.7 (3924)
0x00f0|               00 76                           |     .v         |        key_index: 118 0xf5-0xf6.7 (2)
0x01f0|               00 f6                           |     ..         |        value_index: 246 0x1f5-0x1f6.7 (2)
      |                                               |                |        key{}: 0xcf5-0xd0c.7 (24)
0x0cf0|               5f                              |     _          |          type: "ascii_string" (5) (ASCII encoded string) 0xcf5-0xcf5.3 (0.4)
0x0cf0|               5f                              |     _          |          size_bits: 15 0xcf5.4-0xcf5.7 (0.4)
0x0cf0|                  10                           |      .         |          large_size_marker: 1 (valid) 0xcf6-0xcf6.3 (0.4)
0x0cf0|                  10                           |      .         |          exponent: 0 0xcf6.4-0xcf6.7 (0.4)
0x0cf0|                     15                        |       .        |          size_bigint: 21 0xcf7-0xcf7.7 (1)
      |                                               |                |          size: 21
0x0cf0|                        48 53 54 53 20 37 39 34|        HSTS 794|          value: "HSTS 79471110 Version" 0xcf8-0xd0c.7 (21)
0x0d00|37 31 31 31 30 20 56 65 72 73 69 6f 6e         |71110 Version   |
      |                                               |                |        value{}: 0x1044-0x1048.7 (5)
0x1040|            12                                 |    .           |          type: "int" (1) (Integer) 0x1044-0x1044.3 (0.4)
0x1040|            12                                 |    .           |          size: 4 0x1044.4-0x1044.7 (0.4)
0x1040|               00 20 74 99                     |     . t.       |          value: 2127001 0x1045-0x1048.7 (4)
      |                                               |                |      [118]{}: entry 0xf7-0x104d.7 (3927)
0x00f0|                     00 77                     |       .w       |        key_index: 119 0xf7-0xf8.7 (2)
0x01f0|                     00 f7                     |       ..       |        value_index: 247 0x1f7-0x1f8.7 (2)
      |                                               |                |        key{}: 0xd0d-0xd23.7 (23)
0x0d00|                                       5f      |             _  |          type: "ascii_string" (5) (ASCII encoded string) 0xd0d-0xd0d.3 (0.4)
0x0d00|                                       5f      |             _  |          size_bits: 15 0xd0d.4-0xd0d.7 (0.4)
0x0d00|                                          10   |              . |          large_size_marker: 1 (valid) 0xd0e-0xd0e.3 (0.4)
0x0d00|                                          10   |              . |          exponent: 0 0xd0e.4-0xd0e.7 (0.4)
0x0d00|                                             14|               .|          size_bigint: 20 0xd0f-0xd0f.7 (1)
      |                                               |                |          size: 20
0x0d10|48 53 54 53 20 33 34 39 37 31 32 36 20 56 65 72|HSTS 3497126 Ver|          value: "HSTS 3497126 Version" 0xd10-0xd23.7 (20)
0x0d20|73 69 6f 6e                                    |sion            |
      |                                               |                |        value{}: 0x1049-0x104d.7 (5)
0x1040|                           12                  |         .      |          type: "int" (1) (Integer) 0x1049-0x1049.3 (0.4)
0x1040|                           12                  |         .      |          size: 4 0x1049.4-0x1049.7 (0.4)
0x1040|                              02 37 7f ba      |          .7..  |          value: 37191610 0x104a-0x104d.7 (4)
      |                                               |                |      [119]{}: entry 0xf9-0x1052.7 (3930)
0x00f0|                           00 78               |         .x     |        key_index: 120 0xf9-0xfa.7 (2)
0x01f0|                           00 f8               |         ..     |        value_index: 248 0x1f9-0x1fa.7 (2)
      |                                               |                |        key{}: 0xd24-0xd3b.7 (24)
0x0d20|            5f                                 |    _           |          type: "ascii_string" (5) (ASCII encoded string) 0xd24-0xd24.3 (0.4)
0x0d20|            5f                                 |    _           |          size_bits: 15 0xd24.4-0xd24.7 (0.4)
0x0d20|               10                              |     .          |          large_size_marker: 1 (valid) 0xd25-0xd25.3 (0.4)
0x0d20|               10                              |     .          |          exponent: 0 0xd25.4-0xd25.7 (0.4)
0x0d20|                  15                           |      .         |          size_bigint: 21 0xd26-0xd26.7 (1)
      |                                               |                |          size: 21
0x0d20|                     48 53 54 53 20 37 35 36 33|       HSTS 7563|          value: "HSTS 75630666 Version" 0xd27-0xd3b.7 (21)
0x0d30|30 36 36 36 20 56 65 72 73 69 6f 6e            |0666 Version    |
      |                                               |                |        value{}: 0x104e-0x1052.7 (5)
0x1040|                                          12   |              . |          type: "int" (1) (Integer) 0x104e-0x104e.3 (0.4)
0x1040|                                          12   |              . |          size: 4 0x104e.4-0x104e.7 (0.4)
0x1040|                                             04|               .|          value: 82444963 0x104f-0x1052.7 (4)
0x1050|ea 02 a3                                       |...             |
      |                                               |                |      [120]{}: entry 0xfb-0x1057.7 (3933)
0x00f0|                                 00 79         |           .y   |        key_index: 121 0xfb-0xfc.7 (2)
0x01f0|                                 00 f9         |           ..   |        value_index: 249 0x1fb-0x1fc.7 (2)
      |                                               |                |        key{}: 0xd3c-0xd53.7 (24)
0x0d30|                                    5f         |            _   |          type: "ascii_string" (5) (ASCII encoded string) 0xd3c-0xd3c.3 (0.4)
0x0d30|                                    5f         |            _   |          size_bits: 15 0xd3c.4-0xd3c.7 (0.4)
0x0d30|                                       10      |             .  |          large_size_marker: 1 (valid) 0xd3d-0xd3d.3 (0.4)
0x0d30|                                       10      |             .  |          exponent: 0 0xd3d.4-0xd3d.7 (0.4)
0x0d30|                                          15   |              . |          size_bigint: 21 0xd3e-0xd3e.7 (1)
      |                                               |                |          size: 21
0x0d30|                                             48|               H|          value: "HSTS 99097841 Version" 0xd3f-0xd53.7 (21)
0x0d40|53 54 53 20 39 39 30 39 37 38 34 31 20 56 65 72|STS 99097841 Ver|
0x0d50|73 69 6f 6e                                    |sion            |
      |                                               |                |        value{}: 0x1053-0x1057.7 (5)
0x1050|         12                                    |   .            |          type: "int" (1) (Integer) 0x1053-0x1053.3 (0.4)
0x1050|         12                                    |   .            |          size: 4 0x1053.4-0x1053.7 (0.4)
0x1050|            04 6a 78 83                        |    .jx.        |          value: 74086531 0x1054-0x1057.7 (4)
      |                                               |                |      [121]{}: entry 0xfd-0x105c.7 (3936)
0x00f0|                                       00 7a   |             .z |        key_index: 122 0xfd-0xfe.7 (2)
0x01f0|                                       00 fa   |             .. |        value_index: 250 0x1fd-0x1fe.7 (2)
      |                                               |                |        key{}: 0xd54-0xd6a.7 (23)
0x0d50|            5f                                 |    _           |          type: "ascii_string" (5) (ASCII encoded string) 0xd54-0xd54.3 (0.4)
0x0d50|            5f                                 |    _           |          size_bits: 15 0xd54.4-0xd54.7 (0.4)
0x0d50|               10                              |     .          |          large_size_marker: 1 (valid) 0xd55-0xd55.3 (0.4)
0x0d50|               10                              |     .          |          exponent: 0 0xd55.4-0xd55.7 (0.4)
0x0d50|                  14                           |      .         |          size_bigint: 20 0xd56-0xd56.7 (1)
      |                                               |                |          size: 20
0x0d50|                     48 53 54 53 20 32 37 31 33|       HSTS 2713|          value: "HSTS 2713042 Version" 0xd57-0xd6a.7 (20)
0x0d60|30 34 32 20 56 65 72 73 69 6f 6e               |042 Version     |
      |                                               |                |        value{}: 0x1058-0x105c.7 (5)
0x1050|                        12                     |        .       |          type: "int" (1) (Integer) 0x1058-0x1058.3 (0.4)
0x1050|                        12                     |        .       |          size: 4 0x1058.4-0x1058.7 (0.4)
0x1050|                           03 7d 18 5a         |         .}.Z   |          value: 58529882 0x1059-0x105c.7 (4)
      |                                               |                |      [122]{}: entry 0xff-0x1061.7 (3939)
0x00f0|                                             00|               .|        key_index: 123 0xff-0x100.7 (2)
0x0100|7b                                             |{               |
0x01f0|                                             00|               .|        value_index: 251 0x1ff-0x200.7 (2)
0x0200|fb                                             |.               |
      |                                               |                |        key{}: 0xd6b-0xd82.7 (24)
0x0d60|                                 5f            |           _    |          type: "ascii_string" (5) (ASCII encoded string) 0xd6b-0xd6b.3 (0.4)
0x0d60|                                 5f            |           _    |          size_bits: 15 0xd6b.4-0xd6b.7 (0.4)
0x0d60|                                    10         |            .   |          large_size_marker: 1 (valid) 0xd6c-0xd6c.3 (0.4)
0x0d60|                                    10         |            .   |          exponent: 0 0xd6c.4-0xd6c.7 (0.4)
0x0d60|                                       15      |             .  |          size_bigint: 21 0xd6d-0xd6d.7 (1)
      |                                               |                |          size: 21
0x0d60|                                          48 53|              HS|          value: "HSTS 22361508 Version" 0xd6e-0xd82.7 (21)
0x0d70|54 53 20 32 32 33 36 31 35 30 38 20 56 65 72 73|TS 22361508 Vers|
0x0d80|69 6f 6e                                       |ion             |
      |                                               |                |        value{}: 0x105d-0x1061.7 (5)
0x1050|                                       12      |             .  |          type: "int" (1) (Integer) 0x105d-0x105d.3 (0.4)
0x1050|                                       12      |             .  |          size: 4 0x105d.4-0x105d.7 (0.4)
0x1050|                                          05 e0|              ..|          value: 98620536 0x105e-0x1061.7 (4)
0x1060|d4 78                                          |.x              |
      |                                               |                |      [123]{}: entry 0x101-0x1066.7 (3942)
0x0100|   00 7c                                       | .|             |        key_index: 124 0x101-0x102.7 (2)
0x0200|   00 fc                                       | ..             |        value_index: 252 0x201-0x202.7 (2)
      |                                               |                |        key{}: 0xd83-0xd9a.7 (24)
0x0d80|         5f                                    |   _            |          type: "ascii_string" (5) (ASCII encoded string) 0xd83-0xd83.3 (0.4)
0x0d80|         5f                                    |   _            |          size_bits: 15 0xd83.4-0xd83.7 (0.4)
0x0d80|            10                                 |    .           |          large_size_marker: 1 (valid) 0xd84-0xd84.3 (0.4)
0x0d80|            10                                 |    .           |          exponent: 0 0xd84.4-0xd84.7 (0.4)
0x0d80|               15                              |     .          |          size_bigint: 21 0xd85-0xd85.7 (1)
      |                                               |                |          size: 21
0x0d80|                  48 53 54 53 20 31 37 38 30 34|      HSTS 17804|          value: "HSTS 17804463 Version" 0xd86-0xd9a.7 (21)
0x0d90|34 36 33 20 56 65 72 73 69 6f 6e               |463 Version     |
      |                                               |                |        value{}: 0x1062-0x1066.7 (5)
0x1060|      12                                       |  .             |          type: "int" (1) (Integer) 0x1062-0x1062.3 (0.4)
0x1060|      12                                       |  .             |          size: 4 0x1062.4-0x1062.7 (0.4)
0x1060|         04 79 b9 7e                           |   .y.~         |          value: 75086206 0x1063-0x1066.7 (4)
      |                                               |                |      [124]{}: entry 0x103-0x106b.7 (3945)
0x0100|         00 7d                                 |   .}           |        key_index: 125 0x103-0x104.7 (2)
0x0200|         00 fd                                 |   ..           |        value_index: 253 0x203-0x204.7 (2)
      |                                               |                |        key{}: 0xd9b-0xdb2.7 (24)
0x0d90|                                 5f            |           _    |          type: "ascii_string" (5) (ASCII encoded string) 0xd9b-0xd9b.3 (0.4)
0x0d90|                                 5f            |           _    |          size_bits: 15 0xd9b.4-0xd9b.7 (0.4)
0x0d90|                                    10         |            .   |          large_size_marker: 1 (valid) 0xd9c-0xd9c.3 (0.4)
0x0d90|                                    10         |            .   |          exponent: 0 0xd9c.4-0xd9c.7 (0.4)
0x0d90|                                       15      |             .  |          size_bigint: 21 0xd9d-0xd9d.7 (1)
      |                                               |                |          size: 21
0x0d90|                                          48 53|              HS|          value: "HSTS 58736869 Version" 0xd9e-0xdb2.7 (21)
0x0da0|54 53 20 35 38 37 33 36 38 36 39 20 56 65 72 73|TS 58736869 Vers|
0x0db0|69 6f 6e                                       |ion             |
      |                                               |                |        value{}: 0x1067-0x106b.7 (5)
0x1060|                     12                        |       .        |          type: "int" (1) (Integer) 0x1067-0x1067.3 (0.4)
0x1060|                     12                        |       .        |          size: 4 0x1067.4-0x1067.7 (0.4)
0x1060|                        01 ca ff 24            |        ...$    |          value: 30080804 0x1068-0x106b.7 (4)
      |                                               |                |      [125]{}: entry 0x105-0x1070.7 (3948)
0x0100|               00 7e                           |     .~         |        key_index: 126 0x105-0x106.7 (2)
0x0200|               00 fe                           |     ..         |        value_index: 254 0x205-0x206.7 (2)
      |                                               |                |        key{}: 0xdb3-0xdca.7 (24)
0x0db0|         5f                                    |   _            |          type: "ascii_string" (5) (ASCII encoded string) 0xdb3-0xdb3.3 (0.4)
0x0db0|         5f                                    |   _            |          size_bits: 15 0xdb3.4-0xdb3.7 (0.4)
0x0db0|            10                                 |    .           |          large_size_marker: 1 (valid) 0xdb4-0xdb4.3 (0.4)
0x0db0|            10                                 |    .           |          exponent: 0 0xdb4.4-0xdb4.7 (0.4)
0x0db0|               15                              |     .          |          size_bigint: 21 0xdb5-0xdb5.7 (1)
      |                                               |                |          size: 21
0x0db0|                  48 53 54 53 20 33 35 33 31 38|      HSTS 35318|          value: "HSTS 35318016 Version" 0xdb6-0xdca.7 (21)
0x0dc0|30 31 36 20 56 65 72 73 69 6f 6e               |016 Version     |
      |                                               |                |        value{}: 0x106c-0x1070.7 (5)
0x1060|                                    12         |            .   |          type: "int" (1) (Integer) 0x106c-0x106c.3 (0.4)
0x1060|                                    12         |            .   |          size: 4 0x106c.4-0x106c.7 (0.4)
0x1060|                                       01 e6 df|             ...|          value: 31907716 0x106d-0x1070.7 (4)
0x1070|84                                             |.               |
      |                                               |                |      [126]{}: entry 0x107-0x1075.7 (3951)
0x0100|                     00 7f                     |       ..       |        key_index: 127 0x107-0x108.7 (2)
0x0200|                     00 ff                     |       ..       |        value_index: 255 0x207-0x208.7 (2)
      |                                               |                |        key{}: 0xdcb-0xde2.7 (24)
0x0dc0|                                 5f            |           _    |          type: "ascii_string" (5) (ASCII encoded string) 0xdcb-0xdcb.3 (0.4)
0x0dc0|                                 5f            |           _    |          size_bits: 15 0xdcb.4-0xdcb.7 (0.4)
0x0dc0|                                    10         |            .   |          large_size_marker: 1 (valid) 0xdcc-0xdcc.3 (0.4)
0x0dc0|                                    10         |            .   |          exponent: 0 0xdcc.4-0xdcc.7 (0.4)
0x0dc0|                                       15      |             .  |          size_bigint: 21 0xdcd-0xdcd.7 (1)
      |                                               |                |          size: 21
0x0dc0|                                          48 53|              HS|          value: "HSTS 66647567 Version" 0xdce-0xde2.7 (21)
0x0dd0|54 53 20 36 36 36 34 37 35 36 37 20 56 65 72 73|TS 66647567 Vers|
0x0de0|69 6f 6e                                       |ion             |
      |                                               |                |        value{}: 0x1071-0x1075.7 (5)
0x1070|   12                                          | .              |          type: "int" (1) (Integer) 0x1071-0x1071.3 (0.4)
0x1070|   12                                          | .              |          size: 4 0x1071.4-0x1071.7 (0.4)
0x1070|      04 d9 38 23                              |  ..8#          |          value: 81344547 0x1072-0x1075.7 (4)
      |                                               |                |      [127]{}: entry 0x109-0x107a.7 (3954)
0x0100|                           00 80               |         ..     |        key_index: 128 0x109-0x10a.7 (2)
0x0200|                           01 00               |         ..     |        value_index: 256 0x209-0x20a.7 (2)
      |                                               |                |        key{}: 0xde3-0xdfa.7 (24)
0x0de0|         5f                                    |   _            |          type: "ascii_string" (5) (ASCII encoded string) 0xde3-0xde3.3 (0.4)
0x0de0|         5f                                    |   _            |          size_bits: 15 0xde3.4-0xde3.7 (0.4)
0x0de0|            10                                 |    .           |          large_size_marker: 1 (valid) 0xde4-0xde4.3 (0.4)
0x0de0|            10                                 |    .           |          exponent: 0 0xde4.4-0xde4.7 (0.4)
0x0de0|               15                              |     .          |          size_bigint: 21 0xde5-0xde5.7 (1)
      |                                               |                |          size: 21
0x0de0|                  48 53 54 53 20 37 34 31 36 36|      HSTS 74166|          value: "HSTS 74166247 Version" 0xde6-0xdfa.7 (21)
0x0df0|32 34 37 20 56 65 72 73 69 6f 6e               |247 Version     |
      |                                               |                |        value{}: 0x1076-0x107a.7 (5)
0x1070|                  12                           |      .         |          type: "int" (1) (Integer) 0x1076-0x1076.3 (0.4)
0x1070|                  12                           |      .         |          size: 4 0x1076.4-0x1076.7 (0.4)
0x1070|                     00 98 bd 02               |       ....     |          value: 10009858 0x1077-0x107a.7 (4)
      |                                               |                |  offset_table[0:257]: 0x107b-0x127c.7 (514)
0x1070|                                 00 08         |           ..   |    [0]: 8 element 0x107b-0x107c.7 (2)
0x1070|                                       02 0b   |             .. |    [1]: 523 element 0x107d-0x107e.7 (2)
0x1070|                                             02|               .|    [2]: 545 element 0x107f-0x1080.7 (2)
0x1080|21                                             |!               |
0x1080|   02 39                                       | .9             |    [3]: 569 element 0x1081-0x1082.7 (2)
0x1080|         02 51                                 |   .Q           |    [4]: 593 element 0x1083-0x1084.7 (2)
0x1080|               02 69                           |     .i         |    [5]: 617 element 0x1085-0x1086.7 (2)
0x1080|                     02 81                     |       ..       |    [6]: 641 element 0x1087-0x1088.7 (2)
0x1080|                           02 99               |         ..     |    [7]: 665 element 0x1089-0x108a.7 (2)
0x1080|                                 02 b1         |           ..   |    [8]: 689 element 0x108b-0x108c.7 (2)
0x1080|                                       02 c9   |             .. |    [9]: 713 element 0x108d-0x108e.7 (2)
0x1080|                                             02|               .|    [10]: 737 element 0x108f-0x1090.7 (2)
0x1090|e1                                             |.               |
0x1090|   02 f9                                       | ..             |    [11]: 761 element 0x1091-0x1092.7 (2)
0x1090|         03 11                                 |   ..           |    [12]: 785 element 0x1093-0x1094.7 (2)
0x1090|               03 29                           |     .)         |    [13]: 809 element 0x1095-0x1096.7 (2)
0x1090|                     03 41                     |       .A       |    [14]: 833 element 0x1097-0x1098.7 (2)
0x1090|                           03 59               |         .Y     |    [15]: 857 element 0x1099-0x109a.7 (2)
0x1090|                                 03 70         |           .p   |    [16]: 880 element 0x109b-0x109c.7 (2)
0x1090|                                       03 87   |             .. |    [17]: 903 element 0x109d-0x109e.7 (2)
0x1090|                                             03|               .|    [18]: 927 element 0x109f-0x10a0.7 (2)
0x10a0|9f                                             |.               |
0x10a0|   03 b7                                       | ..             |    [19]: 951 element 0x10a1-0x10a2.7 (2)
0x10a0|         03 cf                                 |   ..           |    [20]: 975 element 0x10a3-0x10a4.7 (2)
0x10a0|               03 e5                           |     ..         |    [21]: 997 element 0x10a5-0x10a6.7 (2)
0x10a0|                     03 fb                     |       ..       |    [22]: 1019 element 0x10a7-0x10a8.7 (2)
0x10a0|                           04 13               |         ..     |    [23]: 1043 element 0x10a9-0x10aa.7 (2)
0x10a0|                                 04 2b         |           .+   |    [24]: 1067 element 0x10ab-0x10ac.7 (2)
0x10a0|                                       04 43   |             .C |    [25]: 1091 element 0x10ad-0x10ae.7 (2)
0x10a0|                                             04|               .|    [26]: 1115 element 0x10af-0x10b0.7 (2)
0x10b0|5b                                             |[               |
0x10b0|   04 73                                       | .s             |    [27]: 1139 element 0x10b1-0x10b2.7 (2)
0x10b0|         04 8b                                 |   ..           |    [28]: 1163 element 0x10b3-0x10b4.7 (2)
0x10b0|               04 a3                           |     ..         |    [29]: 1187 element 0x10b5-0x10b6.7 (2)
0x10b0|                     04 bb                     |       ..       |    [30]: 1211 element 0x10b7-0x10b8.7 (2)
0x10b0|                           04 d3               |         ..     |    [31]: 1235 element 0x10b9-0x10ba.7 (2)
0x10b0|                                 04 eb         |           ..   |    [32]: 1259 element 0x10bb-0x10bc.7 (2)
0x10b0|                                       05 03   |             .. |    [33]: 1283 element 0x10bd-0x10be.7 (2)
0x10b0|                                             05|               .|    [34]: 1307 element 0x10bf-0x10c0.7 (2)
0x10c0|1b                                             |.               |
0x10c0|   05 33                                       | .3             |    [35]: 1331 element 0x10c1-0x10c2.7 (2)
0x10c0|         05 4b                                 |   .K           |    [36]: 1355 element 0x10c3-0x10c4.7 (2)
0x10c0|               05 63                           |     .c         |    [37]: 1379 element 0x10c5-0x10c6.7 (2)
0x10c0|                     05 7b                     |       .{       |    [38]: 1403 element 0x10c7-0x10c8.7 (2)
0x10c0|                           05 93               |         ..     |    [39]: 1427 element 0x10c9-0x10ca.7 (2)
0x10c0|                                 05 ab         |           ..   |    [40]: 1451 element 0x10cb-0x10cc.7 (2)
0x10c0|                                       05 c3   |             .. |    [41]: 1475 element 0x10cd-0x10ce.7 (2)
0x10c0|                                             05|               .|    [42]: 1499 element 0x10cf-0x10d0.7 (2)
0x10d0|db                                             |.               |
0x10d0|   05 f3                                       | ..             |    [43]: 1523 element 0x10d1-0x10d2.7 (2)
0x10d0|         06 0b                                 |   ..           |    [44]: 1547 element 0x10d3-0x10d4.7 (2)
0x10d0|               06 23                           |     .#         |    [45]: 1571 element 0x10d5-0x10d6.7 (2)
0x10d0|                     06 3b                     |       .;       |    [46]: 1595 element 0x10d7-0x10d8.7 (2)
0x10d0|                           06 53               |         .S     |    [47]: 1619 element 0x10d9-0x10da.7 (2)
0x10d0|                                 06 6b         |           .k   |    [48]: 1643 element 0x10db-0x10dc.7 (2)
0x10d0|                                       06 83   |             .. |    [49]: 1667 element 0x10dd-0x10de.7 (2)
0x10d0|                                             06|               .|    [50]: 1691 element 0x10df-0x10e0.7 (2)
0x10e0|9b                                             |.               |
0x10e0|   06 b3                                       | ..             |    [51]: 1715 element 0x10e1-0x10e2.7 (2)
0x10e0|         06 cb                                 |   ..           |    [52]: 1739 element 0x10e3-0x10e4.7 (2)
0x10e0|               06 e3                           |     ..         |    [53]: 1763 element 0x10e5-0x10e6.7 (2)
0x10e0|                     06 fb                     |       ..       |    [54]: 1787 element 0x10e7-0x10e8.7 (2)
0x10e0|                           07 13               |         ..     |    [55]: 1811 element 0x10e9-0x10ea.7 (2)
0x10e0|                                 07 2b         |           .+   |    [56]: 1835 element 0x10eb-0x10ec.7 (2)
0x10e0|                                       07 43   |             .C |    [57]: 1859 element 0x10ed-0x10ee.7 (2)
0x10e0|                                             07|               .|    [58]: 1883 element 0x10ef-0x10f0.7 (2)
0x10f0|5b                                             |[               |
0x10f0|   07 73                                       | .s             |    [59]: 1907 element 0x10f1-0x10f2.7 (2)
0x10f0|         07 8a                                 |   ..           |    [60]: 1930 element 0x10f3-0x10f4.7 (2)
0x10f0|               07 a2                           |     ..         |    [61]: 1954 element 0x10f5-0x10f6.7 (2)
0x10f0|                     07 ba                     |       ..       |    [62]: 1978 element 0x10f7-0x10f8.7 (2)
0x10f0|                           07 d2               |         ..     |    [63]: 2002 element 0x10f9-0x10fa.7 (2)
0x10f0|                                 07 ea         |           ..   |    [64]: 2026 element 0x10fb-0x10fc.7 (2)
0x10f0|                                       08 02   |             .. |    [65]: 2050 element 0x10fd-0x10fe.7 (2)
0x10f0|                                             08|               .|    [66]: 2074 element 0x10ff-0x1100.7 (2)
0x1100|1a                                             |.               |
0x1100|   08 32                                       | .2             |    [67]: 2098 element 0x1101-0x1102.7 (2)
0x1100|         08 4a                                 |   .J           |    [68]: 2122 element 0x1103-0x1104.7 (2)
0x1100|               08 62                           |     .b         |    [69]: 2146 element 0x1105-0x1106.7 (2)
0x1100|                     08 7a                     |       .z       |    [70]: 2170 element 0x1107-0x1108.7 (2)
0x1100|                           08 92               |         ..     |    [71]: 2194 element 0x1109-0x110a.7 (2)
0x1100|                                 08 aa         |           ..   |    [72]: 2218 element 0x110b-0x110c.7 (2)
0x1100|                                       08 c2   |             .. |    [73]: 2242 element 0x110d-0x110e.7 (2)
0x1100|                                             08|               .|    [74]: 2265 element 0x110f-0x1110.7 (2)
0x1110|d9                                             |.               |
0x1110|   08 f1                                       | ..             |    [75]: 2289 element 0x1111-0x1112.7 (2)
0x1110|         09 09                                 |   ..           |    [76]: 2313 element 0x1113-0x1114.7 (2)
0x1110|               09 21                           |     .!         |    [77]: 2337 element 0x1115-0x1116.7 (2)
0x1110|                     09 39                     |       .9       |    [78]: 2361 element 0x1117-0x1118.7 (2)
0x1110|                           09 51               |         .Q     |    [79]: 2385 element 0x1119-0x111a.7 (2)
0x1110|                                 09 69         |           .i   |    [80]: 2409 element 0x111b-0x111c.7 (2)
0x1110|                                       09 81   |             .. |    [81]: 2433 element 0x111d-0x111e.7 (2)
0x1110|                                             09|               .|    [82]: 2457 element 0x111f-0x1120.7 (2)
0x1120|99                                             |.               |
0x1120|   09 b1                                       | ..             |    [83]: 2481 element 0x1121-0x1122.7 (2)
0x1120|         09 c9                                 |   ..           |    [84]: 2505 element 0x1123-0x1124.7 (2)
0x1120|               09 e1                           |     ..         |    [85]: 2529 element 0x1125-0x1126.7 (2)
0x1120|                     09 f8                     |       ..       |    [86]: 2552 element 0x1127-0x1128.7 (2)
0x1120|                           0a 10               |         ..     |    [87]: 2576 element 0x1129-0x112a.7 (2)
0x1120|                                 0a 28         |           .(   |    [88]: 2600 element 0x112b-0x112c.7 (2)
0x1120|                                       0a 40   |             .@ |    [89]: 2624 element 0x112d-0x112e.7 (2)
0x1120|                                             0a|               .|    [90]: 2648 element 0x112f-0x1130.7 (2)
0x1130|58                                             |X               |
0x1130|   0a 70                                       | .p             |    [91]: 2672 element 0x1131-0x1132.7 (2)
0x1130|         0a 88                                 |   ..           |    [92]: 2696 element 0x1133-0x1134.7 (2)
0x1130|               0a a0                           |     ..         |    [93]: 2720 element 0x1135-0x1136.7 (2)
0x1130|                     0a b8                     |       ..       |    [94]: 2744 element 0x1137-0x1138.7 (2)
0x1130|                           0a d0               |         ..     |    [95]: 2768 element 0x1139-0x113a.7 (2)
0x1130|                                 0a e8         |           ..   |    [96]: 2792 element 0x113b-0x113c.7 (2)
0x1130|                                       0a ff   |             .. |    [97]: 2815 element 0x113d-0x113e.7 (2)
0x1130|                                             0b|               .|    [98]: 2839 element 0x113f-0x1140.7 (2)
0x1140|17                                             |.               |
0x1140|   0b 2f                                       | ./             |    [99]: 2863 element 0x1141-0x1142.7 (2)
0x1140|         0b 47                                 |   .G           |    [100]: 2887 element 0x1143-0x1144.7 (2)
0x1140|               0b 5f                           |     ._         |    [101]: 2911 element 0x1145-0x1146.7 (2)
0x1140|                     0b 77                     |       .w       |    [102]: 2935 element 0x1147-0x1148.7 (2)
0x1140|                           0b 8f               |         ..     |    [103]: 2959 element 0x1149-0x114a.7 (2)
0x1140|                                 0b a7         |           ..   |    [104]: 2983 element 0x114b-0x114c.7 (2)
0x1140|                                       0b bf   |             .. |    [105]: 3007 element 0x114d-0x114e.7 (2)
0x1140|                                             0b|               .|    [106]: 3031 element 0x114f-0x1150.7 (2)
0x1150|d7                                             |.               |
0x1150|   0b ef                                       | ..             |    [107]: 3055 element 0x1151-0x1152.7 (2)
0x1150|         0c 07                                 |   ..           |    [108]: 3079 element 0x1153-0x1154.7 (2)
0x1150|               0c 1f                           |     ..         |    [109]: 3103 element 0x1155-0x1156.7 (2)
0x1150|                     0c 37                     |       .7       |    [110]: 3127 element 0x1157-0x1158.7 (2)
0x1150|                           0c 4f               |         .O     |    [111]: 3151 element 0x1159-0x115a.7 (2)
0x1150|                                 0c 66         |           .f   |    [112]: 3174 element 0x115b-0x115c.7 (2)
0x1150|                                       0c 7d   |             .} |    [113]: 3197 element 0x115d-0x115e.7 (2)
0x1150|                                             0c|               .|    [114]: 3221 element 0x115f-0x1160.7 (2)
0x1160|95                                             |.               |
0x1160|   0c ad                                       | ..             |    [115]: 3245 element 0x1161-0x1162.7 (2)
0x1160|         0c c5                                 |   ..           |    [116]: 3269 element 0x1163-0x1164.7 (2)
0x1160|               0c dd                           |     ..         |    [117]: 3293 element 0x1165-0x1166.7 (2)
0x1160|                     0c f5                     |       ..       |    [118]: 3317 element 0x1167-0x1168.7 (2)
0x1160|                           0d 0d               |         ..     |    [119]: 3341 element 0x1169-0x116a.7 (2)
0x1160|                                 0d 24         |           .$   |    [120]: 3364 element 0x116b-0x116c.7 (2)
0x1160|                                       0d 3c   |             .< |    [121]: 3388 element 0x116d-0x116e.7 (2)
0x1160|                                             0d|               .|    [122]: 3412 element 0x116f-0x1170.7 (2)
0x1170|54                                             |T               |
0x1170|   0d 6b                                       | .k             |    [123]: 3435 element 0x1171-0x1172.7 (2)
0x1170|         0d 83                                 |   ..           |    [124]: 3459 element 0x1173-0x1174.7 (2)
0x1170|               0d 9b                           |     ..         |    [125]: 3483 element 0x1175-0x1176.7 (2)
0x1170|                     0d b3                     |       ..       |    [126]: 3507 element 0x1177-0x1178.7 (2)
0x1170|                           0d cb               |         ..     |    [127]: 3531 element 0x1179-0x117a.7 (2)
0x1170|                                 0d e3         |           ..   |    [128]: 3555 element 0x117b-0x117c.7 (2)
0x1170|                                       0d fb   |             .. |    [129]: 3579 element 0x117d-0x117e.7 (2)
0x1170|                                             0e|               .|    [130]: 3584 element 0x117f-0x1180.7 (2)
0x1180|00                                             |.               |
0x1180|   0e 05                                       | ..             |    [131]: 3589 element 0x1181-0x1182.7 (2)
0x1180|         0e 0a                                 |   ..           |    [132]: 3594 element 0x1183-0x1184.7 (2)
0x1180|               0e 0f                           |     ..         |    [133]: 3599 element 0x1185-0x1186.7 (2)
0x1180|                     0e 14                     |       ..       |    [134]: 3604 element 0x1187-0x1188.7 (2)
0x1180|                           0e 19               |         ..     |    [135]: 3609 element 0x1189-0x118a.7 (2)
0x1180|                                 0e 1e         |           ..   |    [136]: 3614 element 0x118b-0x118c.7 (2)
0x1180|                                       0e 23   |             .# |    [137]: 3619 element 0x118d-0x118e.7 (2)
0x1180|                                             0e|               .|    [138]: 3624 element 0x118f-0x1190.7 (2)
0x1190|28                                             |(               |
0x1190|   0e 2d                                       | .-             |    [139]: 3629 element 0x1191-0x1192.7 (2)
0x1190|         0e 32                                 |   .2           |    [140]: 3634 element 0x1193-0x1194.7 (2)
0x1190|               0e 37                           |     .7         |    [141]: 3639 element 0x1195-0x1196.7 (2)
0x1190|                     0e 3c                     |       .<       |    [142]: 3644 element 0x1197-0x1198.7 (2)
0x1190|                           0e 41               |         .A     |    [143]: 3649 element 0x1199-0x119a.7 (2)
0x1190|                                 0e 46         |           .F   |    [144]: 3654 element 0x119b-0x119c.7 (2)
0x1190|                                       0e 4b   |             .K |    [145]: 3659 element 0x119d-0x119e.7 (2)
0x1190|                                             0e|               .|    [146]: 3664 element 0x119f-0x11a0.7 (2)
0x11a0|50                                             |P               |
0x11a0|   0e 55                                       | .U             |    [147]: 3669 element 0x11a1-0x11a2.7 (2)
0x11a0|         0e 5a                                 |   .Z           |    [148]: 3674 element 0x11a3-0x11a4.7 (2)
0x11a0|               0e 5f                           |     ._         |    [149]: 3679 element 0x11a5-0x11a6.7 (2)
0x11a0|                     0e 64                     |       .d       |    [150]: 3684 element 0x11a7-0x11a8.7 (2)
0x11a0|                           0e 69               |         .i     |    [151]: 3689 element 0x11a9-0x11aa.7 (2)
0x11a0|                                 0e 6e         |           .n   |    [152]: 3694 element 0x11ab-0x11ac.7 (2)
0x11a0|                                       0e 73   |             .s |    [153]: 3699 element 0x11ad-0x11ae.7 (2)
0x11a0|                                             0e|               .|    [154]: 3704 element 0x11af-0x11b0.7 (2)
0x11b0|78                                             |x               |
0x11b0|   0e 7d                                       | .}             |    [155]: 3709 element 0x11b1-0x11b2.7 (2)
0x11b0|         0e 82                                 |   ..           |    [156]: 3714 element 0x11b3-0x11b4.7 (2)
0x11b0|               0e 87                           |     ..         |    [157]: 3719 element 0x11b5-0x11b6.7 (2)
0x11b0|                     0e 8c                     |       ..       |    [158]: 3724 element 0x11b7-0x11b8.7 (2)
0x11b0|                           0e 91               |         ..     |    [159]: 3729 element 0x11b9-0x11ba.7 (2)
0x11b0|                                 0e 96         |           ..   |    [160]: 3734 element 0x11bb-0x11bc.7 (2)
0x11b0|                                       0e 9b   |             .. |    [161]: 3739 element 0x11bd-0x11be.7 (2)
0x11b0|                                             0e|               .|    [162]: 3744 element 0x11bf-0x11c0.7 (2)
0x11c0|a0                                             |.               |
0x11c0|   0e a5                                       | ..             |    [163]: 3749 element 0x11c1-0x11c2.7 (2)
0x11c0|         0e aa                                 |   ..           |    [164]: 3754 element 0x11c3-0x11c4.7 (2)
0x11c0|               0e af                           |     ..         |    [165]: 3759 element 0x11c5-0x11c6.7 (2)
0x11c0|                     0e b4                     |       ..       |    [166]: 3764 element 0x11c7-0x11c8.7 (2)
0x11c0|                           0e b9               |         ..     |    [167]: 3769 element 0x11c9-0x11ca.7 (2)
0x11c0|                                 0e be         |           ..   |    [168]: 3774 element 0x11cb-0x11cc.7 (2)
0x11c0|                                       0e c3   |             .. |    [169]: 3779 element 0x11cd-0x11ce.7 (2)
0x11c0|                                             0e|               .|    [170]: 3784 element 0x11cf-0x11d0.7 (2)
0x11d0|c8                                             |.               |
0x11d0|   0e cd                                       | ..             |    [171]: 3789 element 0x11d1-0x11d2.7 (2)
0x11d0|         0e d2                                 |   ..           |    [172]: 3794 element 0x11d3-0x11d4.7 (2)
0x11d0|               0e d7                           |     ..         |    [173]: 3799 element 0x11d5-0x11d6.7 (2)
0x11d0|                     0e dc                     |       ..       |    [174]: 3804 element 0x11d7-0x11d8.7 (2)
0x11d0|                           0e e1               |         ..     |    [175]: 3809 element 0x11d9-0x11da.7 (2)
0x11d0|                                 0e e6         |           ..   |    [176]: 3814 element 0x11db-0x11dc.7 (2)
0x11d0|                                       0e eb   |             .. |    [177]: 3819 element 0x11dd-0x11de.7 (2)
0x11d0|                                             0e|               .|    [178]: 3824 element 0x11df-0x11e0.7 (2)
0x11e0|f0                                             |.               |
0x11e0|   0e f5                                       | ..             |    [179]: 3829 element 0x11e1-0x11e2.7 (2)
0x11e0|         0e fa                                 |   ..           |    [180]: 3834 element 0x11e3-0x11e4.7 (2)
0x11e0|               0e ff                           |     ..         |    [181]: 3839 element 0x11e5-0x11e6.7 (2)
0x11e0|                     0f 04                     |       ..       |    [182]: 3844 element 0x11e7-0x11e8.7 (2)
0x11e0|                           0f 09               |         ..     |    [183]: 3849 element 0x11e9-0x11ea.7 (2)
0x11e0|                                 0f 0e         |           ..   |    [184]: 3854 element 0x11eb-0x11ec.7 (2)
0x11e0|                                       0f 13   |             .. |    [185]: 3859 element 0x11ed-0x11ee.7 (2)
0x11e0|                                             0f|               .|    [186]: 3864 element 0x11ef-0x11f0.7 (2)
0x11f0|18                                             |.               |
0x11f0|   0f 1d                                       | ..             |    [187]: 3869 element 0x11f1-0x11f2.7 (2)
0x11f0|         0f 22                                 |   ."           |    [188]: 3874 element 0x11f3-0x11f4.7 (2)
0x11f0|               0f 27                           |     .'         |    [189]: 3879 element 0x11f5-0x11f6.7 (2)
0x11f0|                     0f 2c                     |       .,       |    [190]: 3884 element 0x11f7-0x11f8.7 (2)
0x11f0|                           0f 31               |         .1     |    [191]: 3889 element 0x11f9-0x11fa.7 (2)
0x11f0|                                 0f 36         |           .6   |    [192]: 3894 element 0x11fb-0x11fc.7 (2)
0x11f0|                                       0f 3b   |             .; |    [193]: 3899 element 0x11fd-0x11fe.7 (2)
0x11f0|                                             0f|               .|    [194]: 3904 element 0x11ff-0x1200.7 (2)
0x1200|40                                             |@               |
0x1200|   0f 45                                       | .E             |    [195]: 3909 element 0x1201-0x1202.7 (2)
0x1200|         0f 4a                                 |   .J           |    [196]: 3914 element 0x1203-0x1204.7 (2)
0x1200|               0f 4f                           |     .O         |    [197]: 3919 element 0x1205-0x1206.7 (2)
0x1200|                     0f 54                     |       .T       |    [198]: 3924 element 0x1207-0x1208.7 (2)
0x1200|                           0f 59               |         .Y     |    [199]: 3929 element 0x1209-0x120a.7 (2)
0x1200|                                 0f 5e         |           .^   |    [200]: 3934 element 0x120b-0x120c.7 (2)
0x1200|                                       0f 63   |             .c |    [201]: 3939 element 0x120d-0x120e.7 (2)
0x1200|                                             0f|               .|    [202]: 3944 element 0x120f-0x1210.7 (2)
0x1210|68                                             |h               |
0x1210|   0f 6d                                       | .m             |    [203]: 3949 element 0x1211-0x1212.7 (2)
0x1210|         0f 72                                 |   .r           |    [204]: 3954 element 0x1213-0x1214.7 (2)
0x1210|               0f 77                           |     .w         |    [205]: 3959 element 0x1215-0x1216.7 (2)
0x1210|                     0f 7c                     |       .|       |    [206]: 3964 element 0x1217-0x1218.7 (2)
0x1210|                           0f 81               |         ..     |    [207]: 3969 element 0x1219-0x121a.7 (2)
0x1210|                                 0f 86         |           ..   |    [208]: 3974 element 0x121b-0x121c.7 (2)
0x1210|                                       0f 8b   |             .. |    [209]: 3979 element 0x121d-0x121e.7 (2)
0x1210|                                             0f|               .|    [210]: 3984 element 0x121f-0x1220.7 (2)
0x1220|90                                             |.               |
0x1220|   0f 95                                       | ..             |    [211]: 3989 element 0x1221-0x1222.7 (2)
0x1220|         0f 9a                                 |   ..           |    [212]: 3994 element 0x1223-0x1224.7 (2)
0x1220|               0f 9f                           |     ..         |    [213]: 3999 element 0x1225-0x1226.7 (2)
0x1220|                     0f a4                     |       ..       |    [214]: 4004 element 0x1227-0x1228.7 (2)
0x1220|                           0f a9               |         ..     |    [215]: 4009 element 0x1229-0x122a.7 (2)
0x1220|                                 0f ae         |           ..   |    [216]: 4014 element 0x122b-0x122c.7 (2)
0x1220|                                       0f b3   |             .. |    [217]: 4019 element 0x122d-0x122e.7 (2)
0x1220|                                             0f|               .|    [218]: 4024 element 0x122f-0x1230.7 (2)
0x1230|b8                                             |.               |
0x1230|   0f bd                                       | ..             |    [219]: 4029 element 0x1231-0x1232.7 (2)
0x1230|         0f c2                                 |   ..           |    [220]: 4034 element 0x1233-0x1234.7 (2)
0x1230|               0f c7                           |     ..         |    [221]: 4039 element 0x1235-0x1236.7 (2)
0x1230|                     0f cc                     |       ..       |    [222]: 4044 element 0x1237-0x1238.7 (2)
0x1230|                           0f d1               |         ..     |    [223]: 4049 element 0x1239-0x123a.7 (2)
0x1230|                                 0f d6         |           ..   |    [224]: 4054 element 0x123b-0x123c.7 (2)
0x1230|                                       0f db   |             .. |    [225]: 4059 element 0x123d-0x123e.7 (2)
0x1230|                                             0f|               .|    [226]: 4064 element 0x123f-0x1240.7 (2)
0x1240|e0                                             |.               |
0x1240|   0f e5                                       | ..             |    [227]: 4069 element 0x1241-0x1242.7 (2)
0x1240|         0f ea                                 |   ..           |    [228]: 4074 element 0x1243-0x1244.7 (2)
0x1240|               0f ef                           |     ..         |    [229]: 4079 element 0x1245-0x1246.7 (2)
0x1240|                     0f f4                     |       ..       |    [230]: 4084 element 0x1247-0x1248.7 (2)
0x1240|                           0f f9               |         ..     |    [231]: 4089 element 0x1249-0x124a.7 (2)
0x1240|                                 0f fe         |           ..   |    [232]: 4094 element 0x124b-0x124c.7 (2)
0x1240|                                       10 03   |             .. |    [233]: 4099 element 0x124d-0x124e.7 (2)
0x1240|                                             10|               .|    [234]: 4104 element 0x124f-0x1250.7 (2)
0x1250|08                                             |.               |
0x1250|   10 0d                                       | ..             |    [235]: 4109 element 0x1251-0x1252.7 (2)
0x1250|         10 12                                 |   ..           |    [236]: 4114 element 0x1253-0x1254.7 (2)
0x1250|               10 17                           |     ..         |    [237]: 4119 element 0x1255-0x1256.7 (2)
0x1250|                     10 1c                     |       ..       |    [238]: 4124 element 0x1257-0x1258.7 (2)
0x1250|                           10 21               |         .!     |    [239]: 4129 element 0x1259-0x125a.7 (2)
0x1250|                                 10 26         |           .&   |    [240]: 4134 element 0x125b-0x125c.7 (2)
0x1250|                                       10 2b   |             .+ |    [241]: 4139 element 0x125d-0x125e.7 (2)
0x1250|                                             10|               .|    [242]: 4144 element 0x125f-0x1260.7 (2)
0x1260|30                                             |0               |
0x1260|   10 35                                       | .5             |    [243]: 4149 element 0x1261-0x1262.7 (2)
0x1260|         10 3a                                 |   .:           |    [244]: 4154 element 0x1263-0x1264.7 (2)
0x1260|               10 3f                           |     .?         |    [245]: 4159 element 0x1265-0x1266.7 (2)
0x1260|                     10 44                     |       .D       |    [246]: 4164 element 0x1267-0x1268.7 (2)
0x1260|                           10 49               |         .I     |    [247]: 4169 element 0x1269-0x126a.7 (2)
0x1260|                                 10 4e         |           .N   |    [248]: 4174 element 0x126b-0x126c.7 (2)
0x1260|                                       10 53   |             .S |    [249]: 4179 element 0x126d-0x126e.7 (2)
0x1260|                                             10|               .|    [250]: 4184 element 0x126f-0x1270.7 (2)
0x1270|58                                             |X               |
0x1270|   10 5d                                       | .]             |    [251]: 4189 element 0x1271-0x1272.7 (2)
0x1270|         10 62                                 |   .b           |    [252]: 4194 element 0x1273-0x1274.7 (2)
0x1270|               10 67                           |     .g         |    [253]: 4199 element 0x1275-0x1276.7 (2)
0x1270|                     10 6c                     |       .l       |    [254]: 4204 element 0x1277-0x1278.7 (2)
0x1270|                           10 71               |         .q     |    [255]: 4209 element 0x1279-0x127a.7 (2)
0x1270|                                 10 76         |           .v   |    [256]: 4214 element 0x127b-0x127c.7 (2)
      |                                               |                |  trailer{}: 0x127d-0x129c.7 (32)
0x1270|                                       00 00 00|             ...|    unused: 0 0x127d-0x1281.7 (5)
0x1280|00 00                                          |..              |
0x1280|      00                                       |  .             |    sort_version: 0 0x1282-0x1282.7 (1)
0x1280|         02                                    |   .            |    offset_table_offset_size: 2 (valid) 0x1283-0x1283.7 (1)
0x1280|            02                                 |    .           |    object_reference_size: 2 (valid) 0x1284-0x1284.7 (1)
0x1280|               00 00 00 00 00 00 01 01         |     ........   |    object_count: 257 0x1285-0x128c.7 (8)
0x1280|                                       00 00 00|             ...|    top_object_offset: 0 0x128d-0x1294.7 (8)
0x1290|00 00 00 00 00                                 |.....           |
0x1290|               00 00 00 00 00 00 10 7b|        |     .......{|  |    offset_table_start: 4219 0x1295-0x129c.7 (8)
$ fq torepr dicttest_many_items.plist
{
  "HSTS 10020087 Version": 29578918,
  "HSTS 10080734 Version": 61028911,
  "HSTS 10300623 Version": 84328682,
  "HSTS 12038598 Version": 6449521,
  "HSTS 12218210 Version": 55893239,
  "HSTS 12635433 Version": 48354625,
  "HSTS 12927993 Version": 50340500,
  "HSTS 14161079 Version": 95402737,
  "HSTS 15032109 Version": 44952771,
  "HSTS 15708506 Version": 73773846,
  "HSTS 15942628 Version": 4463958,
  "HSTS 16470881 Version": 79754804,
  "HSTS 16494683 Version": 45434836,
  "HSTS 17804463 Version": 75086206,
  "HSTS 18975067 Version": 55139618,
  "HSTS 19966469 Version": 10206009,
  "HSTS 21112080 Version": 20082859,
  "HSTS 21268233 Version": 86166687,
  "HSTS 21342473 Version": 39482768,
  "HSTS 21590016 Version": 21230845,
  "HSTS 22026076 Version": 42740754,
  "HSTS 22361508 Version": 98620536,
  "HSTS 23002418 Version": 50053888,
  "HSTS 23144187 Version": 32344841,
  "HSTS 24763818 Version": 76513601,
  "HSTS 25774232 Version": 28498906,
  "HSTS 25921286 Version": 10764973,
  "HSTS 26004069 Version": 97143168,
  "HSTS 26253183 Version": 38340067,
  "HSTS 26304070 Version": 50002576,
  "HSTS 2713042 Version": 58529882,
  "HSTS 28027600 Version": 9820554,
  "HSTS 28826625 Version": 14951028,
  "HSTS 29715776 Version": 83274955,
  "HSTS 30441340 Version": 99819413,
  "HSTS 33437200 Version": 36800409,
  "HSTS 34116590 Version": 54781192,
  "HSTS 3497126 Version": 37191610,
  "HSTS 35295787 Version": 91345576,
  "HSTS 35318016 Version": 31907716,
  "HSTS 35370807 Version": 63147213,
  "HSTS 36180446 Version": 71247620,
  "HSTS 36588300 Version": 43273019,
  "HSTS 36896701 Version": 2624427,
  "HSTS 39398895 Version": 14949358,
  "HSTS 39491929 Version": 2716275,
  "HSTS 40122508 Version": 4993184,
  "HSTS 40480961 Version": 11524746,
  "HSTS 40577218 Version": 45954141,
  "HSTS 41241648 Version": 56972113,
  "HSTS 41359354 Version": 35838422,
  "HSTS 42086275 Version": 73823904,
  "HSTS 44500503 Version": 53098037,
  "HSTS 45557369 Version": 26744327,
  "HSTS 45650036 Version": 61886445,
  "HSTS 4721158 Version": 57438085,
  "HSTS 47728871 Version": 62148932,
  "HSTS 48117274 Version": 47671339,
  "HSTS 482466 Version": 49965692,
  "HSTS 50309259 Version": 69023973,
  "HSTS 50390632 Version": 88082114,
  "HSTS 50471628 Version": 33253888,
  "HSTS 50691949 Version": 51248505,
  "HSTS 51141550 Version": 57869325,
  "HSTS 52322429 Version": 99538916,
  "HSTS 52651443 Version": 84421189,
  "HSTS 52866208 Version": 4712426,
  "HSTS 52948776 Version": 22248954,
  "HSTS 53951356 Version": 84727293,
  "HSTS 54295113 Version": 3809404,
  "HSTS 54967742 Version": 93478686,
  "HSTS 55226204 Version": 37799717,
  "HSTS 5562165 Version": 60205453,
  "HSTS 56034037 Version": 51413848,
  "HSTS 58521127 Version": 97535399,
  "HSTS 58736869 Version": 30080804,
  "HSTS 58956726 Version": 62746941,
  "HSTS 60159844 Version": 66011357,
  "HSTS 60698501 Version": 68993920,
  "HSTS 60765224 Version": 89009361,
  "HSTS 60918987 Version": 51149709,
  "HSTS 61539663 Version": 6462592,
  "HSTS 6262357 Version": 29349877,
  "HSTS 63200568 Version": 18691061,
  "HSTS 63341561 Version": 9732932,
  "HSTS 63477783 Version": 6771921,
  "HSTS 65306743 Version": 71438346,
  "HSTS 65689205 Version": 67017391,
  "HSTS 66438425 Version": 39443722,
  "HSTS 66647567 Version": 81344547,
  "HSTS 67124270 Version": 89260557,
  "HSTS 67776986 Version": 63512041,
  "HSTS 67789571 Version": 17413144,
  "HSTS 68935308 Version": 96426716,
  "HSTS 69433020 Version": 5758768,
  "HSTS 71811527 Version": 55962466,
  "HSTS 7236116 Version": 30583936,
  "HSTS 72441178 Version": 11606317,
  "HSTS 73970690 Version": 63955713,
  "HSTS 74166247 Version": 10009858,
  "HSTS 75368770 Version": 35407340,
  "HSTS 75540994 Version": 15981803,
  "HSTS 75630666 Version": 82444963,
  "HSTS 75750610 Version": 75119082,
  "HSTS 76899202 Version": 30962852,
  "HSTS 7873426 Version": 35521661,
  "HSTS 79072695 Version": 61738918,
  "HSTS 79471110 Version": 2127001,
  "HSTS 79923975 Version": 59888790,
  "HSTS 80065929 Version": 86984057,
  "HSTS 81829874 Version": 93094009,
  "HSTS 82485082 Version": 79566403,
  "HSTS 82698591 Version": 72103960,
  "HSTS 83989129 Version": 6977725,
  "HSTS 86433714 Version": 84451256,
  "HSTS 89495937 Version": 86944250,
  "HSTS 896080 Version": 51431504,
  "HSTS 90566589 Version": 35214456,
  "HSTS 91427292 Version": 10240297,
  "HSTS 9259520 Version": 50945041,
  "HSTS 92978648 Version": 9840712,
  "HSTS 95450582 Version": 10189575,
  "HSTS 9591246 Version": 89202573,
  "HSTS 9609427 Version": 81431426,
  "HSTS 973832 Version": 81125056,
  "HSTS 98868433 Version": 36132384,
  "HSTS 99097841 Version": 74086531,
  "HSTS 99156702 Version": 56425129
}
