$ fq dv Info.plist
     |00 01 02 03 04 05 06 07 08 09 0a 0b 0c 0d 0e 0f|0123456789abcdef|.{}: Info.plist (bplist) 0x0-0x983.7 (2436)
     |                                               |                |  header{}: 0x0-0x7.7 (8)
0x000|62 70 6c 69 73 74                              |bplist          |    magic: "bplist" (valid) 0x0-0x5.7 (6)
0x000|                  30 30                        |      00        |    version: "00" (valid) 0x6-0x7.7 (2)
     |                                               |                |  objects{}: 0x8-0x87f.7 (2168)
0x000|                        df                     |        .       |    type: "dict" (13) (Dictionary) 0x8-0x8.3 (0.4)
0x000|                        df                     |        .       |    size_bits: 15 0x8.4-0x8.7 (0.4)
0x000|                           10                  |         .      |    large_size_marker: 1 (valid) 0x9-0x9.3 (0.4)
0x000|                           10                  |         .      |    exponent: 0 0x9.4-0x9.7 (0.4)
0x000|                              16               |          .     |    size_bigint: 22 0xa-0xa.7 (1)
     |                                               |                |    size: 22
     |                                               |                |    entries[0:22]: 0xb-0x87f.7 (2165)
     |                                               |                |      [0]{}: entry 0xb-0x207.7 (509)
0x000|                                 01            |           .    |        key_index: 1 0xb-0xb.7 (1)
0x020|   17                                          | .              |        value_index: 23 0x21-0x21.7 (1)
     |                                               |                |        key{}: 0x37-0x43.7 (13)
0x030|                     5c                        |       \        |          type: "ascii_string" (5) (ASCII encoded string) 0x37-0x37.3 (0.4)
0x030|                     5c                        |       \        |          size_bits: 12 0x37.4-0x37.7 (0.4)
     |                                               |                |          size: 12
0x030|                        43 46 42 75 6e 64 6c 65|        CFBundle|          value: "CFBundleName" 0x38-0x43.7 (12)
0x040|4e 61 6d 65                                    |Name            |
     |                                               |                |        value{}: 0x1ed-0x207.7 (27)
0x1e0|                                       5f      |             _  |          type: "ascii_string" (5) (ASCII encoded string) 0x1ed-0x1ed.3 (0.4)
0x1e0|                                       5f      |             _  |          size_bits: 15 0x1ed.4-0x1ed.7 (0.4)
0x1e0|                                          10   |              . |          large_size_marker: 1 (valid) 0x1ee-0x1ee.3 (0.4)
0x1e0|                                          10   |              . |          exponent: 0 0x1ee.4-0x1ee.7 (0.4)
0x1e0|                                             18|               .|          size_bigint: 24 0x1ef-0x1ef.7 (1)
     |                                               |                |          size: 24
0x1f0|41 70 70 6c 65 50 72 6f 52 65 73 43 6f 64 65 63|AppleProResCodec|          value: "AppleProResCodecEmbedded" 0x1f0-0x207.7 (24)
0x200|45 6d 62 65 64 64 65 64                        |Embedded        |
     |                                               |                |      [1]{}: entry 0xc-0x20c.7 (513)
0x000|                                    02         |            .   |        key_index: 2 0xc-0xc.7 (1)
0x020|      18                                       |  .             |        value_index: 24 0x22-0x22.7 (1)
     |                                               |                |        key{}: 0x44-0x4b.7 (8)
0x040|            57                                 |    W           |          type: "ascii_string" (5) (ASCII encoded string) 0x44-0x44.3 (0.4)
0x040|            57                                 |    W           |          size_bits: 7 0x44.4-0x44.7 (0.4)
     |                                               |                |          size: 7
0x040|               44 54 58 63 6f 64 65            |     DTXcode    |          value: "DTXcode" 0x45-0x4b.7 (7)
     |                                               |                |        value{}: 0x208-0x20c.7 (5)
0x200|                        54                     |        T       |          type: "ascii_string" (5) (ASCII encoded string) 0x208-0x208.3 (0.4)
0x200|                        54                     |        T       |          size_bits: 4 0x208.4-0x208.7 (0.4)
     |                                               |                |          size: 4
0x200|                           31 33 31 30         |         1310   |          value: "1310" 0x209-0x20c.7 (4)
     |                                               |                |      [2]{}: entry 0xd-0x222.7 (534)
0x000|                                       03      |             .  |        key_index: 3 0xd-0xd.7 (1)
0x020|         19                                    |   .            |        value_index: 25 0x23-0x23.7 (1)
     |                                               |                |        key{}: 0x4c-0x55.7 (10)
0x040|                                    59         |            Y   |          type: "ascii_string" (5) (ASCII encoded string) 0x4c-0x4c.3 (0.4)
0x040|                                    59         |            Y   |          size_bits: 9 0x4c.4-0x4c.7 (0.4)
     |                                               |                |          size: 9
0x040|                                       44 54 53|             DTS|          value: "DTSDKName" 0x4d-0x55.7 (9)
0x050|44 4b 4e 61 6d 65                              |DKName          |
     |                                               |                |        value{}: 0x20d-0x222.7 (22)
0x200|                                       5f      |             _  |          type: "ascii_string" (5) (ASCII encoded string) 0x20d-0x20d.3 (0.4)
0x200|                                       5f      |             _  |          size_bits: 15 0x20d.4-0x20d.7 (0.4)
0x200|                                          10   |              . |          large_size_marker: 1 (valid) 0x20e-0x20e.3 (0.4)
0x200|                                          10   |              . |          exponent: 0 0x20e.4-0x20e.7 (0.4)
0x200|                                             13|               .|          size_bigint: 19 0x20f-0x20f.7 (1)
     |                                               |                |          size: 19
0x210|6d 61 63 6f 73 78 31 32 2e 30 2e 69 6e 74 65 72|macosx12.0.inter|          value: "macosx12.0.internal" 0x210-0x222.7 (19)
0x220|6e 61 6c                                       |nal             |
     |                                               |                |      [3]{}: entry 0xe-0x25c.7 (591)
0x000|                                          04   |              . |        key_index: 4 0xe-0xe.7 (1)
0x020|            1a                                 |    .           |        value_index: 26 0x24-0x24.7 (1)
     |                                               |                |        key{}: 0x56-0x70.7 (27)
0x050|                  5f                           |      _         |          type: "ascii_string" (5) (ASCII encoded string) 0x56-0x56.3 (0.4)
0x050|                  5f                           |      _         |          size_bits: 15 0x56.4-0x56.7 (0.4)
0x050|                     10                        |       .        |          large_size_marker: 1 (valid) 0x57-0x57.3 (0.4)
0x050|                     10                        |       .        |          exponent: 0 0x57.4-0x57.7 (0.4)
0x050|                        18                     |        .       |          size_bigint: 24 0x58-0x58.7 (1)
     |                                               |                |          size: 24
0x050|                           4e 53 48 75 6d 61 6e|         NSHuman|          value: "NSHumanReadableCopyright" 0x59-0x70.7 (24)
0x060|52 65 61 64 61 62 6c 65 43 6f 70 79 72 69 67 68|ReadableCopyrigh|
0x070|74                                             |t               |
     |                                               |                |        value{}: 0x223-0x25c.7 (58)
0x220|         5f                                    |   _            |          type: "ascii_string" (5) (ASCII encoded string) 0x223-0x223.3 (0.4)
0x220|         5f                                    |   _            |          size_bits: 15 0x223.4-0x223.7 (0.4)
0x220|            10                                 |    .           |          large_size_marker: 1 (valid) 0x224-0x224.3 (0.4)
0x220|            10                                 |    .           |          exponent: 0 0x224.4-0x224.7 (0.4)
0x220|               37                              |     7          |          size_bigint: 55 0x225-0x225.7 (1)
     |                                               |                |          size: 55
0x220|                  43 6f 70 79 72 69 67 68 74 20|      Copyright |          value: "Copyright (c) 2011-2021 Apple Inc. All rights r..." 0x226-0x25c.7 (55)
0x230|28 63 29 20 32 30 31 31 2d 32 30 32 31 20 41 70|(c) 2011-2021 Ap|
*    |until 0x25c.7 (55)                             |                |
     |                                               |                |      [4]{}: entry 0xf-0x263.7 (597)
0x000|                                             05|               .|        key_index: 5 0xf-0xf.7 (1)
0x020|               1b                              |     .          |        value_index: 27 0x25-0x25.7 (1)
     |                                               |                |        key{}: 0x71-0x7b.7 (11)
0x070|   5a                                          | Z              |          type: "ascii_string" (5) (ASCII encoded string) 0x71-0x71.3 (0.4)
0x070|   5a                                          | Z              |          size_bits: 10 0x71.4-0x71.7 (0.4)
     |                                               |                |          size: 10
0x070|      44 54 53 44 4b 42 75 69 6c 64            |  DTSDKBuild    |          value: "DTSDKBuild" 0x72-0x7b.7 (10)
     |                                               |                |        value{}: 0x25d-0x263.7 (7)
0x250|                                       56      |             V  |          type: "ascii_string" (5) (ASCII encoded string) 0x25d-0x25d.3 (0.4)
0x250|                                       56      |             V  |          size_bits: 6 0x25d.4-0x25d.7 (0.4)
     |                                               |                |          size: 6
0x250|                                          32 31|              21|          value: "21A344" 0x25e-0x263.7 (6)
0x260|41 33 34 34                                    |A344            |
     |                                               |                |      [5]{}: entry 0x10-0x26b.7 (604)
0x010|06                                             |.               |        key_index: 6 0x10-0x10.7 (1)
0x020|                  1c                           |      .         |        value_index: 28 0x26-0x26.7 (1)
     |                                               |                |        key{}: 0x7c-0x97.7 (28)
0x070|                                    5f         |            _   |          type: "ascii_string" (5) (ASCII encoded string) 0x7c-0x7c.3 (0.4)
0x070|                                    5f         |            _   |          size_bits: 15 0x7c.4-0x7c.7 (0.4)
0x070|                                       10      |             .  |          large_size_marker: 1 (valid) 0x7d-0x7d.3 (0.4)
0x070|                                       10      |             .  |          exponent: 0 0x7d.4-0x7d.7 (0.4)
0x070|                                          19   |              . |          size_bigint: 25 0x7e-0x7e.7 (1)
     |                                               |                |          size: 25
0x070|                                             43|               C|          value: "CFBundleDevelopmentRegion" 0x7f-0x97.7 (25)
0x080|46 42 75 6e 64 6c 65 44 65 76 65 6c 6f 70 6d 65|FBundleDevelopme|
0x090|6e 74 52 65 67 69 6f 6e                        |ntRegion        |
     |                                               |                |        value{}: 0x264-0x26b.7 (8)
0x260|            57                                 |    W           |          type: "ascii_string" (5) (ASCII encoded string) 0x264-0x264.3 (0.4)
0x260|            57                                 |    W           |          size_bits: 7 0x264.4-0x264.7 (0.4)
     |                                               |                |          size: 7
0x260|               45 6e 67 6c 69 73 68            |     English    |          value: "English" 0x265-0x26b.7 (7)
     |                                               |                |      [6]{}: entry 0x11-0x271.7 (609)
0x010|   07                                          | .              |        key_index: 7 0x11-0x11.7 (1)
0x020|                     1d                        |       .        |        value_index: 29 0x27-0x27.7 (1)
     |                                               |                |        key{}: 0x98-0xa9.7 (18)
0x090|                        5f                     |        _       |          type: "ascii_string" (5) (ASCII encoded string) 0x98-0x98.3 (0.4)
0x090|                        5f                     |        _       |          size_bits: 15 0x98.4-0x98.7 (0.4)
0x090|                           10                  |         .      |          large_size_marker: 1 (valid) 0x99-0x99.3 (0.4)
0x090|                           10                  |         .      |          exponent: 0 0x99.4-0x99.7 (0.4)
0x090|                              0f               |          .     |          size_bigint: 15 0x9a-0x9a.7 (1)
     |                                               |                |          size: 15
0x090|                                 43 46 42 75 6e|           CFBun|          value: "CFBundleVersion" 0x9b-0xa9.7 (15)
0x0a0|64 6c 65 56 65 72 73 69 6f 6e                  |dleVersion      |
     |                                               |                |        value{}: 0x26c-0x271.7 (6)
0x260|                                    55         |            U   |          type: "ascii_string" (5) (ASCII encoded string) 0x26c-0x26c.3 (0.4)
0x260|                                    55         |            U   |          size_bits: 5 0x26c.4-0x26c.7 (0.4)
     |                                               |                |          size: 5
0x260|                                       31 35 34|             154|          value: "15481" 0x26d-0x271.7 (5)
0x270|38 31                                          |81              |
     |                                               |                |      [7]{}: entry 0x12-0x27a.7 (617)
0x010|      08                                       |  .             |        key_index: 8 0x12-0x12.7 (1)
0x020|                        1e                     |        .       |        value_index: 30 0x28-0x28.7 (1)
     |                                               |                |        key{}: 0xaa-0xbf.7 (22)
0x0a0|                              5f               |          _     |          type: "ascii_string" (5) (ASCII encoded string) 0xaa-0xaa.3 (0.4)
0x0a0|                              5f               |          _     |          size_bits: 15 0xaa.4-0xaa.7 (0.4)
0x0a0|                                 10            |           .    |          large_size_marker: 1 (valid) 0xab-0xab.3 (0.4)
0x0a0|                                 10            |           .    |          exponent: 0 0xab.4-0xab.7 (0.4)
0x0a0|                                    13         |            .   |          size_bigint: 19 0xac-0xac.7 (1)
     |                                               |                |          size: 19
0x0a0|                                       42 75 69|             Bui|          value: "BuildMachineOSBuild" 0xad-0xbf.7 (19)
0x0b0|6c 64 4d 61 63 68 69 6e 65 4f 53 42 75 69 6c 64|ldMachineOSBuild|
     |                                               |                |        value{}: 0x272-0x27a.7 (9)
0x270|      33                                       |  3             |          type: "date" (3) (Date, 4 or 8 byte float) 0x272-0x272.3 (0.4)
0x270|      33                                       |  3             |          size_bits: 3 0x272.4-0x272.7 (0.4)
     |                                               |                |          size: 8
0x270|         41 c4 6b 2a f0 00 00 00               |   A.k*....     |          value: 6.85135328e+08 (2022-09-17T19:22:08Z) 0x273-0x27a.7 (8)
     |                                               |                |      [8]{}: entry 0x13-0x281.7 (623)
0x010|         09                                    |   .            |        key_index: 9 0x13-0x13.7 (1)
0x020|                           1f                  |         .      |        value_index: 31 0x29-0x29.7 (1)
     |                                               |                |        key{}: 0xc0-0xce.7 (15)
0x0c0|5e                                             |^               |          type: "ascii_string" (5) (ASCII encoded string) 0xc0-0xc0.3 (0.4)
0x0c0|5e                                             |^               |          size_bits: 14 0xc0.4-0xc0.7 (0.4)
     |                                               |                |          size: 14
0x0c0|   44 54 50 6c 61 74 66 6f 72 6d 4e 61 6d 65   | DTPlatformName |          value: "DTPlatformName" 0xc1-0xce.7 (14)
     |                                               |                |        value{}: 0x27b-0x281.7 (7)
0x270|                                 56            |           V    |          type: "ascii_string" (5) (ASCII encoded string) 0x27b-0x27b.3 (0.4)
0x270|                                 56            |           V    |          size_bits: 6 0x27b.4-0x27b.7 (0.4)
     |                                               |                |          size: 6
0x270|                                    6d 61 63 6f|            maco|          value: "macosx" 0x27c-0x281.7 (6)
0x280|73 78                                          |sx              |
     |                                               |                |      [9]{}: entry 0x14-0x286.7 (627)
0x010|            0a                                 |    .           |        key_index: 10 0x14-0x14.7 (1)
0x020|                              20               |                |        value_index: 32 0x2a-0x2a.7 (1)
     |                                               |                |        key{}: 0xcf-0xe4.7 (22)
0x0c0|                                             5f|               _|          type: "ascii_string" (5) (ASCII encoded string) 0xcf-0xcf.3 (0.4)
0x0c0|                                             5f|               _|          size_bits: 15 0xcf.4-0xcf.7 (0.4)
0x0d0|10                                             |.               |          large_size_marker: 1 (valid) 0xd0-0xd0.3 (0.4)
0x0d0|10                                             |.               |          exponent: 0 0xd0.4-0xd0.7 (0.4)
0x0d0|   13                                          | .              |          size_bigint: 19 0xd1-0xd1.7 (1)
     |                                               |                |          size: 19
0x0d0|      43 46 42 75 6e 64 6c 65 50 61 63 6b 61 67|  CFBundlePackag|          value: "CFBundlePackageType" 0xd2-0xe4.7 (19)
0x0e0|65 54 79 70 65                                 |eType           |
     |                                               |                |        value{}: 0x282-0x286.7 (5)
0x280|      54                                       |  T             |          type: "ascii_string" (5) (ASCII encoded string) 0x282-0x282.3 (0.4)
0x280|      54                                       |  T             |          size_bits: 4 0x282.4-0x282.7 (0.4)
     |                                               |                |          size: 4
0x280|         42 4e 44 4c                           |   BNDL         |          value: "BNDL" 0x283-0x286.7 (4)
     |                                               |                |      [10]{}: entry 0x15-0x28c.7 (632)
0x010|               0b                              |     .          |        key_index: 11 0x15-0x15.7 (1)
0x020|                                 21            |           !    |        value_index: 33 0x2b-0x2b.7 (1)
     |                                               |                |        key{}: 0xe5-0x101.7 (29)
0x0e0|               5f                              |     _          |          type: "ascii_string" (5) (ASCII encoded string) 0xe5-0xe5.3 (0.4)
0x0e0|               5f                              |     _          |          size_bits: 15 0xe5.4-0xe5.7 (0.4)
0x0e0|                  10                           |      .         |          large_size_marker: 1 (valid) 0xe6-0xe6.3 (0.4)
0x0e0|                  10                           |      .         |          exponent: 0 0xe6.4-0xe6.7 (0.4)
0x0e0|                     1a                        |       .        |          size_bigint: 26 0xe7-0xe7.7 (1)
     |                                               |                |          size: 26
0x0e0|                        43 46 42 75 6e 64 6c 65|        CFBundle|          value: "CFBundleShortVersionString" 0xe8-0x101.7 (26)
0x0f0|53 68 6f 72 74 56 65 72 73 69 6f 6e 53 74 72 69|ShortVersionStri|
0x100|6e 67                                          |ng              |
     |                                               |                |        value{}: 0x287-0x28c.7 (6)
0x280|                     55                        |       U        |          type: "ascii_string" (5) (ASCII encoded string) 0x287-0x287.3 (0.4)
0x280|                     55                        |       U        |          size_bits: 5 0x287.4-0x287.7 (0.4)
     |                                               |                |          size: 5
0x280|                        33 2e 37 2e 30         |        3.7.0   |          value: "3.7.0" 0x288-0x28c.7 (5)
     |                                               |                |      [11]{}: entry 0x16-0x295.7 (640)
0x010|                  0c                           |      .         |        key_index: 12 0x16-0x16.7 (1)
0x020|                                    22         |            "   |        value_index: 34 0x2c-0x2c.7 (1)
     |                                               |                |        key{}: 0x102-0x11e.7 (29)
0x100|      5f                                       |  _             |          type: "ascii_string" (5) (ASCII encoded string) 0x102-0x102.3 (0.4)
0x100|      5f                                       |  _             |          size_bits: 15 0x102.4-0x102.7 (0.4)
0x100|         10                                    |   .            |          large_size_marker: 1 (valid) 0x103-0x103.3 (0.4)
0x100|         10                                    |   .            |          exponent: 0 0x103.4-0x103.7 (0.4)
0x100|            1a                                 |    .           |          size_bigint: 26 0x104-0x104.7 (1)
     |                                               |                |          size: 26
0x100|               43 46 42 75 6e 64 6c 65 53 75 70|     CFBundleSup|          value: "CFBundleSupportedPlatforms" 0x105-0x11e.7 (26)
0x110|70 6f 72 74 65 64 50 6c 61 74 66 6f 72 6d 73   |portedPlatforms |
     |                                               |                |        value{}: 0x28d-0x295.7 (9)
0x280|                                       a1      |             .  |          type: "array" (10) (Array) 0x28d-0x28d.3 (0.4)
0x280|                                       a1      |             .  |          size_bits: 1 0x28d.4-0x28d.7 (0.4)
     |                                               |                |          size: 1
     |                                               |                |          entries[0:1]: 0x28e-0x295.7 (8)
     |                                               |                |            [0]{}: entry 0x28e-0x295.7 (8)
0x280|                                          23   |              # |              object_index: 35 0x28e-0x28e.7 (1)
0x280|                                             56|               V|              type: "ascii_string" (5) (ASCII encoded string) 0x28f-0x28f.3 (0.4)
0x280|                                             56|               V|              size_bits: 6 0x28f.4-0x28f.7 (0.4)
     |                                               |                |              size: 6
0x290|4d 61 63 4f 53 58                              |MacOSX          |              value: "MacOSX" 0x290-0x295.7 (6)
     |                                               |                |      [12]{}: entry 0x17-0x299.7 (643)
0x010|                     0d                        |       .        |        key_index: 13 0x17-0x17.7 (1)
0x020|                                       24      |             $  |        value_index: 36 0x2d-0x2d.7 (1)
     |                                               |                |        key{}: 0x11f-0x13e.7 (32)
0x110|                                             5f|               _|          type: "ascii_string" (5) (ASCII encoded string) 0x11f-0x11f.3 (0.4)
0x110|                                             5f|               _|          size_bits: 15 0x11f.4-0x11f.7 (0.4)
0x120|10                                             |.               |          large_size_marker: 1 (valid) 0x120-0x120.3 (0.4)
0x120|10                                             |.               |          exponent: 0 0x120.4-0x120.7 (0.4)
0x120|   1d                                          | .              |          size_bigint: 29 0x121-0x121.7 (1)
     |                                               |                |          size: 29
0x120|      43 46 42 75 6e 64 6c 65 49 6e 66 6f 44 69|  CFBundleInfoDi|          value: "CFBundleInfoDictionaryVersion" 0x122-0x13e.7 (29)
0x130|63 74 69 6f 6e 61 72 79 56 65 72 73 69 6f 6e   |ctionaryVersion |
     |                                               |                |        value{}: 0x296-0x299.7 (4)
0x290|                  53                           |      S         |          type: "ascii_string" (5) (ASCII encoded string) 0x296-0x296.3 (0.4)
0x290|                  53                           |      S         |          size_bits: 3 0x296.4-0x296.7 (0.4)
     |                                               |                |          size: 3
0x290|                     36 2e 30                  |       6.0      |          value: "6.0" 0x297-0x299.7 (3)
     |                                               |                |      [13]{}: entry 0x18-0x207.7 (496)
0x010|                        0e                     |        .       |        key_index: 14 0x18-0x18.7 (1)
0x020|                                          17   |              . |        value_index: 23 0x2e-0x2e.7 (1)
     |                                               |                |        key{}: 0x13f-0x153.7 (21)
0x130|                                             5f|               _|          type: "ascii_string" (5) (ASCII encoded string) 0x13f-0x13f.3 (0.4)
0x130|                                             5f|               _|          size_bits: 15 0x13f.4-0x13f.7 (0.4)
0x140|10                                             |.               |          large_size_marker: 1 (valid) 0x140-0x140.3 (0.4)
0x140|10                                             |.               |          exponent: 0 0x140.4-0x140.7 (0.4)
0x140|   12                                          | .              |          size_bigint: 18 0x141-0x141.7 (1)
     |                                               |                |          size: 18
0x140|      43 46 42 75 6e 64 6c 65 45 78 65 63 75 74|  CFBundleExecut|          value: "CFBundleExecutable" 0x142-0x153.7 (18)
0x150|61 62 6c 65                                    |able            |
     |                                               |                |        value{}: 0x1ed-0x207.7 (27)
0x1e0|                                       5f      |             _  |          type: "ascii_string" (5) (ASCII encoded string) 0x1ed-0x1ed.3 (0.4)
0x1e0|                                       5f      |             _  |          size_bits: 15 0x1ed.4-0x1ed.7 (0.4)
0x1e0|                                          10   |              . |          large_size_marker: 1 (valid) 0x1ee-0x1ee.3 (0.4)
0x1e0|                                          10   |              . |          exponent: 0 0x1ee.4-0x1ee.7 (0.4)
0x1e0|                                             18|               .|          size_bigint: 24 0x1ef-0x1ef.7 (1)
     |                                               |                |          size: 24
0x1f0|41 70 70 6c 65 50 72 6f 52 65 73 43 6f 64 65 63|AppleProResCodec|          value: "AppleProResCodecEmbedded" 0x1f0-0x207.7 (24)
0x200|45 6d 62 65 64 64 65 64                        |Embedded        |
     |                                               |                |      [14]{}: entry 0x19-0x2be.7 (678)
0x010|                           0f                  |         .      |        key_index: 15 0x19-0x19.7 (1)
0x020|                                             25|               %|        value_index: 37 0x2f-0x2f.7 (1)
     |                                               |                |        key{}: 0x154-0x15e.7 (11)
0x150|            5a                                 |    Z           |          type: "ascii_string" (5) (ASCII encoded string) 0x154-0x154.3 (0.4)
0x150|            5a                                 |    Z           |          size_bits: 10 0x154.4-0x154.7 (0.4)
     |                                               |                |          size: 10
0x150|               44 54 43 6f 6d 70 69 6c 65 72   |     DTCompiler |          value: "DTCompiler" 0x155-0x15e.7 (10)
     |                                               |                |        value{}: 0x29a-0x2be.7 (37)
0x290|                              5f               |          _     |          type: "ascii_string" (5) (ASCII encoded string) 0x29a-0x29a.3 (0.4)
0x290|                              5f               |          _     |          size_bits: 15 0x29a.4-0x29a.7 (0.4)
0x290|                                 10            |           .    |          large_size_marker: 1 (valid) 0x29b-0x29b.3 (0.4)
0x290|                                 10            |           .    |          exponent: 0 0x29b.4-0x29b.7 (0.4)
0x290|                                    22         |            "   |          size_bigint: 34 0x29c-0x29c.7 (1)
     |                                               |                |          size: 34
0x290|                                       63 6f 6d|             com|          value: "com.apple.compilers.llvm.clang.1_0" 0x29d-0x2be.7 (34)
0x2a0|2e 61 70 70 6c 65 2e 63 6f 6d 70 69 6c 65 72 73|.apple.compilers|
0x2b0|2e 6c 6c 76 6d 2e 63 6c 61 6e 67 2e 31 5f 30   |.llvm.clang.1_0 |
     |                                               |                |      [15]{}: entry 0x1a-0x2eb.7 (722)
0x010|                              10               |          .     |        key_index: 16 0x1a-0x1a.7 (1)
0x030|26                                             |&               |        value_index: 38 0x30-0x30.7 (1)
     |                                               |                |        key{}: 0x15f-0x173.7 (21)
0x150|                                             5f|               _|          type: "ascii_string" (5) (ASCII encoded string) 0x15f-0x15f.3 (0.4)
0x150|                                             5f|               _|          size_bits: 15 0x15f.4-0x15f.7 (0.4)
0x160|10                                             |.               |          large_size_marker: 1 (valid) 0x160-0x160.3 (0.4)
0x160|10                                             |.               |          exponent: 0 0x160.4-0x160.7 (0.4)
0x160|   12                                          | .              |          size_bigint: 18 0x161-0x161.7 (1)
     |                                               |                |          size: 18
0x160|      43 46 42 75 6e 64 6c 65 49 64 65 6e 74 69|  CFBundleIdenti|          value: "CFBundleIdentifier" 0x162-0x173.7 (18)
0x170|66 69 65 72                                    |fier            |
     |                                               |                |        value{}: 0x2bf-0x2eb.7 (45)
0x2b0|                                             5f|               _|          type: "ascii_string" (5) (ASCII encoded string) 0x2bf-0x2bf.3 (0.4)
0x2b0|                                             5f|               _|          size_bits: 15 0x2bf.4-0x2bf.7 (0.4)
0x2c0|10                                             |.               |          large_size_marker: 1 (valid) 0x2c0-0x2c0.3 (0.4)
0x2c0|10                                             |.               |          exponent: 0 0x2c0.4-0x2c0.7 (0.4)
0x2c0|   2a                                          | *              |          size_bigint: 42 0x2c1-0x2c1.7 (1)
     |                                               |                |          size: 42
0x2c0|      63 6f 6d 2e 61 70 70 6c 65 2e 70 72 6f 61|  com.apple.proa|          value: "com.apple.proapps.AppleProResCodecEmbedded" 0x2c2-0x2eb.7 (42)
0x2d0|70 70 73 2e 41 70 70 6c 65 50 72 6f 52 65 73 43|pps.AppleProResC|
0x2e0|6f 64 65 63 45 6d 62 65 64 64 65 64            |odecEmbedded    |
     |                                               |                |      [16]{}: entry 0x1b-0x2f0.7 (726)
0x010|                                 11            |           .    |        key_index: 17 0x1b-0x1b.7 (1)
0x030|   27                                          | '              |        value_index: 39 0x31-0x31.7 (1)
     |                                               |                |        key{}: 0x174-0x187.7 (20)
0x170|            5f                                 |    _           |          type: "ascii_string" (5) (ASCII encoded string) 0x174-0x174.3 (0.4)
0x170|            5f                                 |    _           |          size_bits: 15 0x174.4-0x174.7 (0.4)
0x170|               10                              |     .          |          large_size_marker: 1 (valid) 0x175-0x175.3 (0.4)
0x170|               10                              |     .          |          exponent: 0 0x175.4-0x175.7 (0.4)
0x170|                  11                           |      .         |          size_bigint: 17 0x176-0x176.7 (1)
     |                                               |                |          size: 17
0x170|                     44 54 50 6c 61 74 66 6f 72|       DTPlatfor|          value: "DTPlatformVersion" 0x177-0x187.7 (17)
0x180|6d 56 65 72 73 69 6f 6e                        |mVersion        |
     |                                               |                |        value{}: 0x2ec-0x2f0.7 (5)
0x2e0|                                    54         |            T   |          type: "ascii_string" (5) (ASCII encoded string) 0x2ec-0x2ec.3 (0.4)
0x2e0|                                    54         |            T   |          size_bits: 4 0x2ec.4-0x2ec.7 (0.4)
     |                                               |                |          size: 4
0x2e0|                                       31 32 2e|             12.|          value: "12.0" 0x2ed-0x2f0.7 (4)
0x2f0|30                                             |0               |
     |                                               |                |      [17]{}: entry 0x1c-0x2f9.7 (734)
0x010|                                    12         |            .   |        key_index: 18 0x1c-0x1c.7 (1)
0x030|      28                                       |  (             |        value_index: 40 0x32-0x32.7 (1)
     |                                               |                |        key{}: 0x188-0x194.7 (13)
0x180|                        5c                     |        \       |          type: "ascii_string" (5) (ASCII encoded string) 0x188-0x188.3 (0.4)
0x180|                        5c                     |        \       |          size_bits: 12 0x188.4-0x188.7 (0.4)
     |                                               |                |          size: 12
0x180|                           44 54 58 63 6f 64 65|         DTXcode|          value: "DTXcodeBuild" 0x189-0x194.7 (12)
0x190|42 75 69 6c 64                                 |Build           |
     |                                               |                |        value{}: 0x2f1-0x2f9.7 (9)
0x2f0|   58                                          | X              |          type: "ascii_string" (5) (ASCII encoded string) 0x2f1-0x2f1.3 (0.4)
0x2f0|   58                                          | X              |          size_bits: 8 0x2f1.4-0x2f1.7 (0.4)
     |                                               |                |          size: 8
0x2f0|      31 33 41 31 30 33 30 64                  |  13A1030d      |          value: "13A1030d" 0x2f2-0x2f9.7 (8)
     |                                               |                |      [18]{}: entry 0x1d-0x2fe.7 (738)
0x010|                                       13      |             .  |        key_index: 19 0x1d-0x1d.7 (1)
0x030|         29                                    |   )            |        value_index: 41 0x33-0x33.7 (1)
     |                                               |                |        key{}: 0x195-0x1a8.7 (20)
0x190|               5f                              |     _          |          type: "ascii_string" (5) (ASCII encoded string) 0x195-0x195.3 (0.4)
0x190|               5f                              |     _          |          size_bits: 15 0x195.4-0x195.7 (0.4)
0x190|                  10                           |      .         |          large_size_marker: 1 (valid) 0x196-0x196.3 (0.4)
0x190|                  10                           |      .         |          exponent: 0 0x196.4-0x196.7 (0.4)
0x190|                     11                        |       .        |          size_bigint: 17 0x197-0x197.7 (1)
     |                                               |                |          size: 17
0x190|                        43 46 42 75 6e 64 6c 65|        CFBundle|          value: "CFBundleSignature" 0x198-0x1a8.7 (17)
0x1a0|53 69 67 6e 61 74 75 72 65                     |Signature       |
     |                                               |                |        value{}: 0x2fa-0x2fe.7 (5)
0x2f0|                              54               |          T     |          type: "ascii_string" (5) (ASCII encoded string) 0x2fa-0x2fa.3 (0.4)
0x2f0|                              54               |          T     |          size_bits: 4 0x2fa.4-0x2fa.7 (0.4)
     |                                               |                |          size: 4
0x2f0|                                 3f 3f 3f 3f   |           ???? |          value: "????" 0x2fb-0x2fe.7 (4)
     |                                               |                |      [19]{}: entry 0x1e-0x304.7 (743)
0x010|                                          14   |              . |        key_index: 20 0x1e-0x1e.7 (1)
0x030|            2a                                 |    *           |        value_index: 42 0x34-0x34.7 (1)
     |                                               |                |        key{}: 0x1a9-0x1c1.7 (25)
0x1a0|                           5f                  |         _      |          type: "ascii_string" (5) (ASCII encoded string) 0x1a9-0x1a9.3 (0.4)
0x1a0|                           5f                  |         _      |          size_bits: 15 0x1a9.4-0x1a9.7 (0.4)
0x1a0|                              10               |          .     |          large_size_marker: 1 (valid) 0x1aa-0x1aa.3 (0.4)
0x1a0|                              10               |          .     |          exponent: 0 0x1aa.4-0x1aa.7 (0.4)
0x1a0|                                 16            |           .    |          size_bigint: 22 0x1ab-0x1ab.7 (1)
     |                                               |                |          size: 22
0x1a0|                                    4c 53 4d 69|            LSMi|          value: "LSMinimumSystemVersion" 0x1ac-0x1c1.7 (22)
0x1b0|6e 69 6d 75 6d 53 79 73 74 65 6d 56 65 72 73 69|nimumSystemVersi|
0x1c0|6f 6e                                          |on              |
     |                                               |                |        value{}: 0x2ff-0x304.7 (6)
0x2f0|                                             55|               U|          type: "ascii_string" (5) (ASCII encoded string) 0x2ff-0x2ff.3 (0.4)
0x2f0|                                             55|               U|          size_bits: 5 0x2ff.4-0x2ff.7 (0.4)
     |                                               |                |          size: 5
0x300|31 30 2e 31 34                                 |10.14           |          value: "10.14" 0x300-0x304.7 (5)
     |                                               |                |      [20]{}: entry 0x1f-0x263.7 (581)
0x010|                                             15|               .|        key_index: 21 0x1f-0x1f.7 (1)
0x030|               1b                              |     .          |        value_index: 27 0x35-0x35.7 (1)
     |                                               |                |        key{}: 0x1c2-0x1d3.7 (18)
0x1c0|      5f                                       |  _             |          type: "ascii_string" (5) (ASCII encoded string) 0x1c2-0x1c2.3 (0.4)
0x1c0|      5f                                       |  _             |          size_bits: 15 0x1c2.4-0x1c2.7 (0.4)
0x1c0|         10                                    |   .            |          large_size_marker: 1 (valid) 0x1c3-0x1c3.3 (0.4)
0x1c0|         10                                    |   .            |          exponent: 0 0x1c3.4-0x1c3.7 (0.4)
0x1c0|            0f                                 |    .           |          size_bigint: 15 0x1c4-0x1c4.7 (1)
     |                                               |                |          size: 15
0x1c0|               44 54 50 6c 61 74 66 6f 72 6d 42|     DTPlatformB|          value: "DTPlatformBuild" 0x1c5-0x1d3.7 (15)
0x1d0|75 69 6c 64                                    |uild            |
     |                                               |                |        value{}: 0x25d-0x263.7 (7)
0x250|                                       56      |             V  |          type: "ascii_string" (5) (ASCII encoded string) 0x25d-0x25d.3 (0.4)
0x250|                                       56      |             V  |          size_bits: 6 0x25d.4-0x25d.7 (0.4)
     |                                               |                |          size: 6
0x250|                                          32 31|              21|          value: "21A344" 0x25e-0x263.7 (6)
0x260|41 33 34 34                                    |A344            |
     |                                               |                |      [21]{}: entry 0x20-0x87f.7 (2144)
0x020|16                                             |.               |        key_index: 22 0x20-0x20.7 (1)
0x030|                  2b                           |      +         |        value_index: 43 0x36-0x36.7 (1)
     |                                               |                |        key{}: 0x1d4-0x1ec.7 (25)
0x1d0|            5f                                 |    _           |          type: "ascii_string" (5) (ASCII encoded string) 0x1d4-0x1d4.3 (0.4)
0x1d0|            5f                                 |    _           |          size_bits: 15 0x1d4.4-0x1d4.7 (0.4)
0x1d0|               10                              |     .          |          large_size_marker: 1 (valid) 0x1d5-0x1d5.3 (0.4)
0x1d0|               10                              |     .          |          exponent: 0 0x1d5.4-0x1d5.7 (0.4)
0x1d0|                  16                           |      .         |          size_bigint: 22 0x1d6-0x1d6.7 (1)
     |                                               |                |          size: 22
0x1d0|                     43 4d 43 6c 61 73 73 49 6d|       CMClassIm|          value: "CMClassImplementations" 0x1d7-0x1ec.7 (22)
0x1e0|70 6c 65 6d 65 6e 74 61 74 69 6f 6e 73         |plementations   |
     |                                               |                |        value{}: 0x223-0x87f.7 (1629)
     |                                               |                |          entries[0:7]: 0x223-0x87f.7 (1629)
     |                                               |                |            [0]{}: entry 0x223-0x4c5.7 (675)
     |                                               |                |              entries[0:9]: 0x223-0x4c5.7 (675)
     |                                               |                |                [0]{}: entry 0x30e-0x3ef.7 (226)
0x300|                                          2d   |              - |                  key_index: 45 0x30e-0x30e.7 (1)
0x310|                     36                        |       6        |                  value_index: 54 0x317-0x317.7 (1)
     |                                               |                |                  key{}: 0x320-0x33b.7 (28)
0x320|5f                                             |_               |                    type: "ascii_string" (5) (ASCII encoded string) 0x320-0x320.3 (0.4)
0x320|5f                                             |_               |                    size_bits: 15 0x320.4-0x320.7 (0.4)
0x320|   10                                          | .              |                    large_size_marker: 1 (valid) 0x321-0x321.3 (0.4)
0x320|   10                                          | .              |                    exponent: 0 0x321.4-0x321.7 (0.4)
0x320|      19                                       |  .             |                    size_bigint: 25 0x322-0x322.7 (1)
     |                                               |                |                    size: 25
0x320|         43 4d 43 6c 61 73 73 49 6d 70 6c 65 6d|   CMClassImplem|                    value: "CMClassImplementationName" 0x323-0x33b.7 (25)
0x330|65 6e 74 61 74 69 6f 6e 4e 61 6d 65            |entationName    |
     |                                               |                |                  value{}: 0x3d9-0x3ef.7 (23)
0x3d0|                           5f                  |         _      |                    type: "ascii_string" (5) (ASCII encoded string) 0x3d9-0x3d9.3 (0.4)
0x3d0|                           5f                  |         _      |                    size_bits: 15 0x3d9.4-0x3d9.7 (0.4)
0x3d0|                              10               |          .     |                    large_size_marker: 1 (valid) 0x3da-0x3da.3 (0.4)
0x3d0|                              10               |          .     |                    exponent: 0 0x3da.4-0x3da.7 (0.4)
0x3d0|                                 14            |           .    |                    size_bigint: 20 0x3db-0x3db.7 (1)
     |                                               |                |                    size: 20
0x3d0|                                    41 70 70 6c|            Appl|                    value: "Apple ProRes Decoder" 0x3dc-0x3ef.7 (20)
0x3e0|65 20 50 72 6f 52 65 73 20 44 65 63 6f 64 65 72|e ProRes Decoder|
     |                                               |                |                [1]{}: entry 0x30f-0x410.7 (258)
0x300|                                             2e|               .|                  key_index: 46 0x30f-0x30f.7 (1)
0x310|                        37                     |        7       |                  value_index: 55 0x318-0x318.7 (1)
     |                                               |                |                  key{}: 0x33c-0x34f.7 (20)
0x330|                                    5f         |            _   |                    type: "ascii_string" (5) (ASCII encoded string) 0x33c-0x33c.3 (0.4)
0x330|                                    5f         |            _   |                    size_bits: 15 0x33c.4-0x33c.7 (0.4)
0x330|                                       10      |             .  |                    large_size_marker: 1 (valid) 0x33d-0x33d.3 (0.4)
0x330|                                       10      |             .  |                    exponent: 0 0x33d.4-0x33d.7 (0.4)
0x330|                                          11   |              . |                    size_bigint: 17 0x33e-0x33e.7 (1)
     |                                               |                |                    size: 17
0x330|                                             43|               C|                    value: "CMFactoryFunction" 0x33f-0x34f.7 (17)
0x340|4d 46 61 63 74 6f 72 79 46 75 6e 63 74 69 6f 6e|MFactoryFunction|
     |                                               |                |                  value{}: 0x3f0-0x410.7 (33)
0x3f0|5f                                             |_               |                    type: "ascii_string" (5) (ASCII encoded string) 0x3f0-0x3f0.3 (0.4)
0x3f0|5f                                             |_               |                    size_bits: 15 0x3f0.4-0x3f0.7 (0.4)
0x3f0|   10                                          | .              |                    large_size_marker: 1 (valid) 0x3f1-0x3f1.3 (0.4)
0x3f0|   10                                          | .              |                    exponent: 0 0x3f1.4-0x3f1.7 (0.4)
0x3f0|      1e                                       |  .             |                    size_bigint: 30 0x3f2-0x3f2.7 (1)
     |                                               |                |                    size: 30
0x3f0|         49 63 70 56 69 64 65 6f 44 65 63 6f 64|   IcpVideoDecod|                    value: "IcpVideoDecoder_CreateInstance" 0x3f3-0x410.7 (30)
0x400|65 72 5f 43 72 65 61 74 65 49 6e 73 74 61 6e 63|er_CreateInstanc|
0x410|65                                             |e               |
     |                                               |                |                [2]{}: entry 0x310-0x416.7 (263)
0x310|2f                                             |/               |                  key_index: 47 0x310-0x310.7 (1)
0x310|                           38                  |         8      |                  value_index: 56 0x319-0x319.7 (1)
     |                                               |                |                  key{}: 0x350-0x35e.7 (15)
0x350|5e                                             |^               |                    type: "ascii_string" (5) (ASCII encoded string) 0x350-0x350.3 (0.4)
0x350|5e                                             |^               |                    size_bits: 14 0x350.4-0x350.7 (0.4)
     |                                               |                |                    size: 14
0x350|   43 4d 4d 61 6e 75 66 61 63 74 75 72 65 72   | CMManufacturer |                    value: "CMManufacturer" 0x351-0x35e.7 (14)
     |                                               |                |                  value{}: 0x411-0x416.7 (6)
0x410|   55                                          | U              |                    type: "ascii_string" (5) (ASCII encoded string) 0x411-0x411.3 (0.4)
0x410|   55                                          | U              |                    size_bits: 5 0x411.4-0x411.7 (0.4)
     |                                               |                |                    size: 5
0x410|      41 70 70 6c 65                           |  Apple         |                    value: "Apple" 0x412-0x416.7 (5)
     |                                               |                |                [3]{}: entry 0x311-0x418.7 (264)
0x310|   30                                          | 0              |                  key_index: 48 0x311-0x311.7 (1)
0x310|                              39               |          9     |                  value_index: 57 0x31a-0x31a.7 (1)
     |                                               |                |                  key{}: 0x35f-0x37d.7 (31)
0x350|                                             5f|               _|                    type: "ascii_string" (5) (ASCII encoded string) 0x35f-0x35f.3 (0.4)
0x350|                                             5f|               _|                    size_bits: 15 0x35f.4-0x35f.7 (0.4)
0x360|10                                             |.               |                    large_size_marker: 1 (valid) 0x360-0x360.3 (0.4)
0x360|10                                             |.               |                    exponent: 0 0x360.4-0x360.7 (0.4)
0x360|   1c                                          | .              |                    size_bigint: 28 0x361-0x361.7 (1)
     |                                               |                |                    size: 28
0x360|      43 4d 43 6c 61 73 73 49 6d 70 6c 65 6d 65|  CMClassImpleme|                    value: "CMClassImplementationVersion" 0x362-0x37d.7 (28)
0x370|6e 74 61 74 69 6f 6e 56 65 72 73 69 6f 6e      |ntationVersion  |
     |                                               |                |                  value{}: 0x417-0x418.7 (2)
0x410|                     10                        |       .        |                    type: "int" (1) (Integer) 0x417-0x417.3 (0.4)
0x410|                     10                        |       .        |                    size: 1 0x417.4-0x417.7 (0.4)
0x410|                        01                     |        .       |                    value: 1 0x418-0x418.7 (1)
     |                                               |                |                [4]{}: entry 0x312-0x44e.7 (317)
0x310|      31                                       |  1             |                  key_index: 49 0x312-0x312.7 (1)
0x310|                                 3a            |           :    |                  value_index: 58 0x31b-0x31b.7 (1)
     |                                               |                |                  key{}: 0x37e-0x397.7 (26)
0x370|                                          5f   |              _ |                    type: "ascii_string" (5) (ASCII encoded string) 0x37e-0x37e.3 (0.4)
0x370|                                          5f   |              _ |                    size_bits: 15 0x37e.4-0x37e.7 (0.4)
0x370|                                             10|               .|                    large_size_marker: 1 (valid) 0x37f-0x37f.3 (0.4)
0x370|                                             10|               .|                    exponent: 0 0x37f.4-0x37f.7 (0.4)
0x380|17                                             |.               |                    size_bigint: 23 0x380-0x380.7 (1)
     |                                               |                |                    size: 23
0x380|   43 4d 43 6c 61 73 73 49 6d 70 6c 65 6d 65 6e| CMClassImplemen|                    value: "CMClassImplementationID" 0x381-0x397.7 (23)
0x390|74 61 74 69 6f 6e 49 44                        |tationID        |
     |                                               |                |                  value{}: 0x419-0x44e.7 (54)
0x410|                           5f                  |         _      |                    type: "ascii_string" (5) (ASCII encoded string) 0x419-0x419.3 (0.4)
0x410|                           5f                  |         _      |                    size_bits: 15 0x419.4-0x419.7 (0.4)
0x410|                              10               |          .     |                    large_size_marker: 1 (valid) 0x41a-0x41a.3 (0.4)
0x410|                              10               |          .     |                    exponent: 0 0x41a.4-0x41a.7 (0.4)
0x410|                                 33            |           3    |                    size_bigint: 51 0x41b-0x41b.7 (1)
     |                                               |                |                    size: 51
0x410|                                    63 6f 6d 2e|            com.|                    value: "com.apple.videotoolbox.videodecoder.prores.embe..." 0x41c-0x44e.7 (51)
0x420|61 70 70 6c 65 2e 76 69 64 65 6f 74 6f 6f 6c 62|apple.videotoolb|
*    |until 0x44e.7 (51)                             |                |
     |                                               |                |                [5]{}: entry 0x313-0x45e.7 (332)
0x310|         32                                    |   2            |                  key_index: 50 0x313-0x313.7 (1)
0x310|                                    3b         |            ;   |                  value_index: 59 0x31c-0x31c.7 (1)
     |                                               |                |                  key{}: 0x398-0x3b3.7 (28)
0x390|                        5f                     |        _       |                    type: "ascii_string" (5) (ASCII encoded string) 0x398-0x398.3 (0.4)
0x390|                        5f                     |        _       |                    size_bits: 15 0x398.4-0x398.7 (0.4)
0x390|                           10                  |         .      |                    large_size_marker: 1 (valid) 0x399-0x399.3 (0.4)
0x390|                           10                  |         .      |                    exponent: 0 0x399.4-0x399.7 (0.4)
0x390|                              19               |          .     |                    size_bigint: 25 0x39a-0x39a.7 (1)
     |                                               |                |                    size: 25
0x390|                                 43 4d 45 78 65|           CMExe|                    value: "CMExecutableArchitectures" 0x39b-0x3b3.7 (25)
0x3a0|63 75 74 61 62 6c 65 41 72 63 68 69 74 65 63 74|cutableArchitect|
0x3b0|75 72 65 73                                    |ures            |
     |                                               |                |                  value{}: 0x44f-0x45e.7 (16)
0x440|                                             a2|               .|                    type: "array" (10) (Array) 0x44f-0x44f.3 (0.4)
0x440|                                             a2|               .|                    size_bits: 2 0x44f.4-0x44f.7 (0.4)
     |                                               |                |                    size: 2
     |                                               |                |                    entries[0:2]: 0x450-0x45e.7 (15)
     |                                               |                |                      [0]{}: entry 0x450-0x458.7 (9)
0x450|3c                                             |<               |                        object_index: 60 0x450-0x450.7 (1)
0x450|      56                                       |  V             |                        type: "ascii_string" (5) (ASCII encoded string) 0x452-0x452.3 (0.4)
0x450|      56                                       |  V             |                        size_bits: 6 0x452.4-0x452.7 (0.4)
     |                                               |                |                        size: 6
0x450|         78 38 36 5f 36 34                     |   x86_64       |                        value: "x86_64" 0x453-0x458.7 (6)
     |                                               |                |                      [1]{}: entry 0x451-0x45e.7 (14)
0x450|   3d                                          | =              |                        object_index: 61 0x451-0x451.7 (1)
0x450|                           55                  |         U      |                        type: "ascii_string" (5) (ASCII encoded string) 0x459-0x459.3 (0.4)
0x450|                           55                  |         U      |                        size_bits: 5 0x459.4-0x459.7 (0.4)
     |                                               |                |                        size: 5
0x450|                              61 72 6d 36 34   |          arm64 |                        value: "arm64" 0x45a-0x45e.7 (5)
     |                                               |                |                [6]{}: entry 0x223-0x3bf.7 (413)
     |                                               |                |                  value{}: 0x223-0x25c.7 (58)
0x220|         5f                                    |   _            |                    type: "ascii_string" (5) (ASCII encoded string) 0x223-0x223.3 (0.4)
0x220|         5f                                    |   _            |                    size_bits: 15 0x223.4-0x223.7 (0.4)
0x220|            10                                 |    .           |                    large_size_marker: 1 (valid) 0x224-0x224.3 (0.4)
0x220|            10                                 |    .           |                    exponent: 0 0x224.4-0x224.7 (0.4)
0x220|               37                              |     7          |                    size_bigint: 55 0x225-0x225.7 (1)
     |                                               |                |                    size: 55
0x220|                  43 6f 70 79 72 69 67 68 74 20|      Copyright |                    value: "Copyright (c) 2011-2021 Apple Inc. All rights r..." 0x226-0x25c.7 (55)
0x230|28 63 29 20 32 30 31 31 2d 32 30 32 31 20 41 70|(c) 2011-2021 Ap|
*    |until 0x25c.7 (55)                             |                |
0x310|            33                                 |    3           |                  key_index: 51 0x314-0x314.7 (1)
0x310|                                       1a      |             .  |                  value_index: 26 0x31d-0x31d.7 (1)
     |                                               |                |                  key{}: 0x3b4-0x3bf.7 (12)
0x3b0|            5b                                 |    [           |                    type: "ascii_string" (5) (ASCII encoded string) 0x3b4-0x3b4.3 (0.4)
0x3b0|            5b                                 |    [           |                    size_bits: 11 0x3b4.4-0x3b4.7 (0.4)
     |                                               |                |                    size: 11
0x3b0|               43 4d 43 6f 70 79 72 69 67 68 74|     CMCopyright|                    value: "CMCopyright" 0x3b5-0x3bf.7 (11)
     |                                               |                |                [7]{}: entry 0x315-0x49f.7 (395)
0x310|               34                              |     4          |                  key_index: 52 0x315-0x315.7 (1)
0x310|                                          3e   |              > |                  value_index: 62 0x31e-0x31e.7 (1)
     |                                               |                |                  key{}: 0x3c0-0x3ce.7 (15)
0x3c0|5e                                             |^               |                    type: "ascii_string" (5) (ASCII encoded string) 0x3c0-0x3c0.3 (0.4)
0x3c0|5e                                             |^               |                    size_bits: 14 0x3c0.4-0x3c0.7 (0.4)
     |                                               |                |                    size: 14
0x3c0|   43 4d 4d 61 74 63 68 69 6e 67 49 6e 66 6f   | CMMatchingInfo |                    value: "CMMatchingInfo" 0x3c1-0x3ce.7 (14)
     |                                               |                |                  value{}: 0x45f-0x49f.7 (65)
0x450|                                             d2|               .|                    type: "dict" (13) (Dictionary) 0x45f-0x45f.3 (0.4)
0x450|                                             d2|               .|                    size_bits: 2 0x45f.4-0x45f.7 (0.4)
     |                                               |                |                    size: 2
     |                                               |                |                    entries[0:2]: 0x460-0x49f.7 (64)
     |                                               |                |                      [0]{}: entry 0x460-0x49d.7 (62)
0x460|3f                                             |?               |                        key_index: 63 0x460-0x460.7 (1)
0x460|      41                                       |  A             |                        value_index: 65 0x462-0x462.7 (1)
     |                                               |                |                        key{}: 0x464-0x46f.7 (12)
0x460|            5b                                 |    [           |                          type: "ascii_string" (5) (ASCII encoded string) 0x464-0x464.3 (0.4)
0x460|            5b                                 |    [           |                          size_bits: 11 0x464.4-0x464.7 (0.4)
     |                                               |                |                          size: 11
0x460|               56 54 43 6f 64 65 63 54 79 70 65|     VTCodecType|                          value: "VTCodecType" 0x465-0x46f.7 (11)
     |                                               |                |                        value{}: 0x479-0x49d.7 (37)
0x470|                           a6                  |         .      |                          type: "array" (10) (Array) 0x479-0x479.3 (0.4)
0x470|                           a6                  |         .      |                          size_bits: 6 0x479.4-0x479.7 (0.4)
     |                                               |                |                          size: 6
     |                                               |                |                          entries[0:6]: 0x47a-0x49d.7 (36)
     |                                               |                |                            [0]{}: entry 0x47a-0x484.7 (11)
0x470|                              42               |          B     |                              object_index: 66 0x47a-0x47a.7 (1)
0x480|54                                             |T               |                              type: "ascii_string" (5) (ASCII encoded string) 0x480-0x480.3 (0.4)
0x480|54                                             |T               |                              size_bits: 4 0x480.4-0x480.7 (0.4)
     |                                               |                |                              size: 4
0x480|   61 70 34 78                                 | ap4x           |                              value: "ap4x" 0x481-0x484.7 (4)
     |                                               |                |                            [1]{}: entry 0x47b-0x489.7 (15)
0x470|                                 43            |           C    |                              object_index: 67 0x47b-0x47b.7 (1)
0x480|               54                              |     T          |                              type: "ascii_string" (5) (ASCII encoded string) 0x485-0x485.3 (0.4)
0x480|               54                              |     T          |                              size_bits: 4 0x485.4-0x485.7 (0.4)
     |                                               |                |                              size: 4
0x480|                  61 70 34 68                  |      ap4h      |                              value: "ap4h" 0x486-0x489.7 (4)
     |                                               |                |                            [2]{}: entry 0x47c-0x48e.7 (19)
0x470|                                    44         |            D   |                              object_index: 68 0x47c-0x47c.7 (1)
0x480|                              54               |          T     |                              type: "ascii_string" (5) (ASCII encoded string) 0x48a-0x48a.3 (0.4)
0x480|                              54               |          T     |                              size_bits: 4 0x48a.4-0x48a.7 (0.4)
     |                                               |                |                              size: 4
0x480|                                 61 70 63 68   |           apch |                              value: "apch" 0x48b-0x48e.7 (4)
     |                                               |                |                            [3]{}: entry 0x47d-0x493.7 (23)
0x470|                                       45      |             E  |                              object_index: 69 0x47d-0x47d.7 (1)
0x480|                                             54|               T|                              type: "ascii_string" (5) (ASCII encoded string) 0x48f-0x48f.3 (0.4)
0x480|                                             54|               T|                              size_bits: 4 0x48f.4-0x48f.7 (0.4)
     |                                               |                |                              size: 4
0x490|61 70 63 6e                                    |apcn            |                              value: "apcn" 0x490-0x493.7 (4)
     |                                               |                |                            [4]{}: entry 0x47e-0x498.7 (27)
0x470|                                          46   |              F |                              object_index: 70 0x47e-0x47e.7 (1)
0x490|            54                                 |    T           |                              type: "ascii_string" (5) (ASCII encoded string) 0x494-0x494.3 (0.4)
0x490|            54                                 |    T           |                              size_bits: 4 0x494.4-0x494.7 (0.4)
     |                                               |                |                              size: 4
0x490|               61 70 63 73                     |     apcs       |                              value: "apcs" 0x495-0x498.7 (4)
     |                                               |                |                            [5]{}: entry 0x47f-0x49d.7 (31)
0x470|                                             47|               G|                              object_index: 71 0x47f-0x47f.7 (1)
0x490|                           54                  |         T      |                              type: "ascii_string" (5) (ASCII encoded string) 0x499-0x499.3 (0.4)
0x490|                           54                  |         T      |                              size_bits: 4 0x499.4-0x499.7 (0.4)
     |                                               |                |                              size: 4
0x490|                              61 70 63 6f      |          apco  |                              value: "apco" 0x49a-0x49d.7 (4)
     |                                               |                |                      [1]{}: entry 0x461-0x49f.7 (63)
0x460|   40                                          | @              |                        key_index: 64 0x461-0x461.7 (1)
0x460|         48                                    |   H            |                        value_index: 72 0x463-0x463.7 (1)
     |                                               |                |                        key{}: 0x470-0x478.7 (9)
0x470|58                                             |X               |                          type: "ascii_string" (5) (ASCII encoded string) 0x470-0x470.3 (0.4)
0x470|58                                             |X               |                          size_bits: 8 0x470.4-0x470.7 (0.4)
     |                                               |                |                          size: 8
0x470|   56 54 52 61 74 69 6e 67                     | VTRating       |                          value: "VTRating" 0x471-0x478.7 (8)
     |                                               |                |                        value{}: 0x49e-0x49f.7 (2)
0x490|                                          10   |              . |                          type: "int" (1) (Integer) 0x49e-0x49e.3 (0.4)
0x490|                                          10   |              . |                          size: 1 0x49e.4-0x49e.7 (0.4)
0x490|                                             64|               d|                          value: 100 0x49f-0x49f.7 (1)
     |                                               |                |                [8]{}: entry 0x316-0x4c5.7 (432)
0x310|                  35                           |      5         |                  key_index: 53 0x316-0x316.7 (1)
0x310|                                             49|               I|                  value_index: 73 0x31f-0x31f.7 (1)
     |                                               |                |                  key{}: 0x3cf-0x3d8.7 (10)
0x3c0|                                             59|               Y|                    type: "ascii_string" (5) (ASCII encoded string) 0x3cf-0x3cf.3 (0.4)
0x3c0|                                             59|               Y|                    size_bits: 9 0x3cf.4-0x3cf.7 (0.4)
     |                                               |                |                    size: 9
0x3d0|43 4d 43 6c 61 73 73 49 44                     |CMClassID       |                    value: "CMClassID" 0x3d0-0x3d8.7 (9)
     |                                               |                |                  value{}: 0x4a0-0x4c5.7 (38)
0x4a0|5f                                             |_               |                    type: "ascii_string" (5) (ASCII encoded string) 0x4a0-0x4a0.3 (0.4)
0x4a0|5f                                             |_               |                    size_bits: 15 0x4a0.4-0x4a0.7 (0.4)
0x4a0|   10                                          | .              |                    large_size_marker: 1 (valid) 0x4a1-0x4a1.3 (0.4)
0x4a0|   10                                          | .              |                    exponent: 0 0x4a1.4-0x4a1.7 (0.4)
0x4a0|      23                                       |  #             |                    size_bigint: 35 0x4a2-0x4a2.7 (1)
     |                                               |                |                    size: 35
0x4a0|         63 6f 6d 2e 61 70 70 6c 65 2e 76 69 64|   com.apple.vid|                    value: "com.apple.videotoolbox.videodecoder" 0x4a3-0x4c5.7 (35)
0x4b0|65 6f 74 6f 6f 6c 62 6f 78 2e 76 69 64 65 6f 64|eotoolbox.videod|
0x4c0|65 63 6f 64 65 72                              |ecoder          |
0x300|                  2c                           |      ,         |              object_index: 44 0x306-0x306.7 (1)
0x300|                                       d9      |             .  |              type: "dict" (13) (Dictionary) 0x30d-0x30d.3 (0.4)
0x300|                                       d9      |             .  |              size_bits: 9 0x30d.4-0x30d.7 (0.4)
     |                                               |                |              size: 9
     |                                               |                |            [1]{}: entry 0x223-0x5b8.7 (918)
     |                                               |                |              entries[0:11]: 0x223-0x5b8.7 (918)
     |                                               |                |                [0]{}: entry 0x320-0x515.7 (502)
     |                                               |                |                  key{}: 0x320-0x33b.7 (28)
0x320|5f                                             |_               |                    type: "ascii_string" (5) (ASCII encoded string) 0x320-0x320.3 (0.4)
0x320|5f                                             |_               |                    size_bits: 15 0x320.4-0x320.7 (0.4)
0x320|   10                                          | .              |                    large_size_marker: 1 (valid) 0x321-0x321.3 (0.4)
0x320|   10                                          | .              |                    exponent: 0 0x321.4-0x321.7 (0.4)
0x320|      19                                       |  .             |                    size_bigint: 25 0x322-0x322.7 (1)
     |                                               |                |                    size: 25
0x320|         43 4d 43 6c 61 73 73 49 6d 70 6c 65 6d|   CMClassImplem|                    value: "CMClassImplementationName" 0x323-0x33b.7 (25)
0x330|65 6e 74 61 74 69 6f 6e 4e 61 6d 65            |entationName    |
0x4c0|                     2d                        |       -        |                  key_index: 45 0x4c7-0x4c7.7 (1)
0x4d0|      4d                                       |  M             |                  value_index: 77 0x4d2-0x4d2.7 (1)
     |                                               |                |                  value{}: 0x4f7-0x515.7 (31)
0x4f0|                     5f                        |       _        |                    type: "ascii_string" (5) (ASCII encoded string) 0x4f7-0x4f7.3 (0.4)
0x4f0|                     5f                        |       _        |                    size_bits: 15 0x4f7.4-0x4f7.7 (0.4)
0x4f0|                        10                     |        .       |                    large_size_marker: 1 (valid) 0x4f8-0x4f8.3 (0.4)
0x4f0|                        10                     |        .       |                    exponent: 0 0x4f8.4-0x4f8.7 (0.4)
0x4f0|                           1c                  |         .      |                    size_bigint: 28 0x4f9-0x4f9.7 (1)
     |                                               |                |                    size: 28
0x4f0|                              41 70 70 6c 65 20|          Apple |                    value: "Apple ProRes 4444 XQ Encoder" 0x4fa-0x515.7 (28)
0x500|50 72 6f 52 65 73 20 34 34 34 34 20 58 51 20 45|ProRes 4444 XQ E|
0x510|6e 63 6f 64 65 72                              |ncoder          |
     |                                               |                |                [1]{}: entry 0x33c-0x536.7 (507)
     |                                               |                |                  key{}: 0x33c-0x34f.7 (20)
0x330|                                    5f         |            _   |                    type: "ascii_string" (5) (ASCII encoded string) 0x33c-0x33c.3 (0.4)
0x330|                                    5f         |            _   |                    size_bits: 15 0x33c.4-0x33c.7 (0.4)
0x330|                                       10      |             .  |                    large_size_marker: 1 (valid) 0x33d-0x33d.3 (0.4)
0x330|                                       10      |             .  |                    exponent: 0 0x33d.4-0x33d.7 (0.4)
0x330|                                          11   |              . |                    size_bigint: 17 0x33e-0x33e.7 (1)
     |                                               |                |                    size: 17
0x330|                                             43|               C|                    value: "CMFactoryFunction" 0x33f-0x34f.7 (17)
0x340|4d 46 61 63 74 6f 72 79 46 75 6e 63 74 69 6f 6e|MFactoryFunction|
0x4c0|                        2e                     |        .       |                  key_index: 46 0x4c8-0x4c8.7 (1)
0x4d0|         4e                                    |   N            |                  value_index: 78 0x4d3-0x4d3.7 (1)
     |                                               |                |                  value{}: 0x516-0x536.7 (33)
0x510|                  5f                           |      _         |                    type: "ascii_string" (5) (ASCII encoded string) 0x516-0x516.3 (0.4)
0x510|                  5f                           |      _         |                    size_bits: 15 0x516.4-0x516.7 (0.4)
0x510|                     10                        |       .        |                    large_size_marker: 1 (valid) 0x517-0x517.3 (0.4)
0x510|                     10                        |       .        |                    exponent: 0 0x517.4-0x517.7 (0.4)
0x510|                        1e                     |        .       |                    size_bigint: 30 0x518-0x518.7 (1)
     |                                               |                |                    size: 30
0x510|                           49 63 70 56 69 64 65|         IcpVide|                    value: "IcpVideoEncoder_CreateInstance" 0x519-0x536.7 (30)
0x520|6f 45 6e 63 6f 64 65 72 5f 43 72 65 61 74 65 49|oEncoder_CreateI|
0x530|6e 73 74 61 6e 63 65                           |nstance         |
     |                                               |                |                [2]{}: entry 0x350-0x4d4.7 (389)
     |                                               |                |                  key{}: 0x350-0x35e.7 (15)
0x350|5e                                             |^               |                    type: "ascii_string" (5) (ASCII encoded string) 0x350-0x350.3 (0.4)
0x350|5e                                             |^               |                    size_bits: 14 0x350.4-0x350.7 (0.4)
     |                                               |                |                    size: 14
0x350|   43 4d 4d 61 6e 75 66 61 63 74 75 72 65 72   | CMManufacturer |                    value: "CMManufacturer" 0x351-0x35e.7 (14)
     |                                               |                |                  value{}: 0x411-0x416.7 (6)
0x410|   55                                          | U              |                    type: "ascii_string" (5) (ASCII encoded string) 0x411-0x411.3 (0.4)
0x410|   55                                          | U              |                    size_bits: 5 0x411.4-0x411.7 (0.4)
     |                                               |                |                    size: 5
0x410|      41 70 70 6c 65                           |  Apple         |                    value: "Apple" 0x412-0x416.7 (5)
0x4c0|                           2f                  |         /      |                  key_index: 47 0x4c9-0x4c9.7 (1)
0x4d0|            38                                 |    8           |                  value_index: 56 0x4d4-0x4d4.7 (1)
     |                                               |                |                [3]{}: entry 0x4ca-0x54d.7 (132)
0x4c0|                              4b               |          K     |                  key_index: 75 0x4ca-0x4ca.7 (1)
0x4d0|               4f                              |     O          |                  value_index: 79 0x4d5-0x4d5.7 (1)
     |                                               |                |                  key{}: 0x4dd-0x4e8.7 (12)
0x4d0|                                       5b      |             [  |                    type: "ascii_string" (5) (ASCII encoded string) 0x4dd-0x4dd.3 (0.4)
0x4d0|                                       5b      |             [  |                    size_bits: 11 0x4dd.4-0x4dd.7 (0.4)
     |                                               |                |                    size: 11
0x4d0|                                          56 54|              VT|                    value: "VTCodecName" 0x4de-0x4e8.7 (11)
0x4e0|43 6f 64 65 63 4e 61 6d 65                     |CodecName       |
     |                                               |                |                  value{}: 0x537-0x54d.7 (23)
0x530|                     5f                        |       _        |                    type: "ascii_string" (5) (ASCII encoded string) 0x537-0x537.3 (0.4)
0x530|                     5f                        |       _        |                    size_bits: 15 0x537.4-0x537.7 (0.4)
0x530|                        10                     |        .       |                    large_size_marker: 1 (valid) 0x538-0x538.3 (0.4)
0x530|                        10                     |        .       |                    exponent: 0 0x538.4-0x538.7 (0.4)
0x530|                           14                  |         .      |                    size_bigint: 20 0x539-0x539.7 (1)
     |                                               |                |                    size: 20
0x530|                              41 70 70 6c 65 20|          Apple |                    value: "Apple ProRes 4444 XQ" 0x53a-0x54d.7 (20)
0x540|50 72 6f 52 65 73 20 34 34 34 34 20 58 51      |ProRes 4444 XQ  |
     |                                               |                |                [4]{}: entry 0x37e-0x58a.7 (525)
     |                                               |                |                  key{}: 0x37e-0x397.7 (26)
0x370|                                          5f   |              _ |                    type: "ascii_string" (5) (ASCII encoded string) 0x37e-0x37e.3 (0.4)
0x370|                                          5f   |              _ |                    size_bits: 15 0x37e.4-0x37e.7 (0.4)
0x370|                                             10|               .|                    large_size_marker: 1 (valid) 0x37f-0x37f.3 (0.4)
0x370|                                             10|               .|                    exponent: 0 0x37f.4-0x37f.7 (0.4)
0x380|17                                             |.               |                    size_bigint: 23 0x380-0x380.7 (1)
     |                                               |                |                    size: 23
0x380|   43 4d 43 6c 61 73 73 49 6d 70 6c 65 6d 65 6e| CMClassImplemen|                    value: "CMClassImplementationID" 0x381-0x397.7 (23)
0x390|74 61 74 69 6f 6e 49 44                        |tationID        |
0x4c0|                                 31            |           1    |                  key_index: 49 0x4cb-0x4cb.7 (1)
0x4d0|                  50                           |      P         |                  value_index: 80 0x4d6-0x4d6.7 (1)
     |                                               |                |                  value{}: 0x54e-0x58a.7 (61)
0x540|                                          5f   |              _ |                    type: "ascii_string" (5) (ASCII encoded string) 0x54e-0x54e.3 (0.4)
0x540|                                          5f   |              _ |                    size_bits: 15 0x54e.4-0x54e.7 (0.4)
0x540|                                             10|               .|                    large_size_marker: 1 (valid) 0x54f-0x54f.3 (0.4)
0x540|                                             10|               .|                    exponent: 0 0x54f.4-0x54f.7 (0.4)
0x550|3a                                             |:               |                    size_bigint: 58 0x550-0x550.7 (1)
     |                                               |                |                    size: 58
0x550|   63 6f 6d 2e 61 70 70 6c 65 2e 76 69 64 65 6f| com.apple.video|                    value: "com.apple.videotoolbox.videoencoder.prores-4444..." 0x551-0x58a.7 (58)
0x560|74 6f 6f 6c 62 6f 78 2e 76 69 64 65 6f 65 6e 63|toolbox.videoenc|
*    |until 0x58a.7 (58)                             |                |
     |                                               |                |                [5]{}: entry 0x4cc-0x54d.7 (130)
0x4c0|                                    4c         |            L   |                  key_index: 76 0x4cc-0x4cc.7 (1)
0x4d0|                     4f                        |       O        |                  value_index: 79 0x4d7-0x4d7.7 (1)
     |                                               |                |                  key{}: 0x4e9-0x4f6.7 (14)
0x4e0|                           5d                  |         ]      |                    type: "ascii_string" (5) (ASCII encoded string) 0x4e9-0x4e9.3 (0.4)
0x4e0|                           5d                  |         ]      |                    size_bits: 13 0x4e9.4-0x4e9.7 (0.4)
     |                                               |                |                    size: 13
0x4e0|                              56 54 45 6e 63 6f|          VTEnco|                    value: "VTEncoderName" 0x4ea-0x4f6.7 (13)
0x4f0|64 65 72 4e 61 6d 65                           |derName         |
     |                                               |                |                  value{}: 0x537-0x54d.7 (23)
0x530|                     5f                        |       _        |                    type: "ascii_string" (5) (ASCII encoded string) 0x537-0x537.3 (0.4)
0x530|                     5f                        |       _        |                    size_bits: 15 0x537.4-0x537.7 (0.4)
0x530|                        10                     |        .       |                    large_size_marker: 1 (valid) 0x538-0x538.3 (0.4)
0x530|                        10                     |        .       |                    exponent: 0 0x538.4-0x538.7 (0.4)
0x530|                           14                  |         .      |                    size_bigint: 20 0x539-0x539.7 (1)
     |                                               |                |                    size: 20
0x530|                              41 70 70 6c 65 20|          Apple |                    value: "Apple ProRes 4444 XQ" 0x53a-0x54d.7 (20)
0x540|50 72 6f 52 65 73 20 34 34 34 34 20 58 51      |ProRes 4444 XQ  |
     |                                               |                |                [6]{}: entry 0x398-0x58d.7 (502)
     |                                               |                |                  key{}: 0x398-0x3b3.7 (28)
0x390|                        5f                     |        _       |                    type: "ascii_string" (5) (ASCII encoded string) 0x398-0x398.3 (0.4)
0x390|                        5f                     |        _       |                    size_bits: 15 0x398.4-0x398.7 (0.4)
0x390|                           10                  |         .      |                    large_size_marker: 1 (valid) 0x399-0x399.3 (0.4)
0x390|                           10                  |         .      |                    exponent: 0 0x399.4-0x399.7 (0.4)
0x390|                              19               |          .     |                    size_bigint: 25 0x39a-0x39a.7 (1)
     |                                               |                |                    size: 25
0x390|                                 43 4d 45 78 65|           CMExe|                    value: "CMExecutableArchitectures" 0x39b-0x3b3.7 (25)
0x3a0|63 75 74 61 62 6c 65 41 72 63 68 69 74 65 63 74|cutableArchitect|
0x3b0|75 72 65 73                                    |ures            |
     |                                               |                |                  value{}: 0x452-0x58d.7 (316)
     |                                               |                |                    entries[0:2]: 0x452-0x58d.7 (316)
     |                                               |                |                      [0]{}: entry 0x452-0x58c.7 (315)
0x450|      56                                       |  V             |                        type: "ascii_string" (5) (ASCII encoded string) 0x452-0x452.3 (0.4)
0x450|      56                                       |  V             |                        size_bits: 6 0x452.4-0x452.7 (0.4)
     |                                               |                |                        size: 6
0x450|         78 38 36 5f 36 34                     |   x86_64       |                        value: "x86_64" 0x453-0x458.7 (6)
0x580|                                    3c         |            <   |                        object_index: 60 0x58c-0x58c.7 (1)
     |                                               |                |                      [1]{}: entry 0x459-0x58d.7 (309)
0x450|                           55                  |         U      |                        type: "ascii_string" (5) (ASCII encoded string) 0x459-0x459.3 (0.4)
0x450|                           55                  |         U      |                        size_bits: 5 0x459.4-0x459.7 (0.4)
     |                                               |                |                        size: 5
0x450|                              61 72 6d 36 34   |          arm64 |                        value: "arm64" 0x45a-0x45e.7 (5)
0x580|                                       3d      |             =  |                        object_index: 61 0x58d-0x58d.7 (1)
0x580|                                 a2            |           .    |                    type: "array" (10) (Array) 0x58b-0x58b.3 (0.4)
0x580|                                 a2            |           .    |                    size_bits: 2 0x58b.4-0x58b.7 (0.4)
     |                                               |                |                    size: 2
0x4c0|                                       32      |             2  |                  key_index: 50 0x4cd-0x4cd.7 (1)
0x4d0|                        51                     |        Q       |                  value_index: 81 0x4d8-0x4d8.7 (1)
     |                                               |                |                [7]{}: entry 0x35f-0x4d9.7 (379)
     |                                               |                |                  key{}: 0x35f-0x37d.7 (31)
0x350|                                             5f|               _|                    type: "ascii_string" (5) (ASCII encoded string) 0x35f-0x35f.3 (0.4)
0x350|                                             5f|               _|                    size_bits: 15 0x35f.4-0x35f.7 (0.4)
0x360|10                                             |.               |                    large_size_marker: 1 (valid) 0x360-0x360.3 (0.4)
0x360|10                                             |.               |                    exponent: 0 0x360.4-0x360.7 (0.4)
0x360|   1c                                          | .              |                    size_bigint: 28 0x361-0x361.7 (1)
     |                                               |                |                    size: 28
0x360|      43 4d 43 6c 61 73 73 49 6d 70 6c 65 6d 65|  CMClassImpleme|                    value: "CMClassImplementationVersion" 0x362-0x37d.7 (28)
0x370|6e 74 61 74 69 6f 6e 56 65 72 73 69 6f 6e      |ntationVersion  |
     |                                               |                |                  value{}: 0x417-0x418.7 (2)
0x410|                     10                        |       .        |                    type: "int" (1) (Integer) 0x417-0x417.3 (0.4)
0x410|                     10                        |       .        |                    size: 1 0x417.4-0x417.7 (0.4)
0x410|                        01                     |        .       |                    value: 1 0x418-0x418.7 (1)
0x4c0|                                          30   |              0 |                  key_index: 48 0x4ce-0x4ce.7 (1)
0x4d0|                           39                  |         9      |                  value_index: 57 0x4d9-0x4d9.7 (1)
     |                                               |                |                [8]{}: entry 0x223-0x4da.7 (696)
     |                                               |                |                  value{}: 0x223-0x25c.7 (58)
0x220|         5f                                    |   _            |                    type: "ascii_string" (5) (ASCII encoded string) 0x223-0x223.3 (0.4)
0x220|         5f                                    |   _            |                    size_bits: 15 0x223.4-0x223.7 (0.4)
0x220|            10                                 |    .           |                    large_size_marker: 1 (valid) 0x224-0x224.3 (0.4)
0x220|            10                                 |    .           |                    exponent: 0 0x224.4-0x224.7 (0.4)
0x220|               37                              |     7          |                    size_bigint: 55 0x225-0x225.7 (1)
     |                                               |                |                    size: 55
0x220|                  43 6f 70 79 72 69 67 68 74 20|      Copyright |                    value: "Copyright (c) 2011-2021 Apple Inc. All rights r..." 0x226-0x25c.7 (55)
0x230|28 63 29 20 32 30 31 31 2d 32 30 32 31 20 41 70|(c) 2011-2021 Ap|
*    |until 0x25c.7 (55)                             |                |
     |                                               |                |                  key{}: 0x3b4-0x3bf.7 (12)
0x3b0|            5b                                 |    [           |                    type: "ascii_string" (5) (ASCII encoded string) 0x3b4-0x3b4.3 (0.4)
0x3b0|            5b                                 |    [           |                    size_bits: 11 0x3b4.4-0x3b4.7 (0.4)
     |                                               |                |                    size: 11
0x3b0|               43 4d 43 6f 70 79 72 69 67 68 74|     CMCopyright|                    value: "CMCopyright" 0x3b5-0x3bf.7 (11)
0x4c0|                                             33|               3|                  key_index: 51 0x4cf-0x4cf.7 (1)
0x4d0|                              1a               |          .     |                  value_index: 26 0x4da-0x4da.7 (1)
     |                                               |                |                [9]{}: entry 0x3c0-0x592.7 (467)
     |                                               |                |                  key{}: 0x3c0-0x3ce.7 (15)
0x3c0|5e                                             |^               |                    type: "ascii_string" (5) (ASCII encoded string) 0x3c0-0x3c0.3 (0.4)
0x3c0|5e                                             |^               |                    size_bits: 14 0x3c0.4-0x3c0.7 (0.4)
     |                                               |                |                    size: 14
0x3c0|   43 4d 4d 61 74 63 68 69 6e 67 49 6e 66 6f   | CMMatchingInfo |                    value: "CMMatchingInfo" 0x3c1-0x3ce.7 (14)
     |                                               |                |                  value{}: 0x464-0x592.7 (303)
     |                                               |                |                    entries[0:2]: 0x464-0x592.7 (303)
     |                                               |                |                      [0]{}: entry 0x464-0x591.7 (302)
     |                                               |                |                        key{}: 0x464-0x46f.7 (12)
0x460|            5b                                 |    [           |                          type: "ascii_string" (5) (ASCII encoded string) 0x464-0x464.3 (0.4)
0x460|            5b                                 |    [           |                          size_bits: 11 0x464.4-0x464.7 (0.4)
     |                                               |                |                          size: 11
0x460|               56 54 43 6f 64 65 63 54 79 70 65|     VTCodecType|                          value: "VTCodecType" 0x465-0x46f.7 (11)
     |                                               |                |                        value{}: 0x480-0x484.7 (5)
0x480|54                                             |T               |                          type: "ascii_string" (5) (ASCII encoded string) 0x480-0x480.3 (0.4)
0x480|54                                             |T               |                          size_bits: 4 0x480.4-0x480.7 (0.4)
     |                                               |                |                          size: 4
0x480|   61 70 34 78                                 | ap4x           |                          value: "ap4x" 0x481-0x484.7 (4)
0x580|                                             3f|               ?|                        key_index: 63 0x58f-0x58f.7 (1)
0x590|   42                                          | B              |                        value_index: 66 0x591-0x591.7 (1)
     |                                               |                |                      [1]{}: entry 0x470-0x592.7 (291)
     |                                               |                |                        key{}: 0x470-0x478.7 (9)
0x470|58                                             |X               |                          type: "ascii_string" (5) (ASCII encoded string) 0x470-0x470.3 (0.4)
0x470|58                                             |X               |                          size_bits: 8 0x470.4-0x470.7 (0.4)
     |                                               |                |                          size: 8
0x470|   56 54 52 61 74 69 6e 67                     | VTRating       |                          value: "VTRating" 0x471-0x478.7 (8)
     |                                               |                |                        value{}: 0x49e-0x49f.7 (2)
0x490|                                          10   |              . |                          type: "int" (1) (Integer) 0x49e-0x49e.3 (0.4)
0x490|                                          10   |              . |                          size: 1 0x49e.4-0x49e.7 (0.4)
0x490|                                             64|               d|                          value: 100 0x49f-0x49f.7 (1)
0x590|40                                             |@               |                        key_index: 64 0x590-0x590.7 (1)
0x590|      48                                       |  H             |                        value_index: 72 0x592-0x592.7 (1)
0x580|                                          d2   |              . |                    type: "dict" (13) (Dictionary) 0x58e-0x58e.3 (0.4)
0x580|                                          d2   |              . |                    size_bits: 2 0x58e.4-0x58e.7 (0.4)
     |                                               |                |                    size: 2
0x4d0|34                                             |4               |                  key_index: 52 0x4d0-0x4d0.7 (1)
0x4d0|                                 52            |           R    |                  value_index: 82 0x4db-0x4db.7 (1)
     |                                               |                |                [10]{}: entry 0x3cf-0x5b8.7 (490)
     |                                               |                |                  key{}: 0x3cf-0x3d8.7 (10)
0x3c0|                                             59|               Y|                    type: "ascii_string" (5) (ASCII encoded string) 0x3cf-0x3cf.3 (0.4)
0x3c0|                                             59|               Y|                    size_bits: 9 0x3cf.4-0x3cf.7 (0.4)
     |                                               |                |                    size: 9
0x3d0|43 4d 43 6c 61 73 73 49 44                     |CMClassID       |                    value: "CMClassID" 0x3d0-0x3d8.7 (9)
0x4d0|   35                                          | 5              |                  key_index: 53 0x4d1-0x4d1.7 (1)
0x4d0|                                    53         |            S   |                  value_index: 83 0x4dc-0x4dc.7 (1)
     |                                               |                |                  value{}: 0x593-0x5b8.7 (38)
0x590|         5f                                    |   _            |                    type: "ascii_string" (5) (ASCII encoded string) 0x593-0x593.3 (0.4)
0x590|         5f                                    |   _            |                    size_bits: 15 0x593.4-0x593.7 (0.4)
0x590|            10                                 |    .           |                    large_size_marker: 1 (valid) 0x594-0x594.3 (0.4)
0x590|            10                                 |    .           |                    exponent: 0 0x594.4-0x594.7 (0.4)
0x590|               23                              |     #          |                    size_bigint: 35 0x595-0x595.7 (1)
     |                                               |                |                    size: 35
0x590|                  63 6f 6d 2e 61 70 70 6c 65 2e|      com.apple.|                    value: "com.apple.videotoolbox.videoencoder" 0x596-0x5b8.7 (35)
0x5a0|76 69 64 65 6f 74 6f 6f 6c 62 6f 78 2e 76 69 64|videotoolbox.vid|
0x5b0|65 6f 65 6e 63 6f 64 65 72                     |eoencoder       |
0x300|                     4a                        |       J        |              object_index: 74 0x307-0x307.7 (1)
0x4c0|                  db                           |      .         |              type: "dict" (13) (Dictionary) 0x4c6-0x4c6.3 (0.4)
0x4c0|                  db                           |      .         |              size_bits: 11 0x4c6.4-0x4c6.7 (0.4)
     |                                               |                |              size: 11
     |                                               |                |            [2]{}: entry 0x223-0x642.7 (1056)
     |                                               |                |              entries[0:11]: 0x223-0x642.7 (1056)
     |                                               |                |                [0]{}: entry 0x320-0x5eb.7 (716)
     |                                               |                |                  key{}: 0x320-0x33b.7 (28)
0x320|5f                                             |_               |                    type: "ascii_string" (5) (ASCII encoded string) 0x320-0x320.3 (0.4)
0x320|5f                                             |_               |                    size_bits: 15 0x320.4-0x320.7 (0.4)
0x320|   10                                          | .              |                    large_size_marker: 1 (valid) 0x321-0x321.3 (0.4)
0x320|   10                                          | .              |                    exponent: 0 0x321.4-0x321.7 (0.4)
0x320|      19                                       |  .             |                    size_bigint: 25 0x322-0x322.7 (1)
     |                                               |                |                    size: 25
0x320|         43 4d 43 6c 61 73 73 49 6d 70 6c 65 6d|   CMClassImplem|                    value: "CMClassImplementationName" 0x323-0x33b.7 (25)
0x330|65 6e 74 61 74 69 6f 6e 4e 61 6d 65            |entationName    |
0x5b0|                              2d               |          -     |                  key_index: 45 0x5ba-0x5ba.7 (1)
0x5c0|               55                              |     U          |                  value_index: 85 0x5c5-0x5c5.7 (1)
     |                                               |                |                  value{}: 0x5d0-0x5eb.7 (28)
0x5d0|5f                                             |_               |                    type: "ascii_string" (5) (ASCII encoded string) 0x5d0-0x5d0.3 (0.4)
0x5d0|5f                                             |_               |                    size_bits: 15 0x5d0.4-0x5d0.7 (0.4)
0x5d0|   10                                          | .              |                    large_size_marker: 1 (valid) 0x5d1-0x5d1.3 (0.4)
0x5d0|   10                                          | .              |                    exponent: 0 0x5d1.4-0x5d1.7 (0.4)
0x5d0|      19                                       |  .             |                    size_bigint: 25 0x5d2-0x5d2.7 (1)
     |                                               |                |                    size: 25
0x5d0|         41 70 70 6c 65 20 50 72 6f 52 65 73 20|   Apple ProRes |                    value: "Apple ProRes 4444 Encoder" 0x5d3-0x5eb.7 (25)
0x5e0|34 34 34 34 20 45 6e 63 6f 64 65 72            |4444 Encoder    |
     |                                               |                |                [1]{}: entry 0x33c-0x5c6.7 (651)
     |                                               |                |                  key{}: 0x33c-0x34f.7 (20)
0x330|                                    5f         |            _   |                    type: "ascii_string" (5) (ASCII encoded string) 0x33c-0x33c.3 (0.4)
0x330|                                    5f         |            _   |                    size_bits: 15 0x33c.4-0x33c.7 (0.4)
0x330|                                       10      |             .  |                    large_size_marker: 1 (valid) 0x33d-0x33d.3 (0.4)
0x330|                                       10      |             .  |                    exponent: 0 0x33d.4-0x33d.7 (0.4)
0x330|                                          11   |              . |                    size_bigint: 17 0x33e-0x33e.7 (1)
     |                                               |                |                    size: 17
0x330|                                             43|               C|                    value: "CMFactoryFunction" 0x33f-0x34f.7 (17)
0x340|4d 46 61 63 74 6f 72 79 46 75 6e 63 74 69 6f 6e|MFactoryFunction|
     |                                               |                |                  value{}: 0x516-0x536.7 (33)
0x510|                  5f                           |      _         |                    type: "ascii_string" (5) (ASCII encoded string) 0x516-0x516.3 (0.4)
0x510|                  5f                           |      _         |                    size_bits: 15 0x516.4-0x516.7 (0.4)
0x510|                     10                        |       .        |                    large_size_marker: 1 (valid) 0x517-0x517.3 (0.4)
0x510|                     10                        |       .        |                    exponent: 0 0x517.4-0x517.7 (0.4)
0x510|                        1e                     |        .       |                    size_bigint: 30 0x518-0x518.7 (1)
     |                                               |                |                    size: 30
0x510|                           49 63 70 56 69 64 65|         IcpVide|                    value: "IcpVideoEncoder_CreateInstance" 0x519-0x536.7 (30)
0x520|6f 45 6e 63 6f 64 65 72 5f 43 72 65 61 74 65 49|oEncoder_CreateI|
0x530|6e 73 74 61 6e 63 65                           |nstance         |
0x5b0|                                 2e            |           .    |                  key_index: 46 0x5bb-0x5bb.7 (1)
0x5c0|                  4e                           |      N         |                  value_index: 78 0x5c6-0x5c6.7 (1)
     |                                               |                |                [2]{}: entry 0x350-0x5c7.7 (632)
     |                                               |                |                  key{}: 0x350-0x35e.7 (15)
0x350|5e                                             |^               |                    type: "ascii_string" (5) (ASCII encoded string) 0x350-0x350.3 (0.4)
0x350|5e                                             |^               |                    size_bits: 14 0x350.4-0x350.7 (0.4)
     |                                               |                |                    size: 14
0x350|   43 4d 4d 61 6e 75 66 61 63 74 75 72 65 72   | CMManufacturer |                    value: "CMManufacturer" 0x351-0x35e.7 (14)
     |                                               |                |                  value{}: 0x411-0x416.7 (6)
0x410|   55                                          | U              |                    type: "ascii_string" (5) (ASCII encoded string) 0x411-0x411.3 (0.4)
0x410|   55                                          | U              |                    size_bits: 5 0x411.4-0x411.7 (0.4)
     |                                               |                |                    size: 5
0x410|      41 70 70 6c 65                           |  Apple         |                    value: "Apple" 0x412-0x416.7 (5)
0x5b0|                                    2f         |            /   |                  key_index: 47 0x5bc-0x5bc.7 (1)
0x5c0|                     38                        |       8        |                  value_index: 56 0x5c7-0x5c7.7 (1)
     |                                               |                |                [3]{}: entry 0x4dd-0x5ff.7 (291)
     |                                               |                |                  key{}: 0x4dd-0x4e8.7 (12)
0x4d0|                                       5b      |             [  |                    type: "ascii_string" (5) (ASCII encoded string) 0x4dd-0x4dd.3 (0.4)
0x4d0|                                       5b      |             [  |                    size_bits: 11 0x4dd.4-0x4dd.7 (0.4)
     |                                               |                |                    size: 11
0x4d0|                                          56 54|              VT|                    value: "VTCodecName" 0x4de-0x4e8.7 (11)
0x4e0|43 6f 64 65 63 4e 61 6d 65                     |CodecName       |
0x5b0|                                       4b      |             K  |                  key_index: 75 0x5bd-0x5bd.7 (1)
0x5c0|                        56                     |        V       |                  value_index: 86 0x5c8-0x5c8.7 (1)
     |                                               |                |                  value{}: 0x5ec-0x5ff.7 (20)
0x5e0|                                    5f         |            _   |                    type: "ascii_string" (5) (ASCII encoded string) 0x5ec-0x5ec.3 (0.4)
0x5e0|                                    5f         |            _   |                    size_bits: 15 0x5ec.4-0x5ec.7 (0.4)
0x5e0|                                       10      |             .  |                    large_size_marker: 1 (valid) 0x5ed-0x5ed.3 (0.4)
0x5e0|                                       10      |             .  |                    exponent: 0 0x5ed.4-0x5ed.7 (0.4)
0x5e0|                                          11   |              . |                    size_bigint: 17 0x5ee-0x5ee.7 (1)
     |                                               |                |                    size: 17
0x5e0|                                             41|               A|                    value: "Apple ProRes 4444" 0x5ef-0x5ff.7 (17)
0x5f0|70 70 6c 65 20 50 72 6f 52 65 73 20 34 34 34 34|pple ProRes 4444|
     |                                               |                |                [4]{}: entry 0x37e-0x63a.7 (701)
     |                                               |                |                  key{}: 0x37e-0x397.7 (26)
0x370|                                          5f   |              _ |                    type: "ascii_string" (5) (ASCII encoded string) 0x37e-0x37e.3 (0.4)
0x370|                                          5f   |              _ |                    size_bits: 15 0x37e.4-0x37e.7 (0.4)
0x370|                                             10|               .|                    large_size_marker: 1 (valid) 0x37f-0x37f.3 (0.4)
0x370|                                             10|               .|                    exponent: 0 0x37f.4-0x37f.7 (0.4)
0x380|17                                             |.               |                    size_bigint: 23 0x380-0x380.7 (1)
     |                                               |                |                    size: 23
0x380|   43 4d 43 6c 61 73 73 49 6d 70 6c 65 6d 65 6e| CMClassImplemen|                    value: "CMClassImplementationID" 0x381-0x397.7 (23)
0x390|74 61 74 69 6f 6e 49 44                        |tationID        |
0x5b0|                                          31   |              1 |                  key_index: 49 0x5be-0x5be.7 (1)
0x5c0|                           57                  |         W      |                  value_index: 87 0x5c9-0x5c9.7 (1)
     |                                               |                |                  value{}: 0x600-0x63a.7 (59)
0x600|5f                                             |_               |                    type: "ascii_string" (5) (ASCII encoded string) 0x600-0x600.3 (0.4)
0x600|5f                                             |_               |                    size_bits: 15 0x600.4-0x600.7 (0.4)
0x600|   10                                          | .              |                    large_size_marker: 1 (valid) 0x601-0x601.3 (0.4)
0x600|   10                                          | .              |                    exponent: 0 0x601.4-0x601.7 (0.4)
0x600|      38                                       |  8             |                    size_bigint: 56 0x602-0x602.7 (1)
     |                                               |                |                    size: 56
0x600|         63 6f 6d 2e 61 70 70 6c 65 2e 76 69 64|   com.apple.vid|                    value: "com.apple.videotoolbox.videoencoder.prores-4444..." 0x603-0x63a.7 (56)
0x610|65 6f 74 6f 6f 6c 62 6f 78 2e 76 69 64 65 6f 65|eotoolbox.videoe|
*    |until 0x63a.7 (56)                             |                |
     |                                               |                |                [5]{}: entry 0x4e9-0x5ff.7 (279)
     |                                               |                |                  key{}: 0x4e9-0x4f6.7 (14)
0x4e0|                           5d                  |         ]      |                    type: "ascii_string" (5) (ASCII encoded string) 0x4e9-0x4e9.3 (0.4)
0x4e0|                           5d                  |         ]      |                    size_bits: 13 0x4e9.4-0x4e9.7 (0.4)
     |                                               |                |                    size: 13
0x4e0|                              56 54 45 6e 63 6f|          VTEnco|                    value: "VTEncoderName" 0x4ea-0x4f6.7 (13)
0x4f0|64 65 72 4e 61 6d 65                           |derName         |
0x5b0|                                             4c|               L|                  key_index: 76 0x5bf-0x5bf.7 (1)
0x5c0|                              56               |          V     |                  value_index: 86 0x5ca-0x5ca.7 (1)
     |                                               |                |                  value{}: 0x5ec-0x5ff.7 (20)
0x5e0|                                    5f         |            _   |                    type: "ascii_string" (5) (ASCII encoded string) 0x5ec-0x5ec.3 (0.4)
0x5e0|                                    5f         |            _   |                    size_bits: 15 0x5ec.4-0x5ec.7 (0.4)
0x5e0|                                       10      |             .  |                    large_size_marker: 1 (valid) 0x5ed-0x5ed.3 (0.4)
0x5e0|                                       10      |             .  |                    exponent: 0 0x5ed.4-0x5ed.7 (0.4)
0x5e0|                                          11   |              . |                    size_bigint: 17 0x5ee-0x5ee.7 (1)
     |                                               |                |                    size: 17
0x5e0|                                             41|               A|                    value: "Apple ProRes 4444" 0x5ef-0x5ff.7 (17)
0x5f0|70 70 6c 65 20 50 72 6f 52 65 73 20 34 34 34 34|pple ProRes 4444|
     |                                               |                |                [6]{}: entry 0x398-0x63d.7 (678)
     |                                               |                |                  key{}: 0x398-0x3b3.7 (28)
0x390|                        5f                     |        _       |                    type: "ascii_string" (5) (ASCII encoded string) 0x398-0x398.3 (0.4)
0x390|                        5f                     |        _       |                    size_bits: 15 0x398.4-0x398.7 (0.4)
0x390|                           10                  |         .      |                    large_size_marker: 1 (valid) 0x399-0x399.3 (0.4)
0x390|                           10                  |         .      |                    exponent: 0 0x399.4-0x399.7 (0.4)
0x390|                              19               |          .     |                    size_bigint: 25 0x39a-0x39a.7 (1)
     |                                               |                |                    size: 25
0x390|                                 43 4d 45 78 65|           CMExe|                    value: "CMExecutableArchitectures" 0x39b-0x3b3.7 (25)
0x3a0|63 75 74 61 62 6c 65 41 72 63 68 69 74 65 63 74|cutableArchitect|
0x3b0|75 72 65 73                                    |ures            |
     |                                               |                |                  value{}: 0x452-0x63d.7 (492)
     |                                               |                |                    entries[0:2]: 0x452-0x63d.7 (492)
     |                                               |                |                      [0]{}: entry 0x452-0x63c.7 (491)
0x450|      56                                       |  V             |                        type: "ascii_string" (5) (ASCII encoded string) 0x452-0x452.3 (0.4)
0x450|      56                                       |  V             |                        size_bits: 6 0x452.4-0x452.7 (0.4)
     |                                               |                |                        size: 6
0x450|         78 38 36 5f 36 34                     |   x86_64       |                        value: "x86_64" 0x453-0x458.7 (6)
0x630|                                    3c         |            <   |                        object_index: 60 0x63c-0x63c.7 (1)
     |                                               |                |                      [1]{}: entry 0x459-0x63d.7 (485)
0x450|                           55                  |         U      |                        type: "ascii_string" (5) (ASCII encoded string) 0x459-0x459.3 (0.4)
0x450|                           55                  |         U      |                        size_bits: 5 0x459.4-0x459.7 (0.4)
     |                                               |                |                        size: 5
0x450|                              61 72 6d 36 34   |          arm64 |                        value: "arm64" 0x45a-0x45e.7 (5)
0x630|                                       3d      |             =  |                        object_index: 61 0x63d-0x63d.7 (1)
0x630|                                 a2            |           .    |                    type: "array" (10) (Array) 0x63b-0x63b.3 (0.4)
0x630|                                 a2            |           .    |                    size_bits: 2 0x63b.4-0x63b.7 (0.4)
     |                                               |                |                    size: 2
0x5c0|32                                             |2               |                  key_index: 50 0x5c0-0x5c0.7 (1)
0x5c0|                                 58            |           X    |                  value_index: 88 0x5cb-0x5cb.7 (1)
     |                                               |                |                [7]{}: entry 0x35f-0x5cc.7 (622)
     |                                               |                |                  key{}: 0x35f-0x37d.7 (31)
0x350|                                             5f|               _|                    type: "ascii_string" (5) (ASCII encoded string) 0x35f-0x35f.3 (0.4)
0x350|                                             5f|               _|                    size_bits: 15 0x35f.4-0x35f.7 (0.4)
0x360|10                                             |.               |                    large_size_marker: 1 (valid) 0x360-0x360.3 (0.4)
0x360|10                                             |.               |                    exponent: 0 0x360.4-0x360.7 (0.4)
0x360|   1c                                          | .              |                    size_bigint: 28 0x361-0x361.7 (1)
     |                                               |                |                    size: 28
0x360|      43 4d 43 6c 61 73 73 49 6d 70 6c 65 6d 65|  CMClassImpleme|                    value: "CMClassImplementationVersion" 0x362-0x37d.7 (28)
0x370|6e 74 61 74 69 6f 6e 56 65 72 73 69 6f 6e      |ntationVersion  |
     |                                               |                |                  value{}: 0x417-0x418.7 (2)
0x410|                     10                        |       .        |                    type: "int" (1) (Integer) 0x417-0x417.3 (0.4)
0x410|                     10                        |       .        |                    size: 1 0x417.4-0x417.7 (0.4)
0x410|                        01                     |        .       |                    value: 1 0x418-0x418.7 (1)
0x5c0|   30                                          | 0              |                  key_index: 48 0x5c1-0x5c1.7 (1)
0x5c0|                                    39         |            9   |                  value_index: 57 0x5cc-0x5cc.7 (1)
     |                                               |                |                [8]{}: entry 0x223-0x5cd.7 (939)
     |                                               |                |                  value{}: 0x223-0x25c.7 (58)
0x220|         5f                                    |   _            |                    type: "ascii_string" (5) (ASCII encoded string) 0x223-0x223.3 (0.4)
0x220|         5f                                    |   _            |                    size_bits: 15 0x223.4-0x223.7 (0.4)
0x220|            10                                 |    .           |                    large_size_marker: 1 (valid) 0x224-0x224.3 (0.4)
0x220|            10                                 |    .           |                    exponent: 0 0x224.4-0x224.7 (0.4)
0x220|               37                              |     7          |                    size_bigint: 55 0x225-0x225.7 (1)
     |                                               |                |                    size: 55
0x220|                  43 6f 70 79 72 69 67 68 74 20|      Copyright |                    value: "Copyright (c) 2011-2021 Apple Inc. All rights r..." 0x226-0x25c.7 (55)
0x230|28 63 29 20 32 30 31 31 2d 32 30 32 31 20 41 70|(c) 2011-2021 Ap|
*    |until 0x25c.7 (55)                             |                |
     |                                               |                |                  key{}: 0x3b4-0x3bf.7 (12)
0x3b0|            5b                                 |    [           |                    type: "ascii_string" (5) (ASCII encoded string) 0x3b4-0x3b4.3 (0.4)
0x3b0|            5b                                 |    [           |                    size_bits: 11 0x3b4.4-0x3b4.7 (0.4)
     |                                               |                |                    size: 11
0x3b0|               43 4d 43 6f 70 79 72 69 67 68 74|     CMCopyright|                    value: "CMCopyright" 0x3b5-0x3bf.7 (11)
0x5c0|      33                                       |  3             |                  key_index: 51 0x5c2-0x5c2.7 (1)
0x5c0|                                       1a      |             .  |                  value_index: 26 0x5cd-0x5cd.7 (1)
     |                                               |                |                [9]{}: entry 0x3c0-0x642.7 (643)
     |                                               |                |                  key{}: 0x3c0-0x3ce.7 (15)
0x3c0|5e                                             |^               |                    type: "ascii_string" (5) (ASCII encoded string) 0x3c0-0x3c0.3 (0.4)
0x3c0|5e                                             |^               |                    size_bits: 14 0x3c0.4-0x3c0.7 (0.4)
     |                                               |                |                    size: 14
0x3c0|   43 4d 4d 61 74 63 68 69 6e 67 49 6e 66 6f   | CMMatchingInfo |                    value: "CMMatchingInfo" 0x3c1-0x3ce.7 (14)
     |                                               |                |                  value{}: 0x464-0x642.7 (479)
     |                                               |                |                    entries[0:2]: 0x464-0x642.7 (479)
     |                                               |                |                      [0]{}: entry 0x464-0x641.7 (478)
     |                                               |                |                        key{}: 0x464-0x46f.7 (12)
0x460|            5b                                 |    [           |                          type: "ascii_string" (5) (ASCII encoded string) 0x464-0x464.3 (0.4)
0x460|            5b                                 |    [           |                          size_bits: 11 0x464.4-0x464.7 (0.4)
     |                                               |                |                          size: 11
0x460|               56 54 43 6f 64 65 63 54 79 70 65|     VTCodecType|                          value: "VTCodecType" 0x465-0x46f.7 (11)
     |                                               |                |                        value{}: 0x485-0x489.7 (5)
0x480|               54                              |     T          |                          type: "ascii_string" (5) (ASCII encoded string) 0x485-0x485.3 (0.4)
0x480|               54                              |     T          |                          size_bits: 4 0x485.4-0x485.7 (0.4)
     |                                               |                |                          size: 4
0x480|                  61 70 34 68                  |      ap4h      |                          value: "ap4h" 0x486-0x489.7 (4)
0x630|                                             3f|               ?|                        key_index: 63 0x63f-0x63f.7 (1)
0x640|   43                                          | C              |                        value_index: 67 0x641-0x641.7 (1)
     |                                               |                |                      [1]{}: entry 0x470-0x642.7 (467)
     |                                               |                |                        key{}: 0x470-0x478.7 (9)
0x470|58                                             |X               |                          type: "ascii_string" (5) (ASCII encoded string) 0x470-0x470.3 (0.4)
0x470|58                                             |X               |                          size_bits: 8 0x470.4-0x470.7 (0.4)
     |                                               |                |                          size: 8
0x470|   56 54 52 61 74 69 6e 67                     | VTRating       |                          value: "VTRating" 0x471-0x478.7 (8)
     |                                               |                |                        value{}: 0x49e-0x49f.7 (2)
0x490|                                          10   |              . |                          type: "int" (1) (Integer) 0x49e-0x49e.3 (0.4)
0x490|                                          10   |              . |                          size: 1 0x49e.4-0x49e.7 (0.4)
0x490|                                             64|               d|                          value: 100 0x49f-0x49f.7 (1)
0x640|40                                             |@               |                        key_index: 64 0x640-0x640.7 (1)
0x640|      48                                       |  H             |                        value_index: 72 0x642-0x642.7 (1)
0x630|                                          d2   |              . |                    type: "dict" (13) (Dictionary) 0x63e-0x63e.3 (0.4)
0x630|                                          d2   |              . |                    size_bits: 2 0x63e.4-0x63e.7 (0.4)
     |                                               |                |                    size: 2
0x5c0|         34                                    |   4            |                  key_index: 52 0x5c3-0x5c3.7 (1)
0x5c0|                                          59   |              Y |                  value_index: 89 0x5ce-0x5ce.7 (1)
     |                                               |                |                [10]{}: entry 0x3cf-0x5cf.7 (513)
     |                                               |                |                  key{}: 0x3cf-0x3d8.7 (10)
0x3c0|                                             59|               Y|                    type: "ascii_string" (5) (ASCII encoded string) 0x3cf-0x3cf.3 (0.4)
0x3c0|                                             59|               Y|                    size_bits: 9 0x3cf.4-0x3cf.7 (0.4)
     |                                               |                |                    size: 9
0x3d0|43 4d 43 6c 61 73 73 49 44                     |CMClassID       |                    value: "CMClassID" 0x3d0-0x3d8.7 (9)
     |                                               |                |                  value{}: 0x593-0x5b8.7 (38)
0x590|         5f                                    |   _            |                    type: "ascii_string" (5) (ASCII encoded string) 0x593-0x593.3 (0.4)
0x590|         5f                                    |   _            |                    size_bits: 15 0x593.4-0x593.7 (0.4)
0x590|            10                                 |    .           |                    large_size_marker: 1 (valid) 0x594-0x594.3 (0.4)
0x590|            10                                 |    .           |                    exponent: 0 0x594.4-0x594.7 (0.4)
0x590|               23                              |     #          |                    size_bigint: 35 0x595-0x595.7 (1)
     |                                               |                |                    size: 35
0x590|                  63 6f 6d 2e 61 70 70 6c 65 2e|      com.apple.|                    value: "com.apple.videotoolbox.videoencoder" 0x596-0x5b8.7 (35)
0x5a0|76 69 64 65 6f 74 6f 6f 6c 62 6f 78 2e 76 69 64|videotoolbox.vid|
0x5b0|65 6f 65 6e 63 6f 64 65 72                     |eoencoder       |
0x5c0|            35                                 |    5           |                  key_index: 53 0x5c4-0x5c4.7 (1)
0x5c0|                                             53|               S|                  value_index: 83 0x5cf-0x5cf.7 (1)
0x300|                        54                     |        T       |              object_index: 84 0x308-0x308.7 (1)
0x5b0|                           db                  |         .      |              type: "dict" (13) (Dictionary) 0x5b9-0x5b9.3 (0.4)
0x5b0|                           db                  |         .      |              size_bits: 11 0x5b9.4-0x5b9.7 (0.4)
     |                                               |                |              size: 11
     |                                               |                |            [3]{}: entry 0x223-0x6d1.7 (1199)
     |                                               |                |              entries[0:11]: 0x223-0x6d1.7 (1199)
     |                                               |                |                [0]{}: entry 0x320-0x677.7 (856)
     |                                               |                |                  key{}: 0x320-0x33b.7 (28)
0x320|5f                                             |_               |                    type: "ascii_string" (5) (ASCII encoded string) 0x320-0x320.3 (0.4)
0x320|5f                                             |_               |                    size_bits: 15 0x320.4-0x320.7 (0.4)
0x320|   10                                          | .              |                    large_size_marker: 1 (valid) 0x321-0x321.3 (0.4)
0x320|   10                                          | .              |                    exponent: 0 0x321.4-0x321.7 (0.4)
0x320|      19                                       |  .             |                    size_bigint: 25 0x322-0x322.7 (1)
     |                                               |                |                    size: 25
0x320|         43 4d 43 6c 61 73 73 49 6d 70 6c 65 6d|   CMClassImplem|                    value: "CMClassImplementationName" 0x323-0x33b.7 (25)
0x330|65 6e 74 61 74 69 6f 6e 4e 61 6d 65            |entationName    |
0x640|            2d                                 |    -           |                  key_index: 45 0x644-0x644.7 (1)
0x640|                                             5b|               [|                  value_index: 91 0x64f-0x64f.7 (1)
     |                                               |                |                  value{}: 0x65a-0x677.7 (30)
0x650|                              5f               |          _     |                    type: "ascii_string" (5) (ASCII encoded string) 0x65a-0x65a.3 (0.4)
0x650|                              5f               |          _     |                    size_bits: 15 0x65a.4-0x65a.7 (0.4)
0x650|                                 10            |           .    |                    large_size_marker: 1 (valid) 0x65b-0x65b.3 (0.4)
0x650|                                 10            |           .    |                    exponent: 0 0x65b.4-0x65b.7 (0.4)
0x650|                                    1b         |            .   |                    size_bigint: 27 0x65c-0x65c.7 (1)
     |                                               |                |                    size: 27
0x650|                                       41 70 70|             App|                    value: "Apple ProRes 422 HQ Encoder" 0x65d-0x677.7 (27)
0x660|6c 65 20 50 72 6f 52 65 73 20 34 32 32 20 48 51|le ProRes 422 HQ|
0x670|20 45 6e 63 6f 64 65 72                        | Encoder        |
     |                                               |                |                [1]{}: entry 0x33c-0x650.7 (789)
     |                                               |                |                  key{}: 0x33c-0x34f.7 (20)
0x330|                                    5f         |            _   |                    type: "ascii_string" (5) (ASCII encoded string) 0x33c-0x33c.3 (0.4)
0x330|                                    5f         |            _   |                    size_bits: 15 0x33c.4-0x33c.7 (0.4)
0x330|                                       10      |             .  |                    large_size_marker: 1 (valid) 0x33d-0x33d.3 (0.4)
0x330|                                       10      |             .  |                    exponent: 0 0x33d.4-0x33d.7 (0.4)
0x330|                                          11   |              . |                    size_bigint: 17 0x33e-0x33e.7 (1)
     |                                               |                |                    size: 17
0x330|                                             43|               C|                    value: "CMFactoryFunction" 0x33f-0x34f.7 (17)
0x340|4d 46 61 63 74 6f 72 79 46 75 6e 63 74 69 6f 6e|MFactoryFunction|
     |                                               |                |                  value{}: 0x516-0x536.7 (33)
0x510|                  5f                           |      _         |                    type: "ascii_string" (5) (ASCII encoded string) 0x516-0x516.3 (0.4)
0x510|                  5f                           |      _         |                    size_bits: 15 0x516.4-0x516.7 (0.4)
0x510|                     10                        |       .        |                    large_size_marker: 1 (valid) 0x517-0x517.3 (0.4)
0x510|                     10                        |       .        |                    exponent: 0 0x517.4-0x517.7 (0.4)
0x510|                        1e                     |        .       |                    size_bigint: 30 0x518-0x518.7 (1)
     |                                               |                |                    size: 30
0x510|                           49 63 70 56 69 64 65|         IcpVide|                    value: "IcpVideoEncoder_CreateInstance" 0x519-0x536.7 (30)
0x520|6f 45 6e 63 6f 64 65 72 5f 43 72 65 61 74 65 49|oEncoder_CreateI|
0x530|6e 73 74 61 6e 63 65                           |nstance         |
0x640|               2e                              |     .          |                  key_index: 46 0x645-0x645.7 (1)
0x650|4e                                             |N               |                  value_index: 78 0x650-0x650.7 (1)
     |                                               |                |                [2]{}: entry 0x350-0x651.7 (770)
     |                                               |                |                  key{}: 0x350-0x35e.7 (15)
0x350|5e                                             |^               |                    type: "ascii_string" (5) (ASCII encoded string) 0x350-0x350.3 (0.4)
0x350|5e                                             |^               |                    size_bits: 14 0x350.4-0x350.7 (0.4)
     |                                               |                |                    size: 14
0x350|   43 4d 4d 61 6e 75 66 61 63 74 75 72 65 72   | CMManufacturer |                    value: "CMManufacturer" 0x351-0x35e.7 (14)
     |                                               |                |                  value{}: 0x411-0x416.7 (6)
0x410|   55                                          | U              |                    type: "ascii_string" (5) (ASCII encoded string) 0x411-0x411.3 (0.4)
0x410|   55                                          | U              |                    size_bits: 5 0x411.4-0x411.7 (0.4)
     |                                               |                |                    size: 5
0x410|      41 70 70 6c 65                           |  Apple         |                    value: "Apple" 0x412-0x416.7 (5)
0x640|                  2f                           |      /         |                  key_index: 47 0x646-0x646.7 (1)
0x650|   38                                          | 8              |                  value_index: 56 0x651-0x651.7 (1)
     |                                               |                |                [3]{}: entry 0x4dd-0x68d.7 (433)
     |                                               |                |                  key{}: 0x4dd-0x4e8.7 (12)
0x4d0|                                       5b      |             [  |                    type: "ascii_string" (5) (ASCII encoded string) 0x4dd-0x4dd.3 (0.4)
0x4d0|                                       5b      |             [  |                    size_bits: 11 0x4dd.4-0x4dd.7 (0.4)
     |                                               |                |                    size: 11
0x4d0|                                          56 54|              VT|                    value: "VTCodecName" 0x4de-0x4e8.7 (11)
0x4e0|43 6f 64 65 63 4e 61 6d 65                     |CodecName       |
0x640|                     4b                        |       K        |                  key_index: 75 0x647-0x647.7 (1)
0x650|      5c                                       |  \             |                  value_index: 92 0x652-0x652.7 (1)
     |                                               |                |                  value{}: 0x678-0x68d.7 (22)
0x670|                        5f                     |        _       |                    type: "ascii_string" (5) (ASCII encoded string) 0x678-0x678.3 (0.4)
0x670|                        5f                     |        _       |                    size_bits: 15 0x678.4-0x678.7 (0.4)
0x670|                           10                  |         .      |                    large_size_marker: 1 (valid) 0x679-0x679.3 (0.4)
0x670|                           10                  |         .      |                    exponent: 0 0x679.4-0x679.7 (0.4)
0x670|                              13               |          .     |                    size_bigint: 19 0x67a-0x67a.7 (1)
     |                                               |                |                    size: 19
0x670|                                 41 70 70 6c 65|           Apple|                    value: "Apple ProRes 422 HQ" 0x67b-0x68d.7 (19)
0x680|20 50 72 6f 52 65 73 20 34 32 32 20 48 51      | ProRes 422 HQ  |
     |                                               |                |                [4]{}: entry 0x37e-0x6c9.7 (844)
     |                                               |                |                  key{}: 0x37e-0x397.7 (26)
0x370|                                          5f   |              _ |                    type: "ascii_string" (5) (ASCII encoded string) 0x37e-0x37e.3 (0.4)
0x370|                                          5f   |              _ |                    size_bits: 15 0x37e.4-0x37e.7 (0.4)
0x370|                                             10|               .|                    large_size_marker: 1 (valid) 0x37f-0x37f.3 (0.4)
0x370|                                             10|               .|                    exponent: 0 0x37f.4-0x37f.7 (0.4)
0x380|17                                             |.               |                    size_bigint: 23 0x380-0x380.7 (1)
     |                                               |                |                    size: 23
0x380|   43 4d 43 6c 61 73 73 49 6d 70 6c 65 6d 65 6e| CMClassImplemen|                    value: "CMClassImplementationID" 0x381-0x397.7 (23)
0x390|74 61 74 69 6f 6e 49 44                        |tationID        |
0x640|                        31                     |        1       |                  key_index: 49 0x648-0x648.7 (1)
0x650|         5d                                    |   ]            |                  value_index: 93 0x653-0x653.7 (1)
     |                                               |                |                  value{}: 0x68e-0x6c9.7 (60)
0x680|                                          5f   |              _ |                    type: "ascii_string" (5) (ASCII encoded string) 0x68e-0x68e.3 (0.4)
0x680|                                          5f   |              _ |                    size_bits: 15 0x68e.4-0x68e.7 (0.4)
0x680|                                             10|               .|                    large_size_marker: 1 (valid) 0x68f-0x68f.3 (0.4)
0x680|                                             10|               .|                    exponent: 0 0x68f.4-0x68f.7 (0.4)
0x690|39                                             |9               |                    size_bigint: 57 0x690-0x690.7 (1)
     |                                               |                |                    size: 57
0x690|   63 6f 6d 2e 61 70 70 6c 65 2e 76 69 64 65 6f| com.apple.video|                    value: "com.apple.videotoolbox.videoencoder.prores-422h..." 0x691-0x6c9.7 (57)
0x6a0|74 6f 6f 6c 62 6f 78 2e 76 69 64 65 6f 65 6e 63|toolbox.videoenc|
*    |until 0x6c9.7 (57)                             |                |
     |                                               |                |                [5]{}: entry 0x4e9-0x68d.7 (421)
     |                                               |                |                  key{}: 0x4e9-0x4f6.7 (14)
0x4e0|                           5d                  |         ]      |                    type: "ascii_string" (5) (ASCII encoded string) 0x4e9-0x4e9.3 (0.4)
0x4e0|                           5d                  |         ]      |                    size_bits: 13 0x4e9.4-0x4e9.7 (0.4)
     |                                               |                |                    size: 13
0x4e0|                              56 54 45 6e 63 6f|          VTEnco|                    value: "VTEncoderName" 0x4ea-0x4f6.7 (13)
0x4f0|64 65 72 4e 61 6d 65                           |derName         |
0x640|                           4c                  |         L      |                  key_index: 76 0x649-0x649.7 (1)
0x650|            5c                                 |    \           |                  value_index: 92 0x654-0x654.7 (1)
     |                                               |                |                  value{}: 0x678-0x68d.7 (22)
0x670|                        5f                     |        _       |                    type: "ascii_string" (5) (ASCII encoded string) 0x678-0x678.3 (0.4)
0x670|                        5f                     |        _       |                    size_bits: 15 0x678.4-0x678.7 (0.4)
0x670|                           10                  |         .      |                    large_size_marker: 1 (valid) 0x679-0x679.3 (0.4)
0x670|                           10                  |         .      |                    exponent: 0 0x679.4-0x679.7 (0.4)
0x670|                              13               |          .     |                    size_bigint: 19 0x67a-0x67a.7 (1)
     |                                               |                |                    size: 19
0x670|                                 41 70 70 6c 65|           Apple|                    value: "Apple ProRes 422 HQ" 0x67b-0x68d.7 (19)
0x680|20 50 72 6f 52 65 73 20 34 32 32 20 48 51      | ProRes 422 HQ  |
     |                                               |                |                [6]{}: entry 0x398-0x6cc.7 (821)
     |                                               |                |                  key{}: 0x398-0x3b3.7 (28)
0x390|                        5f                     |        _       |                    type: "ascii_string" (5) (ASCII encoded string) 0x398-0x398.3 (0.4)
0x390|                        5f                     |        _       |                    size_bits: 15 0x398.4-0x398.7 (0.4)
0x390|                           10                  |         .      |                    large_size_marker: 1 (valid) 0x399-0x399.3 (0.4)
0x390|                           10                  |         .      |                    exponent: 0 0x399.4-0x399.7 (0.4)
0x390|                              19               |          .     |                    size_bigint: 25 0x39a-0x39a.7 (1)
     |                                               |                |                    size: 25
0x390|                                 43 4d 45 78 65|           CMExe|                    value: "CMExecutableArchitectures" 0x39b-0x3b3.7 (25)
0x3a0|63 75 74 61 62 6c 65 41 72 63 68 69 74 65 63 74|cutableArchitect|
0x3b0|75 72 65 73                                    |ures            |
     |                                               |                |                  value{}: 0x452-0x6cc.7 (635)
     |                                               |                |                    entries[0:2]: 0x452-0x6cc.7 (635)
     |                                               |                |                      [0]{}: entry 0x452-0x6cb.7 (634)
0x450|      56                                       |  V             |                        type: "ascii_string" (5) (ASCII encoded string) 0x452-0x452.3 (0.4)
0x450|      56                                       |  V             |                        size_bits: 6 0x452.4-0x452.7 (0.4)
     |                                               |                |                        size: 6
0x450|         78 38 36 5f 36 34                     |   x86_64       |                        value: "x86_64" 0x453-0x458.7 (6)
0x6c0|                                 3c            |           <    |                        object_index: 60 0x6cb-0x6cb.7 (1)
     |                                               |                |                      [1]{}: entry 0x459-0x6cc.7 (628)
0x450|                           55                  |         U      |                        type: "ascii_string" (5) (ASCII encoded string) 0x459-0x459.3 (0.4)
0x450|                           55                  |         U      |                        size_bits: 5 0x459.4-0x459.7 (0.4)
     |                                               |                |                        size: 5
0x450|                              61 72 6d 36 34   |          arm64 |                        value: "arm64" 0x45a-0x45e.7 (5)
0x6c0|                                    3d         |            =   |                        object_index: 61 0x6cc-0x6cc.7 (1)
0x6c0|                              a2               |          .     |                    type: "array" (10) (Array) 0x6ca-0x6ca.3 (0.4)
0x6c0|                              a2               |          .     |                    size_bits: 2 0x6ca.4-0x6ca.7 (0.4)
     |                                               |                |                    size: 2
0x640|                              32               |          2     |                  key_index: 50 0x64a-0x64a.7 (1)
0x650|               5e                              |     ^          |                  value_index: 94 0x655-0x655.7 (1)
     |                                               |                |                [7]{}: entry 0x35f-0x656.7 (760)
     |                                               |                |                  key{}: 0x35f-0x37d.7 (31)
0x350|                                             5f|               _|                    type: "ascii_string" (5) (ASCII encoded string) 0x35f-0x35f.3 (0.4)
0x350|                                             5f|               _|                    size_bits: 15 0x35f.4-0x35f.7 (0.4)
0x360|10                                             |.               |                    large_size_marker: 1 (valid) 0x360-0x360.3 (0.4)
0x360|10                                             |.               |                    exponent: 0 0x360.4-0x360.7 (0.4)
0x360|   1c                                          | .              |                    size_bigint: 28 0x361-0x361.7 (1)
     |                                               |                |                    size: 28
0x360|      43 4d 43 6c 61 73 73 49 6d 70 6c 65 6d 65|  CMClassImpleme|                    value: "CMClassImplementationVersion" 0x362-0x37d.7 (28)
0x370|6e 74 61 74 69 6f 6e 56 65 72 73 69 6f 6e      |ntationVersion  |
     |                                               |                |                  value{}: 0x417-0x418.7 (2)
0x410|                     10                        |       .        |                    type: "int" (1) (Integer) 0x417-0x417.3 (0.4)
0x410|                     10                        |       .        |                    size: 1 0x417.4-0x417.7 (0.4)
0x410|                        01                     |        .       |                    value: 1 0x418-0x418.7 (1)
0x640|                                 30            |           0    |                  key_index: 48 0x64b-0x64b.7 (1)
0x650|                  39                           |      9         |                  value_index: 57 0x656-0x656.7 (1)
     |                                               |                |                [8]{}: entry 0x223-0x657.7 (1077)
     |                                               |                |                  value{}: 0x223-0x25c.7 (58)
0x220|         5f                                    |   _            |                    type: "ascii_string" (5) (ASCII encoded string) 0x223-0x223.3 (0.4)
0x220|         5f                                    |   _            |                    size_bits: 15 0x223.4-0x223.7 (0.4)
0x220|            10                                 |    .           |                    large_size_marker: 1 (valid) 0x224-0x224.3 (0.4)
0x220|            10                                 |    .           |                    exponent: 0 0x224.4-0x224.7 (0.4)
0x220|               37                              |     7          |                    size_bigint: 55 0x225-0x225.7 (1)
     |                                               |                |                    size: 55
0x220|                  43 6f 70 79 72 69 67 68 74 20|      Copyright |                    value: "Copyright (c) 2011-2021 Apple Inc. All rights r..." 0x226-0x25c.7 (55)
0x230|28 63 29 20 32 30 31 31 2d 32 30 32 31 20 41 70|(c) 2011-2021 Ap|
*    |until 0x25c.7 (55)                             |                |
     |                                               |                |                  key{}: 0x3b4-0x3bf.7 (12)
0x3b0|            5b                                 |    [           |                    type: "ascii_string" (5) (ASCII encoded string) 0x3b4-0x3b4.3 (0.4)
0x3b0|            5b                                 |    [           |                    size_bits: 11 0x3b4.4-0x3b4.7 (0.4)
     |                                               |                |                    size: 11
0x3b0|               43 4d 43 6f 70 79 72 69 67 68 74|     CMCopyright|                    value: "CMCopyright" 0x3b5-0x3bf.7 (11)
0x640|                                    33         |            3   |                  key_index: 51 0x64c-0x64c.7 (1)
0x650|                     1a                        |       .        |                  value_index: 26 0x657-0x657.7 (1)
     |                                               |                |                [9]{}: entry 0x3c0-0x6d1.7 (786)
     |                                               |                |                  key{}: 0x3c0-0x3ce.7 (15)
0x3c0|5e                                             |^               |                    type: "ascii_string" (5) (ASCII encoded string) 0x3c0-0x3c0.3 (0.4)
0x3c0|5e                                             |^               |                    size_bits: 14 0x3c0.4-0x3c0.7 (0.4)
     |                                               |                |                    size: 14
0x3c0|   43 4d 4d 61 74 63 68 69 6e 67 49 6e 66 6f   | CMMatchingInfo |                    value: "CMMatchingInfo" 0x3c1-0x3ce.7 (14)
     |                                               |                |                  value{}: 0x464-0x6d1.7 (622)
     |                                               |                |                    entries[0:2]: 0x464-0x6d1.7 (622)
     |                                               |                |                      [0]{}: entry 0x464-0x6d0.7 (621)
     |                                               |                |                        key{}: 0x464-0x46f.7 (12)
0x460|            5b                                 |    [           |                          type: "ascii_string" (5) (ASCII encoded string) 0x464-0x464.3 (0.4)
0x460|            5b                                 |    [           |                          size_bits: 11 0x464.4-0x464.7 (0.4)
     |                                               |                |                          size: 11
0x460|               56 54 43 6f 64 65 63 54 79 70 65|     VTCodecType|                          value: "VTCodecType" 0x465-0x46f.7 (11)
     |                                               |                |                        value{}: 0x48a-0x48e.7 (5)
0x480|                              54               |          T     |                          type: "ascii_string" (5) (ASCII encoded string) 0x48a-0x48a.3 (0.4)
0x480|                              54               |          T     |                          size_bits: 4 0x48a.4-0x48a.7 (0.4)
     |                                               |                |                          size: 4
0x480|                                 61 70 63 68   |           apch |                          value: "apch" 0x48b-0x48e.7 (4)
0x6c0|                                          3f   |              ? |                        key_index: 63 0x6ce-0x6ce.7 (1)
0x6d0|44                                             |D               |                        value_index: 68 0x6d0-0x6d0.7 (1)
     |                                               |                |                      [1]{}: entry 0x470-0x6d1.7 (610)
     |                                               |                |                        key{}: 0x470-0x478.7 (9)
0x470|58                                             |X               |                          type: "ascii_string" (5) (ASCII encoded string) 0x470-0x470.3 (0.4)
0x470|58                                             |X               |                          size_bits: 8 0x470.4-0x470.7 (0.4)
     |                                               |                |                          size: 8
0x470|   56 54 52 61 74 69 6e 67                     | VTRating       |                          value: "VTRating" 0x471-0x478.7 (8)
     |                                               |                |                        value{}: 0x49e-0x49f.7 (2)
0x490|                                          10   |              . |                          type: "int" (1) (Integer) 0x49e-0x49e.3 (0.4)
0x490|                                          10   |              . |                          size: 1 0x49e.4-0x49e.7 (0.4)
0x490|                                             64|               d|                          value: 100 0x49f-0x49f.7 (1)
0x6c0|                                             40|               @|                        key_index: 64 0x6cf-0x6cf.7 (1)
0x6d0|   48                                          | H              |                        value_index: 72 0x6d1-0x6d1.7 (1)
0x6c0|                                       d2      |             .  |                    type: "dict" (13) (Dictionary) 0x6cd-0x6cd.3 (0.4)
0x6c0|                                       d2      |             .  |                    size_bits: 2 0x6cd.4-0x6cd.7 (0.4)
     |                                               |                |                    size: 2
0x640|                                       34      |             4  |                  key_index: 52 0x64d-0x64d.7 (1)
0x650|                        5f                     |        _       |                  value_index: 95 0x658-0x658.7 (1)
     |                                               |                |                [10]{}: entry 0x3cf-0x659.7 (651)
     |                                               |                |                  key{}: 0x3cf-0x3d8.7 (10)
0x3c0|                                             59|               Y|                    type: "ascii_string" (5) (ASCII encoded string) 0x3cf-0x3cf.3 (0.4)
0x3c0|                                             59|               Y|                    size_bits: 9 0x3cf.4-0x3cf.7 (0.4)
     |                                               |                |                    size: 9
0x3d0|43 4d 43 6c 61 73 73 49 44                     |CMClassID       |                    value: "CMClassID" 0x3d0-0x3d8.7 (9)
     |                                               |                |                  value{}: 0x593-0x5b8.7 (38)
0x590|         5f                                    |   _            |                    type: "ascii_string" (5) (ASCII encoded string) 0x593-0x593.3 (0.4)
0x590|         5f                                    |   _            |                    size_bits: 15 0x593.4-0x593.7 (0.4)
0x590|            10                                 |    .           |                    large_size_marker: 1 (valid) 0x594-0x594.3 (0.4)
0x590|            10                                 |    .           |                    exponent: 0 0x594.4-0x594.7 (0.4)
0x590|               23                              |     #          |                    size_bigint: 35 0x595-0x595.7 (1)
     |                                               |                |                    size: 35
0x590|                  63 6f 6d 2e 61 70 70 6c 65 2e|      com.apple.|                    value: "com.apple.videotoolbox.videoencoder" 0x596-0x5b8.7 (35)
0x5a0|76 69 64 65 6f 74 6f 6f 6c 62 6f 78 2e 76 69 64|videotoolbox.vid|
0x5b0|65 6f 65 6e 63 6f 64 65 72                     |eoencoder       |
0x640|                                          35   |              5 |                  key_index: 53 0x64e-0x64e.7 (1)
0x650|                           53                  |         S      |                  value_index: 83 0x659-0x659.7 (1)
0x300|                           5a                  |         Z      |              object_index: 90 0x309-0x309.7 (1)
0x640|         db                                    |   .            |              type: "dict" (13) (Dictionary) 0x643-0x643.3 (0.4)
0x640|         db                                    |   .            |              size_bits: 11 0x643.4-0x643.7 (0.4)
     |                                               |                |              size: 11
     |                                               |                |            [4]{}: entry 0x223-0x758.7 (1334)
     |                                               |                |              entries[0:11]: 0x223-0x758.7 (1334)
     |                                               |                |                [0]{}: entry 0x320-0x703.7 (996)
     |                                               |                |                  key{}: 0x320-0x33b.7 (28)
0x320|5f                                             |_               |                    type: "ascii_string" (5) (ASCII encoded string) 0x320-0x320.3 (0.4)
0x320|5f                                             |_               |                    size_bits: 15 0x320.4-0x320.7 (0.4)
0x320|   10                                          | .              |                    large_size_marker: 1 (valid) 0x321-0x321.3 (0.4)
0x320|   10                                          | .              |                    exponent: 0 0x321.4-0x321.7 (0.4)
0x320|      19                                       |  .             |                    size_bigint: 25 0x322-0x322.7 (1)
     |                                               |                |                    size: 25
0x320|         43 4d 43 6c 61 73 73 49 6d 70 6c 65 6d|   CMClassImplem|                    value: "CMClassImplementationName" 0x323-0x33b.7 (25)
0x330|65 6e 74 61 74 69 6f 6e 4e 61 6d 65            |entationName    |
0x6d0|         2d                                    |   -            |                  key_index: 45 0x6d3-0x6d3.7 (1)
0x6d0|                                          61   |              a |                  value_index: 97 0x6de-0x6de.7 (1)
     |                                               |                |                  value{}: 0x6e9-0x703.7 (27)
0x6e0|                           5f                  |         _      |                    type: "ascii_string" (5) (ASCII encoded string) 0x6e9-0x6e9.3 (0.4)
0x6e0|                           5f                  |         _      |                    size_bits: 15 0x6e9.4-0x6e9.7 (0.4)
0x6e0|                              10               |          .     |                    large_size_marker: 1 (valid) 0x6ea-0x6ea.3 (0.4)
0x6e0|                              10               |          .     |                    exponent: 0 0x6ea.4-0x6ea.7 (0.4)
0x6e0|                                 18            |           .    |                    size_bigint: 24 0x6eb-0x6eb.7 (1)
     |                                               |                |                    size: 24
0x6e0|                                    41 70 70 6c|            Appl|                    value: "Apple ProRes 422 Encoder" 0x6ec-0x703.7 (24)
0x6f0|65 20 50 72 6f 52 65 73 20 34 32 32 20 45 6e 63|e ProRes 422 Enc|
0x700|6f 64 65 72                                    |oder            |
     |                                               |                |                [1]{}: entry 0x33c-0x6df.7 (932)
     |                                               |                |                  key{}: 0x33c-0x34f.7 (20)
0x330|                                    5f         |            _   |                    type: "ascii_string" (5) (ASCII encoded string) 0x33c-0x33c.3 (0.4)
0x330|                                    5f         |            _   |                    size_bits: 15 0x33c.4-0x33c.7 (0.4)
0x330|                                       10      |             .  |                    large_size_marker: 1 (valid) 0x33d-0x33d.3 (0.4)
0x330|                                       10      |             .  |                    exponent: 0 0x33d.4-0x33d.7 (0.4)
0x330|                                          11   |              . |                    size_bigint: 17 0x33e-0x33e.7 (1)
     |                                               |                |                    size: 17
0x330|                                             43|               C|                    value: "CMFactoryFunction" 0x33f-0x34f.7 (17)
0x340|4d 46 61 63 74 6f 72 79 46 75 6e 63 74 69 6f 6e|MFactoryFunction|
     |                                               |                |                  value{}: 0x516-0x536.7 (33)
0x510|                  5f                           |      _         |                    type: "ascii_string" (5) (ASCII encoded string) 0x516-0x516.3 (0.4)
0x510|                  5f                           |      _         |                    size_bits: 15 0x516.4-0x516.7 (0.4)
0x510|                     10                        |       .        |                    large_size_marker: 1 (valid) 0x517-0x517.3 (0.4)
0x510|                     10                        |       .        |                    exponent: 0 0x517.4-0x517.7 (0.4)
0x510|                        1e                     |        .       |                    size_bigint: 30 0x518-0x518.7 (1)
     |                                               |                |                    size: 30
0x510|                           49 63 70 56 69 64 65|         IcpVide|                    value: "IcpVideoEncoder_CreateInstance" 0x519-0x536.7 (30)
0x520|6f 45 6e 63 6f 64 65 72 5f 43 72 65 61 74 65 49|oEncoder_CreateI|
0x530|6e 73 74 61 6e 63 65                           |nstance         |
0x6d0|            2e                                 |    .           |                  key_index: 46 0x6d4-0x6d4.7 (1)
0x6d0|                                             4e|               N|                  value_index: 78 0x6df-0x6df.7 (1)
     |                                               |                |                [2]{}: entry 0x350-0x6e0.7 (913)
     |                                               |                |                  key{}: 0x350-0x35e.7 (15)
0x350|5e                                             |^               |                    type: "ascii_string" (5) (ASCII encoded string) 0x350-0x350.3 (0.4)
0x350|5e                                             |^               |                    size_bits: 14 0x350.4-0x350.7 (0.4)
     |                                               |                |                    size: 14
0x350|   43 4d 4d 61 6e 75 66 61 63 74 75 72 65 72   | CMManufacturer |                    value: "CMManufacturer" 0x351-0x35e.7 (14)
     |                                               |                |                  value{}: 0x411-0x416.7 (6)
0x410|   55                                          | U              |                    type: "ascii_string" (5) (ASCII encoded string) 0x411-0x411.3 (0.4)
0x410|   55                                          | U              |                    size_bits: 5 0x411.4-0x411.7 (0.4)
     |                                               |                |                    size: 5
0x410|      41 70 70 6c 65                           |  Apple         |                    value: "Apple" 0x412-0x416.7 (5)
0x6d0|               2f                              |     /          |                  key_index: 47 0x6d5-0x6d5.7 (1)
0x6e0|38                                             |8               |                  value_index: 56 0x6e0-0x6e0.7 (1)
     |                                               |                |                [3]{}: entry 0x4dd-0x716.7 (570)
     |                                               |                |                  key{}: 0x4dd-0x4e8.7 (12)
0x4d0|                                       5b      |             [  |                    type: "ascii_string" (5) (ASCII encoded string) 0x4dd-0x4dd.3 (0.4)
0x4d0|                                       5b      |             [  |                    size_bits: 11 0x4dd.4-0x4dd.7 (0.4)
     |                                               |                |                    size: 11
0x4d0|                                          56 54|              VT|                    value: "VTCodecName" 0x4de-0x4e8.7 (11)
0x4e0|43 6f 64 65 63 4e 61 6d 65                     |CodecName       |
0x6d0|                  4b                           |      K         |                  key_index: 75 0x6d6-0x6d6.7 (1)
0x6e0|   62                                          | b              |                  value_index: 98 0x6e1-0x6e1.7 (1)
     |                                               |                |                  value{}: 0x704-0x716.7 (19)
0x700|            5f                                 |    _           |                    type: "ascii_string" (5) (ASCII encoded string) 0x704-0x704.3 (0.4)
0x700|            5f                                 |    _           |                    size_bits: 15 0x704.4-0x704.7 (0.4)
0x700|               10                              |     .          |                    large_size_marker: 1 (valid) 0x705-0x705.3 (0.4)
0x700|               10                              |     .          |                    exponent: 0 0x705.4-0x705.7 (0.4)
0x700|                  10                           |      .         |                    size_bigint: 16 0x706-0x706.7 (1)
     |                                               |                |                    size: 16
0x700|                     41 70 70 6c 65 20 50 72 6f|       Apple Pro|                    value: "Apple ProRes 422" 0x707-0x716.7 (16)
0x710|52 65 73 20 34 32 32                           |Res 422         |
     |                                               |                |                [4]{}: entry 0x37e-0x750.7 (979)
     |                                               |                |                  key{}: 0x37e-0x397.7 (26)
0x370|                                          5f   |              _ |                    type: "ascii_string" (5) (ASCII encoded string) 0x37e-0x37e.3 (0.4)
0x370|                                          5f   |              _ |                    size_bits: 15 0x37e.4-0x37e.7 (0.4)
0x370|                                             10|               .|                    large_size_marker: 1 (valid) 0x37f-0x37f.3 (0.4)
0x370|                                             10|               .|                    exponent: 0 0x37f.4-0x37f.7 (0.4)
0x380|17                                             |.               |                    size_bigint: 23 0x380-0x380.7 (1)
     |                                               |                |                    size: 23
0x380|   43 4d 43 6c 61 73 73 49 6d 70 6c 65 6d 65 6e| CMClassImplemen|                    value: "CMClassImplementationID" 0x381-0x397.7 (23)
0x390|74 61 74 69 6f 6e 49 44                        |tationID        |
0x6d0|                     31                        |       1        |                  key_index: 49 0x6d7-0x6d7.7 (1)
0x6e0|      63                                       |  c             |                  value_index: 99 0x6e2-0x6e2.7 (1)
     |                                               |                |                  value{}: 0x717-0x750.7 (58)
0x710|                     5f                        |       _        |                    type: "ascii_string" (5) (ASCII encoded string) 0x717-0x717.3 (0.4)
0x710|                     5f                        |       _        |                    size_bits: 15 0x717.4-0x717.7 (0.4)
0x710|                        10                     |        .       |                    large_size_marker: 1 (valid) 0x718-0x718.3 (0.4)
0x710|                        10                     |        .       |                    exponent: 0 0x718.4-0x718.7 (0.4)
0x710|                           37                  |         7      |                    size_bigint: 55 0x719-0x719.7 (1)
     |                                               |                |                    size: 55
0x710|                              63 6f 6d 2e 61 70|          com.ap|                    value: "com.apple.videotoolbox.videoencoder.prores-422...." 0x71a-0x750.7 (55)
0x720|70 6c 65 2e 76 69 64 65 6f 74 6f 6f 6c 62 6f 78|ple.videotoolbox|
*    |until 0x750.7 (55)                             |                |
     |                                               |                |                [5]{}: entry 0x4e9-0x716.7 (558)
     |                                               |                |                  key{}: 0x4e9-0x4f6.7 (14)
0x4e0|                           5d                  |         ]      |                    type: "ascii_string" (5) (ASCII encoded string) 0x4e9-0x4e9.3 (0.4)
0x4e0|                           5d                  |         ]      |                    size_bits: 13 0x4e9.4-0x4e9.7 (0.4)
     |                                               |                |                    size: 13
0x4e0|                              56 54 45 6e 63 6f|          VTEnco|                    value: "VTEncoderName" 0x4ea-0x4f6.7 (13)
0x4f0|64 65 72 4e 61 6d 65                           |derName         |
0x6d0|                        4c                     |        L       |                  key_index: 76 0x6d8-0x6d8.7 (1)
0x6e0|         62                                    |   b            |                  value_index: 98 0x6e3-0x6e3.7 (1)
     |                                               |                |                  value{}: 0x704-0x716.7 (19)
0x700|            5f                                 |    _           |                    type: "ascii_string" (5) (ASCII encoded string) 0x704-0x704.3 (0.4)
0x700|            5f                                 |    _           |                    size_bits: 15 0x704.4-0x704.7 (0.4)
0x700|               10                              |     .          |                    large_size_marker: 1 (valid) 0x705-0x705.3 (0.4)
0x700|               10                              |     .          |                    exponent: 0 0x705.4-0x705.7 (0.4)
0x700|                  10                           |      .         |                    size_bigint: 16 0x706-0x706.7 (1)
     |                                               |                |                    size: 16
0x700|                     41 70 70 6c 65 20 50 72 6f|       Apple Pro|                    value: "Apple ProRes 422" 0x707-0x716.7 (16)
0x710|52 65 73 20 34 32 32                           |Res 422         |
     |                                               |                |                [6]{}: entry 0x398-0x753.7 (956)
     |                                               |                |                  key{}: 0x398-0x3b3.7 (28)
0x390|                        5f                     |        _       |                    type: "ascii_string" (5) (ASCII encoded string) 0x398-0x398.3 (0.4)
0x390|                        5f                     |        _       |                    size_bits: 15 0x398.4-0x398.7 (0.4)
0x390|                           10                  |         .      |                    large_size_marker: 1 (valid) 0x399-0x399.3 (0.4)
0x390|                           10                  |         .      |                    exponent: 0 0x399.4-0x399.7 (0.4)
0x390|                              19               |          .     |                    size_bigint: 25 0x39a-0x39a.7 (1)
     |                                               |                |                    size: 25
0x390|                                 43 4d 45 78 65|           CMExe|                    value: "CMExecutableArchitectures" 0x39b-0x3b3.7 (25)
0x3a0|63 75 74 61 62 6c 65 41 72 63 68 69 74 65 63 74|cutableArchitect|
0x3b0|75 72 65 73                                    |ures            |
     |                                               |                |                  value{}: 0x452-0x753.7 (770)
     |                                               |                |                    entries[0:2]: 0x452-0x753.7 (770)
     |                                               |                |                      [0]{}: entry 0x452-0x752.7 (769)
0x450|      56                                       |  V             |                        type: "ascii_string" (5) (ASCII encoded string) 0x452-0x452.3 (0.4)
0x450|      56                                       |  V             |                        size_bits: 6 0x452.4-0x452.7 (0.4)
     |                                               |                |                        size: 6
0x450|         78 38 36 5f 36 34                     |   x86_64       |                        value: "x86_64" 0x453-0x458.7 (6)
0x750|      3c                                       |  <             |                        object_index: 60 0x752-0x752.7 (1)
     |                                               |                |                      [1]{}: entry 0x459-0x753.7 (763)
0x450|                           55                  |         U      |                        type: "ascii_string" (5) (ASCII encoded string) 0x459-0x459.3 (0.4)
0x450|                           55                  |         U      |                        size_bits: 5 0x459.4-0x459.7 (0.4)
     |                                               |                |                        size: 5
0x450|                              61 72 6d 36 34   |          arm64 |                        value: "arm64" 0x45a-0x45e.7 (5)
0x750|         3d                                    |   =            |                        object_index: 61 0x753-0x753.7 (1)
0x750|   a2                                          | .              |                    type: "array" (10) (Array) 0x751-0x751.3 (0.4)
0x750|   a2                                          | .              |                    size_bits: 2 0x751.4-0x751.7 (0.4)
     |                                               |                |                    size: 2
0x6d0|                           32                  |         2      |                  key_index: 50 0x6d9-0x6d9.7 (1)
0x6e0|            64                                 |    d           |                  value_index: 100 0x6e4-0x6e4.7 (1)
     |                                               |                |                [7]{}: entry 0x35f-0x6e5.7 (903)
     |                                               |                |                  key{}: 0x35f-0x37d.7 (31)
0x350|                                             5f|               _|                    type: "ascii_string" (5) (ASCII encoded string) 0x35f-0x35f.3 (0.4)
0x350|                                             5f|               _|                    size_bits: 15 0x35f.4-0x35f.7 (0.4)
0x360|10                                             |.               |                    large_size_marker: 1 (valid) 0x360-0x360.3 (0.4)
0x360|10                                             |.               |                    exponent: 0 0x360.4-0x360.7 (0.4)
0x360|   1c                                          | .              |                    size_bigint: 28 0x361-0x361.7 (1)
     |                                               |                |                    size: 28
0x360|      43 4d 43 6c 61 73 73 49 6d 70 6c 65 6d 65|  CMClassImpleme|                    value: "CMClassImplementationVersion" 0x362-0x37d.7 (28)
0x370|6e 74 61 74 69 6f 6e 56 65 72 73 69 6f 6e      |ntationVersion  |
     |                                               |                |                  value{}: 0x417-0x418.7 (2)
0x410|                     10                        |       .        |                    type: "int" (1) (Integer) 0x417-0x417.3 (0.4)
0x410|                     10                        |       .        |                    size: 1 0x417.4-0x417.7 (0.4)
0x410|                        01                     |        .       |                    value: 1 0x418-0x418.7 (1)
0x6d0|                              30               |          0     |                  key_index: 48 0x6da-0x6da.7 (1)
0x6e0|               39                              |     9          |                  value_index: 57 0x6e5-0x6e5.7 (1)
     |                                               |                |                [8]{}: entry 0x223-0x6e6.7 (1220)
     |                                               |                |                  value{}: 0x223-0x25c.7 (58)
0x220|         5f                                    |   _            |                    type: "ascii_string" (5) (ASCII encoded string) 0x223-0x223.3 (0.4)
0x220|         5f                                    |   _            |                    size_bits: 15 0x223.4-0x223.7 (0.4)
0x220|            10                                 |    .           |                    large_size_marker: 1 (valid) 0x224-0x224.3 (0.4)
0x220|            10                                 |    .           |                    exponent: 0 0x224.4-0x224.7 (0.4)
0x220|               37                              |     7          |                    size_bigint: 55 0x225-0x225.7 (1)
     |                                               |                |                    size: 55
0x220|                  43 6f 70 79 72 69 67 68 74 20|      Copyright |                    value: "Copyright (c) 2011-2021 Apple Inc. All rights r..." 0x226-0x25c.7 (55)
0x230|28 63 29 20 32 30 31 31 2d 32 30 32 31 20 41 70|(c) 2011-2021 Ap|
*    |until 0x25c.7 (55)                             |                |
     |                                               |                |                  key{}: 0x3b4-0x3bf.7 (12)
0x3b0|            5b                                 |    [           |                    type: "ascii_string" (5) (ASCII encoded string) 0x3b4-0x3b4.3 (0.4)
0x3b0|            5b                                 |    [           |                    size_bits: 11 0x3b4.4-0x3b4.7 (0.4)
     |                                               |                |                    size: 11
0x3b0|               43 4d 43 6f 70 79 72 69 67 68 74|     CMCopyright|                    value: "CMCopyright" 0x3b5-0x3bf.7 (11)
0x6d0|                                 33            |           3    |                  key_index: 51 0x6db-0x6db.7 (1)
0x6e0|                  1a                           |      .         |                  value_index: 26 0x6e6-0x6e6.7 (1)
     |                                               |                |                [9]{}: entry 0x3c0-0x758.7 (921)
     |                                               |                |                  key{}: 0x3c0-0x3ce.7 (15)
0x3c0|5e                                             |^               |                    type: "ascii_string" (5) (ASCII encoded string) 0x3c0-0x3c0.3 (0.4)
0x3c0|5e                                             |^               |                    size_bits: 14 0x3c0.4-0x3c0.7 (0.4)
     |                                               |                |                    size: 14
0x3c0|   43 4d 4d 61 74 63 68 69 6e 67 49 6e 66 6f   | CMMatchingInfo |                    value: "CMMatchingInfo" 0x3c1-0x3ce.7 (14)
     |                                               |                |                  value{}: 0x464-0x758.7 (757)
     |                                               |                |                    entries[0:2]: 0x464-0x758.7 (757)
     |                                               |                |                      [0]{}: entry 0x464-0x757.7 (756)
     |                                               |                |                        key{}: 0x464-0x46f.7 (12)
0x460|            5b                                 |    [           |                          type: "ascii_string" (5) (ASCII encoded string) 0x464-0x464.3 (0.4)
0x460|            5b                                 |    [           |                          size_bits: 11 0x464.4-0x464.7 (0.4)
     |                                               |                |                          size: 11
0x460|               56 54 43 6f 64 65 63 54 79 70 65|     VTCodecType|                          value: "VTCodecType" 0x465-0x46f.7 (11)
     |                                               |                |                        value{}: 0x48f-0x493.7 (5)
0x480|                                             54|               T|                          type: "ascii_string" (5) (ASCII encoded string) 0x48f-0x48f.3 (0.4)
0x480|                                             54|               T|                          size_bits: 4 0x48f.4-0x48f.7 (0.4)
     |                                               |                |                          size: 4
0x490|61 70 63 6e                                    |apcn            |                          value: "apcn" 0x490-0x493.7 (4)
0x750|               3f                              |     ?          |                        key_index: 63 0x755-0x755.7 (1)
0x750|                     45                        |       E        |                        value_index: 69 0x757-0x757.7 (1)
     |                                               |                |                      [1]{}: entry 0x470-0x758.7 (745)
     |                                               |                |                        key{}: 0x470-0x478.7 (9)
0x470|58                                             |X               |                          type: "ascii_string" (5) (ASCII encoded string) 0x470-0x470.3 (0.4)
0x470|58                                             |X               |                          size_bits: 8 0x470.4-0x470.7 (0.4)
     |                                               |                |                          size: 8
0x470|   56 54 52 61 74 69 6e 67                     | VTRating       |                          value: "VTRating" 0x471-0x478.7 (8)
     |                                               |                |                        value{}: 0x49e-0x49f.7 (2)
0x490|                                          10   |              . |                          type: "int" (1) (Integer) 0x49e-0x49e.3 (0.4)
0x490|                                          10   |              . |                          size: 1 0x49e.4-0x49e.7 (0.4)
0x490|                                             64|               d|                          value: 100 0x49f-0x49f.7 (1)
0x750|                  40                           |      @         |                        key_index: 64 0x756-0x756.7 (1)
0x750|                        48                     |        H       |                        value_index: 72 0x758-0x758.7 (1)
0x750|            d2                                 |    .           |                    type: "dict" (13) (Dictionary) 0x754-0x754.3 (0.4)
0x750|            d2                                 |    .           |                    size_bits: 2 0x754.4-0x754.7 (0.4)
     |                                               |                |                    size: 2
0x6d0|                                    34         |            4   |                  key_index: 52 0x6dc-0x6dc.7 (1)
0x6e0|                     65                        |       e        |                  value_index: 101 0x6e7-0x6e7.7 (1)
     |                                               |                |                [10]{}: entry 0x3cf-0x6e8.7 (794)
     |                                               |                |                  key{}: 0x3cf-0x3d8.7 (10)
0x3c0|                                             59|               Y|                    type: "ascii_string" (5) (ASCII encoded string) 0x3cf-0x3cf.3 (0.4)
0x3c0|                                             59|               Y|                    size_bits: 9 0x3cf.4-0x3cf.7 (0.4)
     |                                               |                |                    size: 9
0x3d0|43 4d 43 6c 61 73 73 49 44                     |CMClassID       |                    value: "CMClassID" 0x3d0-0x3d8.7 (9)
     |                                               |                |                  value{}: 0x593-0x5b8.7 (38)
0x590|         5f                                    |   _            |                    type: "ascii_string" (5) (ASCII encoded string) 0x593-0x593.3 (0.4)
0x590|         5f                                    |   _            |                    size_bits: 15 0x593.4-0x593.7 (0.4)
0x590|            10                                 |    .           |                    large_size_marker: 1 (valid) 0x594-0x594.3 (0.4)
0x590|            10                                 |    .           |                    exponent: 0 0x594.4-0x594.7 (0.4)
0x590|               23                              |     #          |                    size_bigint: 35 0x595-0x595.7 (1)
     |                                               |                |                    size: 35
0x590|                  63 6f 6d 2e 61 70 70 6c 65 2e|      com.apple.|                    value: "com.apple.videotoolbox.videoencoder" 0x596-0x5b8.7 (35)
0x5a0|76 69 64 65 6f 74 6f 6f 6c 62 6f 78 2e 76 69 64|videotoolbox.vid|
0x5b0|65 6f 65 6e 63 6f 64 65 72                     |eoencoder       |
0x6d0|                                       35      |             5  |                  key_index: 53 0x6dd-0x6dd.7 (1)
0x6e0|                        53                     |        S       |                  value_index: 83 0x6e8-0x6e8.7 (1)
0x300|                              60               |          `     |              object_index: 96 0x30a-0x30a.7 (1)
0x6d0|      db                                       |  .             |              type: "dict" (13) (Dictionary) 0x6d2-0x6d2.3 (0.4)
0x6d0|      db                                       |  .             |              size_bits: 11 0x6d2.4-0x6d2.7 (0.4)
     |                                               |                |              size: 11
     |                                               |                |            [5]{}: entry 0x223-0x7e7.7 (1477)
     |                                               |                |              entries[0:11]: 0x223-0x7e7.7 (1477)
     |                                               |                |                [0]{}: entry 0x320-0x78d.7 (1134)
     |                                               |                |                  key{}: 0x320-0x33b.7 (28)
0x320|5f                                             |_               |                    type: "ascii_string" (5) (ASCII encoded string) 0x320-0x320.3 (0.4)
0x320|5f                                             |_               |                    size_bits: 15 0x320.4-0x320.7 (0.4)
0x320|   10                                          | .              |                    large_size_marker: 1 (valid) 0x321-0x321.3 (0.4)
0x320|   10                                          | .              |                    exponent: 0 0x321.4-0x321.7 (0.4)
0x320|      19                                       |  .             |                    size_bigint: 25 0x322-0x322.7 (1)
     |                                               |                |                    size: 25
0x320|         43 4d 43 6c 61 73 73 49 6d 70 6c 65 6d|   CMClassImplem|                    value: "CMClassImplementationName" 0x323-0x33b.7 (25)
0x330|65 6e 74 61 74 69 6f 6e 4e 61 6d 65            |entationName    |
0x750|                              2d               |          -     |                  key_index: 45 0x75a-0x75a.7 (1)
0x760|               67                              |     g          |                  value_index: 103 0x765-0x765.7 (1)
     |                                               |                |                  value{}: 0x770-0x78d.7 (30)
0x770|5f                                             |_               |                    type: "ascii_string" (5) (ASCII encoded string) 0x770-0x770.3 (0.4)
0x770|5f                                             |_               |                    size_bits: 15 0x770.4-0x770.7 (0.4)
0x770|   10                                          | .              |                    large_size_marker: 1 (valid) 0x771-0x771.3 (0.4)
0x770|   10                                          | .              |                    exponent: 0 0x771.4-0x771.7 (0.4)
0x770|      1b                                       |  .             |                    size_bigint: 27 0x772-0x772.7 (1)
     |                                               |                |                    size: 27
0x770|         41 70 70 6c 65 20 50 72 6f 52 65 73 20|   Apple ProRes |                    value: "Apple ProRes 422 LT Encoder" 0x773-0x78d.7 (27)
0x780|34 32 32 20 4c 54 20 45 6e 63 6f 64 65 72      |422 LT Encoder  |
     |                                               |                |                [1]{}: entry 0x33c-0x766.7 (1067)
     |                                               |                |                  key{}: 0x33c-0x34f.7 (20)
0x330|                                    5f         |            _   |                    type: "ascii_string" (5) (ASCII encoded string) 0x33c-0x33c.3 (0.4)
0x330|                                    5f         |            _   |                    size_bits: 15 0x33c.4-0x33c.7 (0.4)
0x330|                                       10      |             .  |                    large_size_marker: 1 (valid) 0x33d-0x33d.3 (0.4)
0x330|                                       10      |             .  |                    exponent: 0 0x33d.4-0x33d.7 (0.4)
0x330|                                          11   |              . |                    size_bigint: 17 0x33e-0x33e.7 (1)
     |                                               |                |                    size: 17
0x330|                                             43|               C|                    value: "CMFactoryFunction" 0x33f-0x34f.7 (17)
0x340|4d 46 61 63 74 6f 72 79 46 75 6e 63 74 69 6f 6e|MFactoryFunction|
     |                                               |                |                  value{}: 0x516-0x536.7 (33)
0x510|                  5f                           |      _         |                    type: "ascii_string" (5) (ASCII encoded string) 0x516-0x516.3 (0.4)
0x510|                  5f                           |      _         |                    size_bits: 15 0x516.4-0x516.7 (0.4)
0x510|                     10                        |       .        |                    large_size_marker: 1 (valid) 0x517-0x517.3 (0.4)
0x510|                     10                        |       .        |                    exponent: 0 0x517.4-0x517.7 (0.4)
0x510|                        1e                     |        .       |                    size_bigint: 30 0x518-0x518.7 (1)
     |                                               |                |                    size: 30
0x510|                           49 63 70 56 69 64 65|         IcpVide|                    value: "IcpVideoEncoder_CreateInstance" 0x519-0x536.7 (30)
0x520|6f 45 6e 63 6f 64 65 72 5f 43 72 65 61 74 65 49|oEncoder_CreateI|
0x530|6e 73 74 61 6e 63 65                           |nstance         |
0x750|                                 2e            |           .    |                  key_index: 46 0x75b-0x75b.7 (1)
0x760|                  4e                           |      N         |                  value_index: 78 0x766-0x766.7 (1)
     |                                               |                |                [2]{}: entry 0x350-0x767.7 (1048)
     |                                               |                |                  key{}: 0x350-0x35e.7 (15)
0x350|5e                                             |^               |                    type: "ascii_string" (5) (ASCII encoded string) 0x350-0x350.3 (0.4)
0x350|5e                                             |^               |                    size_bits: 14 0x350.4-0x350.7 (0.4)
     |                                               |                |                    size: 14
0x350|   43 4d 4d 61 6e 75 66 61 63 74 75 72 65 72   | CMManufacturer |                    value: "CMManufacturer" 0x351-0x35e.7 (14)
     |                                               |                |                  value{}: 0x411-0x416.7 (6)
0x410|   55                                          | U              |                    type: "ascii_string" (5) (ASCII encoded string) 0x411-0x411.3 (0.4)
0x410|   55                                          | U              |                    size_bits: 5 0x411.4-0x411.7 (0.4)
     |                                               |                |                    size: 5
0x410|      41 70 70 6c 65                           |  Apple         |                    value: "Apple" 0x412-0x416.7 (5)
0x750|                                    2f         |            /   |                  key_index: 47 0x75c-0x75c.7 (1)
0x760|                     38                        |       8        |                  value_index: 56 0x767-0x767.7 (1)
     |                                               |                |                [3]{}: entry 0x4dd-0x7a3.7 (711)
     |                                               |                |                  key{}: 0x4dd-0x4e8.7 (12)
0x4d0|                                       5b      |             [  |                    type: "ascii_string" (5) (ASCII encoded string) 0x4dd-0x4dd.3 (0.4)
0x4d0|                                       5b      |             [  |                    size_bits: 11 0x4dd.4-0x4dd.7 (0.4)
     |                                               |                |                    size: 11
0x4d0|                                          56 54|              VT|                    value: "VTCodecName" 0x4de-0x4e8.7 (11)
0x4e0|43 6f 64 65 63 4e 61 6d 65                     |CodecName       |
0x750|                                       4b      |             K  |                  key_index: 75 0x75d-0x75d.7 (1)
0x760|                        68                     |        h       |                  value_index: 104 0x768-0x768.7 (1)
     |                                               |                |                  value{}: 0x78e-0x7a3.7 (22)
0x780|                                          5f   |              _ |                    type: "ascii_string" (5) (ASCII encoded string) 0x78e-0x78e.3 (0.4)
0x780|                                          5f   |              _ |                    size_bits: 15 0x78e.4-0x78e.7 (0.4)
0x780|                                             10|               .|                    large_size_marker: 1 (valid) 0x78f-0x78f.3 (0.4)
0x780|                                             10|               .|                    exponent: 0 0x78f.4-0x78f.7 (0.4)
0x790|13                                             |.               |                    size_bigint: 19 0x790-0x790.7 (1)
     |                                               |                |                    size: 19
0x790|   41 70 70 6c 65 20 50 72 6f 52 65 73 20 34 32| Apple ProRes 42|                    value: "Apple ProRes 422 LT" 0x791-0x7a3.7 (19)
0x7a0|32 20 4c 54                                    |2 LT            |
     |                                               |                |                [4]{}: entry 0x37e-0x7df.7 (1122)
     |                                               |                |                  key{}: 0x37e-0x397.7 (26)
0x370|                                          5f   |              _ |                    type: "ascii_string" (5) (ASCII encoded string) 0x37e-0x37e.3 (0.4)
0x370|                                          5f   |              _ |                    size_bits: 15 0x37e.4-0x37e.7 (0.4)
0x370|                                             10|               .|                    large_size_marker: 1 (valid) 0x37f-0x37f.3 (0.4)
0x370|                                             10|               .|                    exponent: 0 0x37f.4-0x37f.7 (0.4)
0x380|17                                             |.               |                    size_bigint: 23 0x380-0x380.7 (1)
     |                                               |                |                    size: 23
0x380|   43 4d 43 6c 61 73 73 49 6d 70 6c 65 6d 65 6e| CMClassImplemen|                    value: "CMClassImplementationID" 0x381-0x397.7 (23)
0x390|74 61 74 69 6f 6e 49 44                        |tationID        |
0x750|                                          31   |              1 |                  key_index: 49 0x75e-0x75e.7 (1)
0x760|                           69                  |         i      |                  value_index: 105 0x769-0x769.7 (1)
     |                                               |                |                  value{}: 0x7a4-0x7df.7 (60)
0x7a0|            5f                                 |    _           |                    type: "ascii_string" (5) (ASCII encoded string) 0x7a4-0x7a4.3 (0.4)
0x7a0|            5f                                 |    _           |                    size_bits: 15 0x7a4.4-0x7a4.7 (0.4)
0x7a0|               10                              |     .          |                    large_size_marker: 1 (valid) 0x7a5-0x7a5.3 (0.4)
0x7a0|               10                              |     .          |                    exponent: 0 0x7a5.4-0x7a5.7 (0.4)
0x7a0|                  39                           |      9         |                    size_bigint: 57 0x7a6-0x7a6.7 (1)
     |                                               |                |                    size: 57
0x7a0|                     63 6f 6d 2e 61 70 70 6c 65|       com.apple|                    value: "com.apple.videotoolbox.videoencoder.prores-422l..." 0x7a7-0x7df.7 (57)
0x7b0|2e 76 69 64 65 6f 74 6f 6f 6c 62 6f 78 2e 76 69|.videotoolbox.vi|
*    |until 0x7df.7 (57)                             |                |
     |                                               |                |                [5]{}: entry 0x4e9-0x7a3.7 (699)
     |                                               |                |                  key{}: 0x4e9-0x4f6.7 (14)
0x4e0|                           5d                  |         ]      |                    type: "ascii_string" (5) (ASCII encoded string) 0x4e9-0x4e9.3 (0.4)
0x4e0|                           5d                  |         ]      |                    size_bits: 13 0x4e9.4-0x4e9.7 (0.4)
     |                                               |                |                    size: 13
0x4e0|                              56 54 45 6e 63 6f|          VTEnco|                    value: "VTEncoderName" 0x4ea-0x4f6.7 (13)
0x4f0|64 65 72 4e 61 6d 65                           |derName         |
0x750|                                             4c|               L|                  key_index: 76 0x75f-0x75f.7 (1)
0x760|                              68               |          h     |                  value_index: 104 0x76a-0x76a.7 (1)
     |                                               |                |                  value{}: 0x78e-0x7a3.7 (22)
0x780|                                          5f   |              _ |                    type: "ascii_string" (5) (ASCII encoded string) 0x78e-0x78e.3 (0.4)
0x780|                                          5f   |              _ |                    size_bits: 15 0x78e.4-0x78e.7 (0.4)
0x780|                                             10|               .|                    large_size_marker: 1 (valid) 0x78f-0x78f.3 (0.4)
0x780|                                             10|               .|                    exponent: 0 0x78f.4-0x78f.7 (0.4)
0x790|13                                             |.               |                    size_bigint: 19 0x790-0x790.7 (1)
     |                                               |                |                    size: 19
0x790|   41 70 70 6c 65 20 50 72 6f 52 65 73 20 34 32| Apple ProRes 42|                    value: "Apple ProRes 422 LT" 0x791-0x7a3.7 (19)
0x7a0|32 20 4c 54                                    |2 LT            |
     |                                               |                |                [6]{}: entry 0x398-0x7e2.7 (1099)
     |                                               |                |                  key{}: 0x398-0x3b3.7 (28)
0x390|                        5f                     |        _       |                    type: "ascii_string" (5) (ASCII encoded string) 0x398-0x398.3 (0.4)
0x390|                        5f                     |        _       |                    size_bits: 15 0x398.4-0x398.7 (0.4)
0x390|                           10                  |         .      |                    large_size_marker: 1 (valid) 0x399-0x399.3 (0.4)
0x390|                           10                  |         .      |                    exponent: 0 0x399.4-0x399.7 (0.4)
0x390|                              19               |          .     |                    size_bigint: 25 0x39a-0x39a.7 (1)
     |                                               |                |                    size: 25
0x390|                                 43 4d 45 78 65|           CMExe|                    value: "CMExecutableArchitectures" 0x39b-0x3b3.7 (25)
0x3a0|63 75 74 61 62 6c 65 41 72 63 68 69 74 65 63 74|cutableArchitect|
0x3b0|75 72 65 73                                    |ures            |
     |                                               |                |                  value{}: 0x452-0x7e2.7 (913)
     |                                               |                |                    entries[0:2]: 0x452-0x7e2.7 (913)
     |                                               |                |                      [0]{}: entry 0x452-0x7e1.7 (912)
0x450|      56                                       |  V             |                        type: "ascii_string" (5) (ASCII encoded string) 0x452-0x452.3 (0.4)
0x450|      56                                       |  V             |                        size_bits: 6 0x452.4-0x452.7 (0.4)
     |                                               |                |                        size: 6
0x450|         78 38 36 5f 36 34                     |   x86_64       |                        value: "x86_64" 0x453-0x458.7 (6)
0x7e0|   3c                                          | <              |                        object_index: 60 0x7e1-0x7e1.7 (1)
     |                                               |                |                      [1]{}: entry 0x459-0x7e2.7 (906)
0x450|                           55                  |         U      |                        type: "ascii_string" (5) (ASCII encoded string) 0x459-0x459.3 (0.4)
0x450|                           55                  |         U      |                        size_bits: 5 0x459.4-0x459.7 (0.4)
     |                                               |                |                        size: 5
0x450|                              61 72 6d 36 34   |          arm64 |                        value: "arm64" 0x45a-0x45e.7 (5)
0x7e0|      3d                                       |  =             |                        object_index: 61 0x7e2-0x7e2.7 (1)
0x7e0|a2                                             |.               |                    type: "array" (10) (Array) 0x7e0-0x7e0.3 (0.4)
0x7e0|a2                                             |.               |                    size_bits: 2 0x7e0.4-0x7e0.7 (0.4)
     |                                               |                |                    size: 2
0x760|32                                             |2               |                  key_index: 50 0x760-0x760.7 (1)
0x760|                                 6a            |           j    |                  value_index: 106 0x76b-0x76b.7 (1)
     |                                               |                |                [7]{}: entry 0x35f-0x76c.7 (1038)
     |                                               |                |                  key{}: 0x35f-0x37d.7 (31)
0x350|                                             5f|               _|                    type: "ascii_string" (5) (ASCII encoded string) 0x35f-0x35f.3 (0.4)
0x350|                                             5f|               _|                    size_bits: 15 0x35f.4-0x35f.7 (0.4)
0x360|10                                             |.               |                    large_size_marker: 1 (valid) 0x360-0x360.3 (0.4)
0x360|10                                             |.               |                    exponent: 0 0x360.4-0x360.7 (0.4)
0x360|   1c                                          | .              |                    size_bigint: 28 0x361-0x361.7 (1)
     |                                               |                |                    size: 28
0x360|      43 4d 43 6c 61 73 73 49 6d 70 6c 65 6d 65|  CMClassImpleme|                    value: "CMClassImplementationVersion" 0x362-0x37d.7 (28)
0x370|6e 74 61 74 69 6f 6e 56 65 72 73 69 6f 6e      |ntationVersion  |
     |                                               |                |                  value{}: 0x417-0x418.7 (2)
0x410|                     10                        |       .        |                    type: "int" (1) (Integer) 0x417-0x417.3 (0.4)
0x410|                     10                        |       .        |                    size: 1 0x417.4-0x417.7 (0.4)
0x410|                        01                     |        .       |                    value: 1 0x418-0x418.7 (1)
0x760|   30                                          | 0              |                  key_index: 48 0x761-0x761.7 (1)
0x760|                                    39         |            9   |                  value_index: 57 0x76c-0x76c.7 (1)
     |                                               |                |                [8]{}: entry 0x223-0x76d.7 (1355)
     |                                               |                |                  value{}: 0x223-0x25c.7 (58)
0x220|         5f                                    |   _            |                    type: "ascii_string" (5) (ASCII encoded string) 0x223-0x223.3 (0.4)
0x220|         5f                                    |   _            |                    size_bits: 15 0x223.4-0x223.7 (0.4)
0x220|            10                                 |    .           |                    large_size_marker: 1 (valid) 0x224-0x224.3 (0.4)
0x220|            10                                 |    .           |                    exponent: 0 0x224.4-0x224.7 (0.4)
0x220|               37                              |     7          |                    size_bigint: 55 0x225-0x225.7 (1)
     |                                               |                |                    size: 55
0x220|                  43 6f 70 79 72 69 67 68 74 20|      Copyright |                    value: "Copyright (c) 2011-2021 Apple Inc. All rights r..." 0x226-0x25c.7 (55)
0x230|28 63 29 20 32 30 31 31 2d 32 30 32 31 20 41 70|(c) 2011-2021 Ap|
*    |until 0x25c.7 (55)                             |                |
     |                                               |                |                  key{}: 0x3b4-0x3bf.7 (12)
0x3b0|            5b                                 |    [           |                    type: "ascii_string" (5) (ASCII encoded string) 0x3b4-0x3b4.3 (0.4)
0x3b0|            5b                                 |    [           |                    size_bits: 11 0x3b4.4-0x3b4.7 (0.4)
     |                                               |                |                    size: 11
0x3b0|               43 4d 43 6f 70 79 72 69 67 68 74|     CMCopyright|                    value: "CMCopyright" 0x3b5-0x3bf.7 (11)
0x760|      33                                       |  3             |                  key_index: 51 0x762-0x762.7 (1)
0x760|                                       1a      |             .  |                  value_index: 26 0x76d-0x76d.7 (1)
     |                                               |                |                [9]{}: entry 0x3c0-0x7e7.7 (1064)
     |                                               |                |                  key{}: 0x3c0-0x3ce.7 (15)
0x3c0|5e                                             |^               |                    type: "ascii_string" (5) (ASCII encoded string) 0x3c0-0x3c0.3 (0.4)
0x3c0|5e                                             |^               |                    size_bits: 14 0x3c0.4-0x3c0.7 (0.4)
     |                                               |                |                    size: 14
0x3c0|   43 4d 4d 61 74 63 68 69 6e 67 49 6e 66 6f   | CMMatchingInfo |                    value: "CMMatchingInfo" 0x3c1-0x3ce.7 (14)
     |                                               |                |                  value{}: 0x464-0x7e7.7 (900)
     |                                               |                |                    entries[0:2]: 0x464-0x7e7.7 (900)
     |                                               |                |                      [0]{}: entry 0x464-0x7e6.7 (899)
     |                                               |                |                        key{}: 0x464-0x46f.7 (12)
0x460|            5b                                 |    [           |                          type: "ascii_string" (5) (ASCII encoded string) 0x464-0x464.3 (0.4)
0x460|            5b                                 |    [           |                          size_bits: 11 0x464.4-0x464.7 (0.4)
     |                                               |                |                          size: 11
0x460|               56 54 43 6f 64 65 63 54 79 70 65|     VTCodecType|                          value: "VTCodecType" 0x465-0x46f.7 (11)
     |                                               |                |                        value{}: 0x494-0x498.7 (5)
0x490|            54                                 |    T           |                          type: "ascii_string" (5) (ASCII encoded string) 0x494-0x494.3 (0.4)
0x490|            54                                 |    T           |                          size_bits: 4 0x494.4-0x494.7 (0.4)
     |                                               |                |                          size: 4
0x490|               61 70 63 73                     |     apcs       |                          value: "apcs" 0x495-0x498.7 (4)
0x7e0|            3f                                 |    ?           |                        key_index: 63 0x7e4-0x7e4.7 (1)
0x7e0|                  46                           |      F         |                        value_index: 70 0x7e6-0x7e6.7 (1)
     |                                               |                |                      [1]{}: entry 0x470-0x7e7.7 (888)
     |                                               |                |                        key{}: 0x470-0x478.7 (9)
0x470|58                                             |X               |                          type: "ascii_string" (5) (ASCII encoded string) 0x470-0x470.3 (0.4)
0x470|58                                             |X               |                          size_bits: 8 0x470.4-0x470.7 (0.4)
     |                                               |                |                          size: 8
0x470|   56 54 52 61 74 69 6e 67                     | VTRating       |                          value: "VTRating" 0x471-0x478.7 (8)
     |                                               |                |                        value{}: 0x49e-0x49f.7 (2)
0x490|                                          10   |              . |                          type: "int" (1) (Integer) 0x49e-0x49e.3 (0.4)
0x490|                                          10   |              . |                          size: 1 0x49e.4-0x49e.7 (0.4)
0x490|                                             64|               d|                          value: 100 0x49f-0x49f.7 (1)
0x7e0|               40                              |     @          |                        key_index: 64 0x7e5-0x7e5.7 (1)
0x7e0|                     48                        |       H        |                        value_index: 72 0x7e7-0x7e7.7 (1)
0x7e0|         d2                                    |   .            |                    type: "dict" (13) (Dictionary) 0x7e3-0x7e3.3 (0.4)
0x7e0|         d2                                    |   .            |                    size_bits: 2 0x7e3.4-0x7e3.7 (0.4)
     |                                               |                |                    size: 2
0x760|         34                                    |   4            |                  key_index: 52 0x763-0x763.7 (1)
0x760|                                          6b   |              k |                  value_index: 107 0x76e-0x76e.7 (1)
     |                                               |                |                [10]{}: entry 0x3cf-0x76f.7 (929)
     |                                               |                |                  key{}: 0x3cf-0x3d8.7 (10)
0x3c0|                                             59|               Y|                    type: "ascii_string" (5) (ASCII encoded string) 0x3cf-0x3cf.3 (0.4)
0x3c0|                                             59|               Y|                    size_bits: 9 0x3cf.4-0x3cf.7 (0.4)
     |                                               |                |                    size: 9
0x3d0|43 4d 43 6c 61 73 73 49 44                     |CMClassID       |                    value: "CMClassID" 0x3d0-0x3d8.7 (9)
     |                                               |                |                  value{}: 0x593-0x5b8.7 (38)
0x590|         5f                                    |   _            |                    type: "ascii_string" (5) (ASCII encoded string) 0x593-0x593.3 (0.4)
0x590|         5f                                    |   _            |                    size_bits: 15 0x593.4-0x593.7 (0.4)
0x590|            10                                 |    .           |                    large_size_marker: 1 (valid) 0x594-0x594.3 (0.4)
0x590|            10                                 |    .           |                    exponent: 0 0x594.4-0x594.7 (0.4)
0x590|               23                              |     #          |                    size_bigint: 35 0x595-0x595.7 (1)
     |                                               |                |                    size: 35
0x590|                  63 6f 6d 2e 61 70 70 6c 65 2e|      com.apple.|                    value: "com.apple.videotoolbox.videoencoder" 0x596-0x5b8.7 (35)
0x5a0|76 69 64 65 6f 74 6f 6f 6c 62 6f 78 2e 76 69 64|videotoolbox.vid|
0x5b0|65 6f 65 6e 63 6f 64 65 72                     |eoencoder       |
0x760|            35                                 |    5           |                  key_index: 53 0x764-0x764.7 (1)
0x760|                                             53|               S|                  value_index: 83 0x76f-0x76f.7 (1)
0x300|                                 66            |           f    |              object_index: 102 0x30b-0x30b.7 (1)
0x750|                           db                  |         .      |              type: "dict" (13) (Dictionary) 0x759-0x759.3 (0.4)
0x750|                           db                  |         .      |              size_bits: 11 0x759.4-0x759.7 (0.4)
     |                                               |                |              size: 11
     |                                               |                |            [6]{}: entry 0x223-0x87f.7 (1629)
     |                                               |                |              entries[0:11]: 0x223-0x87f.7 (1629)
     |                                               |                |                [0]{}: entry 0x320-0x81f.7 (1280)
     |                                               |                |                  key{}: 0x320-0x33b.7 (28)
0x320|5f                                             |_               |                    type: "ascii_string" (5) (ASCII encoded string) 0x320-0x320.3 (0.4)
0x320|5f                                             |_               |                    size_bits: 15 0x320.4-0x320.7 (0.4)
0x320|   10                                          | .              |                    large_size_marker: 1 (valid) 0x321-0x321.3 (0.4)
0x320|   10                                          | .              |                    exponent: 0 0x321.4-0x321.7 (0.4)
0x320|      19                                       |  .             |                    size_bigint: 25 0x322-0x322.7 (1)
     |                                               |                |                    size: 25
0x320|         43 4d 43 6c 61 73 73 49 6d 70 6c 65 6d|   CMClassImplem|                    value: "CMClassImplementationName" 0x323-0x33b.7 (25)
0x330|65 6e 74 61 74 69 6f 6e 4e 61 6d 65            |entationName    |
0x7e0|                           2d                  |         -      |                  key_index: 45 0x7e9-0x7e9.7 (1)
0x7f0|            6d                                 |    m           |                  value_index: 109 0x7f4-0x7f4.7 (1)
     |                                               |                |                  value{}: 0x7ff-0x81f.7 (33)
0x7f0|                                             5f|               _|                    type: "ascii_string" (5) (ASCII encoded string) 0x7ff-0x7ff.3 (0.4)
0x7f0|                                             5f|               _|                    size_bits: 15 0x7ff.4-0x7ff.7 (0.4)
0x800|10                                             |.               |                    large_size_marker: 1 (valid) 0x800-0x800.3 (0.4)
0x800|10                                             |.               |                    exponent: 0 0x800.4-0x800.7 (0.4)
0x800|   1e                                          | .              |                    size_bigint: 30 0x801-0x801.7 (1)
     |                                               |                |                    size: 30
0x800|      41 70 70 6c 65 20 50 72 6f 52 65 73 20 34|  Apple ProRes 4|                    value: "Apple ProRes 422 Proxy Encoder" 0x802-0x81f.7 (30)
0x810|32 32 20 50 72 6f 78 79 20 45 6e 63 6f 64 65 72|22 Proxy Encoder|
     |                                               |                |                [1]{}: entry 0x33c-0x7f5.7 (1210)
     |                                               |                |                  key{}: 0x33c-0x34f.7 (20)
0x330|                                    5f         |            _   |                    type: "ascii_string" (5) (ASCII encoded string) 0x33c-0x33c.3 (0.4)
0x330|                                    5f         |            _   |                    size_bits: 15 0x33c.4-0x33c.7 (0.4)
0x330|                                       10      |             .  |                    large_size_marker: 1 (valid) 0x33d-0x33d.3 (0.4)
0x330|                                       10      |             .  |                    exponent: 0 0x33d.4-0x33d.7 (0.4)
0x330|                                          11   |              . |                    size_bigint: 17 0x33e-0x33e.7 (1)
     |                                               |                |                    size: 17
0x330|                                             43|               C|                    value: "CMFactoryFunction" 0x33f-0x34f.7 (17)
0x340|4d 46 61 63 74 6f 72 79 46 75 6e 63 74 69 6f 6e|MFactoryFunction|
     |                                               |                |                  value{}: 0x516-0x536.7 (33)
0x510|                  5f                           |      _         |                    type: "ascii_string" (5) (ASCII encoded string) 0x516-0x516.3 (0.4)
0x510|                  5f                           |      _         |                    size_bits: 15 0x516.4-0x516.7 (0.4)
0x510|                     10                        |       .        |                    large_size_marker: 1 (valid) 0x517-0x517.3 (0.4)
0x510|                     10                        |       .        |                    exponent: 0 0x517.4-0x517.7 (0.4)
0x510|                        1e                     |        .       |                    size_bigint: 30 0x518-0x518.7 (1)
     |                                               |                |                    size: 30
0x510|                           49 63 70 56 69 64 65|         IcpVide|                    value: "IcpVideoEncoder_CreateInstance" 0x519-0x536.7 (30)
0x520|6f 45 6e 63 6f 64 65 72 5f 43 72 65 61 74 65 49|oEncoder_CreateI|
0x530|6e 73 74 61 6e 63 65                           |nstance         |
0x7e0|                              2e               |          .     |                  key_index: 46 0x7ea-0x7ea.7 (1)
0x7f0|               4e                              |     N          |                  value_index: 78 0x7f5-0x7f5.7 (1)
     |                                               |                |                [2]{}: entry 0x350-0x7f6.7 (1191)
     |                                               |                |                  key{}: 0x350-0x35e.7 (15)
0x350|5e                                             |^               |                    type: "ascii_string" (5) (ASCII encoded string) 0x350-0x350.3 (0.4)
0x350|5e                                             |^               |                    size_bits: 14 0x350.4-0x350.7 (0.4)
     |                                               |                |                    size: 14
0x350|   43 4d 4d 61 6e 75 66 61 63 74 75 72 65 72   | CMManufacturer |                    value: "CMManufacturer" 0x351-0x35e.7 (14)
     |                                               |                |                  value{}: 0x411-0x416.7 (6)
0x410|   55                                          | U              |                    type: "ascii_string" (5) (ASCII encoded string) 0x411-0x411.3 (0.4)
0x410|   55                                          | U              |                    size_bits: 5 0x411.4-0x411.7 (0.4)
     |                                               |                |                    size: 5
0x410|      41 70 70 6c 65                           |  Apple         |                    value: "Apple" 0x412-0x416.7 (5)
0x7e0|                                 2f            |           /    |                  key_index: 47 0x7eb-0x7eb.7 (1)
0x7f0|                  38                           |      8         |                  value_index: 56 0x7f6-0x7f6.7 (1)
     |                                               |                |                [3]{}: entry 0x4dd-0x838.7 (860)
     |                                               |                |                  key{}: 0x4dd-0x4e8.7 (12)
0x4d0|                                       5b      |             [  |                    type: "ascii_string" (5) (ASCII encoded string) 0x4dd-0x4dd.3 (0.4)
0x4d0|                                       5b      |             [  |                    size_bits: 11 0x4dd.4-0x4dd.7 (0.4)
     |                                               |                |                    size: 11
0x4d0|                                          56 54|              VT|                    value: "VTCodecName" 0x4de-0x4e8.7 (11)
0x4e0|43 6f 64 65 63 4e 61 6d 65                     |CodecName       |
0x7e0|                                    4b         |            K   |                  key_index: 75 0x7ec-0x7ec.7 (1)
0x7f0|                     6e                        |       n        |                  value_index: 110 0x7f7-0x7f7.7 (1)
     |                                               |                |                  value{}: 0x820-0x838.7 (25)
0x820|5f                                             |_               |                    type: "ascii_string" (5) (ASCII encoded string) 0x820-0x820.3 (0.4)
0x820|5f                                             |_               |                    size_bits: 15 0x820.4-0x820.7 (0.4)
0x820|   10                                          | .              |                    large_size_marker: 1 (valid) 0x821-0x821.3 (0.4)
0x820|   10                                          | .              |                    exponent: 0 0x821.4-0x821.7 (0.4)
0x820|      16                                       |  .             |                    size_bigint: 22 0x822-0x822.7 (1)
     |                                               |                |                    size: 22
0x820|         41 70 70 6c 65 20 50 72 6f 52 65 73 20|   Apple ProRes |                    value: "Apple ProRes 422 Proxy" 0x823-0x838.7 (22)
0x830|34 32 32 20 50 72 6f 78 79                     |422 Proxy       |
     |                                               |                |                [4]{}: entry 0x37e-0x877.7 (1274)
     |                                               |                |                  key{}: 0x37e-0x397.7 (26)
0x370|                                          5f   |              _ |                    type: "ascii_string" (5) (ASCII encoded string) 0x37e-0x37e.3 (0.4)
0x370|                                          5f   |              _ |                    size_bits: 15 0x37e.4-0x37e.7 (0.4)
0x370|                                             10|               .|                    large_size_marker: 1 (valid) 0x37f-0x37f.3 (0.4)
0x370|                                             10|               .|                    exponent: 0 0x37f.4-0x37f.7 (0.4)
0x380|17                                             |.               |                    size_bigint: 23 0x380-0x380.7 (1)
     |                                               |                |                    size: 23
0x380|   43 4d 43 6c 61 73 73 49 6d 70 6c 65 6d 65 6e| CMClassImplemen|                    value: "CMClassImplementationID" 0x381-0x397.7 (23)
0x390|74 61 74 69 6f 6e 49 44                        |tationID        |
0x7e0|                                       31      |             1  |                  key_index: 49 0x7ed-0x7ed.7 (1)
0x7f0|                        6f                     |        o       |                  value_index: 111 0x7f8-0x7f8.7 (1)
     |                                               |                |                  value{}: 0x839-0x877.7 (63)
0x830|                           5f                  |         _      |                    type: "ascii_string" (5) (ASCII encoded string) 0x839-0x839.3 (0.4)
0x830|                           5f                  |         _      |                    size_bits: 15 0x839.4-0x839.7 (0.4)
0x830|                              10               |          .     |                    large_size_marker: 1 (valid) 0x83a-0x83a.3 (0.4)
0x830|                              10               |          .     |                    exponent: 0 0x83a.4-0x83a.7 (0.4)
0x830|                                 3c            |           <    |                    size_bigint: 60 0x83b-0x83b.7 (1)
     |                                               |                |                    size: 60
0x830|                                    63 6f 6d 2e|            com.|                    value: "com.apple.videotoolbox.videoencoder.prores-422p..." 0x83c-0x877.7 (60)
0x840|61 70 70 6c 65 2e 76 69 64 65 6f 74 6f 6f 6c 62|apple.videotoolb|
*    |until 0x877.7 (60)                             |                |
     |                                               |                |                [5]{}: entry 0x4e9-0x838.7 (848)
     |                                               |                |                  key{}: 0x4e9-0x4f6.7 (14)
0x4e0|                           5d                  |         ]      |                    type: "ascii_string" (5) (ASCII encoded string) 0x4e9-0x4e9.3 (0.4)
0x4e0|                           5d                  |         ]      |                    size_bits: 13 0x4e9.4-0x4e9.7 (0.4)
     |                                               |                |                    size: 13
0x4e0|                              56 54 45 6e 63 6f|          VTEnco|                    value: "VTEncoderName" 0x4ea-0x4f6.7 (13)
0x4f0|64 65 72 4e 61 6d 65                           |derName         |
0x7e0|                                          4c   |              L |                  key_index: 76 0x7ee-0x7ee.7 (1)
0x7f0|                           6e                  |         n      |                  value_index: 110 0x7f9-0x7f9.7 (1)
     |                                               |                |                  value{}: 0x820-0x838.7 (25)
0x820|5f                                             |_               |                    type: "ascii_string" (5) (ASCII encoded string) 0x820-0x820.3 (0.4)
0x820|5f                                             |_               |                    size_bits: 15 0x820.4-0x820.7 (0.4)
0x820|   10                                          | .              |                    large_size_marker: 1 (valid) 0x821-0x821.3 (0.4)
0x820|   10                                          | .              |                    exponent: 0 0x821.4-0x821.7 (0.4)
0x820|      16                                       |  .             |                    size_bigint: 22 0x822-0x822.7 (1)
     |                                               |                |                    size: 22
0x820|         41 70 70 6c 65 20 50 72 6f 52 65 73 20|   Apple ProRes |                    value: "Apple ProRes 422 Proxy" 0x823-0x838.7 (22)
0x830|34 32 32 20 50 72 6f 78 79                     |422 Proxy       |
     |                                               |                |                [6]{}: entry 0x398-0x87a.7 (1251)
     |                                               |                |                  key{}: 0x398-0x3b3.7 (28)
0x390|                        5f                     |        _       |                    type: "ascii_string" (5) (ASCII encoded string) 0x398-0x398.3 (0.4)
0x390|                        5f                     |        _       |                    size_bits: 15 0x398.4-0x398.7 (0.4)
0x390|                           10                  |         .      |                    large_size_marker: 1 (valid) 0x399-0x399.3 (0.4)
0x390|                           10                  |         .      |                    exponent: 0 0x399.4-0x399.7 (0.4)
0x390|                              19               |          .     |                    size_bigint: 25 0x39a-0x39a.7 (1)
     |                                               |                |                    size: 25
0x390|                                 43 4d 45 78 65|           CMExe|                    value: "CMExecutableArchitectures" 0x39b-0x3b3.7 (25)
0x3a0|63 75 74 61 62 6c 65 41 72 63 68 69 74 65 63 74|cutableArchitect|
0x3b0|75 72 65 73                                    |ures            |
     |                                               |                |                  value{}: 0x452-0x87a.7 (1065)
     |                                               |                |                    entries[0:2]: 0x452-0x87a.7 (1065)
     |                                               |                |                      [0]{}: entry 0x452-0x879.7 (1064)
0x450|      56                                       |  V             |                        type: "ascii_string" (5) (ASCII encoded string) 0x452-0x452.3 (0.4)
0x450|      56                                       |  V             |                        size_bits: 6 0x452.4-0x452.7 (0.4)
     |                                               |                |                        size: 6
0x450|         78 38 36 5f 36 34                     |   x86_64       |                        value: "x86_64" 0x453-0x458.7 (6)
0x870|                           3c                  |         <      |                        object_index: 60 0x879-0x879.7 (1)
     |                                               |                |                      [1]{}: entry 0x459-0x87a.7 (1058)
0x450|                           55                  |         U      |                        type: "ascii_string" (5) (ASCII encoded string) 0x459-0x459.3 (0.4)
0x450|                           55                  |         U      |                        size_bits: 5 0x459.4-0x459.7 (0.4)
     |                                               |                |                        size: 5
0x450|                              61 72 6d 36 34   |          arm64 |                        value: "arm64" 0x45a-0x45e.7 (5)
0x870|                              3d               |          =     |                        object_index: 61 0x87a-0x87a.7 (1)
0x870|                        a2                     |        .       |                    type: "array" (10) (Array) 0x878-0x878.3 (0.4)
0x870|                        a2                     |        .       |                    size_bits: 2 0x878.4-0x878.7 (0.4)
     |                                               |                |                    size: 2
0x7e0|                                             32|               2|                  key_index: 50 0x7ef-0x7ef.7 (1)
0x7f0|                              70               |          p     |                  value_index: 112 0x7fa-0x7fa.7 (1)
     |                                               |                |                [7]{}: entry 0x35f-0x7fb.7 (1181)
     |                                               |                |                  key{}: 0x35f-0x37d.7 (31)
0x350|                                             5f|               _|                    type: "ascii_string" (5) (ASCII encoded string) 0x35f-0x35f.3 (0.4)
0x350|                                             5f|               _|                    size_bits: 15 0x35f.4-0x35f.7 (0.4)
0x360|10                                             |.               |                    large_size_marker: 1 (valid) 0x360-0x360.3 (0.4)
0x360|10                                             |.               |                    exponent: 0 0x360.4-0x360.7 (0.4)
0x360|   1c                                          | .              |                    size_bigint: 28 0x361-0x361.7 (1)
     |                                               |                |                    size: 28
0x360|      43 4d 43 6c 61 73 73 49 6d 70 6c 65 6d 65|  CMClassImpleme|                    value: "CMClassImplementationVersion" 0x362-0x37d.7 (28)
0x370|6e 74 61 74 69 6f 6e 56 65 72 73 69 6f 6e      |ntationVersion  |
     |                                               |                |                  value{}: 0x417-0x418.7 (2)
0x410|                     10                        |       .        |                    type: "int" (1) (Integer) 0x417-0x417.3 (0.4)
0x410|                     10                        |       .        |                    size: 1 0x417.4-0x417.7 (0.4)
0x410|                        01                     |        .       |                    value: 1 0x418-0x418.7 (1)
0x7f0|30                                             |0               |                  key_index: 48 0x7f0-0x7f0.7 (1)
0x7f0|                                 39            |           9    |                  value_index: 57 0x7fb-0x7fb.7 (1)
     |                                               |                |                [8]{}: entry 0x223-0x7fc.7 (1498)
     |                                               |                |                  value{}: 0x223-0x25c.7 (58)
0x220|         5f                                    |   _            |                    type: "ascii_string" (5) (ASCII encoded string) 0x223-0x223.3 (0.4)
0x220|         5f                                    |   _            |                    size_bits: 15 0x223.4-0x223.7 (0.4)
0x220|            10                                 |    .           |                    large_size_marker: 1 (valid) 0x224-0x224.3 (0.4)
0x220|            10                                 |    .           |                    exponent: 0 0x224.4-0x224.7 (0.4)
0x220|               37                              |     7          |                    size_bigint: 55 0x225-0x225.7 (1)
     |                                               |                |                    size: 55
0x220|                  43 6f 70 79 72 69 67 68 74 20|      Copyright |                    value: "Copyright (c) 2011-2021 Apple Inc. All rights r..." 0x226-0x25c.7 (55)
0x230|28 63 29 20 32 30 31 31 2d 32 30 32 31 20 41 70|(c) 2011-2021 Ap|
*    |until 0x25c.7 (55)                             |                |
     |                                               |                |                  key{}: 0x3b4-0x3bf.7 (12)
0x3b0|            5b                                 |    [           |                    type: "ascii_string" (5) (ASCII encoded string) 0x3b4-0x3b4.3 (0.4)
0x3b0|            5b                                 |    [           |                    size_bits: 11 0x3b4.4-0x3b4.7 (0.4)
     |                                               |                |                    size: 11
0x3b0|               43 4d 43 6f 70 79 72 69 67 68 74|     CMCopyright|                    value: "CMCopyright" 0x3b5-0x3bf.7 (11)
0x7f0|   33                                          | 3              |                  key_index: 51 0x7f1-0x7f1.7 (1)
0x7f0|                                    1a         |            .   |                  value_index: 26 0x7fc-0x7fc.7 (1)
     |                                               |                |                [9]{}: entry 0x3c0-0x87f.7 (1216)
     |                                               |                |                  key{}: 0x3c0-0x3ce.7 (15)
0x3c0|5e                                             |^               |                    type: "ascii_string" (5) (ASCII encoded string) 0x3c0-0x3c0.3 (0.4)
0x3c0|5e                                             |^               |                    size_bits: 14 0x3c0.4-0x3c0.7 (0.4)
     |                                               |                |                    size: 14
0x3c0|   43 4d 4d 61 74 63 68 69 6e 67 49 6e 66 6f   | CMMatchingInfo |                    value: "CMMatchingInfo" 0x3c1-0x3ce.7 (14)
     |                                               |                |                  value{}: 0x464-0x87f.7 (1052)
     |                                               |                |                    entries[0:2]: 0x464-0x87f.7 (1052)
     |                                               |                |                      [0]{}: entry 0x464-0x87e.7 (1051)
     |                                               |                |                        key{}: 0x464-0x46f.7 (12)
0x460|            5b                                 |    [           |                          type: "ascii_string" (5) (ASCII encoded string) 0x464-0x464.3 (0.4)
0x460|            5b                                 |    [           |                          size_bits: 11 0x464.4-0x464.7 (0.4)
     |                                               |                |                          size: 11
0x460|               56 54 43 6f 64 65 63 54 79 70 65|     VTCodecType|                          value: "VTCodecType" 0x465-0x46f.7 (11)
     |                                               |                |                        value{}: 0x499-0x49d.7 (5)
0x490|                           54                  |         T      |                          type: "ascii_string" (5) (ASCII encoded string) 0x499-0x499.3 (0.4)
0x490|                           54                  |         T      |                          size_bits: 4 0x499.4-0x499.7 (0.4)
     |                                               |                |                          size: 4
0x490|                              61 70 63 6f      |          apco  |                          value: "apco" 0x49a-0x49d.7 (4)
0x870|                                    3f         |            ?   |                        key_index: 63 0x87c-0x87c.7 (1)
0x870|                                          47   |              G |                        value_index: 71 0x87e-0x87e.7 (1)
     |                                               |                |                      [1]{}: entry 0x470-0x87f.7 (1040)
     |                                               |                |                        key{}: 0x470-0x478.7 (9)
0x470|58                                             |X               |                          type: "ascii_string" (5) (ASCII encoded string) 0x470-0x470.3 (0.4)
0x470|58                                             |X               |                          size_bits: 8 0x470.4-0x470.7 (0.4)
     |                                               |                |                          size: 8
0x470|   56 54 52 61 74 69 6e 67                     | VTRating       |                          value: "VTRating" 0x471-0x478.7 (8)
     |                                               |                |                        value{}: 0x49e-0x49f.7 (2)
0x490|                                          10   |              . |                          type: "int" (1) (Integer) 0x49e-0x49e.3 (0.4)
0x490|                                          10   |              . |                          size: 1 0x49e.4-0x49e.7 (0.4)
0x490|                                             64|               d|                          value: 100 0x49f-0x49f.7 (1)
0x870|                                       40      |             @  |                        key_index: 64 0x87d-0x87d.7 (1)
0x870|                                             48|               H|                        value_index: 72 0x87f-0x87f.7 (1)
0x870|                                 d2            |           .    |                    type: "dict" (13) (Dictionary) 0x87b-0x87b.3 (0.4)
0x870|                                 d2            |           .    |                    size_bits: 2 0x87b.4-0x87b.7 (0.4)
     |                                               |                |                    size: 2
0x7f0|      34                                       |  4             |                  key_index: 52 0x7f2-0x7f2.7 (1)
0x7f0|                                       71      |             q  |                  value_index: 113 0x7fd-0x7fd.7 (1)
     |                                               |                |                [10]{}: entry 0x3cf-0x7fe.7 (1072)
     |                                               |                |                  key{}: 0x3cf-0x3d8.7 (10)
0x3c0|                                             59|               Y|                    type: "ascii_string" (5) (ASCII encoded string) 0x3cf-0x3cf.3 (0.4)
0x3c0|                                             59|               Y|                    size_bits: 9 0x3cf.4-0x3cf.7 (0.4)
     |                                               |                |                    size: 9
0x3d0|43 4d 43 6c 61 73 73 49 44                     |CMClassID       |                    value: "CMClassID" 0x3d0-0x3d8.7 (9)
     |                                               |                |                  value{}: 0x593-0x5b8.7 (38)
0x590|         5f                                    |   _            |                    type: "ascii_string" (5) (ASCII encoded string) 0x593-0x593.3 (0.4)
0x590|         5f                                    |   _            |                    size_bits: 15 0x593.4-0x593.7 (0.4)
0x590|            10                                 |    .           |                    large_size_marker: 1 (valid) 0x594-0x594.3 (0.4)
0x590|            10                                 |    .           |                    exponent: 0 0x594.4-0x594.7 (0.4)
0x590|               23                              |     #          |                    size_bigint: 35 0x595-0x595.7 (1)
     |                                               |                |                    size: 35
0x590|                  63 6f 6d 2e 61 70 70 6c 65 2e|      com.apple.|                    value: "com.apple.videotoolbox.videoencoder" 0x596-0x5b8.7 (35)
0x5a0|76 69 64 65 6f 74 6f 6f 6c 62 6f 78 2e 76 69 64|videotoolbox.vid|
0x5b0|65 6f 65 6e 63 6f 64 65 72                     |eoencoder       |
0x7f0|         35                                    |   5            |                  key_index: 53 0x7f3-0x7f3.7 (1)
0x7f0|                                          53   |              S |                  value_index: 83 0x7fe-0x7fe.7 (1)
0x300|                                    6c         |            l   |              object_index: 108 0x30c-0x30c.7 (1)
0x7e0|                        db                     |        .       |              type: "dict" (13) (Dictionary) 0x7e8-0x7e8.3 (0.4)
0x7e0|                        db                     |        .       |              size_bits: 11 0x7e8.4-0x7e8.7 (0.4)
     |                                               |                |              size: 11
0x300|               a7                              |     .          |          type: "array" (10) (Array) 0x305-0x305.3 (0.4)
0x300|               a7                              |     .          |          size_bits: 7 0x305.4-0x305.7 (0.4)
     |                                               |                |          size: 7
     |                                               |                |  offset_table[0:114]: 0x880-0x963.7 (228)
0x880|00 08                                          |..              |    [0]: 8 element 0x880-0x881.7 (2)
0x880|      00 37                                    |  .7            |    [1]: 55 element 0x882-0x883.7 (2)
0x880|            00 44                              |    .D          |    [2]: 68 element 0x884-0x885.7 (2)
0x880|                  00 4c                        |      .L        |    [3]: 76 element 0x886-0x887.7 (2)
0x880|                        00 56                  |        .V      |    [4]: 86 element 0x888-0x889.7 (2)
0x880|                              00 71            |          .q    |    [5]: 113 element 0x88a-0x88b.7 (2)
0x880|                                    00 7c      |            .|  |    [6]: 124 element 0x88c-0x88d.7 (2)
0x880|                                          00 98|              ..|    [7]: 152 element 0x88e-0x88f.7 (2)
0x890|00 aa                                          |..              |    [8]: 170 element 0x890-0x891.7 (2)
0x890|      00 c0                                    |  ..            |    [9]: 192 element 0x892-0x893.7 (2)
0x890|            00 cf                              |    ..          |    [10]: 207 element 0x894-0x895.7 (2)
0x890|                  00 e5                        |      ..        |    [11]: 229 element 0x896-0x897.7 (2)
0x890|                        01 02                  |        ..      |    [12]: 258 element 0x898-0x899.7 (2)
0x890|                              01 1f            |          ..    |    [13]: 287 element 0x89a-0x89b.7 (2)
0x890|                                    01 3f      |            .?  |    [14]: 319 element 0x89c-0x89d.7 (2)
0x890|                                          01 54|              .T|    [15]: 340 element 0x89e-0x89f.7 (2)
0x8a0|01 5f                                          |._              |    [16]: 351 element 0x8a0-0x8a1.7 (2)
0x8a0|      01 74                                    |  .t            |    [17]: 372 element 0x8a2-0x8a3.7 (2)
0x8a0|            01 88                              |    ..          |    [18]: 392 element 0x8a4-0x8a5.7 (2)
0x8a0|                  01 95                        |      ..        |    [19]: 405 element 0x8a6-0x8a7.7 (2)
0x8a0|                        01 a9                  |        ..      |    [20]: 425 element 0x8a8-0x8a9.7 (2)
0x8a0|                              01 c2            |          ..    |    [21]: 450 element 0x8aa-0x8ab.7 (2)
0x8a0|                                    01 d4      |            ..  |    [22]: 468 element 0x8ac-0x8ad.7 (2)
0x8a0|                                          01 ed|              ..|    [23]: 493 element 0x8ae-0x8af.7 (2)
0x8b0|02 08                                          |..              |    [24]: 520 element 0x8b0-0x8b1.7 (2)
0x8b0|      02 0d                                    |  ..            |    [25]: 525 element 0x8b2-0x8b3.7 (2)
0x8b0|            02 23                              |    .#          |    [26]: 547 element 0x8b4-0x8b5.7 (2)
0x8b0|                  02 5d                        |      .]        |    [27]: 605 element 0x8b6-0x8b7.7 (2)
0x8b0|                        02 64                  |        .d      |    [28]: 612 element 0x8b8-0x8b9.7 (2)
0x8b0|                              02 6c            |          .l    |    [29]: 620 element 0x8ba-0x8bb.7 (2)
0x8b0|                                    02 72      |            .r  |    [30]: 626 element 0x8bc-0x8bd.7 (2)
0x8b0|                                          02 7b|              .{|    [31]: 635 element 0x8be-0x8bf.7 (2)
0x8c0|02 82                                          |..              |    [32]: 642 element 0x8c0-0x8c1.7 (2)
0x8c0|      02 87                                    |  ..            |    [33]: 647 element 0x8c2-0x8c3.7 (2)
0x8c0|            02 8d                              |    ..          |    [34]: 653 element 0x8c4-0x8c5.7 (2)
0x8c0|                  02 8f                        |      ..        |    [35]: 655 element 0x8c6-0x8c7.7 (2)
0x8c0|                        02 96                  |        ..      |    [36]: 662 element 0x8c8-0x8c9.7 (2)
0x8c0|                              02 9a            |          ..    |    [37]: 666 element 0x8ca-0x8cb.7 (2)
0x8c0|                                    02 bf      |            ..  |    [38]: 703 element 0x8cc-0x8cd.7 (2)
0x8c0|                                          02 ec|              ..|    [39]: 748 element 0x8ce-0x8cf.7 (2)
0x8d0|02 f1                                          |..              |    [40]: 753 element 0x8d0-0x8d1.7 (2)
0x8d0|      02 fa                                    |  ..            |    [41]: 762 element 0x8d2-0x8d3.7 (2)
0x8d0|            02 ff                              |    ..          |    [42]: 767 element 0x8d4-0x8d5.7 (2)
0x8d0|                  03 05                        |      ..        |    [43]: 773 element 0x8d6-0x8d7.7 (2)
0x8d0|                        03 0d                  |        ..      |    [44]: 781 element 0x8d8-0x8d9.7 (2)
0x8d0|                              03 20            |          .     |    [45]: 800 element 0x8da-0x8db.7 (2)
0x8d0|                                    03 3c      |            .<  |    [46]: 828 element 0x8dc-0x8dd.7 (2)
0x8d0|                                          03 50|              .P|    [47]: 848 element 0x8de-0x8df.7 (2)
0x8e0|03 5f                                          |._              |    [48]: 863 element 0x8e0-0x8e1.7 (2)
0x8e0|      03 7e                                    |  .~            |    [49]: 894 element 0x8e2-0x8e3.7 (2)
0x8e0|            03 98                              |    ..          |    [50]: 920 element 0x8e4-0x8e5.7 (2)
0x8e0|                  03 b4                        |      ..        |    [51]: 948 element 0x8e6-0x8e7.7 (2)
0x8e0|                        03 c0                  |        ..      |    [52]: 960 element 0x8e8-0x8e9.7 (2)
0x8e0|                              03 cf            |          ..    |    [53]: 975 element 0x8ea-0x8eb.7 (2)
0x8e0|                                    03 d9      |            ..  |    [54]: 985 element 0x8ec-0x8ed.7 (2)
0x8e0|                                          03 f0|              ..|    [55]: 1008 element 0x8ee-0x8ef.7 (2)
0x8f0|04 11                                          |..              |    [56]: 1041 element 0x8f0-0x8f1.7 (2)
0x8f0|      04 17                                    |  ..            |    [57]: 1047 element 0x8f2-0x8f3.7 (2)
0x8f0|            04 19                              |    ..          |    [58]: 1049 element 0x8f4-0x8f5.7 (2)
0x8f0|                  04 4f                        |      .O        |    [59]: 1103 element 0x8f6-0x8f7.7 (2)
0x8f0|                        04 52                  |        .R      |    [60]: 1106 element 0x8f8-0x8f9.7 (2)
0x8f0|                              04 59            |          .Y    |    [61]: 1113 element 0x8fa-0x8fb.7 (2)
0x8f0|                                    04 5f      |            ._  |    [62]: 1119 element 0x8fc-0x8fd.7 (2)
0x8f0|                                          04 64|              .d|    [63]: 1124 element 0x8fe-0x8ff.7 (2)
0x900|04 70                                          |.p              |    [64]: 1136 element 0x900-0x901.7 (2)
0x900|      04 79                                    |  .y            |    [65]: 1145 element 0x902-0x903.7 (2)
0x900|            04 80                              |    ..          |    [66]: 1152 element 0x904-0x905.7 (2)
0x900|                  04 85                        |      ..        |    [67]: 1157 element 0x906-0x907.7 (2)
0x900|                        04 8a                  |        ..      |    [68]: 1162 element 0x908-0x909.7 (2)
0x900|                              04 8f            |          ..    |    [69]: 1167 element 0x90a-0x90b.7 (2)
0x900|                                    04 94      |            ..  |    [70]: 1172 element 0x90c-0x90d.7 (2)
0x900|                                          04 99|              ..|    [71]: 1177 element 0x90e-0x90f.7 (2)
0x910|04 9e                                          |..              |    [72]: 1182 element 0x910-0x911.7 (2)
0x910|      04 a0                                    |  ..            |    [73]: 1184 element 0x912-0x913.7 (2)
0x910|            04 c6                              |    ..          |    [74]: 1222 element 0x914-0x915.7 (2)
0x910|                  04 dd                        |      ..        |    [75]: 1245 element 0x916-0x917.7 (2)
0x910|                        04 e9                  |        ..      |    [76]: 1257 element 0x918-0x919.7 (2)
0x910|                              04 f7            |          ..    |    [77]: 1271 element 0x91a-0x91b.7 (2)
0x910|                                    05 16      |            ..  |    [78]: 1302 element 0x91c-0x91d.7 (2)
0x910|                                          05 37|              .7|    [79]: 1335 element 0x91e-0x91f.7 (2)
0x920|05 4e                                          |.N              |    [80]: 1358 element 0x920-0x921.7 (2)
0x920|      05 8b                                    |  ..            |    [81]: 1419 element 0x922-0x923.7 (2)
0x920|            05 8e                              |    ..          |    [82]: 1422 element 0x924-0x925.7 (2)
0x920|                  05 93                        |      ..        |    [83]: 1427 element 0x926-0x927.7 (2)
0x920|                        05 b9                  |        ..      |    [84]: 1465 element 0x928-0x929.7 (2)
0x920|                              05 d0            |          ..    |    [85]: 1488 element 0x92a-0x92b.7 (2)
0x920|                                    05 ec      |            ..  |    [86]: 1516 element 0x92c-0x92d.7 (2)
0x920|                                          06 00|              ..|    [87]: 1536 element 0x92e-0x92f.7 (2)
0x930|06 3b                                          |.;              |    [88]: 1595 element 0x930-0x931.7 (2)
0x930|      06 3e                                    |  .>            |    [89]: 1598 element 0x932-0x933.7 (2)
0x930|            06 43                              |    .C          |    [90]: 1603 element 0x934-0x935.7 (2)
0x930|                  06 5a                        |      .Z        |    [91]: 1626 element 0x936-0x937.7 (2)
0x930|                        06 78                  |        .x      |    [92]: 1656 element 0x938-0x939.7 (2)
0x930|                              06 8e            |          ..    |    [93]: 1678 element 0x93a-0x93b.7 (2)
0x930|                                    06 ca      |            ..  |    [94]: 1738 element 0x93c-0x93d.7 (2)
0x930|                                          06 cd|              ..|    [95]: 1741 element 0x93e-0x93f.7 (2)
0x940|06 d2                                          |..              |    [96]: 1746 element 0x940-0x941.7 (2)
0x940|      06 e9                                    |  ..            |    [97]: 1769 element 0x942-0x943.7 (2)
0x940|            07 04                              |    ..          |    [98]: 1796 element 0x944-0x945.7 (2)
0x940|                  07 17                        |      ..        |    [99]: 1815 element 0x946-0x947.7 (2)
0x940|                        07 51                  |        .Q      |    [100]: 1873 element 0x948-0x949.7 (2)
0x940|                              07 54            |          .T    |    [101]: 1876 element 0x94a-0x94b.7 (2)
0x940|                                    07 59      |            .Y  |    [102]: 1881 element 0x94c-0x94d.7 (2)
0x940|                                          07 70|              .p|    [103]: 1904 element 0x94e-0x94f.7 (2)
0x950|07 8e                                          |..              |    [104]: 1934 element 0x950-0x951.7 (2)
0x950|      07 a4                                    |  ..            |    [105]: 1956 element 0x952-0x953.7 (2)
0x950|            07 e0                              |    ..          |    [106]: 2016 element 0x954-0x955.7 (2)
0x950|                  07 e3                        |      ..        |    [107]: 2019 element 0x956-0x957.7 (2)
0x950|                        07 e8                  |        ..      |    [108]: 2024 element 0x958-0x959.7 (2)
0x950|                              07 ff            |          ..    |    [109]: 2047 element 0x95a-0x95b.7 (2)
0x950|                                    08 20      |            .   |    [110]: 2080 element 0x95c-0x95d.7 (2)
0x950|                                          08 39|              .9|    [111]: 2105 element 0x95e-0x95f.7 (2)
0x960|08 78                                          |.x              |    [112]: 2168 element 0x960-0x961.7 (2)
0x960|      08 7b                                    |  .{            |    [113]: 2171 element 0x962-0x963.7 (2)
     |                                               |                |  trailer{}: 0x964-0x983.7 (32)
0x960|            00 00 00 00 00                     |    .....       |    unused: 0 0x964-0x968.7 (5)
0x960|                           00                  |         .      |    sort_version: 0 0x969-0x969.7 (1)
0x960|                              02               |          .     |    offset_table_offset_size: 2 (valid) 0x96a-0x96a.7 (1)
0x960|                                 01            |           .    |    object_reference_size: 1 (valid) 0x96b-0x96b.7 (1)
0x960|                                    00 00 00 00|            ....|    object_count: 114 0x96c-0x973.7 (8)
0x970|00 00 00 72                                    |...r            |
0x970|            00 00 00 00 00 00 00 00            |    ........    |    top_object_offset: 0 0x974-0x97b.7 (8)
0x970|                                    00 00 00 00|            ....|    offset_table_start: 2176 0x97c-0x983.7 (8)
0x980|00 00 08 80|                                   |....|           |
$ fq torepr Info.plist
{
  "BuildMachineOSBuild": 685135328,
  "CFBundleDevelopmentRegion": "English",
  "CFBundleExecutable": "AppleProResCodecEmbedded",
  "CFBundleIdentifier": "com.apple.proapps.AppleProResCodecEmbedded",
  "CFBundleInfoDictionaryVersion": "6.0",
  "CFBundleName": "AppleProResCodecEmbedded",
  "CFBundlePackageType": "BNDL",
  "CFBundleShortVersionString": "3.7.0",
  "CFBundleSignature": "????",
  "CFBundleSupportedPlatforms": [
    "MacOSX"
  ],
  "CFBundleVersion": "15481",
  "CMClassImplementations": [
    {
      "CMClassID": "com.apple.videotoolbox.videodecoder",
      "CMClassImplementationID": "com.apple.videotoolbox.videodecoder.prores.embedded",
      "CMClassImplementationName": "Apple ProRes Decoder",
      "CMClassImplementationVersion": 1,
      "CMCopyright": "Copyright (c) 2011-2021 Apple Inc. All rights reserved.",
      "CMExecutableArchitectures": [
        "x86_64",
        "arm64"
      ],
      "CMFactoryFunction": "IcpVideoDecoder_CreateInstance",
      "CMManufacturer": "Apple",
      "CMMatchingInfo": {
        "VTCodecType": [
          "ap4x",
          "ap4h",
          "apch",
          "apcn",
          "apcs",
          "apco"
        ],
        "VTRating": 100
      }
    },
    {
      "CMClassID": "com.apple.videotoolbox.videoencoder",
      "CMClassImplementationID": "com.apple.videotoolbox.videoencoder.prores-4444xq.embedded",
      "CMClassImplementationName": "Apple ProRes 4444 XQ Encoder",
      "CMClassImplementationVersion": 1,
      "CMCopyright": "Copyright (c) 2011-2021 Apple Inc. All rights reserved.",
      "CMExecutableArchitectures": [
        "x86_64",
        "arm64"
      ],
      "CMFactoryFunction": "IcpVideoEncoder_CreateInstance",
      "CMManufacturer": "Apple",
      "CMMatchingInfo": {
        "VTCodecType": "ap4x",
        "VTRating": 100
      },
      "VTCodecName": "Apple ProRes 4444 XQ",
      "VTEncoderName": "Apple ProRes 4444 XQ"
    },
    {
      "CMClassID": "com.apple.videotoolbox.videoencoder",
      "CMClassImplementationID": "com.apple.videotoolbox.videoencoder.prores-4444.embedded",
      "CMClassImplementationName": "Apple ProRes 4444 Encoder",
      "CMClassImplementationVersion": 1,
      "CMCopyright": "Copyright (c) 2011-2021 Apple Inc. All rights reserved.",
      "CMExecutableArchitectures": [
        "x86_64",
        "arm64"
      ],
      "CMFactoryFunction": "IcpVideoEncoder_CreateInstance",
      "CMManufacturer": "Apple",
      "CMMatchingInfo": {
        "VTCodecType": "ap4h",
        "VTRating": 100
      },
      "VTCodecName": "Apple ProRes 4444",
      "VTEncoderName": "Apple ProRes 4444"
    },
    {
      "CMClassID": "com.apple.videotoolbox.videoencoder",
      "CMClassImplementationID": "com.apple.videotoolbox.videoencoder.prores-422hq.embedded",
      "CMClassImplementationName": "Apple ProRes 422 HQ Encoder",
      "CMClassImplementationVersion": 1,
      "CMCopyright": "Copyright (c) 2011-2021 Apple Inc. All rights reserved.",
      "CMExecutableArchitectures": [
        "x86_64",
        "arm64"
      ],
      "CMFactoryFunction": "IcpVideoEncoder_CreateInstance",
      "CMManufacturer": "Apple",
      "CMMatchingInfo": {
        "VTCodecType": "apch",
        "VTRating": 100
      },
      "VTCodecName": "Apple ProRes 422 HQ",
      "VTEncoderName": "Apple ProRes 422 HQ"
    },
    {
      "CMClassID": "com.apple.videotoolbox.videoencoder",
      "CMClassImplementationID": "com.apple.videotoolbox.videoencoder.prores-422.embedded",
      "CMClassImplementationName": "Apple ProRes 422 Encoder",
      "CMClassImplementationVersion": 1,
      "CMCopyright": "Copyright (c) 2011-2021 Apple Inc. All rights reserved.",
      "CMExecutableArchitectures": [
        "x86_64",
        "arm64"
      ],
      "CMFactoryFunction": "IcpVideoEncoder_CreateInstance",
      "CMManufacturer": "Apple",
      "CMMatchingInfo": {
        "VTCodecType": "apcn",
        "VTRating": 100
      },
      "VTCodecName": "Apple ProRes 422",
      "VTEncoderName": "Apple ProRes 422"
    },
    {
      "CMClassID": "com.apple.videotoolbox.videoencoder",
      "CMClassImplementationID": "com.apple.videotoolbox.videoencoder.prores-422lt.embedded",
      "CMClassImplementationName": "Apple ProRes 422 LT Encoder",
      "CMClassImplementationVersion": 1,
      "CMCopyright": "Copyright (c) 2011-2021 Apple Inc. All rights reserved.",
      "CMExecutableArchitectures": [
        "x86_64",
        "arm64"
      ],
      "CMFactoryFunction": "IcpVideoEncoder_CreateInstance",
      "CMManufacturer": "Apple",
      "CMMatchingInfo": {
        "VTCodecType": "apcs",
        "VTRating": 100
      },
      "VTCodecName": "Apple ProRes 422 LT",
      "VTEncoderName": "Apple ProRes 422 LT"
    },
    {
      "CMClassID": "com.apple.videotoolbox.videoencoder",
      "CMClassImplementationID": "com.apple.videotoolbox.videoencoder.prores-422proxy.embedded",
      "CMClassImplementationName": "Apple ProRes 422 Proxy Encoder",
      "CMClassImplementationVersion": 1,
      "CMCopyright": "Copyright (c) 2011-2021 Apple Inc. All rights reserved.",
      "CMExecutableArchitectures": [
        "x86_64",
        "arm64"
      ],
      "CMFactoryFunction": "IcpVideoEncoder_CreateInstance",
      "CMManufacturer": "Apple",
      "CMMatchingInfo": {
        "VTCodecType": "apco",
        "VTRating": 100
      },
      "VTCodecName": "Apple ProRes 422 Proxy",
      "VTEncoderName": "Apple ProRes 422 Proxy"
    }
  ],
  "DTCompiler": "com.apple.compilers.llvm.clang.1_0",
  "DTPlatformBuild": "21A344",
  "DTPlatformName": "macosx",
  "DTPlatformVersion": "12.0",
  "DTSDKBuild": "21A344",
  "DTSDKName": "macosx12.0.internal",
  "DTXcode": "1310",
  "DTXcodeBuild": "13A1030d",
  "LSMinimumSystemVersion": "10.14",
  "NSHumanReadableCopyright": "Copyright (c) 2011-2021 Apple Inc. All rights reserved."
}
