$ fq dv a_static
      |00 01 02 03 04 05 06 07 08 09 0a 0b 0c 0d 0e 0f|0123456789abcdef|.{}: a_static (macho) 0x0-0xc375 (50037)
      |                                               |                |  header{}: 0x0-0x20 (32)
      |                                               |                |    arch_bits: 64
0x0000|cf fa ed fe                                    |....            |    magic: "64le" (0xfeedfacf) (64-bit little endian) 0x0-0x4 (4)
      |                                               |                |    bits: 64
0x0000|            0c 00 00 01                        |    ....        |    cputype: "arm64" (0x100000c) 0x4-0x8 (4)
0x0000|                        00 00 00 00            |        ....    |    cpusubtype: 0x0 0x8-0xc (4)
0x0000|                                    02 00 00 00|            ....|    filetype: "execute" (2) 0xc-0x10 (4)
0x0010|11 00 00 00                                    |....            |    ncdms: 17 0x10-0x14 (4)
0x0010|            68 05 00 00                        |    h...        |    sizeofncdms: 1384 0x14-0x18 (4)
      |                                               |                |    flags{}: 0x18-0x1c (4)
0x0010|                        85                     |        .       |      twolevel: true 0x18-0x18.1 (0.1)
0x0010|                        85                     |        .       |      lazy_init: false 0x18.1-0x18.2 (0.1)
0x0010|                        85                     |        .       |      split_segs: false 0x18.2-0x18.3 (0.1)
0x0010|                        85                     |        .       |      prebound: false 0x18.3-0x18.4 (0.1)
0x0010|                        85                     |        .       |      bindatload: false 0x18.4-0x18.5 (0.1)
0x0010|                        85                     |        .       |      dyldlink: true 0x18.5-0x18.6 (0.1)
0x0010|                        85                     |        .       |      incrlink: false 0x18.6-0x18.7 (0.1)
0x0010|                        85                     |        .       |      noundefs: true 0x18.7-0x19 (0.1)
0x0010|                           00                  |         .      |      weak_defines: false 0x19-0x19.1 (0.1)
0x0010|                           00                  |         .      |      canonical: false 0x19.1-0x19.2 (0.1)
0x0010|                           00                  |         .      |      subsections_via_symbols: false 0x19.2-0x19.3 (0.1)
0x0010|                           00                  |         .      |      allmodsbound: false 0x19.3-0x19.4 (0.1)
0x0010|                           00                  |         .      |      prebindable: false 0x19.4-0x19.5 (0.1)
0x0010|                           00                  |         .      |      nofixprebinding: false 0x19.5-0x19.6 (0.1)
0x0010|                           00                  |         .      |      nomultidefs: false 0x19.6-0x19.7 (0.1)
0x0010|                           00                  |         .      |      force_flat: false 0x19.7-0x1a (0.1)
0x0010|                              20               |                |      has_tlv_descriptors: false 0x1a-0x1a.1 (0.1)
0x0010|                              20               |                |      dead_strippable_dylib: false 0x1a.1-0x1a.2 (0.1)
0x0010|                              20               |                |      pie: true 0x1a.2-0x1a.3 (0.1)
0x0010|                              20               |                |      no_reexported_dylibs: false 0x1a.3-0x1a.4 (0.1)
0x0010|                              20               |                |      setuid_safe: false 0x1a.4-0x1a.5 (0.1)
0x0010|                              20               |                |      root_safe: false 0x1a.5-0x1a.6 (0.1)
0x0010|                              20               |                |      allow_stack_execution: false 0x1a.6-0x1a.7 (0.1)
0x0010|                              20               |                |      binds_to_weak: false 0x1a.7-0x1b (0.1)
0x0010|                                 00            |           .    |      reserved: raw bits 0x1b-0x1b.6 (0.6)
0x0010|                                 00            |           .    |      app_extension_safe: false 0x1b.6-0x1b.7 (0.1)
0x0010|                                 00            |           .    |      no_heap_execution: false 0x1b.7-0x1c (0.1)
0x0010|                                    00 00 00 00|            ....|    reserved: raw bits (all zero) 0x1c-0x20 (4)
      |                                               |                |  load_commands[0:17]: 0x20-0xc158 (49464)
      |                                               |                |    [0]{}: load_command 0x20-0x68 (72)
0x0020|19 00 00 00                                    |....            |      cmd: "segment_64" (0x19) 0x20-0x24 (4)
0x0020|            48 00 00 00                        |    H...        |      cmdsize: 72 0x24-0x28 (4)
      |                                               |                |      segment_command{}: 0x28-0x68 (64)
      |                                               |                |        arch_bits: 64
0x0020|                        5f 5f 50 41 47 45 5a 45|        __PAGEZE|        segname: "__PAGEZERO" 0x28-0x38 (16)
0x0030|52 4f 00 00 00 00 00 00                        |RO......        |
0x0030|                        00 00 00 00 00 00 00 00|        ........|        vmaddr: 0x0 0x38-0x40 (8)
0x0040|00 00 00 00 01 00 00 00                        |........        |        vmsize: 4294967296 0x40-0x48 (8)
0x0040|                        00 00 00 00 00 00 00 00|        ........|        fileoff: 0x0 0x48-0x50 (8)
0x0050|00 00 00 00 00 00 00 00                        |........        |        tfilesize: 0 0x50-0x58 (8)
0x0050|                        00 00 00 00            |        ....    |        initprot: 0 0x58-0x5c (4)
0x0050|                                    00 00 00 00|            ....|        maxprot: 0 0x5c-0x60 (4)
0x0060|00 00 00 00                                    |....            |        nsects: 0 0x60-0x64 (4)
      |                                               |                |        flags{}: 0x64-0x68 (4)
0x0060|            00                                 |    .           |          reserved0: raw bits 0x64-0x64.4 (0.4)
0x0060|            00                                 |    .           |          protected_version_1: false 0x64.4-0x64.5 (0.1)
0x0060|            00                                 |    .           |          noreloc: false 0x64.5-0x64.6 (0.1)
0x0060|            00                                 |    .           |          fvmlib: false 0x64.6-0x64.7 (0.1)
0x0060|            00                                 |    .           |          highvm: false 0x64.7-0x65 (0.1)
0x0060|               00 00 00                        |     ...        |          reserved1: raw bits 0x65-0x68 (3)
      |                                               |                |      sections[0:0]: 0x68-0x68 (0)
      |                                               |                |    [1]{}: load_command 0x68-0x4000 (16280)
0x0060|                        19 00 00 00            |        ....    |      cmd: "segment_64" (0x19) 0x68-0x6c (4)
0x0060|                                    d8 01 00 00|            ....|      cmdsize: 472 0x6c-0x70 (4)
      |                                               |                |      segment_command{}: 0x70-0xb0 (64)
      |                                               |                |        arch_bits: 64
0x0070|5f 5f 54 45 58 54 00 00 00 00 00 00 00 00 00 00|__TEXT..........|        segname: "__TEXT" 0x70-0x80 (16)
0x0080|00 00 00 00 01 00 00 00                        |........        |        vmaddr: 0x100000000 0x80-0x88 (8)
0x0080|                        00 40 00 00 00 00 00 00|        .@......|        vmsize: 16384 0x88-0x90 (8)
0x0090|00 00 00 00 00 00 00 00                        |........        |        fileoff: 0x0 0x90-0x98 (8)
0x0090|                        00 40 00 00 00 00 00 00|        .@......|        tfilesize: 16384 0x98-0xa0 (8)
0x00a0|05 00 00 00                                    |....            |        initprot: 5 0xa0-0xa4 (4)
0x00a0|            05 00 00 00                        |    ....        |        maxprot: 5 0xa4-0xa8 (4)
0x00a0|                        05 00 00 00            |        ....    |        nsects: 5 0xa8-0xac (4)
      |                                               |                |        flags{}: 0xac-0xb0 (4)
0x00a0|                                    00         |            .   |          reserved0: raw bits 0xac-0xac.4 (0.4)
0x00a0|                                    00         |            .   |          protected_version_1: false 0xac.4-0xac.5 (0.1)
0x00a0|                                    00         |            .   |          noreloc: false 0xac.5-0xac.6 (0.1)
0x00a0|                                    00         |            .   |          fvmlib: false 0xac.6-0xac.7 (0.1)
0x00a0|                                    00         |            .   |          highvm: false 0xac.7-0xad (0.1)
0x00a0|                                       00 00 00|             ...|          reserved1: raw bits 0xad-0xb0 (3)
      |                                               |                |      sections[0:5]: 0xb0-0x4000 (16208)
      |                                               |                |        [0]{}: section 0xb0-0x3f74 (16068)
0x00b0|5f 5f 74 65 78 74 00 00 00 00 00 00 00 00 00 00|__text..........|          sectname: "__text" 0xb0-0xc0 (16)
0x00c0|5f 5f 54 45 58 54 00 00 00 00 00 00 00 00 00 00|__TEXT..........|          segname: "__TEXT" 0xc0-0xd0 (16)
0x00d0|20 3f 00 00 01 00 00 00                        | ?......        |          address: 0x100003f20 0xd0-0xd8 (8)
0x00d0|                        54 00 00 00 00 00 00 00|        T.......|          size: 84 0xd8-0xe0 (8)
0x00e0|20 3f 00 00                                    | ?..            |          offset: 0x3f20 0xe0-0xe4 (4)
0x00e0|            02 00 00 00                        |    ....        |          align: 2 0xe4-0xe8 (4)
0x00e0|                        00 00 00 00            |        ....    |          reloff: 0 0xe8-0xec (4)
0x00e0|                                    00 00 00 00|            ....|          nreloc: 0 0xec-0xf0 (4)
      |                                               |                |          flags{}: 0xf0-0xf4 (4)
0x00f0|00                                             |.               |            type: "regular" (0) 0xf0-0xf1 (1)
0x00f0|   04                                          | .              |            reserved2: raw bits 0xf1-0xf1.5 (0.5)
0x00f0|   04                                          | .              |            attr_some_instructions: true 0xf1.5-0xf1.6 (0.1)
0x00f0|   04                                          | .              |            attr_ext_reloc: false 0xf1.6-0xf1.7 (0.1)
0x00f0|   04                                          | .              |            attr_loc_reloc: false 0xf1.7-0xf2 (0.1)
0x00f0|      00                                       |  .             |            reserved1: raw bits 0xf2-0xf3 (1)
0x00f0|         80                                    |   .            |            attr_pure_instructions: true 0xf3-0xf3.1 (0.1)
0x00f0|         80                                    |   .            |            attr_no_toc: false 0xf3.1-0xf3.2 (0.1)
0x00f0|         80                                    |   .            |            attr_strip_static_syms: false 0xf3.2-0xf3.3 (0.1)
0x00f0|         80                                    |   .            |            attr_no_dead_strip: false 0xf3.3-0xf3.4 (0.1)
0x00f0|         80                                    |   .            |            attr_live_support: false 0xf3.4-0xf3.5 (0.1)
0x00f0|         80                                    |   .            |            attr_self_modifying_code: false 0xf3.5-0xf3.6 (0.1)
0x00f0|         80                                    |   .            |            attr_debug: false 0xf3.6-0xf3.7 (0.1)
0x00f0|         80                                    |   .            |            reserved0: raw bits 0xf3.7-0xf4 (0.1)
0x00f0|            00 00 00 00                        |    ....        |          reserved1: 0 0xf4-0xf8 (4)
0x00f0|                        00 00 00 00            |        ....    |          reserved2: 0 0xf8-0xfc (4)
0x00f0|                                    00 00 00 00|            ....|          reserved3: 0 0xfc-0x100 (4)
0x3f20|fd 7b bf a9 fd 03 00 91 00 00 00 90 00 90 3e 91|.{............>.|          data: raw bits 0x3f20-0x3f74 (84)
*     |until 0x3f73.7 (84)                            |                |
      |                                               |                |        [1]{}: section 0x100-0x3f80 (16000)
0x0100|5f 5f 73 74 75 62 73 00 00 00 00 00 00 00 00 00|__stubs.........|          sectname: "__stubs" 0x100-0x110 (16)
0x0110|5f 5f 54 45 58 54 00 00 00 00 00 00 00 00 00 00|__TEXT..........|          segname: "__TEXT" 0x110-0x120 (16)
0x0120|74 3f 00 00 01 00 00 00                        |t?......        |          address: 0x100003f74 0x120-0x128 (8)
0x0120|                        0c 00 00 00 00 00 00 00|        ........|          size: 12 0x128-0x130 (8)
0x0130|74 3f 00 00                                    |t?..            |          offset: 0x3f74 0x130-0x134 (4)
0x0130|            02 00 00 00                        |    ....        |          align: 2 0x134-0x138 (4)
0x0130|                        00 00 00 00            |        ....    |          reloff: 0 0x138-0x13c (4)
0x0130|                                    00 00 00 00|            ....|          nreloc: 0 0x13c-0x140 (4)
      |                                               |                |          flags{}: 0x140-0x144 (4)
0x0140|08                                             |.               |            type: "symbol_stubs" (8) 0x140-0x141 (1)
0x0140|   04                                          | .              |            reserved2: raw bits 0x141-0x141.5 (0.5)
0x0140|   04                                          | .              |            attr_some_instructions: true 0x141.5-0x141.6 (0.1)
0x0140|   04                                          | .              |            attr_ext_reloc: false 0x141.6-0x141.7 (0.1)
0x0140|   04                                          | .              |            attr_loc_reloc: false 0x141.7-0x142 (0.1)
0x0140|      00                                       |  .             |            reserved1: raw bits 0x142-0x143 (1)
0x0140|         80                                    |   .            |            attr_pure_instructions: true 0x143-0x143.1 (0.1)
0x0140|         80                                    |   .            |            attr_no_toc: false 0x143.1-0x143.2 (0.1)
0x0140|         80                                    |   .            |            attr_strip_static_syms: false 0x143.2-0x143.3 (0.1)
0x0140|         80                                    |   .            |            attr_no_dead_strip: false 0x143.3-0x143.4 (0.1)
0x0140|         80                                    |   .            |            attr_live_support: false 0x143.4-0x143.5 (0.1)
0x0140|         80                                    |   .            |            attr_self_modifying_code: false 0x143.5-0x143.6 (0.1)
0x0140|         80                                    |   .            |            attr_debug: false 0x143.6-0x143.7 (0.1)
0x0140|         80                                    |   .            |            reserved0: raw bits 0x143.7-0x144 (0.1)
0x0140|            00 00 00 00                        |    ....        |          reserved1: 0 0x144-0x148 (4)
0x0140|                        0c 00 00 00            |        ....    |          reserved2: 12 0x148-0x14c (4)
0x0140|                                    00 00 00 00|            ....|          reserved3: 0 0x14c-0x150 (4)
0x3f70|            1f 20 03 d5 50 04 02 58 00 02 1f d6|    . ..P..X....|          data: raw bits 0x3f74-0x3f80 (12)
      |                                               |                |        [2]{}: section 0x150-0x3fa4 (15956)
0x0150|5f 5f 73 74 75 62 5f 68 65 6c 70 65 72 00 00 00|__stub_helper...|          sectname: "__stub_helper" 0x150-0x160 (16)
0x0160|5f 5f 54 45 58 54 00 00 00 00 00 00 00 00 00 00|__TEXT..........|          segname: "__TEXT" 0x160-0x170 (16)
0x0170|80 3f 00 00 01 00 00 00                        |.?......        |          address: 0x100003f80 0x170-0x178 (8)
0x0170|                        24 00 00 00 00 00 00 00|        $.......|          size: 36 0x178-0x180 (8)
0x0180|80 3f 00 00                                    |.?..            |          offset: 0x3f80 0x180-0x184 (4)
0x0180|            02 00 00 00                        |    ....        |          align: 2 0x184-0x188 (4)
0x0180|                        00 00 00 00            |        ....    |          reloff: 0 0x188-0x18c (4)
0x0180|                                    00 00 00 00|            ....|          nreloc: 0 0x18c-0x190 (4)
      |                                               |                |          flags{}: 0x190-0x194 (4)
0x0190|00                                             |.               |            type: "regular" (0) 0x190-0x191 (1)
0x0190|   04                                          | .              |            reserved2: raw bits 0x191-0x191.5 (0.5)
0x0190|   04                                          | .              |            attr_some_instructions: true 0x191.5-0x191.6 (0.1)
0x0190|   04                                          | .              |            attr_ext_reloc: false 0x191.6-0x191.7 (0.1)
0x0190|   04                                          | .              |            attr_loc_reloc: false 0x191.7-0x192 (0.1)
0x0190|      00                                       |  .             |            reserved1: raw bits 0x192-0x193 (1)
0x0190|         80                                    |   .            |            attr_pure_instructions: true 0x193-0x193.1 (0.1)
0x0190|         80                                    |   .            |            attr_no_toc: false 0x193.1-0x193.2 (0.1)
0x0190|         80                                    |   .            |            attr_strip_static_syms: false 0x193.2-0x193.3 (0.1)
0x0190|         80                                    |   .            |            attr_no_dead_strip: false 0x193.3-0x193.4 (0.1)
0x0190|         80                                    |   .            |            attr_live_support: false 0x193.4-0x193.5 (0.1)
0x0190|         80                                    |   .            |            attr_self_modifying_code: false 0x193.5-0x193.6 (0.1)
0x0190|         80                                    |   .            |            attr_debug: false 0x193.6-0x193.7 (0.1)
0x0190|         80                                    |   .            |            reserved0: raw bits 0x193.7-0x194 (0.1)
0x0190|            00 00 00 00                        |    ....        |          reserved1: 0 0x194-0x198 (4)
0x0190|                        00 00 00 00            |        ....    |          reserved2: 0 0x198-0x19c (4)
0x0190|                                    00 00 00 00|            ....|          reserved3: 0 0x19c-0x1a0 (4)
0x3f80|51 04 02 10 1f 20 03 d5 f0 47 bf a9 1f 20 03 d5|Q.... ...G... ..|          data: raw bits 0x3f80-0x3fa4 (36)
*     |until 0x3fa3.7 (36)                            |                |
      |                                               |                |        [3]{}: section 0x1a0-0x3fb5 (15893)
0x01a0|5f 5f 63 73 74 72 69 6e 67 00 00 00 00 00 00 00|__cstring.......|          sectname: "__cstring" 0x1a0-0x1b0 (16)
0x01b0|5f 5f 54 45 58 54 00 00 00 00 00 00 00 00 00 00|__TEXT..........|          segname: "__TEXT" 0x1b0-0x1c0 (16)
0x01c0|a4 3f 00 00 01 00 00 00                        |.?......        |          address: 0x100003fa4 0x1c0-0x1c8 (8)
0x01c0|                        11 00 00 00 00 00 00 00|        ........|          size: 17 0x1c8-0x1d0 (8)
0x01d0|a4 3f 00 00                                    |.?..            |          offset: 0x3fa4 0x1d0-0x1d4 (4)
0x01d0|            00 00 00 00                        |    ....        |          align: 0 0x1d4-0x1d8 (4)
0x01d0|                        00 00 00 00            |        ....    |          reloff: 0 0x1d8-0x1dc (4)
0x01d0|                                    00 00 00 00|            ....|          nreloc: 0 0x1dc-0x1e0 (4)
      |                                               |                |          flags{}: 0x1e0-0x1e4 (4)
0x01e0|02                                             |.               |            type: "cstring_literals" (2) 0x1e0-0x1e1 (1)
0x01e0|   00                                          | .              |            reserved2: raw bits 0x1e1-0x1e1.5 (0.5)
0x01e0|   00                                          | .              |            attr_some_instructions: false 0x1e1.5-0x1e1.6 (0.1)
0x01e0|   00                                          | .              |            attr_ext_reloc: false 0x1e1.6-0x1e1.7 (0.1)
0x01e0|   00                                          | .              |            attr_loc_reloc: false 0x1e1.7-0x1e2 (0.1)
0x01e0|      00                                       |  .             |            reserved1: raw bits 0x1e2-0x1e3 (1)
0x01e0|         00                                    |   .            |            attr_pure_instructions: false 0x1e3-0x1e3.1 (0.1)
0x01e0|         00                                    |   .            |            attr_no_toc: false 0x1e3.1-0x1e3.2 (0.1)
0x01e0|         00                                    |   .            |            attr_strip_static_syms: false 0x1e3.2-0x1e3.3 (0.1)
0x01e0|         00                                    |   .            |            attr_no_dead_strip: false 0x1e3.3-0x1e3.4 (0.1)
0x01e0|         00                                    |   .            |            attr_live_support: false 0x1e3.4-0x1e3.5 (0.1)
0x01e0|         00                                    |   .            |            attr_self_modifying_code: false 0x1e3.5-0x1e3.6 (0.1)
0x01e0|         00                                    |   .            |            attr_debug: false 0x1e3.6-0x1e3.7 (0.1)
0x01e0|         00                                    |   .            |            reserved0: raw bits 0x1e3.7-0x1e4 (0.1)
0x01e0|            00 00 00 00                        |    ....        |          reserved1: 0 0x1e4-0x1e8 (4)
0x01e0|                        00 00 00 00            |        ....    |          reserved2: 0 0x1e8-0x1ec (4)
0x01e0|                                    00 00 00 00|            ....|          reserved3: 0 0x1ec-0x1f0 (4)
      |                                               |                |          cstrings[0:2]: 0x3fa4-0x3fb5 (17)
0x3fa0|            61 61 61 0a 00                     |    aaa..       |            [0]: "aaa\n" cstring 0x3fa4-0x3fa9 (5)
0x3fa0|                           6c 69 62 62 62 62 5f|         libbbb_|            [1]: "libbbb_bbb\n" cstring 0x3fa9-0x3fb5 (12)
0x3fb0|62 62 62 0a 00                                 |bbb..           |
      |                                               |                |        [4]{}: section 0x1f0-0x4000 (15888)
0x01f0|5f 5f 75 6e 77 69 6e 64 5f 69 6e 66 6f 00 00 00|__unwind_info...|          sectname: "__unwind_info" 0x1f0-0x200 (16)
0x0200|5f 5f 54 45 58 54 00 00 00 00 00 00 00 00 00 00|__TEXT..........|          segname: "__TEXT" 0x200-0x210 (16)
0x0210|b8 3f 00 00 01 00 00 00                        |.?......        |          address: 0x100003fb8 0x210-0x218 (8)
0x0210|                        48 00 00 00 00 00 00 00|        H.......|          size: 72 0x218-0x220 (8)
0x0220|b8 3f 00 00                                    |.?..            |          offset: 0x3fb8 0x220-0x224 (4)
0x0220|            02 00 00 00                        |    ....        |          align: 2 0x224-0x228 (4)
0x0220|                        00 00 00 00            |        ....    |          reloff: 0 0x228-0x22c (4)
0x0220|                                    00 00 00 00|            ....|          nreloc: 0 0x22c-0x230 (4)
      |                                               |                |          flags{}: 0x230-0x234 (4)
0x0230|00                                             |.               |            type: "regular" (0) 0x230-0x231 (1)
0x0230|   00                                          | .              |            reserved2: raw bits 0x231-0x231.5 (0.5)
0x0230|   00                                          | .              |            attr_some_instructions: false 0x231.5-0x231.6 (0.1)
0x0230|   00                                          | .              |            attr_ext_reloc: false 0x231.6-0x231.7 (0.1)
0x0230|   00                                          | .              |            attr_loc_reloc: false 0x231.7-0x232 (0.1)
0x0230|      00                                       |  .             |            reserved1: raw bits 0x232-0x233 (1)
0x0230|         00                                    |   .            |            attr_pure_instructions: false 0x233-0x233.1 (0.1)
0x0230|         00                                    |   .            |            attr_no_toc: false 0x233.1-0x233.2 (0.1)
0x0230|         00                                    |   .            |            attr_strip_static_syms: false 0x233.2-0x233.3 (0.1)
0x0230|         00                                    |   .            |            attr_no_dead_strip: false 0x233.3-0x233.4 (0.1)
0x0230|         00                                    |   .            |            attr_live_support: false 0x233.4-0x233.5 (0.1)
0x0230|         00                                    |   .            |            attr_self_modifying_code: false 0x233.5-0x233.6 (0.1)
0x0230|         00                                    |   .            |            attr_debug: false 0x233.6-0x233.7 (0.1)
0x0230|         00                                    |   .            |            reserved0: raw bits 0x233.7-0x234 (0.1)
0x0230|            00 00 00 00                        |    ....        |          reserved1: 0 0x234-0x238 (4)
0x0230|                        00 00 00 00            |        ....    |          reserved2: 0 0x238-0x23c (4)
0x0230|                                    00 00 00 00|            ....|          reserved3: 0 0x23c-0x240 (4)
0x3fb0|                        01 00 00 00 1c 00 00 00|        ........|          data: raw bits 0x3fb8-0x4000 (72)
0x3fc0|00 00 00 00 1c 00 00 00 00 00 00 00 1c 00 00 00|................|
*     |until 0x3fff.7 (72)                            |                |
      |                                               |                |    [2]{}: load_command 0x240-0x4008 (15816)
0x0240|19 00 00 00                                    |....            |      cmd: "segment_64" (0x19) 0x240-0x244 (4)
0x0240|            98 00 00 00                        |    ....        |      cmdsize: 152 0x244-0x248 (4)
      |                                               |                |      segment_command{}: 0x248-0x288 (64)
      |                                               |                |        arch_bits: 64
0x0240|                        5f 5f 44 41 54 41 5f 43|        __DATA_C|        segname: "__DATA_CONST" 0x248-0x258 (16)
0x0250|4f 4e 53 54 00 00 00 00                        |ONST....        |
0x0250|                        00 40 00 00 01 00 00 00|        .@......|        vmaddr: 0x100004000 0x258-0x260 (8)
0x0260|00 40 00 00 00 00 00 00                        |.@......        |        vmsize: 16384 0x260-0x268 (8)
0x0260|                        00 40 00 00 00 00 00 00|        .@......|        fileoff: 0x4000 0x268-0x270 (8)
0x0270|00 40 00 00 00 00 00 00                        |.@......        |        tfilesize: 16384 0x270-0x278 (8)
0x0270|                        03 00 00 00            |        ....    |        initprot: 3 0x278-0x27c (4)
0x0270|                                    03 00 00 00|            ....|        maxprot: 3 0x27c-0x280 (4)
0x0280|01 00 00 00                                    |....            |        nsects: 1 0x280-0x284 (4)
      |                                               |                |        flags{}: 0x284-0x288 (4)
0x0280|            10                                 |    .           |          reserved0: raw bits 0x284-0x284.4 (0.4)
0x0280|            10                                 |    .           |          protected_version_1: false 0x284.4-0x284.5 (0.1)
0x0280|            10                                 |    .           |          noreloc: false 0x284.5-0x284.6 (0.1)
0x0280|            10                                 |    .           |          fvmlib: false 0x284.6-0x284.7 (0.1)
0x0280|            10                                 |    .           |          highvm: false 0x284.7-0x285 (0.1)
0x0280|               00 00 00                        |     ...        |          reserved1: raw bits 0x285-0x288 (3)
      |                                               |                |      sections[0:1]: 0x288-0x4008 (15744)
      |                                               |                |        [0]{}: section 0x288-0x4008 (15744)
0x0280|                        5f 5f 67 6f 74 00 00 00|        __got...|          sectname: "__got" 0x288-0x298 (16)
0x0290|00 00 00 00 00 00 00 00                        |........        |
0x0290|                        5f 5f 44 41 54 41 5f 43|        __DATA_C|          segname: "__DATA_CONST" 0x298-0x2a8 (16)
0x02a0|4f 4e 53 54 00 00 00 00                        |ONST....        |
0x02a0|                        00 40 00 00 01 00 00 00|        .@......|          address: 0x100004000 0x2a8-0x2b0 (8)
0x02b0|08 00 00 00 00 00 00 00                        |........        |          size: 8 0x2b0-0x2b8 (8)
0x02b0|                        00 40 00 00            |        .@..    |          offset: 0x4000 0x2b8-0x2bc (4)
0x02b0|                                    03 00 00 00|            ....|          align: 3 0x2bc-0x2c0 (4)
0x02c0|00 00 00 00                                    |....            |          reloff: 0 0x2c0-0x2c4 (4)
0x02c0|            00 00 00 00                        |    ....        |          nreloc: 0 0x2c4-0x2c8 (4)
      |                                               |                |          flags{}: 0x2c8-0x2cc (4)
0x02c0|                        06                     |        .       |            type: "non_lazy_symbol_pointers" (6) 0x2c8-0x2c9 (1)
0x02c0|                           00                  |         .      |            reserved2: raw bits 0x2c9-0x2c9.5 (0.5)
0x02c0|                           00                  |         .      |            attr_some_instructions: false 0x2c9.5-0x2c9.6 (0.1)
0x02c0|                           00                  |         .      |            attr_ext_reloc: false 0x2c9.6-0x2c9.7 (0.1)
0x02c0|                           00                  |         .      |            attr_loc_reloc: false 0x2c9.7-0x2ca (0.1)
0x02c0|                              00               |          .     |            reserved1: raw bits 0x2ca-0x2cb (1)
0x02c0|                                 00            |           .    |            attr_pure_instructions: false 0x2cb-0x2cb.1 (0.1)
0x02c0|                                 00            |           .    |            attr_no_toc: false 0x2cb.1-0x2cb.2 (0.1)
0x02c0|                                 00            |           .    |            attr_strip_static_syms: false 0x2cb.2-0x2cb.3 (0.1)
0x02c0|                                 00            |           .    |            attr_no_dead_strip: false 0x2cb.3-0x2cb.4 (0.1)
0x02c0|                                 00            |           .    |            attr_live_support: false 0x2cb.4-0x2cb.5 (0.1)
0x02c0|                                 00            |           .    |            attr_self_modifying_code: false 0x2cb.5-0x2cb.6 (0.1)
0x02c0|                                 00            |           .    |            attr_debug: false 0x2cb.6-0x2cb.7 (0.1)
0x02c0|                                 00            |           .    |            reserved0: raw bits 0x2cb.7-0x2cc (0.1)
0x02c0|                                    01 00 00 00|            ....|          reserved1: 1 0x2cc-0x2d0 (4)
0x02d0|00 00 00 00                                    |....            |          reserved2: 0 0x2d0-0x2d4 (4)
0x02d0|            00 00 00 00                        |    ....        |          reserved3: 0 0x2d4-0x2d8 (4)
0x4000|00 00 00 00 00 00 00 00                        |........        |          data: raw bits 0x4000-0x4008 (8)
      |                                               |                |    [3]{}: load_command 0x2d8-0x8010 (32056)
0x02d0|                        19 00 00 00            |        ....    |      cmd: "segment_64" (0x19) 0x2d8-0x2dc (4)
0x02d0|                                    e8 00 00 00|            ....|      cmdsize: 232 0x2dc-0x2e0 (4)
      |                                               |                |      segment_command{}: 0x2e0-0x320 (64)
      |                                               |                |        arch_bits: 64
0x02e0|5f 5f 44 41 54 41 00 00 00 00 00 00 00 00 00 00|__DATA..........|        segname: "__DATA" 0x2e0-0x2f0 (16)
0x02f0|00 80 00 00 01 00 00 00                        |........        |        vmaddr: 0x100008000 0x2f0-0x2f8 (8)
0x02f0|                        00 40 00 00 00 00 00 00|        .@......|        vmsize: 16384 0x2f8-0x300 (8)
0x0300|00 80 00 00 00 00 00 00                        |........        |        fileoff: 0x8000 0x300-0x308 (8)
0x0300|                        00 40 00 00 00 00 00 00|        .@......|        tfilesize: 16384 0x308-0x310 (8)
0x0310|03 00 00 00                                    |....            |        initprot: 3 0x310-0x314 (4)
0x0310|            03 00 00 00                        |    ....        |        maxprot: 3 0x314-0x318 (4)
0x0310|                        02 00 00 00            |        ....    |        nsects: 2 0x318-0x31c (4)
      |                                               |                |        flags{}: 0x31c-0x320 (4)
0x0310|                                    00         |            .   |          reserved0: raw bits 0x31c-0x31c.4 (0.4)
0x0310|                                    00         |            .   |          protected_version_1: false 0x31c.4-0x31c.5 (0.1)
0x0310|                                    00         |            .   |          noreloc: false 0x31c.5-0x31c.6 (0.1)
0x0310|                                    00         |            .   |          fvmlib: false 0x31c.6-0x31c.7 (0.1)
0x0310|                                    00         |            .   |          highvm: false 0x31c.7-0x31d (0.1)
0x0310|                                       00 00 00|             ...|          reserved1: raw bits 0x31d-0x320 (3)
      |                                               |                |      sections[0:2]: 0x320-0x8010 (31984)
      |                                               |                |        [0]{}: section 0x320-0x8008 (31976)
0x0320|5f 5f 6c 61 5f 73 79 6d 62 6f 6c 5f 70 74 72 00|__la_symbol_ptr.|          sectname: "__la_symbol_ptr" 0x320-0x330 (16)
0x0330|5f 5f 44 41 54 41 00 00 00 00 00 00 00 00 00 00|__DATA..........|          segname: "__DATA" 0x330-0x340 (16)
0x0340|00 80 00 00 01 00 00 00                        |........        |          address: 0x100008000 0x340-0x348 (8)
0x0340|                        08 00 00 00 00 00 00 00|        ........|          size: 8 0x348-0x350 (8)
0x0350|00 80 00 00                                    |....            |          offset: 0x8000 0x350-0x354 (4)
0x0350|            03 00 00 00                        |    ....        |          align: 3 0x354-0x358 (4)
0x0350|                        00 00 00 00            |        ....    |          reloff: 0 0x358-0x35c (4)
0x0350|                                    00 00 00 00|            ....|          nreloc: 0 0x35c-0x360 (4)
      |                                               |                |          flags{}: 0x360-0x364 (4)
0x0360|07                                             |.               |            type: "lazy_symbol_pointers" (7) 0x360-0x361 (1)
0x0360|   00                                          | .              |            reserved2: raw bits 0x361-0x361.5 (0.5)
0x0360|   00                                          | .              |            attr_some_instructions: false 0x361.5-0x361.6 (0.1)
0x0360|   00                                          | .              |            attr_ext_reloc: false 0x361.6-0x361.7 (0.1)
0x0360|   00                                          | .              |            attr_loc_reloc: false 0x361.7-0x362 (0.1)
0x0360|      00                                       |  .             |            reserved1: raw bits 0x362-0x363 (1)
0x0360|         00                                    |   .            |            attr_pure_instructions: false 0x363-0x363.1 (0.1)
0x0360|         00                                    |   .            |            attr_no_toc: false 0x363.1-0x363.2 (0.1)
0x0360|         00                                    |   .            |            attr_strip_static_syms: false 0x363.2-0x363.3 (0.1)
0x0360|         00                                    |   .            |            attr_no_dead_strip: false 0x363.3-0x363.4 (0.1)
0x0360|         00                                    |   .            |            attr_live_support: false 0x363.4-0x363.5 (0.1)
0x0360|         00                                    |   .            |            attr_self_modifying_code: false 0x363.5-0x363.6 (0.1)
0x0360|         00                                    |   .            |            attr_debug: false 0x363.6-0x363.7 (0.1)
0x0360|         00                                    |   .            |            reserved0: raw bits 0x363.7-0x364 (0.1)
0x0360|            02 00 00 00                        |    ....        |          reserved1: 2 0x364-0x368 (4)
0x0360|                        00 00 00 00            |        ....    |          reserved2: 0 0x368-0x36c (4)
0x0360|                                    00 00 00 00|            ....|          reserved3: 0 0x36c-0x370 (4)
0x8000|98 3f 00 00 01 00 00 00                        |.?......        |          data: raw bits 0x8000-0x8008 (8)
      |                                               |                |        [1]{}: section 0x370-0x8010 (31904)
0x0370|5f 5f 64 61 74 61 00 00 00 00 00 00 00 00 00 00|__data..........|          sectname: "__data" 0x370-0x380 (16)
0x0380|5f 5f 44 41 54 41 00 00 00 00 00 00 00 00 00 00|__DATA..........|          segname: "__DATA" 0x380-0x390 (16)
0x0390|08 80 00 00 01 00 00 00                        |........        |          address: 0x100008008 0x390-0x398 (8)
0x0390|                        08 00 00 00 00 00 00 00|        ........|          size: 8 0x398-0x3a0 (8)
0x03a0|08 80 00 00                                    |....            |          offset: 0x8008 0x3a0-0x3a4 (4)
0x03a0|            03 00 00 00                        |    ....        |          align: 3 0x3a4-0x3a8 (4)
0x03a0|                        00 00 00 00            |        ....    |          reloff: 0 0x3a8-0x3ac (4)
0x03a0|                                    00 00 00 00|            ....|          nreloc: 0 0x3ac-0x3b0 (4)
      |                                               |                |          flags{}: 0x3b0-0x3b4 (4)
0x03b0|00                                             |.               |            type: "regular" (0) 0x3b0-0x3b1 (1)
0x03b0|   00                                          | .              |            reserved2: raw bits 0x3b1-0x3b1.5 (0.5)
0x03b0|   00                                          | .              |            attr_some_instructions: false 0x3b1.5-0x3b1.6 (0.1)
0x03b0|   00                                          | .              |            attr_ext_reloc: false 0x3b1.6-0x3b1.7 (0.1)
0x03b0|   00                                          | .              |            attr_loc_reloc: false 0x3b1.7-0x3b2 (0.1)
0x03b0|      00                                       |  .             |            reserved1: raw bits 0x3b2-0x3b3 (1)
0x03b0|         00                                    |   .            |            attr_pure_instructions: false 0x3b3-0x3b3.1 (0.1)
0x03b0|         00                                    |   .            |            attr_no_toc: false 0x3b3.1-0x3b3.2 (0.1)
0x03b0|         00                                    |   .            |            attr_strip_static_syms: false 0x3b3.2-0x3b3.3 (0.1)
0x03b0|         00                                    |   .            |            attr_no_dead_strip: false 0x3b3.3-0x3b3.4 (0.1)
0x03b0|         00                                    |   .            |            attr_live_support: false 0x3b3.4-0x3b3.5 (0.1)
0x03b0|         00                                    |   .            |            attr_self_modifying_code: false 0x3b3.5-0x3b3.6 (0.1)
0x03b0|         00                                    |   .            |            attr_debug: false 0x3b3.6-0x3b3.7 (0.1)
0x03b0|         00                                    |   .            |            reserved0: raw bits 0x3b3.7-0x3b4 (0.1)
0x03b0|            00 00 00 00                        |    ....        |          reserved1: 0 0x3b4-0x3b8 (4)
0x03b0|                        00 00 00 00            |        ....    |          reserved2: 0 0x3b8-0x3bc (4)
0x03b0|                                    00 00 00 00|            ....|          reserved3: 0 0x3bc-0x3c0 (4)
0x8000|                        00 00 00 00 00 00 00 00|        ........|          data: raw bits 0x8008-0x8010 (8)
      |                                               |                |    [4]{}: load_command 0x3c0-0x408 (72)
0x03c0|19 00 00 00                                    |....            |      cmd: "segment_64" (0x19) 0x3c0-0x3c4 (4)
0x03c0|            48 00 00 00                        |    H...        |      cmdsize: 72 0x3c4-0x3c8 (4)
      |                                               |                |      segment_command{}: 0x3c8-0x408 (64)
      |                                               |                |        arch_bits: 64
0x03c0|                        5f 5f 4c 49 4e 4b 45 44|        __LINKED|        segname: "__LINKEDIT" 0x3c8-0x3d8 (16)
0x03d0|49 54 00 00 00 00 00 00                        |IT......        |
0x03d0|                        00 c0 00 00 01 00 00 00|        ........|        vmaddr: 0x10000c000 0x3d8-0x3e0 (8)
0x03e0|00 40 00 00 00 00 00 00                        |.@......        |        vmsize: 16384 0x3e0-0x3e8 (8)
0x03e0|                        00 c0 00 00 00 00 00 00|        ........|        fileoff: 0xc000 0x3e8-0x3f0 (8)
0x03f0|75 03 00 00 00 00 00 00                        |u.......        |        tfilesize: 885 0x3f0-0x3f8 (8)
0x03f0|                        01 00 00 00            |        ....    |        initprot: 1 0x3f8-0x3fc (4)
0x03f0|                                    01 00 00 00|            ....|        maxprot: 1 0x3fc-0x400 (4)
0x0400|00 00 00 00                                    |....            |        nsects: 0 0x400-0x404 (4)
      |                                               |                |        flags{}: 0x404-0x408 (4)
0x0400|            00                                 |    .           |          reserved0: raw bits 0x404-0x404.4 (0.4)
0x0400|            00                                 |    .           |          protected_version_1: false 0x404.4-0x404.5 (0.1)
0x0400|            00                                 |    .           |          noreloc: false 0x404.5-0x404.6 (0.1)
0x0400|            00                                 |    .           |          fvmlib: false 0x404.6-0x404.7 (0.1)
0x0400|            00                                 |    .           |          highvm: false 0x404.7-0x405 (0.1)
0x0400|               00 00 00                        |     ...        |          reserved1: raw bits 0x405-0x408 (3)
      |                                               |                |      sections[0:0]: 0x408-0x408 (0)
      |                                               |                |    [5]{}: load_command 0x408-0x438 (48)
0x0400|                        22 00 00 80            |        "...    |      cmd: "dyld_info_only" (0x80000022) 0x408-0x40c (4)
0x0400|                                    30 00 00 00|            0...|      cmdsize: 48 0x40c-0x410 (4)
      |                                               |                |      dyld_info{}: 0x410-0x438 (40)
0x0410|00 c0 00 00                                    |....            |        rebase_off: 0xc000 0x410-0x414 (4)
0x0410|            08 00 00 00                        |    ....        |        rebase_size: 8 0x414-0x418 (4)
0x0410|                        08 c0 00 00            |        ....    |        bind_off: 0xc008 0x418-0x41c (4)
0x0410|                                    18 00 00 00|            ....|        bind_size: 24 0x41c-0x420 (4)
0x0420|00 00 00 00                                    |....            |        weak_bind_off: 0x0 0x420-0x424 (4)
0x0420|            00 00 00 00                        |    ....        |        weak_bind_size: 0 0x424-0x428 (4)
0x0420|                        20 c0 00 00            |         ...    |        lazy_bind_off: 0xc020 0x428-0x42c (4)
0x0420|                                    10 00 00 00|            ....|        lazy_bind_size: 16 0x42c-0x430 (4)
0x0430|30 c0 00 00                                    |0...            |        export_off: 0xc030 0x430-0x434 (4)
0x0430|            48 00 00 00                        |    H...        |        export_size: 72 0x434-0x438 (4)
      |                                               |                |    [6]{}: load_command 0x438-0xc158 (48416)
0x0430|                        02 00 00 00            |        ....    |      cmd: "symtab" (0x2) 0x438-0x43c (4)
0x0430|                                    18 00 00 00|            ....|      cmdsize: 24 0x43c-0x440 (4)
0x0440|80 c0 00 00                                    |....            |      symoff: 49280 0x440-0x444 (4)
0x0440|            07 00 00 00                        |    ....        |      nsyms: 7 0x444-0x448 (4)
0x0440|                        00 c1 00 00            |        ....    |      stroff: 49408 0x448-0x44c (4)
0x0440|                                    58 00 00 00|            X...|      strsize: 88 0x44c-0x450 (4)
      |                                               |                |      symbols[0:7]: 0xc080-0xc0f0 (112)
      |                                               |                |        [0]{}: symbol 0xc080-0xc090 (16)
0xc080|46 00 00 00                                    |F...            |          strx: "__dyld_private" (70) 0xc080-0xc084 (4)
      |                                               |                |          type{}: 0xc084-0xc085 (1)
0xc080|            0e                                 |    .           |            stab: 0 0xc084-0xc084.3 (0.3)
0xc080|            0e                                 |    .           |            pext: 0 0xc084.3-0xc084.4 (0.1)
0xc080|            0e                                 |    .           |            type: "sect" (7) 0xc084.4-0xc084.7 (0.3)
0xc080|            0e                                 |    .           |            ext: 0 0xc084.7-0xc085 (0.1)
0xc080|               08                              |     .          |          sect: 8 0xc085-0xc086 (1)
0xc080|                  00 00                        |      ..        |          desc: 0 0xc086-0xc088 (2)
0xc080|                        08 80 00 00 01 00 00 00|        ........|          value: 0x100008008 0xc088-0xc090 (8)
      |                                               |                |        [1]{}: symbol 0xc090-0xc0a0 (16)
0xc090|02 00 00 00                                    |....            |          strx: "__mh_execute_header" (2) 0xc090-0xc094 (4)
      |                                               |                |          type{}: 0xc094-0xc095 (1)
0xc090|            0f                                 |    .           |            stab: 0 0xc094-0xc094.3 (0.3)
0xc090|            0f                                 |    .           |            pext: 0 0xc094.3-0xc094.4 (0.1)
0xc090|            0f                                 |    .           |            type: "sect" (7) 0xc094.4-0xc094.7 (0.3)
0xc090|            0f                                 |    .           |            ext: 1 0xc094.7-0xc095 (0.1)
0xc090|               01                              |     .          |          sect: 1 0xc095-0xc096 (1)
0xc090|                  10 00                        |      ..        |          desc: 16 0xc096-0xc098 (2)
0xc090|                        00 00 00 00 01 00 00 00|        ........|          value: 0x100000000 0xc098-0xc0a0 (8)
      |                                               |                |        [2]{}: symbol 0xc0a0-0xc0b0 (16)
0xc0a0|16 00 00 00                                    |....            |          strx: "_aaa" (22) 0xc0a0-0xc0a4 (4)
      |                                               |                |          type{}: 0xc0a4-0xc0a5 (1)
0xc0a0|            0f                                 |    .           |            stab: 0 0xc0a4-0xc0a4.3 (0.3)
0xc0a0|            0f                                 |    .           |            pext: 0 0xc0a4.3-0xc0a4.4 (0.1)
0xc0a0|            0f                                 |    .           |            type: "sect" (7) 0xc0a4.4-0xc0a4.7 (0.3)
0xc0a0|            0f                                 |    .           |            ext: 1 0xc0a4.7-0xc0a5 (0.1)
0xc0a0|               01                              |     .          |          sect: 1 0xc0a5-0xc0a6 (1)
0xc0a0|                  00 00                        |      ..        |          desc: 0 0xc0a6-0xc0a8 (2)
0xc0a0|                        20 3f 00 00 01 00 00 00|         ?......|          value: 0x100003f20 0xc0a8-0xc0b0 (8)
      |                                               |                |        [3]{}: symbol 0xc0b0-0xc0c0 (16)
0xc0b0|1b 00 00 00                                    |....            |          strx: "_libbbb_bbb" (27) 0xc0b0-0xc0b4 (4)
      |                                               |                |          type{}: 0xc0b4-0xc0b5 (1)
0xc0b0|            0f                                 |    .           |            stab: 0 0xc0b4-0xc0b4.3 (0.3)
0xc0b0|            0f                                 |    .           |            pext: 0 0xc0b4.3-0xc0b4.4 (0.1)
0xc0b0|            0f                                 |    .           |            type: "sect" (7) 0xc0b4.4-0xc0b4.7 (0.3)
0xc0b0|            0f                                 |    .           |            ext: 1 0xc0b4.7-0xc0b5 (0.1)
0xc0b0|               01                              |     .          |          sect: 1 0xc0b5-0xc0b6 (1)
0xc0b0|                  00 00                        |      ..        |          desc: 0 0xc0b6-0xc0b8 (2)
0xc0b0|                        58 3f 00 00 01 00 00 00|        X?......|          value: 0x100003f58 0xc0b8-0xc0c0 (8)
      |                                               |                |        [4]{}: symbol 0xc0c0-0xc0d0 (16)
0xc0c0|27 00 00 00                                    |'...            |          strx: "_main" (39) 0xc0c0-0xc0c4 (4)
      |                                               |                |          type{}: 0xc0c4-0xc0c5 (1)
0xc0c0|            0f                                 |    .           |            stab: 0 0xc0c4-0xc0c4.3 (0.3)
0xc0c0|            0f                                 |    .           |            pext: 0 0xc0c4.3-0xc0c4.4 (0.1)
0xc0c0|            0f                                 |    .           |            type: "sect" (7) 0xc0c4.4-0xc0c4.7 (0.3)
0xc0c0|            0f                                 |    .           |            ext: 1 0xc0c4.7-0xc0c5 (0.1)
0xc0c0|               01                              |     .          |          sect: 1 0xc0c5-0xc0c6 (1)
0xc0c0|                  00 00                        |      ..        |          desc: 0 0xc0c6-0xc0c8 (2)
0xc0c0|                        3c 3f 00 00 01 00 00 00|        <?......|          value: 0x100003f3c 0xc0c8-0xc0d0 (8)
      |                                               |                |        [5]{}: symbol 0xc0d0-0xc0e0 (16)
0xc0d0|2d 00 00 00                                    |-...            |          strx: "_printf" (45) 0xc0d0-0xc0d4 (4)
      |                                               |                |          type{}: 0xc0d4-0xc0d5 (1)
0xc0d0|            01                                 |    .           |            stab: 0 0xc0d4-0xc0d4.3 (0.3)
0xc0d0|            01                                 |    .           |            pext: 0 0xc0d4.3-0xc0d4.4 (0.1)
0xc0d0|            01                                 |    .           |            type: "undef" (0) 0xc0d4.4-0xc0d4.7 (0.3)
0xc0d0|            01                                 |    .           |            ext: 1 0xc0d4.7-0xc0d5 (0.1)
0xc0d0|               00                              |     .          |          sect: 0 0xc0d5-0xc0d6 (1)
0xc0d0|                  00 01                        |      ..        |          desc: 256 0xc0d6-0xc0d8 (2)
0xc0d0|                        00 00 00 00 00 00 00 00|        ........|          value: 0x0 0xc0d8-0xc0e0 (8)
      |                                               |                |        [6]{}: symbol 0xc0e0-0xc0f0 (16)
0xc0e0|35 00 00 00                                    |5...            |          strx: "dyld_stub_binder" (53) 0xc0e0-0xc0e4 (4)
      |                                               |                |          type{}: 0xc0e4-0xc0e5 (1)
0xc0e0|            01                                 |    .           |            stab: 0 0xc0e4-0xc0e4.3 (0.3)
0xc0e0|            01                                 |    .           |            pext: 0 0xc0e4.3-0xc0e4.4 (0.1)
0xc0e0|            01                                 |    .           |            type: "undef" (0) 0xc0e4.4-0xc0e4.7 (0.3)
0xc0e0|            01                                 |    .           |            ext: 1 0xc0e4.7-0xc0e5 (0.1)
0xc0e0|               00                              |     .          |          sect: 0 0xc0e5-0xc0e6 (1)
0xc0e0|                  00 01                        |      ..        |          desc: 256 0xc0e6-0xc0e8 (2)
0xc0e0|                        00 00 00 00 00 00 00 00|        ........|          value: 0x0 0xc0e8-0xc0f0 (8)
0xc100|20 00 5f 5f 6d 68 5f 65 78 65 63 75 74 65 5f 68| .__mh_execute_h|      str_table: raw bits 0xc100-0xc158 (88)
*     |until 0xc157.7 (88)                            |                |
      |                                               |                |    [7]{}: load_command 0x450-0x4a0 (80)
0x0450|0b 00 00 00                                    |....            |      cmd: "dysymtab" (0xb) 0x450-0x454 (4)
0x0450|            50 00 00 00                        |    P...        |      cmdsize: 80 0x454-0x458 (4)
0x0450|                        00 00 00 00            |        ....    |      ilocalsym: 0 0x458-0x45c (4)
0x0450|                                    01 00 00 00|            ....|      nlocalsym: 1 0x45c-0x460 (4)
0x0460|01 00 00 00                                    |....            |      iextdefsym: 1 0x460-0x464 (4)
0x0460|            04 00 00 00                        |    ....        |      nextdefsym: 4 0x464-0x468 (4)
0x0460|                        05 00 00 00            |        ....    |      iundefsym: 5 0x468-0x46c (4)
0x0460|                                    02 00 00 00|            ....|      nundefsym: 2 0x46c-0x470 (4)
0x0470|00 00 00 00                                    |....            |      tocoff: 0 0x470-0x474 (4)
0x0470|            00 00 00 00                        |    ....        |      ntoc: 0 0x474-0x478 (4)
0x0470|                        00 00 00 00            |        ....    |      modtaboff: 0 0x478-0x47c (4)
0x0470|                                    00 00 00 00|            ....|      nmodtab: 0 0x47c-0x480 (4)
0x0480|00 00 00 00                                    |....            |      extrefsymoff: 0 0x480-0x484 (4)
0x0480|            00 00 00 00                        |    ....        |      nextrefsyms: 0 0x484-0x488 (4)
0x0480|                        f0 c0 00 00            |        ....    |      indirectsymoff: 49392 0x488-0x48c (4)
0x0480|                                    03 00 00 00|            ....|      nindirectsyms: 3 0x48c-0x490 (4)
0x0490|00 00 00 00                                    |....            |      extreloff: 0 0x490-0x494 (4)
0x0490|            00 00 00 00                        |    ....        |      nextrel: 0 0x494-0x498 (4)
0x0490|                        00 00 00 00            |        ....    |      locreloff: 0 0x498-0x49c (4)
0x0490|                                    00 00 00 00|            ....|      nlocrel: 0 0x49c-0x4a0 (4)
      |                                               |                |    [8]{}: load_command 0x4a0-0x4c0 (32)
0x04a0|0e 00 00 00                                    |....            |      cmd: "load_dylinker" (0xe) 0x4a0-0x4a4 (4)
0x04a0|            20 00 00 00                        |     ...        |      cmdsize: 32 0x4a4-0x4a8 (4)
0x04a0|                        0c 00 00 00            |        ....    |      offset: 0xc 0x4a8-0x4ac (4)
0x04a0|                                    2f 75 73 72|            /usr|      name: "/usr/lib/dyld" 0x4ac-0x4c0 (20)
0x04b0|2f 6c 69 62 2f 64 79 6c 64 00 00 00 00 00 00 00|/lib/dyld.......|
      |                                               |                |    [9]{}: load_command 0x4c0-0x4d8 (24)
0x04c0|1b 00 00 00                                    |....            |      cmd: "uuid" (0x1b) 0x4c0-0x4c4 (4)
0x04c0|            18 00 00 00                        |    ....        |      cmdsize: 24 0x4c4-0x4c8 (4)
      |                                               |                |      uuid_command{}: 0x4c8-0x4d8 (16)
0x04c0|                        a8 20 9f ff 52 b7 35 f9|        . ..R.5.|        uuid: raw bits 0x4c8-0x4d8 (16)
0x04d0|bb c4 e4 cd 80 88 20 6e                        |...... n        |
      |                                               |                |    [10]{}: load_command 0x4d8-0x4f8 (32)
0x04d0|                        32 00 00 00            |        2...    |      cmd: "build_version" (0x32) 0x4d8-0x4dc (4)
0x04d0|                                    20 00 00 00|             ...|      cmdsize: 32 0x4dc-0x4e0 (4)
0x04e0|01 00 00 00                                    |....            |      platform: 1 0x4e0-0x4e4 (4)
0x04e0|            00 00 0b 00                        |    ....        |      minos: 720896 0x4e4-0x4e8 (4)
0x04e0|                        00 00 0b 00            |        ....    |      sdk: 720896 0x4e8-0x4ec (4)
0x04e0|                                    01 00 00 00|            ....|      ntools: 1 0x4ec-0x4f0 (4)
      |                                               |                |      tools[0:1]: 0x4f0-0x4f8 (8)
      |                                               |                |        [0]{}: tool 0x4f0-0x4f8 (8)
0x04f0|03 00 00 00                                    |....            |          tool: 3 0x4f0-0x4f4 (4)
0x04f0|            00 00 c7 02                        |    ....        |          version: 46596096 0x4f4-0x4f8 (4)
      |                                               |                |    [11]{}: load_command 0x4f8-0x508 (16)
0x04f0|                        2a 00 00 00            |        *...    |      cmd: "source_version" (0x2a) 0x4f8-0x4fc (4)
0x04f0|                                    10 00 00 00|            ....|      cmdsize: 16 0x4fc-0x500 (4)
      |                                               |                |      source_version_tag{}: 0x500-0x508 (8)
0x0500|00 00 00 00 00 00 00 00                        |........        |        tag: 0 0x500-0x508 (8)
      |                                               |                |    [12]{}: load_command 0x508-0x520 (24)
0x0500|                        28 00 00 80            |        (...    |      cmd: "main" (0x80000028) 0x508-0x50c (4)
0x0500|                                    18 00 00 00|            ....|      cmdsize: 24 0x50c-0x510 (4)
      |                                               |                |      entrypoint{}: 0x510-0x520 (16)
0x0510|3c 3f 00 00 00 00 00 00                        |<?......        |        entryoff: 0x3f3c 0x510-0x518 (8)
0x0510|                        00 00 00 00 00 00 00 00|        ........|        stacksize: 0 0x518-0x520 (8)
      |                                               |                |    [13]{}: load_command 0x520-0x558 (56)
0x0520|0c 00 00 00                                    |....            |      cmd: "load_dylib" (0xc) 0x520-0x524 (4)
0x0520|            38 00 00 00                        |    8...        |      cmdsize: 56 0x524-0x528 (4)
      |                                               |                |      dylib_command{}: 0x528-0x558 (48)
0x0520|                        18 00 00 00            |        ....    |        offset: 0x18 0x528-0x52c (4)
0x0520|                                    02 00 00 00|            ....|        timestamp: 2 (1970-01-01T00:00:02Z) 0x52c-0x530 (4)
0x0530|05 64 0c 05                                    |.d..            |        current_version: 84698117 0x530-0x534 (4)
0x0530|            00 00 01 00                        |    ....        |        compatibility_version: 65536 0x534-0x538 (4)
0x0530|                        2f 75 73 72 2f 6c 69 62|        /usr/lib|        name: "/usr/lib/libSystem.B.dylib" 0x538-0x558 (32)
0x0540|2f 6c 69 62 53 79 73 74 65 6d 2e 42 2e 64 79 6c|/libSystem.B.dyl|
0x0550|69 62 00 00 00 00 00 00                        |ib......        |
      |                                               |                |    [14]{}: load_command 0x558-0x568 (16)
0x0550|                        26 00 00 00            |        &...    |      cmd: "function_starts" (0x26) 0x558-0x55c (4)
0x0550|                                    10 00 00 00|            ....|      cmdsize: 16 0x55c-0x560 (4)
      |                                               |                |      linkedit_data{}: 0x560-0x568 (8)
0x0560|78 c0 00 00                                    |x...            |        off: 49272 0x560-0x564 (4)
0x0560|            08 00 00 00                        |    ....        |        size: 8 0x564-0x568 (4)
      |                                               |                |    [15]{}: load_command 0x568-0x578 (16)
0x0560|                        29 00 00 00            |        )...    |      cmd: "data_in_code" (0x29) 0x568-0x56c (4)
0x0560|                                    10 00 00 00|            ....|      cmdsize: 16 0x56c-0x570 (4)
      |                                               |                |      linkedit_data{}: 0x570-0x578 (8)
0x0570|80 c0 00 00                                    |....            |        off: 49280 0x570-0x574 (4)
0x0570|            00 00 00 00                        |    ....        |        size: 0 0x574-0x578 (4)
      |                                               |                |    [16]{}: load_command 0x578-0x588 (16)
0x0570|                        1d 00 00 00            |        ....    |      cmd: "code_signature" (0x1d) 0x578-0x57c (4)
0x0570|                                    10 00 00 00|            ....|      cmdsize: 16 0x57c-0x580 (4)
      |                                               |                |      linkedit_data{}: 0x580-0x588 (8)
0x0580|60 c1 00 00                                    |`...            |        off: 49504 0x580-0x584 (4)
0x0580|            15 02 00 00                        |    ....        |        size: 533 0x584-0x588 (4)
0x0580|                        00 00 00 00 00 00 00 00|        ........|  gap0: raw bits 0x588-0x3f20 (14744)
0x0590|00 00 00 00 00 00 00 00 00 00 00 00 00 00 00 00|................|
*     |until 0x3f1f.7 (14744)                         |                |
0x3fb0|               00 00 00                        |     ...        |  gap1: raw bits 0x3fb5-0x3fb8 (3)
0x4000|                        00 00 00 00 00 00 00 00|        ........|  gap2: raw bits 0x4008-0x8000 (16376)
0x4010|00 00 00 00 00 00 00 00 00 00 00 00 00 00 00 00|................|
*     |until 0x7fff.7 (16376)                         |                |
0x8010|00 00 00 00 00 00 00 00 00 00 00 00 00 00 00 00|................|  gap3: raw bits 0x8010-0xc080 (16496)
*     |until 0xc07f.7 (16496)                         |                |
0xc0f0|05 00 00 00 06 00 00 00 05 00 00 00 00 00 00 00|................|  gap4: raw bits 0xc0f0-0xc100 (16)
0xc150|                        00 00 00 00 00 00 00 00|        ........|  gap5: raw bits 0xc158-0xc375 (541)
0xc160|fa de 0c c0 00 00 02 15 00 00 00 01 00 00 00 00|................|
*     |until 0xc374.7 (end) (541)                     |                |
