$ fq dv libbbb.so
      |00 01 02 03 04 05 06 07 08 09 0a 0b 0c 0d 0e 0f|0123456789abcdef|.{}: libbbb.so (macho) 0x0-0xc2f6 (49910)
      |                                               |                |  header{}: 0x0-0x20 (32)
      |                                               |                |    arch_bits: 64
0x0000|cf fa ed fe                                    |....            |    magic: "64le" (0xfeedfacf) (64-bit little endian) 0x0-0x4 (4)
      |                                               |                |    bits: 64
0x0000|            0c 00 00 01                        |    ....        |    cputype: "arm64" (0x100000c) 0x4-0x8 (4)
0x0000|                        00 00 00 00            |        ....    |    cpusubtype: 0x0 0x8-0xc (4)
0x0000|                                    06 00 00 00|            ....|    filetype: "dylib" (6) 0xc-0x10 (4)
0x0010|0f 00 00 00                                    |....            |    ncdms: 15 0x10-0x14 (4)
0x0010|            10 05 00 00                        |    ....        |    sizeofncdms: 1296 0x14-0x18 (4)
      |                                               |                |    flags{}: 0x18-0x1c (4)
0x0010|                        85                     |        .       |      reserved: raw bits 0x18-0x18.6 (0.6)
0x0010|                        85                     |        .       |      app_extension_safe: false 0x18.6-0x18.7 (0.1)
0x0010|                        85                     |        .       |      no_heap_execution: true 0x18.7-0x19 (0.1)
0x0010|                           00                  |         .      |      has_tlv_descriptors: false 0x19-0x19.1 (0.1)
0x0010|                           00                  |         .      |      dead_strippable_dylib: false 0x19.1-0x19.2 (0.1)
0x0010|                           00                  |         .      |      pie: false 0x19.2-0x19.3 (0.1)
0x0010|                           00                  |         .      |      no_reexported_dylibs: false 0x19.3-0x19.4 (0.1)
0x0010|                           00                  |         .      |      setuid_safe: false 0x19.4-0x19.5 (0.1)
0x0010|                           00                  |         .      |      root_safe: false 0x19.5-0x19.6 (0.1)
0x0010|                           00                  |         .      |      allow_stack_execution: false 0x19.6-0x19.7 (0.1)
0x0010|                           00                  |         .      |      binds_to_weak: false 0x19.7-0x1a (0.1)
0x0010|                              10               |          .     |      weak_defines: false 0x1a-0x1a.1 (0.1)
0x0010|                              10               |          .     |      canonical: false 0x1a.1-0x1a.2 (0.1)
0x0010|                              10               |          .     |      subsections_via_symbols: false 0x1a.2-0x1a.3 (0.1)
0x0010|                              10               |          .     |      allmodsbound: true 0x1a.3-0x1a.4 (0.1)
0x0010|                              10               |          .     |      prebindable: false 0x1a.4-0x1a.5 (0.1)
0x0010|                              10               |          .     |      nofixprebinding: false 0x1a.5-0x1a.6 (0.1)
0x0010|                              10               |          .     |      nomultidefs: false 0x1a.6-0x1a.7 (0.1)
0x0010|                              10               |          .     |      force_flat: false 0x1a.7-0x1b (0.1)
0x0010|                                 00            |           .    |      twolevel: false 0x1b-0x1b.1 (0.1)
0x0010|                                 00            |           .    |      lazy_init: false 0x1b.1-0x1b.2 (0.1)
0x0010|                                 00            |           .    |      split_segs: false 0x1b.2-0x1b.3 (0.1)
0x0010|                                 00            |           .    |      prebound: false 0x1b.3-0x1b.4 (0.1)
0x0010|                                 00            |           .    |      bindatload: false 0x1b.4-0x1b.5 (0.1)
0x0010|                                 00            |           .    |      dyldlink: false 0x1b.5-0x1b.6 (0.1)
0x0010|                                 00            |           .    |      incrlink: false 0x1b.6-0x1b.7 (0.1)
0x0010|                                 00            |           .    |      noundefs: false 0x1b.7-0x1c (0.1)
0x0010|                                    00 00 00 00|            ....|    reserved: raw bits (all zero) 0x1c-0x20 (4)
      |                                               |                |  load_commands[0:15]: 0x20-0xc0d8 (49336)
      |                                               |                |    [0]{}: load_command 0x20-0x4000 (16352)
0x0020|19 00 00 00                                    |....            |      cmd: "segment_64" (0x19) 0x20-0x24 (4)
0x0020|            d8 01 00 00                        |    ....        |      cmdsize: 472 0x24-0x28 (4)
      |                                               |                |      segment_command{}: 0x28-0x68 (64)
      |                                               |                |        arch_bits: 64
0x0020|                        5f 5f 54 45 58 54 00 00|        __TEXT..|        segname: "__TEXT" 0x28-0x38 (16)
0x0030|00 00 00 00 00 00 00 00                        |........        |
0x0030|                        00 00 00 00 00 00 00 00|        ........|        vmaddr: 0x0 0x38-0x40 (8)
0x0040|00 40 00 00 00 00 00 00                        |.@......        |        vmsize: 16384 0x40-0x48 (8)
0x0040|                        00 00 00 00 00 00 00 00|        ........|        fileoff: 0x0 0x48-0x50 (8)
0x0050|00 40 00 00 00 00 00 00                        |.@......        |        tfilesize: 16384 0x50-0x58 (8)
0x0050|                        05 00 00 00            |        ....    |        initprot: 5 0x58-0x5c (4)
0x0050|                                    05 00 00 00|            ....|        maxprot: 5 0x5c-0x60 (4)
0x0060|05 00 00 00                                    |....            |        nsects: 5 0x60-0x64 (4)
      |                                               |                |        flags{}: 0x64-0x68 (4)
0x0060|            00 00 00 00                        |    ....        |          reserved: raw bits 0x64-0x67.4 (3.4)
0x0060|                     00                        |       .        |          protected_version_1: false 0x67.4-0x67.5 (0.1)
0x0060|                     00                        |       .        |          noreloc: false 0x67.5-0x67.6 (0.1)
0x0060|                     00                        |       .        |          fvmlib: false 0x67.6-0x67.7 (0.1)
0x0060|                     00                        |       .        |          highvm: false 0x67.7-0x68 (0.1)
      |                                               |                |      sections[0:5]: 0x68-0x4000 (16280)
      |                                               |                |        [0]{}: section 0x68-0x3f7c (16148)
0x0060|                        5f 5f 74 65 78 74 00 00|        __text..|          sectname: "__text" 0x68-0x78 (16)
0x0070|00 00 00 00 00 00 00 00                        |........        |
0x0070|                        5f 5f 54 45 58 54 00 00|        __TEXT..|          segname: "__TEXT" 0x78-0x88 (16)
0x0080|00 00 00 00 00 00 00 00                        |........        |
0x0080|                        60 3f 00 00 00 00 00 00|        `?......|          address: 0x3f60 0x88-0x90 (8)
0x0090|1c 00 00 00 00 00 00 00                        |........        |          size: 28 0x90-0x98 (8)
0x0090|                        60 3f 00 00            |        `?..    |          offset: 0x3f60 0x98-0x9c (4)
0x0090|                                    02 00 00 00|            ....|          align: 2 0x9c-0xa0 (4)
0x00a0|00 00 00 00                                    |....            |          reloff: 0 0xa0-0xa4 (4)
0x00a0|            00 00 00 00                        |    ....        |          nreloc: 0 0xa4-0xa8 (4)
      |                                               |                |          flags{}: 0xa8-0xab (3)
0x00a0|                        00                     |        .       |            attr_pure_instructions: false 0xa8-0xa8.1 (0.1)
0x00a0|                        00                     |        .       |            attr_no_toc: false 0xa8.1-0xa8.2 (0.1)
0x00a0|                        00                     |        .       |            attr_strip_static_syms: false 0xa8.2-0xa8.3 (0.1)
0x00a0|                        00                     |        .       |            attr_no_dead_strip: false 0xa8.3-0xa8.4 (0.1)
0x00a0|                        00                     |        .       |            attr_live_support: false 0xa8.4-0xa8.5 (0.1)
0x00a0|                        00                     |        .       |            attr_self_modifying_code: false 0xa8.5-0xa8.6 (0.1)
0x00a0|                        00                     |        .       |            attr_debug: false 0xa8.6-0xa8.7 (0.1)
0x00a0|                        00 04 00               |        ...     |            reserved: raw bits 0xa8.7-0xaa.5 (1.6)
0x00a0|                              00               |          .     |            attr_some_instructions: false 0xaa.5-0xaa.6 (0.1)
0x00a0|                              00               |          .     |            attr_ext_reloc: false 0xaa.6-0xaa.7 (0.1)
0x00a0|                              00               |          .     |            attr_loc_reloc: false 0xaa.7-0xab (0.1)
0x00a0|                                 80            |           .    |          type: 128 0xab-0xac (1)
0x00a0|                                    00 00 00 00|            ....|          reserved1: 0 0xac-0xb0 (4)
0x00b0|00 00 00 00                                    |....            |          reserved2: 0 0xb0-0xb4 (4)
0x00b0|            00 00 00 00                        |    ....        |          reserved3: 0 0xb4-0xb8 (4)
0x3f60|fd 7b bf a9 fd 03 00 91 00 00 00 90 00 b0 3e 91|.{............>.|          data: raw bits 0x3f60-0x3f7c (28)
0x3f70|03 00 00 94 fd 7b c1 a8 c0 03 5f d6            |.....{...._.    |
      |                                               |                |        [1]{}: section 0xb8-0x3f88 (16080)
0x00b0|                        5f 5f 73 74 75 62 73 00|        __stubs.|          sectname: "__stubs" 0xb8-0xc8 (16)
0x00c0|00 00 00 00 00 00 00 00                        |........        |
0x00c0|                        5f 5f 54 45 58 54 00 00|        __TEXT..|          segname: "__TEXT" 0xc8-0xd8 (16)
0x00d0|00 00 00 00 00 00 00 00                        |........        |
0x00d0|                        7c 3f 00 00 00 00 00 00|        |?......|          address: 0x3f7c 0xd8-0xe0 (8)
0x00e0|0c 00 00 00 00 00 00 00                        |........        |          size: 12 0xe0-0xe8 (8)
0x00e0|                        7c 3f 00 00            |        |?..    |          offset: 0x3f7c 0xe8-0xec (4)
0x00e0|                                    02 00 00 00|            ....|          align: 2 0xec-0xf0 (4)
0x00f0|00 00 00 00                                    |....            |          reloff: 0 0xf0-0xf4 (4)
0x00f0|            00 00 00 00                        |    ....        |          nreloc: 0 0xf4-0xf8 (4)
      |                                               |                |          flags{}: 0xf8-0xfb (3)
0x00f0|                        08                     |        .       |            attr_pure_instructions: false 0xf8-0xf8.1 (0.1)
0x00f0|                        08                     |        .       |            attr_no_toc: false 0xf8.1-0xf8.2 (0.1)
0x00f0|                        08                     |        .       |            attr_strip_static_syms: false 0xf8.2-0xf8.3 (0.1)
0x00f0|                        08                     |        .       |            attr_no_dead_strip: false 0xf8.3-0xf8.4 (0.1)
0x00f0|                        08                     |        .       |            attr_live_support: true 0xf8.4-0xf8.5 (0.1)
0x00f0|                        08                     |        .       |            attr_self_modifying_code: false 0xf8.5-0xf8.6 (0.1)
0x00f0|                        08                     |        .       |            attr_debug: false 0xf8.6-0xf8.7 (0.1)
0x00f0|                        08 04 00               |        ...     |            reserved: raw bits 0xf8.7-0xfa.5 (1.6)
0x00f0|                              00               |          .     |            attr_some_instructions: false 0xfa.5-0xfa.6 (0.1)
0x00f0|                              00               |          .     |            attr_ext_reloc: false 0xfa.6-0xfa.7 (0.1)
0x00f0|                              00               |          .     |            attr_loc_reloc: false 0xfa.7-0xfb (0.1)
0x00f0|                                 80            |           .    |          type: 128 0xfb-0xfc (1)
0x00f0|                                    00 00 00 00|            ....|          reserved1: 0 0xfc-0x100 (4)
0x0100|0c 00 00 00                                    |....            |          reserved2: 12 0x100-0x104 (4)
0x0100|            00 00 00 00                        |    ....        |          reserved3: 0 0x104-0x108 (4)
0x3f70|                                    1f 20 03 d5|            . ..|          data: raw bits 0x3f7c-0x3f88 (12)
0x3f80|10 04 02 58 00 02 1f d6                        |...X....        |
      |                                               |                |        [2]{}: section 0x108-0x3fac (16036)
0x0100|                        5f 5f 73 74 75 62 5f 68|        __stub_h|          sectname: "__stub_helper" 0x108-0x118 (16)
0x0110|65 6c 70 65 72 00 00 00                        |elper...        |
0x0110|                        5f 5f 54 45 58 54 00 00|        __TEXT..|          segname: "__TEXT" 0x118-0x128 (16)
0x0120|00 00 00 00 00 00 00 00                        |........        |
0x0120|                        88 3f 00 00 00 00 00 00|        .?......|          address: 0x3f88 0x128-0x130 (8)
0x0130|24 00 00 00 00 00 00 00                        |$.......        |          size: 36 0x130-0x138 (8)
0x0130|                        88 3f 00 00            |        .?..    |          offset: 0x3f88 0x138-0x13c (4)
0x0130|                                    02 00 00 00|            ....|          align: 2 0x13c-0x140 (4)
0x0140|00 00 00 00                                    |....            |          reloff: 0 0x140-0x144 (4)
0x0140|            00 00 00 00                        |    ....        |          nreloc: 0 0x144-0x148 (4)
      |                                               |                |          flags{}: 0x148-0x14b (3)
0x0140|                        00                     |        .       |            attr_pure_instructions: false 0x148-0x148.1 (0.1)
0x0140|                        00                     |        .       |            attr_no_toc: false 0x148.1-0x148.2 (0.1)
0x0140|                        00                     |        .       |            attr_strip_static_syms: false 0x148.2-0x148.3 (0.1)
0x0140|                        00                     |        .       |            attr_no_dead_strip: false 0x148.3-0x148.4 (0.1)
0x0140|                        00                     |        .       |            attr_live_support: false 0x148.4-0x148.5 (0.1)
0x0140|                        00                     |        .       |            attr_self_modifying_code: false 0x148.5-0x148.6 (0.1)
0x0140|                        00                     |        .       |            attr_debug: false 0x148.6-0x148.7 (0.1)
0x0140|                        00 04 00               |        ...     |            reserved: raw bits 0x148.7-0x14a.5 (1.6)
0x0140|                              00               |          .     |            attr_some_instructions: false 0x14a.5-0x14a.6 (0.1)
0x0140|                              00               |          .     |            attr_ext_reloc: false 0x14a.6-0x14a.7 (0.1)
0x0140|                              00               |          .     |            attr_loc_reloc: false 0x14a.7-0x14b (0.1)
0x0140|                                 80            |           .    |          type: 128 0x14b-0x14c (1)
0x0140|                                    00 00 00 00|            ....|          reserved1: 0 0x14c-0x150 (4)
0x0150|00 00 00 00                                    |....            |          reserved2: 0 0x150-0x154 (4)
0x0150|            00 00 00 00                        |    ....        |          reserved3: 0 0x154-0x158 (4)
0x3f80|                        11 04 02 10 1f 20 03 d5|        ..... ..|          data: raw bits 0x3f88-0x3fac (36)
0x3f90|f0 47 bf a9 1f 20 03 d5 50 03 00 58 00 02 1f d6|.G... ..P..X....|
0x3fa0|50 00 00 18 f9 ff ff 17 00 00 00 00            |P...........    |
      |                                               |                |        [3]{}: section 0x158-0x3fb8 (15968)
0x0150|                        5f 5f 63 73 74 72 69 6e|        __cstrin|          sectname: "__cstring" 0x158-0x168 (16)
0x0160|67 00 00 00 00 00 00 00                        |g.......        |
0x0160|                        5f 5f 54 45 58 54 00 00|        __TEXT..|          segname: "__TEXT" 0x168-0x178 (16)
0x0170|00 00 00 00 00 00 00 00                        |........        |
0x0170|                        ac 3f 00 00 00 00 00 00|        .?......|          address: 0x3fac 0x178-0x180 (8)
0x0180|0c 00 00 00 00 00 00 00                        |........        |          size: 12 0x180-0x188 (8)
0x0180|                        ac 3f 00 00            |        .?..    |          offset: 0x3fac 0x188-0x18c (4)
0x0180|                                    00 00 00 00|            ....|          align: 0 0x18c-0x190 (4)
0x0190|00 00 00 00                                    |....            |          reloff: 0 0x190-0x194 (4)
0x0190|            00 00 00 00                        |    ....        |          nreloc: 0 0x194-0x198 (4)
      |                                               |                |          flags{}: 0x198-0x19b (3)
0x0190|                        02                     |        .       |            attr_pure_instructions: false 0x198-0x198.1 (0.1)
0x0190|                        02                     |        .       |            attr_no_toc: false 0x198.1-0x198.2 (0.1)
0x0190|                        02                     |        .       |            attr_strip_static_syms: false 0x198.2-0x198.3 (0.1)
0x0190|                        02                     |        .       |            attr_no_dead_strip: false 0x198.3-0x198.4 (0.1)
0x0190|                        02                     |        .       |            attr_live_support: false 0x198.4-0x198.5 (0.1)
0x0190|                        02                     |        .       |            attr_self_modifying_code: false 0x198.5-0x198.6 (0.1)
0x0190|                        02                     |        .       |            attr_debug: true 0x198.6-0x198.7 (0.1)
0x0190|                        02 00 00               |        ...     |            reserved: raw bits 0x198.7-0x19a.5 (1.6)
0x0190|                              00               |          .     |            attr_some_instructions: false 0x19a.5-0x19a.6 (0.1)
0x0190|                              00               |          .     |            attr_ext_reloc: false 0x19a.6-0x19a.7 (0.1)
0x0190|                              00               |          .     |            attr_loc_reloc: false 0x19a.7-0x19b (0.1)
0x0190|                                 00            |           .    |          type: "regular" (0) 0x19b-0x19c (1)
0x0190|                                    00 00 00 00|            ....|          reserved1: 0 0x19c-0x1a0 (4)
0x01a0|00 00 00 00                                    |....            |          reserved2: 0 0x1a0-0x1a4 (4)
0x01a0|            00 00 00 00                        |    ....        |          reserved3: 0 0x1a4-0x1a8 (4)
      |                                               |                |          cstrings[0:1]: 0x3fac-0x3fb8 (12)
0x3fa0|                                    6c 69 62 62|            libb|            [0]: "libbbb_bbb\n" cstring 0x3fac-0x3fb8 (12)
0x3fb0|62 62 5f 62 62 62 0a 00                        |bb_bbb..        |
      |                                               |                |        [4]{}: section 0x1a8-0x4000 (15960)
0x01a0|                        5f 5f 75 6e 77 69 6e 64|        __unwind|          sectname: "__unwind_info" 0x1a8-0x1b8 (16)
0x01b0|5f 69 6e 66 6f 00 00 00                        |_info...        |
0x01b0|                        5f 5f 54 45 58 54 00 00|        __TEXT..|          segname: "__TEXT" 0x1b8-0x1c8 (16)
0x01c0|00 00 00 00 00 00 00 00                        |........        |
0x01c0|                        b8 3f 00 00 00 00 00 00|        .?......|          address: 0x3fb8 0x1c8-0x1d0 (8)
0x01d0|48 00 00 00 00 00 00 00                        |H.......        |          size: 72 0x1d0-0x1d8 (8)
0x01d0|                        b8 3f 00 00            |        .?..    |          offset: 0x3fb8 0x1d8-0x1dc (4)
0x01d0|                                    02 00 00 00|            ....|          align: 2 0x1dc-0x1e0 (4)
0x01e0|00 00 00 00                                    |....            |          reloff: 0 0x1e0-0x1e4 (4)
0x01e0|            00 00 00 00                        |    ....        |          nreloc: 0 0x1e4-0x1e8 (4)
      |                                               |                |          flags{}: 0x1e8-0x1eb (3)
0x01e0|                        00                     |        .       |            attr_pure_instructions: false 0x1e8-0x1e8.1 (0.1)
0x01e0|                        00                     |        .       |            attr_no_toc: false 0x1e8.1-0x1e8.2 (0.1)
0x01e0|                        00                     |        .       |            attr_strip_static_syms: false 0x1e8.2-0x1e8.3 (0.1)
0x01e0|                        00                     |        .       |            attr_no_dead_strip: false 0x1e8.3-0x1e8.4 (0.1)
0x01e0|                        00                     |        .       |            attr_live_support: false 0x1e8.4-0x1e8.5 (0.1)
0x01e0|                        00                     |        .       |            attr_self_modifying_code: false 0x1e8.5-0x1e8.6 (0.1)
0x01e0|                        00                     |        .       |            attr_debug: false 0x1e8.6-0x1e8.7 (0.1)
0x01e0|                        00 00 00               |        ...     |            reserved: raw bits 0x1e8.7-0x1ea.5 (1.6)
0x01e0|                              00               |          .     |            attr_some_instructions: false 0x1ea.5-0x1ea.6 (0.1)
0x01e0|                              00               |          .     |            attr_ext_reloc: false 0x1ea.6-0x1ea.7 (0.1)
0x01e0|                              00               |          .     |            attr_loc_reloc: false 0x1ea.7-0x1eb (0.1)
0x01e0|                                 00            |           .    |          type: "regular" (0) 0x1eb-0x1ec (1)
0x01e0|                                    00 00 00 00|            ....|          reserved1: 0 0x1ec-0x1f0 (4)
0x01f0|00 00 00 00                                    |....            |          reserved2: 0 0x1f0-0x1f4 (4)
0x01f0|            00 00 00 00                        |    ....        |          reserved3: 0 0x1f4-0x1f8 (4)
0x3fb0|                        01 00 00 00 1c 00 00 00|        ........|          data: raw bits 0x3fb8-0x4000 (72)
0x3fc0|00 00 00 00 1c 00 00 00 00 00 00 00 1c 00 00 00|................|
*     |until 0x3fff.7 (72)                            |                |
      |                                               |                |    [1]{}: load_command 0x1f8-0x4008 (15888)
0x01f0|                        19 00 00 00            |        ....    |      cmd: "segment_64" (0x19) 0x1f8-0x1fc (4)
0x01f0|                                    98 00 00 00|            ....|      cmdsize: 152 0x1fc-0x200 (4)
      |                                               |                |      segment_command{}: 0x200-0x240 (64)
      |                                               |                |        arch_bits: 64
0x0200|5f 5f 44 41 54 41 5f 43 4f 4e 53 54 00 00 00 00|__DATA_CONST....|        segname: "__DATA_CONST" 0x200-0x210 (16)
0x0210|00 40 00 00 00 00 00 00                        |.@......        |        vmaddr: 0x4000 0x210-0x218 (8)
0x0210|                        00 40 00 00 00 00 00 00|        .@......|        vmsize: 16384 0x218-0x220 (8)
0x0220|00 40 00 00 00 00 00 00                        |.@......        |        fileoff: 0x4000 0x220-0x228 (8)
0x0220|                        00 40 00 00 00 00 00 00|        .@......|        tfilesize: 16384 0x228-0x230 (8)
0x0230|03 00 00 00                                    |....            |        initprot: 3 0x230-0x234 (4)
0x0230|            03 00 00 00                        |    ....        |        maxprot: 3 0x234-0x238 (4)
0x0230|                        01 00 00 00            |        ....    |        nsects: 1 0x238-0x23c (4)
      |                                               |                |        flags{}: 0x23c-0x240 (4)
0x0230|                                    10 00 00 00|            ....|          reserved: raw bits 0x23c-0x23f.4 (3.4)
0x0230|                                             00|               .|          protected_version_1: false 0x23f.4-0x23f.5 (0.1)
0x0230|                                             00|               .|          noreloc: false 0x23f.5-0x23f.6 (0.1)
0x0230|                                             00|               .|          fvmlib: false 0x23f.6-0x23f.7 (0.1)
0x0230|                                             00|               .|          highvm: false 0x23f.7-0x240 (0.1)
      |                                               |                |      sections[0:1]: 0x240-0x4008 (15816)
      |                                               |                |        [0]{}: section 0x240-0x4008 (15816)
0x0240|5f 5f 67 6f 74 00 00 00 00 00 00 00 00 00 00 00|__got...........|          sectname: "__got" 0x240-0x250 (16)
0x0250|5f 5f 44 41 54 41 5f 43 4f 4e 53 54 00 00 00 00|__DATA_CONST....|          segname: "__DATA_CONST" 0x250-0x260 (16)
0x0260|00 40 00 00 00 00 00 00                        |.@......        |          address: 0x4000 0x260-0x268 (8)
0x0260|                        08 00 00 00 00 00 00 00|        ........|          size: 8 0x268-0x270 (8)
0x0270|00 40 00 00                                    |.@..            |          offset: 0x4000 0x270-0x274 (4)
0x0270|            03 00 00 00                        |    ....        |          align: 3 0x274-0x278 (4)
0x0270|                        00 00 00 00            |        ....    |          reloff: 0 0x278-0x27c (4)
0x0270|                                    00 00 00 00|            ....|          nreloc: 0 0x27c-0x280 (4)
      |                                               |                |          flags{}: 0x280-0x283 (3)
0x0280|06                                             |.               |            attr_pure_instructions: false 0x280-0x280.1 (0.1)
0x0280|06                                             |.               |            attr_no_toc: false 0x280.1-0x280.2 (0.1)
0x0280|06                                             |.               |            attr_strip_static_syms: false 0x280.2-0x280.3 (0.1)
0x0280|06                                             |.               |            attr_no_dead_strip: false 0x280.3-0x280.4 (0.1)
0x0280|06                                             |.               |            attr_live_support: false 0x280.4-0x280.5 (0.1)
0x0280|06                                             |.               |            attr_self_modifying_code: true 0x280.5-0x280.6 (0.1)
0x0280|06                                             |.               |            attr_debug: true 0x280.6-0x280.7 (0.1)
0x0280|06 00 00                                       |...             |            reserved: raw bits 0x280.7-0x282.5 (1.6)
0x0280|      00                                       |  .             |            attr_some_instructions: false 0x282.5-0x282.6 (0.1)
0x0280|      00                                       |  .             |            attr_ext_reloc: false 0x282.6-0x282.7 (0.1)
0x0280|      00                                       |  .             |            attr_loc_reloc: false 0x282.7-0x283 (0.1)
0x0280|         00                                    |   .            |          type: "regular" (0) 0x283-0x284 (1)
0x0280|            01 00 00 00                        |    ....        |          reserved1: 1 0x284-0x288 (4)
0x0280|                        00 00 00 00            |        ....    |          reserved2: 0 0x288-0x28c (4)
0x0280|                                    00 00 00 00|            ....|          reserved3: 0 0x28c-0x290 (4)
0x4000|00 00 00 00 00 00 00 00                        |........        |          data: raw bits 0x4000-0x4008 (8)
      |                                               |                |    [2]{}: load_command 0x290-0x8010 (32128)
0x0290|19 00 00 00                                    |....            |      cmd: "segment_64" (0x19) 0x290-0x294 (4)
0x0290|            e8 00 00 00                        |    ....        |      cmdsize: 232 0x294-0x298 (4)
      |                                               |                |      segment_command{}: 0x298-0x2d8 (64)
      |                                               |                |        arch_bits: 64
0x0290|                        5f 5f 44 41 54 41 00 00|        __DATA..|        segname: "__DATA" 0x298-0x2a8 (16)
0x02a0|00 00 00 00 00 00 00 00                        |........        |
0x02a0|                        00 80 00 00 00 00 00 00|        ........|        vmaddr: 0x8000 0x2a8-0x2b0 (8)
0x02b0|00 40 00 00 00 00 00 00                        |.@......        |        vmsize: 16384 0x2b0-0x2b8 (8)
0x02b0|                        00 80 00 00 00 00 00 00|        ........|        fileoff: 0x8000 0x2b8-0x2c0 (8)
0x02c0|00 40 00 00 00 00 00 00                        |.@......        |        tfilesize: 16384 0x2c0-0x2c8 (8)
0x02c0|                        03 00 00 00            |        ....    |        initprot: 3 0x2c8-0x2cc (4)
0x02c0|                                    03 00 00 00|            ....|        maxprot: 3 0x2cc-0x2d0 (4)
0x02d0|02 00 00 00                                    |....            |        nsects: 2 0x2d0-0x2d4 (4)
      |                                               |                |        flags{}: 0x2d4-0x2d8 (4)
0x02d0|            00 00 00 00                        |    ....        |          reserved: raw bits 0x2d4-0x2d7.4 (3.4)
0x02d0|                     00                        |       .        |          protected_version_1: false 0x2d7.4-0x2d7.5 (0.1)
0x02d0|                     00                        |       .        |          noreloc: false 0x2d7.5-0x2d7.6 (0.1)
0x02d0|                     00                        |       .        |          fvmlib: false 0x2d7.6-0x2d7.7 (0.1)
0x02d0|                     00                        |       .        |          highvm: false 0x2d7.7-0x2d8 (0.1)
      |                                               |                |      sections[0:2]: 0x2d8-0x8010 (32056)
      |                                               |                |        [0]{}: section 0x2d8-0x8008 (32048)
0x02d0|                        5f 5f 6c 61 5f 73 79 6d|        __la_sym|          sectname: "__la_symbol_ptr" 0x2d8-0x2e8 (16)
0x02e0|62 6f 6c 5f 70 74 72 00                        |bol_ptr.        |
0x02e0|                        5f 5f 44 41 54 41 00 00|        __DATA..|          segname: "__DATA" 0x2e8-0x2f8 (16)
0x02f0|00 00 00 00 00 00 00 00                        |........        |
0x02f0|                        00 80 00 00 00 00 00 00|        ........|          address: 0x8000 0x2f8-0x300 (8)
0x0300|08 00 00 00 00 00 00 00                        |........        |          size: 8 0x300-0x308 (8)
0x0300|                        00 80 00 00            |        ....    |          offset: 0x8000 0x308-0x30c (4)
0x0300|                                    03 00 00 00|            ....|          align: 3 0x30c-0x310 (4)
0x0310|00 00 00 00                                    |....            |          reloff: 0 0x310-0x314 (4)
0x0310|            00 00 00 00                        |    ....        |          nreloc: 0 0x314-0x318 (4)
      |                                               |                |          flags{}: 0x318-0x31b (3)
0x0310|                        07                     |        .       |            attr_pure_instructions: false 0x318-0x318.1 (0.1)
0x0310|                        07                     |        .       |            attr_no_toc: false 0x318.1-0x318.2 (0.1)
0x0310|                        07                     |        .       |            attr_strip_static_syms: false 0x318.2-0x318.3 (0.1)
0x0310|                        07                     |        .       |            attr_no_dead_strip: false 0x318.3-0x318.4 (0.1)
0x0310|                        07                     |        .       |            attr_live_support: false 0x318.4-0x318.5 (0.1)
0x0310|                        07                     |        .       |            attr_self_modifying_code: true 0x318.5-0x318.6 (0.1)
0x0310|                        07                     |        .       |            attr_debug: true 0x318.6-0x318.7 (0.1)
0x0310|                        07 00 00               |        ...     |            reserved: raw bits 0x318.7-0x31a.5 (1.6)
0x0310|                              00               |          .     |            attr_some_instructions: false 0x31a.5-0x31a.6 (0.1)
0x0310|                              00               |          .     |            attr_ext_reloc: false 0x31a.6-0x31a.7 (0.1)
0x0310|                              00               |          .     |            attr_loc_reloc: false 0x31a.7-0x31b (0.1)
0x0310|                                 00            |           .    |          type: "regular" (0) 0x31b-0x31c (1)
0x0310|                                    02 00 00 00|            ....|          reserved1: 2 0x31c-0x320 (4)
0x0320|00 00 00 00                                    |....            |          reserved2: 0 0x320-0x324 (4)
0x0320|            00 00 00 00                        |    ....        |          reserved3: 0 0x324-0x328 (4)
0x8000|a0 3f 00 00 00 00 00 00                        |.?......        |          data: raw bits 0x8000-0x8008 (8)
      |                                               |                |        [1]{}: section 0x328-0x8010 (31976)
0x0320|                        5f 5f 64 61 74 61 00 00|        __data..|          sectname: "__data" 0x328-0x338 (16)
0x0330|00 00 00 00 00 00 00 00                        |........        |
0x0330|                        5f 5f 44 41 54 41 00 00|        __DATA..|          segname: "__DATA" 0x338-0x348 (16)
0x0340|00 00 00 00 00 00 00 00                        |........        |
0x0340|                        08 80 00 00 00 00 00 00|        ........|          address: 0x8008 0x348-0x350 (8)
0x0350|08 00 00 00 00 00 00 00                        |........        |          size: 8 0x350-0x358 (8)
0x0350|                        08 80 00 00            |        ....    |          offset: 0x8008 0x358-0x35c (4)
0x0350|                                    03 00 00 00|            ....|          align: 3 0x35c-0x360 (4)
0x0360|00 00 00 00                                    |....            |          reloff: 0 0x360-0x364 (4)
0x0360|            00 00 00 00                        |    ....        |          nreloc: 0 0x364-0x368 (4)
      |                                               |                |          flags{}: 0x368-0x36b (3)
0x0360|                        00                     |        .       |            attr_pure_instructions: false 0x368-0x368.1 (0.1)
0x0360|                        00                     |        .       |            attr_no_toc: false 0x368.1-0x368.2 (0.1)
0x0360|                        00                     |        .       |            attr_strip_static_syms: false 0x368.2-0x368.3 (0.1)
0x0360|                        00                     |        .       |            attr_no_dead_strip: false 0x368.3-0x368.4 (0.1)
0x0360|                        00                     |        .       |            attr_live_support: false 0x368.4-0x368.5 (0.1)
0x0360|                        00                     |        .       |            attr_self_modifying_code: false 0x368.5-0x368.6 (0.1)
0x0360|                        00                     |        .       |            attr_debug: false 0x368.6-0x368.7 (0.1)
0x0360|                        00 00 00               |        ...     |            reserved: raw bits 0x368.7-0x36a.5 (1.6)
0x0360|                              00               |          .     |            attr_some_instructions: false 0x36a.5-0x36a.6 (0.1)
0x0360|                              00               |          .     |            attr_ext_reloc: false 0x36a.6-0x36a.7 (0.1)
0x0360|                              00               |          .     |            attr_loc_reloc: false 0x36a.7-0x36b (0.1)
0x0360|                                 00            |           .    |          type: "regular" (0) 0x36b-0x36c (1)
0x0360|                                    00 00 00 00|            ....|          reserved1: 0 0x36c-0x370 (4)
0x0370|00 00 00 00                                    |....            |          reserved2: 0 0x370-0x374 (4)
0x0370|            00 00 00 00                        |    ....        |          reserved3: 0 0x374-0x378 (4)
0x8000|                        00 00 00 00 00 00 00 00|        ........|          data: raw bits 0x8008-0x8010 (8)
      |                                               |                |    [3]{}: load_command 0x378-0x3c0 (72)
0x0370|                        19 00 00 00            |        ....    |      cmd: "segment_64" (0x19) 0x378-0x37c (4)
0x0370|                                    48 00 00 00|            H...|      cmdsize: 72 0x37c-0x380 (4)
      |                                               |                |      segment_command{}: 0x380-0x3c0 (64)
      |                                               |                |        arch_bits: 64
0x0380|5f 5f 4c 49 4e 4b 45 44 49 54 00 00 00 00 00 00|__LINKEDIT......|        segname: "__LINKEDIT" 0x380-0x390 (16)
0x0390|00 c0 00 00 00 00 00 00                        |........        |        vmaddr: 0xc000 0x390-0x398 (8)
0x0390|                        00 40 00 00 00 00 00 00|        .@......|        vmsize: 16384 0x398-0x3a0 (8)
0x03a0|00 c0 00 00 00 00 00 00                        |........        |        fileoff: 0xc000 0x3a0-0x3a8 (8)
0x03a0|                        f6 02 00 00 00 00 00 00|        ........|        tfilesize: 758 0x3a8-0x3b0 (8)
0x03b0|01 00 00 00                                    |....            |        initprot: 1 0x3b0-0x3b4 (4)
0x03b0|            01 00 00 00                        |    ....        |        maxprot: 1 0x3b4-0x3b8 (4)
0x03b0|                        00 00 00 00            |        ....    |        nsects: 0 0x3b8-0x3bc (4)
      |                                               |                |        flags{}: 0x3bc-0x3c0 (4)
0x03b0|                                    00 00 00 00|            ....|          reserved: raw bits 0x3bc-0x3bf.4 (3.4)
0x03b0|                                             00|               .|          protected_version_1: false 0x3bf.4-0x3bf.5 (0.1)
0x03b0|                                             00|               .|          noreloc: false 0x3bf.5-0x3bf.6 (0.1)
0x03b0|                                             00|               .|          fvmlib: false 0x3bf.6-0x3bf.7 (0.1)
0x03b0|                                             00|               .|          highvm: false 0x3bf.7-0x3c0 (0.1)
      |                                               |                |      sections[0:0]: 0x3c0-0x3c0 (0)
      |                                               |                |    [4]{}: load_command 0x3c0-0x3e8 (40)
0x03c0|0d 00 00 00                                    |....            |      cmd: "id_dylib" (0xd) 0x3c0-0x3c4 (4)
0x03c0|            28 00 00 00                        |    (...        |      cmdsize: 40 0x3c4-0x3c8 (4)
      |                                               |                |      dylib_command{}: 0x3c8-0x3e8 (32)
0x03c0|                        18 00 00 00            |        ....    |        offset: 0x18 0x3c8-0x3cc (4)
0x03c0|                                    01 00 00 00|            ....|        timestamp: "1970-01-01 00:00:00.001 +0000 UTC" (1) 0x3cc-0x3d0 (4)
0x03d0|00 00 00 00                                    |....            |        current_version: 0 0x3d0-0x3d4 (4)
0x03d0|            00 00 00 00                        |    ....        |        compatibility_version: 0 0x3d4-0x3d8 (4)
0x03d0|                        6c 69 62 62 62 62 2e 73|        libbbb.s|        name: "libbbb.so" 0x3d8-0x3e8 (16)
0x03e0|6f 00 00 00 00 00 00 00                        |o.......        |
      |                                               |                |    [5]{}: load_command 0x3e8-0x418 (48)
0x03e0|                        22 00 00 80            |        "...    |      cmd: "dyld_info_only" (0x80000022) 0x3e8-0x3ec (4)
0x03e0|                                    30 00 00 00|            0...|      cmdsize: 48 0x3ec-0x3f0 (4)
      |                                               |                |      dyld_info{}: 0x3f0-0x418 (40)
0x03f0|00 c0 00 00                                    |....            |        rebase_off: 0xc000 0x3f0-0x3f4 (4)
0x03f0|            08 00 00 00                        |    ....        |        rebase_size: 8 0x3f4-0x3f8 (4)
0x03f0|                        08 c0 00 00            |        ....    |        bind_off: 0xc008 0x3f8-0x3fc (4)
0x03f0|                                    18 00 00 00|            ....|        bind_size: 24 0x3fc-0x400 (4)
0x0400|00 00 00 00                                    |....            |        weak_bind_off: 0x0 0x400-0x404 (4)
0x0400|            00 00 00 00                        |    ....        |        weak_bind_size: 0 0x404-0x408 (4)
0x0400|                        20 c0 00 00            |         ...    |        lazy_bind_off: 0xc020 0x408-0x40c (4)
0x0400|                                    10 00 00 00|            ....|        lazy_bind_size: 16 0x40c-0x410 (4)
0x0410|30 c0 00 00                                    |0...            |        export_off: 0xc030 0x410-0x414 (4)
0x0410|            18 00 00 00                        |    ....        |        export_size: 24 0x414-0x418 (4)
      |                                               |                |    [6]{}: load_command 0x418-0xc0d8 (48320)
0x0410|                        02 00 00 00            |        ....    |      cmd: "symtab" (0x2) 0x418-0x41c (4)
0x0410|                                    18 00 00 00|            ....|      cmdsize: 24 0x41c-0x420 (4)
0x0420|50 c0 00 00                                    |P...            |      symoff: 49232 0x420-0x424 (4)
0x0420|            04 00 00 00                        |    ....        |      nsyms: 4 0x424-0x428 (4)
0x0420|                        a0 c0 00 00            |        ....    |      stroff: 49312 0x428-0x42c (4)
0x0420|                                    38 00 00 00|            8...|      strsize: 56 0x42c-0x430 (4)
      |                                               |                |      symbols[0:4]: 0xc050-0xc090 (64)
      |                                               |                |        [0]{}: symbol 0xc050-0xc060 (16)
0xc050|27 00 00 00                                    |'...            |          strx: "__dyld_private" (39) 0xc050-0xc054 (4)
      |                                               |                |          type{}: 0xc054-0xc055 (1)
0xc050|            0e                                 |    .           |            stab: 0 0xc054-0xc054.3 (0.3)
0xc050|            0e                                 |    .           |            pext: 0 0xc054.3-0xc054.4 (0.1)
0xc050|            0e                                 |    .           |            type: "sect" (7) 0xc054.4-0xc054.7 (0.3)
0xc050|            0e                                 |    .           |            ext: 0 0xc054.7-0xc055 (0.1)
0xc050|               08                              |     .          |          sect: 8 0xc055-0xc056 (1)
0xc050|                  00 00                        |      ..        |          desc: 0 0xc056-0xc058 (2)
0xc050|                        08 80 00 00 00 00 00 00|        ........|          value: 0x8008 0xc058-0xc060 (8)
      |                                               |                |        [1]{}: symbol 0xc060-0xc070 (16)
0xc060|02 00 00 00                                    |....            |          strx: "_libbbb_bbb" (2) 0xc060-0xc064 (4)
      |                                               |                |          type{}: 0xc064-0xc065 (1)
0xc060|            0f                                 |    .           |            stab: 0 0xc064-0xc064.3 (0.3)
0xc060|            0f                                 |    .           |            pext: 0 0xc064.3-0xc064.4 (0.1)
0xc060|            0f                                 |    .           |            type: "sect" (7) 0xc064.4-0xc064.7 (0.3)
0xc060|            0f                                 |    .           |            ext: 1 0xc064.7-0xc065 (0.1)
0xc060|               01                              |     .          |          sect: 1 0xc065-0xc066 (1)
0xc060|                  00 00                        |      ..        |          desc: 0 0xc066-0xc068 (2)
0xc060|                        60 3f 00 00 00 00 00 00|        `?......|          value: 0x3f60 0xc068-0xc070 (8)
      |                                               |                |        [2]{}: symbol 0xc070-0xc080 (16)
0xc070|0e 00 00 00                                    |....            |          strx: "_printf" (14) 0xc070-0xc074 (4)
      |                                               |                |          type{}: 0xc074-0xc075 (1)
0xc070|            01                                 |    .           |            stab: 0 0xc074-0xc074.3 (0.3)
0xc070|            01                                 |    .           |            pext: 0 0xc074.3-0xc074.4 (0.1)
0xc070|            01                                 |    .           |            type: "undef" (0) 0xc074.4-0xc074.7 (0.3)
0xc070|            01                                 |    .           |            ext: 1 0xc074.7-0xc075 (0.1)
0xc070|               00                              |     .          |          sect: 0 0xc075-0xc076 (1)
0xc070|                  00 01                        |      ..        |          desc: 256 0xc076-0xc078 (2)
0xc070|                        00 00 00 00 00 00 00 00|        ........|          value: 0x0 0xc078-0xc080 (8)
      |                                               |                |        [3]{}: symbol 0xc080-0xc090 (16)
0xc080|16 00 00 00                                    |....            |          strx: "dyld_stub_binder" (22) 0xc080-0xc084 (4)
      |                                               |                |          type{}: 0xc084-0xc085 (1)
0xc080|            01                                 |    .           |            stab: 0 0xc084-0xc084.3 (0.3)
0xc080|            01                                 |    .           |            pext: 0 0xc084.3-0xc084.4 (0.1)
0xc080|            01                                 |    .           |            type: "undef" (0) 0xc084.4-0xc084.7 (0.3)
0xc080|            01                                 |    .           |            ext: 1 0xc084.7-0xc085 (0.1)
0xc080|               00                              |     .          |          sect: 0 0xc085-0xc086 (1)
0xc080|                  00 01                        |      ..        |          desc: 256 0xc086-0xc088 (2)
0xc080|                        00 00 00 00 00 00 00 00|        ........|          value: 0x0 0xc088-0xc090 (8)
0xc0a0|20 00 5f 6c 69 62 62 62 62 5f 62 62 62 00 5f 70| ._libbbb_bbb._p|      str_table: raw bits 0xc0a0-0xc0d8 (56)
*     |until 0xc0d7.7 (56)                            |                |
      |                                               |                |    [7]{}: load_command 0x430-0x480 (80)
0x0430|0b 00 00 00                                    |....            |      cmd: "dysymtab" (0xb) 0x430-0x434 (4)
0x0430|            50 00 00 00                        |    P...        |      cmdsize: 80 0x434-0x438 (4)
0x0430|                        00 00 00 00            |        ....    |      ilocalsym: 0 0x438-0x43c (4)
0x0430|                                    01 00 00 00|            ....|      nlocalsym: 1 0x43c-0x440 (4)
0x0440|01 00 00 00                                    |....            |      iextdefsym: 1 0x440-0x444 (4)
0x0440|            01 00 00 00                        |    ....        |      nextdefsym: 1 0x444-0x448 (4)
0x0440|                        02 00 00 00            |        ....    |      iundefsym: 2 0x448-0x44c (4)
0x0440|                                    02 00 00 00|            ....|      nundefsym: 2 0x44c-0x450 (4)
0x0450|00 00 00 00                                    |....            |      tocoff: 0 0x450-0x454 (4)
0x0450|            00 00 00 00                        |    ....        |      ntoc: 0 0x454-0x458 (4)
0x0450|                        00 00 00 00            |        ....    |      modtaboff: 0 0x458-0x45c (4)
0x0450|                                    00 00 00 00|            ....|      nmodtab: 0 0x45c-0x460 (4)
0x0460|00 00 00 00                                    |....            |      extrefsymoff: 0 0x460-0x464 (4)
0x0460|            00 00 00 00                        |    ....        |      nextrefsyms: 0 0x464-0x468 (4)
0x0460|                        90 c0 00 00            |        ....    |      indirectsymoff: 49296 0x468-0x46c (4)
0x0460|                                    03 00 00 00|            ....|      nindirectsyms: 3 0x46c-0x470 (4)
0x0470|00 00 00 00                                    |....            |      extreloff: 0 0x470-0x474 (4)
0x0470|            00 00 00 00                        |    ....        |      nextrel: 0 0x474-0x478 (4)
0x0470|                        00 00 00 00            |        ....    |      locreloff: 0 0x478-0x47c (4)
0x0470|                                    00 00 00 00|            ....|      nlocrel: 0 0x47c-0x480 (4)
      |                                               |                |    [8]{}: load_command 0x480-0x498 (24)
0x0480|1b 00 00 00                                    |....            |      cmd: "uuid" (0x1b) 0x480-0x484 (4)
0x0480|            18 00 00 00                        |    ....        |      cmdsize: 24 0x484-0x488 (4)
      |                                               |                |      uuid_command{}: 0x488-0x498 (16)
0x0480|                        56 9f 49 cc 85 16 33 eb|        V.I...3.|        uuid: raw bits 0x488-0x498 (16)
0x0490|aa b2 ff 2b 60 cb b1 a2                        |...+`...        |
      |                                               |                |    [9]{}: load_command 0x498-0x4b8 (32)
0x0490|                        32 00 00 00            |        2...    |      cmd: "build_version" (0x32) 0x498-0x49c (4)
0x0490|                                    20 00 00 00|             ...|      cmdsize: 32 0x49c-0x4a0 (4)
0x04a0|01 00 00 00                                    |....            |      platform: 1 0x4a0-0x4a4 (4)
0x04a0|            00 00 0b 00                        |    ....        |      minos: 720896 0x4a4-0x4a8 (4)
0x04a0|                        00 00 0b 00            |        ....    |      sdk: 720896 0x4a8-0x4ac (4)
0x04a0|                                    01 00 00 00|            ....|      ntools: 1 0x4ac-0x4b0 (4)
      |                                               |                |      tools[0:1]: 0x4b0-0x4b8 (8)
      |                                               |                |        [0]{}: tool 0x4b0-0x4b8 (8)
0x04b0|03 00 00 00                                    |....            |          tool: 3 0x4b0-0x4b4 (4)
0x04b0|            00 00 c7 02                        |    ....        |          version: 46596096 0x4b4-0x4b8 (4)
      |                                               |                |    [10]{}: load_command 0x4b8-0x4c8 (16)
0x04b0|                        2a 00 00 00            |        *...    |      cmd: "source_version" (0x2a) 0x4b8-0x4bc (4)
0x04b0|                                    10 00 00 00|            ....|      cmdsize: 16 0x4bc-0x4c0 (4)
      |                                               |                |      source_version_tag{}: 0x4c0-0x4c8 (8)
0x04c0|00 00 00 00 00 00 00 00                        |........        |        tag: 0 0x4c0-0x4c8 (8)
      |                                               |                |    [11]{}: load_command 0x4c8-0x500 (56)
0x04c0|                        0c 00 00 00            |        ....    |      cmd: "load_dylib" (0xc) 0x4c8-0x4cc (4)
0x04c0|                                    38 00 00 00|            8...|      cmdsize: 56 0x4cc-0x4d0 (4)
      |                                               |                |      dylib_command{}: 0x4d0-0x500 (48)
0x04d0|18 00 00 00                                    |....            |        offset: 0x18 0x4d0-0x4d4 (4)
0x04d0|            02 00 00 00                        |    ....        |        timestamp: "1970-01-01 00:00:00.002 +0000 UTC" (2) 0x4d4-0x4d8 (4)
0x04d0|                        05 64 0c 05            |        .d..    |        current_version: 84698117 0x4d8-0x4dc (4)
0x04d0|                                    00 00 01 00|            ....|        compatibility_version: 65536 0x4dc-0x4e0 (4)
0x04e0|2f 75 73 72 2f 6c 69 62 2f 6c 69 62 53 79 73 74|/usr/lib/libSyst|        name: "/usr/lib/libSystem.B.dylib" 0x4e0-0x500 (32)
0x04f0|65 6d 2e 42 2e 64 79 6c 69 62 00 00 00 00 00 00|em.B.dylib......|
      |                                               |                |    [12]{}: load_command 0x500-0x510 (16)
0x0500|26 00 00 00                                    |&...            |      cmd: "function_starts" (0x26) 0x500-0x504 (4)
0x0500|            10 00 00 00                        |    ....        |      cmdsize: 16 0x504-0x508 (4)
      |                                               |                |      linkedit_data{}: 0x508-0x510 (8)
0x0500|                        48 c0 00 00            |        H...    |        off: 49224 0x508-0x50c (4)
0x0500|                                    08 00 00 00|            ....|        size: 8 0x50c-0x510 (4)
      |                                               |                |    [13]{}: load_command 0x510-0x520 (16)
0x0510|29 00 00 00                                    |)...            |      cmd: "data_in_code" (0x29) 0x510-0x514 (4)
0x0510|            10 00 00 00                        |    ....        |      cmdsize: 16 0x514-0x518 (4)
      |                                               |                |      linkedit_data{}: 0x518-0x520 (8)
0x0510|                        50 c0 00 00            |        P...    |        off: 49232 0x518-0x51c (4)
0x0510|                                    00 00 00 00|            ....|        size: 0 0x51c-0x520 (4)
      |                                               |                |    [14]{}: load_command 0x520-0x530 (16)
0x0520|1d 00 00 00                                    |....            |      cmd: "code_signature" (0x1d) 0x520-0x524 (4)
0x0520|            10 00 00 00                        |    ....        |      cmdsize: 16 0x524-0x528 (4)
      |                                               |                |      linkedit_data{}: 0x528-0x530 (8)
0x0520|                        e0 c0 00 00            |        ....    |        off: 49376 0x528-0x52c (4)
0x0520|                                    16 02 00 00|            ....|        size: 534 0x52c-0x530 (4)
0x0530|00 00 00 00 00 00 00 00 00 00 00 00 00 00 00 00|................|  gap0: raw bits 0x530-0x3f60 (14896)
*     |until 0x3f5f.7 (14896)                         |                |
0x4000|                        00 00 00 00 00 00 00 00|        ........|  gap1: raw bits 0x4008-0x8000 (16376)
0x4010|00 00 00 00 00 00 00 00 00 00 00 00 00 00 00 00|................|
*     |until 0x7fff.7 (16376)                         |                |
0x8010|00 00 00 00 00 00 00 00 00 00 00 00 00 00 00 00|................|  gap2: raw bits 0x8010-0xc050 (16448)
*     |until 0xc04f.7 (16448)                         |                |
0xc090|02 00 00 00 03 00 00 00 02 00 00 00 00 00 00 00|................|  gap3: raw bits 0xc090-0xc0a0 (16)
0xc0d0|                        00 00 00 00 00 00 00 00|        ........|  gap4: raw bits 0xc0d8-0xc2f6 (542)
0xc0e0|fa de 0c c0 00 00 02 16 00 00 00 01 00 00 00 00|................|
*     |until 0xc2f5.7 (end) (542)                     |                |
