$ fq -d pg_heap -o flavour=pgproee15 ".[0].tuples[0,-1] | dv" 16401
      |00 01 02 03 04 05 06 07 08 09 0a 0b 0c 0d 0e 0f|0123456789abcdef|.[0].tuples[0]{}: tuple 0x1fc8-0x1fe8 (32)
      |                                               |                |  header{}: 0x1fc8-0x1fe0 (24)
      |                                               |                |    t_choice{}: 0x1fc8-0x1fd4 (12)
      |                                               |                |      t_heap{}: 0x1fc8-0x1fd4 (12)
0x1fc0|                        03 00 00 00            |        ....    |        t_xmin: 3 0x1fc8-0x1fcc (4)
0x1fc0|                                    00 00 00 00|            ....|        t_xmax: 0 0x1fcc-0x1fd0 (4)
      |                                               |                |        t_field3{}: 0x1fd0-0x1fd4 (4)
0x1fd0|04 00 00 00                                    |....            |          t_cid: 4 0x1fd0-0x1fd4 (4)
0x1fd0|04 00 00 00                                    |....            |          t_xvac: 4 0x1fd0-0x1fd4 (4)
      |                                               |                |      t_datum{}: 0x1fc8-0x1fd4 (12)
0x1fc0|                        03 00 00 00            |        ....    |        datum_len_: 3 0x1fc8-0x1fcc (4)
0x1fc0|                                    00 00 00 00|            ....|        datum_typmod: 0 0x1fcc-0x1fd0 (4)
0x1fd0|04 00 00 00                                    |....            |        datum_typeid: 4 0x1fd0-0x1fd4 (4)
      |                                               |                |    t_ctid{}: 0x1fd4-0x1fda (6)
0x1fd0|            00 00 00 00                        |    ....        |      ip_blkid: 0 0x1fd4-0x1fd8 (4)
0x1fd0|                        01 00                  |        ..      |      ip_posid: 1 0x1fd8-0x1fda (2)
0x1fd0|                              03 00            |          ..    |    t_infomask2: 3 0x1fda-0x1fdc (2)
      |                                               |                |    infomask2{}: 0x1fdc-0x1fdc (0)
      |                                               |                |      heap_keys_updated: false
      |                                               |                |      heap_hot_updated: false
      |                                               |                |      heap_only_tuple: false
0x1fd0|                                    01 09      |            ..  |    t_infomask: 2305 0x1fdc-0x1fde (2)
      |                                               |                |    infomask{}: 0x1fde-0x1fde (0)
      |                                               |                |      heap_hasnull: true
      |                                               |                |      heap_hasvarwidth: false
      |                                               |                |      heap_hasexternal: false
      |                                               |                |      heap_hasoid_old: false
      |                                               |                |      heap_xmax_keyshr_lock: false
      |                                               |                |      heap_combocid: false
      |                                               |                |      heap_xmax_excl_lock: false
      |                                               |                |      heap_xmax_lock_only: false
      |                                               |                |      heap_xmax_shr_lock: false
      |                                               |                |      heap_lock_mask: false
      |                                               |                |      heap_xmin_committed: true
      |                                               |                |      heap_xmin_invalid: false
      |                                               |                |      heap_xmin_frozen: true
      |                                               |                |      heap_xmax_committed: false
      |                                               |                |      heap_xmax_invalid: true
      |                                               |                |      heap_xmax_is_multi: false
      |                                               |                |      heap_updated: false
      |                                               |                |      heap_moved_off: false
      |                                               |                |      heap_moved_in: false
      |                                               |                |      heap_moved: false
0x1fd0|                                          18   |              . |    t_hoff: 24 0x1fde-0x1fdf (1)
0x1fd0|                                             03|               .|    padding0: 3 0x1fdf-0x1fe0 (1)
0x1fe0|01 00 00 00 00 00 00 00                        |........        |  data: "0100000000000000" (raw bits) 0x1fe0-0x1fe8 (8)
      |00 01 02 03 04 05 06 07 08 09 0a 0b 0c 0d 0e 0f|0123456789abcdef|.[0].tuples[0]{}: tuple 0x1fc8-0x1fe8 (32)
      |                                               |                |  header{}: 0x1fc8-0x1fe0 (24)
      |                                               |                |    t_choice{}: 0x1fc8-0x1fd4 (12)
      |                                               |                |      t_heap{}: 0x1fc8-0x1fd4 (12)
0x1fc0|                        03 00 00 00            |        ....    |        t_xmin: 3 0x1fc8-0x1fcc (4)
0x1fc0|                                    00 00 00 00|            ....|        t_xmax: 0 0x1fcc-0x1fd0 (4)
      |                                               |                |        t_field3{}: 0x1fd0-0x1fd4 (4)
0x1fd0|04 00 00 00                                    |....            |          t_cid: 4 0x1fd0-0x1fd4 (4)
0x1fd0|04 00 00 00                                    |....            |          t_xvac: 4 0x1fd0-0x1fd4 (4)
      |                                               |                |      t_datum{}: 0x1fc8-0x1fd4 (12)
0x1fc0|                        03 00 00 00            |        ....    |        datum_len_: 3 0x1fc8-0x1fcc (4)
0x1fc0|                                    00 00 00 00|            ....|        datum_typmod: 0 0x1fcc-0x1fd0 (4)
0x1fd0|04 00 00 00                                    |....            |        datum_typeid: 4 0x1fd0-0x1fd4 (4)
      |                                               |                |    t_ctid{}: 0x1fd4-0x1fda (6)
0x1fd0|            00 00 00 00                        |    ....        |      ip_blkid: 0 0x1fd4-0x1fd8 (4)
0x1fd0|                        01 00                  |        ..      |      ip_posid: 1 0x1fd8-0x1fda (2)
0x1fd0|                              03 00            |          ..    |    t_infomask2: 3 0x1fda-0x1fdc (2)
      |                                               |                |    infomask2{}: 0x1fdc-0x1fdc (0)
      |                                               |                |      heap_keys_updated: false
      |                                               |                |      heap_hot_updated: false
      |                                               |                |      heap_only_tuple: false
0x1fd0|                                    01 09      |            ..  |    t_infomask: 2305 0x1fdc-0x1fde (2)
      |                                               |                |    infomask{}: 0x1fde-0x1fde (0)
      |                                               |                |      heap_hasnull: true
      |                                               |                |      heap_hasvarwidth: false
      |                                               |                |      heap_hasexternal: false
      |                                               |                |      heap_hasoid_old: false
      |                                               |                |      heap_xmax_keyshr_lock: false
      |                                               |                |      heap_combocid: false
      |                                               |                |      heap_xmax_excl_lock: false
      |                                               |                |      heap_xmax_lock_only: false
      |                                               |                |      heap_xmax_shr_lock: false
      |                                               |                |      heap_lock_mask: false
      |                                               |                |      heap_xmin_committed: true
      |                                               |                |      heap_xmin_invalid: false
      |                                               |                |      heap_xmin_frozen: true
      |                                               |                |      heap_xmax_committed: false
      |                                               |                |      heap_xmax_invalid: true
      |                                               |                |      heap_xmax_is_multi: false
      |                                               |                |      heap_updated: false
      |                                               |                |      heap_moved_off: false
      |                                               |                |      heap_moved_in: false
      |                                               |                |      heap_moved: false
0x1fd0|                                          18   |              . |    t_hoff: 24 0x1fde-0x1fdf (1)
0x1fd0|                                             03|               .|    padding0: 3 0x1fdf-0x1fe0 (1)
0x1fe0|01 00 00 00 00 00 00 00                        |........        |  data: "0100000000000000" (raw bits) 0x1fe0-0x1fe8 (8)
