$ fq -i -d mp3 . /test.mp3
mp3> decode
     |00 01 02 03 04 05 06 07 08 09 0a 0b 0c 0d 0e 0f|0123456789abcdef|.: {} (mp3)
0x000|49 44 33 04 00 00 00 00 00 23 54 53 53 45 00 00|ID3......#TSSE..|  headers: [1]
*    |until 0x2c.7 (45)                              |                |
0x020|                                       ff fb 40|             ..@|  frames: [3]
0x030|c0 00 00 00 00 00 00 00 00 00 00 00 00 00 00 00|................|
*    |until 0x283.7 (end) (599)                      |                |
     |                                               |                |  footers: [0]
mp3> decode("mp3")
     |00 01 02 03 04 05 06 07 08 09 0a 0b 0c 0d 0e 0f|0123456789abcdef|.: {} (mp3)
0x000|49 44 33 04 00 00 00 00 00 23 54 53 53 45 00 00|ID3......#TSSE..|  headers: [1]
*    |until 0x2c.7 (45)                              |                |
0x020|                                       ff fb 40|             ..@|  frames: [3]
0x030|c0 00 00 00 00 00 00 00 00 00 00 00 00 00 00 00|................|
*    |until 0x283.7 (end) (599)                      |                |
     |                                               |                |  footers: [0]
mp3> decode("mp3"; {})
     |00 01 02 03 04 05 06 07 08 09 0a 0b 0c 0d 0e 0f|0123456789abcdef|.: {} (mp3)
0x000|49 44 33 04 00 00 00 00 00 23 54 53 53 45 00 00|ID3......#TSSE..|  headers: [1]
*    |until 0x2c.7 (45)                              |                |
0x020|                                       ff fb 40|             ..@|  frames: [3]
0x030|c0 00 00 00 00 00 00 00 00 00 00 00 00 00 00 00|................|
*    |until 0x283.7 (end) (599)                      |                |
     |                                               |                |  footers: [0]
mp3> probe
     |00 01 02 03 04 05 06 07 08 09 0a 0b 0c 0d 0e 0f|0123456789abcdef|.: {} (mp3)
0x000|49 44 33 04 00 00 00 00 00 23 54 53 53 45 00 00|ID3......#TSSE..|  headers: [1]
*    |until 0x2c.7 (45)                              |                |
0x020|                                       ff fb 40|             ..@|  frames: [3]
0x030|c0 00 00 00 00 00 00 00 00 00 00 00 00 00 00 00|................|
*    |until 0x283.7 (end) (599)                      |                |
     |                                               |                |  footers: [0]
mp3> probe({})
     |00 01 02 03 04 05 06 07 08 09 0a 0b 0c 0d 0e 0f|0123456789abcdef|.: {} (mp3)
0x000|49 44 33 04 00 00 00 00 00 23 54 53 53 45 00 00|ID3......#TSSE..|  headers: [1]
*    |until 0x2c.7 (45)                              |                |
0x020|                                       ff fb 40|             ..@|  frames: [3]
0x030|c0 00 00 00 00 00 00 00 00 00 00 00 00 00 00 00|................|
*    |until 0x283.7 (end) (599)                      |                |
     |                                               |                |  footers: [0]
mp3> format
"mp3"
mp3> null | format
null
mp3> ^D
$ fq -d raw 'png | d' /test.mp3
     |00 01 02 03 04 05 06 07 08 09 0a 0b 0c 0d 0e 0f|0123456789abcdef|.: {} (png)
     |                                               |                |  error: png: RawLen(signature): failed at position 8 (read size 0 seek pos 0): failed to validate raw
0x000|49 44 33 04 00 00 00 00 00 23 54 53 53 45 00 00|ID3......#TSSE..|  unknown0: raw bits
*    |until 0x283.7 (end) (644)                      |                |
$ fq -d raw 'tobytes[0:1] | png | d' /test.mp3
   |00 01 02 03 04 05 06 07 08 09 0a 0b 0c 0d 0e 0f|0123456789abcdef|.: {} (png)
   |                                               |                |  error: png: RawLen(signature): failed at position 0 (read size 0 seek pos 0): outside buffer
0x0|49                                             |I               |  unknown0: raw bits
$ fq -d raw 'tobytes[0:1] | try probe catch . | type' /test.mp3
"array"
