$ fq -i -d mp3 . /test.mp3
mp3> grep(44100, "ID", "^ID3$", "^ID.?$", "Info", "magic", "\u00ff", [0x49, 0x44])
    |00 01 02 03 04 05 06 07 08 09 0a 0b 0c 0d 0e 0f|0123456789abcdef|
0x20|                                             40|               @|.frames[0].header.sample_rate: 44100 (0)
    |00 01 02 03 04 05 06 07 08 09 0a 0b 0c 0d 0e 0f|0123456789abcdef|
0xe0|               50                              |     P          |.frames[1].header.sample_rate: 44100 (0)
     |00 01 02 03 04 05 06 07 08 09 0a 0b 0c 0d 0e 0f|0123456789abcdef|
0x1b0|               52                              |     R          |.frames[2].header.sample_rate: 44100 (0)
     |00 01 02 03 04 05 06 07 08 09 0a 0b 0c 0d 0e 0f|0123456789abcdef|
0x1c0|                        11 4b 36 4a 08 83 58 c9|        .K6J..X.|.frames[2].data: raw bits
0x1d0|20 d4 29 52 98 c8 c8 f9 13 80 40 24 bc 91 23 42| .)R......@$..#B|
*    |until 0x279.7 (178)                            |                |
   |00 01 02 03 04 05 06 07 08 09 0a 0b 0c 0d 0e 0f|0123456789abcdef|
0x0|49 44 33                                       |ID3             |.headers[0].magic: "ID3" (valid)
   |00 01 02 03 04 05 06 07 08 09 0a 0b 0c 0d 0e 0f|0123456789abcdef|
0x0|49 44 33                                       |ID3             |.headers[0].magic: "ID3" (valid)
   |00 01 02 03 04 05 06 07 08 09 0a 0b 0c 0d 0e 0f|0123456789abcdef|
0x0|49 44 33                                       |ID3             |.headers[0].magic: "ID3" (valid)
    |00 01 02 03 04 05 06 07 08 09 0a 0b 0c 0d 0e 0f|0123456789abcdef|
0x40|      49 6e 66 6f                              |  Info          |.frames[0].xing.header: "Info"
   |00 01 02 03 04 05 06 07 08 09 0a 0b 0c 0d 0e 0f|0123456789abcdef|
0x0|49 44 33                                       |ID3             |.headers[0].magic: "ID3" (valid)
mp3> vgrep(44100, "ID", "^ID3$", "^ID.?$", "Info", "magic", "\u00ff", [0x49, 0x44])
    |00 01 02 03 04 05 06 07 08 09 0a 0b 0c 0d 0e 0f|0123456789abcdef|
0x20|                                             40|               @|.frames[0].header.sample_rate: 44100 (0)
    |00 01 02 03 04 05 06 07 08 09 0a 0b 0c 0d 0e 0f|0123456789abcdef|
0xe0|               50                              |     P          |.frames[1].header.sample_rate: 44100 (0)
     |00 01 02 03 04 05 06 07 08 09 0a 0b 0c 0d 0e 0f|0123456789abcdef|
0x1b0|               52                              |     R          |.frames[2].header.sample_rate: 44100 (0)
   |00 01 02 03 04 05 06 07 08 09 0a 0b 0c 0d 0e 0f|0123456789abcdef|
0x0|49 44 33                                       |ID3             |.headers[0].magic: "ID3" (valid)
   |00 01 02 03 04 05 06 07 08 09 0a 0b 0c 0d 0e 0f|0123456789abcdef|
0x0|49 44 33                                       |ID3             |.headers[0].magic: "ID3" (valid)
   |00 01 02 03 04 05 06 07 08 09 0a 0b 0c 0d 0e 0f|0123456789abcdef|
0x0|49 44 33                                       |ID3             |.headers[0].magic: "ID3" (valid)
    |00 01 02 03 04 05 06 07 08 09 0a 0b 0c 0d 0e 0f|0123456789abcdef|
0x40|      49 6e 66 6f                              |  Info          |.frames[0].xing.header: "Info"
mp3> fgrep(44100, "ID", "^ID3$", "^ID.?$", "Info", "magic", "\u00ff", [0x49, 0x44])
   |00 01 02 03 04 05 06 07 08 09 0a 0b 0c 0d 0e 0f|0123456789abcdef|
0x0|49 44 33                                       |ID3             |.headers[0].magic: "ID3" (valid)
mp3> bgrep(44100, "ID", "^ID3$", "^ID.?$", "Info", "magic", "\u00ff", [0x49, 0x44])
     |00 01 02 03 04 05 06 07 08 09 0a 0b 0c 0d 0e 0f|0123456789abcdef|
0x1c0|                        11 4b 36 4a 08 83 58 c9|        .K6J..X.|.frames[2].data: raw bits
0x1d0|20 d4 29 52 98 c8 c8 f9 13 80 40 24 bc 91 23 42| .)R......@$..#B|
*    |until 0x279.7 (178)                            |                |
   |00 01 02 03 04 05 06 07 08 09 0a 0b 0c 0d 0e 0f|0123456789abcdef|
0x0|49 44 33                                       |ID3             |.headers[0].magic: "ID3" (valid)
   |00 01 02 03 04 05 06 07 08 09 0a 0b 0c 0d 0e 0f|0123456789abcdef|
0x0|49 44 33                                       |ID3             |.headers[0].magic: "ID3" (valid)
   |00 01 02 03 04 05 06 07 08 09 0a 0b 0c 0d 0e 0f|0123456789abcdef|
0x0|49 44 33                                       |ID3             |.headers[0].magic: "ID3" (valid)
    |00 01 02 03 04 05 06 07 08 09 0a 0b 0c 0d 0e 0f|0123456789abcdef|
0x40|      49 6e 66 6f                              |  Info          |.frames[0].xing.header: "Info"
   |00 01 02 03 04 05 06 07 08 09 0a 0b 0c 0d 0e 0f|0123456789abcdef|
0x0|49 44 33                                       |ID3             |.headers[0].magic: "ID3" (valid)
mp3> "64ff65ff66" | hex | bgrep("\u00ff"; "b")
   |00 01 02 03 04 05 06 07 08 09 0a 0b 0c 0d 0e 0f|0123456789abcdef|
0x0|64 ff 65 ff 66|                                |d.e.f|          |.: raw bits 0x0-0x4.7 (5)
mp3> ^D
