$ fq -d flac dv /picture_seek_gain.flac
      |00 01 02 03 04 05 06 07 08 09 0a 0b 0c 0d 0e 0f|0123456789abcdef|.{}: /picture_seek_gain.flac (flac) 0x0-0x225f.7 (8800)
0x0000|66 4c 61 43                                    |fLaC            |  magic: "fLaC" (valid) 0x0-0x3.7 (4)
      |                                               |                |  metadatablocks[0:5]: (flac_metadatablocks) 0x4-0x205f.7 (8284)
      |                                               |                |    [0]{}: metadatablock (flac_metadatablock) 0x4-0x29.7 (38)
0x0000|            00                                 |    .           |      last_block: false 0x4-0x4 (0.1)
0x0000|            00                                 |    .           |      type: "streaminfo" (0) 0x4.1-0x4.7 (0.7)
0x0000|               00 00 22                        |     .."        |      length: 34 0x5-0x7.7 (3)
0x0000|                        12 00                  |        ..      |      minimum_block_size: 4608 0x8-0x9.7 (2)
0x0000|                              12 00            |          ..    |      maximum_block_size: 4608 0xa-0xb.7 (2)
0x0000|                                    00 02 00   |            ... |      minimum_frame_size: 512 0xc-0xe.7 (3)
0x0000|                                             00|               .|      maximum_frame_size: 512 0xf-0x11.7 (3)
0x0010|02 00                                          |..              |
0x0010|      0a c4 40                                 |  ..@           |      sample_rate: 44100 0x12-0x14.3 (2.4)
0x0010|            40                                 |    @           |      channels: 1 0x14.4-0x14.6 (0.3)
0x0010|            40 f0                              |    @.          |      bits_per_sample: 16 0x14.7-0x15.3 (0.5)
0x0010|               f0 00 00 01 b9                  |     .....      |      total_samples_in_stream: 441 0x15.4-0x19.7 (4.4)
0x0010|                              89 88 7b 80 f8 10|          ..{...|      md5: "89887b80f810285b45f6c4ecc72c977e" (raw bits) 0x1a-0x29.7 (16)
0x0020|28 5b 45 f6 c4 ec c7 2c 97 7e                  |([E....,.~      |
      |                                               |                |    [1]{}: metadatablock (flac_metadatablock) 0x2a-0x3f.7 (22)
0x0020|                              03               |          .     |      last_block: false 0x2a-0x2a (0.1)
0x0020|                              03               |          .     |      type: "seektable" (3) 0x2a.1-0x2a.7 (0.7)
0x0020|                                 00 00 12      |           ...  |      length: 18 0x2b-0x2d.7 (3)
      |                                               |                |      seekpoints[0:1]: 0x2e-0x3f.7 (18)
      |                                               |                |        [0]{}: seekpoint 0x2e-0x3f.7 (18)
0x0020|                                          00 00|              ..|          sample_number: 0 0x2e-0x35.7 (8)
0x0030|00 00 00 00 00 00                              |......          |
0x0030|                  00 00 00 00 00 00 00 00      |      ........  |          offset: 0 0x36-0x3d.7 (8)
0x0030|                                          01 b9|              ..|          number_of_samples: 441 0x3e-0x3f.7 (2)
      |                                               |                |    [2]{}: metadatablock (flac_metadatablock) 0x40-0x12e.7 (239)
0x0040|04                                             |.               |      last_block: false 0x40-0x40 (0.1)
0x0040|04                                             |.               |      type: "vorbis_comment" (4) 0x40.1-0x40.7 (0.7)
0x0040|   00 00 eb                                    | ...            |      length: 235 0x41-0x43.7 (3)
      |                                               |                |      comment{}: (vorbis_comment) 0x44-0x12e.7 (235)
0x0040|            0d 00 00 00                        |    ....        |        vendor_length: 13 0x44-0x47.7 (4)
0x0040|                        4c 61 76 66 35 38 2e 34|        Lavf58.4|        vendor: "Lavf58.45.100" 0x48-0x54.7 (13)
0x0050|35 2e 31 30 30                                 |5.100           |
0x0050|               06 00 00 00                     |     ....       |        user_comment_list_length: 6 0x55-0x58.7 (4)
      |                                               |                |        user_comments[0:6]: 0x59-0x12e.7 (214)
      |                                               |                |          [0]{}: user_comment 0x59-0x71.7 (25)
0x0050|                           15 00 00 00         |         ....   |            length: 21 0x59-0x5c.7 (4)
0x0050|                                       65 6e 63|             enc|            comment: "encoder=Lavf58.45.100" 0x5d-0x71.7 (21)
0x0060|6f 64 65 72 3d 4c 61 76 66 35 38 2e 34 35 2e 31|oder=Lavf58.45.1|
0x0070|30 30                                          |00              |
      |                                               |                |          [1]{}: user_comment 0x72-0x9a.7 (41)
0x0070|      25 00 00 00                              |  %...          |            length: 37 0x72-0x75.7 (4)
0x0070|                  52 45 50 4c 41 59 47 41 49 4e|      REPLAYGAIN|            comment: "REPLAYGAIN_REFERENCE_LOUDNESS=89.0 dB" 0x76-0x9a.7 (37)
0x0080|5f 52 45 46 45 52 45 4e 43 45 5f 4c 4f 55 44 4e|_REFERENCE_LOUDN|
0x0090|45 53 53 3d 38 39 2e 30 20 64 42               |ESS=89.0 dB     |
      |                                               |                |          [2]{}: user_comment 0x9b-0xc0.7 (38)
0x0090|                                 22 00 00 00   |           "... |            length: 34 0x9b-0x9e.7 (4)
0x0090|                                             52|               R|            comment: "REPLAYGAIN_TRACK_GAIN=-24601.00 dB" 0x9f-0xc0.7 (34)
0x00a0|45 50 4c 41 59 47 41 49 4e 5f 54 52 41 43 4b 5f|EPLAYGAIN_TRACK_|
*     |until 0xc0.7 (34)                              |                |
      |                                               |                |          [3]{}: user_comment 0xc1-0xe4.7 (36)
0x00c0|   20 00 00 00                                 |  ...           |            length: 32 0xc1-0xc4.7 (4)
0x00c0|               52 45 50 4c 41 59 47 41 49 4e 5f|     REPLAYGAIN_|            comment: "REPLAYGAIN_TRACK_PEAK=0.12496948" 0xc5-0xe4.7 (32)
0x00d0|54 52 41 43 4b 5f 50 45 41 4b 3d 30 2e 31 32 34|TRACK_PEAK=0.124|
0x00e0|39 36 39 34 38                                 |96948           |
      |                                               |                |          [4]{}: user_comment 0xe5-0x10a.7 (38)
0x00e0|               22 00 00 00                     |     "...       |            length: 34 0xe5-0xe8.7 (4)
0x00e0|                           52 45 50 4c 41 59 47|         REPLAYG|            comment: "REPLAYGAIN_ALBUM_GAIN=-24601.00 dB" 0xe9-0x10a.7 (34)
0x00f0|41 49 4e 5f 41 4c 42 55 4d 5f 47 41 49 4e 3d 2d|AIN_ALBUM_GAIN=-|
0x0100|32 34 36 30 31 2e 30 30 20 64 42               |24601.00 dB     |
      |                                               |                |          [5]{}: user_comment 0x10b-0x12e.7 (36)
0x0100|                                 20 00 00 00   |            ... |            length: 32 0x10b-0x10e.7 (4)
0x0100|                                             52|               R|            comment: "REPLAYGAIN_ALBUM_PEAK=0.12496948" 0x10f-0x12e.7 (32)
0x0110|45 50 4c 41 59 47 41 49 4e 5f 41 4c 42 55 4d 5f|EPLAYGAIN_ALBUM_|
0x0120|50 45 41 4b 3d 30 2e 31 32 34 39 36 39 34 38   |PEAK=0.12496948 |
      |                                               |                |    [3]{}: metadatablock (flac_metadatablock) 0x12f-0x25e.7 (304)
0x0120|                                             06|               .|      last_block: false 0x12f-0x12f (0.1)
0x0120|                                             06|               .|      type: "picture" (6) 0x12f.1-0x12f.7 (0.7)
0x0130|00 01 2c                                       |..,             |      length: 300 0x130-0x132.7 (3)
      |                                               |                |      picture{}: (flac_picture) 0x133-0x25e.7 (300)
0x0130|         00 00 00 03                           |   ....         |        picture_type: "Cover (front)" (3) 0x133-0x136.7 (4)
0x0130|                     00 00 00 09               |       ....     |        mime_length: 9 0x137-0x13a.7 (4)
0x0130|                                 69 6d 61 67 65|           image|        mime: "image/png" 0x13b-0x143.7 (9)
0x0140|2f 70 6e 67                                    |/png            |
0x0140|            00 00 00 00                        |    ....        |        description_length: 0 0x144-0x147.7 (4)
      |                                               |                |        description: "" 0x148-NA (0)
0x0140|                        00 00 00 04            |        ....    |        width: 4 0x148-0x14b.7 (4)
0x0140|                                    00 00 00 04|            ....|        height: 4 0x14c-0x14f.7 (4)
0x0150|00 00 00 01                                    |....            |        color_depth: 1 0x150-0x153.7 (4)
0x0150|            00 00 00 00                        |    ....        |        number_of_index_colors: 0 0x154-0x157.7 (4)
0x0150|                        00 00 01 03            |        ....    |        picture_length: 259 0x158-0x15b.7 (4)
      |                                               |                |        picture_data{}: (png) 0x15c-0x25e.7 (259)
0x0150|                                    89 50 4e 47|            .PNG|          signature: raw bits (valid) 0x15c-0x163.7 (8)
0x0160|0d 0a 1a 0a                                    |....            |
      |                                               |                |          chunks[0:9]: 0x164-0x25e.7 (251)
      |                                               |                |            [0]{}: chunk 0x164-0x17c.7 (25)
0x0160|            00 00 00 0d                        |    ....        |              length: 13 0x164-0x167.7 (4)
0x0160|                        49 48 44 52            |        IHDR    |              type: "IHDR" 0x168-0x16b.7 (4)
0x0160|                        49                     |        I       |              ancillary: false 0x168.3-0x168.3 (0.1)
0x0160|                           48                  |         H      |              private: false 0x169.3-0x169.3 (0.1)
0x0160|                              44               |          D     |              reserved: false 0x16a.3-0x16a.3 (0.1)
0x0160|                                 52            |           R    |              safe_to_copy: true 0x16b.3-0x16b.3 (0.1)
0x0160|                                    00 00 00 04|            ....|              width: 4 0x16c-0x16f.7 (4)
0x0170|00 00 00 04                                    |....            |              height: 4 0x170-0x173.7 (4)
0x0170|            01                                 |    .           |              bit_depth: 1 0x174-0x174.7 (1)
0x0170|               00                              |     .          |              color_type: "grayscale" (0) 0x175-0x175.7 (1)
0x0170|                  00                           |      .         |              compression_method: "deflate" (0) 0x176-0x176.7 (1)
0x0170|                     00                        |       .        |              filter_method: "adaptive_filtering" (0) 0x177-0x177.7 (1)
0x0170|                        00                     |        .       |              interlace_method: "none" (0) 0x178-0x178.7 (1)
0x0170|                           81 8a a3 d3         |         ....   |              crc: 0x818aa3d3 (valid) 0x179-0x17c.7 (4)
      |                                               |                |            [1]{}: chunk 0x17d-0x18c.7 (16)
0x0170|                                       00 00 00|             ...|              length: 4 0x17d-0x180.7 (4)
0x0180|04                                             |.               |
0x0180|   67 41 4d 41                                 | gAMA           |              type: "gAMA" 0x181-0x184.7 (4)
0x0180|   67                                          | g              |              ancillary: false 0x181.3-0x181.3 (0.1)
0x0180|      41                                       |  A             |              private: false 0x182.3-0x182.3 (0.1)
0x0180|         4d                                    |   M            |              reserved: false 0x183.3-0x183.3 (0.1)
0x0180|            41                                 |    A           |              safe_to_copy: false 0x184.3-0x184.3 (0.1)
0x0180|               00 00 b1 8f                     |     ....       |              value: 45455 0x185-0x188.7 (4)
0x0180|                           0b fc 61 05         |         ..a.   |              crc: 0xbfc6105 (valid) 0x189-0x18c.7 (4)
      |                                               |                |            [2]{}: chunk 0x18d-0x1b8.7 (44)
0x0180|                                       00 00 00|             ...|              length: 32 0x18d-0x190.7 (4)
0x0190|20                                             |                |
0x0190|   63 48 52 4d                                 | cHRM           |              type: "cHRM" 0x191-0x194.7 (4)
0x0190|   63                                          | c              |              ancillary: false 0x191.3-0x191.3 (0.1)
0x0190|      48                                       |  H             |              private: false 0x192.3-0x192.3 (0.1)
0x0190|         52                                    |   R            |              reserved: true 0x193.3-0x193.3 (0.1)
0x0190|            4d                                 |    M           |              safe_to_copy: false 0x194.3-0x194.3 (0.1)
0x0190|               00 00 7a 26                     |     ..z&       |              white_point_x: 31.27 0x195-0x198.7 (4)
0x0190|                           00 00 80 84         |         ....   |              white_point_y: 32.9 0x199-0x19c.7 (4)
0x0190|                                       00 00 fa|             ...|              red_x: 64 0x19d-0x1a0.7 (4)
0x01a0|00                                             |.               |
0x01a0|   00 00 80 e8                                 | ....           |              red_y: 33 0x1a1-0x1a4.7 (4)
0x01a0|               00 00 75 30                     |     ..u0       |              green_x: 30 0x1a5-0x1a8.7 (4)
0x01a0|                           00 00 ea 60         |         ...`   |              green_y: 60 0x1a9-0x1ac.7 (4)
0x01a0|                                       00 00 3a|             ..:|              blue_x: 15 0x1ad-0x1b0.7 (4)
0x01b0|98                                             |.               |
0x01b0|   00 00 17 70                                 | ...p           |              blue_y: 6 0x1b1-0x1b4.7 (4)
0x01b0|               9c ba 51 3c                     |     ..Q<       |              crc: 0x9cba513c (valid) 0x1b5-0x1b8.7 (4)
      |                                               |                |            [3]{}: chunk 0x1b9-0x1c6.7 (14)
0x01b0|                           00 00 00 02         |         ....   |              length: 2 0x1b9-0x1bc.7 (4)
0x01b0|                                       62 4b 47|             bKG|              type: "bKGD" 0x1bd-0x1c0.7 (4)
0x01c0|44                                             |D               |
0x01b0|                                       62      |             b  |              ancillary: false 0x1bd.3-0x1bd.3 (0.1)
0x01b0|                                          4b   |              K |              private: false 0x1be.3-0x1be.3 (0.1)
0x01b0|                                             47|               G|              reserved: false 0x1bf.3-0x1bf.3 (0.1)
0x01c0|44                                             |D               |              safe_to_copy: false 0x1c0.3-0x1c0.3 (0.1)
0x01c0|   00 01                                       | ..             |              gray: 1 0x1c1-0x1c2.7 (2)
0x01c0|         dd 8a 13 a4                           |   ....         |              crc: 0xdd8a13a4 (valid) 0x1c3-0x1c6.7 (4)
      |                                               |                |            [4]{}: chunk 0x1c7-0x1d9.7 (19)
0x01c0|                     00 00 00 07               |       ....     |              length: 7 0x1c7-0x1ca.7 (4)
0x01c0|                                 74 49 4d 45   |           tIME |              type: "tIME" 0x1cb-0x1ce.7 (4)
0x01c0|                                 74            |           t    |              ancillary: true 0x1cb.3-0x1cb.3 (0.1)
0x01c0|                                    49         |            I   |              private: false 0x1cc.3-0x1cc.3 (0.1)
0x01c0|                                       4d      |             M  |              reserved: false 0x1cd.3-0x1cd.3 (0.1)
0x01c0|                                          45   |              E |              safe_to_copy: false 0x1ce.3-0x1ce.3 (0.1)
0x01c0|                                             07|               .|              data: raw bits 0x1cf-0x1d5.7 (7)
0x01d0|e5 02 1b 16 3b 1c                              |....;.          |
0x01d0|                  47 9d cf da                  |      G...      |              crc: 0x479dcfda (valid) 0x1d6-0x1d9.7 (4)
      |                                               |                |            [5]{}: chunk 0x1da-0x1f0.7 (23)
0x01d0|                              00 00 00 0b      |          ....  |              length: 11 0x1da-0x1dd.7 (4)
0x01d0|                                          49 44|              ID|              type: "IDAT" 0x1de-0x1e1.7 (4)
0x01e0|41 54                                          |AT              |
0x01d0|                                          49   |              I |              ancillary: false 0x1de.3-0x1de.3 (0.1)
0x01d0|                                             44|               D|              private: false 0x1df.3-0x1df.3 (0.1)
0x01e0|41                                             |A               |              reserved: false 0x1e0.3-0x1e0.3 (0.1)
0x01e0|   54                                          | T              |              safe_to_copy: true 0x1e1.3-0x1e1.3 (0.1)
0x01e0|      08 d7 63 60 80 00 00 00 08 00 01         |  ..c`.......   |              data: raw bits 0x1e2-0x1ec.7 (11)
0x01e0|                                       2f 20 dd|             / .|              crc: 0x2f20dd31 (valid) 0x1ed-0x1f0.7 (4)
0x01f0|31                                             |1               |
      |                                               |                |            [6]{}: chunk 0x1f1-0x221.7 (49)
0x01f0|   00 00 00 25                                 | ...%           |              length: 37 0x1f1-0x1f4.7 (4)
0x01f0|               74 45 58 74                     |     tEXt       |              type: "tEXt" 0x1f5-0x1f8.7 (4)
0x01f0|               74                              |     t          |              ancillary: true 0x1f5.3-0x1f5.3 (0.1)
0x01f0|                  45                           |      E         |              private: false 0x1f6.3-0x1f6.3 (0.1)
0x01f0|                     58                        |       X        |              reserved: true 0x1f7.3-0x1f7.3 (0.1)
0x01f0|                        74                     |        t       |              safe_to_copy: true 0x1f8.3-0x1f8.3 (0.1)
0x01f0|                           64 61 74 65 3a 63 72|         date:cr|              keyword: "date:create" 0x1f9-0x204.7 (12)
0x0200|65 61 74 65 00                                 |eate.           |
0x0200|               32 30 32 31 2d 30 32 2d 32 37 54|     2021-02-27T|              text: "2021-02-27T22:59:28+00:00" 0x205-0x21d.7 (25)
0x0210|32 32 3a 35 39 3a 32 38 2b 30 30 3a 30 30      |22:59:28+00:00  |
0x0210|                                          3b 7f|              ;.|              crc: 0x3b7fd305 (valid) 0x21e-0x221.7 (4)
0x0220|d3 05                                          |..              |
      |                                               |                |            [7]{}: chunk 0x222-0x252.7 (49)
0x0220|      00 00 00 25                              |  ...%          |              length: 37 0x222-0x225.7 (4)
0x0220|                  74 45 58 74                  |      tEXt      |              type: "tEXt" 0x226-0x229.7 (4)
0x0220|                  74                           |      t         |              ancillary: true 0x226.3-0x226.3 (0.1)
0x0220|                     45                        |       E        |              private: false 0x227.3-0x227.3 (0.1)
0x0220|                        58                     |        X       |              reserved: true 0x228.3-0x228.3 (0.1)
0x0220|                           74                  |         t      |              safe_to_copy: true 0x229.3-0x229.3 (0.1)
0x0220|                              64 61 74 65 3a 6d|          date:m|              keyword: "date:modify" 0x22a-0x235.7 (12)
0x0230|6f 64 69 66 79 00                              |odify.          |
0x0230|                  32 30 32 31 2d 30 32 2d 32 37|      2021-02-27|              text: "2021-02-27T22:59:28+00:00" 0x236-0x24e.7 (25)
0x0240|54 32 32 3a 35 39 3a 32 38 2b 30 30 3a 30 30   |T22:59:28+00:00 |
0x0240|                                             4a|               J|              crc: 0x4a226bb9 (valid) 0x24f-0x252.7 (4)
0x0250|22 6b b9                                       |"k.             |
      |                                               |                |            [8]{}: chunk 0x253-0x25e.7 (12)
0x0250|         00 00 00 00                           |   ....         |              length: 0 0x253-0x256.7 (4)
0x0250|                     49 45 4e 44               |       IEND     |              type: "IEND" 0x257-0x25a.7 (4)
0x0250|                     49                        |       I        |              ancillary: false 0x257.3-0x257.3 (0.1)
0x0250|                        45                     |        E       |              private: false 0x258.3-0x258.3 (0.1)
0x0250|                           4e                  |         N      |              reserved: false 0x259.3-0x259.3 (0.1)
0x0250|                              44               |          D     |              safe_to_copy: false 0x25a.3-0x25a.3 (0.1)
0x0250|                                 ae 42 60 82   |           .B`. |              crc: 0xae426082 (valid) 0x25b-0x25e.7 (4)
      |                                               |                |    [4]{}: metadatablock (flac_metadatablock) 0x25f-0x205f.7 (7681)
0x0250|                                             81|               .|      last_block: true 0x25f-0x25f (0.1)
0x0250|                                             81|               .|      type: "padding" (1) 0x25f.1-0x25f.7 (0.7)
0x0260|00 1d fd                                       |...             |      length: 7677 0x260-0x262.7 (3)
0x0260|         00 00 00 00 00 00 00 00 00 00 00 00 00|   .............|      data: raw bits 0x263-0x205f.7 (7677)
0x0270|00 00 00 00 00 00 00 00 00 00 00 00 00 00 00 00|................|
*     |until 0x205f.7 (7677)                          |                |
      |                                               |                |  frames[0:1]: 0x2060-0x225f.7 (512)
      |                                               |                |    [0]{}: frame (flac_frame) 0x2060-0x225f.7 (512)
      |                                               |                |      header{}: 0x2060-0x2067.7 (8)
0x2060|ff f8                                          |..              |        sync: 0b11111111111110 (valid) 0x2060-0x2061.5 (1.6)
0x2060|   f8                                          | .              |        reserved0: 0 (valid) 0x2061.6-0x2061.6 (0.1)
0x2060|   f8                                          | .              |        blocking_strategy: "fixed" (0) 0x2061.7-0x2061.7 (0.1)
0x2060|      79                                       |  y             |        block_size: 0b111 (end of header (16 bit)) 0x2062-0x2062.3 (0.4)
0x2060|      79                                       |  y             |        sample_rate: 44100 (0b1001) 0x2062.4-0x2062.7 (0.4)
0x2060|         08                                    |   .            |        channel_assignment: 1 (0) (mono) 0x2063-0x2063.3 (0.4)
0x2060|         08                                    |   .            |        sample_size: 16 (0b100) 0x2063.4-0x2063.6 (0.3)
0x2060|         08                                    |   .            |        reserved1: 0 (valid) 0x2063.7-0x2063.7 (0.1)
      |                                               |                |        end_of_header{}: 0x2064-0x2066.7 (3)
0x2060|            00                                 |    .           |          frame_number: 0 0x2064-0x2064.7 (1)
0x2060|               01 b8                           |     ..         |          block_size: 441 0x2065-0x2066.7 (2)
0x2060|                     55                        |       U        |        crc: 0x55 (valid) 0x2067-0x2067.7 (1)
      |                                               |                |      subframes[0:1]: 0x2068-0x225d.2 (501.3)
      |                                               |                |        [0]{}: subframe 0x2068-0x225d.2 (501.3)
0x2060|                        4e                     |        N       |          zero_bit: 0 (valid) 0x2068-0x2068 (0.1)
0x2060|                        4e                     |        N       |          subframe_type: "lpc" (0b100111) 0x2068.1-0x2068.6 (0.6)
      |                                               |                |          lpc_order: 8 0x2068.7-NA (0)
0x2060|                        4e                     |        N       |          wasted_bits_flag: 0 0x2068.7-0x2068.7 (0.1)
      |                                               |                |          subframe_sample_size: 16 0x2069-NA (0)
      |                                               |                |          warmup_samples[0:8]: 0x2069-0x2078.7 (16)
0x2060|                           00 00               |         ..     |            [0]: 0 value 0x2069-0x206a.7 (2)
0x2060|                                 01 00         |           ..   |            [1]: 256 value 0x206b-0x206c.7 (2)
0x2060|                                       01 ff   |             .. |            [2]: 511 value 0x206d-0x206e.7 (2)
0x2060|                                             02|               .|            [3]: 765 value 0x206f-0x2070.7 (2)
0x2070|fd                                             |.               |
0x2070|   03 f8                                       | ..             |            [4]: 1016 value 0x2071-0x2072.7 (2)
0x2070|         04 ee                                 |   ..           |            [5]: 1262 value 0x2073-0x2074.7 (2)
0x2070|               05 e0                           |     ..         |            [6]: 1504 value 0x2075-0x2076.7 (2)
0x2070|                     06 cc                     |       ..       |            [7]: 1740 value 0x2077-0x2078.7 (2)
0x2070|                           e7                  |         .      |          precision: 15 0x2079-0x2079.3 (0.4)
0x2070|                           e7 b7               |         ..     |          shift: 15 0x2079.4-0x207a (0.5)
      |                                               |                |          coefficients[0:8]: 0x207a.1-0x2089 (15)
0x2070|                              b7 52            |          .R    |            [0]: 14162 value 0x207a.1-0x207b.7 (1.7)
0x2070|                                    5c 9c      |            \.  |            [1]: 11854 value 0x207c-0x207d.6 (1.7)
0x2070|                                       9c 8d e8|             ...|            [2]: 9082 value 0x207d.7-0x207f.5 (1.7)
0x2070|                                             e8|               .|            [3]: 5975 value 0x207f.6-0x2081.4 (1.7)
0x2080|ba b8                                          |..              |
0x2080|   b8 a5 df                                    | ...            |            [4]: 2653 value 0x2081.5-0x2083.3 (1.7)
0x2080|         df a3 fc                              |   ...          |            [5]: -737 value 0x2083.4-0x2085.2 (1.7)
0x2080|               fc 03 71                        |     ..q        |            [6]: -4083 value 0x2085.3-0x2087.1 (1.7)
0x2080|                     71 e5 80                  |       q..      |            [7]: -7221 value 0x2087.2-0x2089 (1.7)
0x2080|                           80                  |         .      |          residual_coding_method: 4 (0) (rice) 0x2089.1-0x2089.2 (0.2)
0x2080|                           80                  |         .      |          partition_order: 0 0x2089.3-0x2089.6 (0.4)
      |                                               |                |          rice_partitions: 1 0x2089.7-NA (0)
      |                                               |                |          partitions[0:1]: 0x2089.7-0x225d.2 (467.4)
      |                                               |                |            [0]{}: partition 0x2089.7-0x225d.2 (467.4)
      |                                               |                |              count: 433 0x2089.7-NA (0)
0x2080|                           80 ee               |         ..     |              rice_parameter: 7 0x2089.7-0x208a.2 (0.4)
0x2080|                              ee e7 63 a9 cc e0|          ..c...|              samples: raw bits 0x208a.3-0x225d.2 (467)
0x2090|6d 35 19 8c 25 c2 c9 4c 9a 47 20 bd ba 36 b3 2f|m5..%..L.G ..6./|
*     |until 0x225d.2 (467)                           |                |
0x2250|                                       20      |                |      byte_align: 0 (valid) 0x225d.3-0x225d.7 (0.5)
0x2250|                                          7f ab|              ..|      footer_crc: "7fab" (raw bits) (valid) 0x225e-0x225f.7 (2)
 0x000|89 88 7b 80 f8 10 28 5b 45 f6 c4 ec c7 2c 97 7e|..{...([E....,.~|  md5_calculated: "89887b80f810285b45f6c4ecc72c977e" (raw bits) (valid) 0x0-0xf.7 (16)
      |                                               |                |  decoded_samples: 441 0x2260-NA (0)
