$ fq -d flac dv stereo24.flac
       |00 01 02 03 04 05 06 07 08 09 0a 0b 0c 0d 0e 0f|0123456789abcdef|.{}: stereo24.flac (flac) 0x0-0x11b61 (72545)
0x00000|66 4c 61 43                                    |fLaC            |  magic: "fLaC" (valid) 0x0-0x4 (4)
       |00 01 02 03 04 05 06 07 08 09 0a 0b 0c 0d 0e 0f|0123456789abcdef|  metadatablocks[0:4]: (flac_metadatablocks) 0x4-0x209c (8344)
       |00 01 02 03 04 05 06 07 08 09 0a 0b 0c 0d 0e 0f|0123456789abcdef|    [0]{}: metadatablock (flac_metadatablock) 0x4-0x2a (38)
0x00000|            00                                 |    .           |      last_block: false 0x4-0x4.1 (0.1)
0x00000|            00                                 |    .           |      type: "streaminfo" (0) 0x4.1-0x5 (0.7)
0x00000|               00 00 22                        |     .."        |      length: 34 0x5-0x8 (3)
0x00000|                        10 00                  |        ..      |      minimum_block_size: 4096 0x8-0xa (2)
0x00000|                              10 00            |          ..    |      maximum_block_size: 4096 0xa-0xc (2)
0x00000|                                    00 00 10   |            ... |      minimum_frame_size: 16 0xc-0xf (3)
0x00000|                                             00|               .|      maximum_frame_size: 24598 0xf-0x12 (3)
0x00010|60 16                                          |`.              |
0x00010|      0a c4 43                                 |  ..C           |      sample_rate: 44100 0x12-0x14.4 (2.4)
0x00010|            43                                 |    C           |      channels: 2 0x14.4-0x14.7 (0.3)
0x00010|            43 70                              |    Cp          |      bits_per_sample: 24 0x14.7-0x15.4 (0.5)
0x00010|               70 00 00 56 22                  |     p..V"      |      total_samples_in_stream: 22050 0x15.4-0x1a (4.4)
0x00010|                              bd dd 75 b3 c0 3e|          ..u..>|      md5: "bddd75b3c03e05528cc71f65a0774828" (raw bits) 0x1a-0x2a (16)
0x00020|05 52 8c c7 1f 65 a0 77 48 28                  |.R...e.wH(      |
       |00 01 02 03 04 05 06 07 08 09 0a 0b 0c 0d 0e 0f|0123456789abcdef|    [1]{}: metadatablock (flac_metadatablock) 0x2a-0x40 (22)
0x00020|                              03               |          .     |      last_block: false 0x2a-0x2a.1 (0.1)
0x00020|                              03               |          .     |      type: "seektable" (3) 0x2a.1-0x2b (0.7)
0x00020|                                 00 00 12      |           ...  |      length: 18 0x2b-0x2e (3)
       |                                               |                |      seekpoints[0:1]: 0x2e-0x40 (18)
       |                                               |                |        [0]{}: seekpoint 0x2e-0x40 (18)
0x00020|                                          00 00|              ..|          sample_number: 0 0x2e-0x36 (8)
0x00030|00 00 00 00 00 00                              |......          |
0x00030|                  00 00 00 00 00 00 00 00      |      ........  |          offset: 0 0x36-0x3e (8)
0x00030|                                          10 00|              ..|          number_of_samples: 4096 0x3e-0x40 (2)
       |00 01 02 03 04 05 06 07 08 09 0a 0b 0c 0d 0e 0f|0123456789abcdef|    [2]{}: metadatablock (flac_metadatablock) 0x40-0x98 (88)
0x00040|04                                             |.               |      last_block: false 0x40-0x40.1 (0.1)
0x00040|04                                             |.               |      type: "vorbis_comment" (4) 0x40.1-0x41 (0.7)
0x00040|   00 00 54                                    | ..T            |      length: 84 0x41-0x44 (3)
       |00 01 02 03 04 05 06 07 08 09 0a 0b 0c 0d 0e 0f|0123456789abcdef|      comment{}: (vorbis_comment) 0x44-0x98 (84)
0x00040|            20 00 00 00                        |     ...        |        vendor_length: 32 0x44-0x48 (4)
0x00040|                        72 65 66 65 72 65 6e 63|        referenc|        vendor: "reference libFLAC 1.3.4 20220220" 0x48-0x68 (32)
0x00050|65 20 6c 69 62 46 4c 41 43 20 31 2e 33 2e 34 20|e libFLAC 1.3.4 |
0x00060|32 30 32 32 30 32 32 30                        |20220220        |
0x00060|                        01 00 00 00            |        ....    |        user_comment_list_length: 1 0x68-0x6c (4)
       |                                               |                |        user_comments[0:1]: 0x6c-0x98 (44)
       |                                               |                |          [0]{}: user_comment 0x6c-0x98 (44)
0x00060|                                    28 00 00 00|            (...|            length: 40 0x6c-0x70 (4)
0x00070|57 41 56 45 46 4f 52 4d 41 54 45 58 54 45 4e 53|WAVEFORMATEXTENS|            comment: "WAVEFORMATEXTENSIBLE_CHANNEL_MASK=0x0003" 0x70-0x98 (40)
*      |until 0x97.7 (40)                              |                |
       |00 01 02 03 04 05 06 07 08 09 0a 0b 0c 0d 0e 0f|0123456789abcdef|    [3]{}: metadatablock (flac_metadatablock) 0x98-0x209c (8196)
0x00090|                        81                     |        .       |      last_block: true 0x98-0x98.1 (0.1)
0x00090|                        81                     |        .       |      type: "padding" (1) 0x98.1-0x99 (0.7)
0x00090|                           00 20 00            |         . .    |      length: 8192 0x99-0x9c (3)
0x00090|                                    00 00 00 00|            ....|      data: raw bits 0x9c-0x209c (8192)
0x000a0|00 00 00 00 00 00 00 00 00 00 00 00 00 00 00 00|................|
*      |until 0x209b.7 (8192)                          |                |
       |                                               |                |  frames[0:6]: 0x209c-0x11b61 (64197)
       |00 01 02 03 04 05 06 07 08 09 0a 0b 0c 0d 0e 0f|0123456789abcdef|    [0]{}: frame (flac_frame) 0x209c-0x20ac (16)
       |                                               |                |      header{}: 0x209c-0x20a2 (6)
0x02090|                                    ff f8      |            ..  |        sync: 0b11111111111110 (valid) 0x209c-0x209d.6 (1.6)
0x02090|                                       f8      |             .  |        reserved0: 0 (valid) 0x209d.6-0x209d.7 (0.1)
0x02090|                                       f8      |             .  |        blocking_strategy: "fixed" (0) 0x209d.7-0x209e (0.1)
0x02090|                                          c9   |              . |        block_size: 4096 (0b1100) 0x209e-0x209e.4 (0.4)
0x02090|                                          c9   |              . |        sample_rate: 44100 (0b1001) 0x209e.4-0x209f (0.4)
0x02090|                                             1c|               .|        channel_assignment: 2 (1) (lr) 0x209f-0x209f.4 (0.4)
0x02090|                                             1c|               .|        sample_size: 24 (0b110) 0x209f.4-0x209f.7 (0.3)
0x02090|                                             1c|               .|        reserved1: 0 (valid) 0x209f.7-0x20a0 (0.1)
       |                                               |                |        end_of_header{}: 0x20a0-0x20a1 (1)
0x020a0|00                                             |.               |          frame_number: 0 0x20a0-0x20a1 (1)
0x020a0|   96                                          | .              |        crc: 0x96 (valid) 0x20a1-0x20a2 (1)
       |                                               |                |      subframes[0:2]: 0x20a2-0x20aa (8)
       |                                               |                |        [0]{}: subframe 0x20a2-0x20a6 (4)
0x020a0|      00                                       |  .             |          zero_bit: 0 (valid) 0x20a2-0x20a2.1 (0.1)
0x020a0|      00                                       |  .             |          subframe_type: "constant" (0b0) 0x20a2.1-0x20a2.7 (0.6)
0x020a0|      00                                       |  .             |          wasted_bits_flag: 0 0x20a2.7-0x20a3 (0.1)
       |                                               |                |          subframe_sample_size: 24
0x020a0|         00 00 00                              |   ...          |          value: 0 0x20a3-0x20a6 (3)
       |                                               |                |        [1]{}: subframe 0x20a6-0x20aa (4)
0x020a0|                  00                           |      .         |          zero_bit: 0 (valid) 0x20a6-0x20a6.1 (0.1)
0x020a0|                  00                           |      .         |          subframe_type: "constant" (0b0) 0x20a6.1-0x20a6.7 (0.6)
0x020a0|                  00                           |      .         |          wasted_bits_flag: 0 0x20a6.7-0x20a7 (0.1)
       |                                               |                |          subframe_sample_size: 24
0x020a0|                     00 00 00                  |       ...      |          value: 0 0x20a7-0x20aa (3)
       |                                               |                |      byte_align: 0 (valid) 0x20aa-0x20aa (0)
0x020a0|                              a0 eb            |          ..    |      footer_crc: "a0eb" (raw bits) (valid) 0x20aa-0x20ac (2)
       |00 01 02 03 04 05 06 07 08 09 0a 0b 0c 0d 0e 0f|0123456789abcdef|    [1]{}: frame (flac_frame) 0x20ac-0x2a14 (2408)
       |                                               |                |      header{}: 0x20ac-0x20b2 (6)
0x020a0|                                    ff f8      |            ..  |        sync: 0b11111111111110 (valid) 0x20ac-0x20ad.6 (1.6)
0x020a0|                                       f8      |             .  |        reserved0: 0 (valid) 0x20ad.6-0x20ad.7 (0.1)
0x020a0|                                       f8      |             .  |        blocking_strategy: "fixed" (0) 0x20ad.7-0x20ae (0.1)
0x020a0|                                          c9   |              . |        block_size: 4096 (0b1100) 0x20ae-0x20ae.4 (0.4)
0x020a0|                                          c9   |              . |        sample_rate: 44100 (0b1001) 0x20ae.4-0x20af (0.4)
0x020a0|                                             1c|               .|        channel_assignment: 2 (1) (lr) 0x20af-0x20af.4 (0.4)
0x020a0|                                             1c|               .|        sample_size: 24 (0b110) 0x20af.4-0x20af.7 (0.3)
0x020a0|                                             1c|               .|        reserved1: 0 (valid) 0x20af.7-0x20b0 (0.1)
       |                                               |                |        end_of_header{}: 0x20b0-0x20b1 (1)
0x020b0|01                                             |.               |          frame_number: 1 0x20b0-0x20b1 (1)
0x020b0|   91                                          | .              |        crc: 0x91 (valid) 0x20b1-0x20b2 (1)
       |                                               |                |      subframes[0:2]: 0x20b2-0x2a12 (2400)
       |                                               |                |        [0]{}: subframe 0x20b2-0x2572.5 (1216.5)
0x020b0|      43                                       |  C             |          zero_bit: 0 (valid) 0x20b2-0x20b2.1 (0.1)
0x020b0|      43                                       |  C             |          subframe_type: "lpc" (0b100001) 0x20b2.1-0x20b2.7 (0.6)
       |                                               |                |          lpc_order: 2
0x020b0|      43                                       |  C             |          wasted_bits_flag: 1 0x20b2.7-0x20b3 (0.1)
0x020b0|         01                                    |   .            |          wasted_bits_k: 8 0x20b3-0x20b4 (1)
       |                                               |                |          subframe_sample_size: 16
       |                                               |                |          warmup_samples[0:2]: 0x20b4-0x20b8 (4)
0x020b0|            00 00                              |    ..          |            [0]: 0 value 0x20b4-0x20b6 (2)
0x020b0|                  00 00                        |      ..        |            [1]: 0 value 0x20b6-0x20b8 (2)
0x020b0|                        e6                     |        .       |          precision: 15 0x20b8-0x20b8.4 (0.4)
0x020b0|                        e6 bf                  |        ..      |          shift: 13 0x20b8.4-0x20b9.1 (0.5)
       |                                               |                |          coefficients[0:2]: 0x20b9.1-0x20bc.7 (3.6)
0x020b0|                           bf f8               |         ..     |            [0]: 16376 value 0x20b9.1-0x20bb (1.7)
0x020b0|                                 c0 0c         |           ..   |            [1]: -8186 value 0x20bb-0x20bc.7 (1.7)
0x020b0|                                    0c 08      |            ..  |          residual_coding_method: 4 (0) (rice) 0x20bc.7-0x20bd.1 (0.2)
0x020b0|                                       08      |             .  |          partition_order: 1 0x20bd.1-0x20bd.5 (0.4)
       |                                               |                |          rice_partitions: 2
       |                                               |                |          partitions[0:2]: 0x20bd.5-0x2572.5 (1205)
       |                                               |                |            [0]{}: partition 0x20bd.5-0x2306.4 (584.7)
       |                                               |                |              count: 2046
0x020b0|                                       08 7f   |             .. |              rice_parameter: 0 0x20bd.5-0x20be.1 (0.4)
0x020b0|                                          7f ff|              ..|              samples: raw bits 0x20be.1-0x2306.4 (584.3)
0x020c0|ff ff ff ff ff ff ff ff ff ff ff ff ff ff ff ff|................|
*      |until 0x2306.3 (585)                           |                |
       |                                               |                |            [1]{}: partition 0x2306.4-0x2572.5 (620.1)
       |                                               |                |              count: 2048
0x02300|                  50                           |      P         |              rice_parameter: 0 0x2306.4-0x2307 (0.4)
0x02300|                     25 32 85 92 ce 59 fc c8 64|       %2...Y..d|              samples: raw bits 0x2307-0x2572.5 (619.5)
0x02310|86 42 84 99 0c 98 66 43 85 0c c3 93 33 0a 61 49|.B....fC....3.aI|
*      |until 0x2572.4 (620)                           |                |
       |                                               |                |        [1]{}: subframe 0x2572.5-0x2a12 (1183.3)
0x02570|      1a                                       |  .             |          zero_bit: 0 (valid) 0x2572.5-0x2572.6 (0.1)
0x02570|      1a 68                                    |  .h            |          subframe_type: "lpc" (0b100110) 0x2572.6-0x2573.4 (0.6)
       |                                               |                |          lpc_order: 7
0x02570|         68                                    |   h            |          wasted_bits_flag: 1 0x2573.4-0x2573.5 (0.1)
0x02570|         68 08                                 |   h.           |          wasted_bits_k: 8 0x2573.5-0x2574.5 (1)
       |                                               |                |          subframe_sample_size: 16
       |                                               |                |          warmup_samples[0:7]: 0x2574.5-0x2582.5 (14)
0x02570|            08 00 00                           |    ...         |            [0]: 0 value 0x2574.5-0x2576.5 (2)
0x02570|                  00 00 00                     |      ...       |            [1]: 0 value 0x2576.5-0x2578.5 (2)
0x02570|                        00 00 00               |        ...     |            [2]: 0 value 0x2578.5-0x257a.5 (2)
0x02570|                              00 00 00         |          ...   |            [3]: 0 value 0x257a.5-0x257c.5 (2)
0x02570|                                    00 00 00   |            ... |            [4]: 0 value 0x257c.5-0x257e.5 (2)
0x02570|                                          00 00|              ..|            [5]: 0 value 0x257e.5-0x2580.5 (2)
0x02580|00                                             |.               |
0x02580|00 00 06                                       |...             |            [6]: 0 value 0x2580.5-0x2582.5 (2)
0x02580|      06 b1                                    |  ..            |          precision: 14 0x2582.5-0x2583.1 (0.4)
0x02580|         b1                                    |   .            |          shift: 12 0x2583.1-0x2583.6 (0.5)
       |                                               |                |          coefficients[0:7]: 0x2583.6-0x2590 (12.2)
0x02580|         b1 40 6f                              |   .@o          |            [0]: 5126 value 0x2583.6-0x2585.4 (1.6)
0x02580|               6f d1 3c                        |     o.<        |            [1]: -188 value 0x2585.4-0x2587.2 (1.6)
0x02580|                     3c ff                     |       <.       |            [2]: -769 value 0x2587.2-0x2589 (1.6)
0x02580|                           f2 fb               |         ..     |            [3]: -834 value 0x2589-0x258a.6 (1.6)
0x02580|                              fb df d4         |          ...   |            [4]: -515 value 0x258a.6-0x258c.4 (1.6)
0x02580|                                    d4 e2 30   |            ..0 |            [5]: 5000 value 0x258c.4-0x258e.2 (1.6)
0x02580|                                          30 f2|              0.|            [6]: -3854 value 0x258e.2-0x2590 (1.6)
0x02590|14                                             |.               |          residual_coding_method: 4 (0) (rice) 0x2590-0x2590.2 (0.2)
0x02590|14                                             |.               |          partition_order: 5 0x2590.2-0x2590.6 (0.4)
       |                                               |                |          rice_partitions: 32
       |                                               |                |          partitions[0:32]: 0x2590.6-0x2a12 (1153.2)
       |                                               |                |            [0]{}: partition 0x2590.6-0x25a0.3 (15.5)
       |                                               |                |              count: 121
0x02590|14 3f                                          |.?              |              rice_parameter: 0 0x2590.6-0x2591.2 (0.4)
0x02590|   3f ff ff ff ff ff ff ff ff ff ff ff ff ff ff| ?..............|              samples: raw bits 0x2591.2-0x25a0.3 (15.1)
0x025a0|e1                                             |.               |
       |                                               |                |            [1]{}: partition 0x25a0.3-0x25b0.7 (16.4)
       |                                               |                |              count: 128
0x025a0|e1                                             |.               |              rice_parameter: 0 0x25a0.3-0x25a0.7 (0.4)
0x025a0|e1 ff ff ff ff ff ff ff ff ff ff ff ff ff ff ff|................|              samples: raw bits 0x25a0.7-0x25b0.7 (16)
0x025b0|fe                                             |.               |
       |                                               |                |            [2]{}: partition 0x25b0.7-0x2618.6 (103.7)
       |                                               |                |              count: 128
0x025b0|fe 90                                          |..              |              rice_parameter: 4 0x25b0.7-0x25b1.3 (0.4)
0x025b0|   90 84 21 08 42 10 84 21 08 42 10 84 21 08 42| ..!.B..!.B..!.B|              samples: raw bits 0x25b1.3-0x2618.6 (103.3)
0x025c0|10 84 21 08 42 10 84 21 08 42 10 84 21 08 42 10|..!.B..!.B..!.B.|
*      |until 0x2618.5 (104)                           |                |
       |                                               |                |            [3]{}: partition 0x2618.6-0x263b.5 (34.7)
       |                                               |                |              count: 128
0x02610|                        d0 21                  |        .!      |              rice_parameter: 0 0x2618.6-0x2619.2 (0.4)
0x02610|                           21 9c 26 87 3c 9f 9c|         !.&.<..|              samples: raw bits 0x2619.2-0x263b.5 (34.3)
0x02620|f8 66 73 32 4e 43 a1 32 87 30 e6 64 2c 9a 13 33|.fs2NC.2.0.d,..3|
0x02630|27 93 99 39 9f 27 0a 72 66 4c 28 48            |'..9.'.rfL(H    |
       |                                               |                |            [4]{}: partition 0x263b.5-0x265e (34.3)
       |                                               |                |              count: 128
0x02630|                                 48 70         |           Hp   |              rice_parameter: 0 0x263b.5-0x263c.1 (0.4)
0x02630|                                    70 b2 72 72|            p.rr|              samples: raw bits 0x263c.1-0x265e (33.7)
0x02640|4a 18 67 09 a1 cf 27 e7 3e 19 9c cc 93 90 e8 4c|J.g...'.>......L|
0x02650|a1 cc 39 99 0b 26 84 cc c9 e4 e6 4e 67 c9      |..9..&.....Ng.  |
       |                                               |                |            [5]{}: partition 0x265e-0x2681.5 (35.5)
       |                                               |                |              count: 128
0x02650|                                          0c   |              . |              rice_parameter: 0 0x265e-0x265e.4 (0.4)
0x02650|                                          0c 29|              .)|              samples: raw bits 0x265e.4-0x2681.5 (35.1)
0x02660|c9 99 30 a1 3c 2c 9c 9c 92 86 19 c2 68 73 c9 f9|..0.<,......hs..|
*      |until 0x2681.4 (36)                            |                |
       |                                               |                |            [6]{}: partition 0x2681.5-0x26a4.4 (34.7)
       |                                               |                |              count: 128
0x02680|   78 13                                       | x.             |              rice_parameter: 0 0x2681.5-0x2682.1 (0.4)
0x02680|      13 99 39 9f 27 0a 72 66 4c 28 4f 0b 27 27|  ..9.'.rfL(O.''|              samples: raw bits 0x2682.1-0x26a4.4 (34.3)
0x02690|24 a1 86 70 9a 1c f2 7e 73 e1 99 cc c9 39 0e 84|$..p...~s....9..|
0x026a0|ca 1c c3 99 90                                 |.....           |
       |                                               |                |            [7]{}: partition 0x26a4.4-0x26c7.1 (34.5)
       |                                               |                |              count: 128
0x026a0|            90                                 |    .           |              rice_parameter: 0 0x26a4.4-0x26a5 (0.4)
0x026a0|               0b 26 84 cc c9 e4 e6 4e 67 c9 c2|     .&.....Ng..|              samples: raw bits 0x26a5-0x26c7.1 (34.1)
0x026b0|9c 99 93 0a 13 c2 c9 c9 c9 28 61 9c 26 87 3c 9f|.........(a.&.<.|
0x026c0|9c f8 66 73 32 4e 43 82                        |..fs2NC.        |
       |                                               |                |            [8]{}: partition 0x26c7.1-0x26ea.4 (35.3)
       |                                               |                |              count: 128
0x026c0|                     82                        |       .        |              rice_parameter: 0 0x26c7.1-0x26c7.5 (0.4)
0x026c0|                     82 13 28 73 0e 66 42 c9 a1|       ..(s.fB..|              samples: raw bits 0x26c7.5-0x26ea.4 (34.7)
0x026d0|33 32 79 39 93 99 f2 70 a7 26 64 c2 84 f0 b2 72|32y9...p.&d....r|
0x026e0|72 4a 18 67 09 a1 cf 27 e7 3e 10               |rJ.g...'.>.     |
       |                                               |                |            [9]{}: partition 0x26ea.4-0x270e.7 (36.3)
       |                                               |                |              count: 128
0x026e0|                              10               |          .     |              rice_parameter: 0 0x26ea.4-0x26eb (0.4)
0x026e0|                                 99 cc c9 39 0e|           ...9.|              samples: raw bits 0x26eb-0x270e.7 (35.7)
0x026f0|84 ca 1c c3 99 90 b2 68 4c cc 9e 4e 64 e6 7c 9c|.......hL..Nd.|.|
0x02700|29 c9 99 30 a1 3c 2c 9c 9c 92 86 19 c2 68 72   |)..0.<,......hr |
       |                                               |                |            [10]{}: partition 0x270e.7-0x2731 (34.1)
       |                                               |                |              count: 128
0x02700|                                          72 1c|              r.|              rice_parameter: 0 0x270e.7-0x270f.3 (0.4)
0x02700|                                             1c|               .|              samples: raw bits 0x270f.3-0x2731 (33.5)
0x02710|9f 9c f8 66 73 32 4e 43 a1 32 87 30 e6 64 2c 9a|...fs2NC.2.0.d,.|
*      |until 0x2730.7 (34)                            |                |
       |                                               |                |            [11]{}: partition 0x2731-0x2753.7 (34.7)
       |                                               |                |              count: 128
0x02730|   02                                          | .              |              rice_parameter: 0 0x2731-0x2731.4 (0.4)
0x02730|   02 4a 18 67 09 a1 cf 27 e7 3e 19 9c cc 93 90| .J.g...'.>.....|              samples: raw bits 0x2731.4-0x2753.7 (34.3)
0x02740|e8 4c a1 cc 39 99 0b 26 84 cc c9 e4 e6 4e 67 c9|.L..9..&.....Ng.|
0x02750|c2 9c 99 92                                    |....            |
       |                                               |                |            [12]{}: partition 0x2753.7-0x2777.1 (35.2)
       |                                               |                |              count: 128
0x02750|         92 10                                 |   ..           |              rice_parameter: 0 0x2753.7-0x2754.3 (0.4)
0x02750|            10 a1 3c 2c 9c 9c 92 86 19 c2 68 73|    ..<,......hs|              samples: raw bits 0x2754.3-0x2777.1 (34.6)
0x02760|c9 f9 cf 86 67 33 24 e4 3a 13 28 73 0e 66 42 c9|....g3$.:.(s.fB.|
0x02770|a1 33 32 79 39 93 99 87                        |.32y9...        |
       |                                               |                |            [13]{}: partition 0x2777.1-0x279a.6 (35.5)
       |                                               |                |              count: 128
0x02770|                     87                        |       .        |              rice_parameter: 0 0x2777.1-0x2777.5 (0.4)
0x02770|                     87 27 0a 72 66 4c 28 4f 0b|       .'.rfL(O.|              samples: raw bits 0x2777.5-0x279a.6 (35.1)
0x02780|27 27 24 a1 86 70 9a 1c f2 7e 73 e1 99 cc c9 39|''$..p...~s....9|
0x02790|0e 84 ca 1c c3 99 90 b2 68 4c cc               |........hL.     |
       |                                               |                |            [14]{}: partition 0x279a.6-0x27bd.3 (34.5)
       |                                               |                |              count: 128
0x02790|                              cc 09            |          ..    |              rice_parameter: 0 0x279a.6-0x279b.2 (0.4)
0x02790|                                 09 e4 e6 4e 67|           ...Ng|              samples: raw bits 0x279b.2-0x27bd.3 (34.1)
0x027a0|c9 c2 9c 99 93 0a 13 c2 c9 c9 c9 28 61 9c 26 87|...........(a.&.|
0x027b0|3c 9f 9c f8 66 73 32 4e 43 a1 32 87 30 e0      |<...fs2NC.2.0.  |
       |                                               |                |            [15]{}: partition 0x27bd.3-0x27e0 (34.5)
       |                                               |                |              count: 128
0x027b0|                                       e0      |             .  |              rice_parameter: 0 0x27bd.3-0x27bd.7 (0.4)
0x027b0|                                       e0 66 42|             .fB|              samples: raw bits 0x27bd.7-0x27e0 (34.1)
0x027c0|c9 a1 33 32 79 39 93 99 f2 70 a7 26 64 c2 84 f0|..32y9...p.&d...|
0x027d0|b2 72 72 4a 18 67 09 a1 cf 27 e7 3e 19 9c cc 93|.rrJ.g...'.>....|
       |                                               |                |            [16]{}: partition 0x27e0-0x2803.5 (35.5)
       |                                               |                |              count: 128
0x027e0|09                                             |.               |              rice_parameter: 0 0x27e0-0x27e0.4 (0.4)
0x027e0|09 0e 84 ca 1c c3 99 90 b2 68 4c cc 9e 4e 64 e6|.........hL..Nd.|              samples: raw bits 0x27e0.4-0x2803.5 (35.1)
0x027f0|7c 9c 29 c9 99 30 a1 3c 2c 9c 9c 92 86 19 c2 68||.)..0.<,......h|
0x02800|73 c9 f9 c8                                    |s...            |
       |                                               |                |            [17]{}: partition 0x2803.5-0x2827.5 (36)
       |                                               |                |              count: 128
0x02800|         c8 78                                 |   .x           |              rice_parameter: 0 0x2803.5-0x2804.1 (0.4)
0x02800|            78 66 73 32 4e 43 a1 32 87 30 e6 64|    xfs2NC.2.0.d|              samples: raw bits 0x2804.1-0x2827.5 (35.4)
0x02810|2c 9a 13 33 27 93 99 39 9f 27 0a 72 66 4c 28 4f|,..3'..9.'.rfL(O|
0x02820|0b 27 27 24 a1 86 70 98                        |.''$..p.        |
       |                                               |                |            [18]{}: partition 0x2827.5-0x284a.1 (34.4)
       |                                               |                |              count: 128
0x02820|                     98 21                     |       .!       |              rice_parameter: 0 0x2827.5-0x2828.1 (0.4)
0x02820|                        21 cf 27 e7 3e 19 9c cc|        !.'.>...|              samples: raw bits 0x2828.1-0x284a.1 (34)
0x02830|93 90 e8 4c a1 cc 39 99 0b 26 84 cc c9 e4 e6 4e|...L..9..&.....N|
0x02840|67 c9 c2 9c 99 93 0a 13 c2 c9 84               |g..........     |
       |                                               |                |            [19]{}: partition 0x284a.1-0x286c.6 (34.5)
       |                                               |                |              count: 128
0x02840|                              84               |          .     |              rice_parameter: 0 0x284a.1-0x284a.5 (0.4)
0x02840|                              84 9c 92 86 19 c2|          ......|              samples: raw bits 0x284a.5-0x286c.6 (34.1)
0x02850|68 73 c9 f9 cf 86 67 33 24 e4 3a 13 28 73 0e 66|hs....g3$.:.(s.f|
0x02860|42 c9 a1 33 32 79 39 93 99 f2 70 a7 24         |B..32y9...p.$   |
       |                                               |                |            [20]{}: partition 0x286c.6-0x2890.2 (35.4)
       |                                               |                |              count: 128
0x02860|                                    24 26      |            $&  |              rice_parameter: 0 0x286c.6-0x286d.2 (0.4)
0x02860|                                       26 4c 28|             &L(|              samples: raw bits 0x286d.2-0x2890.2 (35)
0x02870|4f 0b 27 27 24 a1 86 70 9a 1c f2 7e 73 e1 99 cc|O.''$..p...~s...|
*      |until 0x2890.1 (35)                            |                |
       |                                               |                |            [21]{}: partition 0x2890.2-0x28b3.7 (35.5)
       |                                               |                |              count: 128
0x02890|c2                                             |.               |              rice_parameter: 0 0x2890.2-0x2890.6 (0.4)
0x02890|c2 67 c9 c2 9c 99 93 0a 13 c2 c9 c9 c9 28 61 9c|.g...........(a.|              samples: raw bits 0x2890.6-0x28b3.7 (35.1)
0x028a0|26 87 3c 9f 9c f8 66 73 32 4e 43 a1 32 87 30 e6|&.<...fs2NC.2.0.|
0x028b0|64 2c 9a 12                                    |d,..            |
       |                                               |                |            [22]{}: partition 0x28b3.7-0x28d6.2 (34.3)
       |                                               |                |              count: 128
0x028b0|         12 13                                 |   ..           |              rice_parameter: 0 0x28b3.7-0x28b4.3 (0.4)
0x028b0|            13 32 79 39 93 99 f2 70 a7 26 64 c2|    .2y9...p.&d.|              samples: raw bits 0x28b4.3-0x28d6.2 (33.7)
0x028c0|84 f0 b2 72 72 4a 18 67 09 a1 cf 27 e7 3e 19 9c|...rrJ.g...'.>..|
0x028d0|cc 93 90 e8 4c a1 c0                           |....L..         |
       |                                               |                |            [23]{}: partition 0x28d6.2-0x28f8.7 (34.5)
       |                                               |                |              count: 128
0x028d0|                  c0                           |      .         |              rice_parameter: 0 0x28d6.2-0x28d6.6 (0.4)
0x028d0|                  c0 c3 99 90 b2 68 4c cc 9e 4e|      .....hL..N|              samples: raw bits 0x28d6.6-0x28f8.7 (34.1)
0x028e0|64 e6 7c 9c 29 c9 99 30 a1 3c 2c 9c 9c 92 86 19|d.|.)..0.<,.....|
0x028f0|c2 68 73 c9 f9 cf 86 67 32                     |.hs....g2       |
       |                                               |                |            [24]{}: partition 0x28f8.7-0x291c.6 (35.7)
       |                                               |                |              count: 128
0x028f0|                        32 12                  |        2.      |              rice_parameter: 0 0x28f8.7-0x28f9.3 (0.4)
0x028f0|                           12 4e 43 a1 32 87 30|         .NC.2.0|              samples: raw bits 0x28f9.3-0x291c.6 (35.3)
0x02900|e6 64 2c 9a 13 33 27 93 99 39 9f 27 0a 72 66 4c|.d,..3'..9.'.rfL|
0x02910|28 4f 0b 27 27 24 a1 86 70 9a 1c f2 7c         |(O.''$..p...|   |
       |                                               |                |            [25]{}: partition 0x291c.6-0x2940.4 (35.6)
       |                                               |                |              count: 128
0x02910|                                    7c 27      |            |'  |              rice_parameter: 0 0x291c.6-0x291d.2 (0.4)
0x02910|                                       27 3e 19|             '>.|              samples: raw bits 0x291d.2-0x2940.4 (35.2)
0x02920|9c cc 93 90 e8 4c a1 cc 39 99 0b 26 84 cc c9 e4|.....L..9..&....|
*      |until 0x2940.3 (36)                            |                |
       |                                               |                |            [26]{}: partition 0x2940.4-0x2963.1 (34.5)
       |                                               |                |              count: 128
0x02940|90                                             |.               |              rice_parameter: 0 0x2940.4-0x2941 (0.4)
0x02940|   c2 68 73 c9 f9 cf 86 67 33 24 e4 3a 13 28 73| .hs....g3$.:.(s|              samples: raw bits 0x2941-0x2963.1 (34.1)
0x02950|0e 66 42 c9 a1 33 32 79 39 93 99 f2 70 a7 26 64|.fB..32y9...p.&d|
0x02960|c2 84 f0 83                                    |....            |
       |                                               |                |            [27]{}: partition 0x2963.1-0x2985.5 (34.4)
       |                                               |                |              count: 128
0x02960|         83                                    |   .            |              rice_parameter: 0 0x2963.1-0x2963.5 (0.4)
0x02960|         83 27 27 24 a1 86 70 9a 1c f2 7e 73 e1|   .''$..p...~s.|              samples: raw bits 0x2963.5-0x2985.5 (34)
0x02970|99 cc c9 39 0e 84 ca 1c c3 99 90 b2 68 4c cc 9e|...9........hL..|
0x02980|4e 64 e6 7c 9c 28                              |Nd.|.(          |
       |                                               |                |            [28]{}: partition 0x2985.5-0x29a9.1 (35.4)
       |                                               |                |              count: 128
0x02980|               28 1c                           |     (.         |              rice_parameter: 0 0x2985.5-0x2986.1 (0.4)
0x02980|                  1c 99 93 0a 13 c2 c9 c9 c9 28|      .........(|              samples: raw bits 0x2986.1-0x29a9.1 (35)
0x02990|61 9c 26 87 3c 9f 9c f8 66 73 32 4e 43 a1 32 87|a.&.<...fs2NC.2.|
0x029a0|30 e6 64 2c 9a 13 33 27 93 81                  |0.d,..3'..      |
       |                                               |                |            [29]{}: partition 0x29a9.1-0x29cc.3 (35.2)
       |                                               |                |              count: 128
0x029a0|                           81                  |         .      |              rice_parameter: 0 0x29a9.1-0x29a9.5 (0.4)
0x029a0|                           81 93 99 f2 70 a7 26|         ....p.&|              samples: raw bits 0x29a9.5-0x29cc.3 (34.6)
0x029b0|64 c2 84 f0 b2 72 72 4a 18 67 09 a1 cf 27 e7 3e|d....rrJ.g...'.>|
0x029c0|19 9c cc 93 90 e8 4c a1 cc 39 99 0b 20         |......L..9..    |
       |                                               |                |            [30]{}: partition 0x29cc.3-0x29ef (34.5)
       |                                               |                |              count: 128
0x029c0|                                    20         |                |              rice_parameter: 0 0x29cc.3-0x29cc.7 (0.4)
0x029c0|                                    20 68 4c cc|             hL.|              samples: raw bits 0x29cc.7-0x29ef (34.1)
0x029d0|9e 4e 64 e6 7c 9c 29 c9 99 30 a1 3c 2c 9c 9c 92|.Nd.|.)..0.<,...|
0x029e0|86 19 c2 68 73 c9 f9 cf 86 67 33 24 e4 3a 13   |...hs....g3$.:. |
       |                                               |                |            [31]{}: partition 0x29ef-0x2a12 (35)
       |                                               |                |              count: 128
0x029e0|                                             02|               .|              rice_parameter: 0 0x29ef-0x29ef.4 (0.4)
0x029e0|                                             02|               .|              samples: raw bits 0x29ef.4-0x2a12 (34.4)
0x029f0|87 30 e6 64 2c 9a 13 33 27 93 99 39 9f 27 0a 72|.0.d,..3'..9.'.r|
*      |until 0x2a11.7 (35)                            |                |
       |                                               |                |      byte_align: 0 (valid) 0x2a12-0x2a12 (0)
0x02a10|      bb ea                                    |  ..            |      footer_crc: "bbea" (raw bits) (valid) 0x2a12-0x2a14 (2)
       |00 01 02 03 04 05 06 07 08 09 0a 0b 0c 0d 0e 0f|0123456789abcdef|    [2]{}: frame (flac_frame) 0x2a14-0x8a2a (24598)
       |                                               |                |      header{}: 0x2a14-0x2a1a (6)
0x02a10|            ff f8                              |    ..          |        sync: 0b11111111111110 (valid) 0x2a14-0x2a15.6 (1.6)
0x02a10|               f8                              |     .          |        reserved0: 0 (valid) 0x2a15.6-0x2a15.7 (0.1)
0x02a10|               f8                              |     .          |        blocking_strategy: "fixed" (0) 0x2a15.7-0x2a16 (0.1)
0x02a10|                  c9                           |      .         |        block_size: 4096 (0b1100) 0x2a16-0x2a16.4 (0.4)
0x02a10|                  c9                           |      .         |        sample_rate: 44100 (0b1001) 0x2a16.4-0x2a17 (0.4)
0x02a10|                     ac                        |       .        |        channel_assignment: 2 (10) (mid/side stereo) 0x2a17-0x2a17.4 (0.4)
       |                                               |                |        side_channel_index: 1
0x02a10|                     ac                        |       .        |        sample_size: 24 (0b110) 0x2a17.4-0x2a17.7 (0.3)
0x02a10|                     ac                        |       .        |        reserved1: 0 (valid) 0x2a17.7-0x2a18 (0.1)
       |                                               |                |        end_of_header{}: 0x2a18-0x2a19 (1)
0x02a10|                        02                     |        .       |          frame_number: 2 0x2a18-0x2a19 (1)
0x02a10|                           d7                  |         .      |        crc: 0xd7 (valid) 0x2a19-0x2a1a (1)
       |                                               |                |      subframes[0:2]: 0x2a1a-0x8a28 (24590)
       |                                               |                |        [0]{}: subframe 0x2a1a-0x5920.7 (12038.7)
0x02a10|                              10               |          .     |          zero_bit: 0 (valid) 0x2a1a-0x2a1a.1 (0.1)
0x02a10|                              10               |          .     |          subframe_type: "fixed" (0b1000) 0x2a1a.1-0x2a1a.7 (0.6)
       |                                               |                |          lpc_order: 0
0x02a10|                              10               |          .     |          wasted_bits_flag: 0 0x2a1a.7-0x2a1b (0.1)
       |                                               |                |          subframe_sample_size: 24
       |                                               |                |          warmup_samples[0:0]: 0x2a1b-0x2a1b (0)
0x02a10|                                 56            |           V    |          residual_coding_method: 5 (1) (rice2) 0x2a1b-0x2a1b.2 (0.2)
0x02a10|                                 56            |           V    |          partition_order: 5 0x2a1b.2-0x2a1b.6 (0.4)
       |                                               |                |          rice_partitions: 32
       |                                               |                |          partitions[0:32]: 0x2a1b.6-0x5920.7 (12037.1)
       |                                               |                |            [0]{}: partition 0x2a1b.6-0x2b74.4 (344.6)
       |                                               |                |              count: 128
0x02a10|                                 56 75         |           Vu   |              rice_parameter: 19 0x2a1b.6-0x2a1c.3 (0.5)
0x02a10|                                    75 eb ff 8f|            u...|              samples: raw bits 0x2a1c.3-0x2b74.4 (344.1)
0x02a20|9f fc 13 ff f3 5f e9 2a ff 55 c7 fb 10 bf db 87|....._.*.U......|
*      |until 0x2b74.3 (345)                           |                |
       |                                               |                |            [1]{}: partition 0x2b74.4-0x2cc1.3 (332.7)
       |                                               |                |              count: 128
0x02b70|            09 d9                              |    ..          |              rice_parameter: 19 0x2b74.4-0x2b75.1 (0.5)
0x02b70|               d9 a8 05 e0 00 61 78 06 40 00 65|     .....ax.@.e|              samples: raw bits 0x2b75.1-0x2cc1.3 (332.2)
0x02b80|a0 06 65 80 66 28 06 51 00 63 10 06 04 00 5c 98|..e.f(.Q.c....\.|
*      |until 0x2cc1.2 (333)                           |                |
       |                                               |                |            [2]{}: partition 0x2cc1.3-0x2e1a.2 (344.7)
       |                                               |                |              count: 128
0x02cc0|   13                                          | .              |              rice_parameter: 19 0x2cc1.3-0x2cc2 (0.5)
0x02cc0|      f4 f0 04 5c 00 28 a8 01 74 40 0d 1d 00 74|  ...\.(..t@...t|              samples: raw bits 0x2cc2-0x2e1a.2 (344.2)
0x02cd0|b8 01 02 00 04 c2 80 15 e6 00 62 b8 01 b5 e0 07|..........b.....|
*      |until 0x2e1a.1 (345)                           |                |
       |                                               |                |            [3]{}: partition 0x2e1a.2-0x2f69.6 (335.4)
       |                                               |                |              count: 128
0x02e10|                              e6               |          .     |              rice_parameter: 19 0x2e1a.2-0x2e1a.7 (0.5)
0x02e10|                              e6 93 9f f4 fb ff|          ......|              samples: raw bits 0x2e1a.7-0x2f69.6 (334.7)
0x02e20|aa 6b fd 63 ff eb 88 ff 5e 9f fb 00 3f d8 1f fe|.k.c....^...?...|
*      |until 0x2f69.5 (335)                           |                |
       |                                               |                |            [4]{}: partition 0x2f69.6-0x30c6.4 (348.6)
       |                                               |                |              count: 128
0x02f60|                           fe 98               |         ..     |              rice_parameter: 20 0x2f69.6-0x2f6a.3 (0.5)
0x02f60|                              98 63 ff cd 1f fe|          .c....|              samples: raw bits 0x2f6a.3-0x30c6.4 (348.1)
0x02f70|bb 7f f8 81 ff d9 af ff 7b ff a0 ab fe 8d 97 fa|........{.......|
*      |until 0x30c6.3 (349)                           |                |
       |                                               |                |            [5]{}: partition 0x30c6.4-0x3242.2 (379.6)
       |                                               |                |              count: 128
0x030c0|                  1b 17                        |      ..        |              rice_parameter: 22 0x30c6.4-0x30c7.1 (0.5)
0x030c0|                     17 20 47 0f 30 57 90 7f 80|       . G.0W...|              samples: raw bits 0x30c7.1-0x3242.2 (379.1)
0x030d0|15 cd df db 20 4a d8 2f 21 fa e4 c2 de 56 7f 74|.... J./!....V.t|
*      |until 0x3242.1 (380)                           |                |
       |                                               |                |            [6]{}: partition 0x3242.2-0x33c1.6 (383.4)
       |                                               |                |              count: 128
0x03240|      2d                                       |  -             |              rice_parameter: 22 0x3242.2-0x3242.7 (0.5)
0x03240|      2d 63 0b e5 dc e4 da 3b 75 01 c9 68 86 83|  -c.....;u..h..|              samples: raw bits 0x3242.7-0x33c1.6 (382.7)
0x03250|50 32 32 cd cb 9b a1 42 02 f8 e4 b8 75 f4 ed 50|P22....B....u..P|
*      |until 0x33c1.5 (383)                           |                |
       |                                               |                |            [7]{}: partition 0x33c1.6-0x3540.5 (382.7)
       |                                               |                |              count: 128
0x033c0|   6e c3                                       | n.             |              rice_parameter: 22 0x33c1.6-0x33c2.3 (0.5)
0x033c0|      c3 28 44 03 b8 0b ea d3 78 ab dd 39 35 49|  .(D.....x..95I|              samples: raw bits 0x33c2.3-0x3540.5 (382.2)
0x033d0|c9 c9 0a 77 9d eb 83 11 f8 26 33 e4 0d 62 19 d4|...w.....&3..b..|
*      |until 0x3540.4 (383)                           |                |
       |                                               |                |            [8]{}: partition 0x3540.5-0x36bd.5 (381)
       |                                               |                |              count: 128
0x03540|fd a7                                          |..              |              rice_parameter: 22 0x3540.5-0x3541.2 (0.5)
0x03540|   a7 08 86 45 42 e7 75 42 af 30 f4 49 ea fd dd| ...EB.uB.0.I...|              samples: raw bits 0x3541.2-0x36bd.5 (380.3)
0x03550|3b d6 5f eb bd e0 5e aa 36 c7 f6 20 29 15 17 ed|;._...^.6.. )...|
*      |until 0x36bd.4 (381)                           |                |
       |                                               |                |            [9]{}: partition 0x36bd.5-0x383b.3 (381.6)
       |                                               |                |              count: 128
0x036b0|                                       0d b8   |             .. |              rice_parameter: 22 0x36bd.5-0x36be.2 (0.5)
0x036b0|                                          b8 31|              .1|              samples: raw bits 0x36be.2-0x383b.3 (381.1)
0x036c0|72 3e 67 bd 99 20 ef 13 02 c5 e6 c4 76 75 bf 9a|r>g.. ......vu..|
*      |until 0x383b.2 (382)                           |                |
       |                                               |                |            [10]{}: partition 0x383b.3-0x39bb.1 (383.6)
       |                                               |                |              count: 128
0x03830|                                 56            |           V    |              rice_parameter: 22 0x383b.3-0x383c (0.5)
0x03830|                                    78 9f 52 4e|            x.RN|              samples: raw bits 0x383c-0x39bb.1 (383.1)
0x03840|d7 51 bc 5d 02 9d 31 88 45 f5 c8 8b b7 c7 7b 33|.Q.]..1.E.....{3|
*      |until 0x39bb (384)                             |                |
       |                                               |                |            [11]{}: partition 0x39bb.1-0x3b39 (381.7)
       |                                               |                |              count: 128
0x039b0|                                 59            |           Y    |              rice_parameter: 22 0x39bb.1-0x39bb.6 (0.5)
0x039b0|                                 59 3e 8e a6 ef|           Y>...|              samples: raw bits 0x39bb.6-0x3b39 (381.2)
0x039c0|21 4c 43 a3 b3 01 f7 f8 b7 37 1c 73 ba 48 35 d7|!LC......7.s.H5.|
*      |until 0x3b38.7 (382)                           |                |
       |                                               |                |            [12]{}: partition 0x3b39-0x3cb9 (384)
       |                                               |                |              count: 128
0x03b30|                           b4                  |         .      |              rice_parameter: 22 0x3b39-0x3b39.5 (0.5)
0x03b30|                           b4 7d e0 76 3d 75 b7|         .}.v=u.|              samples: raw bits 0x3b39.5-0x3cb9 (383.3)
0x03b40|d2 02 8a d3 22 8e bc bf 6f 07 85 0d 36 b7 9c 45|...."...o...6..E|
*      |until 0x3cb8.7 (384)                           |                |
       |                                               |                |            [13]{}: partition 0x3cb9-0x3e36.4 (381.4)
       |                                               |                |              count: 128
0x03cb0|                           b5                  |         .      |              rice_parameter: 22 0x3cb9-0x3cb9.5 (0.5)
0x03cb0|                           b5 74 8d 12 3d eb 46|         .t..=.F|              samples: raw bits 0x3cb9.5-0x3e36.4 (380.7)
0x03cc0|45 57 d3 95 78 04 a1 7d ac ca 83 d3 14 44 cd 4d|EW..x..}.....D.M|
*      |until 0x3e36.3 (381)                           |                |
       |                                               |                |            [14]{}: partition 0x3e36.4-0x3fb4.5 (382.1)
       |                                               |                |              count: 128
0x03e30|                  5b 2a                        |      [*        |              rice_parameter: 22 0x3e36.4-0x3e37.1 (0.5)
0x03e30|                     2a 51 1c 1d a0 1e 17 2c 13|       *Q.....,.|              samples: raw bits 0x3e37.1-0x3fb4.5 (381.4)
0x03e40|19 d9 90 15 c5 5c 0c b6 e0 f7 91 1d 12 c3 51 f3|.....\........Q.|
*      |until 0x3fb4.4 (382)                           |                |
       |                                               |                |            [15]{}: partition 0x3fb4.5-0x4132.6 (382.1)
       |                                               |                |              count: 128
0x03fb0|            15 b2                              |    ..          |              rice_parameter: 22 0x3fb4.5-0x3fb5.2 (0.5)
0x03fb0|               b2 9d 13 b5 9d b3 21 54 c2 a6 d3|     ......!T...|              samples: raw bits 0x3fb5.2-0x4132.6 (381.4)
0x03fc0|3d 54 1c 02 1a a3 19 51 8a 14 68 ac 4b 1e 24 0d|=T.....Q..h.K.$.|
*      |until 0x4132.5 (382)                           |                |
       |                                               |                |            [16]{}: partition 0x4132.6-0x42b0 (381.2)
       |                                               |                |              count: 128
0x04130|      a2 cb                                    |  ..            |              rice_parameter: 22 0x4132.6-0x4133.3 (0.5)
0x04130|         cb c0 1b f5 f9 b9 64 1d 4a 1a 3b 4c 0a|   ......d.J.;L.|              samples: raw bits 0x4133.3-0x42b0 (380.5)
0x04140|f0 28 ca e2 ad 4e 85 99 55 d2 33 5f 7a 50 65 6c|.(...N..U.3_zPel|
*      |until 0x42af.7 (381)                           |                |
       |                                               |                |            [17]{}: partition 0x42b0-0x442e.1 (382.1)
       |                                               |                |              count: 128
0x042b0|b1                                             |.               |              rice_parameter: 22 0x42b0-0x42b0.5 (0.5)
0x042b0|b1 14 e6 2e 04 8f fa 3a e2 a5 b6 81 cc 86 2b a9|.......:......+.|              samples: raw bits 0x42b0.5-0x442e.1 (381.4)
0x042c0|62 83 30 56 b2 fe 2e 9c 9d 6a 36 4e 0c 39 f7 85|b.0V.....j6N.9..|
*      |until 0x442e (382)                             |                |
       |                                               |                |            [18]{}: partition 0x442e.1-0x45ad.2 (383.1)
       |                                               |                |              count: 128
0x04420|                                          d9   |              . |              rice_parameter: 22 0x442e.1-0x442e.6 (0.5)
0x04420|                                          d9 c1|              ..|              samples: raw bits 0x442e.6-0x45ad.2 (382.4)
0x04430|ae d2 46 58 48 b4 a9 73 93 41 19 8f 30 a7 21 bd|..FXH..s.A..0.!.|
*      |until 0x45ad.1 (383)                           |                |
       |                                               |                |            [19]{}: partition 0x45ad.2-0x472c.5 (383.3)
       |                                               |                |              count: 128
0x045a0|                                       6c      |             l  |              rice_parameter: 22 0x45ad.2-0x45ad.7 (0.5)
0x045a0|                                       6c 89 31|             l.1|              samples: raw bits 0x45ad.7-0x472c.5 (382.6)
0x045b0|2a 29 31 fd 16 3b 90 84 8c e7 2e 9d 3a 17 77 d0|*)1..;......:.w.|
*      |until 0x472c.4 (383)                           |                |
       |                                               |                |            [20]{}: partition 0x472c.5-0x48ac.6 (384.1)
       |                                               |                |              count: 128
0x04720|                                    4d b3      |            M.  |              rice_parameter: 22 0x472c.5-0x472d.2 (0.5)
0x04720|                                       b3 b9 56|             ..V|              samples: raw bits 0x472d.2-0x48ac.6 (383.4)
0x04730|aa 98 6a 24 5b b3 9e 36 79 e6 70 df be 4b c9 49|..j$[..6y.p..K.I|
*      |until 0x48ac.5 (384)                           |                |
       |                                               |                |            [21]{}: partition 0x48ac.6-0x4a2d.2 (384.4)
       |                                               |                |              count: 128
0x048a0|                                    a6 db      |            ..  |              rice_parameter: 22 0x48ac.6-0x48ad.3 (0.5)
0x048a0|                                       db bf b1|             ...|              samples: raw bits 0x48ad.3-0x4a2d.2 (383.7)
0x048b0|16 5d 5d a2 f4 3f 46 71 cf 2c b0 96 28 f4 83 1c|.]]..?Fq.,..(...|
*      |until 0x4a2d.1 (384)                           |                |
       |                                               |                |            [22]{}: partition 0x4a2d.2-0x4bac.3 (383.1)
       |                                               |                |              count: 128
0x04a20|                                       ed      |             .  |              rice_parameter: 22 0x4a2d.2-0x4a2d.7 (0.5)
0x04a20|                                       ed 35 83|             .5.|              samples: raw bits 0x4a2d.7-0x4bac.3 (382.4)
0x04a30|9d 8d fc 6b dc ba 11 48 60 e6 2d cf 42 d3 4b f9|...k...H`.-.B.K.|
*      |until 0x4bac.2 (383)                           |                |
       |                                               |                |            [23]{}: partition 0x4bac.3-0x4d2a.2 (381.7)
       |                                               |                |              count: 128
0x04ba0|                                    76         |            v   |              rice_parameter: 22 0x4bac.3-0x4bad (0.5)
0x04ba0|                                       e8 c6 e4|             ...|              samples: raw bits 0x4bad-0x4d2a.2 (381.2)
0x04bb0|70 e0 aa 4f 84 f9 32 0a 0e 3d 8b 1f a5 fd 52 f9|p..O..2..=....R.|
*      |until 0x4d2a.1 (382)                           |                |
       |                                               |                |            [24]{}: partition 0x4d2a.2-0x4ea9.4 (383.2)
       |                                               |                |              count: 128
0x04d20|                              6d               |          m     |              rice_parameter: 22 0x4d2a.2-0x4d2a.7 (0.5)
0x04d20|                              6d df 40 77 26 2a|          m.@w&*|              samples: raw bits 0x4d2a.7-0x4ea9.4 (382.5)
0x04d30|e3 93 b0 51 59 0c ac c3 6f 7a bb 0d 1e 5a be a0|...QY...oz...Z..|
*      |until 0x4ea9.3 (383)                           |                |
       |                                               |                |            [25]{}: partition 0x4ea9.4-0x5027.1 (381.5)
       |                                               |                |              count: 128
0x04ea0|                           db 41               |         .A     |              rice_parameter: 22 0x4ea9.4-0x4eaa.1 (0.5)
0x04ea0|                              41 a1 db 81 26 61|          A...&a|              samples: raw bits 0x4eaa.1-0x5027.1 (381)
0x04eb0|86 a4 ad 42 96 96 b8 f5 29 6a d5 2c bc 12 49 14|...B....)j.,..I.|
*      |until 0x5027 (381)                             |                |
       |                                               |                |            [26]{}: partition 0x5027.1-0x51a4.7 (381.6)
       |                                               |                |              count: 128
0x05020|                     58                        |       X        |              rice_parameter: 22 0x5027.1-0x5027.6 (0.5)
0x05020|                     58 d2 02 87 0d 98 b9 49 70|       X......Ip|              samples: raw bits 0x5027.6-0x51a4.7 (381.1)
0x05030|25 bc e8 64 5f b5 1f 7b bb 7c 98 e8 8e ed b4 17|%..d_..{.|......|
*      |until 0x51a4.6 (382)                           |                |
       |                                               |                |            [27]{}: partition 0x51a4.7-0x5323.7 (383)
       |                                               |                |              count: 128
0x051a0|            6b 68                              |    kh          |              rice_parameter: 22 0x51a4.7-0x51a5.4 (0.5)
0x051a0|               68 1a ef bd d7 d8 bf 98 9d cf 0b|     h..........|              samples: raw bits 0x51a5.4-0x5323.7 (382.3)
0x051b0|0a 12 d7 bb 21 ef 2d 3e 8a 3f c8 d8 84 17 01 ef|....!.->.?......|
*      |until 0x5323.6 (383)                           |                |
       |                                               |                |            [28]{}: partition 0x5323.7-0x54a3 (383.1)
       |                                               |                |              count: 128
0x05320|         93 6e                                 |   .n           |              rice_parameter: 22 0x5323.7-0x5324.4 (0.5)
0x05320|            6e 91 77 6d b0 36 b1 67 20 73 11 f4|    n.wm.6.g s..|              samples: raw bits 0x5324.4-0x54a3 (382.4)
0x05330|70 25 7e 5c d5 7c d7 b9 4c 61 db fc 26 e5 b7 97|p%~\.|..La..&...|
*      |until 0x54a2.7 (383)                           |                |
       |                                               |                |            [29]{}: partition 0x54a3-0x5623.2 (384.2)
       |                                               |                |              count: 128
0x054a0|         b7                                    |   .            |              rice_parameter: 22 0x54a3-0x54a3.5 (0.5)
0x054a0|         b7 4e 0f 47 18 8f a5 24 20 ab e2 56 b9|   .N.G...$ ..V.|              samples: raw bits 0x54a3.5-0x5623.2 (383.5)
0x054b0|cf 5e 12 eb 0e 45 62 89 23 04 af 2a 32 ac bd fb|.^...Eb.#..*2...|
*      |until 0x5623.1 (384)                           |                |
       |                                               |                |            [30]{}: partition 0x5623.2-0x57a3.1 (383.7)
       |                                               |                |              count: 128
0x05620|         ad                                    |   .            |              rice_parameter: 22 0x5623.2-0x5623.7 (0.5)
0x05620|         ad 1e 8d e0 4d a5 09 96 23 30 ac ee e2|   ....M...#0...|              samples: raw bits 0x5623.7-0x57a3.1 (383.2)
0x05630|88 40 00 35 01 b1 e3 e4 e2 d6 d9 8e a4 2c 9b c1|.@.5.........,..|
*      |until 0x57a3 (384)                             |                |
       |                                               |                |            [31]{}: partition 0x57a3.1-0x5920.7 (381.6)
       |                                               |                |              count: 128
0x057a0|         5a                                    |   Z            |              rice_parameter: 22 0x57a3.1-0x57a3.6 (0.5)
0x057a0|         5a bf 07 ec 2c f9 ef 07 fe 77 b3 be 3e|   Z...,....w..>|              samples: raw bits 0x57a3.6-0x5920.7 (381.1)
0x057b0|0d a0 4f 55 c8 48 aa 08 a9 0f 19 51 18 b0 8b ae|..OU.H.....Q....|
*      |until 0x5920.6 (382)                           |                |
       |                                               |                |        [1]{}: subframe 0x5920.7-0x8a28 (12551.1)
0x05920|e8                                             |.               |          zero_bit: 0 (valid) 0x5920.7-0x5921 (0.1)
0x05920|   20                                          |                |          subframe_type: "fixed" (0b1000) 0x5921-0x5921.6 (0.6)
       |                                               |                |          lpc_order: 0
0x05920|   20                                          |                |          wasted_bits_flag: 0 0x5921.6-0x5921.7 (0.1)
       |                                               |                |          subframe_sample_size: 25
       |                                               |                |          warmup_samples[0:0]: 0x5921.7-0x5921.7 (0)
0x05920|   20 ad                                       |  .             |          residual_coding_method: 5 (1) (rice2) 0x5921.7-0x5922.1 (0.2)
0x05920|      ad                                       |  .             |          partition_order: 5 0x5922.1-0x5922.5 (0.4)
       |                                               |                |          rice_partitions: 32
       |                                               |                |          partitions[0:32]: 0x5922.5-0x8a28 (12549.3)
       |                                               |                |            [0]{}: partition 0x5922.5-0x5a85.3 (354.6)
       |                                               |                |              count: 128
0x05920|      ad 17                                    |  ..            |              rice_parameter: 20 0x5922.5-0x5923.2 (0.5)
0x05920|         17 77 ff 54 d7 fd 2e 7f f4 25 7f fc 7b|   .w.T.....%..{|              samples: raw bits 0x5923.2-0x5a85.3 (354.1)
0x05930|ff be 9f fc ce ff dd 7f fe a6 3f f3 1b ff 89 0f|..........?.....|
*      |until 0x5a85.2 (355)                           |                |
       |                                               |                |            [1]{}: partition 0x5a85.3-0x5be9.7 (356.4)
       |                                               |                |              count: 128
0x05a80|               f4                              |     .          |              rice_parameter: 20 0x5a85.3-0x5a86 (0.5)
0x05a80|                  16 15 ff 16 8f ff 16 cd ff 16|      ..........|              samples: raw bits 0x5a86-0x5be9.7 (355.7)
0x05a90|cf ff 16 93 ff 16 19 ff 15 65 ff 14 73 ff 13 47|.........e..s..G|
*      |until 0x5be9.6 (356)                           |                |
       |                                               |                |            [2]{}: partition 0x5be9.7-0x5d4b.4 (353.5)
       |                                               |                |              count: 128
0x05be0|                           01 42               |         .B     |              rice_parameter: 20 0x5be9.7-0x5bea.4 (0.5)
0x05be0|                              42 d4 40 05 14 00|          B.@...|              samples: raw bits 0x5bea.4-0x5d4b.4 (353)
0x05bf0|08 f4 00 3e e8 00 e7 b0 03 4e c0 0b fa 00 2a f4|...>.....N....*.|
*      |until 0x5d4b.3 (353)                           |                |
       |                                               |                |            [3]{}: partition 0x5d4b.4-0x5eb1 (357.4)
       |                                               |                |              count: 128
0x05d40|                                 0a 17         |           ..   |              rice_parameter: 20 0x5d4b.4-0x5d4c.1 (0.5)
0x05d40|                                    17 7c 00 30|            .|.0|              samples: raw bits 0x5d4c.1-0x5eb1 (356.7)
0x05d50|38 00 62 08 00 c5 80 01 89 e0 03 0a 80 05 f3 80|8.b.............|
*      |until 0x5eb0.7 (357)                           |                |
       |                                               |                |            [4]{}: partition 0x5eb1-0x601e.4 (365.4)
       |                                               |                |              count: 128
0x05eb0|   aa                                          | .              |              rice_parameter: 21 0x5eb1-0x5eb1.5 (0.5)
0x05eb0|   aa ef bf f5 91 ff ea 81 ff d3 b6 ff a4 c1 ff| ...............|              samples: raw bits 0x5eb1.5-0x601e.4 (364.7)
0x05ec0|44 17 ff fa 7f ff 92 3f fc ed ff ee 63 ff a4 8f|D......?....c...|
*      |until 0x601e.3 (365)                           |                |
       |                                               |                |            [5]{}: partition 0x601e.4-0x61ac.6 (398.2)
       |                                               |                |              count: 128
0x06010|                                          9b f9|              ..|              rice_parameter: 23 0x601e.4-0x601f.1 (0.5)
0x06010|                                             f9|               .|              samples: raw bits 0x601f.1-0x61ac.6 (397.5)
0x06020|a3 11 f6 fc 05 f8 22 da 4f 16 a5 7b 0d 30 6e 61|......".O..{.0na|
*      |until 0x61ac.5 (398)                           |                |
       |                                               |                |            [6]{}: partition 0x61ac.6-0x633b (398.2)
       |                                               |                |              count: 128
0x061a0|                                    26 e5      |            &.  |              rice_parameter: 23 0x61ac.6-0x61ad.3 (0.5)
0x061a0|                                       e5 77 fd|             .w.|              samples: raw bits 0x61ad.3-0x633b (397.5)
0x061b0|12 44 c9 eb 1d 51 42 9a 8e 50 69 50 f4 91 9b 58|.D...QB..PiP...X|
*      |until 0x633a.7 (398)                           |                |
       |                                               |                |            [7]{}: partition 0x633b-0x64c9.2 (398.2)
       |                                               |                |              count: 128
0x06330|                                 bd            |           .    |              rice_parameter: 23 0x633b-0x633b.5 (0.5)
0x06330|                                 bd af 56 db fc|           ..V..|              samples: raw bits 0x633b.5-0x64c9.2 (397.5)
0x06340|19 d2 88 4f b1 77 bd dc 2e 06 0b 06 92 46 e9 30|...O.w.......F.0|
*      |until 0x64c9.1 (398)                           |                |
       |                                               |                |            [8]{}: partition 0x64c9.2-0x6658.7 (399.5)
       |                                               |                |              count: 128
0x064c0|                           6e                  |         n      |              rice_parameter: 23 0x64c9.2-0x64c9.7 (0.5)
0x064c0|                           6e 63 8c a9 8b c2 87|         nc.....|              samples: raw bits 0x64c9.7-0x6658.7 (399)
0x064d0|67 e0 d4 df 25 17 6b 68 34 af 21 ef f6 81 83 9c|g...%.kh4.!.....|
*      |until 0x6658.6 (399)                           |                |
       |                                               |                |            [9]{}: partition 0x6658.7-0x67e7.7 (399)
       |                                               |                |              count: 128
0x06650|                        7b 7e                  |        {~      |              rice_parameter: 23 0x6658.7-0x6659.4 (0.5)
0x06650|                           7e ed aa af 35 c4 18|         ~...5..|              samples: raw bits 0x6659.4-0x67e7.7 (398.3)
0x06660|ff 57 35 4a 48 bf 9e 03 3c 4f 6b 9f 4b 0a 64 36|.W5JH...<Ok.K.d6|
*      |until 0x67e7.6 (399)                           |                |
       |                                               |                |            [10]{}: partition 0x67e7.7-0x6976.6 (398.7)
       |                                               |                |              count: 128
0x067e0|                     2b 76                     |       +v       |              rice_parameter: 23 0x67e7.7-0x67e8.4 (0.5)
0x067e0|                        76 bc 04 69 18 68 b6 43|        v..i.h.C|              samples: raw bits 0x67e8.4-0x6976.6 (398.2)
0x067f0|67 9c bb 25 fa 76 ff 22 5f 09 47 89 b2 dc 44 05|g..%.v."_.G...D.|
*      |until 0x6976.5 (399)                           |                |
       |                                               |                |            [11]{}: partition 0x6976.6-0x6b04.7 (398.1)
       |                                               |                |              count: 128
0x06970|                  36 f7                        |      6.        |              rice_parameter: 23 0x6976.6-0x6977.3 (0.5)
0x06970|                     f7 88 ba ac 73 55 ab e8 82|       ....sU...|              samples: raw bits 0x6977.3-0x6b04.7 (397.4)
0x06980|0a 79 de da 1f 4c 4b 5f ee 18 8f 05 55 02 27 7a|.y...LK_....U.'z|
*      |until 0x6b04.6 (398)                           |                |
       |                                               |                |            [12]{}: partition 0x6b04.7-0x6c92.6 (397.7)
       |                                               |                |              count: 128
0x06b00|            2f 7d                              |    /}          |              rice_parameter: 23 0x6b04.7-0x6b05.4 (0.5)
0x06b00|               7d 51 2f 67 84 d5 52 c7 01 5e 94|     }Q/g..R..^.|              samples: raw bits 0x6b05.4-0x6c92.6 (397.2)
0x06b10|6a e3 9b 7e 15 b8 36 ef eb 1d 83 36 c7 3e 45 bb|j..~..6....6.>E.|
*      |until 0x6c92.5 (398)                           |                |
       |                                               |                |            [13]{}: partition 0x6c92.6-0x6e21.4 (398.6)
       |                                               |                |              count: 128
0x06c90|      66 f1                                    |  f.            |              rice_parameter: 23 0x6c92.6-0x6c93.3 (0.5)
0x06c90|         f1 64 75 ad 2f a2 81 4c df f5 c1 b0 9e|   .du./..L.....|              samples: raw bits 0x6c93.3-0x6e21.4 (398.1)
0x06ca0|e1 d5 11 22 42 72 fb ca e7 ff 0c dd 26 48 6f e0|..."Br......&Ho.|
*      |until 0x6e21.3 (399)                           |                |
       |                                               |                |            [14]{}: partition 0x6e21.4-0x6fb0.5 (399.1)
       |                                               |                |              count: 128
0x06e20|   ab ab                                       | ..             |              rice_parameter: 23 0x6e21.4-0x6e22.1 (0.5)
0x06e20|      ab 92 5a 7b 60 64 65 9d ef 48 4c 70 25 3e|  ..Z{`de..HLp%>|              samples: raw bits 0x6e22.1-0x6fb0.5 (398.4)
0x06e30|91 14 9a fd ba 23 00 e7 5c 29 d0 f7 c9 43 81 9b|.....#..\)...C..|
*      |until 0x6fb0.4 (399)                           |                |
       |                                               |                |            [15]{}: partition 0x6fb0.5-0x713f.6 (399.1)
       |                                               |                |              count: 128
0x06fb0|7d d3                                          |}.              |              rice_parameter: 23 0x6fb0.5-0x6fb1.2 (0.5)
0x06fb0|   d3 7e 77 59 17 8b d6 75 de 46 4c b8 10 8c 2c| .~wY...u.FL...,|              samples: raw bits 0x6fb1.2-0x713f.6 (398.4)
0x06fc0|f5 89 0c 55 2f 7b 41 c5 a1 d5 6d 30 80 e4 d2 77|...U/{A...m0...w|
*      |until 0x713f.5 (399)                           |                |
       |                                               |                |            [16]{}: partition 0x713f.6-0x72d0.5 (400.7)
       |                                               |                |              count: 128
0x07130|                                             46|               F|              rice_parameter: 23 0x713f.6-0x7140.3 (0.5)
0x07140|ff                                             |.               |
0x07140|ff e3 76 04 61 62 41 8b 48 5a 98 a2 e6 5f d6 ec|..v.abA.HZ..._..|              samples: raw bits 0x7140.3-0x72d0.5 (400.2)
0x07150|62 69 d4 a7 eb 6e 0d d5 ef c8 d2 f7 ff 9e 24 ae|bi...n........$.|
*      |until 0x72d0.4 (401)                           |                |
       |                                               |                |            [17]{}: partition 0x72d0.5-0x745e.4 (397.7)
       |                                               |                |              count: 128
0x072d0|9d d7                                          |..              |              rice_parameter: 23 0x72d0.5-0x72d1.2 (0.5)
0x072d0|   d7 00 ba 47 57 9e d6 5b b0 93 c0 07 03 43 dd| ...GW..[.....C.|              samples: raw bits 0x72d1.2-0x745e.4 (397.2)
0x072e0|da 06 47 2d 3d 5c fe 47 43 72 6e 69 3b 71 1c de|..G-=\.GCrni;q..|
*      |until 0x745e.3 (398)                           |                |
       |                                               |                |            [18]{}: partition 0x745e.4-0x75ed (398.4)
       |                                               |                |              count: 128
0x07450|                                          0b bb|              ..|              rice_parameter: 23 0x745e.4-0x745f.1 (0.5)
0x07450|                                             bb|               .|              samples: raw bits 0x745f.1-0x75ed (397.7)
0x07460|3b 30 06 35 83 0c 51 74 f9 5f 38 42 a6 a6 5d 5a|;0.5..Qt._8B..]Z|
*      |until 0x75ec.7 (398)                           |                |
       |                                               |                |            [19]{}: partition 0x75ed-0x777c (399)
       |                                               |                |              count: 128
0x075e0|                                       bb      |             .  |              rice_parameter: 23 0x75ed-0x75ed.5 (0.5)
0x075e0|                                       bb 33 7f|             .3.|              samples: raw bits 0x75ed.5-0x777c (398.3)
0x075f0|ef 1e e5 2d 3c a2 25 d9 f3 60 be e3 2a 39 8b c2|...-<.%..`..*9..|
*      |until 0x777b.7 (399)                           |                |
       |                                               |                |            [20]{}: partition 0x777c-0x790a.6 (398.6)
       |                                               |                |              count: 128
0x07770|                                    be         |            .   |              rice_parameter: 23 0x777c-0x777c.5 (0.5)
0x07770|                                    be 2d 2f 4a|            .-/J|              samples: raw bits 0x777c.5-0x790a.6 (398.1)
0x07780|ef 9b 87 b5 0b ab bf f1 c6 07 39 71 8f 41 92 2f|..........9q.A./|
*      |until 0x790a.5 (399)                           |                |
       |                                               |                |            [21]{}: partition 0x790a.6-0x7a9a.1 (399.3)
       |                                               |                |              count: 128
0x07900|                              22 e4            |          ".    |              rice_parameter: 23 0x790a.6-0x790b.3 (0.5)
0x07900|                                 e4 3e 29 43 38|           .>)C8|              samples: raw bits 0x790b.3-0x7a9a.1 (398.6)
0x07910|6d a4 71 72 c6 a8 53 4a 37 4f b6 8b bf 7e 1a 73|m.qr..SJ7O...~.s|
*      |until 0x7a9a (399)                             |                |
       |                                               |                |            [22]{}: partition 0x7a9a.1-0x7c29.3 (399.2)
       |                                               |                |              count: 128
0x07a90|                              dd               |          .     |              rice_parameter: 23 0x7a9a.1-0x7a9a.6 (0.5)
0x07a90|                              dd a4 0a 15 c7 0b|          ......|              samples: raw bits 0x7a9a.6-0x7c29.3 (398.5)
0x07aa0|3e ad 12 1c d3 74 c2 1b 41 90 ce fd a6 2d 3c 85|>....t..A....-<.|
*      |until 0x7c29.2 (399)                           |                |
       |                                               |                |            [23]{}: partition 0x7c29.3-0x7db6.6 (397.3)
       |                                               |                |              count: 128
0x07c20|                           b7                  |         .      |              rice_parameter: 23 0x7c29.3-0x7c2a (0.5)
0x07c20|                              5f df c7 67 81 d3|          _..g..|              samples: raw bits 0x7c2a-0x7db6.6 (396.6)
0x07c30|f3 cc 8e ab 8a 2e 99 ed 91 f8 23 ba 26 28 18 e7|..........#.&(..|
*      |until 0x7db6.5 (397)                           |                |
       |                                               |                |            [24]{}: partition 0x7db6.6-0x7f45.2 (398.4)
       |                                               |                |              count: 128
0x07db0|                  f2 e4                        |      ..        |              rice_parameter: 23 0x7db6.6-0x7db7.3 (0.5)
0x07db0|                     e4 80 2b e9 17 94 a2 d7 bb|       ..+......|              samples: raw bits 0x7db7.3-0x7f45.2 (397.7)
0x07dc0|f1 5d 1e 90 ee 5f eb ec 29 aa d4 fe 11 5f af 21|.]..._..)...._.!|
*      |until 0x7f45.1 (398)                           |                |
       |                                               |                |            [25]{}: partition 0x7f45.2-0x80d5 (399.6)
       |                                               |                |              count: 128
0x07f40|               2f                              |     /          |              rice_parameter: 23 0x7f45.2-0x7f45.7 (0.5)
0x07f40|               2f e3 e9 32 52 18 46 19 d9 c6 08|     /..2R.F....|              samples: raw bits 0x7f45.7-0x80d5 (399.1)
0x07f50|6c 1c a3 fd 68 7f 71 1e 4e 8a 69 08 64 51 bb 10|l...h.q.N.i.dQ..|
*      |until 0x80d4.7 (400)                           |                |
       |                                               |                |            [26]{}: partition 0x80d5-0x8263.7 (398.7)
       |                                               |                |              count: 128
0x080d0|               bd                              |     .          |              rice_parameter: 23 0x80d5-0x80d5.5 (0.5)
0x080d0|               bd bc ee 69 c0 a7 13 84 57 09 c4|     ...i....W..|              samples: raw bits 0x80d5.5-0x8263.7 (398.2)
0x080e0|ac 2f 36 b5 9e bf 14 1a 76 d8 41 d6 63 b4 24 1d|./6.....v.A.c.$.|
*      |until 0x8263.6 (399)                           |                |
       |                                               |                |            [27]{}: partition 0x8263.7-0x83f2.6 (398.7)
       |                                               |                |              count: 128
0x08260|         d9 72                                 |   .r           |              rice_parameter: 23 0x8263.7-0x8264.4 (0.5)
0x08260|            72 6f 23 f5 c1 ea 98 6d 7d bb f9 86|    ro#....m}...|              samples: raw bits 0x8264.4-0x83f2.6 (398.2)
0x08270|51 cb 0f a4 b1 44 cb af c5 55 05 8d cb cd 02 0f|Q....D...U......|
*      |until 0x83f2.5 (399)                           |                |
       |                                               |                |            [28]{}: partition 0x83f2.6-0x8580.1 (397.3)
       |                                               |                |              count: 128
0x083f0|      52 ff                                    |  R.            |              rice_parameter: 23 0x83f2.6-0x83f3.3 (0.5)
0x083f0|         ff e6 73 5d 93 6b 62 a2 3d 7f 5d a1 b7|   ..s].kb.=.]..|              samples: raw bits 0x83f3.3-0x8580.1 (396.6)
0x08400|e6 01 4a db 23 d1 24 3b cb 7f d7 0d e5 bb af f5|..J.#.$;........|
*      |until 0x8580 (397)                             |                |
       |                                               |                |            [29]{}: partition 0x8580.1-0x870b.4 (395.3)
       |                                               |                |              count: 128
0x08580|5f                                             |_               |              rice_parameter: 23 0x8580.1-0x8580.6 (0.5)
0x08580|5f 52 19 c9 fe 13 2c d6 71 fc 75 75 1b 1c 87 9d|_R....,.q.uu....|              samples: raw bits 0x8580.6-0x870b.4 (394.6)
0x08590|04 ed d6 ec 0f 7d fc 85 17 9f 3f fc 13 d4 23 a7|.....}....?...#.|
*      |until 0x870b.3 (395)                           |                |
       |                                               |                |            [30]{}: partition 0x870b.4-0x8899.4 (398)
       |                                               |                |              count: 128
0x08700|                                 db 8c         |           ..   |              rice_parameter: 23 0x870b.4-0x870c.1 (0.5)
0x08700|                                    8c 6e c0 0d|            .n..|              samples: raw bits 0x870c.1-0x8899.4 (397.3)
0x08710|7b dc 3e e9 54 cb 40 64 92 3f ee 5a 0e b9 27 be|{.>.T.@d.?.Z..'.|
*      |until 0x8899.3 (398)                           |                |
       |                                               |                |            [31]{}: partition 0x8899.4-0x8a28 (398.4)
       |                                               |                |              count: 128
0x08890|                           4b ee               |         K.     |              rice_parameter: 23 0x8899.4-0x889a.1 (0.5)
0x08890|                              ee 04 17 18 0c 26|          .....&|              samples: raw bits 0x889a.1-0x8a28 (397.7)
0x088a0|37 32 c3 3a fc 28 85 f5 83 6e 10 95 01 bd e9 44|72.:.(...n.....D|
*      |until 0x8a27.7 (398)                           |                |
       |                                               |                |      byte_align: 0 (valid) 0x8a28-0x8a28 (0)
0x08a20|                        e5 bf                  |        ..      |      footer_crc: "e5bf" (raw bits) (valid) 0x8a28-0x8a2a (2)
       |00 01 02 03 04 05 06 07 08 09 0a 0b 0c 0d 0e 0f|0123456789abcdef|    [3]{}: frame (flac_frame) 0x8a2a-0xd40f (18917)
       |                                               |                |      header{}: 0x8a2a-0x8a30 (6)
0x08a20|                              ff f8            |          ..    |        sync: 0b11111111111110 (valid) 0x8a2a-0x8a2b.6 (1.6)
0x08a20|                                 f8            |           .    |        reserved0: 0 (valid) 0x8a2b.6-0x8a2b.7 (0.1)
0x08a20|                                 f8            |           .    |        blocking_strategy: "fixed" (0) 0x8a2b.7-0x8a2c (0.1)
0x08a20|                                    c9         |            .   |        block_size: 4096 (0b1100) 0x8a2c-0x8a2c.4 (0.4)
0x08a20|                                    c9         |            .   |        sample_rate: 44100 (0b1001) 0x8a2c.4-0x8a2d (0.4)
0x08a20|                                       1c      |             .  |        channel_assignment: 2 (1) (lr) 0x8a2d-0x8a2d.4 (0.4)
0x08a20|                                       1c      |             .  |        sample_size: 24 (0b110) 0x8a2d.4-0x8a2d.7 (0.3)
0x08a20|                                       1c      |             .  |        reserved1: 0 (valid) 0x8a2d.7-0x8a2e (0.1)
       |                                               |                |        end_of_header{}: 0x8a2e-0x8a2f (1)
0x08a20|                                          03   |              . |          frame_number: 3 0x8a2e-0x8a2f (1)
0x08a20|                                             9f|               .|        crc: 0x9f (valid) 0x8a2f-0x8a30 (1)
       |                                               |                |      subframes[0:2]: 0x8a30-0xd40c.4 (18908.4)
       |                                               |                |        [0]{}: subframe 0x8a30-0xb1f5.2 (10181.2)
0x08a30|12                                             |.               |          zero_bit: 0 (valid) 0x8a30-0x8a30.1 (0.1)
0x08a30|12                                             |.               |          subframe_type: "fixed" (0b1001) 0x8a30.1-0x8a30.7 (0.6)
       |                                               |                |          lpc_order: 1
0x08a30|12                                             |.               |          wasted_bits_flag: 0 0x8a30.7-0x8a31 (0.1)
       |                                               |                |          subframe_sample_size: 24
       |                                               |                |          warmup_samples[0:1]: 0x8a31-0x8a34 (3)
0x08a30|   14 b1 40                                    | ..@            |            [0]: 1356096 value 0x8a31-0x8a34 (3)
0x08a30|            56                                 |    V           |          residual_coding_method: 5 (1) (rice2) 0x8a34-0x8a34.2 (0.2)
0x08a30|            56                                 |    V           |          partition_order: 5 0x8a34.2-0x8a34.6 (0.4)
       |                                               |                |          rice_partitions: 32
       |                                               |                |          partitions[0:32]: 0x8a34.6-0xb1f5.2 (10176.4)
       |                                               |                |            [0]{}: partition 0x8a34.6-0x8bbf.6 (395)
       |                                               |                |              count: 127
0x08a30|            56 ea                              |    V.          |              rice_parameter: 23 0x8a34.6-0x8a35.3 (0.5)
0x08a30|               ea 6b 47 a9 09 4d 62 97 e6 3f 4d|     .kG..Mb..?M|              samples: raw bits 0x8a35.3-0x8bbf.6 (394.3)
0x08a40|13 3f 45 4d e4 53 9c 7b 18 3c 24 26 87 ab 41 3b|.?EM.S.{.<$&..A;|
*      |until 0x8bbf.5 (395)                           |                |
       |                                               |                |            [1]{}: partition 0x8bbf.6-0x8d50.6 (401)
       |                                               |                |              count: 128
0x08bb0|                                             d2|               .|              rice_parameter: 23 0x8bbf.6-0x8bc0.3 (0.5)
0x08bc0|e3                                             |.               |
0x08bc0|e3 15 c6 d6 ab 38 80 52 ad 9d 31 03 ce 58 9f 1e|.....8.R..1..X..|              samples: raw bits 0x8bc0.3-0x8d50.6 (400.3)
0x08bd0|45 fd d8 59 c4 f9 08 24 f8 74 c8 f9 6f 84 a6 4b|E..Y...$.t..o..K|
*      |until 0x8d50.5 (401)                           |                |
       |                                               |                |            [2]{}: partition 0x8d50.6-0x8edf.4 (398.6)
       |                                               |                |              count: 128
0x08d50|8e e5                                          |..              |              rice_parameter: 23 0x8d50.6-0x8d51.3 (0.5)
0x08d50|   e5 62 58 c1 62 8b cf b1 f5 10 e1 83 a5 85 fa| .bX.b..........|              samples: raw bits 0x8d51.3-0x8edf.4 (398.1)
0x08d60|15 63 30 bd 49 b5 49 d7 8e 59 2f 6b b6 35 6b a5|.c0.I.I..Y/k.5k.|
*      |until 0x8edf.3 (399)                           |                |
       |                                               |                |            [3]{}: partition 0x8edf.4-0x906e.3 (398.7)
       |                                               |                |              count: 128
0x08ed0|                                             9b|               .|              rice_parameter: 23 0x8edf.4-0x8ee0.1 (0.5)
0x08ee0|9f                                             |.               |
0x08ee0|9f 9c 31 c7 32 9d 28 d5 20 b0 31 c7 a4 6e e8 59|..1.2.(. .1..n.Y|              samples: raw bits 0x8ee0.1-0x906e.3 (398.2)
0x08ef0|f0                                             |.               |
*      |until 0x906e.2 (399)                           |                |
       |                                               |                |            [4]{}: partition 0x906e.3-0x91fa.5 (396.2)
       |                                               |                |              count: 128
0x09060|                                          d7   |              . |              rice_parameter: 23 0x906e.3-0x906f (0.5)
0x09060|                                             c4|               .|              samples: raw bits 0x906f-0x91fa.5 (395.5)
0x09070|e7 30 58 eb 1e bb 57 d3 4a c6 e6 05 61 f5 d7 22|.0X...W.J...a.."|
*      |until 0x91fa.4 (396)                           |                |
       |                                               |                |            [5]{}: partition 0x91fa.5-0x9389.1 (398.4)
       |                                               |                |              count: 128
0x091f0|                              3d fd            |          =.    |              rice_parameter: 23 0x91fa.5-0x91fb.2 (0.5)
0x091f0|                                 fd f9 e8 bc 07|           .....|              samples: raw bits 0x91fb.2-0x9389.1 (397.7)
0x09200|8c 9b 4c 38 31 3e bd 0b 17 81 e6 35 a7 2a 26 db|..L81>.....5.*&.|
*      |until 0x9389 (398)                             |                |
       |                                               |                |            [6]{}: partition 0x9389.1-0x9515.6 (396.5)
       |                                               |                |              count: 128
0x09380|                           5d                  |         ]      |              rice_parameter: 23 0x9389.1-0x9389.6 (0.5)
0x09380|                           5d ca 03 da ec f9 fc|         ]......|              samples: raw bits 0x9389.6-0x9515.6 (396)
0x09390|77 e8 7a f8 d0 76 2b 70 74 a6 ea 81 cd 51 8a 78|w.z..v+pt....Q.x|
*      |until 0x9515.5 (396)                           |                |
       |                                               |                |            [7]{}: partition 0x9515.6-0x968c.2 (374.4)
       |                                               |                |              count: 128
0x09510|               aa a6                           |     ..         |              rice_parameter: 21 0x9515.6-0x9516.3 (0.5)
0x09510|                  a6 0f 66 e0 0f b8 1b 42 a8 1e|      ..f....B..|              samples: raw bits 0x9516.3-0x968c.2 (373.7)
0x09520|82 61 a0 f0 01 f5 5f f1 f7 cf fa 0f 10 13 3f ef|.a...._.......?.|
*      |until 0x968c.1 (374)                           |                |
       |                                               |                |            [8]{}: partition 0x968c.2-0x97af.2 (291)
       |                                               |                |              count: 128
0x09680|                                    20         |                |              rice_parameter: 16 0x968c.2-0x968c.7 (0.5)
0x09680|                                    20 47 80 1f|             G..|              samples: raw bits 0x968c.7-0x97af.2 (290.3)
0x09690|80 07 30 01 9c 00 5a 80 13 60 04 00 03 90 01 8e|..0...Z..`......|
*      |until 0x97af.1 (291)                           |                |
       |                                               |                |            [9]{}: partition 0x97af.2-0x98d5 (293.6)
       |                                               |                |              count: 128
0x097a0|                                             20|                |              rice_parameter: 16 0x97af.2-0x97af.7 (0.5)
0x097a0|                                             20|                |              samples: raw bits 0x97af.7-0x98d5 (293.1)
0x097b0|ce 00 39 80 0f b0 01 20 00 28 40 05 80 00 bf 00|..9.... .(@.....|
*      |until 0x98d4.7 (294)                           |                |
       |                                               |                |            [10]{}: partition 0x98d5-0x99f8.1 (291.1)
       |                                               |                |              count: 128
0x098d0|               81                              |     .          |              rice_parameter: 16 0x98d5-0x98d5.5 (0.5)
0x098d0|               81 4b ff 24 ff ef ff fb ab fe d4|     .K.$.......|              samples: raw bits 0x98d5.5-0x99f8.1 (290.4)
0x098e0|ff ae bf ea 1f fa 1b ff d5 ff cd ff d7 ff e4 bf|................|
*      |until 0x99f8 (291)                             |                |
       |                                               |                |            [11]{}: partition 0x99f8.1-0x9b1d.6 (293.5)
       |                                               |                |              count: 128
0x099f0|                        c1                     |        .       |              rice_parameter: 16 0x99f8.1-0x99f8.6 (0.5)
0x099f0|                        c1 5d ff 63 ff db ff f7|        .].c....|              samples: raw bits 0x99f8.6-0x9b1d.6 (293)
0x09a00|b7 fc 89 ff 93 9f f2 b3 fe 5d 7f cc 6f f9 9f ff|.........]..o...|
*      |until 0x9b1d.5 (293)                           |                |
       |                                               |                |            [12]{}: partition 0x9b1d.6-0x9c41 (291.2)
       |                                               |                |              count: 128
0x09b10|                                       02 05   |             .. |              rice_parameter: 16 0x9b1d.6-0x9b1e.3 (0.5)
0x09b10|                                          05 c0|              ..|              samples: raw bits 0x9b1e.3-0x9c41 (290.5)
0x09b20|00 a9 00 13 20 02 18 00 f1 00 36 80 0c 20 02 a0|.... .....6.. ..|
*      |until 0x9c40.7 (291)                           |                |
       |                                               |                |            [13]{}: partition 0x9c41-0x9d66.4 (293.4)
       |                                               |                |              count: 128
0x09c40|   82                                          | .              |              rice_parameter: 16 0x9c41-0x9c41.5 (0.5)
0x09c40|   82 38 00 a8 00 30 80 0d a0 03 c4 00 42 80 09| .8...0......B..|              samples: raw bits 0x9c41.5-0x9d66.4 (292.7)
0x09c50|90 01 54 00 2d c0 06 20 00 cf 00 1a c0 03 6c 00|..T.-.. ......l.|
*      |until 0x9d66.3 (293)                           |                |
       |                                               |                |            [14]{}: partition 0x9d66.4-0x9e8a.1 (291.5)
       |                                               |                |              count: 128
0x09d60|                  f8 18                        |      ..        |              rice_parameter: 16 0x9d66.4-0x9d67.1 (0.5)
0x09d60|                     18 df f2 eb fe 56 ff c9 cf|       .....V...|              samples: raw bits 0x9d67.1-0x9e8a.1 (291)
0x09d70|f9 13 ff 7a ff db ff f6 47 fd 5d ff 49 ff fe 3f|...z....G.].I..?|
*      |until 0x9e8a (291)                             |                |
       |                                               |                |            [15]{}: partition 0x9e8a.1-0x9faf.2 (293.1)
       |                                               |                |              count: 128
0x09e80|                              c3               |          .     |              rice_parameter: 16 0x9e8a.1-0x9e8a.6 (0.5)
0x09e80|                              c3 ab fe 85 ff a8|          ......|              samples: raw bits 0x9e8a.6-0x9faf.2 (292.4)
0x09e90|7f eb bf fb 4f fe eb ff bf ff e4 9f fc a4 ff 96|....O...........|
*      |until 0x9faf.1 (293)                           |                |
       |                                               |                |            [16]{}: partition 0x9faf.2-0xa0d3.1 (291.7)
       |                                               |                |              count: 128
0x09fa0|                                             20|                |              rice_parameter: 16 0x9faf.2-0x9faf.7 (0.5)
0x09fa0|                                             20|                |              samples: raw bits 0x9faf.7-0xa0d3.1 (291.2)
0x09fb0|69 80 0c a0 01 7c 00 2c 40 05 08 00 8f 00 3f 00|i....|.,@.....?.|
*      |until 0xa0d3 (292)                             |                |
       |                                               |                |            [17]{}: partition 0xa0d3.1-0xa1f8 (292.7)
       |                                               |                |              count: 128
0x0a0d0|         43                                    |   C            |              rice_parameter: 16 0xa0d3.1-0xa0d3.6 (0.5)
0x0a0d0|         43 1c 01 c6 00 40 00 13 60 05 b0 01 9c|   C....@..`....|              samples: raw bits 0xa0d3.6-0xa1f8 (292.2)
0x0a0e0|00 73 00 1f 60 02 40 00 50 80 0b 00 01 7e 00 32|.s..`.@.P....~.2|
*      |until 0xa1f7.7 (293)                           |                |
       |                                               |                |            [18]{}: partition 0xa1f8-0xa31c.2 (292.2)
       |                                               |                |              count: 128
0x0a1f0|                        81                     |        .       |              rice_parameter: 16 0xa1f8-0xa1f8.5 (0.5)
0x0a1f0|                        81 b3 ff 34 bf e6 67 fc|        ...4..g.|              samples: raw bits 0xa1f8.5-0xa31c.2 (291.5)
0x0a200|c0 ff 96 9f f2 97 fe 49 ff df ff f7 57 fd a9 ff|.......I....W...|
*      |until 0xa31c.1 (292)                           |                |
       |                                               |                |            [19]{}: partition 0xa31c.2-0xa440.6 (292.4)
       |                                               |                |              count: 128
0x0a310|                                    e1         |            .   |              rice_parameter: 16 0xa31c.2-0xa31c.7 (0.5)
0x0a310|                                    e1 41 ff be|            .A..|              samples: raw bits 0xa31c.7-0xa440.6 (291.7)
0x0a320|ff ee 7f fd ff e9 4f fa bb fe c7 ff b7 ff ef 6f|......O........o|
*      |until 0xa440.5 (292)                           |                |
       |                                               |                |            [20]{}: partition 0xa440.6-0xa565.2 (292.4)
       |                                               |                |              count: 128
0x0a440|02 06                                          |..              |              rice_parameter: 16 0xa440.6-0xa441.3 (0.5)
0x0a440|   06 f0 00 db 00 1a c0 03 3c 00 62 00 0b 80 01| ........<.b....|              samples: raw bits 0xa441.3-0xa565.2 (291.7)
0x0a450|52 00 26 40 04 30 01 e2 00 6d 00 18 40 05 40 01|R.&@.0...m..@.@.|
*      |until 0xa565.1 (292)                           |                |
       |                                               |                |            [21]{}: partition 0xa565.2-0xa689.4 (292.2)
       |                                               |                |              count: 128
0x0a560|               e1                              |     .          |              rice_parameter: 16 0xa565.2-0xa565.7 (0.5)
0x0a560|               e1 07 ff 9a 00 5c 00 35 40 1e 40|     .....\.5@.@|              samples: raw bits 0xa565.7-0xa689.4 (291.5)
0x0a570|04 70 01 50 00 61 00 1b 40 07 88 00 85 00 13 20|.p.P.a..@...... |
*      |until 0xa689.3 (292)                           |                |
       |                                               |                |            [22]{}: partition 0xa689.4-0xa7ae.3 (292.7)
       |                                               |                |              count: 128
0x0a680|                           f8 1b               |         ..     |              rice_parameter: 16 0xa689.4-0xa68a.1 (0.5)
0x0a680|                              1b 9f f3 77 fe 6d|          ...w.m|              samples: raw bits 0xa68a.1-0xa7ae.3 (292.2)
0x0a690|ff cd 7f f9 9f ff 31 bf e5 d7 fc ad ff 93 9f f2|......1.........|
*      |until 0xa7ae.2 (293)                           |                |
       |                                               |                |            [23]{}: partition 0xa7ae.3-0xa8d2.2 (291.7)
       |                                               |                |              count: 128
0x0a7a0|                                          10   |              . |              rice_parameter: 16 0xa7ae.3-0xa7af (0.5)
0x0a7a0|                                             a9|               .|              samples: raw bits 0xa7af-0xa8d2.2 (291.2)
0x0a7b0|00 45 80 24 bf f5 ff fc df ff 57 fd 0b ff 50 ff|.E.$......W...P.|
*      |until 0xa8d2.1 (292)                           |                |
       |                                               |                |            [24]{}: partition 0xa8d2.2-0xa9f7.3 (293.1)
       |                                               |                |              count: 128
0x0a8d0|      20                                       |                |              rice_parameter: 16 0xa8d2.2-0xa8d2.7 (0.5)
0x0a8d0|      20 6c 80 0d d0 01 ba 00 37 40 06 c8 00 d3|   l......7@....|              samples: raw bits 0xa8d2.7-0xa9f7.3 (292.4)
0x0a8e0|00 19 40 02 f8 00 58 80 0a 10 01 1e 00 7e 00 1c|..@...X......~..|
*      |until 0xa9f7.2 (293)                           |                |
       |                                               |                |            [25]{}: partition 0xa9f7.3-0xab1b (291.5)
       |                                               |                |              count: 128
0x0a9f0|                     f0                        |       .        |              rice_parameter: 16 0xa9f7.3-0xa9f8 (0.5)
0x0a9f0|                        cd ff d7 ff e4 bf f1 60|        .......`|              samples: raw bits 0xa9f8-0xab1b (291)
0x0aa00|0a 90 06 38 03 8c 00 80 00 26 c0 0b 60 03 38 00|...8.....&..`.8.|
*      |until 0xab1a.7 (291)                           |                |
       |                                               |                |            [26]{}: partition 0xab1b-0xac40.4 (293.4)
       |                                               |                |              count: 128
0x0ab10|                                 81            |           .    |              rice_parameter: 16 0xab1b-0xab1b.5 (0.5)
0x0ab10|                                 81 9f ff 35 ff|           ...5.|              samples: raw bits 0xab1b.5-0xac40.4 (292.7)
0x0ab20|e6 df fc dd ff 9b bf f3 67 fe 69 7f cc cf f9 81|........g.i.....|
*      |until 0xac40.3 (293)                           |                |
       |                                               |                |            [27]{}: partition 0xac40.4-0xad63.6 (291.2)
       |                                               |                |              count: 128
0x0ac40|08 79                                          |.y              |              rice_parameter: 16 0xac40.4-0xac41.1 (0.5)
0x0ac40|   79 00 35 40 17 00 09 a0 04 1f fe 83 ff 7d ff| y.5@.........}.|              samples: raw bits 0xac41.1-0xad63.6 (290.5)
0x0ac50|dc ff fb ff d2 9f f5 77 fd 8f ff 6f ff de df f2|.......w...o....|
*      |until 0xad63.5 (291)                           |                |
       |                                               |                |            [28]{}: partition 0xad63.6-0xae89.3 (293.5)
       |                                               |                |              count: 128
0x0ad60|         02 06                                 |   ..           |              rice_parameter: 16 0xad63.6-0xad64.3 (0.5)
0x0ad60|            06 20 00 cf 00 1a c0 03 6c 00 6e 80|    . ......l.n.|              samples: raw bits 0xad64.3-0xae89.3 (293)
0x0ad70|0d e0 01 b6 00 35 80 06 78 00 c4 00 17 00 02 a4|.....5..x.......|
*      |until 0xae89.2 (293)                           |                |
       |                                               |                |            [29]{}: partition 0xae89.3-0xafac.4 (291.1)
       |                                               |                |              count: 128
0x0ae80|                           f0                  |         .      |              rice_parameter: 16 0xae89.3-0xae8a (0.5)
0x0ae80|                              49 ff fe 3f fb 7f|          I..?..|              samples: raw bits 0xae8a-0xafac.4 (290.4)
0x0ae90|fb ff fd 07 fe 0f ff 34 00 b8 00 6a 80 3c 80 08|.......4...j.<..|
*      |until 0xafac.3 (291)                           |                |
       |                                               |                |            [30]{}: partition 0xafac.4-0xb0d2.2 (293.6)
       |                                               |                |              count: 128
0x0afa0|                                    f8 16      |            ..  |              rice_parameter: 16 0xafac.4-0xafad.1 (0.5)
0x0afa0|                                       16 9f f3|             ...|              samples: raw bits 0xafad.1-0xb0d2.2 (293.1)
0x0afb0|03 fe 66 7f cd 3f f9 b3 ff 37 3f e6 ef fc db ff|..f..?...7?.....|
*      |until 0xb0d2.1 (294)                           |                |
       |                                               |                |            [31]{}: partition 0xb0d2.2-0xb1f5.2 (291)
       |                                               |                |              count: 128
0x0b0d0|      20                                       |                |              rice_parameter: 16 0xb0d2.2-0xb0d2.7 (0.5)
0x0b0d0|      20 b5 00 26 c0 08 00 07 20 03 1c 01 52 00|   ..&.... ...R.|              samples: raw bits 0xb0d2.7-0xb1f5.2 (290.3)
0x0b0e0|8b 00 49 7f eb ff f9 bf fe af fa 17 fe a1 ff ae|..I.............|
*      |until 0xb1f5.1 (291)                           |                |
       |                                               |                |        [1]{}: subframe 0xb1f5.2-0xd40c.4 (8727.2)
0x0b1f0|               04                              |     .          |          zero_bit: 0 (valid) 0xb1f5.2-0xb1f5.3 (0.1)
0x0b1f0|               04 ae                           |     ..         |          subframe_type: "fixed" (0b1001) 0xb1f5.3-0xb1f6.1 (0.6)
       |                                               |                |          lpc_order: 1
0x0b1f0|                  ae                           |      .         |          wasted_bits_flag: 0 0xb1f6.1-0xb1f6.2 (0.1)
       |                                               |                |          subframe_sample_size: 24
       |                                               |                |          warmup_samples[0:1]: 0xb1f6.2-0xb1f9.2 (3)
0x0b1f0|                  ae ec 60 d5                  |      ..`.      |            [0]: -4476541 value 0xb1f6.2-0xb1f9.2 (3)
0x0b1f0|                           d5                  |         .      |          residual_coding_method: 5 (1) (rice2) 0xb1f9.2-0xb1f9.4 (0.2)
0x0b1f0|                           d5                  |         .      |          partition_order: 5 0xb1f9.4-0xb1fa (0.4)
       |                                               |                |          rice_partitions: 32
       |                                               |                |          partitions[0:32]: 0xb1fa-0xd40c.4 (8722.4)
       |                                               |                |            [0]{}: partition 0xb1fa-0xb385.7 (395.7)
       |                                               |                |              count: 127
0x0b1f0|                              bf               |          .     |              rice_parameter: 23 0xb1fa-0xb1fa.5 (0.5)
0x0b1f0|                              bf 8d 86 c9 95 44|          .....D|              samples: raw bits 0xb1fa.5-0xb385.7 (395.2)
0x0b200|fc e5 5a 1f af 91 a7 23 00 fc 0b 71 30 32 21 73|..Z....#...q02!s|
*      |until 0xb385.6 (396)                           |                |
       |                                               |                |            [1]{}: partition 0xb385.7-0xb513.3 (397.4)
       |                                               |                |              count: 128
0x0b380|               8f 74                           |     .t         |              rice_parameter: 23 0xb385.7-0xb386.4 (0.5)
0x0b380|                  74 66 de 04 6f 71 ba a8 2f 36|      tf..oq../6|              samples: raw bits 0xb386.4-0xb513.3 (396.7)
0x0b390|c9 b4 98 cc 98 90 d9 df 0b 95 dd bd 4d d6 d2 97|............M...|
*      |until 0xb513.2 (397)                           |                |
       |                                               |                |            [2]{}: partition 0xb513.3-0xb6a5 (401.5)
       |                                               |                |              count: 128
0x0b510|         f7                                    |   .            |              rice_parameter: 23 0xb513.3-0xb514 (0.5)
0x0b510|            dd 88 9c 41 00 f4 6f 47 4a ae 72 9e|    ...A..oGJ.r.|              samples: raw bits 0xb514-0xb6a5 (401)
0x0b520|74 c5 e6 8a 30 0e 91 12 0e 6c 21 a3 bf d1 cd 77|t...0....l!....w|
*      |until 0xb6a4.7 (401)                           |                |
       |                                               |                |            [3]{}: partition 0xb6a5-0xb832.6 (397.6)
       |                                               |                |              count: 128
0x0b6a0|               b9                              |     .          |              rice_parameter: 23 0xb6a5-0xb6a5.5 (0.5)
0x0b6a0|               b9 60 57 0e b9 00 86 92 4f 4f 27|     .`W.....OO'|              samples: raw bits 0xb6a5.5-0xb832.6 (397.1)
0x0b6b0|41 f8 51 df 7b d3 93 e3 25 7f 2e 10 b0 b8 5b 20|A.Q.{...%.....[ |
*      |until 0xb832.5 (398)                           |                |
       |                                               |                |            [4]{}: partition 0xb832.6-0xb9c2.2 (399.4)
       |                                               |                |              count: 128
0x0b830|      2a ef                                    |  *.            |              rice_parameter: 23 0xb832.6-0xb833.3 (0.5)
0x0b830|         ef 18 bf be 20 ce 3f 3b 1b 4d a2 a1 58|   .... .?;.M..X|              samples: raw bits 0xb833.3-0xb9c2.2 (398.7)
0x0b840|13 72 1a 03 74 fe 96 4d 47 b3 2c b6 29 2a 2a ee|.r..t..MG.,.)**.|
*      |until 0xb9c2.1 (399)                           |                |
       |                                               |                |            [5]{}: partition 0xb9c2.2-0xbb4e.7 (396.5)
       |                                               |                |              count: 128
0x0b9c0|      af                                       |  .             |              rice_parameter: 23 0xb9c2.2-0xb9c2.7 (0.5)
0x0b9c0|      af 81 91 2d 1c fa 1b ab de 9e a5 39 ed 84|  ...-.......9..|              samples: raw bits 0xb9c2.7-0xbb4e.7 (396)
0x0b9d0|b1 cf cf 22 c0 b7 63 bd a2 75 06 8b 8a 4c 11 40|..."..c..u...L.@|
*      |until 0xbb4e.6 (396)                           |                |
       |                                               |                |            [6]{}: partition 0xbb4e.7-0xbcdc.6 (397.7)
       |                                               |                |              count: 128
0x0bb40|                                          e9 72|              .r|              rice_parameter: 23 0xbb4e.7-0xbb4f.4 (0.5)
0x0bb40|                                             72|               r|              samples: raw bits 0xbb4f.4-0xbcdc.6 (397.2)
0x0bb50|df 3f cd 70 9d a5 fa 85 5d 33 78 88 77 c0 b1 eb|.?.p....]3x.w...|
*      |until 0xbcdc.5 (398)                           |                |
       |                                               |                |            [7]{}: partition 0xbcdc.6-0xbe54.6 (376)
       |                                               |                |              count: 128
0x0bcd0|                                    e2 a0      |            ..  |              rice_parameter: 21 0xbcdc.6-0xbcdd.3 (0.5)
0x0bcd0|                                       a0 17 b4|             ...|              samples: raw bits 0xbcdd.3-0xbe54.6 (375.3)
0x0bce0|97 90 9e d7 66 b8 9a 05 79 1b 80 08 16 6b 40 16|....f...y....k@.|
*      |until 0xbe54.5 (376)                           |                |
       |                                               |                |            [8]{}: partition 0xbe54.6-0xbf3a.7 (230.1)
       |                                               |                |              count: 128
0x0be50|            01 82                              |    ..          |              rice_parameter: 12 0xbe54.6-0xbe55.3 (0.5)
0x0be50|               82 00 02 00 02 00 02 00 02 40 02|     .........@.|              samples: raw bits 0xbe55.3-0xbf3a.7 (229.4)
0x0be60|00 07 80 0f 00 08 00 1e 00 3c 00 20 00 78 00 e0|.........<. .x..|
*      |until 0xbf3a.6 (230)                           |                |
       |                                               |                |            [9]{}: partition 0xbf3a.7-0xc019 (222.1)
       |                                               |                |              count: 128
0x0bf30|                              00 cb            |          ..    |              rice_parameter: 12 0xbf3a.7-0xbf3b.4 (0.5)
0x0bf30|                                 cb 00 50 02 80|           ..P..|              samples: raw bits 0xbf3b.4-0xc019 (221.4)
0x0bf40|12 00 a0 04 80 24 01 20 08 00 48 02 00 10 00 80|.....$. ..H.....|
*      |until 0xc018.7 (222)                           |                |
       |                                               |                |            [10]{}: partition 0xc019-0xc109.5 (240.5)
       |                                               |                |              count: 128
0x0c010|                           6a                  |         j      |              rice_parameter: 13 0xc019-0xc019.5 (0.5)
0x0c010|                           6a bf f5 3f ea ff d5|         j..?...|              samples: raw bits 0xc019.5-0xc109.5 (240)
0x0c020|ff ab ff 5b fe af fd 5f fa df f5 bf eb 7f d6 ff|...[..._........|
*      |until 0xc109.4 (240)                           |                |
       |                                               |                |            [11]{}: partition 0xc109.5-0xc1f8.2 (238.5)
       |                                               |                |              count: 128
0x0c100|                           fb 5c               |         .\     |              rice_parameter: 13 0xc109.5-0xc10a.2 (0.5)
0x0c100|                              5c ff b7 ff 77 fe|          \...w.|              samples: raw bits 0xc10a.2-0xc1f8.2 (238)
0x0c110|df fd cf fb 7f f6 ff ee 7f dc ff b7 ff 6f fe df|.............o..|
*      |until 0xc1f8.1 (238)                           |                |
       |                                               |                |            [12]{}: partition 0xc1f8.2-0xc2cb.4 (211.2)
       |                                               |                |              count: 128
0x0c1f0|                        d6                     |        .       |              rice_parameter: 11 0xc1f8.2-0xc1f8.7 (0.5)
0x0c1f0|                        d6 2f fc 4f f8 9f f1 3f|        ./.O...?|              samples: raw bits 0xc1f8.7-0xc2cb.4 (210.5)
0x0c200|e2 7f c4 ff 9f fe 27 fc ff f3 7f cf ff 3f fc df|......'......?..|
*      |until 0xc2cb.3 (211)                           |                |
       |                                               |                |            [13]{}: partition 0xc2cb.4-0xc3b9.5 (238.1)
       |                                               |                |              count: 128
0x0c2c0|                                 06 f0         |           ..   |              rice_parameter: 13 0xc2cb.4-0xc2cc.1 (0.5)
0x0c2c0|                                    f0 01 c0 07|            ....|              samples: raw bits 0xc2cc.1-0xc3b9.5 (237.4)
0x0c2d0|40 1d 00 74 01 c0 07 80 1d 00 78 01 e0 07 40 1f|@..t......x...@.|
*      |until 0xc3b9.4 (238)                           |                |
       |                                               |                |            [14]{}: partition 0xc3b9.5-0xc4aa.2 (240.5)
       |                                               |                |              count: 128
0x0c3b0|                           03 5d               |         .]     |              rice_parameter: 13 0xc3b9.5-0xc3ba.2 (0.5)
0x0c3b0|                              5d 00 3a 00 70 00|          ].:.p.|              samples: raw bits 0xc3ba.2-0xc4aa.2 (240)
0x0c3c0|e8 01 c0 03 a0 07 40 0e 00 1d 00 3a 00 70 00 e8|......@....:.p..|
*      |until 0xc4aa.1 (240)                           |                |
       |                                               |                |            [15]{}: partition 0xc4aa.2-0xc58b.7 (225.5)
       |                                               |                |              count: 128
0x0c4a0|                              18               |          .     |              rice_parameter: 12 0xc4aa.2-0xc4aa.7 (0.5)
0x0c4a0|                              18 78 00 e0 01 e0|          .x....|              samples: raw bits 0xc4aa.7-0xc58b.7 (225)
0x0c4b0|03 c0 07 00 0e 00 1a 00 38 00 68 00 e0 01 c0 03|........8.h.....|
*      |until 0xc58b.6 (225)                           |                |
       |                                               |                |            [16]{}: partition 0xc58b.7-0xc66d.4 (225.5)
       |                                               |                |              count: 128
0x0c580|                                 fe c8         |           ..   |              rice_parameter: 12 0xc58b.7-0xc58c.4 (0.5)
0x0c580|                                    c8 00 47 fe|            ..G.|              samples: raw bits 0xc58c.4-0xc66d.4 (225)
0x0c590|3f f1 ff 9f fc 7f e7 ff 3f fa ff cf fe bf f5 ff|?.......?.......|
*      |until 0xc66d.3 (225)                           |                |
       |                                               |                |            [17]{}: partition 0xc66d.4-0xc75e.1 (240.5)
       |                                               |                |              count: 128
0x0c660|                                       f6 ad   |             .. |              rice_parameter: 13 0xc66d.4-0xc66e.1 (0.5)
0x0c660|                                          ad ff|              ..|              samples: raw bits 0xc66e.1-0xc75e.1 (240)
0x0c670|5b fe bf fd 7f fa ff f5 ff eb ff d7 ff b1 ff 5f|[.............._|
*      |until 0xc75e (240)                             |                |
       |                                               |                |            [18]{}: partition 0xc75e.1-0xc84b (236.7)
       |                                               |                |              count: 128
0x0c750|                                          b5   |              . |              rice_parameter: 13 0xc75e.1-0xc75e.6 (0.5)
0x0c750|                                          b5 af|              ..|              samples: raw bits 0xc75e.6-0xc84b (236.2)
0x0c760|fb 9f f6 ff ed ff db ff b5 ff 6f fe d7 fd bf fb|..........o.....|
*      |until 0xc84a.7 (237)                           |                |
       |                                               |                |            [19]{}: partition 0xc84b-0xc91f.1 (212.1)
       |                                               |                |              count: 128
0x0c840|                                 59            |           Y    |              rice_parameter: 11 0xc84b-0xc84b.5 (0.5)
0x0c840|                                 59 bf e6 ff 97|           Y....|              samples: raw bits 0xc84b.5-0xc91f.1 (211.4)
0x0c850|fe 6f f9 7f e5 ff 97 fe 4f f9 7f e4 ff 93 fe 4f|.o......O......O|
*      |until 0xc91f (212)                             |                |
       |                                               |                |            [20]{}: partition 0xc91f.1-0xca0f (239.7)
       |                                               |                |              count: 128
0x0c910|                                             37|               7|              rice_parameter: 13 0xc91f.1-0xc91f.6 (0.5)
0x0c910|                                             37|               7|              samples: raw bits 0xc91f.6-0xca0f (239.2)
0x0c920|e0 0f 80 3e 00 f8 01 00 07 c0 08 00 3e 00 44 00|...>........>.D.|
*      |until 0xca0e.7 (240)                           |                |
       |                                               |                |            [21]{}: partition 0xca0f-0xcaff.5 (240.5)
       |                                               |                |              count: 128
0x0ca00|                                             6b|               k|              rice_parameter: 13 0xca0f-0xca0f.5 (0.5)
0x0ca00|                                             6b|               k|              samples: raw bits 0xca0f.5-0xcaff.5 (240)
0x0ca10|a0 07 40 0e 80 1d 00 3a 00 74 00 e8 01 d0 03 a0|..@....:.t......|
*      |until 0xcaff.4 (240)                           |                |
       |                                               |                |            [22]{}: partition 0xcaff.5-0xcbdd.6 (222.1)
       |                                               |                |              count: 128
0x0caf0|                                             03|               .|              rice_parameter: 12 0xcaff.5-0xcb00.2 (0.5)
0x0cb00|0d                                             |.               |
0x0cb00|0d 00 1a 00 34 00 60 00 c0 01 80 03 00 05 80 0c|....4.`.........|              samples: raw bits 0xcb00.2-0xcbdd.6 (221.4)
0x0cb10|00 16 00 30 00 58 00 a0 01 60 02 c0 05 00 0b 00|...0.X...`......|
*      |until 0xcbdd.5 (222)                           |                |
       |                                               |                |            [23]{}: partition 0xcbdd.6-0xccc3.2 (229.4)
       |                                               |                |              count: 128
0x0cbd0|                                       fd 97   |             .. |              rice_parameter: 12 0xcbdd.6-0xcbde.3 (0.5)
0x0cbd0|                                          97 ff|              ..|              samples: raw bits 0xcbde.3-0xccc3.2 (228.7)
0x0cbe0|af fd ff ef ff 9f fb ff e7 ff 3f f9 ff df fe 7f|..........?.....|
*      |until 0xccc3.1 (229)                           |                |
       |                                               |                |            [24]{}: partition 0xccc3.2-0xcdb3.7 (240.5)
       |                                               |                |              count: 128
0x0ccc0|         da                                    |   .            |              rice_parameter: 13 0xccc3.2-0xccc3.7 (0.5)
0x0ccc0|         da c7 fd 8f fb 3f f6 7f ec 7f d8 ff b3|   .....?.......|              samples: raw bits 0xccc3.7-0xcdb3.7 (240)
0x0ccd0|ff 67 fe c7 fd 9f fb 5f f6 7f ec ff d9 ff b3 ff|.g....._........|
*      |until 0xcdb3.6 (240)                           |                |
       |                                               |                |            [25]{}: partition 0xcdb3.7-0xce9f (235.1)
       |                                               |                |              count: 128
0x0cdb0|         fe d6                                 |   ..           |              rice_parameter: 13 0xcdb3.7-0xcdb4.4 (0.5)
0x0cdb0|            d6 ff ed 7f d9 ff b5 ff 6b fe d7 fd|    ........k...|              samples: raw bits 0xcdb4.4-0xce9f (234.4)
0x0cdc0|9f fb 5f f6 bf ec ff d9 ff b3 ff 67 fe d7 fd 9f|.._........g....|
*      |until 0xce9e.7 (235)                           |                |
       |                                               |                |            [26]{}: partition 0xce9f-0xcf76 (215)
       |                                               |                |              count: 128
0x0ce90|                                             5b|               [|              rice_parameter: 11 0xce9f-0xce9f.5 (0.5)
0x0ce90|                                             5b|               [|              samples: raw bits 0xce9f.5-0xcf76 (214.3)
0x0cea0|ff df fe ff f6 ff bf fd bf ed ff 6f fa ff db fe|...........o....|
*      |until 0xcf75.7 (215)                           |                |
       |                                               |                |            [27]{}: partition 0xcf76-0xd066.5 (240.5)
       |                                               |                |              count: 128
0x0cf70|                  6a                           |      j         |              rice_parameter: 13 0xcf76-0xcf76.5 (0.5)
0x0cf70|                  6a 20 04 40 09 00 11 00 24 00|      j .@....$.|              samples: raw bits 0xcf76.5-0xd066.5 (240)
0x0cf80|48 00 90 01 30 02 40 04 80 09 80 13 00 26 00 4c|H...0.@......&.L|
*      |until 0xd066.4 (240)                           |                |
       |                                               |                |            [28]{}: partition 0xd066.5-0xd157.2 (240.5)
       |                                               |                |              count: 128
0x0d060|                  03 5d                        |      .]        |              rice_parameter: 13 0xd066.5-0xd067.2 (0.5)
0x0d060|                     5d 00 3a 00 74 00 e8 01 d0|       ].:.t....|              samples: raw bits 0xd067.2-0xd157.2 (240)
0x0d070|03 c0 07 40 0e 80 1d 00 3a 00 74 00 f0 01 d0 03|...@....:.t.....|
*      |until 0xd157.1 (240)                           |                |
       |                                               |                |            [29]{}: partition 0xd157.2-0xd231.7 (218.5)
       |                                               |                |              count: 128
0x0d150|                     18                        |       .        |              rice_parameter: 12 0xd157.2-0xd157.7 (0.5)
0x0d150|                     18 58 00 a0 01 60 02 80 05|       .X...`...|              samples: raw bits 0xd157.7-0xd231.7 (218)
0x0d160|00 09 00 14 00 24 00 50 00 90 01 20 02 40 04 00|.....$.P... .@..|
*      |until 0xd231.6 (218)                           |                |
       |                                               |                |            [30]{}: partition 0xd231.7-0xd31b.7 (234)
       |                                               |                |              count: 128
0x0d230|   fe da                                       | ..             |              rice_parameter: 13 0xd231.7-0xd232.4 (0.5)
0x0d230|      da ff ed ff b7 fe df fb 7f ef ff b7 fe ff|  ..............|              samples: raw bits 0xd232.4-0xd31b.7 (233.3)
0x0d240|fb ff ef ff bf ff 1f fc 7f f1 ff c7 ff 1f fc ff|................|
*      |until 0xd31b.6 (234)                           |                |
       |                                               |                |            [31]{}: partition 0xd31b.7-0xd40c.4 (240.5)
       |                                               |                |              count: 128
0x0d310|                                 fe d6         |           ..   |              rice_parameter: 13 0xd31b.7-0xd31c.4 (0.5)
0x0d310|                                    d6 7f ed 7f|            ....|              samples: raw bits 0xd31c.4-0xd40c.4 (240)
0x0d320|da ff b5 ff 67 fe d7 fd af fb 5f f6 bf ed 7f da|....g....._.....|
*      |until 0xd40c.3 (240)                           |                |
0x0d400|                                    f0         |            .   |      byte_align: 0 (valid) 0xd40c.4-0xd40d (0.4)
0x0d400|                                       ab 69   |             .i |      footer_crc: "ab69" (raw bits) (valid) 0xd40d-0xd40f (2)
       |00 01 02 03 04 05 06 07 08 09 0a 0b 0c 0d 0e 0f|0123456789abcdef|    [4]{}: frame (flac_frame) 0xd40f-0x10725 (13078)
       |                                               |                |      header{}: 0xd40f-0xd415 (6)
0x0d400|                                             ff|               .|        sync: 0b11111111111110 (valid) 0xd40f-0xd410.6 (1.6)
0x0d410|f8                                             |.               |
0x0d410|f8                                             |.               |        reserved0: 0 (valid) 0xd410.6-0xd410.7 (0.1)
0x0d410|f8                                             |.               |        blocking_strategy: "fixed" (0) 0xd410.7-0xd411 (0.1)
0x0d410|   c9                                          | .              |        block_size: 4096 (0b1100) 0xd411-0xd411.4 (0.4)
0x0d410|   c9                                          | .              |        sample_rate: 44100 (0b1001) 0xd411.4-0xd412 (0.4)
0x0d410|      1c                                       |  .             |        channel_assignment: 2 (1) (lr) 0xd412-0xd412.4 (0.4)
0x0d410|      1c                                       |  .             |        sample_size: 24 (0b110) 0xd412.4-0xd412.7 (0.3)
0x0d410|      1c                                       |  .             |        reserved1: 0 (valid) 0xd412.7-0xd413 (0.1)
       |                                               |                |        end_of_header{}: 0xd413-0xd414 (1)
0x0d410|         04                                    |   .            |          frame_number: 4 0xd413-0xd414 (1)
0x0d410|            8a                                 |    .           |        crc: 0x8a (valid) 0xd414-0xd415 (1)
       |                                               |                |      subframes[0:2]: 0xd415-0x10722.2 (13069.2)
       |                                               |                |        [0]{}: subframe 0xd415-0x1036c (12119)
0x0d410|               10                              |     .          |          zero_bit: 0 (valid) 0xd415-0xd415.1 (0.1)
0x0d410|               10                              |     .          |          subframe_type: "fixed" (0b1000) 0xd415.1-0xd415.7 (0.6)
       |                                               |                |          lpc_order: 0
0x0d410|               10                              |     .          |          wasted_bits_flag: 0 0xd415.7-0xd416 (0.1)
       |                                               |                |          subframe_sample_size: 24
       |                                               |                |          warmup_samples[0:0]: 0xd416-0xd416 (0)
0x0d410|                  52                           |      R         |          residual_coding_method: 5 (1) (rice2) 0xd416-0xd416.2 (0.2)
0x0d410|                  52                           |      R         |          partition_order: 4 0xd416.2-0xd416.6 (0.4)
       |                                               |                |          rice_partitions: 16
       |                                               |                |          partitions[0:16]: 0xd416.6-0x1036c (12117.2)
       |                                               |                |            [0]{}: partition 0xd416.6-0xd6cc.5 (693.7)
       |                                               |                |              count: 256
0x0d410|                  52 88                        |      R.        |              rice_parameter: 20 0xd416.6-0xd417.3 (0.5)
0x0d410|                     88 6f ff f9 ff ff 80 3f f9|       .o.....?.|              samples: raw bits 0xd417.3-0xd6cc.5 (693.2)
0x0d420|6f ff b6 4f fd 05 ff e2 bb ff 15 c0 0a 0b 00 5b|o..O...........[|
*      |until 0xd6cc.4 (694)                           |                |
       |                                               |                |            [1]{}: partition 0xd6cc.5-0xd982.5 (694)
       |                                               |                |              count: 256
0x0d6c0|                                    05 13      |            ..  |              rice_parameter: 20 0xd6cc.5-0xd6cd.2 (0.5)
0x0d6c0|                                       13 ae 00|             ...|              samples: raw bits 0xd6cd.2-0xd982.5 (693.3)
0x0d6d0|45 d0 03 e3 40 1c a4 00 d0 b0 05 dd 80 29 8c 01|E...@........)..|
*      |until 0xd982.4 (694)                           |                |
       |                                               |                |            [2]{}: partition 0xd982.5-0xdc38.4 (693.7)
       |                                               |                |              count: 256
0x0d980|      fd 16                                    |  ..            |              rice_parameter: 20 0xd982.5-0xd983.2 (0.5)
0x0d980|         16 41 ff 50 df fd 20 5f ff d8 ff f5 0f|   .A.P.. _.....|              samples: raw bits 0xd983.2-0xdc38.4 (693.2)
0x0d990|ff 57 7f f8 1d ff ab 8f fc ae ff e0 03 ff 2b a0|.W............+.|
*      |until 0xdc38.3 (694)                           |                |
       |                                               |                |            [3]{}: partition 0xdc38.4-0xdeee.3 (693.7)
       |                                               |                |              count: 256
0x0dc30|                        0a 31                  |        .1      |              rice_parameter: 20 0xdc38.4-0xdc39.1 (0.5)
0x0dc30|                           31 2c 00 b5 f0 02 97|         1,.....|              samples: raw bits 0xdc39.1-0xdeee.3 (693.2)
0x0dc40|c0 09 4b 00 20 98 01 de 20 0d b0 00 63 18 02 c3|..K. ... ...c...|
*      |until 0xdeee.2 (694)                           |                |
       |                                               |                |            [4]{}: partition 0xdeee.3-0xe1b7.7 (713.4)
       |                                               |                |              count: 256
0x0dee0|                                          f4   |              . |              rice_parameter: 20 0xdeee.3-0xdeef (0.5)
0x0dee0|                                             6a|               j|              samples: raw bits 0xdeef-0xe1b7.7 (712.7)
0x0def0|7f fd 90 3f f5 cd ff d5 41 ff 4c 87 fd 0d ff ff|...?....A.L.....|
*      |until 0xe1b7.6 (713)                           |                |
       |                                               |                |            [5]{}: partition 0xe1b7.7-0xe4ca (786.1)
       |                                               |                |              count: 256
0x0e1b0|                     e5 7e                     |       .~       |              rice_parameter: 23 0xe1b7.7-0xe1b8.4 (0.5)
0x0e1b0|                        7e 06 5e 2e 3d 98 d5 a1|        ~.^.=...|              samples: raw bits 0xe1b8.4-0xe4ca (785.4)
0x0e1c0|0e eb 53 74 da f5 34 fb 01 ba 95 9e 6b 67 c8 bf|..St..4.....kg..|
*      |until 0xe4c9.7 (786)                           |                |
       |                                               |                |            [6]{}: partition 0xe4ca-0xe7d6.3 (780.3)
       |                                               |                |              count: 256
0x0e4c0|                              b1               |          .     |              rice_parameter: 22 0xe4ca-0xe4ca.5 (0.5)
0x0e4c0|                              b1 27 94 5d 4d 79|          .'.]My|              samples: raw bits 0xe4ca.5-0xe7d6.3 (779.6)
0x0e4d0|c9 48 1d e8 f4 49 1d 68 ce 0c b8 97 e9 7b 6d fc|.H...I.h.....{m.|
*      |until 0xe7d6.2 (780)                           |                |
       |                                               |                |            [7]{}: partition 0xe7d6.3-0xeae4.7 (782.4)
       |                                               |                |              count: 256
0x0e7d0|                  b6                           |      .         |              rice_parameter: 22 0xe7d6.3-0xe7d7 (0.5)
0x0e7d0|                     fc a1 54 7d b9 7e 78 e6 ca|       ..T}.~x..|              samples: raw bits 0xe7d7-0xeae4.7 (781.7)
0x0e7e0|1a eb 46 07 8e 2f d8 d3 99 e7 6d 96 07 ce b5 ea|..F../....m.....|
*      |until 0xeae4.6 (782)                           |                |
       |                                               |                |            [8]{}: partition 0xeae4.7-0xedf6.2 (785.3)
       |                                               |                |              count: 256
0x0eae0|            af 7d                              |    .}          |              rice_parameter: 23 0xeae4.7-0xeae5.4 (0.5)
0x0eae0|               7d 41 61 55 0a 59 3f 7d 82 0d 95|     }AaU.Y?}...|              samples: raw bits 0xeae5.4-0xedf6.2 (784.6)
0x0eaf0|19 a7 77 02 05 ad 96 d2 a1 e1 9e 7e 7c dd ee 09|..w........~|...|
*      |until 0xedf6.1 (785)                           |                |
       |                                               |                |            [9]{}: partition 0xedf6.2-0xf107.6 (785.4)
       |                                               |                |              count: 256
0x0edf0|                  6f                           |      o         |              rice_parameter: 23 0xedf6.2-0xedf6.7 (0.5)
0x0edf0|                  6f 2d 55 48 d8 d2 1c db 9c cf|      o-UH......|              samples: raw bits 0xedf6.7-0xf107.6 (784.7)
0x0ee00|b6 3f 17 f5 4f e9 ee 9f 95 5f 15 6f 3e d6 79 9e|.?..O...._.o>.y.|
*      |until 0xf107.5 (785)                           |                |
       |                                               |                |            [10]{}: partition 0xf107.6-0xf418.5 (784.7)
       |                                               |                |              count: 256
0x0f100|                     c2 ff                     |       ..       |              rice_parameter: 23 0xf107.6-0xf108.3 (0.5)
0x0f100|                        ff 84 3d 6f 6d 5f 84 c4|        ..=om_..|              samples: raw bits 0xf108.3-0xf418.5 (784.2)
0x0f110|a6 84 f0 42 72 aa c4 7b 2c 22 a1 50 6e 8a fc 82|...Br..{,".Pn...|
*      |until 0xf418.4 (785)                           |                |
       |                                               |                |            [11]{}: partition 0xf418.5-0xf729 (784.3)
       |                                               |                |              count: 256
0x0f410|                        25 85                  |        %.      |              rice_parameter: 22 0xf418.5-0xf419.2 (0.5)
0x0f410|                           85 9a 22 02 5f fb 50|         .."._.P|              samples: raw bits 0xf419.2-0xf729 (783.6)
0x0f420|f2 e2 fb 32 0d 60 6f 8f 08 1d 10 37 2c 84 d3 9e|...2.`o....7,...|
*      |until 0xf728.7 (784)                           |                |
       |                                               |                |            [12]{}: partition 0xf729-0xfa39.7 (784.7)
       |                                               |                |              count: 256
0x0f720|                           bf                  |         .      |              rice_parameter: 23 0xf729-0xf729.5 (0.5)
0x0f720|                           bf bf ca c7 55 16 1a|         ....U..|              samples: raw bits 0xf729.5-0xfa39.7 (784.2)
0x0f730|5f 6f 69 ea 9e 1f e4 da 73 f3 d0 cc a1 74 04 f3|_oi.....s....t..|
*      |until 0xfa39.6 (785)                           |                |
       |                                               |                |            [13]{}: partition 0xfa39.7-0xfd49.6 (783.7)
       |                                               |                |              count: 256
0x0fa30|                           b7 65               |         .e     |              rice_parameter: 22 0xfa39.7-0xfa3a.4 (0.5)
0x0fa30|                              65 bf b8 fb 84 d3|          e.....|              samples: raw bits 0xfa3a.4-0xfd49.6 (783.2)
0x0fa40|0c 4d 28 6e 50 6c 27 c1 14 71 02 53 28 4e ae 73|.M(nPl'..q.S(N.s|
*      |until 0xfd49.5 (784)                           |                |
       |                                               |                |            [14]{}: partition 0xfd49.6-0x1005a.3 (784.5)
       |                                               |                |              count: 256
0x0fd40|                           92 ff               |         ..     |              rice_parameter: 23 0xfd49.6-0xfd4a.3 (0.5)
0x0fd40|                              ff d1 b3 52 7e 88|          ...R~.|              samples: raw bits 0xfd4a.3-0x1005a.3 (784)
0x0fd50|5e d3 b5 34 3f 5d 18 3c a8 89 5c c1 69 d6 fd 56|^..4?].<..\.i..V|
*      |until 0x1005a.2 (784)                          |                |
       |                                               |                |            [15]{}: partition 0x1005a.3-0x1036c (785.5)
       |                                               |                |              count: 256
0x10050|                              57               |          W     |              rice_parameter: 23 0x1005a.3-0x1005b (0.5)
0x10050|                                 cd d5 db ac ab|           .....|              samples: raw bits 0x1005b-0x1036c (785)
0x10060|ce 79 04 bd f0 2d 5c cc 40 07 22 50 3b f9 d8 ad|.y...-\.@."P;...|
*      |until 0x1036b.7 (785)                          |                |
       |                                               |                |        [1]{}: subframe 0x1036c-0x10722.2 (950.2)
0x10360|                                    15         |            .   |          zero_bit: 0 (valid) 0x1036c-0x1036c.1 (0.1)
0x10360|                                    15         |            .   |          subframe_type: "fixed" (0b1010) 0x1036c.1-0x1036c.7 (0.6)
       |                                               |                |          lpc_order: 2
0x10360|                                    15         |            .   |          wasted_bits_flag: 1 0x1036c.7-0x1036d (0.1)
0x10360|                                       01      |             .  |          wasted_bits_k: 8 0x1036d-0x1036e (1)
       |                                               |                |          subframe_sample_size: 16
       |                                               |                |          warmup_samples[0:2]: 0x1036e-0x10372 (4)
0x10360|                                          f8 a7|              ..|            [0]: -1881 value 0x1036e-0x10370 (2)
0x10370|f8 8d                                          |..              |            [1]: -1907 value 0x10370-0x10372 (2)
0x10370|      04                                       |  .             |          residual_coding_method: 4 (0) (rice) 0x10372-0x10372.2 (0.2)
0x10370|      04                                       |  .             |          partition_order: 1 0x10372.2-0x10372.6 (0.4)
       |                                               |                |          rice_partitions: 2
       |                                               |                |          partitions[0:2]: 0x10372.6-0x10722.2 (943.4)
       |                                               |                |            [0]{}: partition 0x10372.6-0x10548.3 (469.5)
       |                                               |                |              count: 2046
0x10370|      04 0a                                    |  ..            |              rice_parameter: 0 0x10372.6-0x10373.2 (0.4)
0x10370|         0a 59 f2 cf 49 a6 92 96 65 2c cb 9e 52|   .Y..I...e,..R|              samples: raw bits 0x10373.2-0x10548.3 (469.1)
0x10380|92 ca 65 29 cd 39 a6 53 e7 ca 4b 3c a7 29 ca 72|..e).9.S..K<.).r|
*      |until 0x10548.2 (470)                          |                |
       |                                               |                |            [1]{}: partition 0x10548.3-0x10722.2 (473.7)
       |                                               |                |              count: 2048
0x10540|                        20                     |                |              rice_parameter: 0 0x10548.3-0x10548.7 (0.4)
0x10540|                        20 25 2c d9 65 97 fe 44|         %,.e..D|              samples: raw bits 0x10548.7-0x10722.2 (473.3)
0x10550|f4 22 52 9d 29 66 e5 2f cb ff a7 d3 4e 94 d9 66|."R.)f./....N..f|
*      |until 0x10722.1 (474)                          |                |
0x10720|      40                                       |  @             |      byte_align: 0 (valid) 0x10722.2-0x10723 (0.6)
0x10720|         aa 52                                 |   .R           |      footer_crc: "aa52" (raw bits) (valid) 0x10723-0x10725 (2)
       |00 01 02 03 04 05 06 07 08 09 0a 0b 0c 0d 0e 0f|0123456789abcdef|    [5]{}: frame (flac_frame) 0x10725-0x11b61 (5180)
       |                                               |                |      header{}: 0x10725-0x1072d (8)
0x10720|               ff f8                           |     ..         |        sync: 0b11111111111110 (valid) 0x10725-0x10726.6 (1.6)
0x10720|                  f8                           |      .         |        reserved0: 0 (valid) 0x10726.6-0x10726.7 (0.1)
0x10720|                  f8                           |      .         |        blocking_strategy: "fixed" (0) 0x10726.7-0x10727 (0.1)
0x10720|                     79                        |       y        |        block_size: 0b111 (end of header (16 bit)) 0x10727-0x10727.4 (0.4)
0x10720|                     79                        |       y        |        sample_rate: 44100 (0b1001) 0x10727.4-0x10728 (0.4)
0x10720|                        1c                     |        .       |        channel_assignment: 2 (1) (lr) 0x10728-0x10728.4 (0.4)
0x10720|                        1c                     |        .       |        sample_size: 24 (0b110) 0x10728.4-0x10728.7 (0.3)
0x10720|                        1c                     |        .       |        reserved1: 0 (valid) 0x10728.7-0x10729 (0.1)
       |                                               |                |        end_of_header{}: 0x10729-0x1072c (3)
0x10720|                           05                  |         .      |          frame_number: 5 0x10729-0x1072a (1)
0x10720|                              06 21            |          .!    |          block_size: 1570 0x1072a-0x1072c (2)
0x10720|                                    07         |            .   |        crc: 0x7 (valid) 0x1072c-0x1072d (1)
       |                                               |                |      subframes[0:2]: 0x1072d-0x11b5e.2 (5169.2)
       |                                               |                |        [0]{}: subframe 0x1072d-0x11994 (4711)
0x10720|                                       02      |             .  |          zero_bit: 0 (valid) 0x1072d-0x1072d.1 (0.1)
0x10720|                                       02      |             .  |          subframe_type: "verbatim" (0b1) 0x1072d.1-0x1072d.7 (0.6)
0x10720|                                       02      |             .  |          wasted_bits_flag: 0 0x1072d.7-0x1072e (0.1)
       |                                               |                |          subframe_sample_size: 24
0x10720|                                          3e 6f|              >o|          samples: raw bits 0x1072e-0x11994 (4710)
0x10730|eb 45 a2 72 73 58 5f 37 f3 92 8c da 86 a2 16 30|.E.rsX_7.......0|
*      |until 0x11993.7 (4710)                         |                |
       |                                               |                |        [1]{}: subframe 0x11994-0x11b5e.2 (458.2)
0x11990|            15                                 |    .           |          zero_bit: 0 (valid) 0x11994-0x11994.1 (0.1)
0x11990|            15                                 |    .           |          subframe_type: "fixed" (0b1010) 0x11994.1-0x11994.7 (0.6)
       |                                               |                |          lpc_order: 2
0x11990|            15                                 |    .           |          wasted_bits_flag: 1 0x11994.7-0x11995 (0.1)
0x11990|               01                              |     .          |          wasted_bits_k: 8 0x11995-0x11996 (1)
       |                                               |                |          subframe_sample_size: 16
       |                                               |                |          warmup_samples[0:2]: 0x11996-0x1199a (4)
0x11990|                  0f 8b                        |      ..        |            [0]: 3979 value 0x11996-0x11998 (2)
0x11990|                        0f 88                  |        ..      |            [1]: 3976 value 0x11998-0x1199a (2)
0x11990|                              00               |          .     |          residual_coding_method: 4 (0) (rice) 0x1199a-0x1199a.2 (0.2)
0x11990|                              00               |          .     |          partition_order: 0 0x1199a.2-0x1199a.6 (0.4)
       |                                               |                |          rice_partitions: 1
       |                                               |                |          partitions[0:1]: 0x1199a.6-0x11b5e.2 (451.4)
       |                                               |                |            [0]{}: partition 0x1199a.6-0x11b5e.2 (451.4)
       |                                               |                |              count: 1568
0x11990|                              00 65            |          .e    |              rice_parameter: 1 0x1199a.6-0x1199b.2 (0.4)
0x11990|                                 65 d5 55 5a ad|           e.UZ.|              samples: raw bits 0x1199b.2-0x11b5e.2 (451)
0x119a0|5a d6 b9 74 ba aa aa b5 5a b5 72 e5 cb a9 75 6a|Z..t....Z.r...uj|
*      |until 0x11b5e.1 (451)                          |                |
0x11b50|                                          80   |              . |      byte_align: 0 (valid) 0x11b5e.2-0x11b5f (0.6)
0x11b50|                                             fa|               .|      footer_crc: "fa69" (raw bits) (valid) 0x11b5f-0x11b61 (2)
0x11b60|69|                                            |i|              |
       |00 01 02 03 04 05 06 07 08 09 0a 0b 0c 0d 0e 0f|0123456789abcdef|
  0x000|bd dd 75 b3 c0 3e 05 52 8c c7 1f 65 a0 77 48 28|..u..>.R...e.wH(|  md5_calculated: "bddd75b3c03e05528cc71f65a0774828" (raw bits) (valid) 0x0-0x10 (16)
       |                                               |                |  decoded_samples: 22050
